(dp0
Vlog
p1
(dp2
Vcomment
p3
V
p4
sVentries
p5
(lp6
(dp7
Vcomment
p8
g4
sVserverIPAddress
p9
V216.58.216.196
p10
sVpageref
p11
VBrad Pitt
p12
sVstartedDateTime
p13
V2017-04-16T08:04:19.277-05:00
p14
sVcache
p15
(dp16
sVrequest
p17
(dp18
Vcomment
p19
g4
sVcookies
p20
(lp21
sVurl
p22
Vhttps://www.google.com/gen_204?atyp=i&ct=slh&cad=&ei=x2vzWPacBuzLjwTBr6-YDg&m=V&t=C&s=1&v=2&pv=0.24979553143592692&me=1:1492347850195,x:2,V,0,0,1280,944:0,N,1,x2vzWPacBuzLjwTBr6-YDg:0,R,1,24,8,155,1249,597:0,R,1,31,8,337,1249,332:0,R,1,32,0,338,1265,351:0,R,1,63,8,669,1249,83:0,R,1,79,8,762,1249,696:0,R,1,80,8,762,1249,696:0,R,1,83,8,775,1249,40:0,R,1,96,8,827,1249,178:0,R,1,99,0,843,1265,197:1,B,3918:9077,e,U&zx=1492347859276
p23
sVqueryString
p24
(lp25
(dp26
Vname
p27
Vatyp
p28
sVvalue
p29
Vi
p30
sa(dp31
Vname
p32
Vct
p33
sVvalue
p34
Vslh
p35
sa(dp36
Vname
p37
Vcad
p38
sVvalue
p39
g4
sa(dp40
Vname
p41
Vei
p42
sVvalue
p43
Vx2vzWPacBuzLjwTBr6-YDg
p44
sa(dp45
Vname
p46
Vm
p47
sVvalue
p48
VV
p49
sa(dp50
Vname
p51
Vt
p52
sVvalue
p53
VC
p54
sa(dp55
Vname
p56
Vs
p57
sVvalue
p58
V1
p59
sa(dp60
Vname
p61
Vv
p62
sVvalue
p63
V2
p64
sa(dp65
Vname
p66
Vpv
p67
sVvalue
p68
V0.24979553143592692
p69
sa(dp70
Vname
p71
Vme
p72
sVvalue
p73
V1:1492347850195,x:2,V,0,0,1280,944:0,N,1,x2vzWPacBuzLjwTBr6-YDg:0,R,1,24,8,155,1249,597:0,R,1,31,8,337,1249,332:0,R,1,32,0,338,1265,351:0,R,1,63,8,669,1249,83:0,R,1,79,8,762,1249,696:0,R,1,80,8,762,1249,696:0,R,1,83,8,775,1249,40:0,R,1,96,8,827,1249,178:0,R,1,99,0,843,1265,197:1,B,3918:9077,e,U
p74
sa(dp75
Vname
p76
Vzx
p77
sVvalue
p78
V1492347859276
p79
sasVheaders
p80
(lp81
sVheadersSize
p82
I947
sVbodySize
p83
I0
sVmethod
p84
VGET
p85
sVhttpVersion
p86
VHTTP/1.1
p87
ssVtimings
p88
(dp89
Vcomment
p90
g4
sVreceive
p91
I0
sVsend
p92
I0
sVssl
p93
I-1
sVconnect
p94
I-1
sVdns
p95
I-1
sVwait
p96
I0
sVblocked
p97
I-1
ssVtime
p98
I0
sVresponse
p99
(dp100
Vstatus
p101
I0
sVcomment
p102
g4
sVcookies
p103
(lp104
sV_error
p105
VNo response received
p106
sVstatusText
p107
g4
sVcontent
p108
(dp109
VmimeType
p110
g4
sVcomment
p111
g4
sVsize
p112
I0
ssVheaders
p113
(lp114
sVheadersSize
p115
I-1
sVredirectURL
p116
g4
sVbodySize
p117
I-1
sVhttpVersion
p118
Vunknown
p119
ssa(dp120
Vcomment
p121
g4
sVserverIPAddress
p122
V216.58.216.196
p123
sVpageref
p124
VBrad Pitt
p125
sVstartedDateTime
p126
V2017-04-16T08:04:19.282-05:00
p127
sVcache
p128
(dp129
sVrequest
p130
(dp131
Vcomment
p132
g4
sVcookies
p133
(lp134
sVurl
p135
Vhttp://www.google.com/
p136
sVqueryString
p137
(lp138
sVheaders
p139
(lp140
sVheadersSize
p141
I613
sVbodySize
p142
I0
sVmethod
p143
VGET
p144
sVhttpVersion
p145
VHTTP/1.1
p146
ssVtimings
p147
(dp148
Vcomment
p149
g4
sVreceive
p150
I0
sVsend
p151
I0
sVssl
p152
I-1
sVconnect
p153
I-1
sVdns
p154
I-1
sVwait
p155
I39
sVblocked
p156
I-1
ssVtime
p157
I40
sVresponse
p158
(dp159
Vstatus
p160
I302
sVcomment
p161
g4
sVcookies
p162
(lp163
sVstatusText
p164
VFound
p165
sVcontent
p166
(dp167
VmimeType
p168
Vtext/html; charset=UTF-8
p169
sVcomment
p170
g4
sVsize
p171
I0
ssVheaders
p172
(lp173
sVheadersSize
p174
I609
sVredirectURL
p175
Vhttps://www.google.com/?gws_rd=ssl
p176
sVbodySize
p177
I231
sVhttpVersion
p178
VHTTP/1.1
p179
ssa(dp180
Vcomment
p181
g4
sVserverIPAddress
p182
V216.58.216.196
p183
sVpageref
p184
VBrad Pitt
p185
sVstartedDateTime
p186
V2017-04-16T08:04:19.326-05:00
p187
sVcache
p188
(dp189
sVrequest
p190
(dp191
Vcomment
p192
g4
sVcookies
p193
(lp194
sVurl
p195
Vhttps://www.google.com/?gws_rd=ssl
p196
sVqueryString
p197
(lp198
(dp199
Vname
p200
Vgws_rd
p201
sVvalue
p202
Vssl
p203
sasVheaders
p204
(lp205
sVheadersSize
p206
I607
sVbodySize
p207
I0
sVmethod
p208
VGET
p209
sVhttpVersion
p210
VHTTP/1.1
p211
ssVtimings
p212
(dp213
Vcomment
p214
g4
sVreceive
p215
I22
sVsend
p216
I0
sVssl
p217
I-1
sVconnect
p218
I-1
sVdns
p219
I-1
sVwait
p220
I71
sVblocked
p221
I-1
ssVtime
p222
I94
sVresponse
p223
(dp224
Vstatus
p225
I200
sVcomment
p226
g4
sVcookies
p227
(lp228
sVstatusText
p229
VOK
p230
sVcontent
p231
(dp232
VmimeType
p233
Vtext/html; charset=UTF-8
p234
sVcomment
p235
g4
sVsize
p236
I0
ssVheaders
p237
(lp238
sVheadersSize
p239
I721
sVredirectURL
p240
g4
sVbodySize
p241
I34292
sVhttpVersion
p242
VHTTP/1.1
p243
ssa(dp244
Vcomment
p245
g4
sVserverIPAddress
p246
V216.58.216.196
p247
sVpageref
p248
VBrad Pitt
p249
sVstartedDateTime
p250
V2017-04-16T08:04:19.576-05:00
p251
sVcache
p252
(dp253
sVrequest
p254
(dp255
Vcomment
p256
g4
sVcookies
p257
(lp258
sVurl
p259
Vhttps://www.google.com/gen_204?s=mobilewebhp&atyp=csi&ei=0mvzWNbdFIrZjwTeiqmIAg&imc=1&imn=1&imp=0&adh=&xjs=init.24.12.sb_mob.17.dvl.2.c.1.jsa.1.r.1&ima=1&rt=xjsls.7,prt.8,iml.8,dcl.32,xjses.59,xjsee.130,xjs.131,ol.158,aft.8,wsrt.138,cst.0,dnst.0,rqst.95,rspt.23,rqstt.50,unt.48,cstt.48,dit.160
p260
sVqueryString
p261
(lp262
(dp263
Vname
p264
g57
sVvalue
p265
Vmobilewebhp
p266
sa(dp267
Vname
p268
Vatyp
p269
sVvalue
p270
Vcsi
p271
sa(dp272
Vname
p273
Vei
p274
sVvalue
p275
V0mvzWNbdFIrZjwTeiqmIAg
p276
sa(dp277
Vname
p278
Vimc
p279
sVvalue
p280
g59
sa(dp281
Vname
p282
Vimn
p283
sVvalue
p284
g59
sa(dp285
Vname
p286
Vimp
p287
sVvalue
p288
V0
p289
sa(dp290
Vname
p291
Vadh
p292
sVvalue
p293
g4
sa(dp294
Vname
p295
Vxjs
p296
sVvalue
p297
Vinit.24.12.sb_mob.17.dvl.2.c.1.jsa.1.r.1
p298
sa(dp299
Vname
p300
Vima
p301
sVvalue
p302
g59
sa(dp303
Vname
p304
Vrt
p305
sVvalue
p306
Vxjsls.7,prt.8,iml.8,dcl.32,xjses.59,xjsee.130,xjs.131,ol.158,aft.8,wsrt.138,cst.0,dnst.0,rqst.95,rspt.23,rqstt.50,unt.48,cstt.48,dit.160
p307
sasVheaders
p308
(lp309
sVheadersSize
p310
I821
sVbodySize
p311
I0
sVmethod
p312
VGET
p313
sVhttpVersion
p314
VHTTP/1.1
p315
ssVtimings
p316
(dp317
Vcomment
p318
g4
sVreceive
p319
I0
sVsend
p320
I0
sVssl
p321
I-1
sVconnect
p322
I-1
sVdns
p323
I-1
sVwait
p324
I0
sVblocked
p325
I-1
ssVtime
p326
I0
sVresponse
p327
(dp328
Vstatus
p329
I0
sVcomment
p330
g4
sVcookies
p331
(lp332
sV_error
p333
VNo response received
p334
sVstatusText
p335
g4
sVcontent
p336
(dp337
VmimeType
p338
g4
sVcomment
p339
g4
sVsize
p340
I0
ssVheaders
p341
(lp342
sVheadersSize
p343
I-1
sVredirectURL
p344
g4
sVbodySize
p345
I-1
sVhttpVersion
p346
Vunknown
p347
ssa(dp348
Vcomment
p349
g4
sVserverIPAddress
p350
V216.58.216.196
p351
sVpageref
p352
VBrad Pitt
p353
sVstartedDateTime
p354
V2017-04-16T08:04:19.703-05:00
p355
sVcache
p356
(dp357
sVrequest
p358
(dp359
Vcomment
p360
g4
sVcookies
p361
(lp362
sVurl
p363
Vhttps://www.google.com/complete/search?client=mobile-gws-hp&hl=en&gs_rn=64&gs_ri=mobile-gws-hp&sla=1&pfq=bernie%20sanders&gm=602&cp=0&gs_id=1&xhr=t&q=B&tch=1&ech=1&psi=0mvzWNbdFIrZjwTeiqmIAg.1492347859523.1
p364
sVqueryString
p365
(lp366
(dp367
Vname
p368
Vclient
p369
sVvalue
p370
Vmobile-gws-hp
p371
sa(dp372
Vname
p373
Vhl
p374
sVvalue
p375
Ven
p376
sa(dp377
Vname
p378
Vgs_rn
p379
sVvalue
p380
V64
p381
sa(dp382
Vname
p383
Vgs_ri
p384
sVvalue
p385
Vmobile-gws-hp
p386
sa(dp387
Vname
p388
Vsla
p389
sVvalue
p390
g59
sa(dp391
Vname
p392
Vpfq
p393
sVvalue
p394
Vbernie sanders
p395
sa(dp396
Vname
p397
Vgm
p398
sVvalue
p399
V602
p400
sa(dp401
Vname
p402
Vcp
p403
sVvalue
p404
g289
sa(dp405
Vname
p406
Vgs_id
p407
sVvalue
p408
g59
sa(dp409
Vname
p410
Vxhr
p411
sVvalue
p412
g52
sa(dp413
Vname
p414
Vq
p415
sVvalue
p416
VB
p417
sa(dp418
Vname
p419
Vtch
p420
sVvalue
p421
g59
sa(dp422
Vname
p423
Vech
p424
sVvalue
p425
g59
sa(dp426
Vname
p427
Vpsi
p428
sVvalue
p429
V0mvzWNbdFIrZjwTeiqmIAg.1492347859523.1
p430
sasVheaders
p431
(lp432
sVheadersSize
p433
I734
sVbodySize
p434
I0
sVmethod
p435
VGET
p436
sVhttpVersion
p437
VHTTP/1.1
p438
ssVtimings
p439
(dp440
Vcomment
p441
g4
sVreceive
p442
I0
sVsend
p443
I0
sVssl
p444
I-1
sVconnect
p445
I-1
sVdns
p446
I-1
sVwait
p447
I0
sVblocked
p448
I-1
ssVtime
p449
I0
sVresponse
p450
(dp451
Vstatus
p452
I0
sVcomment
p453
g4
sVcookies
p454
(lp455
sV_error
p456
VNo response received
p457
sVstatusText
p458
g4
sVcontent
p459
(dp460
VmimeType
p461
g4
sVcomment
p462
g4
sVsize
p463
I0
ssVheaders
p464
(lp465
sVheadersSize
p466
I-1
sVredirectURL
p467
g4
sVbodySize
p468
I-1
sVhttpVersion
p469
Vunknown
p470
ssa(dp471
Vcomment
p472
g4
sVserverIPAddress
p473
V216.58.216.196
p474
sVpageref
p475
VBrad Pitt
p476
sVstartedDateTime
p477
V2017-04-16T08:04:19.752-05:00
p478
sVcache
p479
(dp480
sVrequest
p481
(dp482
Vcomment
p483
g4
sVcookies
p484
(lp485
sVurl
p486
Vhttps://www.google.com/search?site=&source=hp&ei=0mvzWNbdFIrZjwTeiqmIAg&q=Brad+Pitt&oq=Brad+Pitt&gs_l=mobile-gws-hp.3...159.184.0.207.9.1.0.0.0.0.0.0..0.0....0...1c.1.64.mobile-gws-hp..9.0.0.dsIdcwF_cu0
p487
sVqueryString
p488
(lp489
(dp490
Vname
p491
Vsite
p492
sVvalue
p493
g4
sa(dp494
Vname
p495
Vsource
p496
sVvalue
p497
Vhp
p498
sa(dp499
Vname
p500
Vei
p501
sVvalue
p502
V0mvzWNbdFIrZjwTeiqmIAg
p503
sa(dp504
Vname
p505
g415
sVvalue
p506
VBrad Pitt
p507
sa(dp508
Vname
p509
Voq
p510
sVvalue
p511
VBrad Pitt
p512
sa(dp513
Vname
p514
Vgs_l
p515
sVvalue
p516
Vmobile-gws-hp.3...159.184.0.207.9.1.0.0.0.0.0.0..0.0....0...1c.1.64.mobile-gws-hp..9.0.0.dsIdcwF_cu0
p517
sasVheaders
p518
(lp519
sVheadersSize
p520
I820
sVbodySize
p521
I0
sVmethod
p522
VGET
p523
sVhttpVersion
p524
VHTTP/1.1
p525
ssVtimings
p526
(dp527
Vcomment
p528
g4
sVreceive
p529
I901
sVsend
p530
I0
sVssl
p531
I-1
sVconnect
p532
I-1
sVdns
p533
I-1
sVwait
p534
I94
sVblocked
p535
I-1
ssVtime
p536
I996
sVresponse
p537
(dp538
Vstatus
p539
I200
sVcomment
p540
g4
sVcookies
p541
(lp542
sVstatusText
p543
VOK
p544
sVcontent
p545
(dp546
VmimeType
p547
Vtext/html; charset=UTF-8
p548
sVcomment
p549
g4
sVsize
p550
I0
ssVheaders
p551
(lp552
sVheadersSize
p553
I363
sVredirectURL
p554
g4
sVbodySize
p555
I177203
sVhttpVersion
p556
VHTTP/1.1
p557
ssa(dp558
Vcomment
p559
g4
sVserverIPAddress
p560
V216.58.216.196
p561
sVpageref
p562
VBrad Pitt
p563
sVstartedDateTime
p564
V2017-04-16T08:04:21.041-05:00
p565
sVcache
p566
(dp567
sVrequest
p568
(dp569
Vcomment
p570
g4
sVcookies
p571
(lp572
sVurl
p573
Vhttps://www.google.com/xjs/_/js/k=xjs.qs.en_US.pCBXVCvTH3s.O/m=syl,syj,syn,em3,em8,em6,em7,sym,aa,abd,sy2g,sy2k,sy29,sy2j,sy2d,sy2a,sy2c,sy2f,sy2l,sy2m,sy2n,emd,async,sybn,sybi,sybo,sy1f,sy45,sy46,sy9w,sybk,sybj,sybp,sy1g,sy30,sy47,sybm,sybl,sybq,sy1h,sybh,dvl,syep,foot,ipv6,sy32,emj,shm,sy5g,sy5i,sy5k,sykh,tl,sy2x,sy2y,sy2t,sy38,em12,vs,sy5j,sy5h,sy6u,sy66,sy67,sy7d,sy7j,sy4u,sy69,sy89,sy7e,sykk,sykl,tnv,bct,sy23,sy9m,syac,sy24,sy4g,sy9b,sy9n,syhz,syl6,ssc,sy1y,sya3,sy22,sy6i,sy25,sya2,sy6j,sy72,emb,sy26,em9,ema,sy31,sya4,sykr,strm,syh6,syl5,kac,kae,strx,sy6y,sycu,d3l,sy48,sy3a,sy3c,sy5b,sy4x,sy4z,sy56,syea,sy4y,syci,syeb,sy4v,sy5d,sy40,sy76,sye9,syec,sye4,sy5a,sy51,sy5e,sy65,sye2,sy4t,sy4w,sy52,sy91,sy9l,sye6,syg5,sygv,sy5f,sy3b,sy4h,sy53,sy6d,sydt,sygs,sygw,sygu,sy2u,sygt,sy34,sygx,kpoe,sy4d,sy4f,sy4c,sy4e,sy4b,sy6w,shrb,syd7,dgm,tbhm,sy99,syl7,tbm,syf5,syf6,syf8,sygb,syg9,kptm,syf4,syfc,syfn,syf7,syff,sy1i,sy68,sy8d,syfl,syfr,syfq,syfg,sy1j,sy4q,sy5o,sy5r,sy6n,sy6p,sy8h,syc7,syc8,syfb,syfj,syfs,syft,syg3,syg7,emn,emo,syg4,syg6,ivg,iuci,img,sy41,tcc,sygq,kpc,kpci,kpor,kpcb,vrml,sy5x,qif,syj7,syj8,syj2,syjc,syj6,syj3,syjg,syjh,syje,syjd,syjk,syji,syjf,syj0,emr,ems,emt,emu,emv,emx,emy,emz,em10,em11,udlg,sy5z,atn,sy4i,sya1,ampfp/am=gCP4LtMEBXQA2RUaq_oFBISzAFA/rt=j/d=0/t=zcms/rs=ACT90oFwm4NZCwIcuuiqmthdlECdBzkhRA
p574
sVqueryString
p575
(lp576
sVheaders
p577
(lp578
sVheadersSize
p579
I1850
sVbodySize
p580
I0
sVmethod
p581
VGET
p582
sVhttpVersion
p583
VHTTP/1.1
p584
ssVtimings
p585
(dp586
Vcomment
p587
g4
sVreceive
p588
I42
sVsend
p589
I0
sVssl
p590
I-1
sVconnect
p591
I-1
sVdns
p592
I-1
sVwait
p593
I17
sVblocked
p594
I-1
ssVtime
p595
I60
sVresponse
p596
(dp597
Vstatus
p598
I200
sVcomment
p599
g4
sVcookies
p600
(lp601
sVstatusText
p602
VOK
p603
sVcontent
p604
(dp605
VmimeType
p606
Vtext/javascript; charset=UTF-8
p607
sVcomment
p608
g4
sVsize
p609
I0
ssVheaders
p610
(lp611
sVheadersSize
p612
I465
sVredirectURL
p613
g4
sVbodySize
p614
I293351
sVhttpVersion
p615
VHTTP/1.1
p616
ssa(dp617
Vcomment
p618
g4
sVserverIPAddress
p619
V216.58.216.196
p620
sVpageref
p621
VBrad Pitt
p622
sVstartedDateTime
p623
V2017-04-16T08:04:21.397-05:00
p624
sVcache
p625
(dp626
sVrequest
p627
(dp628
Vcomment
p629
g4
sVcookies
p630
(lp631
sVurl
p632
Vhttps://www.google.com/gen_204?atyp=i&ct=&cad=&uact=1&vet=10ahUKEwjZpYOAhanTAhWDxYMKHU2DAEgQ9V8IiwEoAA..s&ei=0mvzWNn0LoOLjwTNhoLABA&zx=1492347861396
p633
sVqueryString
p634
(lp635
(dp636
Vname
p637
Vatyp
p638
sVvalue
p639
g30
sa(dp640
Vname
p641
Vct
p642
sVvalue
p643
g4
sa(dp644
Vname
p645
Vcad
p646
sVvalue
p647
g4
sa(dp648
Vname
p649
Vuact
p650
sVvalue
p651
g59
sa(dp652
Vname
p653
Vvet
p654
sVvalue
p655
V10ahUKEwjZpYOAhanTAhWDxYMKHU2DAEgQ9V8IiwEoAA..s
p656
sa(dp657
Vname
p658
Vei
p659
sVvalue
p660
V0mvzWNn0LoOLjwTNhoLABA
p661
sa(dp662
Vname
p663
Vzx
p664
sVvalue
p665
V1492347861396
p666
sasVheaders
p667
(lp668
sVheadersSize
p669
I665
sVbodySize
p670
I0
sVmethod
p671
VGET
p672
sVhttpVersion
p673
VHTTP/1.1
p674
ssVtimings
p675
(dp676
Vcomment
p677
g4
sVreceive
p678
I0
sVsend
p679
I0
sVssl
p680
I-1
sVconnect
p681
I-1
sVdns
p682
I-1
sVwait
p683
I36
sVblocked
p684
I-1
ssVtime
p685
I36
sVresponse
p686
(dp687
Vstatus
p688
I204
sVcomment
p689
g4
sVcookies
p690
(lp691
sVstatusText
p692
VNo Content
p693
sVcontent
p694
(dp695
VmimeType
p696
Vtext/html; charset=UTF-8
p697
sVcomment
p698
g4
sVsize
p699
I0
ssVheaders
p700
(lp701
sVheadersSize
p702
I248
sVredirectURL
p703
g4
sVbodySize
p704
I0
sVhttpVersion
p705
VHTTP/1.1
p706
ssa(dp707
Vcomment
p708
g4
sVserverIPAddress
p709
V216.58.216.196
p710
sVpageref
p711
VBrad Pitt
p712
sVstartedDateTime
p713
V2017-04-16T08:04:21.399-05:00
p714
sVcache
p715
(dp716
sVrequest
p717
(dp718
Vcomment
p719
g4
sVcookies
p720
(lp721
sVurl
p722
Vhttps://www.google.com/gen_204?atyp=i&ct=&cad=&uact=1&vet=10ahUKEwjZpYOAhanTAhWDxYMKHU2DAEgQ9V8IjAEoAQ..s&ei=0mvzWNn0LoOLjwTNhoLABA&zx=1492347861398
p723
sVqueryString
p724
(lp725
(dp726
Vname
p727
Vatyp
p728
sVvalue
p729
g30
sa(dp730
Vname
p731
Vct
p732
sVvalue
p733
g4
sa(dp734
Vname
p735
Vcad
p736
sVvalue
p737
g4
sa(dp738
Vname
p739
Vuact
p740
sVvalue
p741
g59
sa(dp742
Vname
p743
Vvet
p744
sVvalue
p745
V10ahUKEwjZpYOAhanTAhWDxYMKHU2DAEgQ9V8IjAEoAQ..s
p746
sa(dp747
Vname
p748
Vei
p749
sVvalue
p750
V0mvzWNn0LoOLjwTNhoLABA
p751
sa(dp752
Vname
p753
Vzx
p754
sVvalue
p755
V1492347861398
p756
sasVheaders
p757
(lp758
sVheadersSize
p759
I665
sVbodySize
p760
I0
sVmethod
p761
VGET
p762
sVhttpVersion
p763
VHTTP/1.1
p764
ssVtimings
p765
(dp766
Vcomment
p767
g4
sVreceive
p768
I0
sVsend
p769
I0
sVssl
p770
I-1
sVconnect
p771
I-1
sVdns
p772
I-1
sVwait
p773
I34
sVblocked
p774
I-1
ssVtime
p775
I34
sVresponse
p776
(dp777
Vstatus
p778
I204
sVcomment
p779
g4
sVcookies
p780
(lp781
sVstatusText
p782
VNo Content
p783
sVcontent
p784
(dp785
VmimeType
p786
Vtext/html; charset=UTF-8
p787
sVcomment
p788
g4
sVsize
p789
I0
ssVheaders
p790
(lp791
sVheadersSize
p792
I248
sVredirectURL
p793
g4
sVbodySize
p794
I0
sVhttpVersion
p795
VHTTP/1.1
p796
ssa(dp797
Vcomment
p798
g4
sVserverIPAddress
p799
V216.58.216.196
p800
sVpageref
p801
VBrad Pitt
p802
sVstartedDateTime
p803
V2017-04-16T08:04:21.400-05:00
p804
sVcache
p805
(dp806
sVrequest
p807
(dp808
Vcomment
p809
g4
sVcookies
p810
(lp811
sVurl
p812
Vhttps://www.google.com/gen_204?atyp=i&ct=&cad=&uact=1&vet=10ahUKEwjZpYOAhanTAhWDxYMKHU2DAEgQ9V8IjQEoAg..s&ei=0mvzWNn0LoOLjwTNhoLABA&zx=1492347861399
p813
sVqueryString
p814
(lp815
(dp816
Vname
p817
Vatyp
p818
sVvalue
p819
g30
sa(dp820
Vname
p821
Vct
p822
sVvalue
p823
g4
sa(dp824
Vname
p825
Vcad
p826
sVvalue
p827
g4
sa(dp828
Vname
p829
Vuact
p830
sVvalue
p831
g59
sa(dp832
Vname
p833
Vvet
p834
sVvalue
p835
V10ahUKEwjZpYOAhanTAhWDxYMKHU2DAEgQ9V8IjQEoAg..s
p836
sa(dp837
Vname
p838
Vei
p839
sVvalue
p840
V0mvzWNn0LoOLjwTNhoLABA
p841
sa(dp842
Vname
p843
Vzx
p844
sVvalue
p845
V1492347861399
p846
sasVheaders
p847
(lp848
sVheadersSize
p849
I665
sVbodySize
p850
I0
sVmethod
p851
VGET
p852
sVhttpVersion
p853
VHTTP/1.1
p854
ssVtimings
p855
(dp856
Vcomment
p857
g4
sVreceive
p858
I0
sVsend
p859
I0
sVssl
p860
I-1
sVconnect
p861
I-1
sVdns
p862
I-1
sVwait
p863
I33
sVblocked
p864
I-1
ssVtime
p865
I33
sVresponse
p866
(dp867
Vstatus
p868
I204
sVcomment
p869
g4
sVcookies
p870
(lp871
sVstatusText
p872
VNo Content
p873
sVcontent
p874
(dp875
VmimeType
p876
Vtext/html; charset=UTF-8
p877
sVcomment
p878
g4
sVsize
p879
I0
ssVheaders
p880
(lp881
sVheadersSize
p882
I248
sVredirectURL
p883
g4
sVbodySize
p884
I0
sVhttpVersion
p885
VHTTP/1.1
p886
ssa(dp887
Vcomment
p888
g4
sVserverIPAddress
p889
V216.58.216.196
p890
sVpageref
p891
VBrad Pitt
p892
sVstartedDateTime
p893
V2017-04-16T08:04:21.434-05:00
p894
sVcache
p895
(dp896
sVrequest
p897
(dp898
Vcomment
p899
g4
sVcookies
p900
(lp901
sVurl
p902
Vhttps://www.google.com/gen_204?atyp=i&ct=&cad=&vet=10ahUKEwjZpYOAhanTAhWDxYMKHU2DAEgQ5W0IoAEoBA..s&ei=0mvzWNn0LoOLjwTNhoLABA&zx=1492347861418
p903
sVqueryString
p904
(lp905
(dp906
Vname
p907
Vatyp
p908
sVvalue
p909
g30
sa(dp910
Vname
p911
Vct
p912
sVvalue
p913
g4
sa(dp914
Vname
p915
Vcad
p916
sVvalue
p917
g4
sa(dp918
Vname
p919
Vvet
p920
sVvalue
p921
V10ahUKEwjZpYOAhanTAhWDxYMKHU2DAEgQ5W0IoAEoBA..s
p922
sa(dp923
Vname
p924
Vei
p925
sVvalue
p926
V0mvzWNn0LoOLjwTNhoLABA
p927
sa(dp928
Vname
p929
Vzx
p930
sVvalue
p931
V1492347861418
p932
sasVheaders
p933
(lp934
sVheadersSize
p935
I658
sVbodySize
p936
I0
sVmethod
p937
VGET
p938
sVhttpVersion
p939
VHTTP/1.1
p940
ssVtimings
p941
(dp942
Vcomment
p943
g4
sVreceive
p944
I0
sVsend
p945
I0
sVssl
p946
I-1
sVconnect
p947
I-1
sVdns
p948
I-1
sVwait
p949
I34
sVblocked
p950
I-1
ssVtime
p951
I34
sVresponse
p952
(dp953
Vstatus
p954
I204
sVcomment
p955
g4
sVcookies
p956
(lp957
sVstatusText
p958
VNo Content
p959
sVcontent
p960
(dp961
VmimeType
p962
Vtext/html; charset=UTF-8
p963
sVcomment
p964
g4
sVsize
p965
I0
ssVheaders
p966
(lp967
sVheadersSize
p968
I248
sVredirectURL
p969
g4
sVbodySize
p970
I0
sVhttpVersion
p971
VHTTP/1.1
p972
ssa(dp973
Vcomment
p974
g4
sVserverIPAddress
p975
V216.58.216.196
p976
sVpageref
p977
VBrad Pitt
p978
sVstartedDateTime
p979
V2017-04-16T08:04:21.434-05:00
p980
sVcache
p981
(dp982
sVrequest
p983
(dp984
Vcomment
p985
g4
sVcookies
p986
(lp987
sVurl
p988
Vhttps://www.google.com/gen_204?atyp=i&ct=&cad=&vet=10ahUKEwjZpYOAhanTAhWDxYMKHU2DAEgQ5W0IowEoBQ..s&ei=0mvzWNn0LoOLjwTNhoLABA&zx=1492347861420
p989
sVqueryString
p990
(lp991
(dp992
Vname
p993
Vatyp
p994
sVvalue
p995
g30
sa(dp996
Vname
p997
Vct
p998
sVvalue
p999
g4
sa(dp1000
Vname
p1001
Vcad
p1002
sVvalue
p1003
g4
sa(dp1004
Vname
p1005
Vvet
p1006
sVvalue
p1007
V10ahUKEwjZpYOAhanTAhWDxYMKHU2DAEgQ5W0IowEoBQ..s
p1008
sa(dp1009
Vname
p1010
Vei
p1011
sVvalue
p1012
V0mvzWNn0LoOLjwTNhoLABA
p1013
sa(dp1014
Vname
p1015
Vzx
p1016
sVvalue
p1017
V1492347861420
p1018
sasVheaders
p1019
(lp1020
sVheadersSize
p1021
I658
sVbodySize
p1022
I0
sVmethod
p1023
VGET
p1024
sVhttpVersion
p1025
VHTTP/1.1
p1026
ssVtimings
p1027
(dp1028
Vcomment
p1029
g4
sVreceive
p1030
I0
sVsend
p1031
I0
sVssl
p1032
I-1
sVconnect
p1033
I-1
sVdns
p1034
I-1
sVwait
p1035
I34
sVblocked
p1036
I-1
ssVtime
p1037
I34
sVresponse
p1038
(dp1039
Vstatus
p1040
I204
sVcomment
p1041
g4
sVcookies
p1042
(lp1043
sVstatusText
p1044
VNo Content
p1045
sVcontent
p1046
(dp1047
VmimeType
p1048
Vtext/html; charset=UTF-8
p1049
sVcomment
p1050
g4
sVsize
p1051
I0
ssVheaders
p1052
(lp1053
sVheadersSize
p1054
I248
sVredirectURL
p1055
g4
sVbodySize
p1056
I0
sVhttpVersion
p1057
VHTTP/1.1
p1058
ssa(dp1059
Vcomment
p1060
g4
sVserverIPAddress
p1061
V216.58.216.196
p1062
sVpageref
p1063
VBrad Pitt
p1064
sVstartedDateTime
p1065
V2017-04-16T08:04:21.434-05:00
p1066
sVcache
p1067
(dp1068
sVrequest
p1069
(dp1070
Vcomment
p1071
g4
sVcookies
p1072
(lp1073
sVurl
p1074
Vhttps://www.google.com/gen_204?atyp=i&ct=&cad=&vet=10ahUKEwjZpYOAhanTAhWDxYMKHU2DAEgQ5W0IpgEoBg..s&ei=0mvzWNn0LoOLjwTNhoLABA&zx=1492347861421
p1075
sVqueryString
p1076
(lp1077
(dp1078
Vname
p1079
Vatyp
p1080
sVvalue
p1081
g30
sa(dp1082
Vname
p1083
Vct
p1084
sVvalue
p1085
g4
sa(dp1086
Vname
p1087
Vcad
p1088
sVvalue
p1089
g4
sa(dp1090
Vname
p1091
Vvet
p1092
sVvalue
p1093
V10ahUKEwjZpYOAhanTAhWDxYMKHU2DAEgQ5W0IpgEoBg..s
p1094
sa(dp1095
Vname
p1096
Vei
p1097
sVvalue
p1098
V0mvzWNn0LoOLjwTNhoLABA
p1099
sa(dp1100
Vname
p1101
Vzx
p1102
sVvalue
p1103
V1492347861421
p1104
sasVheaders
p1105
(lp1106
sVheadersSize
p1107
I658
sVbodySize
p1108
I0
sVmethod
p1109
VGET
p1110
sVhttpVersion
p1111
VHTTP/1.1
p1112
ssVtimings
p1113
(dp1114
Vcomment
p1115
g4
sVreceive
p1116
I0
sVsend
p1117
I0
sVssl
p1118
I-1
sVconnect
p1119
I-1
sVdns
p1120
I-1
sVwait
p1121
I27
sVblocked
p1122
I-1
ssVtime
p1123
I27
sVresponse
p1124
(dp1125
Vstatus
p1126
I204
sVcomment
p1127
g4
sVcookies
p1128
(lp1129
sVstatusText
p1130
VNo Content
p1131
sVcontent
p1132
(dp1133
VmimeType
p1134
Vtext/html; charset=UTF-8
p1135
sVcomment
p1136
g4
sVsize
p1137
I0
ssVheaders
p1138
(lp1139
sVheadersSize
p1140
I248
sVredirectURL
p1141
g4
sVbodySize
p1142
I0
sVhttpVersion
p1143
VHTTP/1.1
p1144
ssa(dp1145
Vcomment
p1146
g4
sVserverIPAddress
p1147
V216.58.216.196
p1148
sVpageref
p1149
VBrad Pitt
p1150
sVstartedDateTime
p1151
V2017-04-16T08:04:21.463-05:00
p1152
sVcache
p1153
(dp1154
sVrequest
p1155
(dp1156
Vcomment
p1157
g4
sVcookies
p1158
(lp1159
sVurl
p1160
Vhttps://www.google.com/gen_204?atyp=i&ct=&cad=&vet=10ahUKEwjZpYOAhanTAhWDxYMKHU2DAEgQ5W0IqQEoBw..s&ei=0mvzWNn0LoOLjwTNhoLABA&zx=1492347861422
p1161
sVqueryString
p1162
(lp1163
(dp1164
Vname
p1165
Vatyp
p1166
sVvalue
p1167
g30
sa(dp1168
Vname
p1169
Vct
p1170
sVvalue
p1171
g4
sa(dp1172
Vname
p1173
Vcad
p1174
sVvalue
p1175
g4
sa(dp1176
Vname
p1177
Vvet
p1178
sVvalue
p1179
V10ahUKEwjZpYOAhanTAhWDxYMKHU2DAEgQ5W0IqQEoBw..s
p1180
sa(dp1181
Vname
p1182
Vei
p1183
sVvalue
p1184
V0mvzWNn0LoOLjwTNhoLABA
p1185
sa(dp1186
Vname
p1187
Vzx
p1188
sVvalue
p1189
V1492347861422
p1190
sasVheaders
p1191
(lp1192
sVheadersSize
p1193
I658
sVbodySize
p1194
I0
sVmethod
p1195
VGET
p1196
sVhttpVersion
p1197
VHTTP/1.1
p1198
ssVtimings
p1199
(dp1200
Vcomment
p1201
g4
sVreceive
p1202
I0
sVsend
p1203
I0
sVssl
p1204
I-1
sVconnect
p1205
I-1
sVdns
p1206
I-1
sVwait
p1207
I28
sVblocked
p1208
I-1
ssVtime
p1209
I28
sVresponse
p1210
(dp1211
Vstatus
p1212
I204
sVcomment
p1213
g4
sVcookies
p1214
(lp1215
sVstatusText
p1216
VNo Content
p1217
sVcontent
p1218
(dp1219
VmimeType
p1220
Vtext/html; charset=UTF-8
p1221
sVcomment
p1222
g4
sVsize
p1223
I0
ssVheaders
p1224
(lp1225
sVheadersSize
p1226
I248
sVredirectURL
p1227
g4
sVbodySize
p1228
I0
sVhttpVersion
p1229
VHTTP/1.1
p1230
ssa(dp1231
Vcomment
p1232
g4
sVserverIPAddress
p1233
V216.58.216.196
p1234
sVpageref
p1235
VBrad Pitt
p1236
sVstartedDateTime
p1237
V2017-04-16T08:04:21.469-05:00
p1238
sVcache
p1239
(dp1240
sVrequest
p1241
(dp1242
Vcomment
p1243
g4
sVcookies
p1244
(lp1245
sVurl
p1246
Vhttps://www.google.com/gen_204?atyp=i&ct=&cad=&vet=10ahUKEwjZpYOAhanTAhWDxYMKHU2DAEgQ5W0IrAEoCA..s&ei=0mvzWNn0LoOLjwTNhoLABA&zx=1492347861424
p1247
sVqueryString
p1248
(lp1249
(dp1250
Vname
p1251
Vatyp
p1252
sVvalue
p1253
g30
sa(dp1254
Vname
p1255
Vct
p1256
sVvalue
p1257
g4
sa(dp1258
Vname
p1259
Vcad
p1260
sVvalue
p1261
g4
sa(dp1262
Vname
p1263
Vvet
p1264
sVvalue
p1265
V10ahUKEwjZpYOAhanTAhWDxYMKHU2DAEgQ5W0IrAEoCA..s
p1266
sa(dp1267
Vname
p1268
Vei
p1269
sVvalue
p1270
V0mvzWNn0LoOLjwTNhoLABA
p1271
sa(dp1272
Vname
p1273
Vzx
p1274
sVvalue
p1275
V1492347861424
p1276
sasVheaders
p1277
(lp1278
sVheadersSize
p1279
I658
sVbodySize
p1280
I0
sVmethod
p1281
VGET
p1282
sVhttpVersion
p1283
VHTTP/1.1
p1284
ssVtimings
p1285
(dp1286
Vcomment
p1287
g4
sVreceive
p1288
I0
sVsend
p1289
I0
sVssl
p1290
I-1
sVconnect
p1291
I-1
sVdns
p1292
I-1
sVwait
p1293
I40
sVblocked
p1294
I-1
ssVtime
p1295
I41
sVresponse
p1296
(dp1297
Vstatus
p1298
I204
sVcomment
p1299
g4
sVcookies
p1300
(lp1301
sVstatusText
p1302
VNo Content
p1303
sVcontent
p1304
(dp1305
VmimeType
p1306
Vtext/html; charset=UTF-8
p1307
sVcomment
p1308
g4
sVsize
p1309
I0
ssVheaders
p1310
(lp1311
sVheadersSize
p1312
I248
sVredirectURL
p1313
g4
sVbodySize
p1314
I0
sVhttpVersion
p1315
VHTTP/1.1
p1316
ssa(dp1317
Vcomment
p1318
g4
sVserverIPAddress
p1319
V216.58.216.196
p1320
sVpageref
p1321
VBrad Pitt
p1322
sVstartedDateTime
p1323
V2017-04-16T08:04:21.470-05:00
p1324
sVcache
p1325
(dp1326
sVrequest
p1327
(dp1328
Vcomment
p1329
g4
sVcookies
p1330
(lp1331
sVurl
p1332
Vhttps://www.google.com/gen_204?atyp=i&ct=&cad=&vet=10ahUKEwjZpYOAhanTAhWDxYMKHU2DAEgQ5W0IrwEoCQ..s&ei=0mvzWNn0LoOLjwTNhoLABA&zx=1492347861426
p1333
sVqueryString
p1334
(lp1335
(dp1336
Vname
p1337
Vatyp
p1338
sVvalue
p1339
g30
sa(dp1340
Vname
p1341
Vct
p1342
sVvalue
p1343
g4
sa(dp1344
Vname
p1345
Vcad
p1346
sVvalue
p1347
g4
sa(dp1348
Vname
p1349
Vvet
p1350
sVvalue
p1351
V10ahUKEwjZpYOAhanTAhWDxYMKHU2DAEgQ5W0IrwEoCQ..s
p1352
sa(dp1353
Vname
p1354
Vei
p1355
sVvalue
p1356
V0mvzWNn0LoOLjwTNhoLABA
p1357
sa(dp1358
Vname
p1359
Vzx
p1360
sVvalue
p1361
V1492347861426
p1362
sasVheaders
p1363
(lp1364
sVheadersSize
p1365
I658
sVbodySize
p1366
I0
sVmethod
p1367
VGET
p1368
sVhttpVersion
p1369
VHTTP/1.1
p1370
ssVtimings
p1371
(dp1372
Vcomment
p1373
g4
sVreceive
p1374
I0
sVsend
p1375
I0
sVssl
p1376
I-1
sVconnect
p1377
I-1
sVdns
p1378
I-1
sVwait
p1379
I30
sVblocked
p1380
I-1
ssVtime
p1381
I30
sVresponse
p1382
(dp1383
Vstatus
p1384
I204
sVcomment
p1385
g4
sVcookies
p1386
(lp1387
sVstatusText
p1388
VNo Content
p1389
sVcontent
p1390
(dp1391
VmimeType
p1392
Vtext/html; charset=UTF-8
p1393
sVcomment
p1394
g4
sVsize
p1395
I0
ssVheaders
p1396
(lp1397
sVheadersSize
p1398
I248
sVredirectURL
p1399
g4
sVbodySize
p1400
I0
sVhttpVersion
p1401
VHTTP/1.1
p1402
ssa(dp1403
Vcomment
p1404
g4
sVserverIPAddress
p1405
V216.58.216.196
p1406
sVpageref
p1407
VBrad Pitt
p1408
sVstartedDateTime
p1409
V2017-04-16T08:04:21.476-05:00
p1410
sVcache
p1411
(dp1412
sVrequest
p1413
(dp1414
Vcomment
p1415
g4
sVcookies
p1416
(lp1417
sVurl
p1418
Vhttps://www.google.com/gen_204?atyp=i&ct=&cad=&vet=10ahUKEwjZpYOAhanTAhWDxYMKHU2DAEgQ5W0ImgEoAg..s&ei=0mvzWNn0LoOLjwTNhoLABA&zx=1492347861415
p1419
sVqueryString
p1420
(lp1421
(dp1422
Vname
p1423
Vatyp
p1424
sVvalue
p1425
g30
sa(dp1426
Vname
p1427
Vct
p1428
sVvalue
p1429
g4
sa(dp1430
Vname
p1431
Vcad
p1432
sVvalue
p1433
g4
sa(dp1434
Vname
p1435
Vvet
p1436
sVvalue
p1437
V10ahUKEwjZpYOAhanTAhWDxYMKHU2DAEgQ5W0ImgEoAg..s
p1438
sa(dp1439
Vname
p1440
Vei
p1441
sVvalue
p1442
V0mvzWNn0LoOLjwTNhoLABA
p1443
sa(dp1444
Vname
p1445
Vzx
p1446
sVvalue
p1447
V1492347861415
p1448
sasVheaders
p1449
(lp1450
sVheadersSize
p1451
I658
sVbodySize
p1452
I0
sVmethod
p1453
VGET
p1454
sVhttpVersion
p1455
VHTTP/1.1
p1456
ssVtimings
p1457
(dp1458
Vcomment
p1459
g4
sVreceive
p1460
I0
sVsend
p1461
I0
sVssl
p1462
I23
sVconnect
p1463
I58
sVdns
p1464
I0
sVwait
p1465
I30
sVblocked
p1466
I0
ssVtime
p1467
I89
sVresponse
p1468
(dp1469
Vstatus
p1470
I204
sVcomment
p1471
g4
sVcookies
p1472
(lp1473
sVstatusText
p1474
VNo Content
p1475
sVcontent
p1476
(dp1477
VmimeType
p1478
Vtext/html; charset=UTF-8
p1479
sVcomment
p1480
g4
sVsize
p1481
I0
ssVheaders
p1482
(lp1483
sVheadersSize
p1484
I248
sVredirectURL
p1485
g4
sVbodySize
p1486
I0
sVhttpVersion
p1487
VHTTP/1.1
p1488
ssa(dp1489
Vcomment
p1490
g4
sVserverIPAddress
p1491
V216.58.216.196
p1492
sVpageref
p1493
VBrad Pitt
p1494
sVstartedDateTime
p1495
V2017-04-16T08:04:21.477-05:00
p1496
sVcache
p1497
(dp1498
sVrequest
p1499
(dp1500
Vcomment
p1501
g4
sVcookies
p1502
(lp1503
sVurl
p1504
Vhttps://www.google.com/gen_204?atyp=i&ct=&cad=&vet=10ahUKEwjZpYOAhanTAhWDxYMKHU2DAEgQ5W0InQEoAw..s&ei=0mvzWNn0LoOLjwTNhoLABA&zx=1492347861416
p1505
sVqueryString
p1506
(lp1507
(dp1508
Vname
p1509
Vatyp
p1510
sVvalue
p1511
g30
sa(dp1512
Vname
p1513
Vct
p1514
sVvalue
p1515
g4
sa(dp1516
Vname
p1517
Vcad
p1518
sVvalue
p1519
g4
sa(dp1520
Vname
p1521
Vvet
p1522
sVvalue
p1523
V10ahUKEwjZpYOAhanTAhWDxYMKHU2DAEgQ5W0InQEoAw..s
p1524
sa(dp1525
Vname
p1526
Vei
p1527
sVvalue
p1528
V0mvzWNn0LoOLjwTNhoLABA
p1529
sa(dp1530
Vname
p1531
Vzx
p1532
sVvalue
p1533
V1492347861416
p1534
sasVheaders
p1535
(lp1536
sVheadersSize
p1537
I658
sVbodySize
p1538
I0
sVmethod
p1539
VGET
p1540
sVhttpVersion
p1541
VHTTP/1.1
p1542
ssVtimings
p1543
(dp1544
Vcomment
p1545
g4
sVreceive
p1546
I0
sVsend
p1547
I0
sVssl
p1548
I27
sVconnect
p1549
I58
sVdns
p1550
I0
sVwait
p1551
I31
sVblocked
p1552
I0
ssVtime
p1553
I89
sVresponse
p1554
(dp1555
Vstatus
p1556
I204
sVcomment
p1557
g4
sVcookies
p1558
(lp1559
sVstatusText
p1560
VNo Content
p1561
sVcontent
p1562
(dp1563
VmimeType
p1564
Vtext/html; charset=UTF-8
p1565
sVcomment
p1566
g4
sVsize
p1567
I0
ssVheaders
p1568
(lp1569
sVheadersSize
p1570
I248
sVredirectURL
p1571
g4
sVbodySize
p1572
I0
sVhttpVersion
p1573
VHTTP/1.1
p1574
ssa(dp1575
Vcomment
p1576
g4
sVserverIPAddress
p1577
V216.58.216.196
p1578
sVpageref
p1579
VBrad Pitt
p1580
sVstartedDateTime
p1581
V2017-04-16T08:04:21.477-05:00
p1582
sVcache
p1583
(dp1584
sVrequest
p1585
(dp1586
Vcomment
p1587
g4
sVcookies
p1588
(lp1589
sVurl
p1590
Vhttps://www.google.com/async/irc?vet=10ahUKEwjZpYOAhanTAhWDxYMKHU2DAEgQo0EI3QI..i&ved=0ahUKEwjZpYOAhanTAhWDxYMKHU2DAEgQo0EI3QI&ei=0mvzWNn0LoOLjwTNhoLABA&yv=2&async=iu:1,ved:0ahUKEwjZpYOAhanTAhWDxYMKHU2DAEgQo0EI3QI,_id:irc_async,_pms:qs
p1591
sVqueryString
p1592
(lp1593
(dp1594
Vname
p1595
Vvet
p1596
sVvalue
p1597
V10ahUKEwjZpYOAhanTAhWDxYMKHU2DAEgQo0EI3QI..i
p1598
sa(dp1599
Vname
p1600
Vved
p1601
sVvalue
p1602
V0ahUKEwjZpYOAhanTAhWDxYMKHU2DAEgQo0EI3QI
p1603
sa(dp1604
Vname
p1605
Vei
p1606
sVvalue
p1607
V0mvzWNn0LoOLjwTNhoLABA
p1608
sa(dp1609
Vname
p1610
Vyv
p1611
sVvalue
p1612
g64
sa(dp1613
Vname
p1614
Vasync
p1615
sVvalue
p1616
Viu:1,ved:0ahUKEwjZpYOAhanTAhWDxYMKHU2DAEgQo0EI3QI,_id:irc_async,_pms:qs
p1617
sasVheaders
p1618
(lp1619
sVheadersSize
p1620
I752
sVbodySize
p1621
I0
sVmethod
p1622
VGET
p1623
sVhttpVersion
p1624
VHTTP/1.1
p1625
ssVtimings
p1626
(dp1627
Vcomment
p1628
g4
sVreceive
p1629
I0
sVsend
p1630
I0
sVssl
p1631
I24
sVconnect
p1632
I64
sVdns
p1633
I0
sVwait
p1634
I53
sVblocked
p1635
I0
ssVtime
p1636
I118
sVresponse
p1637
(dp1638
Vstatus
p1639
I200
sVcomment
p1640
g4
sVcookies
p1641
(lp1642
sVstatusText
p1643
VOK
p1644
sVcontent
p1645
(dp1646
VmimeType
p1647
Vtext/html; charset=UTF-8
p1648
sVcomment
p1649
g4
sVsize
p1650
I0
ssVheaders
p1651
(lp1652
sVheadersSize
p1653
I383
sVredirectURL
p1654
g4
sVbodySize
p1655
I7791
sVhttpVersion
p1656
VHTTP/1.1
p1657
ssa(dp1658
Vcomment
p1659
g4
sVserverIPAddress
p1660
V216.58.216.196
p1661
sVpageref
p1662
VBrad Pitt
p1663
sVstartedDateTime
p1664
V2017-04-16T08:04:21.502-05:00
p1665
sVcache
p1666
(dp1667
sVrequest
p1668
(dp1669
Vcomment
p1670
g4
sVcookies
p1671
(lp1672
sVurl
p1673
Vhttps://www.google.com/async/ampfp?vet=10ahUKEwjZpYOAhanTAhWDxYMKHU2DAEgQtZoBCNsC..i&ei=0mvzWNn0LoOLjwTNhoLABA&yv=2&async=_id:ampfp-async,_pms:qs
p1674
sVqueryString
p1675
(lp1676
(dp1677
Vname
p1678
Vvet
p1679
sVvalue
p1680
V10ahUKEwjZpYOAhanTAhWDxYMKHU2DAEgQtZoBCNsC..i
p1681
sa(dp1682
Vname
p1683
Vei
p1684
sVvalue
p1685
V0mvzWNn0LoOLjwTNhoLABA
p1686
sa(dp1687
Vname
p1688
Vyv
p1689
sVvalue
p1690
g64
sa(dp1691
Vname
p1692
Vasync
p1693
sVvalue
p1694
V_id:ampfp-async,_pms:qs
p1695
sasVheaders
p1696
(lp1697
sVheadersSize
p1698
I662
sVbodySize
p1699
I0
sVmethod
p1700
VGET
p1701
sVhttpVersion
p1702
VHTTP/1.1
p1703
ssVtimings
p1704
(dp1705
Vcomment
p1706
g4
sVreceive
p1707
I4
sVsend
p1708
I0
sVssl
p1709
I-1
sVconnect
p1710
I-1
sVdns
p1711
I-1
sVwait
p1712
I36
sVblocked
p1713
I-1
ssVtime
p1714
I40
sVresponse
p1715
(dp1716
Vstatus
p1717
I200
sVcomment
p1718
g4
sVcookies
p1719
(lp1720
sVstatusText
p1721
VOK
p1722
sVcontent
p1723
(dp1724
VmimeType
p1725
Vtext/html; charset=UTF-8
p1726
sVcomment
p1727
g4
sVsize
p1728
I0
ssVheaders
p1729
(lp1730
sVheadersSize
p1731
I383
sVredirectURL
p1732
g4
sVbodySize
p1733
I4521
sVhttpVersion
p1734
VHTTP/1.1
p1735
ssa(dp1736
Vcomment
p1737
g4
sVserverIPAddress
p1738
V216.58.216.193
p1739
sVpageref
p1740
VBrad Pitt
p1741
sVstartedDateTime
p1742
V2017-04-16T08:04:21.503-05:00
p1743
sVcache
p1744
(dp1745
sVrequest
p1746
(dp1747
Vcomment
p1748
g4
sVcookies
p1749
(lp1750
sVurl
p1751
Vhttps://cdn.ampproject.org/preconnect.gif?0.5969703867604149
p1752
sVqueryString
p1753
(lp1754
(dp1755
Vname
p1756
V0.5969703867604149
p1757
sVvalue
p1758
g4
sasVheaders
p1759
(lp1760
sVheadersSize
p1761
I375
sVbodySize
p1762
I0
sVmethod
p1763
VGET
p1764
sVhttpVersion
p1765
VHTTP/1.1
p1766
ssVtimings
p1767
(dp1768
Vcomment
p1769
g4
sVreceive
p1770
I0
sVsend
p1771
I0
sVssl
p1772
I-1
sVconnect
p1773
I-1
sVdns
p1774
I-1
sVwait
p1775
I31
sVblocked
p1776
I-1
ssVtime
p1777
I31
sVresponse
p1778
(dp1779
Vstatus
p1780
I200
sVcomment
p1781
g4
sVcookies
p1782
(lp1783
sVstatusText
p1784
VOK
p1785
sVcontent
p1786
(dp1787
VmimeType
p1788
Vimage/gif
p1789
sVcomment
p1790
g4
sVsize
p1791
I0
ssVheaders
p1792
(lp1793
sVheadersSize
p1794
I826
sVredirectURL
p1795
g4
sVbodySize
p1796
I37
sVhttpVersion
p1797
VHTTP/1.1
p1798
ssa(dp1799
Vcomment
p1800
g4
sVserverIPAddress
p1801
V216.58.216.196
p1802
sVpageref
p1803
VBrad Pitt
p1804
sVstartedDateTime
p1805
V2017-04-16T08:04:21.614-05:00
p1806
sVcache
p1807
(dp1808
sVrequest
p1809
(dp1810
Vcomment
p1811
g4
sVcookies
p1812
(lp1813
sVurl
p1814
Vhttps://www.google.com/async/log_amp_item_set?vet=10ahUKEwiFg-6AhanTAhUJ7YMKHeyrAdYQooQBCAE..i&ei=0mvzWNn0LoOLjwTNhoLABA&yv=2&async=num_items:10,_fmt:jspb
p1815
sVqueryString
p1816
(lp1817
(dp1818
Vname
p1819
Vvet
p1820
sVvalue
p1821
V10ahUKEwiFg-6AhanTAhUJ7YMKHeyrAdYQooQBCAE..i
p1822
sa(dp1823
Vname
p1824
Vei
p1825
sVvalue
p1826
V0mvzWNn0LoOLjwTNhoLABA
p1827
sa(dp1828
Vname
p1829
Vyv
p1830
sVvalue
p1831
g64
sa(dp1832
Vname
p1833
Vasync
p1834
sVvalue
p1835
Vnum_items:10,_fmt:jspb
p1836
sasVheaders
p1837
(lp1838
sVheadersSize
p1839
I671
sVbodySize
p1840
I0
sVmethod
p1841
VGET
p1842
sVhttpVersion
p1843
VHTTP/1.1
p1844
ssVtimings
p1845
(dp1846
Vcomment
p1847
g4
sVreceive
p1848
I0
sVsend
p1849
I0
sVssl
p1850
I-1
sVconnect
p1851
I-1
sVdns
p1852
I-1
sVwait
p1853
I40
sVblocked
p1854
I-1
ssVtime
p1855
I41
sVresponse
p1856
(dp1857
Vstatus
p1858
I200
sVcomment
p1859
g4
sVcookies
p1860
(lp1861
sVstatusText
p1862
VOK
p1863
sVcontent
p1864
(dp1865
VmimeType
p1866
Vapplication/json; charset=UTF-8
p1867
sVcomment
p1868
g4
sVsize
p1869
I0
ssVheaders
p1870
(lp1871
sVheadersSize
p1872
I417
sVredirectURL
p1873
g4
sVbodySize
p1874
I184
sVhttpVersion
p1875
VHTTP/1.1
p1876
ssa(dp1877
Vcomment
p1878
g4
sVserverIPAddress
p1879
V216.58.216.193
p1880
sVpageref
p1881
VBrad Pitt
p1882
sVstartedDateTime
p1883
V2017-04-16T08:04:22.051-05:00
p1884
sVcache
p1885
(dp1886
sVrequest
p1887
(dp1888
Vcomment
p1889
g4
sVcookies
p1890
(lp1891
sVurl
p1892
Vhttps://amp-ibtimes-co-uk.cdn.ampproject.org/v/s/amp.ibtimes.co.uk/brad-pitt-not-getting-calls-bevy-beauties-despite-report-1617172?amp_js_v=9
p1893
sVqueryString
p1894
(lp1895
(dp1896
Vname
p1897
Vamp_js_v
p1898
sVvalue
p1899
V9
p1900
sasVheaders
p1901
(lp1902
sVheadersSize
p1903
I547
sVbodySize
p1904
I0
sVmethod
p1905
VGET
p1906
sVhttpVersion
p1907
VHTTP/1.1
p1908
ssVtimings
p1909
(dp1910
Vcomment
p1911
g4
sVreceive
p1912
I0
sVsend
p1913
I0
sVssl
p1914
I368
sVconnect
p1915
I384
sVdns
p1916
I41
sVwait
p1917
I106
sVblocked
p1918
I0
ssVtime
p1919
I532
sVresponse
p1920
(dp1921
Vstatus
p1922
I200
sVcomment
p1923
g4
sVcookies
p1924
(lp1925
sVstatusText
p1926
VOK
p1927
sVcontent
p1928
(dp1929
VmimeType
p1930
Vtext/html
p1931
sVcomment
p1932
g4
sVsize
p1933
I0
ssVheaders
p1934
(lp1935
sVheadersSize
p1936
I860
sVredirectURL
p1937
g4
sVbodySize
p1938
I10903
sVhttpVersion
p1939
VHTTP/1.1
p1940
ssa(dp1941
Vcomment
p1942
g4
sVserverIPAddress
p1943
V216.58.216.193
p1944
sVpageref
p1945
VBrad Pitt
p1946
sVstartedDateTime
p1947
V2017-04-16T08:04:22.650-05:00
p1948
sVcache
p1949
(dp1950
sVrequest
p1951
(dp1952
Vcomment
p1953
g4
sVcookies
p1954
(lp1955
sVurl
p1956
Vhttps://d-ibtimes-co-uk.cdn.ampproject.org/i/s/d.ibtimes.co.uk/en/full/1551047/logo-ibtimes-white.png?h=20
p1957
sVqueryString
p1958
(lp1959
(dp1960
Vname
p1961
Vh
p1962
sVvalue
p1963
V20
p1964
sasVheaders
p1965
(lp1966
sVheadersSize
p1967
I540
sVbodySize
p1968
I0
sVmethod
p1969
VGET
p1970
sVhttpVersion
p1971
VHTTP/1.1
p1972
ssVtimings
p1973
(dp1974
Vcomment
p1975
g4
sVreceive
p1976
I0
sVsend
p1977
I0
sVssl
p1978
I420
sVconnect
p1979
I440
sVdns
p1980
I34
sVwait
p1981
I36
sVblocked
p1982
I0
ssVtime
p1983
I511
sVresponse
p1984
(dp1985
Vstatus
p1986
I200
sVcomment
p1987
g4
sVcookies
p1988
(lp1989
sVstatusText
p1990
VOK
p1991
sVcontent
p1992
(dp1993
VmimeType
p1994
Vimage/png
p1995
sVcomment
p1996
g4
sVsize
p1997
I0
ssVheaders
p1998
(lp1999
sVheadersSize
p2000
I823
sVredirectURL
p2001
g4
sVbodySize
p2002
I473
sVhttpVersion
p2003
VHTTP/1.1
p2004
ssa(dp2005
Vcomment
p2006
g4
sVserverIPAddress
p2007
V216.58.216.193
p2008
sVpageref
p2009
VBrad Pitt
p2010
sVstartedDateTime
p2011
V2017-04-16T08:04:22.652-05:00
p2012
sVcache
p2013
(dp2014
sVrequest
p2015
(dp2016
Vcomment
p2017
g4
sVcookies
p2018
(lp2019
sVurl
p2020
Vhttps://d-ibtimes-co-uk.cdn.ampproject.org/i/s/d.ibtimes.co.uk/en/full/1578737/brad-pitt.jpg?w=650
p2021
sVqueryString
p2022
(lp2023
(dp2024
Vname
p2025
Vw
p2026
sVvalue
p2027
V650
p2028
sasVheaders
p2029
(lp2030
sVheadersSize
p2031
I532
sVbodySize
p2032
I0
sVmethod
p2033
VGET
p2034
sVhttpVersion
p2035
VHTTP/1.1
p2036
ssVtimings
p2037
(dp2038
Vcomment
p2039
g4
sVreceive
p2040
I15
sVsend
p2041
I0
sVssl
p2042
I351
sVconnect
p2043
I370
sVdns
p2044
I0
sVwait
p2045
I33
sVblocked
p2046
I0
ssVtime
p2047
I419
sVresponse
p2048
(dp2049
Vstatus
p2050
I200
sVcomment
p2051
g4
sVcookies
p2052
(lp2053
sVstatusText
p2054
VOK
p2055
sVcontent
p2056
(dp2057
VmimeType
p2058
Vimage/jpeg
p2059
sVcomment
p2060
g4
sVsize
p2061
I0
ssVheaders
p2062
(lp2063
sVheadersSize
p2064
I850
sVredirectURL
p2065
g4
sVbodySize
p2066
I14592
sVhttpVersion
p2067
VHTTP/1.1
p2068
ssa(dp2069
Vcomment
p2070
g4
sVserverIPAddress
p2071
V216.58.216.193
p2072
sVpageref
p2073
VBrad Pitt
p2074
sVstartedDateTime
p2075
V2017-04-16T08:04:22.809-05:00
p2076
sVcache
p2077
(dp2078
sVrequest
p2079
(dp2080
Vcomment
p2081
g4
sVcookies
p2082
(lp2083
sVurl
p2084
Vhttps://fonts-gstatic-com.cdn.ampproject.org/r/s/fonts.gstatic.com/s/lato/v11/MDadn8DQ_3oT6kvnUq_2r_esZW2xOQ-xsNqO47m55DA.woff2
p2085
sVqueryString
p2086
(lp2087
sVheaders
p2088
(lp2089
sVheadersSize
p2090
I669
sVbodySize
p2091
I0
sVmethod
p2092
VGET
p2093
sVhttpVersion
p2094
VHTTP/1.1
p2095
ssVtimings
p2096
(dp2097
Vcomment
p2098
g4
sVreceive
p2099
I2
sVsend
p2100
I0
sVssl
p2101
I527
sVconnect
p2102
I560
sVdns
p2103
I59
sVwait
p2104
I158
sVblocked
p2105
I0
ssVtime
p2106
I780
sVresponse
p2107
(dp2108
Vstatus
p2109
I200
sVcomment
p2110
g4
sVcookies
p2111
(lp2112
sVstatusText
p2113
VOK
p2114
sVcontent
p2115
(dp2116
VmimeType
p2117
Vfont/woff2
p2118
sVcomment
p2119
g4
sVsize
p2120
I0
ssVheaders
p2121
(lp2122
sVheadersSize
p2123
I858
sVredirectURL
p2124
g4
sVbodySize
p2125
I16436
sVhttpVersion
p2126
VHTTP/1.1
p2127
ssa(dp2128
Vcomment
p2129
g4
sVserverIPAddress
p2130
V216.58.216.193
p2131
sVpageref
p2132
VBrad Pitt
p2133
sVstartedDateTime
p2134
V2017-04-16T08:04:22.811-05:00
p2135
sVcache
p2136
(dp2137
sVrequest
p2138
(dp2139
Vcomment
p2140
g4
sVcookies
p2141
(lp2142
sVurl
p2143
Vhttps://fonts-gstatic-com.cdn.ampproject.org/r/s/fonts.gstatic.com/s/playfairdisplay/v10/UC3ZEjagJi85gF9qFaBgIIsv7neNnoQYDmljOSnH1QE.woff2
p2144
sVqueryString
p2145
(lp2146
sVheaders
p2147
(lp2148
sVheadersSize
p2149
I680
sVbodySize
p2150
I0
sVmethod
p2151
VGET
p2152
sVhttpVersion
p2153
VHTTP/1.1
p2154
ssVtimings
p2155
(dp2156
Vcomment
p2157
g4
sVreceive
p2158
I16
sVsend
p2159
I0
sVssl
p2160
I533
sVconnect
p2161
I562
sVdns
p2162
I52
sVwait
p2163
I156
sVblocked
p2164
I0
ssVtime
p2165
I788
sVresponse
p2166
(dp2167
Vstatus
p2168
I200
sVcomment
p2169
g4
sVcookies
p2170
(lp2171
sVstatusText
p2172
VOK
p2173
sVcontent
p2174
(dp2175
VmimeType
p2176
Vfont/woff2
p2177
sVcomment
p2178
g4
sVsize
p2179
I0
ssVheaders
p2180
(lp2181
sVheadersSize
p2182
I858
sVredirectURL
p2183
g4
sVbodySize
p2184
I25932
sVhttpVersion
p2185
VHTTP/1.1
p2186
ssa(dp2187
Vcomment
p2188
g4
sVserverIPAddress
p2189
V216.58.216.196
p2190
sVpageref
p2191
VBrad Pitt
p2192
sVstartedDateTime
p2193
V2017-04-16T08:04:23.013-05:00
p2194
sVcache
p2195
(dp2196
sVrequest
p2197
(dp2198
Vcomment
p2199
g4
sVcookies
p2200
(lp2201
sVurl
p2202
Vhttps://www.google.com/gen_204?s=web&atyp=csi&ei=0mvzWNn0LoOLjwTNhoLABA&imc=90&imn=90&imp=34&adh=&xjs=init.32.14.sb_mob.24.dvl.3.c.1.mbsf.1.jsa.1&ima=21&rt=prt.917,iml.1033,xjsls.917,dcl.1030,xjses.1056,xjsee.1170,xjs.1171,qiml.1432,ol.3131,aft.1031,wsrt.114,cst.0,dnst.0,rqst.997,rspt.902,rqstt.2,unt.2,cstt.2,dit.1087
p2203
sVqueryString
p2204
(lp2205
(dp2206
Vname
p2207
g57
sVvalue
p2208
Vweb
p2209
sa(dp2210
Vname
p2211
Vatyp
p2212
sVvalue
p2213
Vcsi
p2214
sa(dp2215
Vname
p2216
Vei
p2217
sVvalue
p2218
V0mvzWNn0LoOLjwTNhoLABA
p2219
sa(dp2220
Vname
p2221
Vimc
p2222
sVvalue
p2223
V90
p2224
sa(dp2225
Vname
p2226
Vimn
p2227
sVvalue
p2228
V90
p2229
sa(dp2230
Vname
p2231
Vimp
p2232
sVvalue
p2233
V34
p2234
sa(dp2235
Vname
p2236
Vadh
p2237
sVvalue
p2238
g4
sa(dp2239
Vname
p2240
Vxjs
p2241
sVvalue
p2242
Vinit.32.14.sb_mob.24.dvl.3.c.1.mbsf.1.jsa.1
p2243
sa(dp2244
Vname
p2245
Vima
p2246
sVvalue
p2247
V21
p2248
sa(dp2249
Vname
p2250
Vrt
p2251
sVvalue
p2252
Vprt.917,iml.1033,xjsls.917,dcl.1030,xjses.1056,xjsee.1170,xjs.1171,qiml.1432,ol.3131,aft.1031,wsrt.114,cst.0,dnst.0,rqst.997,rspt.902,rqstt.2,unt.2,cstt.2,dit.1087
p2253
sasVheaders
p2254
(lp2255
sVheadersSize
p2256
I836
sVbodySize
p2257
I0
sVmethod
p2258
VGET
p2259
sVhttpVersion
p2260
VHTTP/1.1
p2261
ssVtimings
p2262
(dp2263
Vcomment
p2264
g4
sVreceive
p2265
I3
sVsend
p2266
I0
sVssl
p2267
I-1
sVconnect
p2268
I-1
sVdns
p2269
I-1
sVwait
p2270
I27
sVblocked
p2271
I-1
ssVtime
p2272
I31
sVresponse
p2273
(dp2274
Vstatus
p2275
I204
sVcomment
p2276
g4
sVcookies
p2277
(lp2278
sVstatusText
p2279
VNo Content
p2280
sVcontent
p2281
(dp2282
VmimeType
p2283
Vtext/html; charset=UTF-8
p2284
sVcomment
p2285
g4
sVsize
p2286
I0
ssVheaders
p2287
(lp2288
sVheadersSize
p2289
I248
sVredirectURL
p2290
g4
sVbodySize
p2291
I0
sVhttpVersion
p2292
VHTTP/1.1
p2293
ssa(dp2294
Vcomment
p2295
g4
sVserverIPAddress
p2296
V216.58.216.196
p2297
sVpageref
p2298
VBrad Pitt
p2299
sVstartedDateTime
p2300
V2017-04-16T08:04:23.462-05:00
p2301
sVcache
p2302
(dp2303
sVrequest
p2304
(dp2305
Vcomment
p2306
g4
sVcookies
p2307
(lp2308
sVurl
p2309
Vhttps://www.google.com/gen_204?atyp=i&ct=slh&cad=&ei=x2vzWPacBuzLjwTBr6-YDg&m=V&t=C&s=1&v=2&pv=0.24979553143592692&me=1:1492347850195,x:2,V,0,0,1280,944:0,N,1,x2vzWPacBuzLjwTBr6-YDg:0,R,1,24,8,155,1249,597:0,R,1,31,8,337,1249,332:0,R,1,32,0,338,1265,351:0,R,1,63,8,669,1249,83:0,R,1,79,8,762,1249,696:0,R,1,80,8,762,1249,696:0,R,1,83,8,775,1249,40:0,R,1,96,8,827,1249,178:0,R,1,99,0,843,1265,197:1,B,3918:9077,e,U&zx=1492347863460
p2310
sVqueryString
p2311
(lp2312
(dp2313
Vname
p2314
Vatyp
p2315
sVvalue
p2316
g30
sa(dp2317
Vname
p2318
Vct
p2319
sVvalue
p2320
Vslh
p2321
sa(dp2322
Vname
p2323
Vcad
p2324
sVvalue
p2325
g4
sa(dp2326
Vname
p2327
Vei
p2328
sVvalue
p2329
Vx2vzWPacBuzLjwTBr6-YDg
p2330
sa(dp2331
Vname
p2332
g47
sVvalue
p2333
g49
sa(dp2334
Vname
p2335
g52
sVvalue
p2336
g54
sa(dp2337
Vname
p2338
g57
sVvalue
p2339
g59
sa(dp2340
Vname
p2341
g62
sVvalue
p2342
g64
sa(dp2343
Vname
p2344
Vpv
p2345
sVvalue
p2346
V0.24979553143592692
p2347
sa(dp2348
Vname
p2349
Vme
p2350
sVvalue
p2351
V1:1492347850195,x:2,V,0,0,1280,944:0,N,1,x2vzWPacBuzLjwTBr6-YDg:0,R,1,24,8,155,1249,597:0,R,1,31,8,337,1249,332:0,R,1,32,0,338,1265,351:0,R,1,63,8,669,1249,83:0,R,1,79,8,762,1249,696:0,R,1,80,8,762,1249,696:0,R,1,83,8,775,1249,40:0,R,1,96,8,827,1249,178:0,R,1,99,0,843,1265,197:1,B,3918:9077,e,U
p2352
sa(dp2353
Vname
p2354
Vzx
p2355
sVvalue
p2356
V1492347863460
p2357
sasVheaders
p2358
(lp2359
sVheadersSize
p2360
I947
sVbodySize
p2361
I0
sVmethod
p2362
VGET
p2363
sVhttpVersion
p2364
VHTTP/1.1
p2365
ssVtimings
p2366
(dp2367
Vcomment
p2368
g4
sVreceive
p2369
I0
sVsend
p2370
I0
sVssl
p2371
I-1
sVconnect
p2372
I-1
sVdns
p2373
I-1
sVwait
p2374
I39
sVblocked
p2375
I-1
ssVtime
p2376
I40
sVresponse
p2377
(dp2378
Vstatus
p2379
I204
sVcomment
p2380
g4
sVcookies
p2381
(lp2382
sVstatusText
p2383
VNo Content
p2384
sVcontent
p2385
(dp2386
VmimeType
p2387
Vtext/html; charset=UTF-8
p2388
sVcomment
p2389
g4
sVsize
p2390
I0
ssVheaders
p2391
(lp2392
sVheadersSize
p2393
I248
sVredirectURL
p2394
g4
sVbodySize
p2395
I0
sVhttpVersion
p2396
VHTTP/1.1
p2397
ssasVversion
p2398
V1.2
p2399
sVpages
p2400
(lp2401
(dp2402
VpageTimings
p2403
(dp2404
Vcomment
p2405
g4
ssVcomment
p2406
g4
sVtitle
p2407
VBrad Pitt
p2408
sVid
p2409
VBrad Pitt
p2410
sVstartedDateTime
p2411
V2017-04-16T08:04:19.236-05:00
p2412
sasVcreator
p2413
(dp2414
Vcomment
p2415
g4
sVversion
p2416
V2.1.4
p2417
sVname
p2418
VBrowserMob Proxy
p2419
sss.