(dp0
Vlog
p1
(dp2
Vcomment
p3
V
p4
sVentries
p5
(lp6
(dp7
Vcomment
p8
g4
sVserverIPAddress
p9
V216.58.216.196
p10
sVpageref
p11
VNew York Knicks
p12
sVstartedDateTime
p13
V2017-04-16T08:32:14.009-05:00
p14
sVcache
p15
(dp16
sVrequest
p17
(dp18
Vcomment
p19
g4
sVcookies
p20
(lp21
sVurl
p22
Vhttps://www.google.com/gen_204?atyp=i&ct=slh&cad=&ei=THLzWMbOAoOzjwTm4pqYDA&m=V&t=C&s=1&v=2&pv=0.5578437628772773&me=1:1492349519402,x:3,V,0,0,1280,944:0,N,1,THLzWMbOAoOzjwTm4pqYDA:0,R,1,24,0,155,1197,506:0,R,1,25,0,155,1197,504:0,R,1,79,8,669,1264,309:0,R,1,80,8,713,1264,265:0,R,1,81,0,713,1280,285:2,B,4520:14601,e,U&zx=1492349534008
p23
sVqueryString
p24
(lp25
(dp26
Vname
p27
Vatyp
p28
sVvalue
p29
Vi
p30
sa(dp31
Vname
p32
Vct
p33
sVvalue
p34
Vslh
p35
sa(dp36
Vname
p37
Vcad
p38
sVvalue
p39
g4
sa(dp40
Vname
p41
Vei
p42
sVvalue
p43
VTHLzWMbOAoOzjwTm4pqYDA
p44
sa(dp45
Vname
p46
Vm
p47
sVvalue
p48
VV
p49
sa(dp50
Vname
p51
Vt
p52
sVvalue
p53
VC
p54
sa(dp55
Vname
p56
Vs
p57
sVvalue
p58
V1
p59
sa(dp60
Vname
p61
Vv
p62
sVvalue
p63
V2
p64
sa(dp65
Vname
p66
Vpv
p67
sVvalue
p68
V0.5578437628772773
p69
sa(dp70
Vname
p71
Vme
p72
sVvalue
p73
V1:1492349519402,x:3,V,0,0,1280,944:0,N,1,THLzWMbOAoOzjwTm4pqYDA:0,R,1,24,0,155,1197,506:0,R,1,25,0,155,1197,504:0,R,1,79,8,669,1264,309:0,R,1,80,8,713,1264,265:0,R,1,81,0,713,1280,285:2,B,4520:14601,e,U
p74
sa(dp75
Vname
p76
Vzx
p77
sVvalue
p78
V1492349534008
p79
sasVheaders
p80
(lp81
sVheadersSize
p82
I853
sVbodySize
p83
I0
sVmethod
p84
VGET
p85
sVhttpVersion
p86
VHTTP/1.1
p87
ssVtimings
p88
(dp89
Vcomment
p90
g4
sVreceive
p91
I0
sVsend
p92
I0
sVssl
p93
I-1
sVconnect
p94
I-1
sVdns
p95
I-1
sVwait
p96
I0
sVblocked
p97
I-1
ssVtime
p98
I0
sVresponse
p99
(dp100
Vstatus
p101
I0
sVcomment
p102
g4
sVcookies
p103
(lp104
sV_error
p105
VNo response received
p106
sVstatusText
p107
g4
sVcontent
p108
(dp109
VmimeType
p110
g4
sVcomment
p111
g4
sVsize
p112
I0
ssVheaders
p113
(lp114
sVheadersSize
p115
I-1
sVredirectURL
p116
g4
sVbodySize
p117
I-1
sVhttpVersion
p118
Vunknown
p119
ssa(dp120
Vcomment
p121
g4
sVserverIPAddress
p122
V216.58.216.196
p123
sVpageref
p124
VNew York Knicks
p125
sVstartedDateTime
p126
V2017-04-16T08:32:14.016-05:00
p127
sVcache
p128
(dp129
sVrequest
p130
(dp131
Vcomment
p132
g4
sVcookies
p133
(lp134
sVurl
p135
Vhttp://www.google.com/
p136
sVqueryString
p137
(lp138
sVheaders
p139
(lp140
sVheadersSize
p141
I613
sVbodySize
p142
I0
sVmethod
p143
VGET
p144
sVhttpVersion
p145
VHTTP/1.1
p146
ssVtimings
p147
(dp148
Vcomment
p149
g4
sVreceive
p150
I0
sVsend
p151
I0
sVssl
p152
I-1
sVconnect
p153
I-1
sVdns
p154
I-1
sVwait
p155
I51
sVblocked
p156
I-1
ssVtime
p157
I51
sVresponse
p158
(dp159
Vstatus
p160
I302
sVcomment
p161
g4
sVcookies
p162
(lp163
sVstatusText
p164
VFound
p165
sVcontent
p166
(dp167
VmimeType
p168
Vtext/html; charset=UTF-8
p169
sVcomment
p170
g4
sVsize
p171
I0
ssVheaders
p172
(lp173
sVheadersSize
p174
I609
sVredirectURL
p175
Vhttps://www.google.com/?gws_rd=ssl
p176
sVbodySize
p177
I231
sVhttpVersion
p178
VHTTP/1.1
p179
ssa(dp180
Vcomment
p181
g4
sVserverIPAddress
p182
V216.58.216.196
p183
sVpageref
p184
VNew York Knicks
p185
sVstartedDateTime
p186
V2017-04-16T08:32:14.107-05:00
p187
sVcache
p188
(dp189
sVrequest
p190
(dp191
Vcomment
p192
g4
sVcookies
p193
(lp194
sVurl
p195
Vhttps://www.google.com/?gws_rd=ssl
p196
sVqueryString
p197
(lp198
(dp199
Vname
p200
Vgws_rd
p201
sVvalue
p202
Vssl
p203
sasVheaders
p204
(lp205
sVheadersSize
p206
I607
sVbodySize
p207
I0
sVmethod
p208
VGET
p209
sVhttpVersion
p210
VHTTP/1.1
p211
ssVtimings
p212
(dp213
Vcomment
p214
g4
sVreceive
p215
I18
sVsend
p216
I0
sVssl
p217
I22
sVconnect
p218
I34
sVdns
p219
I1
sVwait
p220
I74
sVblocked
p221
I0
ssVtime
p222
I128
sVresponse
p223
(dp224
Vstatus
p225
I200
sVcomment
p226
g4
sVcookies
p227
(lp228
sVstatusText
p229
VOK
p230
sVcontent
p231
(dp232
VmimeType
p233
Vtext/html; charset=UTF-8
p234
sVcomment
p235
g4
sVsize
p236
I0
ssVheaders
p237
(lp238
sVheadersSize
p239
I721
sVredirectURL
p240
g4
sVbodySize
p241
I34291
sVhttpVersion
p242
VHTTP/1.1
p243
ssa(dp244
Vcomment
p245
g4
sVserverIPAddress
p246
V216.58.216.196
p247
sVpageref
p248
VNew York Knicks
p249
sVstartedDateTime
p250
V2017-04-16T08:32:14.422-05:00
p251
sVcache
p252
(dp253
sVrequest
p254
(dp255
Vcomment
p256
g4
sVcookies
p257
(lp258
sVurl
p259
Vhttps://www.google.com/gen_204?s=mobilewebhp&atyp=csi&ei=XXLzWMuaBoy7jwT-hp3YAg&imc=1&imn=1&imp=0&adh=&xjs=init.31.12.sb_mob.24.dvl.3.c.1.jsa.1.mbsf.1&ima=1&rt=xjsls.18,prt.18,iml.18,dcl.36,xjses.86,xjsee.171,xjs.172,ol.214,aft.18,wsrt.193,cst.0,dnst.0,rqst.94,rspt.96,rqstt.100,unt.61,cstt.61,dit.222
p260
sVqueryString
p261
(lp262
(dp263
Vname
p264
g57
sVvalue
p265
Vmobilewebhp
p266
sa(dp267
Vname
p268
Vatyp
p269
sVvalue
p270
Vcsi
p271
sa(dp272
Vname
p273
Vei
p274
sVvalue
p275
VXXLzWMuaBoy7jwT-hp3YAg
p276
sa(dp277
Vname
p278
Vimc
p279
sVvalue
p280
g59
sa(dp281
Vname
p282
Vimn
p283
sVvalue
p284
g59
sa(dp285
Vname
p286
Vimp
p287
sVvalue
p288
V0
p289
sa(dp290
Vname
p291
Vadh
p292
sVvalue
p293
g4
sa(dp294
Vname
p295
Vxjs
p296
sVvalue
p297
Vinit.31.12.sb_mob.24.dvl.3.c.1.jsa.1.mbsf.1
p298
sa(dp299
Vname
p300
Vima
p301
sVvalue
p302
g59
sa(dp303
Vname
p304
Vrt
p305
sVvalue
p306
Vxjsls.18,prt.18,iml.18,dcl.36,xjses.86,xjsee.171,xjs.172,ol.214,aft.18,wsrt.193,cst.0,dnst.0,rqst.94,rspt.96,rqstt.100,unt.61,cstt.61,dit.222
p307
sasVheaders
p308
(lp309
sVheadersSize
p310
I829
sVbodySize
p311
I0
sVmethod
p312
VGET
p313
sVhttpVersion
p314
VHTTP/1.1
p315
ssVtimings
p316
(dp317
Vcomment
p318
g4
sVreceive
p319
I0
sVsend
p320
I0
sVssl
p321
I-1
sVconnect
p322
I-1
sVdns
p323
I-1
sVwait
p324
I26
sVblocked
p325
I-1
ssVtime
p326
I26
sVresponse
p327
(dp328
Vstatus
p329
I204
sVcomment
p330
g4
sVcookies
p331
(lp332
sVstatusText
p333
VNo Content
p334
sVcontent
p335
(dp336
VmimeType
p337
Vtext/html; charset=UTF-8
p338
sVcomment
p339
g4
sVsize
p340
I0
ssVheaders
p341
(lp342
sVheadersSize
p343
I248
sVredirectURL
p344
g4
sVbodySize
p345
I0
sVhttpVersion
p346
VHTTP/1.1
p347
ssa(dp348
Vcomment
p349
g4
sVserverIPAddress
p350
V216.58.216.196
p351
sVpageref
p352
VNew York Knicks
p353
sVstartedDateTime
p354
V2017-04-16T08:32:14.593-05:00
p355
sVcache
p356
(dp357
sVrequest
p358
(dp359
Vcomment
p360
g4
sVcookies
p361
(lp362
sVurl
p363
Vhttps://www.google.com/complete/search?client=mobile-gws-hp&hl=en&gs_rn=64&gs_ri=mobile-gws-hp&sla=1&pfq=nate%20diaz&gm=602&cp=0&gs_id=1&xhr=t&q=N&tch=1&ech=1&psi=XXLzWMuaBoy7jwT-hp3YAg.1492349534341.1
p364
sVqueryString
p365
(lp366
(dp367
Vname
p368
Vclient
p369
sVvalue
p370
Vmobile-gws-hp
p371
sa(dp372
Vname
p373
Vhl
p374
sVvalue
p375
Ven
p376
sa(dp377
Vname
p378
Vgs_rn
p379
sVvalue
p380
V64
p381
sa(dp382
Vname
p383
Vgs_ri
p384
sVvalue
p385
Vmobile-gws-hp
p386
sa(dp387
Vname
p388
Vsla
p389
sVvalue
p390
g59
sa(dp391
Vname
p392
Vpfq
p393
sVvalue
p394
Vnate diaz
p395
sa(dp396
Vname
p397
Vgm
p398
sVvalue
p399
V602
p400
sa(dp401
Vname
p402
Vcp
p403
sVvalue
p404
g289
sa(dp405
Vname
p406
Vgs_id
p407
sVvalue
p408
g59
sa(dp409
Vname
p410
Vxhr
p411
sVvalue
p412
g52
sa(dp413
Vname
p414
Vq
p415
sVvalue
p416
VN
p417
sa(dp418
Vname
p419
Vtch
p420
sVvalue
p421
g59
sa(dp422
Vname
p423
Vech
p424
sVvalue
p425
g59
sa(dp426
Vname
p427
Vpsi
p428
sVvalue
p429
VXXLzWMuaBoy7jwT-hp3YAg.1492349534341.1
p430
sasVheaders
p431
(lp432
sVheadersSize
p433
I729
sVbodySize
p434
I0
sVmethod
p435
VGET
p436
sVhttpVersion
p437
VHTTP/1.1
p438
ssVtimings
p439
(dp440
Vcomment
p441
g4
sVreceive
p442
I0
sVsend
p443
I0
sVssl
p444
I-1
sVconnect
p445
I-1
sVdns
p446
I-1
sVwait
p447
I0
sVblocked
p448
I-1
ssVtime
p449
I0
sVresponse
p450
(dp451
Vstatus
p452
I0
sVcomment
p453
g4
sVcookies
p454
(lp455
sV_error
p456
VNo response received
p457
sVstatusText
p458
g4
sVcontent
p459
(dp460
VmimeType
p461
g4
sVcomment
p462
g4
sVsize
p463
I0
ssVheaders
p464
(lp465
sVheadersSize
p466
I-1
sVredirectURL
p467
g4
sVbodySize
p468
I-1
sVhttpVersion
p469
Vunknown
p470
ssa(dp471
Vcomment
p472
g4
sVserverIPAddress
p473
V216.58.216.196
p474
sVpageref
p475
VNew York Knicks
p476
sVstartedDateTime
p477
V2017-04-16T08:32:14.730-05:00
p478
sVcache
p479
(dp480
sVrequest
p481
(dp482
Vcomment
p483
g4
sVcookies
p484
(lp485
sVurl
p486
Vhttps://www.google.com/search?site=&source=hp&ei=XXLzWMuaBoy7jwT-hp3YAg&q=New+York+Knicks&oq=New+York+Knicks&gs_l=mobile-gws-hp.3...226.266.0.314.15.1.0.0.0.0.0.0..0.0....0...1c.1.64.mobile-gws-hp..15.0.0.jKjl7Zr1TuA
p487
sVqueryString
p488
(lp489
(dp490
Vname
p491
Vsite
p492
sVvalue
p493
g4
sa(dp494
Vname
p495
Vsource
p496
sVvalue
p497
Vhp
p498
sa(dp499
Vname
p500
Vei
p501
sVvalue
p502
VXXLzWMuaBoy7jwT-hp3YAg
p503
sa(dp504
Vname
p505
g415
sVvalue
p506
VNew York Knicks
p507
sa(dp508
Vname
p509
Voq
p510
sVvalue
p511
VNew York Knicks
p512
sa(dp513
Vname
p514
Vgs_l
p515
sVvalue
p516
Vmobile-gws-hp.3...226.266.0.314.15.1.0.0.0.0.0.0..0.0....0...1c.1.64.mobile-gws-hp..15.0.0.jKjl7Zr1TuA
p517
sasVheaders
p518
(lp519
sVheadersSize
p520
I834
sVbodySize
p521
I0
sVmethod
p522
VGET
p523
sVhttpVersion
p524
VHTTP/1.1
p525
ssVtimings
p526
(dp527
Vcomment
p528
g4
sVreceive
p529
I1066
sVsend
p530
I0
sVssl
p531
I21
sVconnect
p532
I38
sVdns
p533
I0
sVwait
p534
I120
sVblocked
p535
I0
ssVtime
p536
I1224
sVresponse
p537
(dp538
Vstatus
p539
I200
sVcomment
p540
g4
sVcookies
p541
(lp542
sVstatusText
p543
VOK
p544
sVcontent
p545
(dp546
VmimeType
p547
Vtext/html; charset=UTF-8
p548
sVcomment
p549
g4
sVsize
p550
I0
ssVheaders
p551
(lp552
sVheadersSize
p553
I363
sVredirectURL
p554
g4
sVbodySize
p555
I171098
sVhttpVersion
p556
VHTTP/1.1
p557
ssa(dp558
Vcomment
p559
g4
sVserverIPAddress
p560
V216.58.216.195
p561
sVpageref
p562
VNew York Knicks
p563
sVstartedDateTime
p564
V2017-04-16T08:32:15.851-05:00
p565
sVcache
p566
(dp567
sVrequest
p568
(dp569
Vcomment
p570
g4
sVcookies
p571
(lp572
sVurl
p573
Vhttps://ssl.gstatic.com/onebox/media/sports/logos/-rf7eY39l_0V7J4ekakuKA_48x48.png
p574
sVqueryString
p575
(lp576
sVheaders
p577
(lp578
sVheadersSize
p579
I397
sVbodySize
p580
I0
sVmethod
p581
VGET
p582
sVhttpVersion
p583
VHTTP/1.1
p584
ssVtimings
p585
(dp586
Vcomment
p587
g4
sVreceive
p588
I2
sVsend
p589
I0
sVssl
p590
I-1
sVconnect
p591
I-1
sVdns
p592
I-1
sVwait
p593
I15
sVblocked
p594
I-1
ssVtime
p595
I18
sVresponse
p596
(dp597
Vstatus
p598
I200
sVcomment
p599
g4
sVcookies
p600
(lp601
sVstatusText
p602
VOK
p603
sVcontent
p604
(dp605
VmimeType
p606
Vimage/png
p607
sVcomment
p608
g4
sVsize
p609
I0
ssVheaders
p610
(lp611
sVheadersSize
p612
I424
sVredirectURL
p613
g4
sVbodySize
p614
I4109
sVhttpVersion
p615
VHTTP/1.1
p616
ssa(dp617
Vcomment
p618
g4
sVserverIPAddress
p619
V216.58.216.195
p620
sVpageref
p621
VNew York Knicks
p622
sVstartedDateTime
p623
V2017-04-16T08:32:15.852-05:00
p624
sVcache
p625
(dp626
sVrequest
p627
(dp628
Vcomment
p629
g4
sVcookies
p630
(lp631
sVurl
p632
Vhttps://ssl.gstatic.com/onebox/media/sports/logos/3ho45P8yNw-WmQ2m4A4TIA_48x48.png
p633
sVqueryString
p634
(lp635
sVheaders
p636
(lp637
sVheadersSize
p638
I397
sVbodySize
p639
I0
sVmethod
p640
VGET
p641
sVhttpVersion
p642
VHTTP/1.1
p643
ssVtimings
p644
(dp645
Vcomment
p646
g4
sVreceive
p647
I0
sVsend
p648
I0
sVssl
p649
I-1
sVconnect
p650
I-1
sVdns
p651
I-1
sVwait
p652
I22
sVblocked
p653
I-1
ssVtime
p654
I22
sVresponse
p655
(dp656
Vstatus
p657
I200
sVcomment
p658
g4
sVcookies
p659
(lp660
sVstatusText
p661
VOK
p662
sVcontent
p663
(dp664
VmimeType
p665
Vimage/png
p666
sVcomment
p667
g4
sVsize
p668
I0
ssVheaders
p669
(lp670
sVheadersSize
p671
I424
sVredirectURL
p672
g4
sVbodySize
p673
I3033
sVhttpVersion
p674
VHTTP/1.1
p675
ssa(dp676
Vcomment
p677
g4
sVserverIPAddress
p678
V216.58.216.195
p679
sVpageref
p680
VNew York Knicks
p681
sVstartedDateTime
p682
V2017-04-16T08:32:15.852-05:00
p683
sVcache
p684
(dp685
sVrequest
p686
(dp687
Vcomment
p688
g4
sVcookies
p689
(lp690
sVurl
p691
Vhttps://ssl.gstatic.com/onebox/media/sports/videos/nba/CwmJzik2Uks_192x108.jpg
p692
sVqueryString
p693
(lp694
sVheaders
p695
(lp696
sVheadersSize
p697
I393
sVbodySize
p698
I0
sVmethod
p699
VGET
p700
sVhttpVersion
p701
VHTTP/1.1
p702
ssVtimings
p703
(dp704
Vcomment
p705
g4
sVreceive
p706
I0
sVsend
p707
I0
sVssl
p708
I-1
sVconnect
p709
I-1
sVdns
p710
I-1
sVwait
p711
I32
sVblocked
p712
I-1
ssVtime
p713
I32
sVresponse
p714
(dp715
Vstatus
p716
I200
sVcomment
p717
g4
sVcookies
p718
(lp719
sVstatusText
p720
VOK
p721
sVcontent
p722
(dp723
VmimeType
p724
Vimage/jpeg
p725
sVcomment
p726
g4
sVsize
p727
I0
ssVheaders
p728
(lp729
sVheadersSize
p730
I391
sVredirectURL
p731
g4
sVbodySize
p732
I8888
sVhttpVersion
p733
VHTTP/1.1
p734
ssa(dp735
Vcomment
p736
g4
sVserverIPAddress
p737
V216.58.216.195
p738
sVpageref
p739
VNew York Knicks
p740
sVstartedDateTime
p741
V2017-04-16T08:32:15.855-05:00
p742
sVcache
p743
(dp744
sVrequest
p745
(dp746
Vcomment
p747
g4
sVcookies
p748
(lp749
sVurl
p750
Vhttps://ssl.gstatic.com/onebox/media/sports/logos/745IgW4NSvnRxg-W9oczmQ_48x48.png
p751
sVqueryString
p752
(lp753
sVheaders
p754
(lp755
sVheadersSize
p756
I397
sVbodySize
p757
I0
sVmethod
p758
VGET
p759
sVhttpVersion
p760
VHTTP/1.1
p761
ssVtimings
p762
(dp763
Vcomment
p764
g4
sVreceive
p765
I0
sVsend
p766
I0
sVssl
p767
I-1
sVconnect
p768
I-1
sVdns
p769
I-1
sVwait
p770
I18
sVblocked
p771
I-1
ssVtime
p772
I18
sVresponse
p773
(dp774
Vstatus
p775
I200
sVcomment
p776
g4
sVcookies
p777
(lp778
sVstatusText
p779
VOK
p780
sVcontent
p781
(dp782
VmimeType
p783
Vimage/png
p784
sVcomment
p785
g4
sVsize
p786
I0
ssVheaders
p787
(lp788
sVheadersSize
p789
I424
sVredirectURL
p790
g4
sVbodySize
p791
I4278
sVhttpVersion
p792
VHTTP/1.1
p793
ssa(dp794
Vcomment
p795
g4
sVserverIPAddress
p796
V216.58.216.195
p797
sVpageref
p798
VNew York Knicks
p799
sVstartedDateTime
p800
V2017-04-16T08:32:15.855-05:00
p801
sVcache
p802
(dp803
sVrequest
p804
(dp805
Vcomment
p806
g4
sVcookies
p807
(lp808
sVurl
p809
Vhttps://ssl.gstatic.com/onebox/media/sports/videos/nba/-aZMUVHuEVM_192x108.jpg
p810
sVqueryString
p811
(lp812
sVheaders
p813
(lp814
sVheadersSize
p815
I393
sVbodySize
p816
I0
sVmethod
p817
VGET
p818
sVhttpVersion
p819
VHTTP/1.1
p820
ssVtimings
p821
(dp822
Vcomment
p823
g4
sVreceive
p824
I4
sVsend
p825
I0
sVssl
p826
I-1
sVconnect
p827
I-1
sVdns
p828
I-1
sVwait
p829
I32
sVblocked
p830
I-1
ssVtime
p831
I36
sVresponse
p832
(dp833
Vstatus
p834
I200
sVcomment
p835
g4
sVcookies
p836
(lp837
sVstatusText
p838
VOK
p839
sVcontent
p840
(dp841
VmimeType
p842
Vimage/jpeg
p843
sVcomment
p844
g4
sVsize
p845
I0
ssVheaders
p846
(lp847
sVheadersSize
p848
I392
sVredirectURL
p849
g4
sVbodySize
p850
I5476
sVhttpVersion
p851
VHTTP/1.1
p852
ssa(dp853
Vcomment
p854
g4
sVserverIPAddress
p855
V216.58.216.195
p856
sVpageref
p857
VNew York Knicks
p858
sVstartedDateTime
p859
V2017-04-16T08:32:15.855-05:00
p860
sVcache
p861
(dp862
sVrequest
p863
(dp864
Vcomment
p865
g4
sVcookies
p866
(lp867
sVurl
p868
Vhttps://ssl.gstatic.com/onebox/media/sports/logos/US6KILZue2D5766trEf0Mg_48x48.png
p869
sVqueryString
p870
(lp871
sVheaders
p872
(lp873
sVheadersSize
p874
I397
sVbodySize
p875
I0
sVmethod
p876
VGET
p877
sVhttpVersion
p878
VHTTP/1.1
p879
ssVtimings
p880
(dp881
Vcomment
p882
g4
sVreceive
p883
I4
sVsend
p884
I0
sVssl
p885
I-1
sVconnect
p886
I-1
sVdns
p887
I-1
sVwait
p888
I25
sVblocked
p889
I-1
ssVtime
p890
I30
sVresponse
p891
(dp892
Vstatus
p893
I200
sVcomment
p894
g4
sVcookies
p895
(lp896
sVstatusText
p897
VOK
p898
sVcontent
p899
(dp900
VmimeType
p901
Vimage/png
p902
sVcomment
p903
g4
sVsize
p904
I0
ssVheaders
p905
(lp906
sVheadersSize
p907
I424
sVredirectURL
p908
g4
sVbodySize
p909
I4508
sVhttpVersion
p910
VHTTP/1.1
p911
ssa(dp912
Vcomment
p913
g4
sVserverIPAddress
p914
V216.58.216.196
p915
sVpageref
p916
VNew York Knicks
p917
sVstartedDateTime
p918
V2017-04-16T08:32:17.265-05:00
p919
sVcache
p920
(dp921
sVrequest
p922
(dp923
Vcomment
p924
g4
sVcookies
p925
(lp926
sVurl
p927
Vhttps://www.google.com/async/irc?vet=10ahUKEwjt0tqei6nTAhVF2IMKHZopA1UQo0EIswM..i&ved=0ahUKEwjt0tqei6nTAhVF2IMKHZopA1UQo0EIswM&ei=XXLzWK2wLMWwjwSa04yoBQ&yv=2&async=iu:1,ved:0ahUKEwjt0tqei6nTAhVF2IMKHZopA1UQo0EIswM,_id:irc_async,_pms:qs
p928
sVqueryString
p929
(lp930
(dp931
Vname
p932
Vvet
p933
sVvalue
p934
V10ahUKEwjt0tqei6nTAhVF2IMKHZopA1UQo0EIswM..i
p935
sa(dp936
Vname
p937
Vved
p938
sVvalue
p939
V0ahUKEwjt0tqei6nTAhVF2IMKHZopA1UQo0EIswM
p940
sa(dp941
Vname
p942
Vei
p943
sVvalue
p944
VXXLzWK2wLMWwjwSa04yoBQ
p945
sa(dp946
Vname
p947
Vyv
p948
sVvalue
p949
g64
sa(dp950
Vname
p951
Vasync
p952
sVvalue
p953
Viu:1,ved:0ahUKEwjt0tqei6nTAhVF2IMKHZopA1UQo0EIswM,_id:irc_async,_pms:qs
p954
sasVheaders
p955
(lp956
sVheadersSize
p957
I752
sVbodySize
p958
I0
sVmethod
p959
VGET
p960
sVhttpVersion
p961
VHTTP/1.1
p962
ssVtimings
p963
(dp964
Vcomment
p965
g4
sVreceive
p966
I4
sVsend
p967
I0
sVssl
p968
I-1
sVconnect
p969
I-1
sVdns
p970
I-1
sVwait
p971
I51
sVblocked
p972
I-1
ssVtime
p973
I56
sVresponse
p974
(dp975
Vstatus
p976
I200
sVcomment
p977
g4
sVcookies
p978
(lp979
sVstatusText
p980
VOK
p981
sVcontent
p982
(dp983
VmimeType
p984
Vtext/html; charset=UTF-8
p985
sVcomment
p986
g4
sVsize
p987
I0
ssVheaders
p988
(lp989
sVheadersSize
p990
I383
sVredirectURL
p991
g4
sVbodySize
p992
I7790
sVhttpVersion
p993
VHTTP/1.1
p994
ssa(dp995
Vcomment
p996
g4
sVserverIPAddress
p997
V216.58.216.196
p998
sVpageref
p999
VNew York Knicks
p1000
sVstartedDateTime
p1001
V2017-04-16T08:32:17.405-05:00
p1002
sVcache
p1003
(dp1004
sVrequest
p1005
(dp1006
Vcomment
p1007
g4
sVcookies
p1008
(lp1009
sVurl
p1010
Vhttps://www.google.com/async/ampfp?vet=10ahUKEwjt0tqei6nTAhVF2IMKHZopA1UQtZoBCLED..i&ei=XXLzWK2wLMWwjwSa04yoBQ&yv=2&async=_id:ampfp-async,_pms:qs
p1011
sVqueryString
p1012
(lp1013
(dp1014
Vname
p1015
Vvet
p1016
sVvalue
p1017
V10ahUKEwjt0tqei6nTAhVF2IMKHZopA1UQtZoBCLED..i
p1018
sa(dp1019
Vname
p1020
Vei
p1021
sVvalue
p1022
VXXLzWK2wLMWwjwSa04yoBQ
p1023
sa(dp1024
Vname
p1025
Vyv
p1026
sVvalue
p1027
g64
sa(dp1028
Vname
p1029
Vasync
p1030
sVvalue
p1031
V_id:ampfp-async,_pms:qs
p1032
sasVheaders
p1033
(lp1034
sVheadersSize
p1035
I662
sVbodySize
p1036
I0
sVmethod
p1037
VGET
p1038
sVhttpVersion
p1039
VHTTP/1.1
p1040
ssVtimings
p1041
(dp1042
Vcomment
p1043
g4
sVreceive
p1044
I2
sVsend
p1045
I0
sVssl
p1046
I-1
sVconnect
p1047
I-1
sVdns
p1048
I-1
sVwait
p1049
I42
sVblocked
p1050
I-1
ssVtime
p1051
I44
sVresponse
p1052
(dp1053
Vstatus
p1054
I200
sVcomment
p1055
g4
sVcookies
p1056
(lp1057
sVstatusText
p1058
VOK
p1059
sVcontent
p1060
(dp1061
VmimeType
p1062
Vtext/html; charset=UTF-8
p1063
sVcomment
p1064
g4
sVsize
p1065
I0
ssVheaders
p1066
(lp1067
sVheadersSize
p1068
I383
sVredirectURL
p1069
g4
sVbodySize
p1070
I4521
sVhttpVersion
p1071
VHTTP/1.1
p1072
ssa(dp1073
Vcomment
p1074
g4
sVserverIPAddress
p1075
V216.58.216.193
p1076
sVpageref
p1077
VNew York Knicks
p1078
sVstartedDateTime
p1079
V2017-04-16T08:32:17.406-05:00
p1080
sVcache
p1081
(dp1082
sVrequest
p1083
(dp1084
Vcomment
p1085
g4
sVcookies
p1086
(lp1087
sVurl
p1088
Vhttps://cdn.ampproject.org/preconnect.gif?0.09901097996721131
p1089
sVqueryString
p1090
(lp1091
(dp1092
Vname
p1093
V0.09901097996721131
p1094
sVvalue
p1095
g4
sasVheaders
p1096
(lp1097
sVheadersSize
p1098
I376
sVbodySize
p1099
I0
sVmethod
p1100
VGET
p1101
sVhttpVersion
p1102
VHTTP/1.1
p1103
ssVtimings
p1104
(dp1105
Vcomment
p1106
g4
sVreceive
p1107
I0
sVsend
p1108
I0
sVssl
p1109
I-1
sVconnect
p1110
I-1
sVdns
p1111
I-1
sVwait
p1112
I38
sVblocked
p1113
I-1
ssVtime
p1114
I38
sVresponse
p1115
(dp1116
Vstatus
p1117
I200
sVcomment
p1118
g4
sVcookies
p1119
(lp1120
sVstatusText
p1121
VOK
p1122
sVcontent
p1123
(dp1124
VmimeType
p1125
Vimage/gif
p1126
sVcomment
p1127
g4
sVsize
p1128
I0
ssVheaders
p1129
(lp1130
sVheadersSize
p1131
I826
sVredirectURL
p1132
g4
sVbodySize
p1133
I37
sVhttpVersion
p1134
VHTTP/1.1
p1135
ssa(dp1136
Vcomment
p1137
g4
sVserverIPAddress
p1138
V216.58.216.196
p1139
sVpageref
p1140
VNew York Knicks
p1141
sVstartedDateTime
p1142
V2017-04-16T08:32:17.700-05:00
p1143
sVcache
p1144
(dp1145
sVrequest
p1146
(dp1147
Vcomment
p1148
g4
sVcookies
p1149
(lp1150
sVurl
p1151
Vhttps://www.google.com/gen_204?s=web&atyp=csi&ei=XXLzWK2wLMWwjwSa04yoBQ&imc=118&imn=118&imp=34&adh=&xjs=init.50.16.sb_mob.38.dvl.3.async.2.lr.2.c.1&ima=21&rt=prt.1422,iml.1599,xjsls.1423,qiml.1681,dcl.1491,xjses.1693,xjsee.1908,xjs.1909,ol.2801,aft.1599,wsrt.190,cst.0,dnst.0,rqst.1188,rspt.1190,rqstt.46,unt.5,cstt.5,dit.1636
p1152
sVqueryString
p1153
(lp1154
(dp1155
Vname
p1156
g57
sVvalue
p1157
Vweb
p1158
sa(dp1159
Vname
p1160
Vatyp
p1161
sVvalue
p1162
Vcsi
p1163
sa(dp1164
Vname
p1165
Vei
p1166
sVvalue
p1167
VXXLzWK2wLMWwjwSa04yoBQ
p1168
sa(dp1169
Vname
p1170
Vimc
p1171
sVvalue
p1172
V118
p1173
sa(dp1174
Vname
p1175
Vimn
p1176
sVvalue
p1177
V118
p1178
sa(dp1179
Vname
p1180
Vimp
p1181
sVvalue
p1182
V34
p1183
sa(dp1184
Vname
p1185
Vadh
p1186
sVvalue
p1187
g4
sa(dp1188
Vname
p1189
Vxjs
p1190
sVvalue
p1191
Vinit.50.16.sb_mob.38.dvl.3.async.2.lr.2.c.1
p1192
sa(dp1193
Vname
p1194
Vima
p1195
sVvalue
p1196
V21
p1197
sa(dp1198
Vname
p1199
Vrt
p1200
sVvalue
p1201
Vprt.1422,iml.1599,xjsls.1423,qiml.1681,dcl.1491,xjses.1693,xjsee.1908,xjs.1909,ol.2801,aft.1599,wsrt.190,cst.0,dnst.0,rqst.1188,rspt.1190,rqstt.46,unt.5,cstt.5,dit.1636
p1202
sasVheaders
p1203
(lp1204
sVheadersSize
p1205
I843
sVbodySize
p1206
I0
sVmethod
p1207
VGET
p1208
sVhttpVersion
p1209
VHTTP/1.1
p1210
ssVtimings
p1211
(dp1212
Vcomment
p1213
g4
sVreceive
p1214
I0
sVsend
p1215
I0
sVssl
p1216
I-1
sVconnect
p1217
I-1
sVdns
p1218
I-1
sVwait
p1219
I111
sVblocked
p1220
I-1
ssVtime
p1221
I111
sVresponse
p1222
(dp1223
Vstatus
p1224
I204
sVcomment
p1225
g4
sVcookies
p1226
(lp1227
sVstatusText
p1228
VNo Content
p1229
sVcontent
p1230
(dp1231
VmimeType
p1232
Vtext/html; charset=UTF-8
p1233
sVcomment
p1234
g4
sVsize
p1235
I0
ssVheaders
p1236
(lp1237
sVheadersSize
p1238
I248
sVredirectURL
p1239
g4
sVbodySize
p1240
I0
sVhttpVersion
p1241
VHTTP/1.1
p1242
ssa(dp1243
Vcomment
p1244
g4
sVserverIPAddress
p1245
V216.58.216.196
p1246
sVpageref
p1247
VNew York Knicks
p1248
sVstartedDateTime
p1249
V2017-04-16T08:32:17.822-05:00
p1250
sVcache
p1251
(dp1252
sVrequest
p1253
(dp1254
Vcomment
p1255
g4
sVcookies
p1256
(lp1257
sVurl
p1258
Vhttps://www.google.com/async/log_amp_item_set?vet=10ahUKEwiI4f2fi6nTAhWMx4MKHcBuBAIQooQBCAE..i&ei=XXLzWK2wLMWwjwSa04yoBQ&yv=2&async=num_items:10,_fmt:jspb
p1259
sVqueryString
p1260
(lp1261
(dp1262
Vname
p1263
Vvet
p1264
sVvalue
p1265
V10ahUKEwiI4f2fi6nTAhWMx4MKHcBuBAIQooQBCAE..i
p1266
sa(dp1267
Vname
p1268
Vei
p1269
sVvalue
p1270
VXXLzWK2wLMWwjwSa04yoBQ
p1271
sa(dp1272
Vname
p1273
Vyv
p1274
sVvalue
p1275
g64
sa(dp1276
Vname
p1277
Vasync
p1278
sVvalue
p1279
Vnum_items:10,_fmt:jspb
p1280
sasVheaders
p1281
(lp1282
sVheadersSize
p1283
I671
sVbodySize
p1284
I0
sVmethod
p1285
VGET
p1286
sVhttpVersion
p1287
VHTTP/1.1
p1288
ssVtimings
p1289
(dp1290
Vcomment
p1291
g4
sVreceive
p1292
I0
sVsend
p1293
I0
sVssl
p1294
I21
sVconnect
p1295
I54
sVdns
p1296
I0
sVwait
p1297
I35
sVblocked
p1298
I0
ssVtime
p1299
I89
sVresponse
p1300
(dp1301
Vstatus
p1302
I200
sVcomment
p1303
g4
sVcookies
p1304
(lp1305
sVstatusText
p1306
VOK
p1307
sVcontent
p1308
(dp1309
VmimeType
p1310
Vapplication/json; charset=UTF-8
p1311
sVcomment
p1312
g4
sVsize
p1313
I0
ssVheaders
p1314
(lp1315
sVheadersSize
p1316
I417
sVredirectURL
p1317
g4
sVbodySize
p1318
I183
sVhttpVersion
p1319
VHTTP/1.1
p1320
ssa(dp1321
Vcomment
p1322
g4
sVserverIPAddress
p1323
V216.58.216.196
p1324
sVpageref
p1325
VNew York Knicks
p1326
sVstartedDateTime
p1327
V2017-04-16T08:32:17.822-05:00
p1328
sVcache
p1329
(dp1330
sVrequest
p1331
(dp1332
Vcomment
p1333
g4
sVcookies
p1334
(lp1335
sVurl
p1336
Vhttps://www.google.com/gen_204?atyp=i&ct=ampipf&cad=&ampve&ei=XXLzWK2wLMWwjwSa04yoBQ&zx=1492349537775
p1337
sVqueryString
p1338
(lp1339
(dp1340
Vname
p1341
Vatyp
p1342
sVvalue
p1343
g30
sa(dp1344
Vname
p1345
Vct
p1346
sVvalue
p1347
Vampipf
p1348
sa(dp1349
Vname
p1350
Vcad
p1351
sVvalue
p1352
g4
sa(dp1353
Vname
p1354
Vampve
p1355
sVvalue
p1356
g4
sa(dp1357
Vname
p1358
Vei
p1359
sVvalue
p1360
VXXLzWK2wLMWwjwSa04yoBQ
p1361
sa(dp1362
Vname
p1363
Vzx
p1364
sVvalue
p1365
V1492349537775
p1366
sasVheaders
p1367
(lp1368
sVheadersSize
p1369
I618
sVbodySize
p1370
I0
sVmethod
p1371
VGET
p1372
sVhttpVersion
p1373
VHTTP/1.1
p1374
ssVtimings
p1375
(dp1376
Vcomment
p1377
g4
sVreceive
p1378
I0
sVsend
p1379
I0
sVssl
p1380
I21
sVconnect
p1381
I45
sVdns
p1382
I0
sVwait
p1383
I34
sVblocked
p1384
I0
ssVtime
p1385
I79
sVresponse
p1386
(dp1387
Vstatus
p1388
I204
sVcomment
p1389
g4
sVcookies
p1390
(lp1391
sVstatusText
p1392
VNo Content
p1393
sVcontent
p1394
(dp1395
VmimeType
p1396
Vtext/html; charset=UTF-8
p1397
sVcomment
p1398
g4
sVsize
p1399
I0
ssVheaders
p1400
(lp1401
sVheadersSize
p1402
I248
sVredirectURL
p1403
g4
sVbodySize
p1404
I0
sVhttpVersion
p1405
VHTTP/1.1
p1406
ssa(dp1407
Vcomment
p1408
g4
sVserverIPAddress
p1409
V216.58.216.193
p1410
sVpageref
p1411
VNew York Knicks
p1412
sVstartedDateTime
p1413
V2017-04-16T08:32:18.459-05:00
p1414
sVcache
p1415
(dp1416
sVrequest
p1417
(dp1418
Vcomment
p1419
g4
sVcookies
p1420
(lp1421
sVurl
p1422
Vhttps://amp-businessinsider-com.cdn.ampproject.org/v/s/amp.businessinsider.com/phil-jackson-knicks-disaster-2017-4?amp_js_v=9
p1423
sVqueryString
p1424
(lp1425
(dp1426
Vname
p1427
Vamp_js_v
p1428
sVvalue
p1429
V9
p1430
sasVheaders
p1431
(lp1432
sVheadersSize
p1433
I530
sVbodySize
p1434
I0
sVmethod
p1435
VGET
p1436
sVhttpVersion
p1437
VHTTP/1.1
p1438
ssVtimings
p1439
(dp1440
Vcomment
p1441
g4
sVreceive
p1442
I0
sVsend
p1443
I0
sVssl
p1444
I621
sVconnect
p1445
I639
sVdns
p1446
I38
sVwait
p1447
I67
sVblocked
p1448
I0
ssVtime
p1449
I746
sVresponse
p1450
(dp1451
Vstatus
p1452
I200
sVcomment
p1453
g4
sVcookies
p1454
(lp1455
sVstatusText
p1456
VOK
p1457
sVcontent
p1458
(dp1459
VmimeType
p1460
Vtext/html
p1461
sVcomment
p1462
g4
sVsize
p1463
I0
ssVheaders
p1464
(lp1465
sVheadersSize
p1466
I861
sVredirectURL
p1467
g4
sVbodySize
p1468
I8895
sVhttpVersion
p1469
VHTTP/1.1
p1470
ssa(dp1471
Vcomment
p1472
g4
sVserverIPAddress
p1473
V216.58.216.193
p1474
sVpageref
p1475
VNew York Knicks
p1476
sVstartedDateTime
p1477
V2017-04-16T08:32:18.668-05:00
p1478
sVcache
p1479
(dp1480
sVrequest
p1481
(dp1482
Vcomment
p1483
g4
sVcookies
p1484
(lp1485
sVurl
p1486
Vhttps://amp-businessinsider-com.cdn.ampproject.org/i/s/amp.businessinsider.com/images/56e8295152bcd01d7b8b62f3-1136-568.png
p1487
sVqueryString
p1488
(lp1489
sVheaders
p1490
(lp1491
sVheadersSize
p1492
I540
sVbodySize
p1493
I0
sVmethod
p1494
VGET
p1495
sVhttpVersion
p1496
VHTTP/1.1
p1497
ssVtimings
p1498
(dp1499
Vcomment
p1500
g4
sVreceive
p1501
I28
sVsend
p1502
I0
sVssl
p1503
I-1
sVconnect
p1504
I-1
sVdns
p1505
I-1
sVwait
p1506
I32
sVblocked
p1507
I-1
ssVtime
p1508
I61
sVresponse
p1509
(dp1510
Vstatus
p1511
I200
sVcomment
p1512
g4
sVcookies
p1513
(lp1514
sVstatusText
p1515
VOK
p1516
sVcontent
p1517
(dp1518
VmimeType
p1519
Vimage/png
p1520
sVcomment
p1521
g4
sVsize
p1522
I0
ssVheaders
p1523
(lp1524
sVheadersSize
p1525
I823
sVredirectURL
p1526
g4
sVbodySize
p1527
I41999
sVhttpVersion
p1528
VHTTP/1.1
p1529
ssa(dp1530
Vcomment
p1531
g4
sVserverIPAddress
p1532
V216.58.216.193
p1533
sVpageref
p1534
VNew York Knicks
p1535
sVstartedDateTime
p1536
V2017-04-16T08:32:19.094-05:00
p1537
sVcache
p1538
(dp1539
sVrequest
p1540
(dp1541
Vcomment
p1542
g4
sVcookies
p1543
(lp1544
sVurl
p1545
Vhttps://usdev--amp--static-businessinsider-com.cdn.ampproject.org/ii/w680/s/usdev-amp-static.businessinsider.com/images/BI_ad_fallback_320x50.jpg
p1546
sVqueryString
p1547
(lp1548
sVheaders
p1549
(lp1550
sVheadersSize
p1551
I612
sVbodySize
p1552
I0
sVmethod
p1553
VGET
p1554
sVhttpVersion
p1555
VHTTP/1.1
p1556
ssVtimings
p1557
(dp1558
Vcomment
p1559
g4
sVreceive
p1560
I0
sVsend
p1561
I0
sVssl
p1562
I358
sVconnect
p1563
I374
sVdns
p1564
I41
sVwait
p1565
I22
sVblocked
p1566
I0
ssVtime
p1567
I438
sVresponse
p1568
(dp1569
Vstatus
p1570
I304
sVcomment
p1571
g4
sVcookies
p1572
(lp1573
sVstatusText
p1574
VNot Modified
p1575
sVcontent
p1576
(dp1577
VmimeType
p1578
Vimage/png
p1579
sVcomment
p1580
g4
sVsize
p1581
I0
ssVheaders
p1582
(lp1583
sVheadersSize
p1584
I344
sVredirectURL
p1585
g4
sVbodySize
p1586
I0
sVhttpVersion
p1587
VHTTP/1.1
p1588
ssa(dp1589
Vcomment
p1590
g4
sVserverIPAddress
p1591
V216.58.216.196
p1592
sVpageref
p1593
VNew York Knicks
p1594
sVstartedDateTime
p1595
V2017-04-16T08:32:19.551-05:00
p1596
sVcache
p1597
(dp1598
sVrequest
p1599
(dp1600
Vcomment
p1601
g4
sVcookies
p1602
(lp1603
sVurl
p1604
Vhttps://www.google.com/gen_204?atyp=i&ct=slh&cad=&ei=THLzWMbOAoOzjwTm4pqYDA&m=V&t=C&s=1&v=2&pv=0.5578437628772773&me=1:1492349519402,x:3,V,0,0,1280,944:0,N,1,THLzWMbOAoOzjwTm4pqYDA:0,R,1,24,0,155,1197,506:0,R,1,25,0,155,1197,504:0,R,1,79,8,669,1264,309:0,R,1,80,8,713,1264,265:0,R,1,81,0,713,1280,285:2,B,4520:14601,e,U&zx=1492349539349
p1605
sVqueryString
p1606
(lp1607
(dp1608
Vname
p1609
Vatyp
p1610
sVvalue
p1611
g30
sa(dp1612
Vname
p1613
Vct
p1614
sVvalue
p1615
Vslh
p1616
sa(dp1617
Vname
p1618
Vcad
p1619
sVvalue
p1620
g4
sa(dp1621
Vname
p1622
Vei
p1623
sVvalue
p1624
VTHLzWMbOAoOzjwTm4pqYDA
p1625
sa(dp1626
Vname
p1627
g47
sVvalue
p1628
g49
sa(dp1629
Vname
p1630
g52
sVvalue
p1631
g54
sa(dp1632
Vname
p1633
g57
sVvalue
p1634
g59
sa(dp1635
Vname
p1636
g62
sVvalue
p1637
g64
sa(dp1638
Vname
p1639
Vpv
p1640
sVvalue
p1641
V0.5578437628772773
p1642
sa(dp1643
Vname
p1644
Vme
p1645
sVvalue
p1646
V1:1492349519402,x:3,V,0,0,1280,944:0,N,1,THLzWMbOAoOzjwTm4pqYDA:0,R,1,24,0,155,1197,506:0,R,1,25,0,155,1197,504:0,R,1,79,8,669,1264,309:0,R,1,80,8,713,1264,265:0,R,1,81,0,713,1280,285:2,B,4520:14601,e,U
p1647
sa(dp1648
Vname
p1649
Vzx
p1650
sVvalue
p1651
V1492349539349
p1652
sasVheaders
p1653
(lp1654
sVheadersSize
p1655
I853
sVbodySize
p1656
I0
sVmethod
p1657
VGET
p1658
sVhttpVersion
p1659
VHTTP/1.1
p1660
ssVtimings
p1661
(dp1662
Vcomment
p1663
g4
sVreceive
p1664
I0
sVsend
p1665
I0
sVssl
p1666
I-1
sVconnect
p1667
I-1
sVdns
p1668
I-1
sVwait
p1669
I26
sVblocked
p1670
I-1
ssVtime
p1671
I26
sVresponse
p1672
(dp1673
Vstatus
p1674
I204
sVcomment
p1675
g4
sVcookies
p1676
(lp1677
sVstatusText
p1678
VNo Content
p1679
sVcontent
p1680
(dp1681
VmimeType
p1682
Vtext/html; charset=UTF-8
p1683
sVcomment
p1684
g4
sVsize
p1685
I0
ssVheaders
p1686
(lp1687
sVheadersSize
p1688
I248
sVredirectURL
p1689
g4
sVbodySize
p1690
I0
sVhttpVersion
p1691
VHTTP/1.1
p1692
ssa(dp1693
Vcomment
p1694
g4
sVserverIPAddress
p1695
V216.58.216.193
p1696
sVpageref
p1697
VNew York Knicks
p1698
sVstartedDateTime
p1699
V2017-04-16T08:32:19.573-05:00
p1700
sVcache
p1701
(dp1702
sVrequest
p1703
(dp1704
Vcomment
p1705
g4
sVcookies
p1706
(lp1707
sVurl
p1708
Vhttps://amp--static-businessinsider-com.cdn.ampproject.org/r/s/amp-static.businessinsider.com/fonts/FaktConPro-SemiBold.woff
p1709
sVqueryString
p1710
(lp1711
sVheaders
p1712
(lp1713
sVheadersSize
p1714
I705
sVbodySize
p1715
I0
sVmethod
p1716
VGET
p1717
sVhttpVersion
p1718
VHTTP/1.1
p1719
ssVtimings
p1720
(dp1721
Vcomment
p1722
g4
sVreceive
p1723
I0
sVsend
p1724
I0
sVssl
p1725
I937
sVconnect
p1726
I956
sVdns
p1727
I47
sVwait
p1728
I32
sVblocked
p1729
I0
ssVtime
p1730
I1036
sVresponse
p1731
(dp1732
Vstatus
p1733
I304
sVcomment
p1734
g4
sVcookies
p1735
(lp1736
sVstatusText
p1737
VNot Modified
p1738
sVcontent
p1739
(dp1740
VmimeType
p1741
Vapplication/font-woff
p1742
sVcomment
p1743
g4
sVsize
p1744
I0
ssVheaders
p1745
(lp1746
sVheadersSize
p1747
I356
sVredirectURL
p1748
g4
sVbodySize
p1749
I0
sVhttpVersion
p1750
VHTTP/1.1
p1751
ssa(dp1752
Vcomment
p1753
g4
sVserverIPAddress
p1754
V216.58.216.193
p1755
sVpageref
p1756
VNew York Knicks
p1757
sVstartedDateTime
p1758
V2017-04-16T08:32:19.579-05:00
p1759
sVcache
p1760
(dp1761
sVrequest
p1762
(dp1763
Vcomment
p1764
g4
sVcookies
p1765
(lp1766
sVurl
p1767
Vhttps://amp--static-businessinsider-com.cdn.ampproject.org/i/s/amp-static.businessinsider.com/images/BI_logo_wide_white.png
p1768
sVqueryString
p1769
(lp1770
sVheaders
p1771
(lp1772
sVheadersSize
p1773
I590
sVbodySize
p1774
I0
sVmethod
p1775
VGET
p1776
sVhttpVersion
p1777
VHTTP/1.1
p1778
ssVtimings
p1779
(dp1780
Vcomment
p1781
g4
sVreceive
p1782
I0
sVsend
p1783
I0
sVssl
p1784
I934
sVconnect
p1785
I960
sVdns
p1786
I67
sVwait
p1787
I23
sVblocked
p1788
I0
ssVtime
p1789
I1051
sVresponse
p1790
(dp1791
Vstatus
p1792
I304
sVcomment
p1793
g4
sVcookies
p1794
(lp1795
sVstatusText
p1796
VNot Modified
p1797
sVcontent
p1798
(dp1799
VmimeType
p1800
Vimage/png
p1801
sVcomment
p1802
g4
sVsize
p1803
I0
ssVheaders
p1804
(lp1805
sVheadersSize
p1806
I344
sVredirectURL
p1807
g4
sVbodySize
p1808
I0
sVhttpVersion
p1809
VHTTP/1.1
p1810
ssa(dp1811
Vcomment
p1812
g4
sVserverIPAddress
p1813
V216.58.216.193
p1814
sVpageref
p1815
VNew York Knicks
p1816
sVstartedDateTime
p1817
V2017-04-16T08:32:19.579-05:00
p1818
sVcache
p1819
(dp1820
sVrequest
p1821
(dp1822
Vcomment
p1823
g4
sVcookies
p1824
(lp1825
sVurl
p1826
Vhttps://amp--static-businessinsider-com.cdn.ampproject.org/i/s/amp-static.businessinsider.com/images/share_buttons_2x.png
p1827
sVqueryString
p1828
(lp1829
sVheaders
p1830
(lp1831
sVheadersSize
p1832
I588
sVbodySize
p1833
I0
sVmethod
p1834
VGET
p1835
sVhttpVersion
p1836
VHTTP/1.1
p1837
ssVtimings
p1838
(dp1839
Vcomment
p1840
g4
sVreceive
p1841
I0
sVsend
p1842
I0
sVssl
p1843
I937
sVconnect
p1844
I963
sVdns
p1845
I65
sVwait
p1846
I25
sVblocked
p1847
I0
ssVtime
p1848
I1055
sVresponse
p1849
(dp1850
Vstatus
p1851
I304
sVcomment
p1852
g4
sVcookies
p1853
(lp1854
sVstatusText
p1855
VNot Modified
p1856
sVcontent
p1857
(dp1858
VmimeType
p1859
Vimage/png
p1860
sVcomment
p1861
g4
sVsize
p1862
I0
ssVheaders
p1863
(lp1864
sVheadersSize
p1865
I344
sVredirectURL
p1866
g4
sVbodySize
p1867
I0
sVhttpVersion
p1868
VHTTP/1.1
p1869
ssa(dp1870
Vcomment
p1871
g4
sVserverIPAddress
p1872
V216.58.216.193
p1873
sVpageref
p1874
VNew York Knicks
p1875
sVstartedDateTime
p1876
V2017-04-16T08:32:19.582-05:00
p1877
sVcache
p1878
(dp1879
sVrequest
p1880
(dp1881
Vcomment
p1882
g4
sVcookies
p1883
(lp1884
sVurl
p1885
Vhttps://amp--static-businessinsider-com.cdn.ampproject.org/r/s/amp-static.businessinsider.com/fonts/FaktSmConPro-Normal.woff
p1886
sVqueryString
p1887
(lp1888
sVheaders
p1889
(lp1890
sVheadersSize
p1891
I705
sVbodySize
p1892
I0
sVmethod
p1893
VGET
p1894
sVhttpVersion
p1895
VHTTP/1.1
p1896
ssVtimings
p1897
(dp1898
Vcomment
p1899
g4
sVreceive
p1900
I0
sVsend
p1901
I0
sVssl
p1902
I942
sVconnect
p1903
I967
sVdns
p1904
I45
sVwait
p1905
I34
sVblocked
p1906
I0
ssVtime
p1907
I1047
sVresponse
p1908
(dp1909
Vstatus
p1910
I304
sVcomment
p1911
g4
sVcookies
p1912
(lp1913
sVstatusText
p1914
VNot Modified
p1915
sVcontent
p1916
(dp1917
VmimeType
p1918
Vapplication/font-woff
p1919
sVcomment
p1920
g4
sVsize
p1921
I0
ssVheaders
p1922
(lp1923
sVheadersSize
p1924
I356
sVredirectURL
p1925
g4
sVbodySize
p1926
I0
sVhttpVersion
p1927
VHTTP/1.1
p1928
ssasVversion
p1929
V1.2
p1930
sVpages
p1931
(lp1932
(dp1933
VpageTimings
p1934
(dp1935
Vcomment
p1936
g4
ssVcomment
p1937
g4
sVtitle
p1938
VNew York Knicks
p1939
sVid
p1940
VNew York Knicks
p1941
sVstartedDateTime
p1942
V2017-04-16T08:32:14.000-05:00
p1943
sasVcreator
p1944
(dp1945
Vcomment
p1946
g4
sVversion
p1947
V2.1.4
p1948
sVname
p1949
VBrowserMob Proxy
p1950
sss.