(dp0
Vlog
p1
(dp2
Vcomment
p3
V
p4
sVentries
p5
(lp6
(dp7
Vcomment
p8
g4
sVserverIPAddress
p9
V216.58.216.196
p10
sVpageref
p11
VThomas Gibson
p12
sVstartedDateTime
p13
V2017-04-16T08:06:10.137-05:00
p14
sVcache
p15
(dp16
sVrequest
p17
(dp18
Vcomment
p19
g4
sVcookies
p20
(lp21
sVurl
p22
Vhttps://www.google.com/gen_204?atyp=i&ct=slh&cad=&ei=LGzzWICSMITBjwTwqauABw&m=V&t=C&s=1&v=2&pv=0.8744972322685749&me=1:1492347951640,x:1,V,0,0,1280,944:0,N,1,LGzzWICSMITBjwTwqauABw:0,R,1,24,8,155,1249,1088:0,R,1,25,8,155,1249,1088:0,R,1,29,8,168,1249,40:0,R,1,46,8,267,1249,178:0,R,1,49,0,283,1265,197:0,R,1,89,8,462,1249,40:0,R,1,90,24,462,1217,40:0,R,1,100,8,518,1249,20:0,R,1,112,8,558,1249,310:0,R,1,113,0,603,1265,285:0,R,1,145,8,913,1249,263:0,R,1,146,0,913,1265,283:2,B,4338:18492,e,U&zx=1492347970135
p23
sVqueryString
p24
(lp25
(dp26
Vname
p27
Vatyp
p28
sVvalue
p29
Vi
p30
sa(dp31
Vname
p32
Vct
p33
sVvalue
p34
Vslh
p35
sa(dp36
Vname
p37
Vcad
p38
sVvalue
p39
g4
sa(dp40
Vname
p41
Vei
p42
sVvalue
p43
VLGzzWICSMITBjwTwqauABw
p44
sa(dp45
Vname
p46
Vm
p47
sVvalue
p48
VV
p49
sa(dp50
Vname
p51
Vt
p52
sVvalue
p53
VC
p54
sa(dp55
Vname
p56
Vs
p57
sVvalue
p58
V1
p59
sa(dp60
Vname
p61
Vv
p62
sVvalue
p63
V2
p64
sa(dp65
Vname
p66
Vpv
p67
sVvalue
p68
V0.8744972322685749
p69
sa(dp70
Vname
p71
Vme
p72
sVvalue
p73
V1:1492347951640,x:1,V,0,0,1280,944:0,N,1,LGzzWICSMITBjwTwqauABw:0,R,1,24,8,155,1249,1088:0,R,1,25,8,155,1249,1088:0,R,1,29,8,168,1249,40:0,R,1,46,8,267,1249,178:0,R,1,49,0,283,1265,197:0,R,1,89,8,462,1249,40:0,R,1,90,24,462,1217,40:0,R,1,100,8,518,1249,20:0,R,1,112,8,558,1249,310:0,R,1,113,0,603,1265,285:0,R,1,145,8,913,1249,263:0,R,1,146,0,913,1265,283:2,B,4338:18492,e,U
p74
sa(dp75
Vname
p76
Vzx
p77
sVvalue
p78
V1492347970135
p79
sasVheaders
p80
(lp81
sVheadersSize
p82
I1025
sVbodySize
p83
I0
sVmethod
p84
VGET
p85
sVhttpVersion
p86
VHTTP/1.1
p87
ssVtimings
p88
(dp89
Vcomment
p90
g4
sVreceive
p91
I0
sVsend
p92
I0
sVssl
p93
I-1
sVconnect
p94
I-1
sVdns
p95
I-1
sVwait
p96
I0
sVblocked
p97
I-1
ssVtime
p98
I0
sVresponse
p99
(dp100
Vstatus
p101
I0
sVcomment
p102
g4
sVcookies
p103
(lp104
sV_error
p105
VNo response received
p106
sVstatusText
p107
g4
sVcontent
p108
(dp109
VmimeType
p110
g4
sVcomment
p111
g4
sVsize
p112
I0
ssVheaders
p113
(lp114
sVheadersSize
p115
I-1
sVredirectURL
p116
g4
sVbodySize
p117
I-1
sVhttpVersion
p118
Vunknown
p119
ssa(dp120
Vcomment
p121
g4
sVserverIPAddress
p122
V216.58.216.196
p123
sVpageref
p124
VThomas Gibson
p125
sVstartedDateTime
p126
V2017-04-16T08:06:10.140-05:00
p127
sVcache
p128
(dp129
sVrequest
p130
(dp131
Vcomment
p132
g4
sVcookies
p133
(lp134
sVurl
p135
Vhttp://www.google.com/
p136
sVqueryString
p137
(lp138
sVheaders
p139
(lp140
sVheadersSize
p141
I613
sVbodySize
p142
I0
sVmethod
p143
VGET
p144
sVhttpVersion
p145
VHTTP/1.1
p146
ssVtimings
p147
(dp148
Vcomment
p149
g4
sVreceive
p150
I0
sVsend
p151
I0
sVssl
p152
I-1
sVconnect
p153
I-1
sVdns
p154
I-1
sVwait
p155
I39
sVblocked
p156
I-1
ssVtime
p157
I40
sVresponse
p158
(dp159
Vstatus
p160
I302
sVcomment
p161
g4
sVcookies
p162
(lp163
sVstatusText
p164
VFound
p165
sVcontent
p166
(dp167
VmimeType
p168
Vtext/html; charset=UTF-8
p169
sVcomment
p170
g4
sVsize
p171
I0
ssVheaders
p172
(lp173
sVheadersSize
p174
I609
sVredirectURL
p175
Vhttps://www.google.com/?gws_rd=ssl
p176
sVbodySize
p177
I231
sVhttpVersion
p178
VHTTP/1.1
p179
ssa(dp180
Vcomment
p181
g4
sVserverIPAddress
p182
V216.58.216.196
p183
sVpageref
p184
VThomas Gibson
p185
sVstartedDateTime
p186
V2017-04-16T08:06:10.186-05:00
p187
sVcache
p188
(dp189
sVrequest
p190
(dp191
Vcomment
p192
g4
sVcookies
p193
(lp194
sVurl
p195
Vhttps://www.google.com/?gws_rd=ssl
p196
sVqueryString
p197
(lp198
(dp199
Vname
p200
Vgws_rd
p201
sVvalue
p202
Vssl
p203
sasVheaders
p204
(lp205
sVheadersSize
p206
I607
sVbodySize
p207
I0
sVmethod
p208
VGET
p209
sVhttpVersion
p210
VHTTP/1.1
p211
ssVtimings
p212
(dp213
Vcomment
p214
g4
sVreceive
p215
I20
sVsend
p216
I0
sVssl
p217
I-1
sVconnect
p218
I-1
sVdns
p219
I-1
sVwait
p220
I95
sVblocked
p221
I-1
ssVtime
p222
I116
sVresponse
p223
(dp224
Vstatus
p225
I200
sVcomment
p226
g4
sVcookies
p227
(lp228
sVstatusText
p229
VOK
p230
sVcontent
p231
(dp232
VmimeType
p233
Vtext/html; charset=UTF-8
p234
sVcomment
p235
g4
sVsize
p236
I0
ssVheaders
p237
(lp238
sVheadersSize
p239
I721
sVredirectURL
p240
g4
sVbodySize
p241
I34291
sVhttpVersion
p242
VHTTP/1.1
p243
ssa(dp244
Vcomment
p245
g4
sVserverIPAddress
p246
V216.58.216.196
p247
sVpageref
p248
VThomas Gibson
p249
sVstartedDateTime
p250
V2017-04-16T08:06:10.597-05:00
p251
sVcache
p252
(dp253
sVrequest
p254
(dp255
Vcomment
p256
g4
sVcookies
p257
(lp258
sVurl
p259
Vhttps://www.google.com/gen_204?s=mobilewebhp&atyp=csi&ei=QWzzWLOdDKvPjwTci4nICw&imc=1&imn=1&imp=0&adh=&xjs=init.39.12.sb_mob.30.dvl.4.mbsf.2.c.1.jsa.1&ima=1&rt=xjsls.13,prt.14,iml.14,dcl.43,xjses.99,xjsee.226,xjs.227,ol.292,aft.14,wsrt.166,cst.0,dnst.0,rqst.117,rspt.20,rqstt.51,unt.47,cstt.47,dit.207
p260
sVqueryString
p261
(lp262
(dp263
Vname
p264
g57
sVvalue
p265
Vmobilewebhp
p266
sa(dp267
Vname
p268
Vatyp
p269
sVvalue
p270
Vcsi
p271
sa(dp272
Vname
p273
Vei
p274
sVvalue
p275
VQWzzWLOdDKvPjwTci4nICw
p276
sa(dp277
Vname
p278
Vimc
p279
sVvalue
p280
g59
sa(dp281
Vname
p282
Vimn
p283
sVvalue
p284
g59
sa(dp285
Vname
p286
Vimp
p287
sVvalue
p288
V0
p289
sa(dp290
Vname
p291
Vadh
p292
sVvalue
p293
g4
sa(dp294
Vname
p295
Vxjs
p296
sVvalue
p297
Vinit.39.12.sb_mob.30.dvl.4.mbsf.2.c.1.jsa.1
p298
sa(dp299
Vname
p300
Vima
p301
sVvalue
p302
g59
sa(dp303
Vname
p304
Vrt
p305
sVvalue
p306
Vxjsls.13,prt.14,iml.14,dcl.43,xjses.99,xjsee.226,xjs.227,ol.292,aft.14,wsrt.166,cst.0,dnst.0,rqst.117,rspt.20,rqstt.51,unt.47,cstt.47,dit.207
p307
sasVheaders
p308
(lp309
sVheadersSize
p310
I829
sVbodySize
p311
I0
sVmethod
p312
VGET
p313
sVhttpVersion
p314
VHTTP/1.1
p315
ssVtimings
p316
(dp317
Vcomment
p318
g4
sVreceive
p319
I0
sVsend
p320
I0
sVssl
p321
I-1
sVconnect
p322
I-1
sVdns
p323
I-1
sVwait
p324
I25
sVblocked
p325
I-1
ssVtime
p326
I26
sVresponse
p327
(dp328
Vstatus
p329
I204
sVcomment
p330
g4
sVcookies
p331
(lp332
sVstatusText
p333
VNo Content
p334
sVcontent
p335
(dp336
VmimeType
p337
Vtext/html; charset=UTF-8
p338
sVcomment
p339
g4
sVsize
p340
I0
ssVheaders
p341
(lp342
sVheadersSize
p343
I248
sVredirectURL
p344
g4
sVbodySize
p345
I0
sVhttpVersion
p346
VHTTP/1.1
p347
ssa(dp348
Vcomment
p349
g4
sVserverIPAddress
p350
V216.58.216.196
p351
sVpageref
p352
VThomas Gibson
p353
sVstartedDateTime
p354
V2017-04-16T08:06:10.740-05:00
p355
sVcache
p356
(dp357
sVrequest
p358
(dp359
Vcomment
p360
g4
sVcookies
p361
(lp362
sVurl
p363
Vhttps://www.google.com/complete/search?client=mobile-gws-hp&hl=en&gs_rn=64&gs_ri=mobile-gws-hp&sla=1&pfq=tom%20holland&gm=602&cp=0&gs_id=1&xhr=t&q=T&tch=1&ech=1&psi=QWzzWLOdDKvPjwTci4nICw.1492347970486.1
p364
sVqueryString
p365
(lp366
(dp367
Vname
p368
Vclient
p369
sVvalue
p370
Vmobile-gws-hp
p371
sa(dp372
Vname
p373
Vhl
p374
sVvalue
p375
Ven
p376
sa(dp377
Vname
p378
Vgs_rn
p379
sVvalue
p380
V64
p381
sa(dp382
Vname
p383
Vgs_ri
p384
sVvalue
p385
Vmobile-gws-hp
p386
sa(dp387
Vname
p388
Vsla
p389
sVvalue
p390
g59
sa(dp391
Vname
p392
Vpfq
p393
sVvalue
p394
Vtom holland
p395
sa(dp396
Vname
p397
Vgm
p398
sVvalue
p399
V602
p400
sa(dp401
Vname
p402
Vcp
p403
sVvalue
p404
g289
sa(dp405
Vname
p406
Vgs_id
p407
sVvalue
p408
g59
sa(dp409
Vname
p410
Vxhr
p411
sVvalue
p412
g52
sa(dp413
Vname
p414
Vq
p415
sVvalue
p416
VT
p417
sa(dp418
Vname
p419
Vtch
p420
sVvalue
p421
g59
sa(dp422
Vname
p423
Vech
p424
sVvalue
p425
g59
sa(dp426
Vname
p427
Vpsi
p428
sVvalue
p429
VQWzzWLOdDKvPjwTci4nICw.1492347970486.1
p430
sasVheaders
p431
(lp432
sVheadersSize
p433
I731
sVbodySize
p434
I0
sVmethod
p435
VGET
p436
sVhttpVersion
p437
VHTTP/1.1
p438
ssVtimings
p439
(dp440
Vcomment
p441
g4
sVreceive
p442
I0
sVsend
p443
I0
sVssl
p444
I-1
sVconnect
p445
I-1
sVdns
p446
I-1
sVwait
p447
I0
sVblocked
p448
I-1
ssVtime
p449
I0
sVresponse
p450
(dp451
Vstatus
p452
I0
sVcomment
p453
g4
sVcookies
p454
(lp455
sV_error
p456
VNo response received
p457
sVstatusText
p458
g4
sVcontent
p459
(dp460
VmimeType
p461
g4
sVcomment
p462
g4
sVsize
p463
I0
ssVheaders
p464
(lp465
sVheadersSize
p466
I-1
sVredirectURL
p467
g4
sVbodySize
p468
I-1
sVhttpVersion
p469
Vunknown
p470
ssa(dp471
Vcomment
p472
g4
sVserverIPAddress
p473
V216.58.216.196
p474
sVpageref
p475
VThomas Gibson
p476
sVstartedDateTime
p477
V2017-04-16T08:06:10.840-05:00
p478
sVcache
p479
(dp480
sVrequest
p481
(dp482
Vcomment
p483
g4
sVcookies
p484
(lp485
sVurl
p486
Vhttps://www.google.com/search?site=&source=hp&ei=QWzzWLOdDKvPjwTci4nICw&q=Thomas+Gibson&oq=Thomas+Gibson&gs_l=mobile-gws-hp.3...222.269.0.314.13.1.0.0.0.0.0.0..0.0....0...1c.1.64.mobile-gws-hp..13.0.0._3Ios3Mu__0
p487
sVqueryString
p488
(lp489
(dp490
Vname
p491
Vsite
p492
sVvalue
p493
g4
sa(dp494
Vname
p495
Vsource
p496
sVvalue
p497
Vhp
p498
sa(dp499
Vname
p500
Vei
p501
sVvalue
p502
VQWzzWLOdDKvPjwTci4nICw
p503
sa(dp504
Vname
p505
g415
sVvalue
p506
VThomas Gibson
p507
sa(dp508
Vname
p509
Voq
p510
sVvalue
p511
VThomas Gibson
p512
sa(dp513
Vname
p514
Vgs_l
p515
sVvalue
p516
Vmobile-gws-hp.3...222.269.0.314.13.1.0.0.0.0.0.0..0.0....0...1c.1.64.mobile-gws-hp..13.0.0._3Ios3Mu__0
p517
sasVheaders
p518
(lp519
sVheadersSize
p520
I830
sVbodySize
p521
I0
sVmethod
p522
VGET
p523
sVhttpVersion
p524
VHTTP/1.1
p525
ssVtimings
p526
(dp527
Vcomment
p528
g4
sVreceive
p529
I681
sVsend
p530
I0
sVssl
p531
I-1
sVconnect
p532
I-1
sVdns
p533
I-1
sVwait
p534
I94
sVblocked
p535
I-1
ssVtime
p536
I776
sVresponse
p537
(dp538
Vstatus
p539
I200
sVcomment
p540
g4
sVcookies
p541
(lp542
sVstatusText
p543
VOK
p544
sVcontent
p545
(dp546
VmimeType
p547
Vtext/html; charset=UTF-8
p548
sVcomment
p549
g4
sVsize
p550
I0
ssVheaders
p551
(lp552
sVheadersSize
p553
I363
sVredirectURL
p554
g4
sVbodySize
p555
I130621
sVhttpVersion
p556
VHTTP/1.1
p557
ssa(dp558
Vcomment
p559
g4
sVserverIPAddress
p560
V216.58.216.196
p561
sVpageref
p562
VThomas Gibson
p563
sVstartedDateTime
p564
V2017-04-16T08:06:12.114-05:00
p565
sVcache
p566
(dp567
sVrequest
p568
(dp569
Vcomment
p570
g4
sVcookies
p571
(lp572
sVurl
p573
Vhttps://www.google.com/xjs/_/js/k=xjs.qs.en_US.pCBXVCvTH3s.O/m=syl,syj,syn,em3,em8,em6,em7,sym,aa,abd,sy2g,sy2k,sy29,sy2j,sy2d,sy2a,sy2c,sy2f,sy2l,sy2m,sy2n,emd,async,sybn,sybi,sybo,sy1f,sy45,sy46,sy9w,sybk,sybj,sybp,sy1g,sy30,sy47,sybm,sybl,sybq,sy1h,sybh,dvl,syep,foot,ipv6,sy32,emj,shm,sy5g,sy5i,sy5k,sykh,tl,sy2x,sy2y,sy2t,sy38,em12,vs,sy5j,sy5h,sy6u,sy66,sy67,sy7d,sy7j,sy4u,sy69,sy89,sy7e,sykk,sykl,tnv,bct,sy48,sy3a,sy3c,sy5b,sy4x,sy4z,sy56,syea,sy4y,syci,syeb,sy4v,sy5d,sya3,sy40,sy76,sye9,syec,sye4,sy5a,sy51,sy5e,sya2,sy65,sye2,sy31,sy4t,sy4w,sy52,sy91,sy9l,sya4,sye6,syg5,sygv,sy5f,sy23,sy3b,sy4h,sy53,sy6d,sydt,sygs,sygw,sygu,sy2u,sygt,sy24,sy34,sygx,kpoe,sy4d,sy4f,sy4c,sy4e,sy4b,sy6w,shrb,sy4g,syd7,dgm,sy9m,sy9n,tbhm,sy1y,syac,sy25,sy99,syl6,emb,em9,ema,sy22,syl7,tbm,syf5,syf6,syf8,sygb,syg9,kptm,syf4,sy26,syfc,syfn,syf7,syff,sy1i,sy6i,sy68,sy8d,sy9b,syfl,syfr,syfq,syfg,sy1j,sy4q,sy5o,sy5r,sy6j,sy6n,sy6p,sy8h,syc7,syc8,syfb,syfj,syfs,syft,syg3,syg7,emn,emo,syg4,syg6,ivg,syhz,ssc,iuci,img,sy41,tcc,sygq,kpc,kpci,kpor,kpcb,vrml,sy5x,qif,twt,syj7,syj8,syj2,syjc,syj6,syj3,syjg,syjh,syje,syjd,syjk,syji,syjf,syj0,emr,ems,emt,emu,emv,emx,emy,emz,em10,em11,udlg,sy5z,atn,sy4i,sya1,ampfp/am=gCP4LtMEBXQA2RUaq_oFBISzAFA/rt=j/d=0/t=zcms/rs=ACT90oFwm4NZCwIcuuiqmthdlECdBzkhRA
p574
sVqueryString
p575
(lp576
sVheaders
p577
(lp578
sVheadersSize
p579
I1802
sVbodySize
p580
I0
sVmethod
p581
VGET
p582
sVhttpVersion
p583
VHTTP/1.1
p584
ssVtimings
p585
(dp586
Vcomment
p587
g4
sVreceive
p588
I287
sVsend
p589
I0
sVssl
p590
I-1
sVconnect
p591
I-1
sVdns
p592
I-1
sVwait
p593
I31
sVblocked
p594
I-1
ssVtime
p595
I318
sVresponse
p596
(dp597
Vstatus
p598
I200
sVcomment
p599
g4
sVcookies
p600
(lp601
sVstatusText
p602
VOK
p603
sVcontent
p604
(dp605
VmimeType
p606
Vtext/javascript; charset=UTF-8
p607
sVcomment
p608
g4
sVsize
p609
I0
ssVheaders
p610
(lp611
sVheadersSize
p612
I465
sVredirectURL
p613
g4
sVbodySize
p614
I289242
sVhttpVersion
p615
VHTTP/1.1
p616
ssa(dp617
Vcomment
p618
g4
sVserverIPAddress
p619
V216.58.216.196
p620
sVpageref
p621
VThomas Gibson
p622
sVstartedDateTime
p623
V2017-04-16T08:06:12.788-05:00
p624
sVcache
p625
(dp626
sVrequest
p627
(dp628
Vcomment
p629
g4
sVcookies
p630
(lp631
sVurl
p632
Vhttps://www.google.com/gen_204?atyp=i&ct=&cad=&uact=1&vet=10ahUKEwih0f-0hanTAhWM5IMKHc7zC5AQ9V8IKigA..s&ei=QWzzWOGsNIzJjwTO56-ACQ&zx=1492347972786
p633
sVqueryString
p634
(lp635
(dp636
Vname
p637
Vatyp
p638
sVvalue
p639
g30
sa(dp640
Vname
p641
Vct
p642
sVvalue
p643
g4
sa(dp644
Vname
p645
Vcad
p646
sVvalue
p647
g4
sa(dp648
Vname
p649
Vuact
p650
sVvalue
p651
g59
sa(dp652
Vname
p653
Vvet
p654
sVvalue
p655
V10ahUKEwih0f-0hanTAhWM5IMKHc7zC5AQ9V8IKigA..s
p656
sa(dp657
Vname
p658
Vei
p659
sVvalue
p660
VQWzzWOGsNIzJjwTO56-ACQ
p661
sa(dp662
Vname
p663
Vzx
p664
sVvalue
p665
V1492347972786
p666
sasVheaders
p667
(lp668
sVheadersSize
p669
I663
sVbodySize
p670
I0
sVmethod
p671
VGET
p672
sVhttpVersion
p673
VHTTP/1.1
p674
ssVtimings
p675
(dp676
Vcomment
p677
g4
sVreceive
p678
I0
sVsend
p679
I0
sVssl
p680
I-1
sVconnect
p681
I-1
sVdns
p682
I-1
sVwait
p683
I26
sVblocked
p684
I-1
ssVtime
p685
I26
sVresponse
p686
(dp687
Vstatus
p688
I204
sVcomment
p689
g4
sVcookies
p690
(lp691
sVstatusText
p692
VNo Content
p693
sVcontent
p694
(dp695
VmimeType
p696
Vtext/html; charset=UTF-8
p697
sVcomment
p698
g4
sVsize
p699
I0
ssVheaders
p700
(lp701
sVheadersSize
p702
I248
sVredirectURL
p703
g4
sVbodySize
p704
I0
sVhttpVersion
p705
VHTTP/1.1
p706
ssa(dp707
Vcomment
p708
g4
sVserverIPAddress
p709
V216.58.216.196
p710
sVpageref
p711
VThomas Gibson
p712
sVstartedDateTime
p713
V2017-04-16T08:06:12.790-05:00
p714
sVcache
p715
(dp716
sVrequest
p717
(dp718
Vcomment
p719
g4
sVcookies
p720
(lp721
sVurl
p722
Vhttps://www.google.com/gen_204?atyp=i&ct=&cad=&uact=1&vet=10ahUKEwih0f-0hanTAhWM5IMKHc7zC5AQ9V8IKygB..s&ei=QWzzWOGsNIzJjwTO56-ACQ&zx=1492347972789
p723
sVqueryString
p724
(lp725
(dp726
Vname
p727
Vatyp
p728
sVvalue
p729
g30
sa(dp730
Vname
p731
Vct
p732
sVvalue
p733
g4
sa(dp734
Vname
p735
Vcad
p736
sVvalue
p737
g4
sa(dp738
Vname
p739
Vuact
p740
sVvalue
p741
g59
sa(dp742
Vname
p743
Vvet
p744
sVvalue
p745
V10ahUKEwih0f-0hanTAhWM5IMKHc7zC5AQ9V8IKygB..s
p746
sa(dp747
Vname
p748
Vei
p749
sVvalue
p750
VQWzzWOGsNIzJjwTO56-ACQ
p751
sa(dp752
Vname
p753
Vzx
p754
sVvalue
p755
V1492347972789
p756
sasVheaders
p757
(lp758
sVheadersSize
p759
I663
sVbodySize
p760
I0
sVmethod
p761
VGET
p762
sVhttpVersion
p763
VHTTP/1.1
p764
ssVtimings
p765
(dp766
Vcomment
p767
g4
sVreceive
p768
I0
sVsend
p769
I0
sVssl
p770
I-1
sVconnect
p771
I-1
sVdns
p772
I-1
sVwait
p773
I30
sVblocked
p774
I-1
ssVtime
p775
I30
sVresponse
p776
(dp777
Vstatus
p778
I204
sVcomment
p779
g4
sVcookies
p780
(lp781
sVstatusText
p782
VNo Content
p783
sVcontent
p784
(dp785
VmimeType
p786
Vtext/html; charset=UTF-8
p787
sVcomment
p788
g4
sVsize
p789
I0
ssVheaders
p790
(lp791
sVheadersSize
p792
I248
sVredirectURL
p793
g4
sVbodySize
p794
I0
sVhttpVersion
p795
VHTTP/1.1
p796
ssa(dp797
Vcomment
p798
g4
sVserverIPAddress
p799
V216.58.216.196
p800
sVpageref
p801
VThomas Gibson
p802
sVstartedDateTime
p803
V2017-04-16T08:06:12.805-05:00
p804
sVcache
p805
(dp806
sVrequest
p807
(dp808
Vcomment
p809
g4
sVcookies
p810
(lp811
sVurl
p812
Vhttps://www.google.com/async/irc?vet=10ahUKEwih0f-0hanTAhWM5IMKHc7zC5AQo0EImAI..i&ved=0ahUKEwih0f-0hanTAhWM5IMKHc7zC5AQo0EImAI&ei=QWzzWOGsNIzJjwTO56-ACQ&yv=2&async=iu:1,ved:0ahUKEwih0f-0hanTAhWM5IMKHc7zC5AQo0EImAI,_id:irc_async,_pms:qs
p813
sVqueryString
p814
(lp815
(dp816
Vname
p817
Vvet
p818
sVvalue
p819
V10ahUKEwih0f-0hanTAhWM5IMKHc7zC5AQo0EImAI..i
p820
sa(dp821
Vname
p822
Vved
p823
sVvalue
p824
V0ahUKEwih0f-0hanTAhWM5IMKHc7zC5AQo0EImAI
p825
sa(dp826
Vname
p827
Vei
p828
sVvalue
p829
VQWzzWOGsNIzJjwTO56-ACQ
p830
sa(dp831
Vname
p832
Vyv
p833
sVvalue
p834
g64
sa(dp835
Vname
p836
Vasync
p837
sVvalue
p838
Viu:1,ved:0ahUKEwih0f-0hanTAhWM5IMKHc7zC5AQo0EImAI,_id:irc_async,_pms:qs
p839
sasVheaders
p840
(lp841
sVheadersSize
p842
I752
sVbodySize
p843
I0
sVmethod
p844
VGET
p845
sVhttpVersion
p846
VHTTP/1.1
p847
ssVtimings
p848
(dp849
Vcomment
p850
g4
sVreceive
p851
I0
sVsend
p852
I0
sVssl
p853
I-1
sVconnect
p854
I-1
sVdns
p855
I-1
sVwait
p856
I50
sVblocked
p857
I-1
ssVtime
p858
I50
sVresponse
p859
(dp860
Vstatus
p861
I200
sVcomment
p862
g4
sVcookies
p863
(lp864
sVstatusText
p865
VOK
p866
sVcontent
p867
(dp868
VmimeType
p869
Vtext/html; charset=UTF-8
p870
sVcomment
p871
g4
sVsize
p872
I0
ssVheaders
p873
(lp874
sVheadersSize
p875
I383
sVredirectURL
p876
g4
sVbodySize
p877
I7789
sVhttpVersion
p878
VHTTP/1.1
p879
ssa(dp880
Vcomment
p881
g4
sVserverIPAddress
p882
V216.58.216.196
p883
sVpageref
p884
VThomas Gibson
p885
sVstartedDateTime
p886
V2017-04-16T08:06:12.814-05:00
p887
sVcache
p888
(dp889
sVrequest
p890
(dp891
Vcomment
p892
g4
sVcookies
p893
(lp894
sVurl
p895
Vhttps://www.google.com/gen_204?atyp=i&ct=&cad=&vet=10ahUKEwih0f-0hanTAhWM5IMKHc7zC5AQ5W0IOCgC..s&ei=QWzzWOGsNIzJjwTO56-ACQ&zx=1492347972813
p896
sVqueryString
p897
(lp898
(dp899
Vname
p900
Vatyp
p901
sVvalue
p902
g30
sa(dp903
Vname
p904
Vct
p905
sVvalue
p906
g4
sa(dp907
Vname
p908
Vcad
p909
sVvalue
p910
g4
sa(dp911
Vname
p912
Vvet
p913
sVvalue
p914
V10ahUKEwih0f-0hanTAhWM5IMKHc7zC5AQ5W0IOCgC..s
p915
sa(dp916
Vname
p917
Vei
p918
sVvalue
p919
VQWzzWOGsNIzJjwTO56-ACQ
p920
sa(dp921
Vname
p922
Vzx
p923
sVvalue
p924
V1492347972813
p925
sasVheaders
p926
(lp927
sVheadersSize
p928
I656
sVbodySize
p929
I0
sVmethod
p930
VGET
p931
sVhttpVersion
p932
VHTTP/1.1
p933
ssVtimings
p934
(dp935
Vcomment
p936
g4
sVreceive
p937
I0
sVsend
p938
I0
sVssl
p939
I-1
sVconnect
p940
I-1
sVdns
p941
I-1
sVwait
p942
I29
sVblocked
p943
I-1
ssVtime
p944
I29
sVresponse
p945
(dp946
Vstatus
p947
I204
sVcomment
p948
g4
sVcookies
p949
(lp950
sVstatusText
p951
VNo Content
p952
sVcontent
p953
(dp954
VmimeType
p955
Vtext/html; charset=UTF-8
p956
sVcomment
p957
g4
sVsize
p958
I0
ssVheaders
p959
(lp960
sVheadersSize
p961
I248
sVredirectURL
p962
g4
sVbodySize
p963
I0
sVhttpVersion
p964
VHTTP/1.1
p965
ssa(dp966
Vcomment
p967
g4
sVserverIPAddress
p968
V216.58.216.196
p969
sVpageref
p970
VThomas Gibson
p971
sVstartedDateTime
p972
V2017-04-16T08:06:12.816-05:00
p973
sVcache
p974
(dp975
sVrequest
p976
(dp977
Vcomment
p978
g4
sVcookies
p979
(lp980
sVurl
p981
Vhttps://www.google.com/gen_204?atyp=i&ct=&cad=&vet=10ahUKEwih0f-0hanTAhWM5IMKHc7zC5AQ5W0IOygD..s&ei=QWzzWOGsNIzJjwTO56-ACQ&zx=1492347972815
p982
sVqueryString
p983
(lp984
(dp985
Vname
p986
Vatyp
p987
sVvalue
p988
g30
sa(dp989
Vname
p990
Vct
p991
sVvalue
p992
g4
sa(dp993
Vname
p994
Vcad
p995
sVvalue
p996
g4
sa(dp997
Vname
p998
Vvet
p999
sVvalue
p1000
V10ahUKEwih0f-0hanTAhWM5IMKHc7zC5AQ5W0IOygD..s
p1001
sa(dp1002
Vname
p1003
Vei
p1004
sVvalue
p1005
VQWzzWOGsNIzJjwTO56-ACQ
p1006
sa(dp1007
Vname
p1008
Vzx
p1009
sVvalue
p1010
V1492347972815
p1011
sasVheaders
p1012
(lp1013
sVheadersSize
p1014
I656
sVbodySize
p1015
I0
sVmethod
p1016
VGET
p1017
sVhttpVersion
p1018
VHTTP/1.1
p1019
ssVtimings
p1020
(dp1021
Vcomment
p1022
g4
sVreceive
p1023
I0
sVsend
p1024
I0
sVssl
p1025
I-1
sVconnect
p1026
I-1
sVdns
p1027
I-1
sVwait
p1028
I25
sVblocked
p1029
I-1
ssVtime
p1030
I25
sVresponse
p1031
(dp1032
Vstatus
p1033
I204
sVcomment
p1034
g4
sVcookies
p1035
(lp1036
sVstatusText
p1037
VNo Content
p1038
sVcontent
p1039
(dp1040
VmimeType
p1041
Vtext/html; charset=UTF-8
p1042
sVcomment
p1043
g4
sVsize
p1044
I0
ssVheaders
p1045
(lp1046
sVheadersSize
p1047
I248
sVredirectURL
p1048
g4
sVbodySize
p1049
I0
sVhttpVersion
p1050
VHTTP/1.1
p1051
ssa(dp1052
Vcomment
p1053
g4
sVserverIPAddress
p1054
V216.58.216.196
p1055
sVpageref
p1056
VThomas Gibson
p1057
sVstartedDateTime
p1058
V2017-04-16T08:06:12.822-05:00
p1059
sVcache
p1060
(dp1061
sVrequest
p1062
(dp1063
Vcomment
p1064
g4
sVcookies
p1065
(lp1066
sVurl
p1067
Vhttps://www.google.com/gen_204?atyp=i&ct=&cad=&vet=10ahUKEwih0f-0hanTAhWM5IMKHc7zC5AQ5W0IQSgF..s&ei=QWzzWOGsNIzJjwTO56-ACQ&zx=1492347972819
p1068
sVqueryString
p1069
(lp1070
(dp1071
Vname
p1072
Vatyp
p1073
sVvalue
p1074
g30
sa(dp1075
Vname
p1076
Vct
p1077
sVvalue
p1078
g4
sa(dp1079
Vname
p1080
Vcad
p1081
sVvalue
p1082
g4
sa(dp1083
Vname
p1084
Vvet
p1085
sVvalue
p1086
V10ahUKEwih0f-0hanTAhWM5IMKHc7zC5AQ5W0IQSgF..s
p1087
sa(dp1088
Vname
p1089
Vei
p1090
sVvalue
p1091
VQWzzWOGsNIzJjwTO56-ACQ
p1092
sa(dp1093
Vname
p1094
Vzx
p1095
sVvalue
p1096
V1492347972819
p1097
sasVheaders
p1098
(lp1099
sVheadersSize
p1100
I656
sVbodySize
p1101
I0
sVmethod
p1102
VGET
p1103
sVhttpVersion
p1104
VHTTP/1.1
p1105
ssVtimings
p1106
(dp1107
Vcomment
p1108
g4
sVreceive
p1109
I0
sVsend
p1110
I0
sVssl
p1111
I-1
sVconnect
p1112
I-1
sVdns
p1113
I-1
sVwait
p1114
I29
sVblocked
p1115
I-1
ssVtime
p1116
I30
sVresponse
p1117
(dp1118
Vstatus
p1119
I204
sVcomment
p1120
g4
sVcookies
p1121
(lp1122
sVstatusText
p1123
VNo Content
p1124
sVcontent
p1125
(dp1126
VmimeType
p1127
Vtext/html; charset=UTF-8
p1128
sVcomment
p1129
g4
sVsize
p1130
I0
ssVheaders
p1131
(lp1132
sVheadersSize
p1133
I248
sVredirectURL
p1134
g4
sVbodySize
p1135
I0
sVhttpVersion
p1136
VHTTP/1.1
p1137
ssa(dp1138
Vcomment
p1139
g4
sVserverIPAddress
p1140
V216.58.216.196
p1141
sVpageref
p1142
VThomas Gibson
p1143
sVstartedDateTime
p1144
V2017-04-16T08:06:12.842-05:00
p1145
sVcache
p1146
(dp1147
sVrequest
p1148
(dp1149
Vcomment
p1150
g4
sVcookies
p1151
(lp1152
sVurl
p1153
Vhttps://www.google.com/gen_204?atyp=i&ct=&cad=&vet=10ahUKEwih0f-0hanTAhWM5IMKHc7zC5AQ5W0IRygH..s&ei=QWzzWOGsNIzJjwTO56-ACQ&zx=1492347972826
p1154
sVqueryString
p1155
(lp1156
(dp1157
Vname
p1158
Vatyp
p1159
sVvalue
p1160
g30
sa(dp1161
Vname
p1162
Vct
p1163
sVvalue
p1164
g4
sa(dp1165
Vname
p1166
Vcad
p1167
sVvalue
p1168
g4
sa(dp1169
Vname
p1170
Vvet
p1171
sVvalue
p1172
V10ahUKEwih0f-0hanTAhWM5IMKHc7zC5AQ5W0IRygH..s
p1173
sa(dp1174
Vname
p1175
Vei
p1176
sVvalue
p1177
VQWzzWOGsNIzJjwTO56-ACQ
p1178
sa(dp1179
Vname
p1180
Vzx
p1181
sVvalue
p1182
V1492347972826
p1183
sasVheaders
p1184
(lp1185
sVheadersSize
p1186
I656
sVbodySize
p1187
I0
sVmethod
p1188
VGET
p1189
sVhttpVersion
p1190
VHTTP/1.1
p1191
ssVtimings
p1192
(dp1193
Vcomment
p1194
g4
sVreceive
p1195
I0
sVsend
p1196
I0
sVssl
p1197
I-1
sVconnect
p1198
I-1
sVdns
p1199
I-1
sVwait
p1200
I31
sVblocked
p1201
I-1
ssVtime
p1202
I32
sVresponse
p1203
(dp1204
Vstatus
p1205
I204
sVcomment
p1206
g4
sVcookies
p1207
(lp1208
sVstatusText
p1209
VNo Content
p1210
sVcontent
p1211
(dp1212
VmimeType
p1213
Vtext/html; charset=UTF-8
p1214
sVcomment
p1215
g4
sVsize
p1216
I0
ssVheaders
p1217
(lp1218
sVheadersSize
p1219
I248
sVredirectURL
p1220
g4
sVbodySize
p1221
I0
sVhttpVersion
p1222
VHTTP/1.1
p1223
ssa(dp1224
Vcomment
p1225
g4
sVserverIPAddress
p1226
V216.58.216.196
p1227
sVpageref
p1228
VThomas Gibson
p1229
sVstartedDateTime
p1230
V2017-04-16T08:06:12.845-05:00
p1231
sVcache
p1232
(dp1233
sVrequest
p1234
(dp1235
Vcomment
p1236
g4
sVcookies
p1237
(lp1238
sVurl
p1239
Vhttps://www.google.com/gen_204?atyp=i&ct=&cad=&vet=10ahUKEwih0f-0hanTAhWM5IMKHc7zC5AQ5W0ISigI..s&ei=QWzzWOGsNIzJjwTO56-ACQ&zx=1492347972830
p1240
sVqueryString
p1241
(lp1242
(dp1243
Vname
p1244
Vatyp
p1245
sVvalue
p1246
g30
sa(dp1247
Vname
p1248
Vct
p1249
sVvalue
p1250
g4
sa(dp1251
Vname
p1252
Vcad
p1253
sVvalue
p1254
g4
sa(dp1255
Vname
p1256
Vvet
p1257
sVvalue
p1258
V10ahUKEwih0f-0hanTAhWM5IMKHc7zC5AQ5W0ISigI..s
p1259
sa(dp1260
Vname
p1261
Vei
p1262
sVvalue
p1263
VQWzzWOGsNIzJjwTO56-ACQ
p1264
sa(dp1265
Vname
p1266
Vzx
p1267
sVvalue
p1268
V1492347972830
p1269
sasVheaders
p1270
(lp1271
sVheadersSize
p1272
I656
sVbodySize
p1273
I0
sVmethod
p1274
VGET
p1275
sVhttpVersion
p1276
VHTTP/1.1
p1277
ssVtimings
p1278
(dp1279
Vcomment
p1280
g4
sVreceive
p1281
I0
sVsend
p1282
I0
sVssl
p1283
I-1
sVconnect
p1284
I-1
sVdns
p1285
I-1
sVwait
p1286
I46
sVblocked
p1287
I-1
ssVtime
p1288
I46
sVresponse
p1289
(dp1290
Vstatus
p1291
I204
sVcomment
p1292
g4
sVcookies
p1293
(lp1294
sVstatusText
p1295
VNo Content
p1296
sVcontent
p1297
(dp1298
VmimeType
p1299
Vtext/html; charset=UTF-8
p1300
sVcomment
p1301
g4
sVsize
p1302
I0
ssVheaders
p1303
(lp1304
sVheadersSize
p1305
I248
sVredirectURL
p1306
g4
sVbodySize
p1307
I0
sVhttpVersion
p1308
VHTTP/1.1
p1309
ssa(dp1310
Vcomment
p1311
g4
sVserverIPAddress
p1312
V216.58.216.206
p1313
sVpageref
p1314
VThomas Gibson
p1315
sVstartedDateTime
p1316
V2017-04-16T08:06:12.860-05:00
p1317
sVcache
p1318
(dp1319
sVrequest
p1320
(dp1321
Vcomment
p1322
g4
sVcookies
p1323
(lp1324
sVurl
p1325
Vhttps://encrypted-tbn3.gstatic.com/images?q=tbn:ANd9GcSk-mffQbDUklr4yCH-_iX8G1mx88Uf9AcjrtFfZLEG6vnk16nTCQz5bFrVVVqTuUUcc1CW
p1326
sVqueryString
p1327
(lp1328
(dp1329
Vname
p1330
g415
sVvalue
p1331
Vtbn:ANd9GcSk-mffQbDUklr4yCH-_iX8G1mx88Uf9AcjrtFfZLEG6vnk16nTCQz5bFrVVVqTuUUcc1CW
p1332
sasVheaders
p1333
(lp1334
sVheadersSize
p1335
I439
sVbodySize
p1336
I0
sVmethod
p1337
VGET
p1338
sVhttpVersion
p1339
VHTTP/1.1
p1340
ssVtimings
p1341
(dp1342
Vcomment
p1343
g4
sVreceive
p1344
I2
sVsend
p1345
I0
sVssl
p1346
I-1
sVconnect
p1347
I-1
sVdns
p1348
I-1
sVwait
p1349
I14
sVblocked
p1350
I-1
ssVtime
p1351
I17
sVresponse
p1352
(dp1353
Vstatus
p1354
I200
sVcomment
p1355
g4
sVcookies
p1356
(lp1357
sVstatusText
p1358
VOK
p1359
sVcontent
p1360
(dp1361
VmimeType
p1362
Vimage/jpeg
p1363
sVcomment
p1364
g4
sVsize
p1365
I0
ssVheaders
p1366
(lp1367
sVheadersSize
p1368
I429
sVredirectURL
p1369
g4
sVbodySize
p1370
I9945
sVhttpVersion
p1371
VHTTP/1.1
p1372
ssa(dp1373
Vcomment
p1374
g4
sVserverIPAddress
p1375
V216.58.216.196
p1376
sVpageref
p1377
VThomas Gibson
p1378
sVstartedDateTime
p1379
V2017-04-16T08:06:12.862-05:00
p1380
sVcache
p1381
(dp1382
sVrequest
p1383
(dp1384
Vcomment
p1385
g4
sVcookies
p1386
(lp1387
sVurl
p1388
Vhttps://www.google.com/gen_204?atyp=i&ct=&cad=&vet=10ahUKEwih0f-0hanTAhWM5IMKHc7zC5AQlEsIeygDMBQ..s&ei=QWzzWOGsNIzJjwTO56-ACQ&zx=1492347972860
p1389
sVqueryString
p1390
(lp1391
(dp1392
Vname
p1393
Vatyp
p1394
sVvalue
p1395
g30
sa(dp1396
Vname
p1397
Vct
p1398
sVvalue
p1399
g4
sa(dp1400
Vname
p1401
Vcad
p1402
sVvalue
p1403
g4
sa(dp1404
Vname
p1405
Vvet
p1406
sVvalue
p1407
V10ahUKEwih0f-0hanTAhWM5IMKHc7zC5AQlEsIeygDMBQ..s
p1408
sa(dp1409
Vname
p1410
Vei
p1411
sVvalue
p1412
VQWzzWOGsNIzJjwTO56-ACQ
p1413
sa(dp1414
Vname
p1415
Vzx
p1416
sVvalue
p1417
V1492347972860
p1418
sasVheaders
p1419
(lp1420
sVheadersSize
p1421
I659
sVbodySize
p1422
I0
sVmethod
p1423
VGET
p1424
sVhttpVersion
p1425
VHTTP/1.1
p1426
ssVtimings
p1427
(dp1428
Vcomment
p1429
g4
sVreceive
p1430
I0
sVsend
p1431
I0
sVssl
p1432
I-1
sVconnect
p1433
I-1
sVdns
p1434
I-1
sVwait
p1435
I29
sVblocked
p1436
I-1
ssVtime
p1437
I30
sVresponse
p1438
(dp1439
Vstatus
p1440
I204
sVcomment
p1441
g4
sVcookies
p1442
(lp1443
sVstatusText
p1444
VNo Content
p1445
sVcontent
p1446
(dp1447
VmimeType
p1448
Vtext/html; charset=UTF-8
p1449
sVcomment
p1450
g4
sVsize
p1451
I0
ssVheaders
p1452
(lp1453
sVheadersSize
p1454
I248
sVredirectURL
p1455
g4
sVbodySize
p1456
I0
sVhttpVersion
p1457
VHTTP/1.1
p1458
ssa(dp1459
Vcomment
p1460
g4
sVserverIPAddress
p1461
V216.58.216.206
p1462
sVpageref
p1463
VThomas Gibson
p1464
sVstartedDateTime
p1465
V2017-04-16T08:06:12.865-05:00
p1466
sVcache
p1467
(dp1468
sVrequest
p1469
(dp1470
Vcomment
p1471
g4
sVcookies
p1472
(lp1473
sVurl
p1474
Vhttps://encrypted-tbn0.gstatic.com/images?q=tbn:ANd9GcR53Pg3YFRLsX1sTg5Vm_FAdxAQXayX0Fpq2eDYp3VMxflUKnMRloUUfA-Q2dztmouCf3PT
p1475
sVqueryString
p1476
(lp1477
(dp1478
Vname
p1479
g415
sVvalue
p1480
Vtbn:ANd9GcR53Pg3YFRLsX1sTg5Vm_FAdxAQXayX0Fpq2eDYp3VMxflUKnMRloUUfA-Q2dztmouCf3PT
p1481
sasVheaders
p1482
(lp1483
sVheadersSize
p1484
I439
sVbodySize
p1485
I0
sVmethod
p1486
VGET
p1487
sVhttpVersion
p1488
VHTTP/1.1
p1489
ssVtimings
p1490
(dp1491
Vcomment
p1492
g4
sVreceive
p1493
I0
sVsend
p1494
I0
sVssl
p1495
I-1
sVconnect
p1496
I-1
sVdns
p1497
I-1
sVwait
p1498
I27
sVblocked
p1499
I-1
ssVtime
p1500
I27
sVresponse
p1501
(dp1502
Vstatus
p1503
I200
sVcomment
p1504
g4
sVcookies
p1505
(lp1506
sVstatusText
p1507
VOK
p1508
sVcontent
p1509
(dp1510
VmimeType
p1511
Vimage/jpeg
p1512
sVcomment
p1513
g4
sVsize
p1514
I0
ssVheaders
p1515
(lp1516
sVheadersSize
p1517
I407
sVredirectURL
p1518
g4
sVbodySize
p1519
I7396
sVhttpVersion
p1520
VHTTP/1.1
p1521
ssa(dp1522
Vcomment
p1523
g4
sVserverIPAddress
p1524
V216.58.216.196
p1525
sVpageref
p1526
VThomas Gibson
p1527
sVstartedDateTime
p1528
V2017-04-16T08:06:12.866-05:00
p1529
sVcache
p1530
(dp1531
sVrequest
p1532
(dp1533
Vcomment
p1534
g4
sVcookies
p1535
(lp1536
sVurl
p1537
Vhttps://www.google.com/gen_204?atyp=i&ct=&cad=&vet=10ahUKEwih0f-0hanTAhWM5IMKHc7zC5AQlEsIfSgEMBQ..s&ei=QWzzWOGsNIzJjwTO56-ACQ&zx=1492347972865
p1538
sVqueryString
p1539
(lp1540
(dp1541
Vname
p1542
Vatyp
p1543
sVvalue
p1544
g30
sa(dp1545
Vname
p1546
Vct
p1547
sVvalue
p1548
g4
sa(dp1549
Vname
p1550
Vcad
p1551
sVvalue
p1552
g4
sa(dp1553
Vname
p1554
Vvet
p1555
sVvalue
p1556
V10ahUKEwih0f-0hanTAhWM5IMKHc7zC5AQlEsIfSgEMBQ..s
p1557
sa(dp1558
Vname
p1559
Vei
p1560
sVvalue
p1561
VQWzzWOGsNIzJjwTO56-ACQ
p1562
sa(dp1563
Vname
p1564
Vzx
p1565
sVvalue
p1566
V1492347972865
p1567
sasVheaders
p1568
(lp1569
sVheadersSize
p1570
I659
sVbodySize
p1571
I0
sVmethod
p1572
VGET
p1573
sVhttpVersion
p1574
VHTTP/1.1
p1575
ssVtimings
p1576
(dp1577
Vcomment
p1578
g4
sVreceive
p1579
I0
sVsend
p1580
I0
sVssl
p1581
I-1
sVconnect
p1582
I-1
sVdns
p1583
I-1
sVwait
p1584
I29
sVblocked
p1585
I-1
ssVtime
p1586
I29
sVresponse
p1587
(dp1588
Vstatus
p1589
I204
sVcomment
p1590
g4
sVcookies
p1591
(lp1592
sVstatusText
p1593
VNo Content
p1594
sVcontent
p1595
(dp1596
VmimeType
p1597
Vtext/html; charset=UTF-8
p1598
sVcomment
p1599
g4
sVsize
p1600
I0
ssVheaders
p1601
(lp1602
sVheadersSize
p1603
I248
sVredirectURL
p1604
g4
sVbodySize
p1605
I0
sVhttpVersion
p1606
VHTTP/1.1
p1607
ssa(dp1608
Vcomment
p1609
g4
sVserverIPAddress
p1610
V216.58.216.196
p1611
sVpageref
p1612
VThomas Gibson
p1613
sVstartedDateTime
p1614
V2017-04-16T08:06:12.867-05:00
p1615
sVcache
p1616
(dp1617
sVrequest
p1618
(dp1619
Vcomment
p1620
g4
sVcookies
p1621
(lp1622
sVurl
p1623
Vhttps://www.google.com/gen_204?atyp=i&ct=&cad=&vet=10ahUKEwih0f-0hanTAhWM5IMKHc7zC5AQ5W0IPigE..s&ei=QWzzWOGsNIzJjwTO56-ACQ&zx=1492347972817
p1624
sVqueryString
p1625
(lp1626
(dp1627
Vname
p1628
Vatyp
p1629
sVvalue
p1630
g30
sa(dp1631
Vname
p1632
Vct
p1633
sVvalue
p1634
g4
sa(dp1635
Vname
p1636
Vcad
p1637
sVvalue
p1638
g4
sa(dp1639
Vname
p1640
Vvet
p1641
sVvalue
p1642
V10ahUKEwih0f-0hanTAhWM5IMKHc7zC5AQ5W0IPigE..s
p1643
sa(dp1644
Vname
p1645
Vei
p1646
sVvalue
p1647
VQWzzWOGsNIzJjwTO56-ACQ
p1648
sa(dp1649
Vname
p1650
Vzx
p1651
sVvalue
p1652
V1492347972817
p1653
sasVheaders
p1654
(lp1655
sVheadersSize
p1656
I656
sVbodySize
p1657
I0
sVmethod
p1658
VGET
p1659
sVhttpVersion
p1660
VHTTP/1.1
p1661
ssVtimings
p1662
(dp1663
Vcomment
p1664
g4
sVreceive
p1665
I0
sVsend
p1666
I0
sVssl
p1667
I23
sVconnect
p1668
I46
sVdns
p1669
I0
sVwait
p1670
I26
sVblocked
p1671
I0
ssVtime
p1672
I73
sVresponse
p1673
(dp1674
Vstatus
p1675
I204
sVcomment
p1676
g4
sVcookies
p1677
(lp1678
sVstatusText
p1679
VNo Content
p1680
sVcontent
p1681
(dp1682
VmimeType
p1683
Vtext/html; charset=UTF-8
p1684
sVcomment
p1685
g4
sVsize
p1686
I0
ssVheaders
p1687
(lp1688
sVheadersSize
p1689
I248
sVredirectURL
p1690
g4
sVbodySize
p1691
I0
sVhttpVersion
p1692
VHTTP/1.1
p1693
ssa(dp1694
Vcomment
p1695
g4
sVserverIPAddress
p1696
V216.58.216.206
p1697
sVpageref
p1698
VThomas Gibson
p1699
sVstartedDateTime
p1700
V2017-04-16T08:06:12.890-05:00
p1701
sVcache
p1702
(dp1703
sVrequest
p1704
(dp1705
Vcomment
p1706
g4
sVcookies
p1707
(lp1708
sVurl
p1709
Vhttps://encrypted-tbn1.gstatic.com/images?q=tbn:ANd9GcQ7p10x7E72AOsftQV79hRgWikoP1LF6JB0pHzX4GNBOzhn0pV_0zcPokhqsTaZx6xoPKCq
p1710
sVqueryString
p1711
(lp1712
(dp1713
Vname
p1714
g415
sVvalue
p1715
Vtbn:ANd9GcQ7p10x7E72AOsftQV79hRgWikoP1LF6JB0pHzX4GNBOzhn0pV_0zcPokhqsTaZx6xoPKCq
p1716
sasVheaders
p1717
(lp1718
sVheadersSize
p1719
I439
sVbodySize
p1720
I0
sVmethod
p1721
VGET
p1722
sVhttpVersion
p1723
VHTTP/1.1
p1724
ssVtimings
p1725
(dp1726
Vcomment
p1727
g4
sVreceive
p1728
I0
sVsend
p1729
I0
sVssl
p1730
I-1
sVconnect
p1731
I-1
sVdns
p1732
I-1
sVwait
p1733
I21
sVblocked
p1734
I-1
ssVtime
p1735
I22
sVresponse
p1736
(dp1737
Vstatus
p1738
I200
sVcomment
p1739
g4
sVcookies
p1740
(lp1741
sVstatusText
p1742
VOK
p1743
sVcontent
p1744
(dp1745
VmimeType
p1746
Vimage/jpeg
p1747
sVcomment
p1748
g4
sVsize
p1749
I0
ssVheaders
p1750
(lp1751
sVheadersSize
p1752
I429
sVredirectURL
p1753
g4
sVbodySize
p1754
I5039
sVhttpVersion
p1755
VHTTP/1.1
p1756
ssa(dp1757
Vcomment
p1758
g4
sVserverIPAddress
p1759
V216.58.216.196
p1760
sVpageref
p1761
VThomas Gibson
p1762
sVstartedDateTime
p1763
V2017-04-16T08:06:12.890-05:00
p1764
sVcache
p1765
(dp1766
sVrequest
p1767
(dp1768
Vcomment
p1769
g4
sVcookies
p1770
(lp1771
sVurl
p1772
Vhttps://www.google.com/gen_204?atyp=i&ct=&cad=&vet=10ahUKEwih0f-0hanTAhWM5IMKHc7zC5AQlEsIfygFMBQ..s&ei=QWzzWOGsNIzJjwTO56-ACQ&zx=1492347972878
p1773
sVqueryString
p1774
(lp1775
(dp1776
Vname
p1777
Vatyp
p1778
sVvalue
p1779
g30
sa(dp1780
Vname
p1781
Vct
p1782
sVvalue
p1783
g4
sa(dp1784
Vname
p1785
Vcad
p1786
sVvalue
p1787
g4
sa(dp1788
Vname
p1789
Vvet
p1790
sVvalue
p1791
V10ahUKEwih0f-0hanTAhWM5IMKHc7zC5AQlEsIfygFMBQ..s
p1792
sa(dp1793
Vname
p1794
Vei
p1795
sVvalue
p1796
VQWzzWOGsNIzJjwTO56-ACQ
p1797
sa(dp1798
Vname
p1799
Vzx
p1800
sVvalue
p1801
V1492347972878
p1802
sasVheaders
p1803
(lp1804
sVheadersSize
p1805
I659
sVbodySize
p1806
I0
sVmethod
p1807
VGET
p1808
sVhttpVersion
p1809
VHTTP/1.1
p1810
ssVtimings
p1811
(dp1812
Vcomment
p1813
g4
sVreceive
p1814
I0
sVsend
p1815
I0
sVssl
p1816
I-1
sVconnect
p1817
I-1
sVdns
p1818
I-1
sVwait
p1819
I30
sVblocked
p1820
I-1
ssVtime
p1821
I30
sVresponse
p1822
(dp1823
Vstatus
p1824
I204
sVcomment
p1825
g4
sVcookies
p1826
(lp1827
sVstatusText
p1828
VNo Content
p1829
sVcontent
p1830
(dp1831
VmimeType
p1832
Vtext/html; charset=UTF-8
p1833
sVcomment
p1834
g4
sVsize
p1835
I0
ssVheaders
p1836
(lp1837
sVheadersSize
p1838
I248
sVredirectURL
p1839
g4
sVbodySize
p1840
I0
sVhttpVersion
p1841
VHTTP/1.1
p1842
ssa(dp1843
Vcomment
p1844
g4
sVserverIPAddress
p1845
V216.58.216.206
p1846
sVpageref
p1847
VThomas Gibson
p1848
sVstartedDateTime
p1849
V2017-04-16T08:06:12.891-05:00
p1850
sVcache
p1851
(dp1852
sVrequest
p1853
(dp1854
Vcomment
p1855
g4
sVcookies
p1856
(lp1857
sVurl
p1858
Vhttps://encrypted-tbn2.gstatic.com/images?q=tbn:ANd9GcTr1Xq3GtD-lvCAP2r6OT6CjWjILBMJ8Y2_0EBNN9UbYcCkJKKmXJ020g4KTimlGDYIE2xy
p1859
sVqueryString
p1860
(lp1861
(dp1862
Vname
p1863
g415
sVvalue
p1864
Vtbn:ANd9GcTr1Xq3GtD-lvCAP2r6OT6CjWjILBMJ8Y2_0EBNN9UbYcCkJKKmXJ020g4KTimlGDYIE2xy
p1865
sasVheaders
p1866
(lp1867
sVheadersSize
p1868
I439
sVbodySize
p1869
I0
sVmethod
p1870
VGET
p1871
sVhttpVersion
p1872
VHTTP/1.1
p1873
ssVtimings
p1874
(dp1875
Vcomment
p1876
g4
sVreceive
p1877
I3
sVsend
p1878
I0
sVssl
p1879
I-1
sVconnect
p1880
I-1
sVdns
p1881
I-1
sVwait
p1882
I22
sVblocked
p1883
I-1
ssVtime
p1884
I26
sVresponse
p1885
(dp1886
Vstatus
p1887
I200
sVcomment
p1888
g4
sVcookies
p1889
(lp1890
sVstatusText
p1891
VOK
p1892
sVcontent
p1893
(dp1894
VmimeType
p1895
Vimage/jpeg
p1896
sVcomment
p1897
g4
sVsize
p1898
I0
ssVheaders
p1899
(lp1900
sVheadersSize
p1901
I429
sVredirectURL
p1902
g4
sVbodySize
p1903
I5463
sVhttpVersion
p1904
VHTTP/1.1
p1905
ssa(dp1906
Vcomment
p1907
g4
sVserverIPAddress
p1908
V216.58.216.196
p1909
sVpageref
p1910
VThomas Gibson
p1911
sVstartedDateTime
p1912
V2017-04-16T08:06:12.895-05:00
p1913
sVcache
p1914
(dp1915
sVrequest
p1916
(dp1917
Vcomment
p1918
g4
sVcookies
p1919
(lp1920
sVurl
p1921
Vhttps://www.google.com/gen_204?atyp=i&ct=&cad=&vet=10ahUKEwih0f-0hanTAhWM5IMKHc7zC5AQ5W0IRCgG..s&ei=QWzzWOGsNIzJjwTO56-ACQ&zx=1492347972823
p1922
sVqueryString
p1923
(lp1924
(dp1925
Vname
p1926
Vatyp
p1927
sVvalue
p1928
g30
sa(dp1929
Vname
p1930
Vct
p1931
sVvalue
p1932
g4
sa(dp1933
Vname
p1934
Vcad
p1935
sVvalue
p1936
g4
sa(dp1937
Vname
p1938
Vvet
p1939
sVvalue
p1940
V10ahUKEwih0f-0hanTAhWM5IMKHc7zC5AQ5W0IRCgG..s
p1941
sa(dp1942
Vname
p1943
Vei
p1944
sVvalue
p1945
VQWzzWOGsNIzJjwTO56-ACQ
p1946
sa(dp1947
Vname
p1948
Vzx
p1949
sVvalue
p1950
V1492347972823
p1951
sasVheaders
p1952
(lp1953
sVheadersSize
p1954
I656
sVbodySize
p1955
I0
sVmethod
p1956
VGET
p1957
sVhttpVersion
p1958
VHTTP/1.1
p1959
ssVtimings
p1960
(dp1961
Vcomment
p1962
g4
sVreceive
p1963
I0
sVsend
p1964
I0
sVssl
p1965
I29
sVconnect
p1966
I67
sVdns
p1967
I0
sVwait
p1968
I26
sVblocked
p1969
I0
ssVtime
p1970
I94
sVresponse
p1971
(dp1972
Vstatus
p1973
I204
sVcomment
p1974
g4
sVcookies
p1975
(lp1976
sVstatusText
p1977
VNo Content
p1978
sVcontent
p1979
(dp1980
VmimeType
p1981
Vtext/html; charset=UTF-8
p1982
sVcomment
p1983
g4
sVsize
p1984
I0
ssVheaders
p1985
(lp1986
sVheadersSize
p1987
I248
sVredirectURL
p1988
g4
sVbodySize
p1989
I0
sVhttpVersion
p1990
VHTTP/1.1
p1991
ssa(dp1992
Vcomment
p1993
g4
sVserverIPAddress
p1994
V216.58.216.196
p1995
sVpageref
p1996
VThomas Gibson
p1997
sVstartedDateTime
p1998
V2017-04-16T08:06:12.895-05:00
p1999
sVcache
p2000
(dp2001
sVrequest
p2002
(dp2003
Vcomment
p2004
g4
sVcookies
p2005
(lp2006
sVurl
p2007
Vhttps://www.google.com/gen_204?atyp=i&ct=&cad=&vet=10ahUKEwih0f-0hanTAhWM5IMKHc7zC5AQlEsIgQEoBjAU..s&ei=QWzzWOGsNIzJjwTO56-ACQ&zx=1492347972881
p2008
sVqueryString
p2009
(lp2010
(dp2011
Vname
p2012
Vatyp
p2013
sVvalue
p2014
g30
sa(dp2015
Vname
p2016
Vct
p2017
sVvalue
p2018
g4
sa(dp2019
Vname
p2020
Vcad
p2021
sVvalue
p2022
g4
sa(dp2023
Vname
p2024
Vvet
p2025
sVvalue
p2026
V10ahUKEwih0f-0hanTAhWM5IMKHc7zC5AQlEsIgQEoBjAU..s
p2027
sa(dp2028
Vname
p2029
Vei
p2030
sVvalue
p2031
VQWzzWOGsNIzJjwTO56-ACQ
p2032
sa(dp2033
Vname
p2034
Vzx
p2035
sVvalue
p2036
V1492347972881
p2037
sasVheaders
p2038
(lp2039
sVheadersSize
p2040
I660
sVbodySize
p2041
I0
sVmethod
p2042
VGET
p2043
sVhttpVersion
p2044
VHTTP/1.1
p2045
ssVtimings
p2046
(dp2047
Vcomment
p2048
g4
sVreceive
p2049
I0
sVsend
p2050
I0
sVssl
p2051
I-1
sVconnect
p2052
I-1
sVdns
p2053
I-1
sVwait
p2054
I27
sVblocked
p2055
I-1
ssVtime
p2056
I28
sVresponse
p2057
(dp2058
Vstatus
p2059
I204
sVcomment
p2060
g4
sVcookies
p2061
(lp2062
sVstatusText
p2063
VNo Content
p2064
sVcontent
p2065
(dp2066
VmimeType
p2067
Vtext/html; charset=UTF-8
p2068
sVcomment
p2069
g4
sVsize
p2070
I0
ssVheaders
p2071
(lp2072
sVheadersSize
p2073
I248
sVredirectURL
p2074
g4
sVbodySize
p2075
I0
sVhttpVersion
p2076
VHTTP/1.1
p2077
ssa(dp2078
Vcomment
p2079
g4
sVserverIPAddress
p2080
V216.58.216.196
p2081
sVpageref
p2082
VThomas Gibson
p2083
sVstartedDateTime
p2084
V2017-04-16T08:06:12.896-05:00
p2085
sVcache
p2086
(dp2087
sVrequest
p2088
(dp2089
Vcomment
p2090
g4
sVcookies
p2091
(lp2092
sVurl
p2093
Vhttps://www.google.com/gen_204?atyp=i&ct=&cad=&vet=10ahUKEwih0f-0hanTAhWM5IMKHc7zC5AQlEsIgwEoBzAU..s&ei=QWzzWOGsNIzJjwTO56-ACQ&zx=1492347972885
p2094
sVqueryString
p2095
(lp2096
(dp2097
Vname
p2098
Vatyp
p2099
sVvalue
p2100
g30
sa(dp2101
Vname
p2102
Vct
p2103
sVvalue
p2104
g4
sa(dp2105
Vname
p2106
Vcad
p2107
sVvalue
p2108
g4
sa(dp2109
Vname
p2110
Vvet
p2111
sVvalue
p2112
V10ahUKEwih0f-0hanTAhWM5IMKHc7zC5AQlEsIgwEoBzAU..s
p2113
sa(dp2114
Vname
p2115
Vei
p2116
sVvalue
p2117
VQWzzWOGsNIzJjwTO56-ACQ
p2118
sa(dp2119
Vname
p2120
Vzx
p2121
sVvalue
p2122
V1492347972885
p2123
sasVheaders
p2124
(lp2125
sVheadersSize
p2126
I660
sVbodySize
p2127
I0
sVmethod
p2128
VGET
p2129
sVhttpVersion
p2130
VHTTP/1.1
p2131
ssVtimings
p2132
(dp2133
Vcomment
p2134
g4
sVreceive
p2135
I0
sVsend
p2136
I0
sVssl
p2137
I-1
sVconnect
p2138
I-1
sVdns
p2139
I-1
sVwait
p2140
I34
sVblocked
p2141
I-1
ssVtime
p2142
I34
sVresponse
p2143
(dp2144
Vstatus
p2145
I204
sVcomment
p2146
g4
sVcookies
p2147
(lp2148
sVstatusText
p2149
VNo Content
p2150
sVcontent
p2151
(dp2152
VmimeType
p2153
Vtext/html; charset=UTF-8
p2154
sVcomment
p2155
g4
sVsize
p2156
I0
ssVheaders
p2157
(lp2158
sVheadersSize
p2159
I248
sVredirectURL
p2160
g4
sVbodySize
p2161
I0
sVhttpVersion
p2162
VHTTP/1.1
p2163
ssa(dp2164
Vcomment
p2165
g4
sVserverIPAddress
p2166
V216.58.216.196
p2167
sVpageref
p2168
VThomas Gibson
p2169
sVstartedDateTime
p2170
V2017-04-16T08:06:12.897-05:00
p2171
sVcache
p2172
(dp2173
sVrequest
p2174
(dp2175
Vcomment
p2176
g4
sVcookies
p2177
(lp2178
sVurl
p2179
Vhttps://www.google.com/gen_204?atyp=i&ct=&cad=&vet=10ahUKEwih0f-0hanTAhWM5IMKHc7zC5AQvW4IhQEoCDAU..s&ei=QWzzWOGsNIzJjwTO56-ACQ&zx=1492347972889
p2180
sVqueryString
p2181
(lp2182
(dp2183
Vname
p2184
Vatyp
p2185
sVvalue
p2186
g30
sa(dp2187
Vname
p2188
Vct
p2189
sVvalue
p2190
g4
sa(dp2191
Vname
p2192
Vcad
p2193
sVvalue
p2194
g4
sa(dp2195
Vname
p2196
Vvet
p2197
sVvalue
p2198
V10ahUKEwih0f-0hanTAhWM5IMKHc7zC5AQvW4IhQEoCDAU..s
p2199
sa(dp2200
Vname
p2201
Vei
p2202
sVvalue
p2203
VQWzzWOGsNIzJjwTO56-ACQ
p2204
sa(dp2205
Vname
p2206
Vzx
p2207
sVvalue
p2208
V1492347972889
p2209
sasVheaders
p2210
(lp2211
sVheadersSize
p2212
I660
sVbodySize
p2213
I0
sVmethod
p2214
VGET
p2215
sVhttpVersion
p2216
VHTTP/1.1
p2217
ssVtimings
p2218
(dp2219
Vcomment
p2220
g4
sVreceive
p2221
I0
sVsend
p2222
I0
sVssl
p2223
I-1
sVconnect
p2224
I-1
sVdns
p2225
I-1
sVwait
p2226
I30
sVblocked
p2227
I-1
ssVtime
p2228
I30
sVresponse
p2229
(dp2230
Vstatus
p2231
I204
sVcomment
p2232
g4
sVcookies
p2233
(lp2234
sVstatusText
p2235
VNo Content
p2236
sVcontent
p2237
(dp2238
VmimeType
p2239
Vtext/html; charset=UTF-8
p2240
sVcomment
p2241
g4
sVsize
p2242
I0
ssVheaders
p2243
(lp2244
sVheadersSize
p2245
I248
sVredirectURL
p2246
g4
sVbodySize
p2247
I0
sVhttpVersion
p2248
VHTTP/1.1
p2249
ssa(dp2250
Vcomment
p2251
g4
sVserverIPAddress
p2252
V216.58.216.196
p2253
sVpageref
p2254
VThomas Gibson
p2255
sVstartedDateTime
p2256
V2017-04-16T08:06:12.965-05:00
p2257
sVcache
p2258
(dp2259
sVrequest
p2260
(dp2261
Vcomment
p2262
g4
sVcookies
p2263
(lp2264
sVurl
p2265
Vhttps://www.google.com/async/ampfp?vet=10ahUKEwih0f-0hanTAhWM5IMKHc7zC5AQtZoBCJYC..i&ei=QWzzWOGsNIzJjwTO56-ACQ&yv=2&async=_id:ampfp-async,_pms:qs
p2266
sVqueryString
p2267
(lp2268
(dp2269
Vname
p2270
Vvet
p2271
sVvalue
p2272
V10ahUKEwih0f-0hanTAhWM5IMKHc7zC5AQtZoBCJYC..i
p2273
sa(dp2274
Vname
p2275
Vei
p2276
sVvalue
p2277
VQWzzWOGsNIzJjwTO56-ACQ
p2278
sa(dp2279
Vname
p2280
Vyv
p2281
sVvalue
p2282
g64
sa(dp2283
Vname
p2284
Vasync
p2285
sVvalue
p2286
V_id:ampfp-async,_pms:qs
p2287
sasVheaders
p2288
(lp2289
sVheadersSize
p2290
I662
sVbodySize
p2291
I0
sVmethod
p2292
VGET
p2293
sVhttpVersion
p2294
VHTTP/1.1
p2295
ssVtimings
p2296
(dp2297
Vcomment
p2298
g4
sVreceive
p2299
I1
sVsend
p2300
I0
sVssl
p2301
I-1
sVconnect
p2302
I-1
sVdns
p2303
I-1
sVwait
p2304
I34
sVblocked
p2305
I-1
ssVtime
p2306
I35
sVresponse
p2307
(dp2308
Vstatus
p2309
I200
sVcomment
p2310
g4
sVcookies
p2311
(lp2312
sVstatusText
p2313
VOK
p2314
sVcontent
p2315
(dp2316
VmimeType
p2317
Vtext/html; charset=UTF-8
p2318
sVcomment
p2319
g4
sVsize
p2320
I0
ssVheaders
p2321
(lp2322
sVheadersSize
p2323
I383
sVredirectURL
p2324
g4
sVbodySize
p2325
I4526
sVhttpVersion
p2326
VHTTP/1.1
p2327
ssa(dp2328
Vcomment
p2329
g4
sVserverIPAddress
p2330
V216.58.216.193
p2331
sVpageref
p2332
VThomas Gibson
p2333
sVstartedDateTime
p2334
V2017-04-16T08:06:12.966-05:00
p2335
sVcache
p2336
(dp2337
sVrequest
p2338
(dp2339
Vcomment
p2340
g4
sVcookies
p2341
(lp2342
sVurl
p2343
Vhttps://cdn.ampproject.org/preconnect.gif?0.39738876441179194
p2344
sVqueryString
p2345
(lp2346
(dp2347
Vname
p2348
V0.39738876441179194
p2349
sVvalue
p2350
g4
sasVheaders
p2351
(lp2352
sVheadersSize
p2353
I376
sVbodySize
p2354
I0
sVmethod
p2355
VGET
p2356
sVhttpVersion
p2357
VHTTP/1.1
p2358
ssVtimings
p2359
(dp2360
Vcomment
p2361
g4
sVreceive
p2362
I0
sVsend
p2363
I0
sVssl
p2364
I-1
sVconnect
p2365
I-1
sVdns
p2366
I-1
sVwait
p2367
I25
sVblocked
p2368
I-1
ssVtime
p2369
I25
sVresponse
p2370
(dp2371
Vstatus
p2372
I200
sVcomment
p2373
g4
sVcookies
p2374
(lp2375
sVstatusText
p2376
VOK
p2377
sVcontent
p2378
(dp2379
VmimeType
p2380
Vimage/gif
p2381
sVcomment
p2382
g4
sVsize
p2383
I0
ssVheaders
p2384
(lp2385
sVheadersSize
p2386
I826
sVredirectURL
p2387
g4
sVbodySize
p2388
I37
sVhttpVersion
p2389
VHTTP/1.1
p2390
ssa(dp2391
Vcomment
p2392
g4
sVserverIPAddress
p2393
V216.58.216.206
p2394
sVpageref
p2395
VThomas Gibson
p2396
sVstartedDateTime
p2397
V2017-04-16T08:06:12.990-05:00
p2398
sVcache
p2399
(dp2400
sVrequest
p2401
(dp2402
Vcomment
p2403
g4
sVcookies
p2404
(lp2405
sVurl
p2406
Vhttps://encrypted-tbn3.gstatic.com/images?q=tbn:ANd9GcT17TsBuQlAMrHZWtdbRpicuFuYyeq3k4SMIJ0YTbO90EzNZCE-p3NSbPdC
p2407
sVqueryString
p2408
(lp2409
(dp2410
Vname
p2411
g415
sVvalue
p2412
Vtbn:ANd9GcT17TsBuQlAMrHZWtdbRpicuFuYyeq3k4SMIJ0YTbO90EzNZCE-p3NSbPdC
p2413
sasVheaders
p2414
(lp2415
sVheadersSize
p2416
I427
sVbodySize
p2417
I0
sVmethod
p2418
VGET
p2419
sVhttpVersion
p2420
VHTTP/1.1
p2421
ssVtimings
p2422
(dp2423
Vcomment
p2424
g4
sVreceive
p2425
I0
sVsend
p2426
I0
sVssl
p2427
I-1
sVconnect
p2428
I-1
sVdns
p2429
I-1
sVwait
p2430
I40
sVblocked
p2431
I-1
ssVtime
p2432
I40
sVresponse
p2433
(dp2434
Vstatus
p2435
I200
sVcomment
p2436
g4
sVcookies
p2437
(lp2438
sVstatusText
p2439
VOK
p2440
sVcontent
p2441
(dp2442
VmimeType
p2443
Vimage/jpeg
p2444
sVcomment
p2445
g4
sVsize
p2446
I0
ssVheaders
p2447
(lp2448
sVheadersSize
p2449
I415
sVredirectURL
p2450
g4
sVbodySize
p2451
I4139
sVhttpVersion
p2452
VHTTP/1.1
p2453
ssa(dp2454
Vcomment
p2455
g4
sVserverIPAddress
p2456
V216.58.216.206
p2457
sVpageref
p2458
VThomas Gibson
p2459
sVstartedDateTime
p2460
V2017-04-16T08:06:13.536-05:00
p2461
sVcache
p2462
(dp2463
sVrequest
p2464
(dp2465
Vcomment
p2466
g4
sVcookies
p2467
(lp2468
sVurl
p2469
Vhttps://encrypted-tbn2.gstatic.com/images?q=tbn:ANd9GcRArxkvYjjtDySbovL8hZw7WY8r5fxU8ap-kHFnsXXAzqkvU_n79HrnfpsU61c7A_Wchec
p2470
sVqueryString
p2471
(lp2472
(dp2473
Vname
p2474
g415
sVvalue
p2475
Vtbn:ANd9GcRArxkvYjjtDySbovL8hZw7WY8r5fxU8ap-kHFnsXXAzqkvU_n79HrnfpsU61c7A_Wchec
p2476
sasVheaders
p2477
(lp2478
sVheadersSize
p2479
I438
sVbodySize
p2480
I0
sVmethod
p2481
VGET
p2482
sVhttpVersion
p2483
VHTTP/1.1
p2484
ssVtimings
p2485
(dp2486
Vcomment
p2487
g4
sVreceive
p2488
I1
sVsend
p2489
I0
sVssl
p2490
I567
sVconnect
p2491
I587
sVdns
p2492
I46
sVwait
p2493
I24
sVblocked
p2494
I0
ssVtime
p2495
I659
sVresponse
p2496
(dp2497
Vstatus
p2498
I200
sVcomment
p2499
g4
sVcookies
p2500
(lp2501
sVstatusText
p2502
VOK
p2503
sVcontent
p2504
(dp2505
VmimeType
p2506
Vimage/jpeg
p2507
sVcomment
p2508
g4
sVsize
p2509
I0
ssVheaders
p2510
(lp2511
sVheadersSize
p2512
I415
sVredirectURL
p2513
g4
sVbodySize
p2514
I6180
sVhttpVersion
p2515
VHTTP/1.1
p2516
ssa(dp2517
Vcomment
p2518
g4
sVserverIPAddress
p2519
V216.58.216.196
p2520
sVpageref
p2521
VThomas Gibson
p2522
sVstartedDateTime
p2523
V2017-04-16T08:06:13.584-05:00
p2524
sVcache
p2525
(dp2526
sVrequest
p2527
(dp2528
Vcomment
p2529
g4
sVcookies
p2530
(lp2531
sVurl
p2532
Vhttps://www.google.com/async/log_amp_item_set?vet=10ahUKEwj_4YC2hanTAhXq7IMKHd3eCGYQooQBCAE..i&ei=QWzzWOGsNIzJjwTO56-ACQ&yv=2&async=num_items:1,_fmt:jspb
p2533
sVqueryString
p2534
(lp2535
(dp2536
Vname
p2537
Vvet
p2538
sVvalue
p2539
V10ahUKEwj_4YC2hanTAhXq7IMKHd3eCGYQooQBCAE..i
p2540
sa(dp2541
Vname
p2542
Vei
p2543
sVvalue
p2544
VQWzzWOGsNIzJjwTO56-ACQ
p2545
sa(dp2546
Vname
p2547
Vyv
p2548
sVvalue
p2549
g64
sa(dp2550
Vname
p2551
Vasync
p2552
sVvalue
p2553
Vnum_items:1,_fmt:jspb
p2554
sasVheaders
p2555
(lp2556
sVheadersSize
p2557
I670
sVbodySize
p2558
I0
sVmethod
p2559
VGET
p2560
sVhttpVersion
p2561
VHTTP/1.1
p2562
ssVtimings
p2563
(dp2564
Vcomment
p2565
g4
sVreceive
p2566
I0
sVsend
p2567
I0
sVssl
p2568
I-1
sVconnect
p2569
I-1
sVdns
p2570
I-1
sVwait
p2571
I30
sVblocked
p2572
I-1
ssVtime
p2573
I30
sVresponse
p2574
(dp2575
Vstatus
p2576
I200
sVcomment
p2577
g4
sVcookies
p2578
(lp2579
sVstatusText
p2580
VOK
p2581
sVcontent
p2582
(dp2583
VmimeType
p2584
Vapplication/json; charset=UTF-8
p2585
sVcomment
p2586
g4
sVsize
p2587
I0
ssVheaders
p2588
(lp2589
sVheadersSize
p2590
I417
sVredirectURL
p2591
g4
sVbodySize
p2592
I132
sVhttpVersion
p2593
VHTTP/1.1
p2594
ssa(dp2595
Vcomment
p2596
g4
sVserverIPAddress
p2597
V216.58.216.193
p2598
sVpageref
p2599
VThomas Gibson
p2600
sVstartedDateTime
p2601
V2017-04-16T08:06:14.326-05:00
p2602
sVcache
p2603
(dp2604
sVrequest
p2605
(dp2606
Vcomment
p2607
g4
sVcookies
p2608
(lp2609
sVurl
p2610
Vhttps://www-vanityfair-com.cdn.ampproject.org/v/www.vanityfair.com/hollywood/2016/08/shemar-moore-thomas-gibson-criminal-minds/amp?amp_js_v=9
p2611
sVqueryString
p2612
(lp2613
(dp2614
Vname
p2615
Vamp_js_v
p2616
sVvalue
p2617
V9
p2618
sasVheaders
p2619
(lp2620
sVheadersSize
p2621
I546
sVbodySize
p2622
I0
sVmethod
p2623
VGET
p2624
sVhttpVersion
p2625
VHTTP/1.1
p2626
ssVtimings
p2627
(dp2628
Vcomment
p2629
g4
sVreceive
p2630
I18
sVsend
p2631
I0
sVssl
p2632
I633
sVconnect
p2633
I647
sVdns
p2634
I85
sVwait
p2635
I110
sVblocked
p2636
I0
ssVtime
p2637
I862
sVresponse
p2638
(dp2639
Vstatus
p2640
I200
sVcomment
p2641
g4
sVcookies
p2642
(lp2643
sVstatusText
p2644
VOK
p2645
sVcontent
p2646
(dp2647
VmimeType
p2648
Vtext/html
p2649
sVcomment
p2650
g4
sVsize
p2651
I0
ssVheaders
p2652
(lp2653
sVheadersSize
p2654
I860
sVredirectURL
p2655
g4
sVbodySize
p2656
I15677
sVhttpVersion
p2657
VHTTP/1.1
p2658
ssa(dp2659
Vcomment
p2660
g4
sVserverIPAddress
p2661
V216.58.216.193
p2662
sVpageref
p2663
VThomas Gibson
p2664
sVstartedDateTime
p2665
V2017-04-16T08:06:14.480-05:00
p2666
sVcache
p2667
(dp2668
sVrequest
p2669
(dp2670
Vcomment
p2671
g4
sVcookies
p2672
(lp2673
sVurl
p2674
Vhttps://www-vanityfair-com.cdn.ampproject.org/r/www.vanityfair.com/shared-fonts/VFSans/VFSans-Book.woff2
p2675
sVqueryString
p2676
(lp2677
sVheaders
p2678
(lp2679
sVheadersSize
p2680
I591
sVbodySize
p2681
I0
sVmethod
p2682
VGET
p2683
sVhttpVersion
p2684
VHTTP/1.1
p2685
ssVtimings
p2686
(dp2687
Vcomment
p2688
g4
sVreceive
p2689
I15
sVsend
p2690
I0
sVssl
p2691
I-1
sVconnect
p2692
I-1
sVdns
p2693
I-1
sVwait
p2694
I28
sVblocked
p2695
I-1
ssVtime
p2696
I44
sVresponse
p2697
(dp2698
Vstatus
p2699
I200
sVcomment
p2700
g4
sVcookies
p2701
(lp2702
sVstatusText
p2703
VOK
p2704
sVcontent
p2705
(dp2706
VmimeType
p2707
Vapplication/font-woff2
p2708
sVcomment
p2709
g4
sVsize
p2710
I0
ssVheaders
p2711
(lp2712
sVheadersSize
p2713
I864
sVredirectURL
p2714
g4
sVbodySize
p2715
I20004
sVhttpVersion
p2716
VHTTP/1.1
p2717
ssa(dp2718
Vcomment
p2719
g4
sVserverIPAddress
p2720
V216.58.216.193
p2721
sVpageref
p2722
VThomas Gibson
p2723
sVstartedDateTime
p2724
V2017-04-16T08:06:14.536-05:00
p2725
sVcache
p2726
(dp2727
sVrequest
p2728
(dp2729
Vcomment
p2730
g4
sVcookies
p2731
(lp2732
sVurl
p2733
Vhttps://www-vanityfair-com.cdn.ampproject.org/r/www.vanityfair.com/shared-fonts/VF-Didot-3/VF-Didot-3-Web-Regular.woff2
p2734
sVqueryString
p2735
(lp2736
sVheaders
p2737
(lp2738
sVheadersSize
p2739
I606
sVbodySize
p2740
I0
sVmethod
p2741
VGET
p2742
sVhttpVersion
p2743
VHTTP/1.1
p2744
ssVtimings
p2745
(dp2746
Vcomment
p2747
g4
sVreceive
p2748
I42
sVsend
p2749
I0
sVssl
p2750
I27
sVconnect
p2751
I48
sVdns
p2752
I0
sVwait
p2753
I68
sVblocked
p2754
I0
ssVtime
p2755
I159
sVresponse
p2756
(dp2757
Vstatus
p2758
I200
sVcomment
p2759
g4
sVcookies
p2760
(lp2761
sVstatusText
p2762
VOK
p2763
sVcontent
p2764
(dp2765
VmimeType
p2766
Vapplication/font-woff2
p2767
sVcomment
p2768
g4
sVsize
p2769
I0
ssVheaders
p2770
(lp2771
sVheadersSize
p2772
I864
sVredirectURL
p2773
g4
sVbodySize
p2774
I47744
sVhttpVersion
p2775
VHTTP/1.1
p2776
ssa(dp2777
Vcomment
p2778
g4
sVserverIPAddress
p2779
V216.58.216.193
p2780
sVpageref
p2781
VThomas Gibson
p2782
sVstartedDateTime
p2783
V2017-04-16T08:06:14.541-05:00
p2784
sVcache
p2785
(dp2786
sVrequest
p2787
(dp2788
Vcomment
p2789
g4
sVcookies
p2790
(lp2791
sVurl
p2792
Vhttps://www-vanityfair-com.cdn.ampproject.org/r/www.vanityfair.com/shared-fonts/VF-Didot-3/VF-Didot-3-Web-Regular-Italic.woff2
p2793
sVqueryString
p2794
(lp2795
sVheaders
p2796
(lp2797
sVheadersSize
p2798
I613
sVbodySize
p2799
I0
sVmethod
p2800
VGET
p2801
sVhttpVersion
p2802
VHTTP/1.1
p2803
ssVtimings
p2804
(dp2805
Vcomment
p2806
g4
sVreceive
p2807
I42
sVsend
p2808
I0
sVssl
p2809
I24
sVconnect
p2810
I52
sVdns
p2811
I0
sVwait
p2812
I61
sVblocked
p2813
I0
ssVtime
p2814
I156
sVresponse
p2815
(dp2816
Vstatus
p2817
I200
sVcomment
p2818
g4
sVcookies
p2819
(lp2820
sVstatusText
p2821
VOK
p2822
sVcontent
p2823
(dp2824
VmimeType
p2825
Vapplication/font-woff2
p2826
sVcomment
p2827
g4
sVsize
p2828
I0
ssVheaders
p2829
(lp2830
sVheadersSize
p2831
I864
sVredirectURL
p2832
g4
sVbodySize
p2833
I56092
sVhttpVersion
p2834
VHTTP/1.1
p2835
ssa(dp2836
Vcomment
p2837
g4
sVserverIPAddress
p2838
V216.58.216.193
p2839
sVpageref
p2840
VThomas Gibson
p2841
sVstartedDateTime
p2842
V2017-04-16T08:06:14.541-05:00
p2843
sVcache
p2844
(dp2845
sVrequest
p2846
(dp2847
Vcomment
p2848
g4
sVcookies
p2849
(lp2850
sVurl
p2851
Vhttps://www-vanityfair-com.cdn.ampproject.org/r/www.vanityfair.com/shared-fonts/VF-Didot-6/VF-Didot-6-Web-Regular.woff2
p2852
sVqueryString
p2853
(lp2854
sVheaders
p2855
(lp2856
sVheadersSize
p2857
I606
sVbodySize
p2858
I0
sVmethod
p2859
VGET
p2860
sVhttpVersion
p2861
VHTTP/1.1
p2862
ssVtimings
p2863
(dp2864
Vcomment
p2865
g4
sVreceive
p2866
I44
sVsend
p2867
I0
sVssl
p2868
I23
sVconnect
p2869
I48
sVdns
p2870
I0
sVwait
p2871
I68
sVblocked
p2872
I0
ssVtime
p2873
I161
sVresponse
p2874
(dp2875
Vstatus
p2876
I200
sVcomment
p2877
g4
sVcookies
p2878
(lp2879
sVstatusText
p2880
VOK
p2881
sVcontent
p2882
(dp2883
VmimeType
p2884
Vapplication/font-woff2
p2885
sVcomment
p2886
g4
sVsize
p2887
I0
ssVheaders
p2888
(lp2889
sVheadersSize
p2890
I864
sVredirectURL
p2891
g4
sVbodySize
p2892
I59712
sVhttpVersion
p2893
VHTTP/1.1
p2894
ssa(dp2895
Vcomment
p2896
g4
sVserverIPAddress
p2897
V216.58.216.193
p2898
sVpageref
p2899
VThomas Gibson
p2900
sVstartedDateTime
p2901
V2017-04-16T08:06:14.543-05:00
p2902
sVcache
p2903
(dp2904
sVrequest
p2905
(dp2906
Vcomment
p2907
g4
sVcookies
p2908
(lp2909
sVurl
p2910
Vhttps://www-vanityfair-com.cdn.ampproject.org/r/www.vanityfair.com/shared-fonts/VFSans-MD/VFSans-Medium.woff2
p2911
sVqueryString
p2912
(lp2913
sVheaders
p2914
(lp2915
sVheadersSize
p2916
I596
sVbodySize
p2917
I0
sVmethod
p2918
VGET
p2919
sVhttpVersion
p2920
VHTTP/1.1
p2921
ssVtimings
p2922
(dp2923
Vcomment
p2924
g4
sVreceive
p2925
I27
sVsend
p2926
I0
sVssl
p2927
I26
sVconnect
p2928
I51
sVdns
p2929
I0
sVwait
p2930
I70
sVblocked
p2931
I0
ssVtime
p2932
I149
sVresponse
p2933
(dp2934
Vstatus
p2935
I200
sVcomment
p2936
g4
sVcookies
p2937
(lp2938
sVstatusText
p2939
VOK
p2940
sVcontent
p2941
(dp2942
VmimeType
p2943
Vapplication/font-woff2
p2944
sVcomment
p2945
g4
sVsize
p2946
I0
ssVheaders
p2947
(lp2948
sVheadersSize
p2949
I864
sVredirectURL
p2950
g4
sVbodySize
p2951
I20676
sVhttpVersion
p2952
VHTTP/1.1
p2953
ssa(dp2954
Vcomment
p2955
g4
sVserverIPAddress
p2956
V216.58.216.196
p2957
sVpageref
p2958
VThomas Gibson
p2959
sVstartedDateTime
p2960
V2017-04-16T08:06:14.754-05:00
p2961
sVcache
p2962
(dp2963
sVrequest
p2964
(dp2965
Vcomment
p2966
g4
sVcookies
p2967
(lp2968
sVurl
p2969
Vhttps://www.google.com/gen_204?s=amp&atyp=csi&ei=QWzzWOGsNIzJjwTO56-ACQ&ampexp=011492014732688&action=Prerender&rt=msr.171,is.984,mbv.1102,e_is.1102
p2970
sVqueryString
p2971
(lp2972
(dp2973
Vname
p2974
g57
sVvalue
p2975
Vamp
p2976
sa(dp2977
Vname
p2978
Vatyp
p2979
sVvalue
p2980
Vcsi
p2981
sa(dp2982
Vname
p2983
Vei
p2984
sVvalue
p2985
VQWzzWOGsNIzJjwTO56-ACQ
p2986
sa(dp2987
Vname
p2988
Vampexp
p2989
sVvalue
p2990
V011492014732688
p2991
sa(dp2992
Vname
p2993
Vaction
p2994
sVvalue
p2995
VPrerender
p2996
sa(dp2997
Vname
p2998
Vrt
p2999
sVvalue
p3000
Vmsr.171,is.984,mbv.1102,e_is.1102
p3001
sasVheaders
p3002
(lp3003
sVheadersSize
p3004
I665
sVbodySize
p3005
I0
sVmethod
p3006
VGET
p3007
sVhttpVersion
p3008
VHTTP/1.1
p3009
ssVtimings
p3010
(dp3011
Vcomment
p3012
g4
sVreceive
p3013
I0
sVsend
p3014
I0
sVssl
p3015
I-1
sVconnect
p3016
I-1
sVdns
p3017
I-1
sVwait
p3018
I34
sVblocked
p3019
I-1
ssVtime
p3020
I34
sVresponse
p3021
(dp3022
Vstatus
p3023
I204
sVcomment
p3024
g4
sVcookies
p3025
(lp3026
sVstatusText
p3027
VNo Content
p3028
sVcontent
p3029
(dp3030
VmimeType
p3031
Vtext/html; charset=UTF-8
p3032
sVcomment
p3033
g4
sVsize
p3034
I0
ssVheaders
p3035
(lp3036
sVheadersSize
p3037
I248
sVredirectURL
p3038
g4
sVbodySize
p3039
I0
sVhttpVersion
p3040
VHTTP/1.1
p3041
ssa(dp3042
Vcomment
p3043
g4
sVserverIPAddress
p3044
V216.58.216.196
p3045
sVpageref
p3046
VThomas Gibson
p3047
sVstartedDateTime
p3048
V2017-04-16T08:06:14.930-05:00
p3049
sVcache
p3050
(dp3051
sVrequest
p3052
(dp3053
Vcomment
p3054
g4
sVcookies
p3055
(lp3056
sVurl
p3057
Vhttps://www.google.com/gen_204?atyp=i&ct=slh&cad=&ei=LGzzWICSMITBjwTwqauABw&m=V&t=C&s=1&v=2&pv=0.8744972322685749&me=1:1492347951640,x:1,V,0,0,1280,944:0,N,1,LGzzWICSMITBjwTwqauABw:0,R,1,24,8,155,1249,1088:0,R,1,25,8,155,1249,1088:0,R,1,29,8,168,1249,40:0,R,1,46,8,267,1249,178:0,R,1,49,0,283,1265,197:0,R,1,89,8,462,1249,40:0,R,1,90,24,462,1217,40:0,R,1,100,8,518,1249,20:0,R,1,112,8,558,1249,310:0,R,1,113,0,603,1265,285:0,R,1,145,8,913,1249,263:0,R,1,146,0,913,1265,283:2,B,4338:18492,e,U&zx=1492347974928
p3058
sVqueryString
p3059
(lp3060
(dp3061
Vname
p3062
Vatyp
p3063
sVvalue
p3064
g30
sa(dp3065
Vname
p3066
Vct
p3067
sVvalue
p3068
Vslh
p3069
sa(dp3070
Vname
p3071
Vcad
p3072
sVvalue
p3073
g4
sa(dp3074
Vname
p3075
Vei
p3076
sVvalue
p3077
VLGzzWICSMITBjwTwqauABw
p3078
sa(dp3079
Vname
p3080
g47
sVvalue
p3081
g49
sa(dp3082
Vname
p3083
g52
sVvalue
p3084
g54
sa(dp3085
Vname
p3086
g57
sVvalue
p3087
g59
sa(dp3088
Vname
p3089
g62
sVvalue
p3090
g64
sa(dp3091
Vname
p3092
Vpv
p3093
sVvalue
p3094
V0.8744972322685749
p3095
sa(dp3096
Vname
p3097
Vme
p3098
sVvalue
p3099
V1:1492347951640,x:1,V,0,0,1280,944:0,N,1,LGzzWICSMITBjwTwqauABw:0,R,1,24,8,155,1249,1088:0,R,1,25,8,155,1249,1088:0,R,1,29,8,168,1249,40:0,R,1,46,8,267,1249,178:0,R,1,49,0,283,1265,197:0,R,1,89,8,462,1249,40:0,R,1,90,24,462,1217,40:0,R,1,100,8,518,1249,20:0,R,1,112,8,558,1249,310:0,R,1,113,0,603,1265,285:0,R,1,145,8,913,1249,263:0,R,1,146,0,913,1265,283:2,B,4338:18492,e,U
p3100
sa(dp3101
Vname
p3102
Vzx
p3103
sVvalue
p3104
V1492347974928
p3105
sasVheaders
p3106
(lp3107
sVheadersSize
p3108
I1025
sVbodySize
p3109
I0
sVmethod
p3110
VGET
p3111
sVhttpVersion
p3112
VHTTP/1.1
p3113
ssVtimings
p3114
(dp3115
Vcomment
p3116
g4
sVreceive
p3117
I0
sVsend
p3118
I0
sVssl
p3119
I-1
sVconnect
p3120
I-1
sVdns
p3121
I-1
sVwait
p3122
I80
sVblocked
p3123
I-1
ssVtime
p3124
I81
sVresponse
p3125
(dp3126
Vstatus
p3127
I204
sVcomment
p3128
g4
sVcookies
p3129
(lp3130
sVstatusText
p3131
VNo Content
p3132
sVcontent
p3133
(dp3134
VmimeType
p3135
Vtext/html; charset=UTF-8
p3136
sVcomment
p3137
g4
sVsize
p3138
I0
ssVheaders
p3139
(lp3140
sVheadersSize
p3141
I248
sVredirectURL
p3142
g4
sVbodySize
p3143
I0
sVhttpVersion
p3144
VHTTP/1.1
p3145
ssa(dp3146
Vcomment
p3147
g4
sVserverIPAddress
p3148
V216.58.216.193
p3149
sVpageref
p3150
VThomas Gibson
p3151
sVstartedDateTime
p3152
V2017-04-16T08:06:16.074-05:00
p3153
sVcache
p3154
(dp3155
sVrequest
p3156
(dp3157
Vcomment
p3158
g4
sVcookies
p3159
(lp3160
sVurl
p3161
Vhttps://media-vanityfair-com.cdn.ampproject.org/i/s/media.vanityfair.com/photos/57b1ca237a51b09e1bf3483f/master/w_1200,c_limit/thomas-gibson-shemar-moore.jpg
p3162
sVqueryString
p3163
(lp3164
sVheaders
p3165
(lp3166
sVheadersSize
p3167
I590
sVbodySize
p3168
I0
sVmethod
p3169
VGET
p3170
sVhttpVersion
p3171
VHTTP/1.1
p3172
ssVtimings
p3173
(dp3174
Vcomment
p3175
g4
sVreceive
p3176
I59
sVsend
p3177
I0
sVssl
p3178
I1266
sVconnect
p3179
I1283
sVdns
p3180
I116
sVwait
p3181
I128
sVblocked
p3182
I0
ssVtime
p3183
I1588
sVresponse
p3184
(dp3185
Vstatus
p3186
I200
sVcomment
p3187
g4
sVcookies
p3188
(lp3189
sVstatusText
p3190
VOK
p3191
sVcontent
p3192
(dp3193
VmimeType
p3194
Vimage/jpeg
p3195
sVcomment
p3196
g4
sVsize
p3197
I0
ssVheaders
p3198
(lp3199
sVheadersSize
p3200
I845
sVredirectURL
p3201
g4
sVbodySize
p3202
I125015
sVhttpVersion
p3203
VHTTP/1.1
p3204
ssa(dp3205
Vcomment
p3206
g4
sVserverIPAddress
p3207
V216.58.216.196
p3208
sVpageref
p3209
VThomas Gibson
p3210
sVstartedDateTime
p3211
V2017-04-16T08:06:16.278-05:00
p3212
sVcache
p3213
(dp3214
sVrequest
p3215
(dp3216
Vcomment
p3217
g4
sVcookies
p3218
(lp3219
sVurl
p3220
Vhttps://www.google.com/gen_204?s=web&atyp=csi&ei=QWzzWOGsNIzJjwTO56-ACQ&imc=47&imn=47&imp=27&adh=&xjs=init.54.14.sb_mob.43.dvl.5.c.2.mbsf.1.r.1&ima=18&rt=prt.694,iml.824,xjsls.694,dcl.800,qiml.1024,xjses.951,xjsee.1147,xjs.1148,ol.5322,aft.824,wsrt.113,cst.0,dnst.0,rqst.779,rspt.683,rqstt.5,unt.4,cstt.4,dit.824
p3221
sVqueryString
p3222
(lp3223
(dp3224
Vname
p3225
g57
sVvalue
p3226
Vweb
p3227
sa(dp3228
Vname
p3229
Vatyp
p3230
sVvalue
p3231
Vcsi
p3232
sa(dp3233
Vname
p3234
Vei
p3235
sVvalue
p3236
VQWzzWOGsNIzJjwTO56-ACQ
p3237
sa(dp3238
Vname
p3239
Vimc
p3240
sVvalue
p3241
V47
p3242
sa(dp3243
Vname
p3244
Vimn
p3245
sVvalue
p3246
V47
p3247
sa(dp3248
Vname
p3249
Vimp
p3250
sVvalue
p3251
V27
p3252
sa(dp3253
Vname
p3254
Vadh
p3255
sVvalue
p3256
g4
sa(dp3257
Vname
p3258
Vxjs
p3259
sVvalue
p3260
Vinit.54.14.sb_mob.43.dvl.5.c.2.mbsf.1.r.1
p3261
sa(dp3262
Vname
p3263
Vima
p3264
sVvalue
p3265
V18
p3266
sa(dp3267
Vname
p3268
Vrt
p3269
sVvalue
p3270
Vprt.694,iml.824,xjsls.694,dcl.800,qiml.1024,xjses.951,xjsee.1147,xjs.1148,ol.5322,aft.824,wsrt.113,cst.0,dnst.0,rqst.779,rspt.683,rqstt.5,unt.4,cstt.4,dit.824
p3271
sasVheaders
p3272
(lp3273
sVheadersSize
p3274
I829
sVbodySize
p3275
I0
sVmethod
p3276
VGET
p3277
sVhttpVersion
p3278
VHTTP/1.1
p3279
ssVtimings
p3280
(dp3281
Vcomment
p3282
g4
sVreceive
p3283
I0
sVsend
p3284
I0
sVssl
p3285
I-1
sVconnect
p3286
I-1
sVdns
p3287
I-1
sVwait
p3288
I44
sVblocked
p3289
I-1
ssVtime
p3290
I45
sVresponse
p3291
(dp3292
Vstatus
p3293
I204
sVcomment
p3294
g4
sVcookies
p3295
(lp3296
sVstatusText
p3297
VNo Content
p3298
sVcontent
p3299
(dp3300
VmimeType
p3301
Vtext/html; charset=UTF-8
p3302
sVcomment
p3303
g4
sVsize
p3304
I0
ssVheaders
p3305
(lp3306
sVheadersSize
p3307
I248
sVredirectURL
p3308
g4
sVbodySize
p3309
I0
sVhttpVersion
p3310
VHTTP/1.1
p3311
ssa(dp3312
Vcomment
p3313
g4
sVserverIPAddress
p3314
V216.58.216.196
p3315
sVpageref
p3316
VThomas Gibson
p3317
sVstartedDateTime
p3318
V2017-04-16T08:06:16.282-05:00
p3319
sVcache
p3320
(dp3321
sVrequest
p3322
(dp3323
Vcomment
p3324
g4
sVcookies
p3325
(lp3326
sVurl
p3327
Vhttps://www.google.com/gen_204?s=amp&atyp=csi&ei=QWzzWOGsNIzJjwTO56-ACQ&ampexp=011492014732688&action=Prerender&rt=pc.1
p3328
sVqueryString
p3329
(lp3330
(dp3331
Vname
p3332
g57
sVvalue
p3333
Vamp
p3334
sa(dp3335
Vname
p3336
Vatyp
p3337
sVvalue
p3338
Vcsi
p3339
sa(dp3340
Vname
p3341
Vei
p3342
sVvalue
p3343
VQWzzWOGsNIzJjwTO56-ACQ
p3344
sa(dp3345
Vname
p3346
Vampexp
p3347
sVvalue
p3348
V011492014732688
p3349
sa(dp3350
Vname
p3351
Vaction
p3352
sVvalue
p3353
VPrerender
p3354
sa(dp3355
Vname
p3356
Vrt
p3357
sVvalue
p3358
Vpc.1
p3359
sasVheaders
p3360
(lp3361
sVheadersSize
p3362
I636
sVbodySize
p3363
I0
sVmethod
p3364
VGET
p3365
sVhttpVersion
p3366
VHTTP/1.1
p3367
ssVtimings
p3368
(dp3369
Vcomment
p3370
g4
sVreceive
p3371
I0
sVsend
p3372
I0
sVssl
p3373
I-1
sVconnect
p3374
I-1
sVdns
p3375
I-1
sVwait
p3376
I41
sVblocked
p3377
I-1
ssVtime
p3378
I41
sVresponse
p3379
(dp3380
Vstatus
p3381
I204
sVcomment
p3382
g4
sVcookies
p3383
(lp3384
sVstatusText
p3385
VNo Content
p3386
sVcontent
p3387
(dp3388
VmimeType
p3389
Vtext/html; charset=UTF-8
p3390
sVcomment
p3391
g4
sVsize
p3392
I0
ssVheaders
p3393
(lp3394
sVheadersSize
p3395
I248
sVredirectURL
p3396
g4
sVbodySize
p3397
I0
sVhttpVersion
p3398
VHTTP/1.1
p3399
ssa(dp3400
Vcomment
p3401
g4
sVserverIPAddress
p3402
V216.58.216.196
p3403
sVpageref
p3404
VThomas Gibson
p3405
sVstartedDateTime
p3406
V2017-04-16T08:06:16.288-05:00
p3407
sVcache
p3408
(dp3409
sVrequest
p3410
(dp3411
Vcomment
p3412
g4
sVcookies
p3413
(lp3414
sVurl
p3415
Vhttps://www.google.com/gen_204?s=amp&atyp=csi&ei=QWzzWOGsNIzJjwTO56-ACQ&ampexp=011492014732688&action=Prerender&rt=ol.2691
p3416
sVqueryString
p3417
(lp3418
(dp3419
Vname
p3420
g57
sVvalue
p3421
Vamp
p3422
sa(dp3423
Vname
p3424
Vatyp
p3425
sVvalue
p3426
Vcsi
p3427
sa(dp3428
Vname
p3429
Vei
p3430
sVvalue
p3431
VQWzzWOGsNIzJjwTO56-ACQ
p3432
sa(dp3433
Vname
p3434
Vampexp
p3435
sVvalue
p3436
V011492014732688
p3437
sa(dp3438
Vname
p3439
Vaction
p3440
sVvalue
p3441
VPrerender
p3442
sa(dp3443
Vname
p3444
Vrt
p3445
sVvalue
p3446
Vol.2691
p3447
sasVheaders
p3448
(lp3449
sVheadersSize
p3450
I639
sVbodySize
p3451
I0
sVmethod
p3452
VGET
p3453
sVhttpVersion
p3454
VHTTP/1.1
p3455
ssVtimings
p3456
(dp3457
Vcomment
p3458
g4
sVreceive
p3459
I0
sVsend
p3460
I0
sVssl
p3461
I-1
sVconnect
p3462
I-1
sVdns
p3463
I-1
sVwait
p3464
I35
sVblocked
p3465
I-1
ssVtime
p3466
I35
sVresponse
p3467
(dp3468
Vstatus
p3469
I204
sVcomment
p3470
g4
sVcookies
p3471
(lp3472
sVstatusText
p3473
VNo Content
p3474
sVcontent
p3475
(dp3476
VmimeType
p3477
Vtext/html; charset=UTF-8
p3478
sVcomment
p3479
g4
sVsize
p3480
I0
ssVheaders
p3481
(lp3482
sVheadersSize
p3483
I248
sVredirectURL
p3484
g4
sVbodySize
p3485
I0
sVhttpVersion
p3486
VHTTP/1.1
p3487
ssasVversion
p3488
V1.2
p3489
sVpages
p3490
(lp3491
(dp3492
VpageTimings
p3493
(dp3494
Vcomment
p3495
g4
ssVcomment
p3496
g4
sVtitle
p3497
VThomas Gibson
p3498
sVid
p3499
VThomas Gibson
p3500
sVstartedDateTime
p3501
V2017-04-16T08:06:10.127-05:00
p3502
sasVcreator
p3503
(dp3504
Vcomment
p3505
g4
sVversion
p3506
V2.1.4
p3507
sVname
p3508
VBrowserMob Proxy
p3509
sss.