(dp0
Vlog
p1
(dp2
Vcomment
p3
V
p4
sVentries
p5
(lp6
(dp7
Vcomment
p8
g4
sVserverIPAddress
p9
V216.58.216.196
p10
sVpageref
p11
VDallas Mavericks
p12
sVstartedDateTime
p13
V2017-04-16T08:35:52.904-05:00
p14
sVcache
p15
(dp16
sVrequest
p17
(dp18
Vcomment
p19
g4
sVcookies
p20
(lp21
sVurl
p22
Vhttps://www.google.com/gen_204?atyp=i&ct=slh&cad=&ei=JnPzWNf_J-GpjwS4p5moDg&m=V&t=C&s=1&v=2&pv=0.7815038290464398&me=1:1492349738045,x:2,V,0,0,1280,944:0,N,1,JnPzWNf_J-GpjwS4p5moDg:0,R,1,24,8,155,1249,251:0,R,1,34,8,416,1249,677:0,R,1,35,8,416,1249,677:0,R,1,38,8,429,1249,40:0,R,1,51,8,481,1249,178:0,R,1,54,0,497,1265,197:0,R,1,94,8,676,1249,40:0,R,1,95,24,676,1217,40:0,R,1,100,8,732,1249,20:0,R,1,103,8,760,1249,20:0,R,1,114,8,800,1249,220:0,R,1,115,8,849,1249,171:7,B,3212:14847,e,U&zx=1492349752902
p23
sVqueryString
p24
(lp25
(dp26
Vname
p27
Vatyp
p28
sVvalue
p29
Vi
p30
sa(dp31
Vname
p32
Vct
p33
sVvalue
p34
Vslh
p35
sa(dp36
Vname
p37
Vcad
p38
sVvalue
p39
g4
sa(dp40
Vname
p41
Vei
p42
sVvalue
p43
VJnPzWNf_J-GpjwS4p5moDg
p44
sa(dp45
Vname
p46
Vm
p47
sVvalue
p48
VV
p49
sa(dp50
Vname
p51
Vt
p52
sVvalue
p53
VC
p54
sa(dp55
Vname
p56
Vs
p57
sVvalue
p58
V1
p59
sa(dp60
Vname
p61
Vv
p62
sVvalue
p63
V2
p64
sa(dp65
Vname
p66
Vpv
p67
sVvalue
p68
V0.7815038290464398
p69
sa(dp70
Vname
p71
Vme
p72
sVvalue
p73
V1:1492349738045,x:2,V,0,0,1280,944:0,N,1,JnPzWNf_J-GpjwS4p5moDg:0,R,1,24,8,155,1249,251:0,R,1,34,8,416,1249,677:0,R,1,35,8,416,1249,677:0,R,1,38,8,429,1249,40:0,R,1,51,8,481,1249,178:0,R,1,54,0,497,1265,197:0,R,1,94,8,676,1249,40:0,R,1,95,24,676,1217,40:0,R,1,100,8,732,1249,20:0,R,1,103,8,760,1249,20:0,R,1,114,8,800,1249,220:0,R,1,115,8,849,1249,171:7,B,3212:14847,e,U
p74
sa(dp75
Vname
p76
Vzx
p77
sVvalue
p78
V1492349752902
p79
sasVheaders
p80
(lp81
sVheadersSize
p82
I1021
sVbodySize
p83
I0
sVmethod
p84
VGET
p85
sVhttpVersion
p86
VHTTP/1.1
p87
ssVtimings
p88
(dp89
Vcomment
p90
g4
sVreceive
p91
I0
sVsend
p92
I0
sVssl
p93
I-1
sVconnect
p94
I-1
sVdns
p95
I-1
sVwait
p96
I0
sVblocked
p97
I-1
ssVtime
p98
I0
sVresponse
p99
(dp100
Vstatus
p101
I0
sVcomment
p102
g4
sVcookies
p103
(lp104
sV_error
p105
VNo response received
p106
sVstatusText
p107
g4
sVcontent
p108
(dp109
VmimeType
p110
g4
sVcomment
p111
g4
sVsize
p112
I0
ssVheaders
p113
(lp114
sVheadersSize
p115
I-1
sVredirectURL
p116
g4
sVbodySize
p117
I-1
sVhttpVersion
p118
Vunknown
p119
ssa(dp120
Vcomment
p121
g4
sVserverIPAddress
p122
V216.58.216.196
p123
sVpageref
p124
VDallas Mavericks
p125
sVstartedDateTime
p126
V2017-04-16T08:35:52.910-05:00
p127
sVcache
p128
(dp129
sVrequest
p130
(dp131
Vcomment
p132
g4
sVcookies
p133
(lp134
sVurl
p135
Vhttp://www.google.com/
p136
sVqueryString
p137
(lp138
sVheaders
p139
(lp140
sVheadersSize
p141
I613
sVbodySize
p142
I0
sVmethod
p143
VGET
p144
sVhttpVersion
p145
VHTTP/1.1
p146
ssVtimings
p147
(dp148
Vcomment
p149
g4
sVreceive
p150
I0
sVsend
p151
I0
sVssl
p152
I-1
sVconnect
p153
I-1
sVdns
p154
I-1
sVwait
p155
I56
sVblocked
p156
I-1
ssVtime
p157
I56
sVresponse
p158
(dp159
Vstatus
p160
I302
sVcomment
p161
g4
sVcookies
p162
(lp163
sVstatusText
p164
VFound
p165
sVcontent
p166
(dp167
VmimeType
p168
Vtext/html; charset=UTF-8
p169
sVcomment
p170
g4
sVsize
p171
I0
ssVheaders
p172
(lp173
sVheadersSize
p174
I609
sVredirectURL
p175
Vhttps://www.google.com/?gws_rd=ssl
p176
sVbodySize
p177
I231
sVhttpVersion
p178
VHTTP/1.1
p179
ssa(dp180
Vcomment
p181
g4
sVserverIPAddress
p182
V216.58.216.196
p183
sVpageref
p184
VDallas Mavericks
p185
sVstartedDateTime
p186
V2017-04-16T08:35:52.971-05:00
p187
sVcache
p188
(dp189
sVrequest
p190
(dp191
Vcomment
p192
g4
sVcookies
p193
(lp194
sVurl
p195
Vhttps://www.google.com/?gws_rd=ssl
p196
sVqueryString
p197
(lp198
(dp199
Vname
p200
Vgws_rd
p201
sVvalue
p202
Vssl
p203
sasVheaders
p204
(lp205
sVheadersSize
p206
I607
sVbodySize
p207
I0
sVmethod
p208
VGET
p209
sVhttpVersion
p210
VHTTP/1.1
p211
ssVtimings
p212
(dp213
Vcomment
p214
g4
sVreceive
p215
I23
sVsend
p216
I0
sVssl
p217
I-1
sVconnect
p218
I-1
sVdns
p219
I-1
sVwait
p220
I280
sVblocked
p221
I-1
ssVtime
p222
I305
sVresponse
p223
(dp224
Vstatus
p225
I200
sVcomment
p226
g4
sVcookies
p227
(lp228
sVstatusText
p229
VOK
p230
sVcontent
p231
(dp232
VmimeType
p233
Vtext/html; charset=UTF-8
p234
sVcomment
p235
g4
sVsize
p236
I0
ssVheaders
p237
(lp238
sVheadersSize
p239
I721
sVredirectURL
p240
g4
sVbodySize
p241
I34290
sVhttpVersion
p242
VHTTP/1.1
p243
ssa(dp244
Vcomment
p245
g4
sVserverIPAddress
p246
V216.58.216.196
p247
sVpageref
p248
VDallas Mavericks
p249
sVstartedDateTime
p250
V2017-04-16T08:35:53.257-05:00
p251
sVcache
p252
(dp253
sVrequest
p254
(dp255
Vcomment
p256
g4
sVcookies
p257
(lp258
sVurl
p259
Vhttps://www.google.com/gen_204?atyp=i&ct=slh&cad=&ei=JnPzWNf_J-GpjwS4p5moDg&s=2&v=2&pv=0.7815038290464398&me=18:1492349753255,e,H&zx=1492349753256
p260
sVqueryString
p261
(lp262
(dp263
Vname
p264
Vatyp
p265
sVvalue
p266
g30
sa(dp267
Vname
p268
Vct
p269
sVvalue
p270
Vslh
p271
sa(dp272
Vname
p273
Vcad
p274
sVvalue
p275
g4
sa(dp276
Vname
p277
Vei
p278
sVvalue
p279
VJnPzWNf_J-GpjwS4p5moDg
p280
sa(dp281
Vname
p282
g57
sVvalue
p283
g64
sa(dp284
Vname
p285
g62
sVvalue
p286
g64
sa(dp287
Vname
p288
Vpv
p289
sVvalue
p290
V0.7815038290464398
p291
sa(dp292
Vname
p293
Vme
p294
sVvalue
p295
V18:1492349753255,e,H
p296
sa(dp297
Vname
p298
Vzx
p299
sVvalue
p300
V1492349753256
p301
sasVheaders
p302
(lp303
sVheadersSize
p304
I663
sVbodySize
p305
I0
sVmethod
p306
VGET
p307
sVhttpVersion
p308
VHTTP/1.1
p309
ssVtimings
p310
(dp311
Vcomment
p312
g4
sVreceive
p313
I0
sVsend
p314
I0
sVssl
p315
I-1
sVconnect
p316
I-1
sVdns
p317
I-1
sVwait
p318
I33
sVblocked
p319
I-1
ssVtime
p320
I33
sVresponse
p321
(dp322
Vstatus
p323
I204
sVcomment
p324
g4
sVcookies
p325
(lp326
sVstatusText
p327
VNo Content
p328
sVcontent
p329
(dp330
VmimeType
p331
Vtext/html; charset=UTF-8
p332
sVcomment
p333
g4
sVsize
p334
I0
ssVheaders
p335
(lp336
sVheadersSize
p337
I248
sVredirectURL
p338
g4
sVbodySize
p339
I0
sVhttpVersion
p340
VHTTP/1.1
p341
ssa(dp342
Vcomment
p343
g4
sVserverIPAddress
p344
V216.58.216.196
p345
sVpageref
p346
VDallas Mavericks
p347
sVstartedDateTime
p348
V2017-04-16T08:35:53.625-05:00
p349
sVcache
p350
(dp351
sVrequest
p352
(dp353
Vcomment
p354
g4
sVcookies
p355
(lp356
sVurl
p357
Vhttps://www.google.com/gen_204?s=mobilewebhp&atyp=csi&ei=OHPzWOSMCeHLjwT-u6nIBw&imc=1&imn=1&imp=0&adh=&xjs=init.41.12.sb_mob.33.dvl.4.c.1.jsa.1.mbsf.1&ima=1&rt=xjsls.16,prt.17,iml.17,dcl.73,xjses.132,xjsee.249,xjs.250,ol.333,aft.17,wsrt.373,cst.0,dnst.0,rqst.306,rspt.24,rqstt.70,unt.67,cstt.67,dit.417
p358
sVqueryString
p359
(lp360
(dp361
Vname
p362
g57
sVvalue
p363
Vmobilewebhp
p364
sa(dp365
Vname
p366
Vatyp
p367
sVvalue
p368
Vcsi
p369
sa(dp370
Vname
p371
Vei
p372
sVvalue
p373
VOHPzWOSMCeHLjwT-u6nIBw
p374
sa(dp375
Vname
p376
Vimc
p377
sVvalue
p378
g59
sa(dp379
Vname
p380
Vimn
p381
sVvalue
p382
g59
sa(dp383
Vname
p384
Vimp
p385
sVvalue
p386
V0
p387
sa(dp388
Vname
p389
Vadh
p390
sVvalue
p391
g4
sa(dp392
Vname
p393
Vxjs
p394
sVvalue
p395
Vinit.41.12.sb_mob.33.dvl.4.c.1.jsa.1.mbsf.1
p396
sa(dp397
Vname
p398
Vima
p399
sVvalue
p400
g59
sa(dp401
Vname
p402
Vrt
p403
sVvalue
p404
Vxjsls.16,prt.17,iml.17,dcl.73,xjses.132,xjsee.249,xjs.250,ol.333,aft.17,wsrt.373,cst.0,dnst.0,rqst.306,rspt.24,rqstt.70,unt.67,cstt.67,dit.417
p405
sasVheaders
p406
(lp407
sVheadersSize
p408
I830
sVbodySize
p409
I0
sVmethod
p410
VGET
p411
sVhttpVersion
p412
VHTTP/1.1
p413
ssVtimings
p414
(dp415
Vcomment
p416
g4
sVreceive
p417
I0
sVsend
p418
I0
sVssl
p419
I-1
sVconnect
p420
I-1
sVdns
p421
I-1
sVwait
p422
I60
sVblocked
p423
I-1
ssVtime
p424
I60
sVresponse
p425
(dp426
Vstatus
p427
I204
sVcomment
p428
g4
sVcookies
p429
(lp430
sVstatusText
p431
VNo Content
p432
sVcontent
p433
(dp434
VmimeType
p435
Vtext/html; charset=UTF-8
p436
sVcomment
p437
g4
sVsize
p438
I0
ssVheaders
p439
(lp440
sVheadersSize
p441
I248
sVredirectURL
p442
g4
sVbodySize
p443
I0
sVhttpVersion
p444
VHTTP/1.1
p445
ssa(dp446
Vcomment
p447
g4
sVserverIPAddress
p448
V216.58.216.196
p449
sVpageref
p450
VDallas Mavericks
p451
sVstartedDateTime
p452
V2017-04-16T08:35:53.765-05:00
p453
sVcache
p454
(dp455
sVrequest
p456
(dp457
Vcomment
p458
g4
sVcookies
p459
(lp460
sVurl
p461
Vhttps://www.google.com/complete/search?client=mobile-gws-hp&hl=en&gs_rn=64&gs_ri=mobile-gws-hp&sla=1&pfq=duke%20blue%20devils&gm=602&cp=0&gs_id=1&xhr=t&q=D&tch=1&ech=1&psi=OHPzWOSMCeHLjwT-u6nIBw.1492349753484.1
p462
sVqueryString
p463
(lp464
(dp465
Vname
p466
Vclient
p467
sVvalue
p468
Vmobile-gws-hp
p469
sa(dp470
Vname
p471
Vhl
p472
sVvalue
p473
Ven
p474
sa(dp475
Vname
p476
Vgs_rn
p477
sVvalue
p478
V64
p479
sa(dp480
Vname
p481
Vgs_ri
p482
sVvalue
p483
Vmobile-gws-hp
p484
sa(dp485
Vname
p486
Vsla
p487
sVvalue
p488
g59
sa(dp489
Vname
p490
Vpfq
p491
sVvalue
p492
Vduke blue devils
p493
sa(dp494
Vname
p495
Vgm
p496
sVvalue
p497
V602
p498
sa(dp499
Vname
p500
Vcp
p501
sVvalue
p502
g387
sa(dp503
Vname
p504
Vgs_id
p505
sVvalue
p506
g59
sa(dp507
Vname
p508
Vxhr
p509
sVvalue
p510
g52
sa(dp511
Vname
p512
Vq
p513
sVvalue
p514
VD
p515
sa(dp516
Vname
p517
Vtch
p518
sVvalue
p519
g59
sa(dp520
Vname
p521
Vech
p522
sVvalue
p523
g59
sa(dp524
Vname
p525
Vpsi
p526
sVvalue
p527
VOHPzWOSMCeHLjwT-u6nIBw.1492349753484.1
p528
sasVheaders
p529
(lp530
sVheadersSize
p531
I738
sVbodySize
p532
I0
sVmethod
p533
VGET
p534
sVhttpVersion
p535
VHTTP/1.1
p536
ssVtimings
p537
(dp538
Vcomment
p539
g4
sVreceive
p540
I0
sVsend
p541
I0
sVssl
p542
I-1
sVconnect
p543
I-1
sVdns
p544
I-1
sVwait
p545
I0
sVblocked
p546
I-1
ssVtime
p547
I0
sVresponse
p548
(dp549
Vstatus
p550
I0
sVcomment
p551
g4
sVcookies
p552
(lp553
sV_error
p554
VNo response received
p555
sVstatusText
p556
g4
sVcontent
p557
(dp558
VmimeType
p559
g4
sVcomment
p560
g4
sVsize
p561
I0
ssVheaders
p562
(lp563
sVheadersSize
p564
I-1
sVredirectURL
p565
g4
sVbodySize
p566
I-1
sVhttpVersion
p567
Vunknown
p568
ssa(dp569
Vcomment
p570
g4
sVserverIPAddress
p571
V216.58.216.196
p572
sVpageref
p573
VDallas Mavericks
p574
sVstartedDateTime
p575
V2017-04-16T08:35:53.864-05:00
p576
sVcache
p577
(dp578
sVrequest
p579
(dp580
Vcomment
p581
g4
sVcookies
p582
(lp583
sVurl
p584
Vhttps://www.google.com/search?site=&source=hp&ei=OHPzWOSMCeHLjwT-u6nIBw&q=Dallas+Mavericks&oq=Dallas+Mavericks&gs_l=mobile-gws-hp.3...246.301.0.335.16.1.0.0.0.0.0.0..0.0....0...1c.1.64.mobile-gws-hp..16.0.0.vk8Ff26NX3E
p585
sVqueryString
p586
(lp587
(dp588
Vname
p589
Vsite
p590
sVvalue
p591
g4
sa(dp592
Vname
p593
Vsource
p594
sVvalue
p595
Vhp
p596
sa(dp597
Vname
p598
Vei
p599
sVvalue
p600
VOHPzWOSMCeHLjwT-u6nIBw
p601
sa(dp602
Vname
p603
g513
sVvalue
p604
VDallas Mavericks
p605
sa(dp606
Vname
p607
Voq
p608
sVvalue
p609
VDallas Mavericks
p610
sa(dp611
Vname
p612
Vgs_l
p613
sVvalue
p614
Vmobile-gws-hp.3...246.301.0.335.16.1.0.0.0.0.0.0..0.0....0...1c.1.64.mobile-gws-hp..16.0.0.vk8Ff26NX3E
p615
sasVheaders
p616
(lp617
sVheadersSize
p618
I836
sVbodySize
p619
I0
sVmethod
p620
VGET
p621
sVhttpVersion
p622
VHTTP/1.1
p623
ssVtimings
p624
(dp625
Vcomment
p626
g4
sVreceive
p627
I997
sVsend
p628
I0
sVssl
p629
I-1
sVconnect
p630
I-1
sVdns
p631
I-1
sVwait
p632
I111
sVblocked
p633
I-1
ssVtime
p634
I1109
sVresponse
p635
(dp636
Vstatus
p637
I200
sVcomment
p638
g4
sVcookies
p639
(lp640
sVstatusText
p641
VOK
p642
sVcontent
p643
(dp644
VmimeType
p645
Vtext/html; charset=UTF-8
p646
sVcomment
p647
g4
sVsize
p648
I0
ssVheaders
p649
(lp650
sVheadersSize
p651
I363
sVredirectURL
p652
g4
sVbodySize
p653
I149035
sVhttpVersion
p654
VHTTP/1.1
p655
ssa(dp656
Vcomment
p657
g4
sVserverIPAddress
p658
V216.58.216.195
p659
sVpageref
p660
VDallas Mavericks
p661
sVstartedDateTime
p662
V2017-04-16T08:35:54.849-05:00
p663
sVcache
p664
(dp665
sVrequest
p666
(dp667
Vcomment
p668
g4
sVcookies
p669
(lp670
sVurl
p671
Vhttps://ssl.gstatic.com/onebox/media/sports/logos/xxxlj9RpmAKJ9P9phstWCQ_48x48.png
p672
sVqueryString
p673
(lp674
sVheaders
p675
(lp676
sVheadersSize
p677
I397
sVbodySize
p678
I0
sVmethod
p679
VGET
p680
sVhttpVersion
p681
VHTTP/1.1
p682
ssVtimings
p683
(dp684
Vcomment
p685
g4
sVreceive
p686
I9
sVsend
p687
I0
sVssl
p688
I-1
sVconnect
p689
I-1
sVdns
p690
I-1
sVwait
p691
I37
sVblocked
p692
I-1
ssVtime
p693
I47
sVresponse
p694
(dp695
Vstatus
p696
I200
sVcomment
p697
g4
sVcookies
p698
(lp699
sVstatusText
p700
VOK
p701
sVcontent
p702
(dp703
VmimeType
p704
Vimage/png
p705
sVcomment
p706
g4
sVsize
p707
I0
ssVheaders
p708
(lp709
sVheadersSize
p710
I424
sVredirectURL
p711
g4
sVbodySize
p712
I4971
sVhttpVersion
p713
VHTTP/1.1
p714
ssa(dp715
Vcomment
p716
g4
sVserverIPAddress
p717
V216.58.216.195
p718
sVpageref
p719
VDallas Mavericks
p720
sVstartedDateTime
p721
V2017-04-16T08:35:54.849-05:00
p722
sVcache
p723
(dp724
sVrequest
p725
(dp726
Vcomment
p727
g4
sVcookies
p728
(lp729
sVurl
p730
Vhttps://ssl.gstatic.com/onebox/media/sports/videos/nba/cpGoJCtGoe4_192x108.jpg
p731
sVqueryString
p732
(lp733
sVheaders
p734
(lp735
sVheadersSize
p736
I393
sVbodySize
p737
I0
sVmethod
p738
VGET
p739
sVhttpVersion
p740
VHTTP/1.1
p741
ssVtimings
p742
(dp743
Vcomment
p744
g4
sVreceive
p745
I1
sVsend
p746
I0
sVssl
p747
I-1
sVconnect
p748
I-1
sVdns
p749
I-1
sVwait
p750
I47
sVblocked
p751
I-1
ssVtime
p752
I49
sVresponse
p753
(dp754
Vstatus
p755
I200
sVcomment
p756
g4
sVcookies
p757
(lp758
sVstatusText
p759
VOK
p760
sVcontent
p761
(dp762
VmimeType
p763
Vimage/jpeg
p764
sVcomment
p765
g4
sVsize
p766
I0
ssVheaders
p767
(lp768
sVheadersSize
p769
I392
sVredirectURL
p770
g4
sVbodySize
p771
I4385
sVhttpVersion
p772
VHTTP/1.1
p773
ssa(dp774
Vcomment
p775
g4
sVserverIPAddress
p776
V216.58.216.195
p777
sVpageref
p778
VDallas Mavericks
p779
sVstartedDateTime
p780
V2017-04-16T08:35:54.850-05:00
p781
sVcache
p782
(dp783
sVrequest
p784
(dp785
Vcomment
p786
g4
sVcookies
p787
(lp788
sVurl
p789
Vhttps://ssl.gstatic.com/onebox/media/sports/logos/pRr87i24KHWH0UuAc5EamQ_48x48.png
p790
sVqueryString
p791
(lp792
sVheaders
p793
(lp794
sVheadersSize
p795
I397
sVbodySize
p796
I0
sVmethod
p797
VGET
p798
sVhttpVersion
p799
VHTTP/1.1
p800
ssVtimings
p801
(dp802
Vcomment
p803
g4
sVreceive
p804
I0
sVsend
p805
I0
sVssl
p806
I-1
sVconnect
p807
I-1
sVdns
p808
I-1
sVwait
p809
I46
sVblocked
p810
I-1
ssVtime
p811
I47
sVresponse
p812
(dp813
Vstatus
p814
I200
sVcomment
p815
g4
sVcookies
p816
(lp817
sVstatusText
p818
VOK
p819
sVcontent
p820
(dp821
VmimeType
p822
Vimage/png
p823
sVcomment
p824
g4
sVsize
p825
I0
ssVheaders
p826
(lp827
sVheadersSize
p828
I424
sVredirectURL
p829
g4
sVbodySize
p830
I3743
sVhttpVersion
p831
VHTTP/1.1
p832
ssa(dp833
Vcomment
p834
g4
sVserverIPAddress
p835
V216.58.216.195
p836
sVpageref
p837
VDallas Mavericks
p838
sVstartedDateTime
p839
V2017-04-16T08:35:54.850-05:00
p840
sVcache
p841
(dp842
sVrequest
p843
(dp844
Vcomment
p845
g4
sVcookies
p846
(lp847
sVurl
p848
Vhttps://ssl.gstatic.com/onebox/media/sports/videos/nba/71IqxRvThYQ_192x108.jpg
p849
sVqueryString
p850
(lp851
sVheaders
p852
(lp853
sVheadersSize
p854
I393
sVbodySize
p855
I0
sVmethod
p856
VGET
p857
sVhttpVersion
p858
VHTTP/1.1
p859
ssVtimings
p860
(dp861
Vcomment
p862
g4
sVreceive
p863
I0
sVsend
p864
I0
sVssl
p865
I-1
sVconnect
p866
I-1
sVdns
p867
I-1
sVwait
p868
I47
sVblocked
p869
I-1
ssVtime
p870
I48
sVresponse
p871
(dp872
Vstatus
p873
I200
sVcomment
p874
g4
sVcookies
p875
(lp876
sVstatusText
p877
VOK
p878
sVcontent
p879
(dp880
VmimeType
p881
Vimage/jpeg
p882
sVcomment
p883
g4
sVsize
p884
I0
ssVheaders
p885
(lp886
sVheadersSize
p887
I392
sVredirectURL
p888
g4
sVbodySize
p889
I7864
sVhttpVersion
p890
VHTTP/1.1
p891
ssa(dp892
Vcomment
p893
g4
sVserverIPAddress
p894
V216.58.216.195
p895
sVpageref
p896
VDallas Mavericks
p897
sVstartedDateTime
p898
V2017-04-16T08:35:54.850-05:00
p899
sVcache
p900
(dp901
sVrequest
p902
(dp903
Vcomment
p904
g4
sVcookies
p905
(lp906
sVurl
p907
Vhttps://ssl.gstatic.com/onebox/media/sports/logos/iCdnD_Ymkuz99izCLFMYQw_48x48.png
p908
sVqueryString
p909
(lp910
sVheaders
p911
(lp912
sVheadersSize
p913
I397
sVbodySize
p914
I0
sVmethod
p915
VGET
p916
sVhttpVersion
p917
VHTTP/1.1
p918
ssVtimings
p919
(dp920
Vcomment
p921
g4
sVreceive
p922
I0
sVsend
p923
I0
sVssl
p924
I-1
sVconnect
p925
I-1
sVdns
p926
I-1
sVwait
p927
I49
sVblocked
p928
I-1
ssVtime
p929
I50
sVresponse
p930
(dp931
Vstatus
p932
I200
sVcomment
p933
g4
sVcookies
p934
(lp935
sVstatusText
p936
VOK
p937
sVcontent
p938
(dp939
VmimeType
p940
Vimage/png
p941
sVcomment
p942
g4
sVsize
p943
I0
ssVheaders
p944
(lp945
sVheadersSize
p946
I424
sVredirectURL
p947
g4
sVbodySize
p948
I3244
sVhttpVersion
p949
VHTTP/1.1
p950
ssa(dp951
Vcomment
p952
g4
sVserverIPAddress
p953
V216.58.216.195
p954
sVpageref
p955
VDallas Mavericks
p956
sVstartedDateTime
p957
V2017-04-16T08:35:54.960-05:00
p958
sVcache
p959
(dp960
sVrequest
p961
(dp962
Vcomment
p963
g4
sVcookies
p964
(lp965
sVurl
p966
Vhttps://ssl.gstatic.com/onebox/media/sports/videos/nba/M_FRKQMe7kY_192x108.jpg
p967
sVqueryString
p968
(lp969
sVheaders
p970
(lp971
sVheadersSize
p972
I393
sVbodySize
p973
I0
sVmethod
p974
VGET
p975
sVhttpVersion
p976
VHTTP/1.1
p977
ssVtimings
p978
(dp979
Vcomment
p980
g4
sVreceive
p981
I16
sVsend
p982
I0
sVssl
p983
I73
sVconnect
p984
I102
sVdns
p985
I3
sVwait
p986
I69
sVblocked
p987
I0
ssVtime
p988
I191
sVresponse
p989
(dp990
Vstatus
p991
I200
sVcomment
p992
g4
sVcookies
p993
(lp994
sVstatusText
p995
VOK
p996
sVcontent
p997
(dp998
VmimeType
p999
Vimage/jpeg
p1000
sVcomment
p1001
g4
sVsize
p1002
I0
ssVheaders
p1003
(lp1004
sVheadersSize
p1005
I392
sVredirectURL
p1006
g4
sVbodySize
p1007
I9235
sVhttpVersion
p1008
VHTTP/1.1
p1009
ssa(dp1010
Vcomment
p1011
g4
sVserverIPAddress
p1012
V216.58.216.196
p1013
sVpageref
p1014
VDallas Mavericks
p1015
sVstartedDateTime
p1016
V2017-04-16T08:35:55.681-05:00
p1017
sVcache
p1018
(dp1019
sVrequest
p1020
(dp1021
Vcomment
p1022
g4
sVcookies
p1023
(lp1024
sVurl
p1025
Vhttps://www.google.com/xjs/_/js/k=xjs.qs.en_US.pCBXVCvTH3s.O/m=syl,syj,syn,em3,em8,em6,em7,sym,aa,abd,sy2g,sy2k,sy29,sy2j,sy2d,sy2a,sy2c,sy2f,sy2l,sy2m,sy2n,emd,async,sybn,sybi,sybo,sy1f,sy45,sy46,sy9w,sybk,sybj,sybp,sy1g,sy30,sy47,sybm,sybl,sybq,sy1h,sybh,dvl,syep,foot,ipv6,sy5g,sy5j,sy5h,sy6u,sy7d,sy7j,sy2x,sy5i,sy89,sy7e,sy23,sy2y,sy5k,sy6c,sy91,sy9b,sy9l,syhi,syhj,syhk,syhl,lr,lrli,sy32,emj,shm,sykh,tl,sy2t,sy38,em12,vs,sy66,sy67,sy4u,sy69,sykk,sykl,tnv,bct,sy48,sy3a,sy3c,sy5b,sy4x,sy4z,sy56,sy1y,sy31,sy4y,sy22,sy6i,sy4h,sy6h,sy6o,sya3,sy5d,sy25,sy6j,sy6k,sy6r,sya2,sy5e,sy6n,emb,em9,ema,sy24,sy2o,sy4c,sy65,sy6p,sy6s,sy6w,sy72,sya4,syd7,syel,syho,syhs,syhu,syhv,sio,sy6y,sycu,d3l,sy5x,qif,tabs,sy9m,syac,sy4g,sy9n,syhz,syl6,ssc,sy26,sykr,strm,sy2u,sy34,sy6l,sy6m,qkx,syf5,sy99,syf4,syfc,syfn,syf7,syff,sy1i,sy68,sy8d,syf6,syfl,syfr,syfq,syfg,sy1j,sy4q,sy5o,sy5r,sy8h,syc7,syc8,syfb,syfj,syfs,syft,syg3,syg5,syg7,emn,emo,syg4,syg6,ivg,iuci,img,sy4d,sy4f,sy4e,sy4b,shrb,dgm,sy41,tcc,sygq,kpc,kpci,syj7,syj8,syj2,syjc,syj6,syj3,syjg,syjh,syje,syjd,syjk,syji,syjf,syj0,emr,ems,emt,emu,emv,emx,emy,emz,em10,em11,udlg,sy5z,atn,sy4i,sya1,ampfp/am=gCP4LtMEBXQA2RUaq_oFBISzAFA/rt=j/d=0/t=zcms/rs=ACT90oFwm4NZCwIcuuiqmthdlECdBzkhRA
p1026
sVqueryString
p1027
(lp1028
sVheaders
p1029
(lp1030
sVheadersSize
p1031
I1749
sVbodySize
p1032
I0
sVmethod
p1033
VGET
p1034
sVhttpVersion
p1035
VHTTP/1.1
p1036
ssVtimings
p1037
(dp1038
Vcomment
p1039
g4
sVreceive
p1040
I86
sVsend
p1041
I0
sVssl
p1042
I-1
sVconnect
p1043
I-1
sVdns
p1044
I-1
sVwait
p1045
I115
sVblocked
p1046
I-1
ssVtime
p1047
I201
sVresponse
p1048
(dp1049
Vstatus
p1050
I200
sVcomment
p1051
g4
sVcookies
p1052
(lp1053
sVstatusText
p1054
VOK
p1055
sVcontent
p1056
(dp1057
VmimeType
p1058
Vtext/javascript; charset=UTF-8
p1059
sVcomment
p1060
g4
sVsize
p1061
I0
ssVheaders
p1062
(lp1063
sVheadersSize
p1064
I452
sVredirectURL
p1065
g4
sVbodySize
p1066
I207729
sVhttpVersion
p1067
VHTTP/1.1
p1068
ssa(dp1069
Vcomment
p1070
g4
sVserverIPAddress
p1071
V216.58.216.196
p1072
sVpageref
p1073
VDallas Mavericks
p1074
sVstartedDateTime
p1075
V2017-04-16T08:35:56.397-05:00
p1076
sVcache
p1077
(dp1078
sVrequest
p1079
(dp1080
Vcomment
p1081
g4
sVcookies
p1082
(lp1083
sVurl
p1084
Vhttps://www.google.com/async/irc?vet=10ahUKEwiLxJmHjKnTAhWJ24MKHUDGBgIQo0EI5wI..i&ved=0ahUKEwiLxJmHjKnTAhWJ24MKHUDGBgIQo0EI5wI&ei=OHPzWIvINIm3jwTAjJsQ&yv=2&async=iu:1,ved:0ahUKEwiLxJmHjKnTAhWJ24MKHUDGBgIQo0EI5wI,_id:irc_async,_pms:qs
p1085
sVqueryString
p1086
(lp1087
(dp1088
Vname
p1089
Vvet
p1090
sVvalue
p1091
V10ahUKEwiLxJmHjKnTAhWJ24MKHUDGBgIQo0EI5wI..i
p1092
sa(dp1093
Vname
p1094
Vved
p1095
sVvalue
p1096
V0ahUKEwiLxJmHjKnTAhWJ24MKHUDGBgIQo0EI5wI
p1097
sa(dp1098
Vname
p1099
Vei
p1100
sVvalue
p1101
VOHPzWIvINIm3jwTAjJsQ
p1102
sa(dp1103
Vname
p1104
Vyv
p1105
sVvalue
p1106
g64
sa(dp1107
Vname
p1108
Vasync
p1109
sVvalue
p1110
Viu:1,ved:0ahUKEwiLxJmHjKnTAhWJ24MKHUDGBgIQo0EI5wI,_id:irc_async,_pms:qs
p1111
sasVheaders
p1112
(lp1113
sVheadersSize
p1114
I750
sVbodySize
p1115
I0
sVmethod
p1116
VGET
p1117
sVhttpVersion
p1118
VHTTP/1.1
p1119
ssVtimings
p1120
(dp1121
Vcomment
p1122
g4
sVreceive
p1123
I2
sVsend
p1124
I0
sVssl
p1125
I-1
sVconnect
p1126
I-1
sVdns
p1127
I-1
sVwait
p1128
I42
sVblocked
p1129
I-1
ssVtime
p1130
I45
sVresponse
p1131
(dp1132
Vstatus
p1133
I200
sVcomment
p1134
g4
sVcookies
p1135
(lp1136
sVstatusText
p1137
VOK
p1138
sVcontent
p1139
(dp1140
VmimeType
p1141
Vtext/html; charset=UTF-8
p1142
sVcomment
p1143
g4
sVsize
p1144
I0
ssVheaders
p1145
(lp1146
sVheadersSize
p1147
I383
sVredirectURL
p1148
g4
sVbodySize
p1149
I7791
sVhttpVersion
p1150
VHTTP/1.1
p1151
ssa(dp1152
Vcomment
p1153
g4
sVserverIPAddress
p1154
V216.58.216.196
p1155
sVpageref
p1156
VDallas Mavericks
p1157
sVstartedDateTime
p1158
V2017-04-16T08:35:56.512-05:00
p1159
sVcache
p1160
(dp1161
sVrequest
p1162
(dp1163
Vcomment
p1164
g4
sVcookies
p1165
(lp1166
sVurl
p1167
Vhttps://www.google.com/async/ampfp?vet=10ahUKEwiLxJmHjKnTAhWJ24MKHUDGBgIQtZoBCOUC..i&ei=OHPzWIvINIm3jwTAjJsQ&yv=2&async=_id:ampfp-async,_pms:qs
p1168
sVqueryString
p1169
(lp1170
(dp1171
Vname
p1172
Vvet
p1173
sVvalue
p1174
V10ahUKEwiLxJmHjKnTAhWJ24MKHUDGBgIQtZoBCOUC..i
p1175
sa(dp1176
Vname
p1177
Vei
p1178
sVvalue
p1179
VOHPzWIvINIm3jwTAjJsQ
p1180
sa(dp1181
Vname
p1182
Vyv
p1183
sVvalue
p1184
g64
sa(dp1185
Vname
p1186
Vasync
p1187
sVvalue
p1188
V_id:ampfp-async,_pms:qs
p1189
sasVheaders
p1190
(lp1191
sVheadersSize
p1192
I660
sVbodySize
p1193
I0
sVmethod
p1194
VGET
p1195
sVhttpVersion
p1196
VHTTP/1.1
p1197
ssVtimings
p1198
(dp1199
Vcomment
p1200
g4
sVreceive
p1201
I0
sVsend
p1202
I0
sVssl
p1203
I-1
sVconnect
p1204
I-1
sVdns
p1205
I-1
sVwait
p1206
I42
sVblocked
p1207
I-1
ssVtime
p1208
I43
sVresponse
p1209
(dp1210
Vstatus
p1211
I200
sVcomment
p1212
g4
sVcookies
p1213
(lp1214
sVstatusText
p1215
VOK
p1216
sVcontent
p1217
(dp1218
VmimeType
p1219
Vtext/html; charset=UTF-8
p1220
sVcomment
p1221
g4
sVsize
p1222
I0
ssVheaders
p1223
(lp1224
sVheadersSize
p1225
I383
sVredirectURL
p1226
g4
sVbodySize
p1227
I4524
sVhttpVersion
p1228
VHTTP/1.1
p1229
ssa(dp1230
Vcomment
p1231
g4
sVserverIPAddress
p1232
V216.58.216.193
p1233
sVpageref
p1234
VDallas Mavericks
p1235
sVstartedDateTime
p1236
V2017-04-16T08:35:56.512-05:00
p1237
sVcache
p1238
(dp1239
sVrequest
p1240
(dp1241
Vcomment
p1242
g4
sVcookies
p1243
(lp1244
sVurl
p1245
Vhttps://cdn.ampproject.org/preconnect.gif?0.27202493953150375
p1246
sVqueryString
p1247
(lp1248
(dp1249
Vname
p1250
V0.27202493953150375
p1251
sVvalue
p1252
g4
sasVheaders
p1253
(lp1254
sVheadersSize
p1255
I376
sVbodySize
p1256
I0
sVmethod
p1257
VGET
p1258
sVhttpVersion
p1259
VHTTP/1.1
p1260
ssVtimings
p1261
(dp1262
Vcomment
p1263
g4
sVreceive
p1264
I0
sVsend
p1265
I0
sVssl
p1266
I-1
sVconnect
p1267
I-1
sVdns
p1268
I-1
sVwait
p1269
I29
sVblocked
p1270
I-1
ssVtime
p1271
I29
sVresponse
p1272
(dp1273
Vstatus
p1274
I200
sVcomment
p1275
g4
sVcookies
p1276
(lp1277
sVstatusText
p1278
VOK
p1279
sVcontent
p1280
(dp1281
VmimeType
p1282
Vimage/gif
p1283
sVcomment
p1284
g4
sVsize
p1285
I0
ssVheaders
p1286
(lp1287
sVheadersSize
p1288
I826
sVredirectURL
p1289
g4
sVbodySize
p1290
I37
sVhttpVersion
p1291
VHTTP/1.1
p1292
ssa(dp1293
Vcomment
p1294
g4
sVserverIPAddress
p1295
V216.58.216.196
p1296
sVpageref
p1297
VDallas Mavericks
p1298
sVstartedDateTime
p1299
V2017-04-16T08:35:56.817-05:00
p1300
sVcache
p1301
(dp1302
sVrequest
p1303
(dp1304
Vcomment
p1305
g4
sVcookies
p1306
(lp1307
sVurl
p1308
Vhttps://www.google.com/gen_204?s=web&atyp=csi&ei=OHPzWIvINIm3jwTAjJsQ&imc=69&imn=69&imp=25&adh=&xjs=init.76.16.sb_mob.58.async.5.mbsf.4.dvl.3.jsa.2&ima=16&rt=prt.999,iml.1319,xjsls.1067,dcl.1151,qiml.1521,xjses.1359,xjsee.1653,xjs.1654,ol.2790,aft.1319,wsrt.158,cst.0,dnst.0,rqst.1111,rspt.997,rqstt.7,unt.7,cstt.7,dit.1267
p1309
sVqueryString
p1310
(lp1311
(dp1312
Vname
p1313
g57
sVvalue
p1314
Vweb
p1315
sa(dp1316
Vname
p1317
Vatyp
p1318
sVvalue
p1319
Vcsi
p1320
sa(dp1321
Vname
p1322
Vei
p1323
sVvalue
p1324
VOHPzWIvINIm3jwTAjJsQ
p1325
sa(dp1326
Vname
p1327
Vimc
p1328
sVvalue
p1329
V69
p1330
sa(dp1331
Vname
p1332
Vimn
p1333
sVvalue
p1334
V69
p1335
sa(dp1336
Vname
p1337
Vimp
p1338
sVvalue
p1339
V25
p1340
sa(dp1341
Vname
p1342
Vadh
p1343
sVvalue
p1344
g4
sa(dp1345
Vname
p1346
Vxjs
p1347
sVvalue
p1348
Vinit.76.16.sb_mob.58.async.5.mbsf.4.dvl.3.jsa.2
p1349
sa(dp1350
Vname
p1351
Vima
p1352
sVvalue
p1353
V16
p1354
sa(dp1355
Vname
p1356
Vrt
p1357
sVvalue
p1358
Vprt.999,iml.1319,xjsls.1067,dcl.1151,qiml.1521,xjses.1359,xjsee.1653,xjs.1654,ol.2790,aft.1319,wsrt.158,cst.0,dnst.0,rqst.1111,rspt.997,rqstt.7,unt.7,cstt.7,dit.1267
p1359
sasVheaders
p1360
(lp1361
sVheadersSize
p1362
I840
sVbodySize
p1363
I0
sVmethod
p1364
VGET
p1365
sVhttpVersion
p1366
VHTTP/1.1
p1367
ssVtimings
p1368
(dp1369
Vcomment
p1370
g4
sVreceive
p1371
I0
sVsend
p1372
I0
sVssl
p1373
I-1
sVconnect
p1374
I-1
sVdns
p1375
I-1
sVwait
p1376
I27
sVblocked
p1377
I-1
ssVtime
p1378
I27
sVresponse
p1379
(dp1380
Vstatus
p1381
I204
sVcomment
p1382
g4
sVcookies
p1383
(lp1384
sVstatusText
p1385
VNo Content
p1386
sVcontent
p1387
(dp1388
VmimeType
p1389
Vtext/html; charset=UTF-8
p1390
sVcomment
p1391
g4
sVsize
p1392
I0
ssVheaders
p1393
(lp1394
sVheadersSize
p1395
I248
sVredirectURL
p1396
g4
sVbodySize
p1397
I0
sVhttpVersion
p1398
VHTTP/1.1
p1399
ssa(dp1400
Vcomment
p1401
g4
sVserverIPAddress
p1402
V216.58.216.196
p1403
sVpageref
p1404
VDallas Mavericks
p1405
sVstartedDateTime
p1406
V2017-04-16T08:35:56.936-05:00
p1407
sVcache
p1408
(dp1409
sVrequest
p1410
(dp1411
Vcomment
p1412
g4
sVcookies
p1413
(lp1414
sVurl
p1415
Vhttps://www.google.com/async/log_amp_item_set?vet=10ahUKEwjPyLqIjKnTAhWd3oMKHaUAC44QooQBCAE..i&ei=OHPzWIvINIm3jwTAjJsQ&yv=2&async=num_items:1,_fmt:jspb
p1416
sVqueryString
p1417
(lp1418
(dp1419
Vname
p1420
Vvet
p1421
sVvalue
p1422
V10ahUKEwjPyLqIjKnTAhWd3oMKHaUAC44QooQBCAE..i
p1423
sa(dp1424
Vname
p1425
Vei
p1426
sVvalue
p1427
VOHPzWIvINIm3jwTAjJsQ
p1428
sa(dp1429
Vname
p1430
Vyv
p1431
sVvalue
p1432
g64
sa(dp1433
Vname
p1434
Vasync
p1435
sVvalue
p1436
Vnum_items:1,_fmt:jspb
p1437
sasVheaders
p1438
(lp1439
sVheadersSize
p1440
I668
sVbodySize
p1441
I0
sVmethod
p1442
VGET
p1443
sVhttpVersion
p1444
VHTTP/1.1
p1445
ssVtimings
p1446
(dp1447
Vcomment
p1448
g4
sVreceive
p1449
I0
sVsend
p1450
I0
sVssl
p1451
I-1
sVconnect
p1452
I-1
sVdns
p1453
I-1
sVwait
p1454
I274
sVblocked
p1455
I-1
ssVtime
p1456
I275
sVresponse
p1457
(dp1458
Vstatus
p1459
I200
sVcomment
p1460
g4
sVcookies
p1461
(lp1462
sVstatusText
p1463
VOK
p1464
sVcontent
p1465
(dp1466
VmimeType
p1467
Vapplication/json; charset=UTF-8
p1468
sVcomment
p1469
g4
sVsize
p1470
I0
ssVheaders
p1471
(lp1472
sVheadersSize
p1473
I417
sVredirectURL
p1474
g4
sVbodySize
p1475
I132
sVhttpVersion
p1476
VHTTP/1.1
p1477
ssa(dp1478
Vcomment
p1479
g4
sVserverIPAddress
p1480
V216.58.216.196
p1481
sVpageref
p1482
VDallas Mavericks
p1483
sVstartedDateTime
p1484
V2017-04-16T08:35:56.937-05:00
p1485
sVcache
p1486
(dp1487
sVrequest
p1488
(dp1489
Vcomment
p1490
g4
sVcookies
p1491
(lp1492
sVurl
p1493
Vhttps://www.google.com/gen_204?atyp=i&ct=ampipf&cad=&ampve&ei=OHPzWIvINIm3jwTAjJsQ&zx=1492349756897
p1494
sVqueryString
p1495
(lp1496
(dp1497
Vname
p1498
Vatyp
p1499
sVvalue
p1500
g30
sa(dp1501
Vname
p1502
Vct
p1503
sVvalue
p1504
Vampipf
p1505
sa(dp1506
Vname
p1507
Vcad
p1508
sVvalue
p1509
g4
sa(dp1510
Vname
p1511
Vampve
p1512
sVvalue
p1513
g4
sa(dp1514
Vname
p1515
Vei
p1516
sVvalue
p1517
VOHPzWIvINIm3jwTAjJsQ
p1518
sa(dp1519
Vname
p1520
Vzx
p1521
sVvalue
p1522
V1492349756897
p1523
sasVheaders
p1524
(lp1525
sVheadersSize
p1526
I616
sVbodySize
p1527
I0
sVmethod
p1528
VGET
p1529
sVhttpVersion
p1530
VHTTP/1.1
p1531
ssVtimings
p1532
(dp1533
Vcomment
p1534
g4
sVreceive
p1535
I0
sVsend
p1536
I0
sVssl
p1537
I-1
sVconnect
p1538
I-1
sVdns
p1539
I-1
sVwait
p1540
I44
sVblocked
p1541
I-1
ssVtime
p1542
I44
sVresponse
p1543
(dp1544
Vstatus
p1545
I204
sVcomment
p1546
g4
sVcookies
p1547
(lp1548
sVstatusText
p1549
VNo Content
p1550
sVcontent
p1551
(dp1552
VmimeType
p1553
Vtext/html; charset=UTF-8
p1554
sVcomment
p1555
g4
sVsize
p1556
I0
ssVheaders
p1557
(lp1558
sVheadersSize
p1559
I248
sVredirectURL
p1560
g4
sVbodySize
p1561
I0
sVhttpVersion
p1562
VHTTP/1.1
p1563
ssa(dp1564
Vcomment
p1565
g4
sVserverIPAddress
p1566
V216.58.216.193
p1567
sVpageref
p1568
VDallas Mavericks
p1569
sVstartedDateTime
p1570
V2017-04-16T08:35:57.074-05:00
p1571
sVcache
p1572
(dp1573
sVrequest
p1574
(dp1575
Vcomment
p1576
g4
sVcookies
p1577
(lp1578
sVurl
p1579
Vhttps://syndication-bleacherreport-com.cdn.ampproject.org/v/s/syndication.bleacherreport.com/amp/dallas-mavericks?amp_js_v=9
p1580
sVqueryString
p1581
(lp1582
(dp1583
Vname
p1584
Vamp_js_v
p1585
sVvalue
p1586
V9
p1587
sasVheaders
p1588
(lp1589
sVheadersSize
p1590
I529
sVbodySize
p1591
I0
sVmethod
p1592
VGET
p1593
sVhttpVersion
p1594
VHTTP/1.1
p1595
ssVtimings
p1596
(dp1597
Vcomment
p1598
g4
sVreceive
p1599
I1
sVsend
p1600
I0
sVssl
p1601
I63
sVconnect
p1602
I95
sVdns
p1603
I34
sVwait
p1604
I125
sVblocked
p1605
I0
ssVtime
p1606
I258
sVresponse
p1607
(dp1608
Vstatus
p1609
I200
sVcomment
p1610
g4
sVcookies
p1611
(lp1612
sVstatusText
p1613
VOK
p1614
sVcontent
p1615
(dp1616
VmimeType
p1617
Vtext/html
p1618
sVcomment
p1619
g4
sVsize
p1620
I0
ssVheaders
p1621
(lp1622
sVheadersSize
p1623
I860
sVredirectURL
p1624
g4
sVbodySize
p1625
I11570
sVhttpVersion
p1626
VHTTP/1.1
p1627
ssa(dp1628
Vcomment
p1629
g4
sVserverIPAddress
p1630
V216.58.216.193
p1631
sVpageref
p1632
VDallas Mavericks
p1633
sVstartedDateTime
p1634
V2017-04-16T08:35:57.250-05:00
p1635
sVcache
p1636
(dp1637
sVrequest
p1638
(dp1639
Vcomment
p1640
g4
sVcookies
p1641
(lp1642
sVurl
p1643
Vhttps://syndication-bleacherreport-com.cdn.ampproject.org/r/s/syndication.bleacherreport.com/fonts/tungsten-medium/tungsten-medium-webfont.woff
p1644
sVqueryString
p1645
(lp1646
sVheaders
p1647
(lp1648
sVheadersSize
p1649
I663
sVbodySize
p1650
I0
sVmethod
p1651
VGET
p1652
sVhttpVersion
p1653
VHTTP/1.1
p1654
ssVtimings
p1655
(dp1656
Vcomment
p1657
g4
sVreceive
p1658
I0
sVsend
p1659
I0
sVssl
p1660
I-1
sVconnect
p1661
I-1
sVdns
p1662
I-1
sVwait
p1663
I23
sVblocked
p1664
I-1
ssVtime
p1665
I23
sVresponse
p1666
(dp1667
Vstatus
p1668
I304
sVcomment
p1669
g4
sVcookies
p1670
(lp1671
sVstatusText
p1672
VNot Modified
p1673
sVcontent
p1674
(dp1675
VmimeType
p1676
Vapplication/font-woff
p1677
sVcomment
p1678
g4
sVsize
p1679
I0
ssVheaders
p1680
(lp1681
sVheadersSize
p1682
I356
sVredirectURL
p1683
g4
sVbodySize
p1684
I0
sVhttpVersion
p1685
VHTTP/1.1
p1686
ssa(dp1687
Vcomment
p1688
g4
sVserverIPAddress
p1689
V216.58.216.193
p1690
sVpageref
p1691
VDallas Mavericks
p1692
sVstartedDateTime
p1693
V2017-04-16T08:35:57.295-05:00
p1694
sVcache
p1695
(dp1696
sVrequest
p1697
(dp1698
Vcomment
p1699
g4
sVcookies
p1700
(lp1701
sVurl
p1702
Vhttps://syndication-bleacherreport-com.cdn.ampproject.org/r/s/syndication.bleacherreport.com/fonts/open-sans/semibold.woff
p1703
sVqueryString
p1704
(lp1705
sVheaders
p1706
(lp1707
sVheadersSize
p1708
I642
sVbodySize
p1709
I0
sVmethod
p1710
VGET
p1711
sVhttpVersion
p1712
VHTTP/1.1
p1713
ssVtimings
p1714
(dp1715
Vcomment
p1716
g4
sVreceive
p1717
I0
sVsend
p1718
I0
sVssl
p1719
I26
sVconnect
p1720
I40
sVdns
p1721
I0
sVwait
p1722
I42
sVblocked
p1723
I0
ssVtime
p1724
I82
sVresponse
p1725
(dp1726
Vstatus
p1727
I304
sVcomment
p1728
g4
sVcookies
p1729
(lp1730
sVstatusText
p1731
VNot Modified
p1732
sVcontent
p1733
(dp1734
VmimeType
p1735
Vapplication/font-woff
p1736
sVcomment
p1737
g4
sVsize
p1738
I0
ssVheaders
p1739
(lp1740
sVheadersSize
p1741
I356
sVredirectURL
p1742
g4
sVbodySize
p1743
I0
sVhttpVersion
p1744
VHTTP/1.1
p1745
ssa(dp1746
Vcomment
p1747
g4
sVserverIPAddress
p1748
V216.58.216.193
p1749
sVpageref
p1750
VDallas Mavericks
p1751
sVstartedDateTime
p1752
V2017-04-16T08:35:57.297-05:00
p1753
sVcache
p1754
(dp1755
sVrequest
p1756
(dp1757
Vcomment
p1758
g4
sVcookies
p1759
(lp1760
sVurl
p1761
Vhttps://syndication-bleacherreport-com.cdn.ampproject.org/r/s/syndication.bleacherreport.com/fonts/open-sans/regular.woff
p1762
sVqueryString
p1763
(lp1764
sVheaders
p1765
(lp1766
sVheadersSize
p1767
I641
sVbodySize
p1768
I0
sVmethod
p1769
VGET
p1770
sVhttpVersion
p1771
VHTTP/1.1
p1772
ssVtimings
p1773
(dp1774
Vcomment
p1775
g4
sVreceive
p1776
I0
sVsend
p1777
I0
sVssl
p1778
I26
sVconnect
p1779
I42
sVdns
p1780
I0
sVwait
p1781
I39
sVblocked
p1782
I0
ssVtime
p1783
I81
sVresponse
p1784
(dp1785
Vstatus
p1786
I304
sVcomment
p1787
g4
sVcookies
p1788
(lp1789
sVstatusText
p1790
VNot Modified
p1791
sVcontent
p1792
(dp1793
VmimeType
p1794
Vapplication/font-woff
p1795
sVcomment
p1796
g4
sVsize
p1797
I0
ssVheaders
p1798
(lp1799
sVheadersSize
p1800
I356
sVredirectURL
p1801
g4
sVbodySize
p1802
I0
sVhttpVersion
p1803
VHTTP/1.1
p1804
ssa(dp1805
Vcomment
p1806
g4
sVserverIPAddress
p1807
V216.58.216.193
p1808
sVpageref
p1809
VDallas Mavericks
p1810
sVstartedDateTime
p1811
V2017-04-16T08:35:57.298-05:00
p1812
sVcache
p1813
(dp1814
sVrequest
p1815
(dp1816
Vcomment
p1817
g4
sVcookies
p1818
(lp1819
sVurl
p1820
Vhttps://syndication-bleacherreport-com.cdn.ampproject.org/r/s/syndication.bleacherreport.com/fonts/tungsten-book/Tungsten-Book.woff
p1821
sVqueryString
p1822
(lp1823
sVheaders
p1824
(lp1825
sVheadersSize
p1826
I651
sVbodySize
p1827
I0
sVmethod
p1828
VGET
p1829
sVhttpVersion
p1830
VHTTP/1.1
p1831
ssVtimings
p1832
(dp1833
Vcomment
p1834
g4
sVreceive
p1835
I0
sVsend
p1836
I0
sVssl
p1837
I22
sVconnect
p1838
I39
sVdns
p1839
I0
sVwait
p1840
I39
sVblocked
p1841
I0
ssVtime
p1842
I78
sVresponse
p1843
(dp1844
Vstatus
p1845
I304
sVcomment
p1846
g4
sVcookies
p1847
(lp1848
sVstatusText
p1849
VNot Modified
p1850
sVcontent
p1851
(dp1852
VmimeType
p1853
Vapplication/font-woff
p1854
sVcomment
p1855
g4
sVsize
p1856
I0
ssVheaders
p1857
(lp1858
sVheadersSize
p1859
I356
sVredirectURL
p1860
g4
sVbodySize
p1861
I0
sVhttpVersion
p1862
VHTTP/1.1
p1863
ssa(dp1864
Vcomment
p1865
g4
sVserverIPAddress
p1866
V216.58.216.193
p1867
sVpageref
p1868
VDallas Mavericks
p1869
sVstartedDateTime
p1870
V2017-04-16T08:35:57.356-05:00
p1871
sVcache
p1872
(dp1873
sVrequest
p1874
(dp1875
Vcomment
p1876
g4
sVcookies
p1877
(lp1878
sVurl
p1879
Vhttps://cdn-bleacherreport-net.cdn.ampproject.org/i/cdn.bleacherreport.net/images/team_logos/164x164/dallas_mavericks.png
p1880
sVqueryString
p1881
(lp1882
sVheaders
p1883
(lp1884
sVheadersSize
p1885
I537
sVbodySize
p1886
I0
sVmethod
p1887
VGET
p1888
sVhttpVersion
p1889
VHTTP/1.1
p1890
ssVtimings
p1891
(dp1892
Vcomment
p1893
g4
sVreceive
p1894
I1
sVsend
p1895
I0
sVssl
p1896
I51
sVconnect
p1897
I78
sVdns
p1898
I33
sVwait
p1899
I28
sVblocked
p1900
I0
ssVtime
p1901
I141
sVresponse
p1902
(dp1903
Vstatus
p1904
I200
sVcomment
p1905
g4
sVcookies
p1906
(lp1907
sVstatusText
p1908
VOK
p1909
sVcontent
p1910
(dp1911
VmimeType
p1912
Vimage/png
p1913
sVcomment
p1914
g4
sVsize
p1915
I0
ssVheaders
p1916
(lp1917
sVheadersSize
p1918
I821
sVredirectURL
p1919
g4
sVbodySize
p1920
I5918
sVhttpVersion
p1921
VHTTP/1.1
p1922
ssa(dp1923
Vcomment
p1924
g4
sVserverIPAddress
p1925
V216.58.216.193
p1926
sVpageref
p1927
VDallas Mavericks
p1928
sVstartedDateTime
p1929
V2017-04-16T08:35:57.358-05:00
p1930
sVcache
p1931
(dp1932
sVrequest
p1933
(dp1934
Vcomment
p1935
g4
sVcookies
p1936
(lp1937
sVurl
p1938
Vhttps://cdn-bleacherreport-net.cdn.ampproject.org/i/cdn.bleacherreport.net/images/team_logos/164x164/los_angeles_clippers.png
p1939
sVqueryString
p1940
(lp1941
sVheaders
p1942
(lp1943
sVheadersSize
p1944
I541
sVbodySize
p1945
I0
sVmethod
p1946
VGET
p1947
sVhttpVersion
p1948
VHTTP/1.1
p1949
ssVtimings
p1950
(dp1951
Vcomment
p1952
g4
sVreceive
p1953
I0
sVsend
p1954
I0
sVssl
p1955
I54
sVconnect
p1956
I80
sVdns
p1957
I30
sVwait
p1958
I31
sVblocked
p1959
I0
ssVtime
p1960
I142
sVresponse
p1961
(dp1962
Vstatus
p1963
I200
sVcomment
p1964
g4
sVcookies
p1965
(lp1966
sVstatusText
p1967
VOK
p1968
sVcontent
p1969
(dp1970
VmimeType
p1971
Vimage/png
p1972
sVcomment
p1973
g4
sVsize
p1974
I0
ssVheaders
p1975
(lp1976
sVheadersSize
p1977
I821
sVredirectURL
p1978
g4
sVbodySize
p1979
I3003
sVhttpVersion
p1980
VHTTP/1.1
p1981
ssa(dp1982
Vcomment
p1983
g4
sVserverIPAddress
p1984
V216.58.216.193
p1985
sVpageref
p1986
VDallas Mavericks
p1987
sVstartedDateTime
p1988
V2017-04-16T08:35:57.363-05:00
p1989
sVcache
p1990
(dp1991
sVrequest
p1992
(dp1993
Vcomment
p1994
g4
sVcookies
p1995
(lp1996
sVurl
p1997
Vhttps://cdn-bleacherreport-net.cdn.ampproject.org/i/cdn.bleacherreport.net/images/team_logos/164x164/phoenix_suns.png
p1998
sVqueryString
p1999
(lp2000
sVheaders
p2001
(lp2002
sVheadersSize
p2003
I533
sVbodySize
p2004
I0
sVmethod
p2005
VGET
p2006
sVhttpVersion
p2007
VHTTP/1.1
p2008
ssVtimings
p2009
(dp2010
Vcomment
p2011
g4
sVreceive
p2012
I0
sVsend
p2013
I0
sVssl
p2014
I58
sVconnect
p2015
I86
sVdns
p2016
I32
sVwait
p2017
I41
sVblocked
p2018
I0
ssVtime
p2019
I161
sVresponse
p2020
(dp2021
Vstatus
p2022
I200
sVcomment
p2023
g4
sVcookies
p2024
(lp2025
sVstatusText
p2026
VOK
p2027
sVcontent
p2028
(dp2029
VmimeType
p2030
Vimage/png
p2031
sVcomment
p2032
g4
sVsize
p2033
I0
ssVheaders
p2034
(lp2035
sVheadersSize
p2036
I821
sVredirectURL
p2037
g4
sVbodySize
p2038
I6054
sVhttpVersion
p2039
VHTTP/1.1
p2040
ssa(dp2041
Vcomment
p2042
g4
sVserverIPAddress
p2043
V216.58.216.193
p2044
sVpageref
p2045
VDallas Mavericks
p2046
sVstartedDateTime
p2047
V2017-04-16T08:35:57.372-05:00
p2048
sVcache
p2049
(dp2050
sVrequest
p2051
(dp2052
Vcomment
p2053
g4
sVcookies
p2054
(lp2055
sVurl
p2056
Vhttps://cdn-bleacherreport-net.cdn.ampproject.org/i/cdn.bleacherreport.net/images/team_logos/164x164/memphis_grizzlies.png
p2057
sVqueryString
p2058
(lp2059
sVheaders
p2060
(lp2061
sVheadersSize
p2062
I538
sVbodySize
p2063
I0
sVmethod
p2064
VGET
p2065
sVhttpVersion
p2066
VHTTP/1.1
p2067
ssVtimings
p2068
(dp2069
Vcomment
p2070
g4
sVreceive
p2071
I0
sVsend
p2072
I0
sVssl
p2073
I68
sVconnect
p2074
I95
sVdns
p2075
I33
sVwait
p2076
I33
sVblocked
p2077
I0
ssVtime
p2078
I163
sVresponse
p2079
(dp2080
Vstatus
p2081
I200
sVcomment
p2082
g4
sVcookies
p2083
(lp2084
sVstatusText
p2085
VOK
p2086
sVcontent
p2087
(dp2088
VmimeType
p2089
Vimage/png
p2090
sVcomment
p2091
g4
sVsize
p2092
I0
ssVheaders
p2093
(lp2094
sVheadersSize
p2095
I821
sVredirectURL
p2096
g4
sVbodySize
p2097
I4354
sVhttpVersion
p2098
VHTTP/1.1
p2099
ssa(dp2100
Vcomment
p2101
g4
sVserverIPAddress
p2102
V216.58.216.193
p2103
sVpageref
p2104
VDallas Mavericks
p2105
sVstartedDateTime
p2106
V2017-04-16T08:35:57.372-05:00
p2107
sVcache
p2108
(dp2109
sVrequest
p2110
(dp2111
Vcomment
p2112
g4
sVcookies
p2113
(lp2114
sVurl
p2115
Vhttps://cdn-bleacherreport-net.cdn.ampproject.org/i/cdn.bleacherreport.net/images/team_logos/164x164/milwaukee_bucks.png
p2116
sVqueryString
p2117
(lp2118
sVheaders
p2119
(lp2120
sVheadersSize
p2121
I536
sVbodySize
p2122
I0
sVmethod
p2123
VGET
p2124
sVhttpVersion
p2125
VHTTP/1.1
p2126
ssVtimings
p2127
(dp2128
Vcomment
p2129
g4
sVreceive
p2130
I0
sVsend
p2131
I0
sVssl
p2132
I68
sVconnect
p2133
I96
sVdns
p2134
I26
sVwait
p2135
I33
sVblocked
p2136
I0
ssVtime
p2137
I157
sVresponse
p2138
(dp2139
Vstatus
p2140
I200
sVcomment
p2141
g4
sVcookies
p2142
(lp2143
sVstatusText
p2144
VOK
p2145
sVcontent
p2146
(dp2147
VmimeType
p2148
Vimage/png
p2149
sVcomment
p2150
g4
sVsize
p2151
I0
ssVheaders
p2152
(lp2153
sVheadersSize
p2154
I821
sVredirectURL
p2155
g4
sVbodySize
p2156
I8302
sVhttpVersion
p2157
VHTTP/1.1
p2158
ssa(dp2159
Vcomment
p2160
g4
sVserverIPAddress
p2161
V216.58.216.193
p2162
sVpageref
p2163
VDallas Mavericks
p2164
sVstartedDateTime
p2165
V2017-04-16T08:35:57.482-05:00
p2166
sVcache
p2167
(dp2168
sVrequest
p2169
(dp2170
Vcomment
p2171
g4
sVcookies
p2172
(lp2173
sVurl
p2174
Vhttps://syndication-bleacherreport-com.cdn.ampproject.org/ii/w82/s/syndication.bleacherreport.com/images/br-logo-bw.png
p2175
sVqueryString
p2176
(lp2177
sVheaders
p2178
(lp2179
sVheadersSize
p2180
I585
sVbodySize
p2181
I0
sVmethod
p2182
VGET
p2183
sVhttpVersion
p2184
VHTTP/1.1
p2185
ssVtimings
p2186
(dp2187
Vcomment
p2188
g4
sVreceive
p2189
I0
sVsend
p2190
I0
sVssl
p2191
I-1
sVconnect
p2192
I-1
sVdns
p2193
I-1
sVwait
p2194
I27
sVblocked
p2195
I-1
ssVtime
p2196
I27
sVresponse
p2197
(dp2198
Vstatus
p2199
I304
sVcomment
p2200
g4
sVcookies
p2201
(lp2202
sVstatusText
p2203
VNot Modified
p2204
sVcontent
p2205
(dp2206
VmimeType
p2207
Vimage/png
p2208
sVcomment
p2209
g4
sVsize
p2210
I0
ssVheaders
p2211
(lp2212
sVheadersSize
p2213
I344
sVredirectURL
p2214
g4
sVbodySize
p2215
I0
sVhttpVersion
p2216
VHTTP/1.1
p2217
ssa(dp2218
Vcomment
p2219
g4
sVserverIPAddress
p2220
V216.58.216.193
p2221
sVpageref
p2222
VDallas Mavericks
p2223
sVstartedDateTime
p2224
V2017-04-16T08:35:57.487-05:00
p2225
sVcache
p2226
(dp2227
sVrequest
p2228
(dp2229
Vcomment
p2230
g4
sVcookies
p2231
(lp2232
sVurl
p2233
Vhttps://cdn-bleacherreport-net.cdn.ampproject.org/ii/w150/cdn.bleacherreport.net/images/team_logos/150x150/dallas_mavericks.png
p2234
sVqueryString
p2235
(lp2236
sVheaders
p2237
(lp2238
sVheadersSize
p2239
I543
sVbodySize
p2240
I0
sVmethod
p2241
VGET
p2242
sVhttpVersion
p2243
VHTTP/1.1
p2244
ssVtimings
p2245
(dp2246
Vcomment
p2247
g4
sVreceive
p2248
I2
sVsend
p2249
I0
sVssl
p2250
I-1
sVconnect
p2251
I-1
sVdns
p2252
I-1
sVwait
p2253
I26
sVblocked
p2254
I-1
ssVtime
p2255
I29
sVresponse
p2256
(dp2257
Vstatus
p2258
I200
sVcomment
p2259
g4
sVcookies
p2260
(lp2261
sVstatusText
p2262
VOK
p2263
sVcontent
p2264
(dp2265
VmimeType
p2266
Vimage/png
p2267
sVcomment
p2268
g4
sVsize
p2269
I0
ssVheaders
p2270
(lp2271
sVheadersSize
p2272
I821
sVredirectURL
p2273
g4
sVbodySize
p2274
I5099
sVhttpVersion
p2275
VHTTP/1.1
p2276
ssa(dp2277
Vcomment
p2278
g4
sVserverIPAddress
p2279
V216.58.216.193
p2280
sVpageref
p2281
VDallas Mavericks
p2282
sVstartedDateTime
p2283
V2017-04-16T08:35:57.492-05:00
p2284
sVcache
p2285
(dp2286
sVrequest
p2287
(dp2288
Vcomment
p2289
g4
sVcookies
p2290
(lp2291
sVurl
p2292
Vhttps://syndication-bleacherreport-com.cdn.ampproject.org/ii/w47/s/syndication.bleacherreport.com/images/refresh.png
p2293
sVqueryString
p2294
(lp2295
sVheaders
p2296
(lp2297
sVheadersSize
p2298
I582
sVbodySize
p2299
I0
sVmethod
p2300
VGET
p2301
sVhttpVersion
p2302
VHTTP/1.1
p2303
ssVtimings
p2304
(dp2305
Vcomment
p2306
g4
sVreceive
p2307
I0
sVsend
p2308
I0
sVssl
p2309
I-1
sVconnect
p2310
I-1
sVdns
p2311
I-1
sVwait
p2312
I29
sVblocked
p2313
I-1
ssVtime
p2314
I29
sVresponse
p2315
(dp2316
Vstatus
p2317
I304
sVcomment
p2318
g4
sVcookies
p2319
(lp2320
sVstatusText
p2321
VNot Modified
p2322
sVcontent
p2323
(dp2324
VmimeType
p2325
Vimage/png
p2326
sVcomment
p2327
g4
sVsize
p2328
I0
ssVheaders
p2329
(lp2330
sVheadersSize
p2331
I344
sVredirectURL
p2332
g4
sVbodySize
p2333
I0
sVhttpVersion
p2334
VHTTP/1.1
p2335
ssa(dp2336
Vcomment
p2337
g4
sVserverIPAddress
p2338
V216.58.216.193
p2339
sVpageref
p2340
VDallas Mavericks
p2341
sVstartedDateTime
p2342
V2017-04-16T08:35:57.641-05:00
p2343
sVcache
p2344
(dp2345
sVrequest
p2346
(dp2347
Vcomment
p2348
g4
sVcookies
p2349
(lp2350
sVurl
p2351
Vhttps://img-bleacherreport-net.cdn.ampproject.org/i/s/img.bleacherreport.net/cms/media/image/7d/5d/b2/a2/bcab/418c/8f29/7f0c94e19174/crop_exact_full_image.jpeg?h=2332&q=90&w=3492
p2352
sVqueryString
p2353
(lp2354
(dp2355
Vname
p2356
Vh
p2357
sVvalue
p2358
V2332
p2359
sa(dp2360
Vname
p2361
g513
sVvalue
p2362
V90
p2363
sa(dp2364
Vname
p2365
Vw
p2366
sVvalue
p2367
V3492
p2368
sasVheaders
p2369
(lp2370
sVheadersSize
p2371
I594
sVbodySize
p2372
I0
sVmethod
p2373
VGET
p2374
sVhttpVersion
p2375
VHTTP/1.1
p2376
ssVtimings
p2377
(dp2378
Vcomment
p2379
g4
sVreceive
p2380
I73
sVsend
p2381
I0
sVssl
p2382
I72
sVconnect
p2383
I97
sVdns
p2384
I45
sVwait
p2385
I150
sVblocked
p2386
I0
ssVtime
p2387
I367
sVresponse
p2388
(dp2389
Vstatus
p2390
I200
sVcomment
p2391
g4
sVcookies
p2392
(lp2393
sVstatusText
p2394
VOK
p2395
sVcontent
p2396
(dp2397
VmimeType
p2398
Vimage/jpeg
p2399
sVcomment
p2400
g4
sVsize
p2401
I0
ssVheaders
p2402
(lp2403
sVheadersSize
p2404
I849
sVredirectURL
p2405
g4
sVbodySize
p2406
I126912
sVhttpVersion
p2407
VHTTP/1.1
p2408
ssa(dp2409
Vcomment
p2410
g4
sVserverIPAddress
p2411
V216.58.216.193
p2412
sVpageref
p2413
VDallas Mavericks
p2414
sVstartedDateTime
p2415
V2017-04-16T08:35:57.647-05:00
p2416
sVcache
p2417
(dp2418
sVrequest
p2419
(dp2420
Vcomment
p2421
g4
sVcookies
p2422
(lp2423
sVurl
p2424
Vhttps://img-bleacherreport-net.cdn.ampproject.org/i/s/img.bleacherreport.net/cms/media/image/72/c7/33/33/9ba9/460e/b976/97ec9abc3317/crop_exact_660937236.jpg?h=396&q=90&w=594
p2425
sVqueryString
p2426
(lp2427
(dp2428
Vname
p2429
g2357
sVvalue
p2430
V396
p2431
sa(dp2432
Vname
p2433
g513
sVvalue
p2434
V90
p2435
sa(dp2436
Vname
p2437
g2366
sVvalue
p2438
V594
p2439
sasVheaders
p2440
(lp2441
sVheadersSize
p2442
I590
sVbodySize
p2443
I0
sVmethod
p2444
VGET
p2445
sVhttpVersion
p2446
VHTTP/1.1
p2447
ssVtimings
p2448
(dp2449
Vcomment
p2450
g4
sVreceive
p2451
I23
sVsend
p2452
I0
sVssl
p2453
I80
sVconnect
p2454
I103
sVdns
p2455
I41
sVwait
p2456
I29
sVblocked
p2457
I0
ssVtime
p2458
I198
sVresponse
p2459
(dp2460
Vstatus
p2461
I200
sVcomment
p2462
g4
sVcookies
p2463
(lp2464
sVstatusText
p2465
VOK
p2466
sVcontent
p2467
(dp2468
VmimeType
p2469
Vimage/jpeg
p2470
sVcomment
p2471
g4
sVsize
p2472
I0
ssVheaders
p2473
(lp2474
sVheadersSize
p2475
I848
sVredirectURL
p2476
g4
sVbodySize
p2477
I30725
sVhttpVersion
p2478
VHTTP/1.1
p2479
ssa(dp2480
Vcomment
p2481
g4
sVserverIPAddress
p2482
V216.58.216.196
p2483
sVpageref
p2484
VDallas Mavericks
p2485
sVstartedDateTime
p2486
V2017-04-16T08:35:58.473-05:00
p2487
sVcache
p2488
(dp2489
sVrequest
p2490
(dp2491
Vcomment
p2492
g4
sVcookies
p2493
(lp2494
sVurl
p2495
Vhttps://www.google.com/gen_204?atyp=i&ct=slh&cad=&ei=JnPzWNf_J-GpjwS4p5moDg&s=2&v=2&pv=0.7815038290464398&me=18:1492349753255,e,H&zx=1492349758471
p2496
sVqueryString
p2497
(lp2498
(dp2499
Vname
p2500
Vatyp
p2501
sVvalue
p2502
g30
sa(dp2503
Vname
p2504
Vct
p2505
sVvalue
p2506
Vslh
p2507
sa(dp2508
Vname
p2509
Vcad
p2510
sVvalue
p2511
g4
sa(dp2512
Vname
p2513
Vei
p2514
sVvalue
p2515
VJnPzWNf_J-GpjwS4p5moDg
p2516
sa(dp2517
Vname
p2518
g57
sVvalue
p2519
g64
sa(dp2520
Vname
p2521
g62
sVvalue
p2522
g64
sa(dp2523
Vname
p2524
Vpv
p2525
sVvalue
p2526
V0.7815038290464398
p2527
sa(dp2528
Vname
p2529
Vme
p2530
sVvalue
p2531
V18:1492349753255,e,H
p2532
sa(dp2533
Vname
p2534
Vzx
p2535
sVvalue
p2536
V1492349758471
p2537
sasVheaders
p2538
(lp2539
sVheadersSize
p2540
I663
sVbodySize
p2541
I0
sVmethod
p2542
VGET
p2543
sVhttpVersion
p2544
VHTTP/1.1
p2545
ssVtimings
p2546
(dp2547
Vcomment
p2548
g4
sVreceive
p2549
I0
sVsend
p2550
I0
sVssl
p2551
I-1
sVconnect
p2552
I-1
sVdns
p2553
I-1
sVwait
p2554
I29
sVblocked
p2555
I-1
ssVtime
p2556
I30
sVresponse
p2557
(dp2558
Vstatus
p2559
I204
sVcomment
p2560
g4
sVcookies
p2561
(lp2562
sVstatusText
p2563
VNo Content
p2564
sVcontent
p2565
(dp2566
VmimeType
p2567
Vtext/html; charset=UTF-8
p2568
sVcomment
p2569
g4
sVsize
p2570
I0
ssVheaders
p2571
(lp2572
sVheadersSize
p2573
I248
sVredirectURL
p2574
g4
sVbodySize
p2575
I0
sVhttpVersion
p2576
VHTTP/1.1
p2577
ssasVversion
p2578
V1.2
p2579
sVpages
p2580
(lp2581
(dp2582
VpageTimings
p2583
(dp2584
Vcomment
p2585
g4
ssVcomment
p2586
g4
sVtitle
p2587
VDallas Mavericks
p2588
sVid
p2589
VDallas Mavericks
p2590
sVstartedDateTime
p2591
V2017-04-16T08:35:52.894-05:00
p2592
sasVcreator
p2593
(dp2594
Vcomment
p2595
g4
sVversion
p2596
V2.1.4
p2597
sVname
p2598
VBrowserMob Proxy
p2599
sss.