(dp0
Vlog
p1
(dp2
Vcomment
p3
V
p4
sVentries
p5
(lp6
(dp7
Vcomment
p8
g4
sVserverIPAddress
p9
V172.217.6.4
p10
sVpageref
p11
VThe Jungle Book
p12
sVstartedDateTime
p13
V2017-04-16T08:43:01.030-05:00
p14
sVcache
p15
(dp16
sVrequest
p17
(dp18
Vcomment
p19
g4
sVcookies
p20
(lp21
sVurl
p22
Vhttps://www.google.com/gen_204?atyp=i&ct=slh&cad=&ei=1nTzWIvkGoLIjwTj-oXIBA&m=V&t=C&s=1&v=2&pv=0.9493251569752079&me=1:1492350169356,x:2,V,0,0,1280,944:0,N,1,1nTzWIvkGoLIjwTj-oXIBA:0,R,1,24,8,155,1249,284:0,R,1,47,8,449,1249,516:0,R,1,48,8,449,1249,516:0,R,1,52,1182,449,75,116:0,R,1,61,8,487,1174,40:0,R,1,73,8,565,1249,55:0,R,1,77,8,637,1249,20:0,R,1,78,24,637,1217,20:0,R,1,81,8,673,1249,20:0,R,1,86,8,701,1249,20:0,R,1,97,8,741,1249,151:0,R,1,98,8,790,1249,122:2,B,4218:11666,e,U&zx=1492350181027
p23
sVqueryString
p24
(lp25
(dp26
Vname
p27
Vatyp
p28
sVvalue
p29
Vi
p30
sa(dp31
Vname
p32
Vct
p33
sVvalue
p34
Vslh
p35
sa(dp36
Vname
p37
Vcad
p38
sVvalue
p39
g4
sa(dp40
Vname
p41
Vei
p42
sVvalue
p43
V1nTzWIvkGoLIjwTj-oXIBA
p44
sa(dp45
Vname
p46
Vm
p47
sVvalue
p48
VV
p49
sa(dp50
Vname
p51
Vt
p52
sVvalue
p53
VC
p54
sa(dp55
Vname
p56
Vs
p57
sVvalue
p58
V1
p59
sa(dp60
Vname
p61
Vv
p62
sVvalue
p63
V2
p64
sa(dp65
Vname
p66
Vpv
p67
sVvalue
p68
V0.9493251569752079
p69
sa(dp70
Vname
p71
Vme
p72
sVvalue
p73
V1:1492350169356,x:2,V,0,0,1280,944:0,N,1,1nTzWIvkGoLIjwTj-oXIBA:0,R,1,24,8,155,1249,284:0,R,1,47,8,449,1249,516:0,R,1,48,8,449,1249,516:0,R,1,52,1182,449,75,116:0,R,1,61,8,487,1174,40:0,R,1,73,8,565,1249,55:0,R,1,77,8,637,1249,20:0,R,1,78,24,637,1217,20:0,R,1,81,8,673,1249,20:0,R,1,86,8,701,1249,20:0,R,1,97,8,741,1249,151:0,R,1,98,8,790,1249,122:2,B,4218:11666,e,U
p74
sa(dp75
Vname
p76
Vzx
p77
sVvalue
p78
V1492350181027
p79
sasVheaders
p80
(lp81
sVheadersSize
p82
I1017
sVbodySize
p83
I0
sVmethod
p84
VGET
p85
sVhttpVersion
p86
VHTTP/1.1
p87
ssVtimings
p88
(dp89
Vcomment
p90
g4
sVreceive
p91
I0
sVsend
p92
I0
sVssl
p93
I-1
sVconnect
p94
I-1
sVdns
p95
I-1
sVwait
p96
I0
sVblocked
p97
I-1
ssVtime
p98
I0
sVresponse
p99
(dp100
Vstatus
p101
I0
sVcomment
p102
g4
sVcookies
p103
(lp104
sV_error
p105
VNo response received
p106
sVstatusText
p107
g4
sVcontent
p108
(dp109
VmimeType
p110
g4
sVcomment
p111
g4
sVsize
p112
I0
ssVheaders
p113
(lp114
sVheadersSize
p115
I-1
sVredirectURL
p116
g4
sVbodySize
p117
I-1
sVhttpVersion
p118
Vunknown
p119
ssa(dp120
Vcomment
p121
g4
sVserverIPAddress
p122
V172.217.6.4
p123
sVpageref
p124
VThe Jungle Book
p125
sVstartedDateTime
p126
V2017-04-16T08:43:01.035-05:00
p127
sVcache
p128
(dp129
sVrequest
p130
(dp131
Vcomment
p132
g4
sVcookies
p133
(lp134
sVurl
p135
Vhttp://www.google.com/
p136
sVqueryString
p137
(lp138
sVheaders
p139
(lp140
sVheadersSize
p141
I613
sVbodySize
p142
I0
sVmethod
p143
VGET
p144
sVhttpVersion
p145
VHTTP/1.1
p146
ssVtimings
p147
(dp148
Vcomment
p149
g4
sVreceive
p150
I0
sVsend
p151
I0
sVssl
p152
I-1
sVconnect
p153
I-1
sVdns
p154
I-1
sVwait
p155
I42
sVblocked
p156
I-1
ssVtime
p157
I43
sVresponse
p158
(dp159
Vstatus
p160
I302
sVcomment
p161
g4
sVcookies
p162
(lp163
sVstatusText
p164
VFound
p165
sVcontent
p166
(dp167
VmimeType
p168
Vtext/html; charset=UTF-8
p169
sVcomment
p170
g4
sVsize
p171
I0
ssVheaders
p172
(lp173
sVheadersSize
p174
I609
sVredirectURL
p175
Vhttps://www.google.com/?gws_rd=ssl
p176
sVbodySize
p177
I231
sVhttpVersion
p178
VHTTP/1.1
p179
ssa(dp180
Vcomment
p181
g4
sVserverIPAddress
p182
V172.217.6.4
p183
sVpageref
p184
VThe Jungle Book
p185
sVstartedDateTime
p186
V2017-04-16T08:43:01.031-05:00
p187
sVcache
p188
(dp189
sVrequest
p190
(dp191
Vcomment
p192
g4
sVcookies
p193
(lp194
sVurl
p195
Vhttps://www.google.com
p196
sVqueryString
p197
(lp198
sVheaders
p199
(lp200
sVheadersSize
p201
I0
sVbodySize
p202
I0
sVmethod
p203
VCONNECT
p204
sVhttpVersion
p205
VHTTP/1.1
p206
ssVtimings
p207
(dp208
Vcomment
p209
g4
sVreceive
p210
I0
sVsend
p211
I0
sVssl
p212
I-1
sVconnect
p213
I52
sVdns
p214
I1
sVwait
p215
I0
sVblocked
p216
I0
ssVtime
p217
I53
sVresponse
p218
(dp219
Vstatus
p220
I0
sVcomment
p221
g4
sVcookies
p222
(lp223
sV_error
p224
VUnable to connect to host
p225
sVstatusText
p226
g4
sVcontent
p227
(dp228
VmimeType
p229
g4
sVcomment
p230
g4
sVsize
p231
I0
ssVheaders
p232
(lp233
sVheadersSize
p234
I-1
sVredirectURL
p235
g4
sVbodySize
p236
I-1
sVhttpVersion
p237
Vunknown
p238
ssa(dp239
Vcomment
p240
g4
sVserverIPAddress
p241
V172.217.6.4
p242
sVpageref
p243
VThe Jungle Book
p244
sVstartedDateTime
p245
V2017-04-16T08:43:01.032-05:00
p246
sVcache
p247
(dp248
sVrequest
p249
(dp250
Vcomment
p251
g4
sVcookies
p252
(lp253
sVurl
p254
Vhttps://www.google.com
p255
sVqueryString
p256
(lp257
sVheaders
p258
(lp259
sVheadersSize
p260
I0
sVbodySize
p261
I0
sVmethod
p262
VCONNECT
p263
sVhttpVersion
p264
VHTTP/1.1
p265
ssVtimings
p266
(dp267
Vcomment
p268
g4
sVreceive
p269
I0
sVsend
p270
I0
sVssl
p271
I-1
sVconnect
p272
I52
sVdns
p273
I0
sVwait
p274
I0
sVblocked
p275
I0
ssVtime
p276
I53
sVresponse
p277
(dp278
Vstatus
p279
I0
sVcomment
p280
g4
sVcookies
p281
(lp282
sV_error
p283
VUnable to connect to host
p284
sVstatusText
p285
g4
sVcontent
p286
(dp287
VmimeType
p288
g4
sVcomment
p289
g4
sVsize
p290
I0
ssVheaders
p291
(lp292
sVheadersSize
p293
I-1
sVredirectURL
p294
g4
sVbodySize
p295
I-1
sVhttpVersion
p296
Vunknown
p297
ssa(dp298
Vcomment
p299
g4
sVserverIPAddress
p300
V172.217.6.4
p301
sVpageref
p302
VThe Jungle Book
p303
sVstartedDateTime
p304
V2017-04-16T08:43:01.157-05:00
p305
sVcache
p306
(dp307
sVrequest
p308
(dp309
Vcomment
p310
g4
sVcookies
p311
(lp312
sVurl
p313
Vhttps://www.google.com/?gws_rd=ssl
p314
sVqueryString
p315
(lp316
(dp317
Vname
p318
Vgws_rd
p319
sVvalue
p320
Vssl
p321
sasVheaders
p322
(lp323
sVheadersSize
p324
I607
sVbodySize
p325
I0
sVmethod
p326
VGET
p327
sVhttpVersion
p328
VHTTP/1.1
p329
ssVtimings
p330
(dp331
Vcomment
p332
g4
sVreceive
p333
I39
sVsend
p334
I0
sVssl
p335
I38
sVconnect
p336
I66
sVdns
p337
I0
sVwait
p338
I91
sVblocked
p339
I0
ssVtime
p340
I198
sVresponse
p341
(dp342
Vstatus
p343
I200
sVcomment
p344
g4
sVcookies
p345
(lp346
sVstatusText
p347
VOK
p348
sVcontent
p349
(dp350
VmimeType
p351
Vtext/html; charset=UTF-8
p352
sVcomment
p353
g4
sVsize
p354
I0
ssVheaders
p355
(lp356
sVheadersSize
p357
I721
sVredirectURL
p358
g4
sVbodySize
p359
I34290
sVhttpVersion
p360
VHTTP/1.1
p361
ssa(dp362
Vcomment
p363
g4
sVserverIPAddress
p364
V172.217.6.4
p365
sVpageref
p366
VThe Jungle Book
p367
sVstartedDateTime
p368
V2017-04-16T08:43:01.686-05:00
p369
sVcache
p370
(dp371
sVrequest
p372
(dp373
Vcomment
p374
g4
sVcookies
p375
(lp376
sVurl
p377
Vhttps://www.google.com/gen_204?s=mobilewebhp&atyp=csi&ei=5HTzWOvSCZ-6jwSmgIrgDQ&imc=1&imn=1&imp=0&adh=&xjs=init.57.12.sb_mob.43.dvl.5.mbsf.3.c.2.async.2&ima=1&rt=xjsls.30,prt.31,iml.31,dcl.56,xjses.127,xjsee.270,xjs.271,ol.408,aft.31,wsrt.244,cst.0,dnst.0,rqst.132,rspt.134,rqstt.131,unt.59,cstt.59,dit.296
p378
sVqueryString
p379
(lp380
(dp381
Vname
p382
g57
sVvalue
p383
Vmobilewebhp
p384
sa(dp385
Vname
p386
Vatyp
p387
sVvalue
p388
Vcsi
p389
sa(dp390
Vname
p391
Vei
p392
sVvalue
p393
V5HTzWOvSCZ-6jwSmgIrgDQ
p394
sa(dp395
Vname
p396
Vimc
p397
sVvalue
p398
g59
sa(dp399
Vname
p400
Vimn
p401
sVvalue
p402
g59
sa(dp403
Vname
p404
Vimp
p405
sVvalue
p406
V0
p407
sa(dp408
Vname
p409
Vadh
p410
sVvalue
p411
g4
sa(dp412
Vname
p413
Vxjs
p414
sVvalue
p415
Vinit.57.12.sb_mob.43.dvl.5.mbsf.3.c.2.async.2
p416
sa(dp417
Vname
p418
Vima
p419
sVvalue
p420
g59
sa(dp421
Vname
p422
Vrt
p423
sVvalue
p424
Vxjsls.30,prt.31,iml.31,dcl.56,xjses.127,xjsee.270,xjs.271,ol.408,aft.31,wsrt.244,cst.0,dnst.0,rqst.132,rspt.134,rqstt.131,unt.59,cstt.59,dit.296
p425
sasVheaders
p426
(lp427
sVheadersSize
p428
I834
sVbodySize
p429
I0
sVmethod
p430
VGET
p431
sVhttpVersion
p432
VHTTP/1.1
p433
ssVtimings
p434
(dp435
Vcomment
p436
g4
sVreceive
p437
I0
sVsend
p438
I0
sVssl
p439
I-1
sVconnect
p440
I-1
sVdns
p441
I-1
sVwait
p442
I29
sVblocked
p443
I-1
ssVtime
p444
I30
sVresponse
p445
(dp446
Vstatus
p447
I204
sVcomment
p448
g4
sVcookies
p449
(lp450
sVstatusText
p451
VNo Content
p452
sVcontent
p453
(dp454
VmimeType
p455
Vtext/html; charset=UTF-8
p456
sVcomment
p457
g4
sVsize
p458
I0
ssVheaders
p459
(lp460
sVheadersSize
p461
I248
sVredirectURL
p462
g4
sVbodySize
p463
I0
sVhttpVersion
p464
VHTTP/1.1
p465
ssa(dp466
Vcomment
p467
g4
sVserverIPAddress
p468
V172.217.6.4
p469
sVpageref
p470
VThe Jungle Book
p471
sVstartedDateTime
p472
V2017-04-16T08:43:03.255-05:00
p473
sVcache
p474
(dp475
sVrequest
p476
(dp477
Vcomment
p478
g4
sVcookies
p479
(lp480
sVurl
p481
Vhttps://www.google.com/complete/search?client=mobile-gws-hp&hl=en&gs_rn=64&gs_ri=mobile-gws-hp&sla=1&pfq=the%20girl%20on%20the%20train&gm=602&cp=0&gs_id=1&xhr=t&q=T&tch=1&ech=1&psi=5HTzWOvSCZ-6jwSmgIrgDQ.1492350181485.1
p482
sVqueryString
p483
(lp484
(dp485
Vname
p486
Vclient
p487
sVvalue
p488
Vmobile-gws-hp
p489
sa(dp490
Vname
p491
Vhl
p492
sVvalue
p493
Ven
p494
sa(dp495
Vname
p496
Vgs_rn
p497
sVvalue
p498
V64
p499
sa(dp500
Vname
p501
Vgs_ri
p502
sVvalue
p503
Vmobile-gws-hp
p504
sa(dp505
Vname
p506
Vsla
p507
sVvalue
p508
g59
sa(dp509
Vname
p510
Vpfq
p511
sVvalue
p512
Vthe girl on the train
p513
sa(dp514
Vname
p515
Vgm
p516
sVvalue
p517
V602
p518
sa(dp519
Vname
p520
Vcp
p521
sVvalue
p522
g407
sa(dp523
Vname
p524
Vgs_id
p525
sVvalue
p526
g59
sa(dp527
Vname
p528
Vxhr
p529
sVvalue
p530
g52
sa(dp531
Vname
p532
Vq
p533
sVvalue
p534
VT
p535
sa(dp536
Vname
p537
Vtch
p538
sVvalue
p539
g59
sa(dp540
Vname
p541
Vech
p542
sVvalue
p543
g59
sa(dp544
Vname
p545
Vpsi
p546
sVvalue
p547
V5HTzWOvSCZ-6jwSmgIrgDQ.1492350181485.1
p548
sasVheaders
p549
(lp550
sVheadersSize
p551
I747
sVbodySize
p552
I0
sVmethod
p553
VGET
p554
sVhttpVersion
p555
VHTTP/1.1
p556
ssVtimings
p557
(dp558
Vcomment
p559
g4
sVreceive
p560
I0
sVsend
p561
I0
sVssl
p562
I-1
sVconnect
p563
I-1
sVdns
p564
I-1
sVwait
p565
I0
sVblocked
p566
I-1
ssVtime
p567
I0
sVresponse
p568
(dp569
Vstatus
p570
I0
sVcomment
p571
g4
sVcookies
p572
(lp573
sV_error
p574
VNo response received
p575
sVstatusText
p576
g4
sVcontent
p577
(dp578
VmimeType
p579
g4
sVcomment
p580
g4
sVsize
p581
I0
ssVheaders
p582
(lp583
sVheadersSize
p584
I-1
sVredirectURL
p585
g4
sVbodySize
p586
I-1
sVhttpVersion
p587
Vunknown
p588
ssa(dp589
Vcomment
p590
g4
sVserverIPAddress
p591
V172.217.6.4
p592
sVpageref
p593
VThe Jungle Book
p594
sVstartedDateTime
p595
V2017-04-16T08:43:03.384-05:00
p596
sVcache
p597
(dp598
sVrequest
p599
(dp600
Vcomment
p601
g4
sVcookies
p602
(lp603
sVurl
p604
Vhttps://www.google.com/search?site=&source=hp&ei=5HTzWOvSCZ-6jwSmgIrgDQ&q=The+Jungle+Book&oq=The+Jungle+Book&gs_l=mobile-gws-hp.3...1726.1771.0.1798.15.1.0.0.0.0.0.0..0.0....0...1c.1.64.mobile-gws-hp..15.0.0.c1K2Zv6CodQ
p605
sVqueryString
p606
(lp607
(dp608
Vname
p609
Vsite
p610
sVvalue
p611
g4
sa(dp612
Vname
p613
Vsource
p614
sVvalue
p615
Vhp
p616
sa(dp617
Vname
p618
Vei
p619
sVvalue
p620
V5HTzWOvSCZ-6jwSmgIrgDQ
p621
sa(dp622
Vname
p623
g533
sVvalue
p624
VThe Jungle Book
p625
sa(dp626
Vname
p627
Voq
p628
sVvalue
p629
VThe Jungle Book
p630
sa(dp631
Vname
p632
Vgs_l
p633
sVvalue
p634
Vmobile-gws-hp.3...1726.1771.0.1798.15.1.0.0.0.0.0.0..0.0....0...1c.1.64.mobile-gws-hp..15.0.0.c1K2Zv6CodQ
p635
sasVheaders
p636
(lp637
sVheadersSize
p638
I837
sVbodySize
p639
I0
sVmethod
p640
VGET
p641
sVhttpVersion
p642
VHTTP/1.1
p643
ssVtimings
p644
(dp645
Vcomment
p646
g4
sVreceive
p647
I1091
sVsend
p648
I0
sVssl
p649
I22
sVconnect
p650
I43
sVdns
p651
I0
sVwait
p652
I101
sVblocked
p653
I0
ssVtime
p654
I1237
sVresponse
p655
(dp656
Vstatus
p657
I200
sVcomment
p658
g4
sVcookies
p659
(lp660
sVstatusText
p661
VOK
p662
sVcontent
p663
(dp664
VmimeType
p665
Vtext/html; charset=UTF-8
p666
sVcomment
p667
g4
sVsize
p668
I0
ssVheaders
p669
(lp670
sVheadersSize
p671
I363
sVredirectURL
p672
g4
sVbodySize
p673
I54090
sVhttpVersion
p674
VHTTP/1.1
p675
ssa(dp676
Vcomment
p677
g4
sVserverIPAddress
p678
V216.58.216.193
p679
sVpageref
p680
VThe Jungle Book
p681
sVstartedDateTime
p682
V2017-04-16T08:43:06.171-05:00
p683
sVcache
p684
(dp685
sVrequest
p686
(dp687
Vcomment
p688
g4
sVcookies
p689
(lp690
sVurl
p691
Vhttps://cdn.ampproject.org/preconnect.gif?0.24058835609065155
p692
sVqueryString
p693
(lp694
(dp695
Vname
p696
V0.24058835609065155
p697
sVvalue
p698
g4
sasVheaders
p699
(lp700
sVheadersSize
p701
I376
sVbodySize
p702
I0
sVmethod
p703
VGET
p704
sVhttpVersion
p705
VHTTP/1.1
p706
ssVtimings
p707
(dp708
Vcomment
p709
g4
sVreceive
p710
I0
sVsend
p711
I0
sVssl
p712
I-1
sVconnect
p713
I-1
sVdns
p714
I-1
sVwait
p715
I56
sVblocked
p716
I-1
ssVtime
p717
I56
sVresponse
p718
(dp719
Vstatus
p720
I200
sVcomment
p721
g4
sVcookies
p722
(lp723
sVstatusText
p724
VOK
p725
sVcontent
p726
(dp727
VmimeType
p728
Vimage/gif
p729
sVcomment
p730
g4
sVsize
p731
I0
ssVheaders
p732
(lp733
sVheadersSize
p734
I826
sVredirectURL
p735
g4
sVbodySize
p736
I37
sVhttpVersion
p737
VHTTP/1.1
p738
ssa(dp739
Vcomment
p740
g4
sVserverIPAddress
p741
V172.217.6.4
p742
sVpageref
p743
VThe Jungle Book
p744
sVstartedDateTime
p745
V2017-04-16T08:43:06.246-05:00
p746
sVcache
p747
(dp748
sVrequest
p749
(dp750
Vcomment
p751
g4
sVcookies
p752
(lp753
sVurl
p754
Vhttps://www.google.com/gen_204?s=web&atyp=csi&ei=5nTzWLXGFszejwTLt6uoBA&imc=19&imn=19&imp=3&adh=&xjs=init.65.14.sb_mob.48.dvl.6.async.4.tl.3.c.1&ima=3&rt=prt.1166,iml.1212,xjsls.1167,dcl.1225,xjses.1371,xjsee.1530,xjs.1531,ol.2739,aft.1212,wsrt.169,cst.0,dnst.0,rqst.1196,rspt.1197,rqstt.55,unt.10,cstt.10,dit.1368
p755
sVqueryString
p756
(lp757
(dp758
Vname
p759
g57
sVvalue
p760
Vweb
p761
sa(dp762
Vname
p763
Vatyp
p764
sVvalue
p765
Vcsi
p766
sa(dp767
Vname
p768
Vei
p769
sVvalue
p770
V5nTzWLXGFszejwTLt6uoBA
p771
sa(dp772
Vname
p773
Vimc
p774
sVvalue
p775
V19
p776
sa(dp777
Vname
p778
Vimn
p779
sVvalue
p780
V19
p781
sa(dp782
Vname
p783
Vimp
p784
sVvalue
p785
V3
p786
sa(dp787
Vname
p788
Vadh
p789
sVvalue
p790
g4
sa(dp791
Vname
p792
Vxjs
p793
sVvalue
p794
Vinit.65.14.sb_mob.48.dvl.6.async.4.tl.3.c.1
p795
sa(dp796
Vname
p797
Vima
p798
sVvalue
p799
g786
sa(dp800
Vname
p801
Vrt
p802
sVvalue
p803
Vprt.1166,iml.1212,xjsls.1167,dcl.1225,xjses.1371,xjsee.1530,xjs.1531,ol.2739,aft.1212,wsrt.169,cst.0,dnst.0,rqst.1196,rspt.1197,rqstt.55,unt.10,cstt.10,dit.1368
p804
sasVheaders
p805
(lp806
sVheadersSize
p807
I831
sVbodySize
p808
I0
sVmethod
p809
VGET
p810
sVhttpVersion
p811
VHTTP/1.1
p812
ssVtimings
p813
(dp814
Vcomment
p815
g4
sVreceive
p816
I0
sVsend
p817
I0
sVssl
p818
I-1
sVconnect
p819
I-1
sVdns
p820
I-1
sVwait
p821
I28
sVblocked
p822
I-1
ssVtime
p823
I29
sVresponse
p824
(dp825
Vstatus
p826
I204
sVcomment
p827
g4
sVcookies
p828
(lp829
sVstatusText
p830
VNo Content
p831
sVcontent
p832
(dp833
VmimeType
p834
Vtext/html; charset=UTF-8
p835
sVcomment
p836
g4
sVsize
p837
I0
ssVheaders
p838
(lp839
sVheadersSize
p840
I248
sVredirectURL
p841
g4
sVbodySize
p842
I0
sVhttpVersion
p843
VHTTP/1.1
p844
ssa(dp845
Vcomment
p846
g4
sVserverIPAddress
p847
V172.217.6.4
p848
sVpageref
p849
VThe Jungle Book
p850
sVstartedDateTime
p851
V2017-04-16T08:43:08.142-05:00
p852
sVcache
p853
(dp854
sVrequest
p855
(dp856
Vcomment
p857
g4
sVcookies
p858
(lp859
sVurl
p860
Vhttps://www.google.com/gen_204?atyp=i&ct=slh&cad=&ei=d3TzWK6wMKbUjwTI3aaACQ&m=V&t=C&s=1&v=2&pv=0.862083874440354&me=1:1492350075123,x:1,V,0,0,1280,944:0,N,1,d3TzWK6wMKbUjwTI3aaACQ:0,R,1,25,24,155,1217,114:0,R,1,27,8,290,1249,210:0,R,1,28,8,290,1249,48:0,R,1,30,8,339,1249,80:0,R,1,34,8,420,1249,80:0,R,1,39,24,510,1217,189:0,R,1,47,24,720,1217,199:2,B,3360:21224,e,U&zx=1492350188138
p861
sVqueryString
p862
(lp863
(dp864
Vname
p865
Vatyp
p866
sVvalue
p867
g30
sa(dp868
Vname
p869
Vct
p870
sVvalue
p871
Vslh
p872
sa(dp873
Vname
p874
Vcad
p875
sVvalue
p876
g4
sa(dp877
Vname
p878
Vei
p879
sVvalue
p880
Vd3TzWK6wMKbUjwTI3aaACQ
p881
sa(dp882
Vname
p883
g47
sVvalue
p884
g49
sa(dp885
Vname
p886
g52
sVvalue
p887
g54
sa(dp888
Vname
p889
g57
sVvalue
p890
g59
sa(dp891
Vname
p892
g62
sVvalue
p893
g64
sa(dp894
Vname
p895
Vpv
p896
sVvalue
p897
V0.862083874440354
p898
sa(dp899
Vname
p900
Vme
p901
sVvalue
p902
V1:1492350075123,x:1,V,0,0,1280,944:0,N,1,d3TzWK6wMKbUjwTI3aaACQ:0,R,1,25,24,155,1217,114:0,R,1,27,8,290,1249,210:0,R,1,28,8,290,1249,48:0,R,1,30,8,339,1249,80:0,R,1,34,8,420,1249,80:0,R,1,39,24,510,1217,189:0,R,1,47,24,720,1217,199:2,B,3360:21224,e,U
p903
sa(dp904
Vname
p905
Vzx
p906
sVvalue
p907
V1492350188138
p908
sasVheaders
p909
(lp910
sVheadersSize
p911
I900
sVbodySize
p912
I0
sVmethod
p913
VGET
p914
sVhttpVersion
p915
VHTTP/1.1
p916
ssVtimings
p917
(dp918
Vcomment
p919
g4
sVreceive
p920
I0
sVsend
p921
I0
sVssl
p922
I-1
sVconnect
p923
I-1
sVdns
p924
I-1
sVwait
p925
I32
sVblocked
p926
I-1
ssVtime
p927
I32
sVresponse
p928
(dp929
Vstatus
p930
I204
sVcomment
p931
g4
sVcookies
p932
(lp933
sVstatusText
p934
VNo Content
p935
sVcontent
p936
(dp937
VmimeType
p938
Vtext/html; charset=UTF-8
p939
sVcomment
p940
g4
sVsize
p941
I0
ssVheaders
p942
(lp943
sVheadersSize
p944
I248
sVredirectURL
p945
g4
sVbodySize
p946
I0
sVhttpVersion
p947
VHTTP/1.1
p948
ssasVversion
p949
V1.2
p950
sVpages
p951
(lp952
(dp953
VpageTimings
p954
(dp955
Vcomment
p956
g4
ssVcomment
p957
g4
sVtitle
p958
VThe Jungle Book
p959
sVid
p960
VThe Jungle Book
p961
sVstartedDateTime
p962
V2017-04-16T08:43:01.019-05:00
p963
sasVcreator
p964
(dp965
Vcomment
p966
g4
sVversion
p967
V2.1.4
p968
sVname
p969
VBrowserMob Proxy
p970
sss.