(dp0
Vlog
p1
(dp2
Vcomment
p3
V
p4
sVentries
p5
(lp6
(dp7
Vcomment
p8
g4
sVserverIPAddress
p9
V216.58.216.196
p10
sVpageref
p11
VBoston Celtics
p12
sVstartedDateTime
p13
V2017-04-16T08:33:08.175-05:00
p14
sVcache
p15
(dp16
sVrequest
p17
(dp18
Vcomment
p19
g4
sVcookies
p20
(lp21
sVurl
p22
Vhttps://www.google.com/gen_204?atyp=i&ct=slh&cad=&ei=g3LzWKarJomcjwTlprX4Bw&m=V&t=C&s=1&v=2&pv=0.11286988772947482&me=1:1492349574771,x:2,V,0,0,1280,944:0,N,1,g3LzWKarJomcjwTlprX4Bw:0,R,1,24,0,155,1197,589:0,R,1,25,0,155,1197,587:0,R,1,78,8,752,1264,359:0,R,1,79,8,796,1264,315:0,R,1,80,0,796,1280,335:1,B,4331:13399,e,U&zx=1492349588174
p23
sVqueryString
p24
(lp25
(dp26
Vname
p27
Vatyp
p28
sVvalue
p29
Vi
p30
sa(dp31
Vname
p32
Vct
p33
sVvalue
p34
Vslh
p35
sa(dp36
Vname
p37
Vcad
p38
sVvalue
p39
g4
sa(dp40
Vname
p41
Vei
p42
sVvalue
p43
Vg3LzWKarJomcjwTlprX4Bw
p44
sa(dp45
Vname
p46
Vm
p47
sVvalue
p48
VV
p49
sa(dp50
Vname
p51
Vt
p52
sVvalue
p53
VC
p54
sa(dp55
Vname
p56
Vs
p57
sVvalue
p58
V1
p59
sa(dp60
Vname
p61
Vv
p62
sVvalue
p63
V2
p64
sa(dp65
Vname
p66
Vpv
p67
sVvalue
p68
V0.11286988772947482
p69
sa(dp70
Vname
p71
Vme
p72
sVvalue
p73
V1:1492349574771,x:2,V,0,0,1280,944:0,N,1,g3LzWKarJomcjwTlprX4Bw:0,R,1,24,0,155,1197,589:0,R,1,25,0,155,1197,587:0,R,1,78,8,752,1264,359:0,R,1,79,8,796,1264,315:0,R,1,80,0,796,1280,335:1,B,4331:13399,e,U
p74
sa(dp75
Vname
p76
Vzx
p77
sVvalue
p78
V1492349588174
p79
sasVheaders
p80
(lp81
sVheadersSize
p82
I854
sVbodySize
p83
I0
sVmethod
p84
VGET
p85
sVhttpVersion
p86
VHTTP/1.1
p87
ssVtimings
p88
(dp89
Vcomment
p90
g4
sVreceive
p91
I0
sVsend
p92
I0
sVssl
p93
I-1
sVconnect
p94
I-1
sVdns
p95
I-1
sVwait
p96
I0
sVblocked
p97
I-1
ssVtime
p98
I0
sVresponse
p99
(dp100
Vstatus
p101
I0
sVcomment
p102
g4
sVcookies
p103
(lp104
sV_error
p105
VNo response received
p106
sVstatusText
p107
g4
sVcontent
p108
(dp109
VmimeType
p110
g4
sVcomment
p111
g4
sVsize
p112
I0
ssVheaders
p113
(lp114
sVheadersSize
p115
I-1
sVredirectURL
p116
g4
sVbodySize
p117
I-1
sVhttpVersion
p118
Vunknown
p119
ssa(dp120
Vcomment
p121
g4
sVserverIPAddress
p122
V216.58.216.196
p123
sVpageref
p124
VBoston Celtics
p125
sVstartedDateTime
p126
V2017-04-16T08:33:08.179-05:00
p127
sVcache
p128
(dp129
sVrequest
p130
(dp131
Vcomment
p132
g4
sVcookies
p133
(lp134
sVurl
p135
Vhttp://www.google.com/
p136
sVqueryString
p137
(lp138
sVheaders
p139
(lp140
sVheadersSize
p141
I613
sVbodySize
p142
I0
sVmethod
p143
VGET
p144
sVhttpVersion
p145
VHTTP/1.1
p146
ssVtimings
p147
(dp148
Vcomment
p149
g4
sVreceive
p150
I0
sVsend
p151
I0
sVssl
p152
I-1
sVconnect
p153
I-1
sVdns
p154
I-1
sVwait
p155
I44
sVblocked
p156
I-1
ssVtime
p157
I45
sVresponse
p158
(dp159
Vstatus
p160
I302
sVcomment
p161
g4
sVcookies
p162
(lp163
sVstatusText
p164
VFound
p165
sVcontent
p166
(dp167
VmimeType
p168
Vtext/html; charset=UTF-8
p169
sVcomment
p170
g4
sVsize
p171
I0
ssVheaders
p172
(lp173
sVheadersSize
p174
I609
sVredirectURL
p175
Vhttps://www.google.com/?gws_rd=ssl
p176
sVbodySize
p177
I231
sVhttpVersion
p178
VHTTP/1.1
p179
ssa(dp180
Vcomment
p181
g4
sVserverIPAddress
p182
V216.58.216.196
p183
sVpageref
p184
VBoston Celtics
p185
sVstartedDateTime
p186
V2017-04-16T08:33:08.276-05:00
p187
sVcache
p188
(dp189
sVrequest
p190
(dp191
Vcomment
p192
g4
sVcookies
p193
(lp194
sVurl
p195
Vhttps://www.google.com/?gws_rd=ssl
p196
sVqueryString
p197
(lp198
(dp199
Vname
p200
Vgws_rd
p201
sVvalue
p202
Vssl
p203
sasVheaders
p204
(lp205
sVheadersSize
p206
I607
sVbodySize
p207
I0
sVmethod
p208
VGET
p209
sVhttpVersion
p210
VHTTP/1.1
p211
ssVtimings
p212
(dp213
Vcomment
p214
g4
sVreceive
p215
I20
sVsend
p216
I0
sVssl
p217
I22
sVconnect
p218
I45
sVdns
p219
I0
sVwait
p220
I68
sVblocked
p221
I0
ssVtime
p222
I134
sVresponse
p223
(dp224
Vstatus
p225
I200
sVcomment
p226
g4
sVcookies
p227
(lp228
sVstatusText
p229
VOK
p230
sVcontent
p231
(dp232
VmimeType
p233
Vtext/html; charset=UTF-8
p234
sVcomment
p235
g4
sVsize
p236
I0
ssVheaders
p237
(lp238
sVheadersSize
p239
I721
sVredirectURL
p240
g4
sVbodySize
p241
I34291
sVhttpVersion
p242
VHTTP/1.1
p243
ssa(dp244
Vcomment
p245
g4
sVserverIPAddress
p246
V216.58.216.196
p247
sVpageref
p248
VBoston Celtics
p249
sVstartedDateTime
p250
V2017-04-16T08:33:08.617-05:00
p251
sVcache
p252
(dp253
sVrequest
p254
(dp255
Vcomment
p256
g4
sVcookies
p257
(lp258
sVurl
p259
Vhttps://www.google.com/gen_204?s=mobilewebhp&atyp=csi&ei=k3LzWNmrEMjTjwTfiaOYDg&imc=1&imn=1&imp=0&adh=&xjs=init.32.12.sb_mob.21.dvl.6.mbsf.2.jsa.1.async.1&ima=1&rt=xjsls.19,prt.20,iml.20,dcl.55,xjses.107,xjsee.197,xjs.198,ol.238,aft.20,wsrt.200,cst.0,dnst.0,rqst.92,rspt.93,rqstt.102,unt.53,cstt.53,dit.243
p260
sVqueryString
p261
(lp262
(dp263
Vname
p264
g57
sVvalue
p265
Vmobilewebhp
p266
sa(dp267
Vname
p268
Vatyp
p269
sVvalue
p270
Vcsi
p271
sa(dp272
Vname
p273
Vei
p274
sVvalue
p275
Vk3LzWNmrEMjTjwTfiaOYDg
p276
sa(dp277
Vname
p278
Vimc
p279
sVvalue
p280
g59
sa(dp281
Vname
p282
Vimn
p283
sVvalue
p284
g59
sa(dp285
Vname
p286
Vimp
p287
sVvalue
p288
V0
p289
sa(dp290
Vname
p291
Vadh
p292
sVvalue
p293
g4
sa(dp294
Vname
p295
Vxjs
p296
sVvalue
p297
Vinit.32.12.sb_mob.21.dvl.6.mbsf.2.jsa.1.async.1
p298
sa(dp299
Vname
p300
Vima
p301
sVvalue
p302
g59
sa(dp303
Vname
p304
Vrt
p305
sVvalue
p306
Vxjsls.19,prt.20,iml.20,dcl.55,xjses.107,xjsee.197,xjs.198,ol.238,aft.20,wsrt.200,cst.0,dnst.0,rqst.92,rspt.93,rqstt.102,unt.53,cstt.53,dit.243
p307
sasVheaders
p308
(lp309
sVheadersSize
p310
I834
sVbodySize
p311
I0
sVmethod
p312
VGET
p313
sVhttpVersion
p314
VHTTP/1.1
p315
ssVtimings
p316
(dp317
Vcomment
p318
g4
sVreceive
p319
I0
sVsend
p320
I0
sVssl
p321
I-1
sVconnect
p322
I-1
sVdns
p323
I-1
sVwait
p324
I45
sVblocked
p325
I-1
ssVtime
p326
I45
sVresponse
p327
(dp328
Vstatus
p329
I204
sVcomment
p330
g4
sVcookies
p331
(lp332
sVstatusText
p333
VNo Content
p334
sVcontent
p335
(dp336
VmimeType
p337
Vtext/html; charset=UTF-8
p338
sVcomment
p339
g4
sVsize
p340
I0
ssVheaders
p341
(lp342
sVheadersSize
p343
I248
sVredirectURL
p344
g4
sVbodySize
p345
I0
sVhttpVersion
p346
VHTTP/1.1
p347
ssa(dp348
Vcomment
p349
g4
sVserverIPAddress
p350
V216.58.216.196
p351
sVpageref
p352
VBoston Celtics
p353
sVstartedDateTime
p354
V2017-04-16T08:33:08.799-05:00
p355
sVcache
p356
(dp357
sVrequest
p358
(dp359
Vcomment
p360
g4
sVcookies
p361
(lp362
sVurl
p363
Vhttps://www.google.com/complete/search?client=mobile-gws-hp&hl=en&gs_rn=64&gs_ri=mobile-gws-hp&sla=1&pfq=ben%20simmons&gm=602&cp=0&gs_id=1&xhr=t&q=B&tch=1&ech=1&psi=k3LzWNmrEMjTjwTfiaOYDg.1492349588542.1
p364
sVqueryString
p365
(lp366
(dp367
Vname
p368
Vclient
p369
sVvalue
p370
Vmobile-gws-hp
p371
sa(dp372
Vname
p373
Vhl
p374
sVvalue
p375
Ven
p376
sa(dp377
Vname
p378
Vgs_rn
p379
sVvalue
p380
V64
p381
sa(dp382
Vname
p383
Vgs_ri
p384
sVvalue
p385
Vmobile-gws-hp
p386
sa(dp387
Vname
p388
Vsla
p389
sVvalue
p390
g59
sa(dp391
Vname
p392
Vpfq
p393
sVvalue
p394
Vben simmons
p395
sa(dp396
Vname
p397
Vgm
p398
sVvalue
p399
V602
p400
sa(dp401
Vname
p402
Vcp
p403
sVvalue
p404
g289
sa(dp405
Vname
p406
Vgs_id
p407
sVvalue
p408
g59
sa(dp409
Vname
p410
Vxhr
p411
sVvalue
p412
g52
sa(dp413
Vname
p414
Vq
p415
sVvalue
p416
VB
p417
sa(dp418
Vname
p419
Vtch
p420
sVvalue
p421
g59
sa(dp422
Vname
p423
Vech
p424
sVvalue
p425
g59
sa(dp426
Vname
p427
Vpsi
p428
sVvalue
p429
Vk3LzWNmrEMjTjwTfiaOYDg.1492349588542.1
p430
sasVheaders
p431
(lp432
sVheadersSize
p433
I731
sVbodySize
p434
I0
sVmethod
p435
VGET
p436
sVhttpVersion
p437
VHTTP/1.1
p438
ssVtimings
p439
(dp440
Vcomment
p441
g4
sVreceive
p442
I0
sVsend
p443
I0
sVssl
p444
I-1
sVconnect
p445
I-1
sVdns
p446
I-1
sVwait
p447
I0
sVblocked
p448
I-1
ssVtime
p449
I0
sVresponse
p450
(dp451
Vstatus
p452
I0
sVcomment
p453
g4
sVcookies
p454
(lp455
sV_error
p456
VNo response received
p457
sVstatusText
p458
g4
sVcontent
p459
(dp460
VmimeType
p461
g4
sVcomment
p462
g4
sVsize
p463
I0
ssVheaders
p464
(lp465
sVheadersSize
p466
I-1
sVredirectURL
p467
g4
sVbodySize
p468
I-1
sVhttpVersion
p469
Vunknown
p470
ssa(dp471
Vcomment
p472
g4
sVserverIPAddress
p473
V216.58.216.196
p474
sVpageref
p475
VBoston Celtics
p476
sVstartedDateTime
p477
V2017-04-16T08:33:08.926-05:00
p478
sVcache
p479
(dp480
sVrequest
p481
(dp482
Vcomment
p483
g4
sVcookies
p484
(lp485
sVurl
p486
Vhttps://www.google.com/search?site=&source=hp&ei=k3LzWNmrEMjTjwTfiaOYDg&q=Boston+Celtics&oq=Boston+Celtics&gs_l=mobile-gws-hp.3...233.284.0.313.14.1.0.0.0.0.0.0..0.0....0...1c.1.64.mobile-gws-hp..14.0.0.L555NobMF2U
p487
sVqueryString
p488
(lp489
(dp490
Vname
p491
Vsite
p492
sVvalue
p493
g4
sa(dp494
Vname
p495
Vsource
p496
sVvalue
p497
Vhp
p498
sa(dp499
Vname
p500
Vei
p501
sVvalue
p502
Vk3LzWNmrEMjTjwTfiaOYDg
p503
sa(dp504
Vname
p505
g415
sVvalue
p506
VBoston Celtics
p507
sa(dp508
Vname
p509
Voq
p510
sVvalue
p511
VBoston Celtics
p512
sa(dp513
Vname
p514
Vgs_l
p515
sVvalue
p516
Vmobile-gws-hp.3...233.284.0.313.14.1.0.0.0.0.0.0..0.0....0...1c.1.64.mobile-gws-hp..14.0.0.L555NobMF2U
p517
sasVheaders
p518
(lp519
sVheadersSize
p520
I832
sVbodySize
p521
I0
sVmethod
p522
VGET
p523
sVhttpVersion
p524
VHTTP/1.1
p525
ssVtimings
p526
(dp527
Vcomment
p528
g4
sVreceive
p529
I945
sVsend
p530
I0
sVssl
p531
I24
sVconnect
p532
I40
sVdns
p533
I0
sVwait
p534
I158
sVblocked
p535
I0
ssVtime
p536
I1144
sVresponse
p537
(dp538
Vstatus
p539
I200
sVcomment
p540
g4
sVcookies
p541
(lp542
sVstatusText
p543
VOK
p544
sVcontent
p545
(dp546
VmimeType
p547
Vtext/html; charset=UTF-8
p548
sVcomment
p549
g4
sVsize
p550
I0
ssVheaders
p551
(lp552
sVheadersSize
p553
I363
sVredirectURL
p554
g4
sVbodySize
p555
I151795
sVhttpVersion
p556
VHTTP/1.1
p557
ssa(dp558
Vcomment
p559
g4
sVserverIPAddress
p560
V216.58.216.196
p561
sVpageref
p562
VBoston Celtics
p563
sVstartedDateTime
p564
V2017-04-16T08:33:10.686-05:00
p565
sVcache
p566
(dp567
sVrequest
p568
(dp569
Vcomment
p570
g4
sVcookies
p571
(lp572
sVurl
p573
Vhttps://www.google.com/xjs/_/js/k=xjs.qs.en_US.pCBXVCvTH3s.O/m=syl,syj,syn,em3,em8,em6,em7,sym,aa,abd,sy2g,sy2k,sy29,sy2j,sy2d,sy2a,sy2c,sy2f,sy2l,sy2m,sy2n,emd,async,sybn,sybi,sybo,sy1f,sy45,sy46,sy9w,sybk,sybj,sybp,sy1g,sy30,sy47,sybm,sybl,sybq,sy1h,sybh,dvl,syep,foot,ipv6,sy5g,sy5j,sy5h,sy6u,sy7d,sy7j,sy2x,sy5i,sy89,sy7e,sy23,sy2y,sy5k,sy6c,sy91,sy9b,sy9l,syhi,syhj,syhk,syhl,lr,lrli,sy32,emj,shm,sykh,tl,sy2t,sy38,em12,vs,sy66,sy67,sy4u,sy69,sykk,sykl,tnv,bct,sy48,sy3a,sy3c,sy5b,sy4x,sy4z,sy56,sy1y,sy31,sy4y,sy22,sy6i,sy4h,sy6h,sy6o,sya3,sy5d,sy25,sy6j,sy6k,sy6r,sya2,sy5e,sy6n,emb,em9,ema,sy24,sy2o,sy4c,sy65,sy6p,sy6s,sy6w,sy72,sya4,syd7,syel,syho,syhs,syhu,syhv,sio,sy6y,sycu,d3l,sy5x,qif,tabs,sy9m,syac,sy4g,sy9n,syhz,syl6,ssc,sy26,sykr,strm,syh6,syl5,kac,kae,strx,twt,sy2u,sy34,sy6l,sy6m,qkx,syf5,sy99,syf4,syfc,syfn,syf7,syff,sy1i,sy68,sy8d,syf6,syfl,syfr,syfq,syfg,sy1j,sy4q,sy5o,sy5r,sy8h,syc7,syc8,syfb,syfj,syfs,syft,syg3,syg5,syg7,emn,emo,syg4,syg6,ivg,iuci,img,sy4d,sy4f,sy4e,sy4b,shrb,dgm,sy41,tcc,sygq,kpc,kpci,syj7,syj8,syj2,syjc,syj6,syj3,syjg,syjh,syje,syjd,syjk,syji,syjf,syj0,emr,ems,emt,emu,emv,emx,emy,emz,em10,em11,udlg,sy5z,atn,sy4i,sya1,ampfp/am=gCP4LtMEBXQA2RUaq_oFBISzAFA/rt=j/d=0/t=zcms/rs=ACT90oFwm4NZCwIcuuiqmthdlECdBzkhRA
p574
sVqueryString
p575
(lp576
sVheaders
p577
(lp578
sVheadersSize
p579
I1776
sVbodySize
p580
I0
sVmethod
p581
VGET
p582
sVhttpVersion
p583
VHTTP/1.1
p584
ssVtimings
p585
(dp586
Vcomment
p587
g4
sVreceive
p588
I39
sVsend
p589
I0
sVssl
p590
I-1
sVconnect
p591
I-1
sVdns
p592
I-1
sVwait
p593
I22
sVblocked
p594
I-1
ssVtime
p595
I61
sVresponse
p596
(dp597
Vstatus
p598
I200
sVcomment
p599
g4
sVcookies
p600
(lp601
sVstatusText
p602
VOK
p603
sVcontent
p604
(dp605
VmimeType
p606
Vtext/javascript; charset=UTF-8
p607
sVcomment
p608
g4
sVsize
p609
I0
ssVheaders
p610
(lp611
sVheadersSize
p612
I465
sVredirectURL
p613
g4
sVbodySize
p614
I209945
sVhttpVersion
p615
VHTTP/1.1
p616
ssa(dp617
Vcomment
p618
g4
sVserverIPAddress
p619
V216.58.216.196
p620
sVpageref
p621
VBoston Celtics
p622
sVstartedDateTime
p623
V2017-04-16T08:33:11.209-05:00
p624
sVcache
p625
(dp626
sVrequest
p627
(dp628
Vcomment
p629
g4
sVcookies
p630
(lp631
sVurl
p632
Vhttps://www.google.com/async/irc?vet=10ahUKEwjvjca4i6nTAhUp6YMKHbMNC-8Qo0EIogM..i&ved=0ahUKEwjvjca4i6nTAhUp6YMKHbMNC-8Qo0EIogM&ei=k3LzWK_4N6nSjwSzm6z4Dg&yv=2&async=iu:1,ved:0ahUKEwjvjca4i6nTAhUp6YMKHbMNC-8Qo0EIogM,_id:irc_async,_pms:qs
p633
sVqueryString
p634
(lp635
(dp636
Vname
p637
Vvet
p638
sVvalue
p639
V10ahUKEwjvjca4i6nTAhUp6YMKHbMNC-8Qo0EIogM..i
p640
sa(dp641
Vname
p642
Vved
p643
sVvalue
p644
V0ahUKEwjvjca4i6nTAhUp6YMKHbMNC-8Qo0EIogM
p645
sa(dp646
Vname
p647
Vei
p648
sVvalue
p649
Vk3LzWK_4N6nSjwSzm6z4Dg
p650
sa(dp651
Vname
p652
Vyv
p653
sVvalue
p654
g64
sa(dp655
Vname
p656
Vasync
p657
sVvalue
p658
Viu:1,ved:0ahUKEwjvjca4i6nTAhUp6YMKHbMNC-8Qo0EIogM,_id:irc_async,_pms:qs
p659
sasVheaders
p660
(lp661
sVheadersSize
p662
I752
sVbodySize
p663
I0
sVmethod
p664
VGET
p665
sVhttpVersion
p666
VHTTP/1.1
p667
ssVtimings
p668
(dp669
Vcomment
p670
g4
sVreceive
p671
I0
sVsend
p672
I0
sVssl
p673
I-1
sVconnect
p674
I-1
sVdns
p675
I-1
sVwait
p676
I41
sVblocked
p677
I-1
ssVtime
p678
I41
sVresponse
p679
(dp680
Vstatus
p681
I200
sVcomment
p682
g4
sVcookies
p683
(lp684
sVstatusText
p685
VOK
p686
sVcontent
p687
(dp688
VmimeType
p689
Vtext/html; charset=UTF-8
p690
sVcomment
p691
g4
sVsize
p692
I0
ssVheaders
p693
(lp694
sVheadersSize
p695
I383
sVredirectURL
p696
g4
sVbodySize
p697
I7792
sVhttpVersion
p698
VHTTP/1.1
p699
ssa(dp700
Vcomment
p701
g4
sVserverIPAddress
p702
V216.58.216.196
p703
sVpageref
p704
VBoston Celtics
p705
sVstartedDateTime
p706
V2017-04-16T08:33:11.322-05:00
p707
sVcache
p708
(dp709
sVrequest
p710
(dp711
Vcomment
p712
g4
sVcookies
p713
(lp714
sVurl
p715
Vhttps://www.google.com/async/ampfp?vet=10ahUKEwjvjca4i6nTAhUp6YMKHbMNC-8QtZoBCKAD..i&ei=k3LzWK_4N6nSjwSzm6z4Dg&yv=2&async=_id:ampfp-async,_pms:qs
p716
sVqueryString
p717
(lp718
(dp719
Vname
p720
Vvet
p721
sVvalue
p722
V10ahUKEwjvjca4i6nTAhUp6YMKHbMNC-8QtZoBCKAD..i
p723
sa(dp724
Vname
p725
Vei
p726
sVvalue
p727
Vk3LzWK_4N6nSjwSzm6z4Dg
p728
sa(dp729
Vname
p730
Vyv
p731
sVvalue
p732
g64
sa(dp733
Vname
p734
Vasync
p735
sVvalue
p736
V_id:ampfp-async,_pms:qs
p737
sasVheaders
p738
(lp739
sVheadersSize
p740
I662
sVbodySize
p741
I0
sVmethod
p742
VGET
p743
sVhttpVersion
p744
VHTTP/1.1
p745
ssVtimings
p746
(dp747
Vcomment
p748
g4
sVreceive
p749
I1
sVsend
p750
I0
sVssl
p751
I-1
sVconnect
p752
I-1
sVdns
p753
I-1
sVwait
p754
I36
sVblocked
p755
I-1
ssVtime
p756
I37
sVresponse
p757
(dp758
Vstatus
p759
I200
sVcomment
p760
g4
sVcookies
p761
(lp762
sVstatusText
p763
VOK
p764
sVcontent
p765
(dp766
VmimeType
p767
Vtext/html; charset=UTF-8
p768
sVcomment
p769
g4
sVsize
p770
I0
ssVheaders
p771
(lp772
sVheadersSize
p773
I383
sVredirectURL
p774
g4
sVbodySize
p775
I4527
sVhttpVersion
p776
VHTTP/1.1
p777
ssa(dp778
Vcomment
p779
g4
sVserverIPAddress
p780
V216.58.216.193
p781
sVpageref
p782
VBoston Celtics
p783
sVstartedDateTime
p784
V2017-04-16T08:33:11.323-05:00
p785
sVcache
p786
(dp787
sVrequest
p788
(dp789
Vcomment
p790
g4
sVcookies
p791
(lp792
sVurl
p793
Vhttps://cdn.ampproject.org/preconnect.gif?0.5521846967007102
p794
sVqueryString
p795
(lp796
(dp797
Vname
p798
V0.5521846967007102
p799
sVvalue
p800
g4
sasVheaders
p801
(lp802
sVheadersSize
p803
I375
sVbodySize
p804
I0
sVmethod
p805
VGET
p806
sVhttpVersion
p807
VHTTP/1.1
p808
ssVtimings
p809
(dp810
Vcomment
p811
g4
sVreceive
p812
I0
sVsend
p813
I0
sVssl
p814
I-1
sVconnect
p815
I-1
sVdns
p816
I-1
sVwait
p817
I33
sVblocked
p818
I-1
ssVtime
p819
I33
sVresponse
p820
(dp821
Vstatus
p822
I200
sVcomment
p823
g4
sVcookies
p824
(lp825
sVstatusText
p826
VOK
p827
sVcontent
p828
(dp829
VmimeType
p830
Vimage/gif
p831
sVcomment
p832
g4
sVsize
p833
I0
ssVheaders
p834
(lp835
sVheadersSize
p836
I826
sVredirectURL
p837
g4
sVbodySize
p838
I37
sVhttpVersion
p839
VHTTP/1.1
p840
ssa(dp841
Vcomment
p842
g4
sVserverIPAddress
p843
V216.58.216.196
p844
sVpageref
p845
VBoston Celtics
p846
sVstartedDateTime
p847
V2017-04-16T08:33:11.613-05:00
p848
sVcache
p849
(dp850
sVrequest
p851
(dp852
Vcomment
p853
g4
sVcookies
p854
(lp855
sVurl
p856
Vhttps://www.google.com/gen_204?s=web&atyp=csi&ei=k3LzWK_4N6nSjwSzm6z4Dg&imc=108&imn=108&imp=28&adh=&xjs=init.52.16.sb_mob.39.dvl.4.mbsf.3.async.3.c.1&ima=17&rt=prt.1100,iml.1332,xjsls.1101,dcl.1251,qiml.1479,xjses.1375,xjsee.1580,xjs.1581,ol.2490,aft.1332,wsrt.214,cst.0,dnst.0,rqst.1106,rspt.1107,rqstt.45,unt.2,cstt.2,dit.1346
p857
sVqueryString
p858
(lp859
(dp860
Vname
p861
g57
sVvalue
p862
Vweb
p863
sa(dp864
Vname
p865
Vatyp
p866
sVvalue
p867
Vcsi
p868
sa(dp869
Vname
p870
Vei
p871
sVvalue
p872
Vk3LzWK_4N6nSjwSzm6z4Dg
p873
sa(dp874
Vname
p875
Vimc
p876
sVvalue
p877
V108
p878
sa(dp879
Vname
p880
Vimn
p881
sVvalue
p882
V108
p883
sa(dp884
Vname
p885
Vimp
p886
sVvalue
p887
V28
p888
sa(dp889
Vname
p890
Vadh
p891
sVvalue
p892
g4
sa(dp893
Vname
p894
Vxjs
p895
sVvalue
p896
Vinit.52.16.sb_mob.39.dvl.4.mbsf.3.async.3.c.1
p897
sa(dp898
Vname
p899
Vima
p900
sVvalue
p901
V17
p902
sa(dp903
Vname
p904
Vrt
p905
sVvalue
p906
Vprt.1100,iml.1332,xjsls.1101,dcl.1251,qiml.1479,xjses.1375,xjsee.1580,xjs.1581,ol.2490,aft.1332,wsrt.214,cst.0,dnst.0,rqst.1106,rspt.1107,rqstt.45,unt.2,cstt.2,dit.1346
p907
sasVheaders
p908
(lp909
sVheadersSize
p910
I845
sVbodySize
p911
I0
sVmethod
p912
VGET
p913
sVhttpVersion
p914
VHTTP/1.1
p915
ssVtimings
p916
(dp917
Vcomment
p918
g4
sVreceive
p919
I0
sVsend
p920
I0
sVssl
p921
I-1
sVconnect
p922
I-1
sVdns
p923
I-1
sVwait
p924
I25
sVblocked
p925
I-1
ssVtime
p926
I25
sVresponse
p927
(dp928
Vstatus
p929
I204
sVcomment
p930
g4
sVcookies
p931
(lp932
sVstatusText
p933
VNo Content
p934
sVcontent
p935
(dp936
VmimeType
p937
Vtext/html; charset=UTF-8
p938
sVcomment
p939
g4
sVsize
p940
I0
ssVheaders
p941
(lp942
sVheadersSize
p943
I248
sVredirectURL
p944
g4
sVbodySize
p945
I0
sVhttpVersion
p946
VHTTP/1.1
p947
ssa(dp948
Vcomment
p949
g4
sVserverIPAddress
p950
V216.58.216.196
p951
sVpageref
p952
VBoston Celtics
p953
sVstartedDateTime
p954
V2017-04-16T08:33:11.684-05:00
p955
sVcache
p956
(dp957
sVrequest
p958
(dp959
Vcomment
p960
g4
sVcookies
p961
(lp962
sVurl
p963
Vhttps://www.google.com/async/log_amp_item_set?vet=10ahUKEwi4sti5i6nTAhUrxoMKHRWdCh0QooQBCAE..i&ei=k3LzWK_4N6nSjwSzm6z4Dg&yv=2&async=num_items:10,_fmt:jspb
p964
sVqueryString
p965
(lp966
(dp967
Vname
p968
Vvet
p969
sVvalue
p970
V10ahUKEwi4sti5i6nTAhUrxoMKHRWdCh0QooQBCAE..i
p971
sa(dp972
Vname
p973
Vei
p974
sVvalue
p975
Vk3LzWK_4N6nSjwSzm6z4Dg
p976
sa(dp977
Vname
p978
Vyv
p979
sVvalue
p980
g64
sa(dp981
Vname
p982
Vasync
p983
sVvalue
p984
Vnum_items:10,_fmt:jspb
p985
sasVheaders
p986
(lp987
sVheadersSize
p988
I671
sVbodySize
p989
I0
sVmethod
p990
VGET
p991
sVhttpVersion
p992
VHTTP/1.1
p993
ssVtimings
p994
(dp995
Vcomment
p996
g4
sVreceive
p997
I0
sVsend
p998
I0
sVssl
p999
I-1
sVconnect
p1000
I-1
sVdns
p1001
I-1
sVwait
p1002
I39
sVblocked
p1003
I-1
ssVtime
p1004
I39
sVresponse
p1005
(dp1006
Vstatus
p1007
I200
sVcomment
p1008
g4
sVcookies
p1009
(lp1010
sVstatusText
p1011
VOK
p1012
sVcontent
p1013
(dp1014
VmimeType
p1015
Vapplication/json; charset=UTF-8
p1016
sVcomment
p1017
g4
sVsize
p1018
I0
ssVheaders
p1019
(lp1020
sVheadersSize
p1021
I417
sVredirectURL
p1022
g4
sVbodySize
p1023
I185
sVhttpVersion
p1024
VHTTP/1.1
p1025
ssa(dp1026
Vcomment
p1027
g4
sVserverIPAddress
p1028
V216.58.216.193
p1029
sVpageref
p1030
VBoston Celtics
p1031
sVstartedDateTime
p1032
V2017-04-16T08:33:12.256-05:00
p1033
sVcache
p1034
(dp1035
sVrequest
p1036
(dp1037
Vcomment
p1038
g4
sVcookies
p1039
(lp1040
sVurl
p1041
Vhttps://www-bostonherald-com.cdn.ampproject.org/v/www.bostonherald.com/sports/celtics/2017/04/celtics_notebook_although_the_top_seed_celtics_still_love_playing_underdog?amp&amp_js_v=9
p1042
sVqueryString
p1043
(lp1044
(dp1045
Vname
p1046
Vamp
p1047
sVvalue
p1048
g4
sa(dp1049
Vname
p1050
Vamp_js_v
p1051
sVvalue
p1052
V9
p1053
sasVheaders
p1054
(lp1055
sVheadersSize
p1056
I588
sVbodySize
p1057
I0
sVmethod
p1058
VGET
p1059
sVhttpVersion
p1060
VHTTP/1.1
p1061
ssVtimings
p1062
(dp1063
Vcomment
p1064
g4
sVreceive
p1065
I18
sVsend
p1066
I0
sVssl
p1067
I512
sVconnect
p1068
I525
sVdns
p1069
I32
sVwait
p1070
I62
sVblocked
p1071
I0
ssVtime
p1072
I640
sVresponse
p1073
(dp1074
Vstatus
p1075
I200
sVcomment
p1076
g4
sVcookies
p1077
(lp1078
sVstatusText
p1079
VOK
p1080
sVcontent
p1081
(dp1082
VmimeType
p1083
Vtext/html
p1084
sVcomment
p1085
g4
sVsize
p1086
I0
ssVheaders
p1087
(lp1088
sVheadersSize
p1089
I862
sVredirectURL
p1090
g4
sVbodySize
p1091
I12121
sVhttpVersion
p1092
VHTTP/1.1
p1093
ssa(dp1094
Vcomment
p1095
g4
sVserverIPAddress
p1096
V216.58.216.202
p1097
sVpageref
p1098
VBoston Celtics
p1099
sVstartedDateTime
p1100
V2017-04-16T08:33:12.432-05:00
p1101
sVcache
p1102
(dp1103
sVrequest
p1104
(dp1105
Vcomment
p1106
g4
sVcookies
p1107
(lp1108
sVurl
p1109
Vhttps://fonts.googleapis.com/css?family=Open+Sans:400,700
p1110
sVqueryString
p1111
(lp1112
(dp1113
Vname
p1114
Vfamily
p1115
sVvalue
p1116
VOpen Sans:400,700
p1117
sasVheaders
p1118
(lp1119
sVheadersSize
p1120
I547
sVbodySize
p1121
I0
sVmethod
p1122
VGET
p1123
sVhttpVersion
p1124
VHTTP/1.1
p1125
ssVtimings
p1126
(dp1127
Vcomment
p1128
g4
sVreceive
p1129
I0
sVsend
p1130
I0
sVssl
p1131
I45
sVconnect
p1132
I62
sVdns
p1133
I33
sVwait
p1134
I30
sVblocked
p1135
I0
ssVtime
p1136
I126
sVresponse
p1137
(dp1138
Vstatus
p1139
I200
sVcomment
p1140
g4
sVcookies
p1141
(lp1142
sVstatusText
p1143
VOK
p1144
sVcontent
p1145
(dp1146
VmimeType
p1147
Vtext/css; charset=utf-8
p1148
sVcomment
p1149
g4
sVsize
p1150
I0
ssVheaders
p1151
(lp1152
sVheadersSize
p1153
I405
sVredirectURL
p1154
g4
sVbodySize
p1155
I736
sVhttpVersion
p1156
VHTTP/1.1
p1157
ssa(dp1158
Vcomment
p1159
g4
sVserverIPAddress
p1160
V216.58.216.193
p1161
sVpageref
p1162
VBoston Celtics
p1163
sVstartedDateTime
p1164
V2017-04-16T08:33:12.464-05:00
p1165
sVcache
p1166
(dp1167
sVrequest
p1168
(dp1169
Vcomment
p1170
g4
sVcookies
p1171
(lp1172
sVurl
p1173
Vhttps://www-bostonherald-com.cdn.ampproject.org/ii/w220/www.bostonherald.com/sites/all/themes/amptheme/bh_amp_subtheme/logo.png
p1174
sVqueryString
p1175
(lp1176
sVheaders
p1177
(lp1178
sVheadersSize
p1179
I602
sVbodySize
p1180
I0
sVmethod
p1181
VGET
p1182
sVhttpVersion
p1183
VHTTP/1.1
p1184
ssVtimings
p1185
(dp1186
Vcomment
p1187
g4
sVreceive
p1188
I2
sVsend
p1189
I0
sVssl
p1190
I-1
sVconnect
p1191
I-1
sVdns
p1192
I-1
sVwait
p1193
I27
sVblocked
p1194
I-1
ssVtime
p1195
I30
sVresponse
p1196
(dp1197
Vstatus
p1198
I200
sVcomment
p1199
g4
sVcookies
p1200
(lp1201
sVstatusText
p1202
VOK
p1203
sVcontent
p1204
(dp1205
VmimeType
p1206
Vimage/png
p1207
sVcomment
p1208
g4
sVsize
p1209
I0
ssVheaders
p1210
(lp1211
sVheadersSize
p1212
I822
sVredirectURL
p1213
g4
sVbodySize
p1214
I1839
sVhttpVersion
p1215
VHTTP/1.1
p1216
ssa(dp1217
Vcomment
p1218
g4
sVserverIPAddress
p1219
V216.58.216.193
p1220
sVpageref
p1221
VBoston Celtics
p1222
sVstartedDateTime
p1223
V2017-04-16T08:33:12.510-05:00
p1224
sVcache
p1225
(dp1226
sVrequest
p1227
(dp1228
Vcomment
p1229
g4
sVcookies
p1230
(lp1231
sVurl
p1232
Vhttps://www-bostonherald-com.cdn.ampproject.org/ii/w1200/www.bostonherald.com/sites/default/files/styles/featured_article_big/public/media/2017/04/13/041217celtsms14.jpg
p1233
sVqueryString
p1234
(lp1235
sVheaders
p1236
(lp1237
sVheadersSize
p1238
I644
sVbodySize
p1239
I0
sVmethod
p1240
VGET
p1241
sVhttpVersion
p1242
VHTTP/1.1
p1243
ssVtimings
p1244
(dp1245
Vcomment
p1246
g4
sVreceive
p1247
I27
sVsend
p1248
I0
sVssl
p1249
I26
sVconnect
p1250
I43
sVdns
p1251
I0
sVwait
p1252
I27
sVblocked
p1253
I0
ssVtime
p1254
I99
sVresponse
p1255
(dp1256
Vstatus
p1257
I200
sVcomment
p1258
g4
sVcookies
p1259
(lp1260
sVstatusText
p1261
VOK
p1262
sVcontent
p1263
(dp1264
VmimeType
p1265
Vimage/jpeg
p1266
sVcomment
p1267
g4
sVsize
p1268
I0
ssVheaders
p1269
(lp1270
sVheadersSize
p1271
I848
sVredirectURL
p1272
g4
sVbodySize
p1273
I33275
sVhttpVersion
p1274
VHTTP/1.1
p1275
ssa(dp1276
Vcomment
p1277
g4
sVserverIPAddress
p1278
V216.58.216.196
p1279
sVpageref
p1280
VBoston Celtics
p1281
sVstartedDateTime
p1282
V2017-04-16T08:33:13.264-05:00
p1283
sVcache
p1284
(dp1285
sVrequest
p1286
(dp1287
Vcomment
p1288
g4
sVcookies
p1289
(lp1290
sVurl
p1291
Vhttps://www.google.com/gen_204?atyp=i&ct=slh&cad=&ei=g3LzWKarJomcjwTlprX4Bw&m=V&t=C&s=1&v=2&pv=0.11286988772947482&me=1:1492349574771,x:2,V,0,0,1280,944:0,N,1,g3LzWKarJomcjwTlprX4Bw:0,R,1,24,0,155,1197,589:0,R,1,25,0,155,1197,587:0,R,1,78,8,752,1264,359:0,R,1,79,8,796,1264,315:0,R,1,80,0,796,1280,335:1,B,4331:13399,e,U&zx=1492349593263
p1292
sVqueryString
p1293
(lp1294
(dp1295
Vname
p1296
Vatyp
p1297
sVvalue
p1298
g30
sa(dp1299
Vname
p1300
Vct
p1301
sVvalue
p1302
Vslh
p1303
sa(dp1304
Vname
p1305
Vcad
p1306
sVvalue
p1307
g4
sa(dp1308
Vname
p1309
Vei
p1310
sVvalue
p1311
Vg3LzWKarJomcjwTlprX4Bw
p1312
sa(dp1313
Vname
p1314
g47
sVvalue
p1315
g49
sa(dp1316
Vname
p1317
g52
sVvalue
p1318
g54
sa(dp1319
Vname
p1320
g57
sVvalue
p1321
g59
sa(dp1322
Vname
p1323
g62
sVvalue
p1324
g64
sa(dp1325
Vname
p1326
Vpv
p1327
sVvalue
p1328
V0.11286988772947482
p1329
sa(dp1330
Vname
p1331
Vme
p1332
sVvalue
p1333
V1:1492349574771,x:2,V,0,0,1280,944:0,N,1,g3LzWKarJomcjwTlprX4Bw:0,R,1,24,0,155,1197,589:0,R,1,25,0,155,1197,587:0,R,1,78,8,752,1264,359:0,R,1,79,8,796,1264,315:0,R,1,80,0,796,1280,335:1,B,4331:13399,e,U
p1334
sa(dp1335
Vname
p1336
Vzx
p1337
sVvalue
p1338
V1492349593263
p1339
sasVheaders
p1340
(lp1341
sVheadersSize
p1342
I854
sVbodySize
p1343
I0
sVmethod
p1344
VGET
p1345
sVhttpVersion
p1346
VHTTP/1.1
p1347
ssVtimings
p1348
(dp1349
Vcomment
p1350
g4
sVreceive
p1351
I0
sVsend
p1352
I0
sVssl
p1353
I-1
sVconnect
p1354
I-1
sVdns
p1355
I-1
sVwait
p1356
I34
sVblocked
p1357
I-1
ssVtime
p1358
I34
sVresponse
p1359
(dp1360
Vstatus
p1361
I204
sVcomment
p1362
g4
sVcookies
p1363
(lp1364
sVstatusText
p1365
VNo Content
p1366
sVcontent
p1367
(dp1368
VmimeType
p1369
Vtext/html; charset=UTF-8
p1370
sVcomment
p1371
g4
sVsize
p1372
I0
ssVheaders
p1373
(lp1374
sVheadersSize
p1375
I248
sVredirectURL
p1376
g4
sVbodySize
p1377
I0
sVhttpVersion
p1378
VHTTP/1.1
p1379
ssasVversion
p1380
V1.2
p1381
sVpages
p1382
(lp1383
(dp1384
VpageTimings
p1385
(dp1386
Vcomment
p1387
g4
ssVcomment
p1388
g4
sVtitle
p1389
VBoston Celtics
p1390
sVid
p1391
VBoston Celtics
p1392
sVstartedDateTime
p1393
V2017-04-16T08:33:08.167-05:00
p1394
sasVcreator
p1395
(dp1396
Vcomment
p1397
g4
sVversion
p1398
V2.1.4
p1399
sVname
p1400
VBrowserMob Proxy
p1401
sss.