(dp0
Vlog
p1
(dp2
Vcomment
p3
V
p4
sVentries
p5
(lp6
(dp7
Vcomment
p8
g4
sVserverIPAddress
p9
V172.217.6.4
p10
sVpageref
p11
VHamilton
p12
sVstartedDateTime
p13
V2017-04-16T08:40:36.664-05:00
p14
sVcache
p15
(dp16
sVrequest
p17
(dp18
Vcomment
p19
g4
sVcookies
p20
(lp21
sVurl
p22
Vhttps://www.google.com/gen_204?atyp=i&ct=slh&cad=&ei=O3TzWPb5BemKjwTwpZKADg&m=V&t=C&s=1&v=2&pv=0.7042411308392081&me=1:1492350013912,x:2,V,0,0,1280,944:0,N,1,O3TzWPb5BemKjwTwpZKADg:0,R,1,24,8,155,1249,452:0,R,1,26,8,155,1197,452:0,R,1,30,95,155,1024,120:0,R,1,77,8,351,1197,140:0,R,1,89,8,491,1197,116:0,R,1,100,8,617,1249,357:0,R,1,101,8,617,1249,337:0,R,1,102,8,617,1249,110:3,B,2678:22745,e,U&zx=1492350036663
p23
sVqueryString
p24
(lp25
(dp26
Vname
p27
Vatyp
p28
sVvalue
p29
Vi
p30
sa(dp31
Vname
p32
Vct
p33
sVvalue
p34
Vslh
p35
sa(dp36
Vname
p37
Vcad
p38
sVvalue
p39
g4
sa(dp40
Vname
p41
Vei
p42
sVvalue
p43
VO3TzWPb5BemKjwTwpZKADg
p44
sa(dp45
Vname
p46
Vm
p47
sVvalue
p48
VV
p49
sa(dp50
Vname
p51
Vt
p52
sVvalue
p53
VC
p54
sa(dp55
Vname
p56
Vs
p57
sVvalue
p58
V1
p59
sa(dp60
Vname
p61
Vv
p62
sVvalue
p63
V2
p64
sa(dp65
Vname
p66
Vpv
p67
sVvalue
p68
V0.7042411308392081
p69
sa(dp70
Vname
p71
Vme
p72
sVvalue
p73
V1:1492350013912,x:2,V,0,0,1280,944:0,N,1,O3TzWPb5BemKjwTwpZKADg:0,R,1,24,8,155,1249,452:0,R,1,26,8,155,1197,452:0,R,1,30,95,155,1024,120:0,R,1,77,8,351,1197,140:0,R,1,89,8,491,1197,116:0,R,1,100,8,617,1249,357:0,R,1,101,8,617,1249,337:0,R,1,102,8,617,1249,110:3,B,2678:22745,e,U
p74
sa(dp75
Vname
p76
Vzx
p77
sVvalue
p78
V1492350036663
p79
sasVheaders
p80
(lp81
sVheadersSize
p82
I929
sVbodySize
p83
I0
sVmethod
p84
VGET
p85
sVhttpVersion
p86
VHTTP/1.1
p87
ssVtimings
p88
(dp89
Vcomment
p90
g4
sVreceive
p91
I0
sVsend
p92
I0
sVssl
p93
I-1
sVconnect
p94
I-1
sVdns
p95
I-1
sVwait
p96
I0
sVblocked
p97
I-1
ssVtime
p98
I0
sVresponse
p99
(dp100
Vstatus
p101
I0
sVcomment
p102
g4
sVcookies
p103
(lp104
sV_error
p105
VNo response received
p106
sVstatusText
p107
g4
sVcontent
p108
(dp109
VmimeType
p110
g4
sVcomment
p111
g4
sVsize
p112
I0
ssVheaders
p113
(lp114
sVheadersSize
p115
I-1
sVredirectURL
p116
g4
sVbodySize
p117
I-1
sVhttpVersion
p118
Vunknown
p119
ssa(dp120
Vcomment
p121
g4
sVserverIPAddress
p122
V172.217.6.4
p123
sVpageref
p124
VHamilton
p125
sVstartedDateTime
p126
V2017-04-16T08:40:36.665-05:00
p127
sVcache
p128
(dp129
sVrequest
p130
(dp131
Vcomment
p132
g4
sVcookies
p133
(lp134
sVurl
p135
Vhttps://www.google.com/gen_204?atyp=i&ct=slh&cad=&ei=F3TzWP3lN4LXjwT88L3QAQ&m=V&t=C&s=1&v=2&pv=0.22630495153277785&me=1:1492349980349,x:1,V,0,0,1280,944:0,N,1,F3TzWP3lN4LXjwT88L3QAQ:0,R,1,25,8,155,1249,126:0,R,1,26,24,155,1217,115:0,R,1,32,0,291,1197,1482:0,R,1,33,0,291,1197,1480:0,R,1,53,0,291,1197,200:0,R,1,54,0,291,1197,200:0,R,1,75,0,504,1197,20:0,R,1,81,0,548,1197,20:0,R,1,95,0,648,1197,35:0,R,1,105,0,704,1197,36:0,R,1,108,0,757,1197,47:0,R,1,149,0,861,1197,86:4,B,4721:658,S,349:0,R,1,153,0,947,1197,192:0,R,1,157,24,1155,1149,161:8967,e,U&zx=1492350036663
p136
sVqueryString
p137
(lp138
(dp139
Vname
p140
Vatyp
p141
sVvalue
p142
g30
sa(dp143
Vname
p144
Vct
p145
sVvalue
p146
Vslh
p147
sa(dp148
Vname
p149
Vcad
p150
sVvalue
p151
g4
sa(dp152
Vname
p153
Vei
p154
sVvalue
p155
VF3TzWP3lN4LXjwT88L3QAQ
p156
sa(dp157
Vname
p158
g47
sVvalue
p159
g49
sa(dp160
Vname
p161
g52
sVvalue
p162
g54
sa(dp163
Vname
p164
g57
sVvalue
p165
g59
sa(dp166
Vname
p167
g62
sVvalue
p168
g64
sa(dp169
Vname
p170
Vpv
p171
sVvalue
p172
V0.22630495153277785
p173
sa(dp174
Vname
p175
Vme
p176
sVvalue
p177
V1:1492349980349,x:1,V,0,0,1280,944:0,N,1,F3TzWP3lN4LXjwT88L3QAQ:0,R,1,25,8,155,1249,126:0,R,1,26,24,155,1217,115:0,R,1,32,0,291,1197,1482:0,R,1,33,0,291,1197,1480:0,R,1,53,0,291,1197,200:0,R,1,54,0,291,1197,200:0,R,1,75,0,504,1197,20:0,R,1,81,0,548,1197,20:0,R,1,95,0,648,1197,35:0,R,1,105,0,704,1197,36:0,R,1,108,0,757,1197,47:0,R,1,149,0,861,1197,86:4,B,4721:658,S,349:0,R,1,153,0,947,1197,192:0,R,1,157,24,1155,1149,161:8967,e,U
p178
sa(dp179
Vname
p180
Vzx
p181
sVvalue
p182
V1492350036663
p183
sasVheaders
p184
(lp185
sVheadersSize
p186
I1083
sVbodySize
p187
I0
sVmethod
p188
VGET
p189
sVhttpVersion
p190
VHTTP/1.1
p191
ssVtimings
p192
(dp193
Vcomment
p194
g4
sVreceive
p195
I0
sVsend
p196
I0
sVssl
p197
I-1
sVconnect
p198
I-1
sVdns
p199
I-1
sVwait
p200
I0
sVblocked
p201
I-1
ssVtime
p202
I0
sVresponse
p203
(dp204
Vstatus
p205
I0
sVcomment
p206
g4
sVcookies
p207
(lp208
sV_error
p209
VNo response received
p210
sVstatusText
p211
g4
sVcontent
p212
(dp213
VmimeType
p214
g4
sVcomment
p215
g4
sVsize
p216
I0
ssVheaders
p217
(lp218
sVheadersSize
p219
I-1
sVredirectURL
p220
g4
sVbodySize
p221
I-1
sVhttpVersion
p222
Vunknown
p223
ssa(dp224
Vcomment
p225
g4
sVserverIPAddress
p226
V172.217.6.4
p227
sVpageref
p228
VHamilton
p229
sVstartedDateTime
p230
V2017-04-16T08:40:36.670-05:00
p231
sVcache
p232
(dp233
sVrequest
p234
(dp235
Vcomment
p236
g4
sVcookies
p237
(lp238
sVurl
p239
Vhttp://www.google.com/
p240
sVqueryString
p241
(lp242
sVheaders
p243
(lp244
sVheadersSize
p245
I613
sVbodySize
p246
I0
sVmethod
p247
VGET
p248
sVhttpVersion
p249
VHTTP/1.1
p250
ssVtimings
p251
(dp252
Vcomment
p253
g4
sVreceive
p254
I0
sVsend
p255
I0
sVssl
p256
I-1
sVconnect
p257
I-1
sVdns
p258
I-1
sVwait
p259
I109
sVblocked
p260
I-1
ssVtime
p261
I110
sVresponse
p262
(dp263
Vstatus
p264
I302
sVcomment
p265
g4
sVcookies
p266
(lp267
sVstatusText
p268
VFound
p269
sVcontent
p270
(dp271
VmimeType
p272
Vtext/html; charset=UTF-8
p273
sVcomment
p274
g4
sVsize
p275
I0
ssVheaders
p276
(lp277
sVheadersSize
p278
I609
sVredirectURL
p279
Vhttps://www.google.com/?gws_rd=ssl
p280
sVbodySize
p281
I231
sVhttpVersion
p282
VHTTP/1.1
p283
ssa(dp284
Vcomment
p285
g4
sVserverIPAddress
p286
V172.217.6.4
p287
sVpageref
p288
VHamilton
p289
sVstartedDateTime
p290
V2017-04-16T08:40:36.785-05:00
p291
sVcache
p292
(dp293
sVrequest
p294
(dp295
Vcomment
p296
g4
sVcookies
p297
(lp298
sVurl
p299
Vhttps://www.google.com/?gws_rd=ssl
p300
sVqueryString
p301
(lp302
(dp303
Vname
p304
Vgws_rd
p305
sVvalue
p306
Vssl
p307
sasVheaders
p308
(lp309
sVheadersSize
p310
I607
sVbodySize
p311
I0
sVmethod
p312
VGET
p313
sVhttpVersion
p314
VHTTP/1.1
p315
ssVtimings
p316
(dp317
Vcomment
p318
g4
sVreceive
p319
I139
sVsend
p320
I0
sVssl
p321
I-1
sVconnect
p322
I-1
sVdns
p323
I-1
sVwait
p324
I100
sVblocked
p325
I-1
ssVtime
p326
I240
sVresponse
p327
(dp328
Vstatus
p329
I200
sVcomment
p330
g4
sVcookies
p331
(lp332
sVstatusText
p333
VOK
p334
sVcontent
p335
(dp336
VmimeType
p337
Vtext/html; charset=UTF-8
p338
sVcomment
p339
g4
sVsize
p340
I0
ssVheaders
p341
(lp342
sVheadersSize
p343
I721
sVredirectURL
p344
g4
sVbodySize
p345
I34291
sVhttpVersion
p346
VHTTP/1.1
p347
ssa(dp348
Vcomment
p349
g4
sVserverIPAddress
p350
V172.217.6.4
p351
sVpageref
p352
VHamilton
p353
sVstartedDateTime
p354
V2017-04-16T08:40:37.148-05:00
p355
sVcache
p356
(dp357
sVrequest
p358
(dp359
Vcomment
p360
g4
sVcookies
p361
(lp362
sVurl
p363
Vhttps://www.google.com/gen_204?s=mobilewebhp&atyp=csi&ei=U3TzWNTeMOzUjwSqyqr4Aw&imc=1&imn=1&imp=0&adh=&xjs=init.31.12.sb_mob.24.dvl.4.mbsf.1.async.1.foot.1&ima=1&rt=xjsls.18,prt.19,iml.19,xjses.78,xjsee.173,xjs.174,dcl.206,ol.230,aft.19,wsrt.251,cst.0,dnst.0,rqst.243,rspt.141,rqstt.123,unt.120,cstt.120,dit.453
p364
sVqueryString
p365
(lp366
(dp367
Vname
p368
g57
sVvalue
p369
Vmobilewebhp
p370
sa(dp371
Vname
p372
Vatyp
p373
sVvalue
p374
Vcsi
p375
sa(dp376
Vname
p377
Vei
p378
sVvalue
p379
VU3TzWNTeMOzUjwSqyqr4Aw
p380
sa(dp381
Vname
p382
Vimc
p383
sVvalue
p384
g59
sa(dp385
Vname
p386
Vimn
p387
sVvalue
p388
g59
sa(dp389
Vname
p390
Vimp
p391
sVvalue
p392
V0
p393
sa(dp394
Vname
p395
Vadh
p396
sVvalue
p397
g4
sa(dp398
Vname
p399
Vxjs
p400
sVvalue
p401
Vinit.31.12.sb_mob.24.dvl.4.mbsf.1.async.1.foot.1
p402
sa(dp403
Vname
p404
Vima
p405
sVvalue
p406
g59
sa(dp407
Vname
p408
Vrt
p409
sVvalue
p410
Vxjsls.18,prt.19,iml.19,xjses.78,xjsee.173,xjs.174,dcl.206,ol.230,aft.19,wsrt.251,cst.0,dnst.0,rqst.243,rspt.141,rqstt.123,unt.120,cstt.120,dit.453
p411
sasVheaders
p412
(lp413
sVheadersSize
p414
I839
sVbodySize
p415
I0
sVmethod
p416
VGET
p417
sVhttpVersion
p418
VHTTP/1.1
p419
ssVtimings
p420
(dp421
Vcomment
p422
g4
sVreceive
p423
I0
sVsend
p424
I0
sVssl
p425
I-1
sVconnect
p426
I-1
sVdns
p427
I-1
sVwait
p428
I45
sVblocked
p429
I-1
ssVtime
p430
I45
sVresponse
p431
(dp432
Vstatus
p433
I204
sVcomment
p434
g4
sVcookies
p435
(lp436
sVstatusText
p437
VNo Content
p438
sVcontent
p439
(dp440
VmimeType
p441
Vtext/html; charset=UTF-8
p442
sVcomment
p443
g4
sVsize
p444
I0
ssVheaders
p445
(lp446
sVheadersSize
p447
I248
sVredirectURL
p448
g4
sVbodySize
p449
I0
sVhttpVersion
p450
VHTTP/1.1
p451
ssa(dp452
Vcomment
p453
g4
sVserverIPAddress
p454
V172.217.6.4
p455
sVpageref
p456
VHamilton
p457
sVstartedDateTime
p458
V2017-04-16T08:40:37.279-05:00
p459
sVcache
p460
(dp461
sVrequest
p462
(dp463
Vcomment
p464
g4
sVcookies
p465
(lp466
sVurl
p467
Vhttps://www.google.com/complete/search?client=mobile-gws-hp&hl=en&gs_rn=64&gs_ri=mobile-gws-hp&sla=1&pfq=houston%20rockets&gm=602&cp=0&gs_id=1&xhr=t&q=H&tch=1&ech=1&psi=U3TzWNTeMOzUjwSqyqr4Aw.1492350037057.1
p468
sVqueryString
p469
(lp470
(dp471
Vname
p472
Vclient
p473
sVvalue
p474
Vmobile-gws-hp
p475
sa(dp476
Vname
p477
Vhl
p478
sVvalue
p479
Ven
p480
sa(dp481
Vname
p482
Vgs_rn
p483
sVvalue
p484
V64
p485
sa(dp486
Vname
p487
Vgs_ri
p488
sVvalue
p489
Vmobile-gws-hp
p490
sa(dp491
Vname
p492
Vsla
p493
sVvalue
p494
g59
sa(dp495
Vname
p496
Vpfq
p497
sVvalue
p498
Vhouston rockets
p499
sa(dp500
Vname
p501
Vgm
p502
sVvalue
p503
V602
p504
sa(dp505
Vname
p506
Vcp
p507
sVvalue
p508
g393
sa(dp509
Vname
p510
Vgs_id
p511
sVvalue
p512
g59
sa(dp513
Vname
p514
Vxhr
p515
sVvalue
p516
g52
sa(dp517
Vname
p518
Vq
p519
sVvalue
p520
VH
p521
sa(dp522
Vname
p523
Vtch
p524
sVvalue
p525
g59
sa(dp526
Vname
p527
Vech
p528
sVvalue
p529
g59
sa(dp530
Vname
p531
Vpsi
p532
sVvalue
p533
VU3TzWNTeMOzUjwSqyqr4Aw.1492350037057.1
p534
sasVheaders
p535
(lp536
sVheadersSize
p537
I735
sVbodySize
p538
I0
sVmethod
p539
VGET
p540
sVhttpVersion
p541
VHTTP/1.1
p542
ssVtimings
p543
(dp544
Vcomment
p545
g4
sVreceive
p546
I0
sVsend
p547
I0
sVssl
p548
I-1
sVconnect
p549
I-1
sVdns
p550
I-1
sVwait
p551
I0
sVblocked
p552
I-1
ssVtime
p553
I0
sVresponse
p554
(dp555
Vstatus
p556
I0
sVcomment
p557
g4
sVcookies
p558
(lp559
sV_error
p560
VNo response received
p561
sVstatusText
p562
g4
sVcontent
p563
(dp564
VmimeType
p565
g4
sVcomment
p566
g4
sVsize
p567
I0
ssVheaders
p568
(lp569
sVheadersSize
p570
I-1
sVredirectURL
p571
g4
sVbodySize
p572
I-1
sVhttpVersion
p573
Vunknown
p574
ssa(dp575
Vcomment
p576
g4
sVserverIPAddress
p577
V172.217.6.4
p578
sVpageref
p579
VHamilton
p580
sVstartedDateTime
p581
V2017-04-16T08:40:37.335-05:00
p582
sVcache
p583
(dp584
sVrequest
p585
(dp586
Vcomment
p587
g4
sVcookies
p588
(lp589
sVurl
p590
Vhttps://www.google.com/search?site=&source=hp&ei=U3TzWNTeMOzUjwSqyqr4Aw&q=Hamilton&oq=Hamilton&gs_l=mobile-gws-hp.3...197.218.0.244.8.1.0.0.0.0.0.0..0.0....0...1c.1.64.mobile-gws-hp..8.0.0.TREysVL-CG8
p591
sVqueryString
p592
(lp593
(dp594
Vname
p595
Vsite
p596
sVvalue
p597
g4
sa(dp598
Vname
p599
Vsource
p600
sVvalue
p601
Vhp
p602
sa(dp603
Vname
p604
Vei
p605
sVvalue
p606
VU3TzWNTeMOzUjwSqyqr4Aw
p607
sa(dp608
Vname
p609
g519
sVvalue
p610
VHamilton
p611
sa(dp612
Vname
p613
Voq
p614
sVvalue
p615
VHamilton
p616
sa(dp617
Vname
p618
Vgs_l
p619
sVvalue
p620
Vmobile-gws-hp.3...197.218.0.244.8.1.0.0.0.0.0.0..0.0....0...1c.1.64.mobile-gws-hp..8.0.0.TREysVL-CG8
p621
sasVheaders
p622
(lp623
sVheadersSize
p624
I818
sVbodySize
p625
I0
sVmethod
p626
VGET
p627
sVhttpVersion
p628
VHTTP/1.1
p629
ssVtimings
p630
(dp631
Vcomment
p632
g4
sVreceive
p633
I1434
sVsend
p634
I0
sVssl
p635
I-1
sVconnect
p636
I-1
sVdns
p637
I-1
sVwait
p638
I117
sVblocked
p639
I-1
ssVtime
p640
I1552
sVresponse
p641
(dp642
Vstatus
p643
I200
sVcomment
p644
g4
sVcookies
p645
(lp646
sVstatusText
p647
VOK
p648
sVcontent
p649
(dp650
VmimeType
p651
Vtext/html; charset=UTF-8
p652
sVcomment
p653
g4
sVsize
p654
I0
ssVheaders
p655
(lp656
sVheadersSize
p657
I363
sVredirectURL
p658
g4
sVbodySize
p659
I106523
sVhttpVersion
p660
VHTTP/1.1
p661
ssa(dp662
Vcomment
p663
g4
sVserverIPAddress
p664
V172.217.6.4
p665
sVpageref
p666
VHamilton
p667
sVstartedDateTime
p668
V2017-04-16T08:40:38.914-05:00
p669
sVcache
p670
(dp671
sVrequest
p672
(dp673
Vcomment
p674
g4
sVcookies
p675
(lp676
sVurl
p677
Vhttps://www.google.com/gen_204?atyp=i&ct=&cad=udla=1&ei=VHTzWLucFMekjwSNpYGoBQ&b=0&act=p&ps=0&zx=1492350038836
p678
sVqueryString
p679
(lp680
(dp681
Vname
p682
Vatyp
p683
sVvalue
p684
g30
sa(dp685
Vname
p686
Vct
p687
sVvalue
p688
g4
sa(dp689
Vname
p690
Vcad
p691
sVvalue
p692
Vudla=1
p693
sa(dp694
Vname
p695
Vei
p696
sVvalue
p697
VVHTzWLucFMekjwSNpYGoBQ
p698
sa(dp699
Vname
p700
Vb
p701
sVvalue
p702
g393
sa(dp703
Vname
p704
Vact
p705
sVvalue
p706
Vp
p707
sa(dp708
Vname
p709
Vps
p710
sVvalue
p711
g393
sa(dp712
Vname
p713
Vzx
p714
sVvalue
p715
V1492350038836
p716
sasVheaders
p717
(lp718
sVheadersSize
p719
I627
sVbodySize
p720
I0
sVmethod
p721
VGET
p722
sVhttpVersion
p723
VHTTP/1.1
p724
ssVtimings
p725
(dp726
Vcomment
p727
g4
sVreceive
p728
I0
sVsend
p729
I0
sVssl
p730
I45
sVconnect
p731
I72
sVdns
p732
I0
sVwait
p733
I126
sVblocked
p734
I0
ssVtime
p735
I199
sVresponse
p736
(dp737
Vstatus
p738
I204
sVcomment
p739
g4
sVcookies
p740
(lp741
sVstatusText
p742
VNo Content
p743
sVcontent
p744
(dp745
VmimeType
p746
Vtext/html; charset=UTF-8
p747
sVcomment
p748
g4
sVsize
p749
I0
ssVheaders
p750
(lp751
sVheadersSize
p752
I248
sVredirectURL
p753
g4
sVbodySize
p754
I0
sVhttpVersion
p755
VHTTP/1.1
p756
ssa(dp757
Vcomment
p758
g4
sVserverIPAddress
p759
V216.58.216.206
p760
sVpageref
p761
VHamilton
p762
sVstartedDateTime
p763
V2017-04-16T08:40:39.336-05:00
p764
sVcache
p765
(dp766
sVrequest
p767
(dp768
Vcomment
p769
g4
sVcookies
p770
(lp771
sVurl
p772
Vhttps://encrypted-tbn2.gstatic.com/images?q=tbn:ANd9GcRv8daJsVblWK5KfkC2FO0PcAdBIKgO70gmrm6KGdtle5QyroDg4z4yPr2_sdHLmGV1I9Q
p773
sVqueryString
p774
(lp775
(dp776
Vname
p777
g519
sVvalue
p778
Vtbn:ANd9GcRv8daJsVblWK5KfkC2FO0PcAdBIKgO70gmrm6KGdtle5QyroDg4z4yPr2_sdHLmGV1I9Q
p779
sasVheaders
p780
(lp781
sVheadersSize
p782
I438
sVbodySize
p783
I0
sVmethod
p784
VGET
p785
sVhttpVersion
p786
VHTTP/1.1
p787
ssVtimings
p788
(dp789
Vcomment
p790
g4
sVreceive
p791
I4
sVsend
p792
I0
sVssl
p793
I-1
sVconnect
p794
I-1
sVdns
p795
I-1
sVwait
p796
I13
sVblocked
p797
I-1
ssVtime
p798
I18
sVresponse
p799
(dp800
Vstatus
p801
I200
sVcomment
p802
g4
sVcookies
p803
(lp804
sVstatusText
p805
VOK
p806
sVcontent
p807
(dp808
VmimeType
p809
Vimage/jpeg
p810
sVcomment
p811
g4
sVsize
p812
I0
ssVheaders
p813
(lp814
sVheadersSize
p815
I407
sVredirectURL
p816
g4
sVbodySize
p817
I3250
sVhttpVersion
p818
VHTTP/1.1
p819
ssa(dp820
Vcomment
p821
g4
sVserverIPAddress
p822
V216.58.216.206
p823
sVpageref
p824
VHamilton
p825
sVstartedDateTime
p826
V2017-04-16T08:40:39.339-05:00
p827
sVcache
p828
(dp829
sVrequest
p830
(dp831
Vcomment
p832
g4
sVcookies
p833
(lp834
sVurl
p835
Vhttps://encrypted-tbn1.gstatic.com/images?q=tbn:ANd9GcT9xQNMk6JetsKb7DG68hbjlHaskSgIc8RKxCI6oiUty7e0LLuqMG21yJF1plsqaovbbmI
p836
sVqueryString
p837
(lp838
(dp839
Vname
p840
g519
sVvalue
p841
Vtbn:ANd9GcT9xQNMk6JetsKb7DG68hbjlHaskSgIc8RKxCI6oiUty7e0LLuqMG21yJF1plsqaovbbmI
p842
sasVheaders
p843
(lp844
sVheadersSize
p845
I438
sVbodySize
p846
I0
sVmethod
p847
VGET
p848
sVhttpVersion
p849
VHTTP/1.1
p850
ssVtimings
p851
(dp852
Vcomment
p853
g4
sVreceive
p854
I4
sVsend
p855
I0
sVssl
p856
I-1
sVconnect
p857
I-1
sVdns
p858
I-1
sVwait
p859
I18
sVblocked
p860
I-1
ssVtime
p861
I23
sVresponse
p862
(dp863
Vstatus
p864
I200
sVcomment
p865
g4
sVcookies
p866
(lp867
sVstatusText
p868
VOK
p869
sVcontent
p870
(dp871
VmimeType
p872
Vimage/jpeg
p873
sVcomment
p874
g4
sVsize
p875
I0
ssVheaders
p876
(lp877
sVheadersSize
p878
I429
sVredirectURL
p879
g4
sVbodySize
p880
I4065
sVhttpVersion
p881
VHTTP/1.1
p882
ssa(dp883
Vcomment
p884
g4
sVserverIPAddress
p885
V172.217.6.4
p886
sVpageref
p887
VHamilton
p888
sVstartedDateTime
p889
V2017-04-16T08:40:39.369-05:00
p890
sVcache
p891
(dp892
sVrequest
p893
(dp894
Vcomment
p895
g4
sVcookies
p896
(lp897
sVurl
p898
Vhttps://www.google.com/xjs/_/js/k=xjs.qs.en_US.pCBXVCvTH3s.O/m=syl,syj,syn,em3,em8,em6,em7,sym,aa,abd,sy2g,sy2k,sy29,sy2j,sy2d,sy2a,sy2c,sy2f,sy2l,sy2m,sy2n,emd,async,sybn,sybi,sybo,sy1f,sy45,sy46,sy9w,sybk,sybj,sybp,sy1g,sy30,sy47,sybm,sybl,sybq,sy1h,sybh,dvl,syep,foot,ipv6,sy32,emj,shm,sy5g,sy5i,sy5k,sykh,tl,sy2x,sy2y,sy2t,sy38,em12,vs,sy5j,sy5h,sy6u,sy66,sy67,sy7d,sy7j,sy4u,sy69,sy89,sy7e,sykk,sykl,tnv,bct,sy1y,sy23,sy2u,sy22,sy6i,sy34,sy31,sy6j,sy25,sy6l,sy6k,sy6h,emb,em9,ema,sy6m,qkx,syf5,sy99,syf4,sy26,syfc,syfn,syf7,syff,sy1i,sy68,sy8d,sy9b,syf6,syfl,syfr,syfq,syfg,sy1j,sy4q,sy5o,sy5r,sy6n,sy6p,sy8h,syc7,syc8,syfb,syfj,syfs,syft,syg3,syg5,syg7,sy24,emn,emo,syg4,syg6,ivg,sy9m,sy9n,iuci,img,sy4d,sy4f,sy4c,sy4e,sy4b,sy6w,shrb,sy4g,syd7,dgm,sy41,tcc,sy6y,sycu,d3l,syac,syhz,syl6,ssc,twt,sygq,kpc,kpci,sy4h,vrml,sy5z,atn,sya3,sya2,sy4i,sya1,sya4,ampfp/am=gCP4LtMEBXQA2RUaq_oFBISzAFA/rt=j/d=0/t=zcms/rs=ACT90oFwm4NZCwIcuuiqmthdlECdBzkhRA
p899
sVqueryString
p900
(lp901
sVheaders
p902
(lp903
sVheadersSize
p904
I1465
sVbodySize
p905
I0
sVmethod
p906
VGET
p907
sVhttpVersion
p908
VHTTP/1.1
p909
ssVtimings
p910
(dp911
Vcomment
p912
g4
sVreceive
p913
I57
sVsend
p914
I0
sVssl
p915
I-1
sVconnect
p916
I-1
sVdns
p917
I-1
sVwait
p918
I74
sVblocked
p919
I-1
ssVtime
p920
I132
sVresponse
p921
(dp922
Vstatus
p923
I200
sVcomment
p924
g4
sVcookies
p925
(lp926
sVstatusText
p927
VOK
p928
sVcontent
p929
(dp930
VmimeType
p931
Vtext/javascript; charset=UTF-8
p932
sVcomment
p933
g4
sVsize
p934
I0
ssVheaders
p935
(lp936
sVheadersSize
p937
I452
sVredirectURL
p938
g4
sVbodySize
p939
I108133
sVhttpVersion
p940
VHTTP/1.1
p941
ssa(dp942
Vcomment
p943
g4
sVserverIPAddress
p944
V216.58.216.206
p945
sVpageref
p946
VHamilton
p947
sVstartedDateTime
p948
V2017-04-16T08:40:39.376-05:00
p949
sVcache
p950
(dp951
sVrequest
p952
(dp953
Vcomment
p954
g4
sVcookies
p955
(lp956
sVurl
p957
Vhttps://encrypted-tbn3.gstatic.com/images?q=tbn:ANd9GcS9N0dwjhxApK_HQqn37QOn3ClSBZRtVm9fEs5F7TZm2d-oRz9KzmKu_t4c9VN3EWcbZ-g
p958
sVqueryString
p959
(lp960
(dp961
Vname
p962
g519
sVvalue
p963
Vtbn:ANd9GcS9N0dwjhxApK_HQqn37QOn3ClSBZRtVm9fEs5F7TZm2d-oRz9KzmKu_t4c9VN3EWcbZ-g
p964
sasVheaders
p965
(lp966
sVheadersSize
p967
I438
sVbodySize
p968
I0
sVmethod
p969
VGET
p970
sVhttpVersion
p971
VHTTP/1.1
p972
ssVtimings
p973
(dp974
Vcomment
p975
g4
sVreceive
p976
I0
sVsend
p977
I0
sVssl
p978
I21
sVconnect
p979
I34
sVdns
p980
I2
sVwait
p981
I20
sVblocked
p982
I0
ssVtime
p983
I58
sVresponse
p984
(dp985
Vstatus
p986
I200
sVcomment
p987
g4
sVcookies
p988
(lp989
sVstatusText
p990
VOK
p991
sVcontent
p992
(dp993
VmimeType
p994
Vimage/jpeg
p995
sVcomment
p996
g4
sVsize
p997
I0
ssVheaders
p998
(lp999
sVheadersSize
p1000
I407
sVredirectURL
p1001
g4
sVbodySize
p1002
I3529
sVhttpVersion
p1003
VHTTP/1.1
p1004
ssa(dp1005
Vcomment
p1006
g4
sVserverIPAddress
p1007
V216.58.216.206
p1008
sVpageref
p1009
VHamilton
p1010
sVstartedDateTime
p1011
V2017-04-16T08:40:39.393-05:00
p1012
sVcache
p1013
(dp1014
sVrequest
p1015
(dp1016
Vcomment
p1017
g4
sVcookies
p1018
(lp1019
sVurl
p1020
Vhttps://encrypted-tbn1.gstatic.com/images?q=tbn:ANd9GcQP1KBlFA9mVnxyuArHAbyR8nvnqzl0kM3L01DHARSqkwTo3st9Zcs-KJWdIxic4HndGPM
p1021
sVqueryString
p1022
(lp1023
(dp1024
Vname
p1025
g519
sVvalue
p1026
Vtbn:ANd9GcQP1KBlFA9mVnxyuArHAbyR8nvnqzl0kM3L01DHARSqkwTo3st9Zcs-KJWdIxic4HndGPM
p1027
sasVheaders
p1028
(lp1029
sVheadersSize
p1030
I438
sVbodySize
p1031
I0
sVmethod
p1032
VGET
p1033
sVhttpVersion
p1034
VHTTP/1.1
p1035
ssVtimings
p1036
(dp1037
Vcomment
p1038
g4
sVreceive
p1039
I0
sVsend
p1040
I0
sVssl
p1041
I29
sVconnect
p1042
I46
sVdns
p1043
I2
sVwait
p1044
I33
sVblocked
p1045
I0
ssVtime
p1046
I82
sVresponse
p1047
(dp1048
Vstatus
p1049
I200
sVcomment
p1050
g4
sVcookies
p1051
(lp1052
sVstatusText
p1053
VOK
p1054
sVcontent
p1055
(dp1056
VmimeType
p1057
Vimage/jpeg
p1058
sVcomment
p1059
g4
sVsize
p1060
I0
ssVheaders
p1061
(lp1062
sVheadersSize
p1063
I428
sVredirectURL
p1064
g4
sVbodySize
p1065
I2459
sVhttpVersion
p1066
VHTTP/1.1
p1067
ssa(dp1068
Vcomment
p1069
g4
sVserverIPAddress
p1070
V216.58.216.206
p1071
sVpageref
p1072
VHamilton
p1073
sVstartedDateTime
p1074
V2017-04-16T08:40:39.397-05:00
p1075
sVcache
p1076
(dp1077
sVrequest
p1078
(dp1079
Vcomment
p1080
g4
sVcookies
p1081
(lp1082
sVurl
p1083
Vhttps://encrypted-tbn3.gstatic.com/images?q=tbn:ANd9GcTR-H3cmA6ZSZcy8JH8g7TGWnFdrnNhIx1CF-BEJPfpFMNECb6jC-qeE4GRDtLg0yQf_u4
p1084
sVqueryString
p1085
(lp1086
(dp1087
Vname
p1088
g519
sVvalue
p1089
Vtbn:ANd9GcTR-H3cmA6ZSZcy8JH8g7TGWnFdrnNhIx1CF-BEJPfpFMNECb6jC-qeE4GRDtLg0yQf_u4
p1090
sasVheaders
p1091
(lp1092
sVheadersSize
p1093
I438
sVbodySize
p1094
I0
sVmethod
p1095
VGET
p1096
sVhttpVersion
p1097
VHTTP/1.1
p1098
ssVtimings
p1099
(dp1100
Vcomment
p1101
g4
sVreceive
p1102
I0
sVsend
p1103
I0
sVssl
p1104
I39
sVconnect
p1105
I54
sVdns
p1106
I0
sVwait
p1107
I27
sVblocked
p1108
I0
ssVtime
p1109
I83
sVresponse
p1110
(dp1111
Vstatus
p1112
I200
sVcomment
p1113
g4
sVcookies
p1114
(lp1115
sVstatusText
p1116
VOK
p1117
sVcontent
p1118
(dp1119
VmimeType
p1120
Vimage/jpeg
p1121
sVcomment
p1122
g4
sVsize
p1123
I0
ssVheaders
p1124
(lp1125
sVheadersSize
p1126
I407
sVredirectURL
p1127
g4
sVbodySize
p1128
I2544
sVhttpVersion
p1129
VHTTP/1.1
p1130
ssa(dp1131
Vcomment
p1132
g4
sVserverIPAddress
p1133
V216.58.216.206
p1134
sVpageref
p1135
VHamilton
p1136
sVstartedDateTime
p1137
V2017-04-16T08:40:39.398-05:00
p1138
sVcache
p1139
(dp1140
sVrequest
p1141
(dp1142
Vcomment
p1143
g4
sVcookies
p1144
(lp1145
sVurl
p1146
Vhttps://encrypted-tbn2.gstatic.com/images?q=tbn:ANd9GcQmYKfGgkzJbeqAFm98RGK42my5_c98yewX_yojYjE_lkekjvSfuk0uSslaAKFIXWSFKzU
p1147
sVqueryString
p1148
(lp1149
(dp1150
Vname
p1151
g519
sVvalue
p1152
Vtbn:ANd9GcQmYKfGgkzJbeqAFm98RGK42my5_c98yewX_yojYjE_lkekjvSfuk0uSslaAKFIXWSFKzU
p1153
sasVheaders
p1154
(lp1155
sVheadersSize
p1156
I438
sVbodySize
p1157
I0
sVmethod
p1158
VGET
p1159
sVhttpVersion
p1160
VHTTP/1.1
p1161
ssVtimings
p1162
(dp1163
Vcomment
p1164
g4
sVreceive
p1165
I0
sVsend
p1166
I0
sVssl
p1167
I40
sVconnect
p1168
I52
sVdns
p1169
I0
sVwait
p1170
I30
sVblocked
p1171
I0
ssVtime
p1172
I83
sVresponse
p1173
(dp1174
Vstatus
p1175
I200
sVcomment
p1176
g4
sVcookies
p1177
(lp1178
sVstatusText
p1179
VOK
p1180
sVcontent
p1181
(dp1182
VmimeType
p1183
Vimage/jpeg
p1184
sVcomment
p1185
g4
sVsize
p1186
I0
ssVheaders
p1187
(lp1188
sVheadersSize
p1189
I407
sVredirectURL
p1190
g4
sVbodySize
p1191
I2931
sVhttpVersion
p1192
VHTTP/1.1
p1193
ssa(dp1194
Vcomment
p1195
g4
sVserverIPAddress
p1196
V216.58.216.206
p1197
sVpageref
p1198
VHamilton
p1199
sVstartedDateTime
p1200
V2017-04-16T08:40:39.398-05:00
p1201
sVcache
p1202
(dp1203
sVrequest
p1204
(dp1205
Vcomment
p1206
g4
sVcookies
p1207
(lp1208
sVurl
p1209
Vhttps://encrypted-tbn2.gstatic.com/images?q=tbn:ANd9GcSrcXsDguT5eZYbj_B7ILhPeQyXavAkkoZBfMoyohs_26s3c7eey-KFO9aXvNSupWFrjgM
p1210
sVqueryString
p1211
(lp1212
(dp1213
Vname
p1214
g519
sVvalue
p1215
Vtbn:ANd9GcSrcXsDguT5eZYbj_B7ILhPeQyXavAkkoZBfMoyohs_26s3c7eey-KFO9aXvNSupWFrjgM
p1216
sasVheaders
p1217
(lp1218
sVheadersSize
p1219
I438
sVbodySize
p1220
I0
sVmethod
p1221
VGET
p1222
sVhttpVersion
p1223
VHTTP/1.1
p1224
ssVtimings
p1225
(dp1226
Vcomment
p1227
g4
sVreceive
p1228
I1
sVsend
p1229
I0
sVssl
p1230
I40
sVconnect
p1231
I53
sVdns
p1232
I2
sVwait
p1233
I27
sVblocked
p1234
I0
ssVtime
p1235
I84
sVresponse
p1236
(dp1237
Vstatus
p1238
I200
sVcomment
p1239
g4
sVcookies
p1240
(lp1241
sVstatusText
p1242
VOK
p1243
sVcontent
p1244
(dp1245
VmimeType
p1246
Vimage/jpeg
p1247
sVcomment
p1248
g4
sVsize
p1249
I0
ssVheaders
p1250
(lp1251
sVheadersSize
p1252
I428
sVredirectURL
p1253
g4
sVbodySize
p1254
I4296
sVhttpVersion
p1255
VHTTP/1.1
p1256
ssa(dp1257
Vcomment
p1258
g4
sVserverIPAddress
p1259
V172.217.6.4
p1260
sVpageref
p1261
VHamilton
p1262
sVstartedDateTime
p1263
V2017-04-16T08:40:39.669-05:00
p1264
sVcache
p1265
(dp1266
sVrequest
p1267
(dp1268
Vcomment
p1269
g4
sVcookies
p1270
(lp1271
sVurl
p1272
Vhttps://www.google.com/async/irc?vet=10ahUKEwi7lq-OjanTAhVH0oMKHY1SAFUQo0EI9QE..i&ved=0ahUKEwi7lq-OjanTAhVH0oMKHY1SAFUQo0EI9QE&ei=VHTzWLucFMekjwSNpYGoBQ&yv=2&async=iu:1,ved:0ahUKEwi7lq-OjanTAhVH0oMKHY1SAFUQo0EI9QE,_id:irc_async,_pms:qs
p1273
sVqueryString
p1274
(lp1275
(dp1276
Vname
p1277
Vvet
p1278
sVvalue
p1279
V10ahUKEwi7lq-OjanTAhVH0oMKHY1SAFUQo0EI9QE..i
p1280
sa(dp1281
Vname
p1282
Vved
p1283
sVvalue
p1284
V0ahUKEwi7lq-OjanTAhVH0oMKHY1SAFUQo0EI9QE
p1285
sa(dp1286
Vname
p1287
Vei
p1288
sVvalue
p1289
VVHTzWLucFMekjwSNpYGoBQ
p1290
sa(dp1291
Vname
p1292
Vyv
p1293
sVvalue
p1294
g64
sa(dp1295
Vname
p1296
Vasync
p1297
sVvalue
p1298
Viu:1,ved:0ahUKEwi7lq-OjanTAhVH0oMKHY1SAFUQo0EI9QE,_id:irc_async,_pms:qs
p1299
sasVheaders
p1300
(lp1301
sVheadersSize
p1302
I752
sVbodySize
p1303
I0
sVmethod
p1304
VGET
p1305
sVhttpVersion
p1306
VHTTP/1.1
p1307
ssVtimings
p1308
(dp1309
Vcomment
p1310
g4
sVreceive
p1311
I2
sVsend
p1312
I0
sVssl
p1313
I-1
sVconnect
p1314
I-1
sVdns
p1315
I-1
sVwait
p1316
I273
sVblocked
p1317
I-1
ssVtime
p1318
I276
sVresponse
p1319
(dp1320
Vstatus
p1321
I200
sVcomment
p1322
g4
sVcookies
p1323
(lp1324
sVstatusText
p1325
VOK
p1326
sVcontent
p1327
(dp1328
VmimeType
p1329
Vtext/html; charset=UTF-8
p1330
sVcomment
p1331
g4
sVsize
p1332
I0
ssVheaders
p1333
(lp1334
sVheadersSize
p1335
I383
sVredirectURL
p1336
g4
sVbodySize
p1337
I7790
sVhttpVersion
p1338
VHTTP/1.1
p1339
ssa(dp1340
Vcomment
p1341
g4
sVserverIPAddress
p1342
V172.217.6.4
p1343
sVpageref
p1344
VHamilton
p1345
sVstartedDateTime
p1346
V2017-04-16T08:40:39.810-05:00
p1347
sVcache
p1348
(dp1349
sVrequest
p1350
(dp1351
Vcomment
p1352
g4
sVcookies
p1353
(lp1354
sVurl
p1355
Vhttps://www.google.com/async/ampfp?vet=10ahUKEwi7lq-OjanTAhVH0oMKHY1SAFUQtZoBCPMB..i&ei=VHTzWLucFMekjwSNpYGoBQ&yv=2&async=_id:ampfp-async,_pms:qs
p1356
sVqueryString
p1357
(lp1358
(dp1359
Vname
p1360
Vvet
p1361
sVvalue
p1362
V10ahUKEwi7lq-OjanTAhVH0oMKHY1SAFUQtZoBCPMB..i
p1363
sa(dp1364
Vname
p1365
Vei
p1366
sVvalue
p1367
VVHTzWLucFMekjwSNpYGoBQ
p1368
sa(dp1369
Vname
p1370
Vyv
p1371
sVvalue
p1372
g64
sa(dp1373
Vname
p1374
Vasync
p1375
sVvalue
p1376
V_id:ampfp-async,_pms:qs
p1377
sasVheaders
p1378
(lp1379
sVheadersSize
p1380
I662
sVbodySize
p1381
I0
sVmethod
p1382
VGET
p1383
sVhttpVersion
p1384
VHTTP/1.1
p1385
ssVtimings
p1386
(dp1387
Vcomment
p1388
g4
sVreceive
p1389
I0
sVsend
p1390
I0
sVssl
p1391
I-1
sVconnect
p1392
I-1
sVdns
p1393
I-1
sVwait
p1394
I227
sVblocked
p1395
I-1
ssVtime
p1396
I228
sVresponse
p1397
(dp1398
Vstatus
p1399
I200
sVcomment
p1400
g4
sVcookies
p1401
(lp1402
sVstatusText
p1403
VOK
p1404
sVcontent
p1405
(dp1406
VmimeType
p1407
Vtext/html; charset=UTF-8
p1408
sVcomment
p1409
g4
sVsize
p1410
I0
ssVheaders
p1411
(lp1412
sVheadersSize
p1413
I383
sVredirectURL
p1414
g4
sVbodySize
p1415
I4525
sVhttpVersion
p1416
VHTTP/1.1
p1417
ssa(dp1418
Vcomment
p1419
g4
sVserverIPAddress
p1420
V216.58.216.193
p1421
sVpageref
p1422
VHamilton
p1423
sVstartedDateTime
p1424
V2017-04-16T08:40:39.811-05:00
p1425
sVcache
p1426
(dp1427
sVrequest
p1428
(dp1429
Vcomment
p1430
g4
sVcookies
p1431
(lp1432
sVurl
p1433
Vhttps://cdn.ampproject.org/preconnect.gif?0.9794607460496358
p1434
sVqueryString
p1435
(lp1436
(dp1437
Vname
p1438
V0.9794607460496358
p1439
sVvalue
p1440
g4
sasVheaders
p1441
(lp1442
sVheadersSize
p1443
I375
sVbodySize
p1444
I0
sVmethod
p1445
VGET
p1446
sVhttpVersion
p1447
VHTTP/1.1
p1448
ssVtimings
p1449
(dp1450
Vcomment
p1451
g4
sVreceive
p1452
I0
sVsend
p1453
I0
sVssl
p1454
I-1
sVconnect
p1455
I-1
sVdns
p1456
I-1
sVwait
p1457
I211
sVblocked
p1458
I-1
ssVtime
p1459
I212
sVresponse
p1460
(dp1461
Vstatus
p1462
I200
sVcomment
p1463
g4
sVcookies
p1464
(lp1465
sVstatusText
p1466
VOK
p1467
sVcontent
p1468
(dp1469
VmimeType
p1470
Vimage/gif
p1471
sVcomment
p1472
g4
sVsize
p1473
I0
ssVheaders
p1474
(lp1475
sVheadersSize
p1476
I826
sVredirectURL
p1477
g4
sVbodySize
p1478
I37
sVhttpVersion
p1479
VHTTP/1.1
p1480
ssa(dp1481
Vcomment
p1482
g4
sVserverIPAddress
p1483
V216.58.216.206
p1484
sVpageref
p1485
VHamilton
p1486
sVstartedDateTime
p1487
V2017-04-16T08:40:39.952-05:00
p1488
sVcache
p1489
(dp1490
sVrequest
p1491
(dp1492
Vcomment
p1493
g4
sVcookies
p1494
(lp1495
sVurl
p1496
Vhttps://encrypted-tbn0.gstatic.com/images?q=tbn:ANd9GcSInsQ2TpGQtLQLQgP4F4WplVgOuk_89vHTEVHPStpMnRlZWejI4IyQAJ4S_p8GooV_I9s
p1497
sVqueryString
p1498
(lp1499
(dp1500
Vname
p1501
g519
sVvalue
p1502
Vtbn:ANd9GcSInsQ2TpGQtLQLQgP4F4WplVgOuk_89vHTEVHPStpMnRlZWejI4IyQAJ4S_p8GooV_I9s
p1503
sasVheaders
p1504
(lp1505
sVheadersSize
p1506
I438
sVbodySize
p1507
I0
sVmethod
p1508
VGET
p1509
sVhttpVersion
p1510
VHTTP/1.1
p1511
ssVtimings
p1512
(dp1513
Vcomment
p1514
g4
sVreceive
p1515
I0
sVsend
p1516
I0
sVssl
p1517
I555
sVconnect
p1518
I578
sVdns
p1519
I30
sVwait
p1520
I59
sVblocked
p1521
I0
ssVtime
p1522
I669
sVresponse
p1523
(dp1524
Vstatus
p1525
I200
sVcomment
p1526
g4
sVcookies
p1527
(lp1528
sVstatusText
p1529
VOK
p1530
sVcontent
p1531
(dp1532
VmimeType
p1533
Vimage/jpeg
p1534
sVcomment
p1535
g4
sVsize
p1536
I0
ssVheaders
p1537
(lp1538
sVheadersSize
p1539
I407
sVredirectURL
p1540
g4
sVbodySize
p1541
I2638
sVhttpVersion
p1542
VHTTP/1.1
p1543
ssa(dp1544
Vcomment
p1545
g4
sVserverIPAddress
p1546
V172.217.6.4
p1547
sVpageref
p1548
VHamilton
p1549
sVstartedDateTime
p1550
V2017-04-16T08:40:40.047-05:00
p1551
sVcache
p1552
(dp1553
sVrequest
p1554
(dp1555
Vcomment
p1556
g4
sVcookies
p1557
(lp1558
sVurl
p1559
Vhttps://www.google.com/gen_204?s=web&atyp=csi&ei=VHTzWLucFMekjwSNpYGoBQ&imc=34&imn=34&imp=17&adh=&xjs=init.50.14.sb_mob.36.dvl.7.mbsf.3.jsa.1.async.1&ima=7&rt=prt.1495,iml.1626,xjsls.1495,dcl.1542,qiml.1827,xjses.1666,xjsee.1877,xjs.1879,ol.2558,aft.1626,wsrt.142,cst.0,dnst.0,rqst.1553,rspt.1435,rqstt.5,unt.5,cstt.5,dit.1659
p1560
sVqueryString
p1561
(lp1562
(dp1563
Vname
p1564
g57
sVvalue
p1565
Vweb
p1566
sa(dp1567
Vname
p1568
Vatyp
p1569
sVvalue
p1570
Vcsi
p1571
sa(dp1572
Vname
p1573
Vei
p1574
sVvalue
p1575
VVHTzWLucFMekjwSNpYGoBQ
p1576
sa(dp1577
Vname
p1578
Vimc
p1579
sVvalue
p1580
V34
p1581
sa(dp1582
Vname
p1583
Vimn
p1584
sVvalue
p1585
V34
p1586
sa(dp1587
Vname
p1588
Vimp
p1589
sVvalue
p1590
V17
p1591
sa(dp1592
Vname
p1593
Vadh
p1594
sVvalue
p1595
g4
sa(dp1596
Vname
p1597
Vxjs
p1598
sVvalue
p1599
Vinit.50.14.sb_mob.36.dvl.7.mbsf.3.jsa.1.async.1
p1600
sa(dp1601
Vname
p1602
Vima
p1603
sVvalue
p1604
V7
p1605
sa(dp1606
Vname
p1607
Vrt
p1608
sVvalue
p1609
Vprt.1495,iml.1626,xjsls.1495,dcl.1542,qiml.1827,xjses.1666,xjsee.1877,xjs.1879,ol.2558,aft.1626,wsrt.142,cst.0,dnst.0,rqst.1553,rspt.1435,rqstt.5,unt.5,cstt.5,dit.1659
p1610
sasVheaders
p1611
(lp1612
sVheadersSize
p1613
I843
sVbodySize
p1614
I0
sVmethod
p1615
VGET
p1616
sVhttpVersion
p1617
VHTTP/1.1
p1618
ssVtimings
p1619
(dp1620
Vcomment
p1621
g4
sVreceive
p1622
I0
sVsend
p1623
I0
sVssl
p1624
I-1
sVconnect
p1625
I-1
sVdns
p1626
I-1
sVwait
p1627
I38
sVblocked
p1628
I-1
ssVtime
p1629
I39
sVresponse
p1630
(dp1631
Vstatus
p1632
I204
sVcomment
p1633
g4
sVcookies
p1634
(lp1635
sVstatusText
p1636
VNo Content
p1637
sVcontent
p1638
(dp1639
VmimeType
p1640
Vtext/html; charset=UTF-8
p1641
sVcomment
p1642
g4
sVsize
p1643
I0
ssVheaders
p1644
(lp1645
sVheadersSize
p1646
I248
sVredirectURL
p1647
g4
sVbodySize
p1648
I0
sVhttpVersion
p1649
VHTTP/1.1
p1650
ssa(dp1651
Vcomment
p1652
g4
sVserverIPAddress
p1653
V172.217.6.4
p1654
sVpageref
p1655
VHamilton
p1656
sVstartedDateTime
p1657
V2017-04-16T08:40:40.151-05:00
p1658
sVcache
p1659
(dp1660
sVrequest
p1661
(dp1662
Vcomment
p1663
g4
sVcookies
p1664
(lp1665
sVurl
p1666
Vhttps://www.google.com/async/log_amp_item_set?vet=10ahUKEwje0tCPjanTAhUi34MKHR-pB2MQooQBCAE..i&ei=VHTzWLucFMekjwSNpYGoBQ&yv=2&async=num_items:2,_fmt:jspb
p1667
sVqueryString
p1668
(lp1669
(dp1670
Vname
p1671
Vvet
p1672
sVvalue
p1673
V10ahUKEwje0tCPjanTAhUi34MKHR-pB2MQooQBCAE..i
p1674
sa(dp1675
Vname
p1676
Vei
p1677
sVvalue
p1678
VVHTzWLucFMekjwSNpYGoBQ
p1679
sa(dp1680
Vname
p1681
Vyv
p1682
sVvalue
p1683
g64
sa(dp1684
Vname
p1685
Vasync
p1686
sVvalue
p1687
Vnum_items:2,_fmt:jspb
p1688
sasVheaders
p1689
(lp1690
sVheadersSize
p1691
I670
sVbodySize
p1692
I0
sVmethod
p1693
VGET
p1694
sVhttpVersion
p1695
VHTTP/1.1
p1696
ssVtimings
p1697
(dp1698
Vcomment
p1699
g4
sVreceive
p1700
I0
sVsend
p1701
I0
sVssl
p1702
I-1
sVconnect
p1703
I-1
sVdns
p1704
I-1
sVwait
p1705
I59
sVblocked
p1706
I-1
ssVtime
p1707
I59
sVresponse
p1708
(dp1709
Vstatus
p1710
I200
sVcomment
p1711
g4
sVcookies
p1712
(lp1713
sVstatusText
p1714
VOK
p1715
sVcontent
p1716
(dp1717
VmimeType
p1718
Vapplication/json; charset=UTF-8
p1719
sVcomment
p1720
g4
sVsize
p1721
I0
ssVheaders
p1722
(lp1723
sVheadersSize
p1724
I417
sVredirectURL
p1725
g4
sVbodySize
p1726
I141
sVhttpVersion
p1727
VHTTP/1.1
p1728
ssa(dp1729
Vcomment
p1730
g4
sVserverIPAddress
p1731
V172.217.6.4
p1732
sVpageref
p1733
VHamilton
p1734
sVstartedDateTime
p1735
V2017-04-16T08:40:41.751-05:00
p1736
sVcache
p1737
(dp1738
sVrequest
p1739
(dp1740
Vcomment
p1741
g4
sVcookies
p1742
(lp1743
sVurl
p1744
Vhttps://www.google.com/gen_204?atyp=i&ct=slh&cad=&ei=O3TzWPb5BemKjwTwpZKADg&m=V&t=C&s=1&v=2&pv=0.7042411308392081&me=1:1492350013912,x:2,V,0,0,1280,944:0,N,1,O3TzWPb5BemKjwTwpZKADg:0,R,1,24,8,155,1249,452:0,R,1,26,8,155,1197,452:0,R,1,30,95,155,1024,120:0,R,1,77,8,351,1197,140:0,R,1,89,8,491,1197,116:0,R,1,100,8,617,1249,357:0,R,1,101,8,617,1249,337:0,R,1,102,8,617,1249,110:3,B,2678:22745,e,U&zx=1492350041750
p1745
sVqueryString
p1746
(lp1747
(dp1748
Vname
p1749
Vatyp
p1750
sVvalue
p1751
g30
sa(dp1752
Vname
p1753
Vct
p1754
sVvalue
p1755
Vslh
p1756
sa(dp1757
Vname
p1758
Vcad
p1759
sVvalue
p1760
g4
sa(dp1761
Vname
p1762
Vei
p1763
sVvalue
p1764
VO3TzWPb5BemKjwTwpZKADg
p1765
sa(dp1766
Vname
p1767
g47
sVvalue
p1768
g49
sa(dp1769
Vname
p1770
g52
sVvalue
p1771
g54
sa(dp1772
Vname
p1773
g57
sVvalue
p1774
g59
sa(dp1775
Vname
p1776
g62
sVvalue
p1777
g64
sa(dp1778
Vname
p1779
Vpv
p1780
sVvalue
p1781
V0.7042411308392081
p1782
sa(dp1783
Vname
p1784
Vme
p1785
sVvalue
p1786
V1:1492350013912,x:2,V,0,0,1280,944:0,N,1,O3TzWPb5BemKjwTwpZKADg:0,R,1,24,8,155,1249,452:0,R,1,26,8,155,1197,452:0,R,1,30,95,155,1024,120:0,R,1,77,8,351,1197,140:0,R,1,89,8,491,1197,116:0,R,1,100,8,617,1249,357:0,R,1,101,8,617,1249,337:0,R,1,102,8,617,1249,110:3,B,2678:22745,e,U
p1787
sa(dp1788
Vname
p1789
Vzx
p1790
sVvalue
p1791
V1492350041750
p1792
sasVheaders
p1793
(lp1794
sVheadersSize
p1795
I929
sVbodySize
p1796
I0
sVmethod
p1797
VGET
p1798
sVhttpVersion
p1799
VHTTP/1.1
p1800
ssVtimings
p1801
(dp1802
Vcomment
p1803
g4
sVreceive
p1804
I0
sVsend
p1805
I0
sVssl
p1806
I-1
sVconnect
p1807
I-1
sVdns
p1808
I-1
sVwait
p1809
I85
sVblocked
p1810
I-1
ssVtime
p1811
I85
sVresponse
p1812
(dp1813
Vstatus
p1814
I204
sVcomment
p1815
g4
sVcookies
p1816
(lp1817
sVstatusText
p1818
VNo Content
p1819
sVcontent
p1820
(dp1821
VmimeType
p1822
Vtext/html; charset=UTF-8
p1823
sVcomment
p1824
g4
sVsize
p1825
I0
ssVheaders
p1826
(lp1827
sVheadersSize
p1828
I248
sVredirectURL
p1829
g4
sVbodySize
p1830
I0
sVhttpVersion
p1831
VHTTP/1.1
p1832
ssasVversion
p1833
V1.2
p1834
sVpages
p1835
(lp1836
(dp1837
VpageTimings
p1838
(dp1839
Vcomment
p1840
g4
ssVcomment
p1841
g4
sVtitle
p1842
VHamilton
p1843
sVid
p1844
VHamilton
p1845
sVstartedDateTime
p1846
V2017-04-16T08:40:36.655-05:00
p1847
sasVcreator
p1848
(dp1849
Vcomment
p1850
g4
sVversion
p1851
V2.1.4
p1852
sVname
p1853
VBrowserMob Proxy
p1854
sss.