(dp0
Vlog
p1
(dp2
Vcomment
p3
V
p4
sVentries
p5
(lp6
(dp7
Vcomment
p8
g4
sVserverIPAddress
p9
V172.217.6.4
p10
sVpageref
p11
VGlass of Wine
p12
sVstartedDateTime
p13
V2017-04-16T08:44:43.678-05:00
p14
sVcache
p15
(dp16
sVrequest
p17
(dp18
Vcomment
p19
g4
sVcookies
p20
(lp21
sVurl
p22
Vhttps://www.google.com/gen_204?atyp=i&ct=slh&cad=&ei=OHXzWObiI-vWjwTxmK6ABQ&m=V&t=C&s=1&v=2&pv=0.1342303058634957&me=1:1492350267312,x:1,V,0,0,1280,944:0,N,1,OHXzWObiI-vWjwTxmK6ABQ:0,R,1,24,8,155,1249,465:0,R,1,25,8,155,1249,465:0,R,1,28,8,168,1249,40:0,R,1,41,8,219,1249,178:0,R,1,44,0,235,1265,197:0,R,1,84,8,414,1249,40:0,R,1,85,24,414,1217,40:0,R,1,88,8,470,1249,20:0,R,1,90,8,498,1249,20:0,R,1,100,8,526,1249,21:0,R,1,128,8,630,1249,201:0,R,1,129,24,630,1217,190:0,R,1,132,8,841,1249,201:0,R,1,133,24,841,1217,190:2,B,3735:16361,e,U&zx=1492350283677
p23
sVqueryString
p24
(lp25
(dp26
Vname
p27
Vatyp
p28
sVvalue
p29
Vi
p30
sa(dp31
Vname
p32
Vct
p33
sVvalue
p34
Vslh
p35
sa(dp36
Vname
p37
Vcad
p38
sVvalue
p39
g4
sa(dp40
Vname
p41
Vei
p42
sVvalue
p43
VOHXzWObiI-vWjwTxmK6ABQ
p44
sa(dp45
Vname
p46
Vm
p47
sVvalue
p48
VV
p49
sa(dp50
Vname
p51
Vt
p52
sVvalue
p53
VC
p54
sa(dp55
Vname
p56
Vs
p57
sVvalue
p58
V1
p59
sa(dp60
Vname
p61
Vv
p62
sVvalue
p63
V2
p64
sa(dp65
Vname
p66
Vpv
p67
sVvalue
p68
V0.1342303058634957
p69
sa(dp70
Vname
p71
Vme
p72
sVvalue
p73
V1:1492350267312,x:1,V,0,0,1280,944:0,N,1,OHXzWObiI-vWjwTxmK6ABQ:0,R,1,24,8,155,1249,465:0,R,1,25,8,155,1249,465:0,R,1,28,8,168,1249,40:0,R,1,41,8,219,1249,178:0,R,1,44,0,235,1265,197:0,R,1,84,8,414,1249,40:0,R,1,85,24,414,1217,40:0,R,1,88,8,470,1249,20:0,R,1,90,8,498,1249,20:0,R,1,100,8,526,1249,21:0,R,1,128,8,630,1249,201:0,R,1,129,24,630,1217,190:0,R,1,132,8,841,1249,201:0,R,1,133,24,841,1217,190:2,B,3735:16361,e,U
p74
sa(dp75
Vname
p76
Vzx
p77
sVvalue
p78
V1492350283677
p79
sasVheaders
p80
(lp81
sVheadersSize
p82
I1071
sVbodySize
p83
I0
sVmethod
p84
VGET
p85
sVhttpVersion
p86
VHTTP/1.1
p87
ssVtimings
p88
(dp89
Vcomment
p90
g4
sVreceive
p91
I0
sVsend
p92
I0
sVssl
p93
I-1
sVconnect
p94
I-1
sVdns
p95
I-1
sVwait
p96
I0
sVblocked
p97
I-1
ssVtime
p98
I0
sVresponse
p99
(dp100
Vstatus
p101
I0
sVcomment
p102
g4
sVcookies
p103
(lp104
sV_error
p105
VNo response received
p106
sVstatusText
p107
g4
sVcontent
p108
(dp109
VmimeType
p110
g4
sVcomment
p111
g4
sVsize
p112
I0
ssVheaders
p113
(lp114
sVheadersSize
p115
I-1
sVredirectURL
p116
g4
sVbodySize
p117
I-1
sVhttpVersion
p118
Vunknown
p119
ssa(dp120
Vcomment
p121
g4
sVserverIPAddress
p122
V172.217.6.4
p123
sVpageref
p124
VGlass of Wine
p125
sVstartedDateTime
p126
V2017-04-16T08:44:43.683-05:00
p127
sVcache
p128
(dp129
sVrequest
p130
(dp131
Vcomment
p132
g4
sVcookies
p133
(lp134
sVurl
p135
Vhttp://www.google.com/
p136
sVqueryString
p137
(lp138
sVheaders
p139
(lp140
sVheadersSize
p141
I613
sVbodySize
p142
I0
sVmethod
p143
VGET
p144
sVhttpVersion
p145
VHTTP/1.1
p146
ssVtimings
p147
(dp148
Vcomment
p149
g4
sVreceive
p150
I0
sVsend
p151
I0
sVssl
p152
I-1
sVconnect
p153
I-1
sVdns
p154
I-1
sVwait
p155
I35
sVblocked
p156
I-1
ssVtime
p157
I35
sVresponse
p158
(dp159
Vstatus
p160
I302
sVcomment
p161
g4
sVcookies
p162
(lp163
sVstatusText
p164
VFound
p165
sVcontent
p166
(dp167
VmimeType
p168
Vtext/html; charset=UTF-8
p169
sVcomment
p170
g4
sVsize
p171
I0
ssVheaders
p172
(lp173
sVheadersSize
p174
I609
sVredirectURL
p175
Vhttps://www.google.com/?gws_rd=ssl
p176
sVbodySize
p177
I231
sVhttpVersion
p178
VHTTP/1.1
p179
ssa(dp180
Vcomment
p181
g4
sVserverIPAddress
p182
V172.217.6.4
p183
sVpageref
p184
VGlass of Wine
p185
sVstartedDateTime
p186
V2017-04-16T08:44:43.725-05:00
p187
sVcache
p188
(dp189
sVrequest
p190
(dp191
Vcomment
p192
g4
sVcookies
p193
(lp194
sVurl
p195
Vhttps://www.google.com/?gws_rd=ssl
p196
sVqueryString
p197
(lp198
(dp199
Vname
p200
Vgws_rd
p201
sVvalue
p202
Vssl
p203
sasVheaders
p204
(lp205
sVheadersSize
p206
I607
sVbodySize
p207
I0
sVmethod
p208
VGET
p209
sVhttpVersion
p210
VHTTP/1.1
p211
ssVtimings
p212
(dp213
Vcomment
p214
g4
sVreceive
p215
I21
sVsend
p216
I0
sVssl
p217
I-1
sVconnect
p218
I-1
sVdns
p219
I-1
sVwait
p220
I77
sVblocked
p221
I-1
ssVtime
p222
I99
sVresponse
p223
(dp224
Vstatus
p225
I200
sVcomment
p226
g4
sVcookies
p227
(lp228
sVstatusText
p229
VOK
p230
sVcontent
p231
(dp232
VmimeType
p233
Vtext/html; charset=UTF-8
p234
sVcomment
p235
g4
sVsize
p236
I0
ssVheaders
p237
(lp238
sVheadersSize
p239
I721
sVredirectURL
p240
g4
sVbodySize
p241
I34288
sVhttpVersion
p242
VHTTP/1.1
p243
ssa(dp244
Vcomment
p245
g4
sVserverIPAddress
p246
V172.217.6.4
p247
sVpageref
p248
VGlass of Wine
p249
sVstartedDateTime
p250
V2017-04-16T08:44:44.069-05:00
p251
sVcache
p252
(dp253
sVrequest
p254
(dp255
Vcomment
p256
g4
sVcookies
p257
(lp258
sVurl
p259
Vhttps://www.google.com/gen_204?s=mobilewebhp&atyp=csi&ei=SnXzWMueK4rCjwTm0r6IAw&imc=1&imn=1&imp=0&adh=&xjs=init.25.12.sb_mob.18.dvl.3.c.1.jsa.1.mbsf.1&ima=1&rt=xjsls.20,prt.21,iml.21,dcl.71,xjses.117,xjsee.203,xjs.204,ol.235,aft.21,wsrt.154,cst.0,dnst.0,rqst.106,rspt.27,rqstt.48,unt.45,cstt.45,dit.189
p260
sVqueryString
p261
(lp262
(dp263
Vname
p264
g57
sVvalue
p265
Vmobilewebhp
p266
sa(dp267
Vname
p268
Vatyp
p269
sVvalue
p270
Vcsi
p271
sa(dp272
Vname
p273
Vei
p274
sVvalue
p275
VSnXzWMueK4rCjwTm0r6IAw
p276
sa(dp277
Vname
p278
Vimc
p279
sVvalue
p280
g59
sa(dp281
Vname
p282
Vimn
p283
sVvalue
p284
g59
sa(dp285
Vname
p286
Vimp
p287
sVvalue
p288
V0
p289
sa(dp290
Vname
p291
Vadh
p292
sVvalue
p293
g4
sa(dp294
Vname
p295
Vxjs
p296
sVvalue
p297
Vinit.25.12.sb_mob.18.dvl.3.c.1.jsa.1.mbsf.1
p298
sa(dp299
Vname
p300
Vima
p301
sVvalue
p302
g59
sa(dp303
Vname
p304
Vrt
p305
sVvalue
p306
Vxjsls.20,prt.21,iml.21,dcl.71,xjses.117,xjsee.203,xjs.204,ol.235,aft.21,wsrt.154,cst.0,dnst.0,rqst.106,rspt.27,rqstt.48,unt.45,cstt.45,dit.189
p307
sasVheaders
p308
(lp309
sVheadersSize
p310
I830
sVbodySize
p311
I0
sVmethod
p312
VGET
p313
sVhttpVersion
p314
VHTTP/1.1
p315
ssVtimings
p316
(dp317
Vcomment
p318
g4
sVreceive
p319
I0
sVsend
p320
I0
sVssl
p321
I-1
sVconnect
p322
I-1
sVdns
p323
I-1
sVwait
p324
I24
sVblocked
p325
I-1
ssVtime
p326
I24
sVresponse
p327
(dp328
Vstatus
p329
I204
sVcomment
p330
g4
sVcookies
p331
(lp332
sVstatusText
p333
VNo Content
p334
sVcontent
p335
(dp336
VmimeType
p337
Vtext/html; charset=UTF-8
p338
sVcomment
p339
g4
sVsize
p340
I0
ssVheaders
p341
(lp342
sVheadersSize
p343
I248
sVredirectURL
p344
g4
sVbodySize
p345
I0
sVhttpVersion
p346
VHTTP/1.1
p347
ssa(dp348
Vcomment
p349
g4
sVserverIPAddress
p350
V172.217.6.4
p351
sVpageref
p352
VGlass of Wine
p353
sVstartedDateTime
p354
V2017-04-16T08:44:44.233-05:00
p355
sVcache
p356
(dp357
sVrequest
p358
(dp359
Vcomment
p360
g4
sVcookies
p361
(lp362
sVurl
p363
Vhttps://www.google.com/complete/search?client=mobile-gws-hp&hl=en&gs_rn=64&gs_ri=mobile-gws-hp&sla=1&pfq=grey%3A%20fifty%20shades%20of%20grey%20as%20told%20by%20christian&gm=602&cp=0&gs_id=1&xhr=t&q=G&tch=1&ech=1&psi=SnXzWMueK4rCjwTm0r6IAw.1492350284010.1
p364
sVqueryString
p365
(lp366
(dp367
Vname
p368
Vclient
p369
sVvalue
p370
Vmobile-gws-hp
p371
sa(dp372
Vname
p373
Vhl
p374
sVvalue
p375
Ven
p376
sa(dp377
Vname
p378
Vgs_rn
p379
sVvalue
p380
V64
p381
sa(dp382
Vname
p383
Vgs_ri
p384
sVvalue
p385
Vmobile-gws-hp
p386
sa(dp387
Vname
p388
Vsla
p389
sVvalue
p390
g59
sa(dp391
Vname
p392
Vpfq
p393
sVvalue
p394
Vgrey: fifty shades of grey as told by christian
p395
sa(dp396
Vname
p397
Vgm
p398
sVvalue
p399
V602
p400
sa(dp401
Vname
p402
Vcp
p403
sVvalue
p404
g289
sa(dp405
Vname
p406
Vgs_id
p407
sVvalue
p408
g59
sa(dp409
Vname
p410
Vxhr
p411
sVvalue
p412
g52
sa(dp413
Vname
p414
Vq
p415
sVvalue
p416
VG
p417
sa(dp418
Vname
p419
Vtch
p420
sVvalue
p421
g59
sa(dp422
Vname
p423
Vech
p424
sVvalue
p425
g59
sa(dp426
Vname
p427
Vpsi
p428
sVvalue
p429
VSnXzWMueK4rCjwTm0r6IAw.1492350284010.1
p430
sasVheaders
p431
(lp432
sVheadersSize
p433
I783
sVbodySize
p434
I0
sVmethod
p435
VGET
p436
sVhttpVersion
p437
VHTTP/1.1
p438
ssVtimings
p439
(dp440
Vcomment
p441
g4
sVreceive
p442
I0
sVsend
p443
I0
sVssl
p444
I-1
sVconnect
p445
I-1
sVdns
p446
I-1
sVwait
p447
I0
sVblocked
p448
I-1
ssVtime
p449
I0
sVresponse
p450
(dp451
Vstatus
p452
I0
sVcomment
p453
g4
sVcookies
p454
(lp455
sV_error
p456
VNo response received
p457
sVstatusText
p458
g4
sVcontent
p459
(dp460
VmimeType
p461
g4
sVcomment
p462
g4
sVsize
p463
I0
ssVheaders
p464
(lp465
sVheadersSize
p466
I-1
sVredirectURL
p467
g4
sVbodySize
p468
I-1
sVhttpVersion
p469
Vunknown
p470
ssa(dp471
Vcomment
p472
g4
sVserverIPAddress
p473
V172.217.6.4
p474
sVpageref
p475
VGlass of Wine
p476
sVstartedDateTime
p477
V2017-04-16T08:44:44.313-05:00
p478
sVcache
p479
(dp480
sVrequest
p481
(dp482
Vcomment
p483
g4
sVcookies
p484
(lp485
sVurl
p486
Vhttps://www.google.com/search?site=&source=hp&ei=SnXzWMueK4rCjwTm0r6IAw&q=Glass+of+Wine&oq=Glass+of+Wine&gs_l=mobile-gws-hp.3...200.247.0.278.13.1.0.0.0.0.0.0..0.0....0...1c.1.64.mobile-gws-hp..13.0.0.xljHwblnkok
p487
sVqueryString
p488
(lp489
(dp490
Vname
p491
Vsite
p492
sVvalue
p493
g4
sa(dp494
Vname
p495
Vsource
p496
sVvalue
p497
Vhp
p498
sa(dp499
Vname
p500
Vei
p501
sVvalue
p502
VSnXzWMueK4rCjwTm0r6IAw
p503
sa(dp504
Vname
p505
g415
sVvalue
p506
VGlass of Wine
p507
sa(dp508
Vname
p509
Voq
p510
sVvalue
p511
VGlass of Wine
p512
sa(dp513
Vname
p514
Vgs_l
p515
sVvalue
p516
Vmobile-gws-hp.3...200.247.0.278.13.1.0.0.0.0.0.0..0.0....0...1c.1.64.mobile-gws-hp..13.0.0.xljHwblnkok
p517
sasVheaders
p518
(lp519
sVheadersSize
p520
I830
sVbodySize
p521
I0
sVmethod
p522
VGET
p523
sVhttpVersion
p524
VHTTP/1.1
p525
ssVtimings
p526
(dp527
Vcomment
p528
g4
sVreceive
p529
I1214
sVsend
p530
I0
sVssl
p531
I-1
sVconnect
p532
I-1
sVdns
p533
I-1
sVwait
p534
I203
sVblocked
p535
I-1
ssVtime
p536
I1418
sVresponse
p537
(dp538
Vstatus
p539
I200
sVcomment
p540
g4
sVcookies
p541
(lp542
sVstatusText
p543
VOK
p544
sVcontent
p545
(dp546
VmimeType
p547
Vtext/html; charset=UTF-8
p548
sVcomment
p549
g4
sVsize
p550
I0
ssVheaders
p551
(lp552
sVheadersSize
p553
I363
sVredirectURL
p554
g4
sVbodySize
p555
I97401
sVhttpVersion
p556
VHTTP/1.1
p557
ssa(dp558
Vcomment
p559
g4
sVserverIPAddress
p560
V172.217.6.4
p561
sVpageref
p562
VGlass of Wine
p563
sVstartedDateTime
p564
V2017-04-16T08:44:46.148-05:00
p565
sVcache
p566
(dp567
sVrequest
p568
(dp569
Vcomment
p570
g4
sVcookies
p571
(lp572
sVurl
p573
Vhttps://www.google.com/xjs/_/js/k=xjs.qs.en_US.pCBXVCvTH3s.O/m=syl,syj,syn,em3,em8,em6,em7,sym,aa,abd,sy2g,sy2k,sy29,sy2j,sy2d,sy2a,sy2c,sy2f,sy2l,sy2m,sy2n,emd,async,sybn,sybi,sybo,sy1f,sy45,sy46,sy9w,sybk,sybj,sybp,sy1g,sy30,sy47,sybm,sybl,sybq,sy1h,sybh,dvl,syep,foot,ipv6,sy32,emj,shm,sy5g,sy5i,sy5k,sykh,tl,sy2x,sy2y,sy2t,sy38,em12,vs,sy5j,sy5h,sy6u,sy66,sy67,sy7d,sy7j,sy4u,sy69,sy89,sy7e,sykk,sykl,tnv,bct,sy1y,syf5,sy99,syf4,sy26,syfc,syfn,syf7,syff,sy1i,sy22,sy6i,sy68,sy8d,sy9b,syf6,sy23,syfl,syfr,syfq,sy25,syfg,sy1j,sy4q,sy5o,sy5r,sy6j,sy6n,sy6p,sy8h,syc7,syc8,syfb,syfj,syfs,syft,syg3,syg5,syg7,emb,em9,ema,sy24,emn,emo,syg4,syg6,ivg,sy9m,sy9n,iuci,img,sy6y,sycu,d3l,irq,iulc,syac,sy4g,syhz,syl6,ssc,sygq,kpc,kpci,syj7,syj8,syj2,syjc,syj6,syj3,syjg,syjh,syje,syjd,syjk,syji,syjf,syj0,emr,ems,emt,emu,emv,emx,emy,emz,em10,em11,udlg,sy5z,atn,sy31,sya3,sy4h,sya2,sy4i,sya1,sya4,ampfp/am=gCP4LtMEBXQA2RUaq_oFBISzAFA/rt=j/d=0/t=zcms/rs=ACT90oFwm4NZCwIcuuiqmthdlECdBzkhRA
p574
sVqueryString
p575
(lp576
sVheaders
p577
(lp578
sVheadersSize
p579
I1495
sVbodySize
p580
I0
sVmethod
p581
VGET
p582
sVhttpVersion
p583
VHTTP/1.1
p584
ssVtimings
p585
(dp586
Vcomment
p587
g4
sVreceive
p588
I51
sVsend
p589
I0
sVssl
p590
I-1
sVconnect
p591
I-1
sVdns
p592
I-1
sVwait
p593
I15
sVblocked
p594
I-1
ssVtime
p595
I68
sVresponse
p596
(dp597
Vstatus
p598
I200
sVcomment
p599
g4
sVcookies
p600
(lp601
sVstatusText
p602
VOK
p603
sVcontent
p604
(dp605
VmimeType
p606
Vtext/javascript; charset=UTF-8
p607
sVcomment
p608
g4
sVsize
p609
I0
ssVheaders
p610
(lp611
sVheadersSize
p612
I465
sVredirectURL
p613
g4
sVbodySize
p614
I101153
sVhttpVersion
p615
VHTTP/1.1
p616
ssa(dp617
Vcomment
p618
g4
sVserverIPAddress
p619
V172.217.6.4
p620
sVpageref
p621
VGlass of Wine
p622
sVstartedDateTime
p623
V2017-04-16T08:44:46.317-05:00
p624
sVcache
p625
(dp626
sVrequest
p627
(dp628
Vcomment
p629
g4
sVcookies
p630
(lp631
sVurl
p632
Vhttps://www.google.com/async/irc?vet=10ahUKEwiq4pWEjqnTAhVm7oMKHfXPCCIQo0EIzQE..i&ved=0ahUKEwiq4pWEjqnTAhVm7oMKHfXPCCIQo0EIzQE&ei=S3XzWOqQF-bcjwT1n6OQAg&yv=2&async=iu:1,ved:0ahUKEwiq4pWEjqnTAhVm7oMKHfXPCCIQo0EIzQE,_id:irc_async,_pms:qs
p633
sVqueryString
p634
(lp635
(dp636
Vname
p637
Vvet
p638
sVvalue
p639
V10ahUKEwiq4pWEjqnTAhVm7oMKHfXPCCIQo0EIzQE..i
p640
sa(dp641
Vname
p642
Vved
p643
sVvalue
p644
V0ahUKEwiq4pWEjqnTAhVm7oMKHfXPCCIQo0EIzQE
p645
sa(dp646
Vname
p647
Vei
p648
sVvalue
p649
VS3XzWOqQF-bcjwT1n6OQAg
p650
sa(dp651
Vname
p652
Vyv
p653
sVvalue
p654
g64
sa(dp655
Vname
p656
Vasync
p657
sVvalue
p658
Viu:1,ved:0ahUKEwiq4pWEjqnTAhVm7oMKHfXPCCIQo0EIzQE,_id:irc_async,_pms:qs
p659
sasVheaders
p660
(lp661
sVheadersSize
p662
I752
sVbodySize
p663
I0
sVmethod
p664
VGET
p665
sVhttpVersion
p666
VHTTP/1.1
p667
ssVtimings
p668
(dp669
Vcomment
p670
g4
sVreceive
p671
I0
sVsend
p672
I0
sVssl
p673
I-1
sVconnect
p674
I-1
sVdns
p675
I-1
sVwait
p676
I39
sVblocked
p677
I-1
ssVtime
p678
I40
sVresponse
p679
(dp680
Vstatus
p681
I200
sVcomment
p682
g4
sVcookies
p683
(lp684
sVstatusText
p685
VOK
p686
sVcontent
p687
(dp688
VmimeType
p689
Vtext/html; charset=UTF-8
p690
sVcomment
p691
g4
sVsize
p692
I0
ssVheaders
p693
(lp694
sVheadersSize
p695
I383
sVredirectURL
p696
g4
sVbodySize
p697
I7792
sVhttpVersion
p698
VHTTP/1.1
p699
ssa(dp700
Vcomment
p701
g4
sVserverIPAddress
p702
V172.217.6.4
p703
sVpageref
p704
VGlass of Wine
p705
sVstartedDateTime
p706
V2017-04-16T08:44:46.331-05:00
p707
sVcache
p708
(dp709
sVrequest
p710
(dp711
Vcomment
p712
g4
sVcookies
p713
(lp714
sVurl
p715
Vhttps://www.google.com/gen_204?atyp=i&ct=&cad=&vet=10ahUKEwiq4pWEjqnTAhVm7oMKHfXPCCIQ5W0IXCgC..s&ei=S3XzWOqQF-bcjwT1n6OQAg&zx=1492350286330
p716
sVqueryString
p717
(lp718
(dp719
Vname
p720
Vatyp
p721
sVvalue
p722
g30
sa(dp723
Vname
p724
Vct
p725
sVvalue
p726
g4
sa(dp727
Vname
p728
Vcad
p729
sVvalue
p730
g4
sa(dp731
Vname
p732
Vvet
p733
sVvalue
p734
V10ahUKEwiq4pWEjqnTAhVm7oMKHfXPCCIQ5W0IXCgC..s
p735
sa(dp736
Vname
p737
Vei
p738
sVvalue
p739
VS3XzWOqQF-bcjwT1n6OQAg
p740
sa(dp741
Vname
p742
Vzx
p743
sVvalue
p744
V1492350286330
p745
sasVheaders
p746
(lp747
sVheadersSize
p748
I656
sVbodySize
p749
I0
sVmethod
p750
VGET
p751
sVhttpVersion
p752
VHTTP/1.1
p753
ssVtimings
p754
(dp755
Vcomment
p756
g4
sVreceive
p757
I0
sVsend
p758
I0
sVssl
p759
I-1
sVconnect
p760
I-1
sVdns
p761
I-1
sVwait
p762
I31
sVblocked
p763
I-1
ssVtime
p764
I31
sVresponse
p765
(dp766
Vstatus
p767
I204
sVcomment
p768
g4
sVcookies
p769
(lp770
sVstatusText
p771
VNo Content
p772
sVcontent
p773
(dp774
VmimeType
p775
Vtext/html; charset=UTF-8
p776
sVcomment
p777
g4
sVsize
p778
I0
ssVheaders
p779
(lp780
sVheadersSize
p781
I248
sVredirectURL
p782
g4
sVbodySize
p783
I0
sVhttpVersion
p784
VHTTP/1.1
p785
ssa(dp786
Vcomment
p787
g4
sVserverIPAddress
p788
V172.217.6.4
p789
sVpageref
p790
VGlass of Wine
p791
sVstartedDateTime
p792
V2017-04-16T08:44:46.335-05:00
p793
sVcache
p794
(dp795
sVrequest
p796
(dp797
Vcomment
p798
g4
sVcookies
p799
(lp800
sVurl
p801
Vhttps://www.google.com/gen_204?atyp=i&ct=&cad=&vet=10ahUKEwiq4pWEjqnTAhVm7oMKHfXPCCIQ5W0IXygD..s&ei=S3XzWOqQF-bcjwT1n6OQAg&zx=1492350286333
p802
sVqueryString
p803
(lp804
(dp805
Vname
p806
Vatyp
p807
sVvalue
p808
g30
sa(dp809
Vname
p810
Vct
p811
sVvalue
p812
g4
sa(dp813
Vname
p814
Vcad
p815
sVvalue
p816
g4
sa(dp817
Vname
p818
Vvet
p819
sVvalue
p820
V10ahUKEwiq4pWEjqnTAhVm7oMKHfXPCCIQ5W0IXygD..s
p821
sa(dp822
Vname
p823
Vei
p824
sVvalue
p825
VS3XzWOqQF-bcjwT1n6OQAg
p826
sa(dp827
Vname
p828
Vzx
p829
sVvalue
p830
V1492350286333
p831
sasVheaders
p832
(lp833
sVheadersSize
p834
I656
sVbodySize
p835
I0
sVmethod
p836
VGET
p837
sVhttpVersion
p838
VHTTP/1.1
p839
ssVtimings
p840
(dp841
Vcomment
p842
g4
sVreceive
p843
I0
sVsend
p844
I0
sVssl
p845
I-1
sVconnect
p846
I-1
sVdns
p847
I-1
sVwait
p848
I32
sVblocked
p849
I-1
ssVtime
p850
I32
sVresponse
p851
(dp852
Vstatus
p853
I204
sVcomment
p854
g4
sVcookies
p855
(lp856
sVstatusText
p857
VNo Content
p858
sVcontent
p859
(dp860
VmimeType
p861
Vtext/html; charset=UTF-8
p862
sVcomment
p863
g4
sVsize
p864
I0
ssVheaders
p865
(lp866
sVheadersSize
p867
I248
sVredirectURL
p868
g4
sVbodySize
p869
I0
sVhttpVersion
p870
VHTTP/1.1
p871
ssa(dp872
Vcomment
p873
g4
sVserverIPAddress
p874
V172.217.6.4
p875
sVpageref
p876
VGlass of Wine
p877
sVstartedDateTime
p878
V2017-04-16T08:44:46.338-05:00
p879
sVcache
p880
(dp881
sVrequest
p882
(dp883
Vcomment
p884
g4
sVcookies
p885
(lp886
sVurl
p887
Vhttps://www.google.com/gen_204?atyp=i&ct=&cad=&vet=10ahUKEwiq4pWEjqnTAhVm7oMKHfXPCCIQ5W0IYigE..s&ei=S3XzWOqQF-bcjwT1n6OQAg&zx=1492350286336
p888
sVqueryString
p889
(lp890
(dp891
Vname
p892
Vatyp
p893
sVvalue
p894
g30
sa(dp895
Vname
p896
Vct
p897
sVvalue
p898
g4
sa(dp899
Vname
p900
Vcad
p901
sVvalue
p902
g4
sa(dp903
Vname
p904
Vvet
p905
sVvalue
p906
V10ahUKEwiq4pWEjqnTAhVm7oMKHfXPCCIQ5W0IYigE..s
p907
sa(dp908
Vname
p909
Vei
p910
sVvalue
p911
VS3XzWOqQF-bcjwT1n6OQAg
p912
sa(dp913
Vname
p914
Vzx
p915
sVvalue
p916
V1492350286336
p917
sasVheaders
p918
(lp919
sVheadersSize
p920
I656
sVbodySize
p921
I0
sVmethod
p922
VGET
p923
sVhttpVersion
p924
VHTTP/1.1
p925
ssVtimings
p926
(dp927
Vcomment
p928
g4
sVreceive
p929
I0
sVsend
p930
I0
sVssl
p931
I-1
sVconnect
p932
I-1
sVdns
p933
I-1
sVwait
p934
I27
sVblocked
p935
I-1
ssVtime
p936
I27
sVresponse
p937
(dp938
Vstatus
p939
I204
sVcomment
p940
g4
sVcookies
p941
(lp942
sVstatusText
p943
VNo Content
p944
sVcontent
p945
(dp946
VmimeType
p947
Vtext/html; charset=UTF-8
p948
sVcomment
p949
g4
sVsize
p950
I0
ssVheaders
p951
(lp952
sVheadersSize
p953
I248
sVredirectURL
p954
g4
sVbodySize
p955
I0
sVhttpVersion
p956
VHTTP/1.1
p957
ssa(dp958
Vcomment
p959
g4
sVserverIPAddress
p960
V172.217.6.4
p961
sVpageref
p962
VGlass of Wine
p963
sVstartedDateTime
p964
V2017-04-16T08:44:46.361-05:00
p965
sVcache
p966
(dp967
sVrequest
p968
(dp969
Vcomment
p970
g4
sVcookies
p971
(lp972
sVurl
p973
Vhttps://www.google.com/gen_204?atyp=i&ct=&cad=&vet=10ahUKEwiq4pWEjqnTAhVm7oMKHfXPCCIQ5W0IaygH..s&ei=S3XzWOqQF-bcjwT1n6OQAg&zx=1492350286346
p974
sVqueryString
p975
(lp976
(dp977
Vname
p978
Vatyp
p979
sVvalue
p980
g30
sa(dp981
Vname
p982
Vct
p983
sVvalue
p984
g4
sa(dp985
Vname
p986
Vcad
p987
sVvalue
p988
g4
sa(dp989
Vname
p990
Vvet
p991
sVvalue
p992
V10ahUKEwiq4pWEjqnTAhVm7oMKHfXPCCIQ5W0IaygH..s
p993
sa(dp994
Vname
p995
Vei
p996
sVvalue
p997
VS3XzWOqQF-bcjwT1n6OQAg
p998
sa(dp999
Vname
p1000
Vzx
p1001
sVvalue
p1002
V1492350286346
p1003
sasVheaders
p1004
(lp1005
sVheadersSize
p1006
I656
sVbodySize
p1007
I0
sVmethod
p1008
VGET
p1009
sVhttpVersion
p1010
VHTTP/1.1
p1011
ssVtimings
p1012
(dp1013
Vcomment
p1014
g4
sVreceive
p1015
I0
sVsend
p1016
I0
sVssl
p1017
I-1
sVconnect
p1018
I-1
sVdns
p1019
I-1
sVwait
p1020
I26
sVblocked
p1021
I-1
ssVtime
p1022
I27
sVresponse
p1023
(dp1024
Vstatus
p1025
I204
sVcomment
p1026
g4
sVcookies
p1027
(lp1028
sVstatusText
p1029
VNo Content
p1030
sVcontent
p1031
(dp1032
VmimeType
p1033
Vtext/html; charset=UTF-8
p1034
sVcomment
p1035
g4
sVsize
p1036
I0
ssVheaders
p1037
(lp1038
sVheadersSize
p1039
I248
sVredirectURL
p1040
g4
sVbodySize
p1041
I0
sVhttpVersion
p1042
VHTTP/1.1
p1043
ssa(dp1044
Vcomment
p1045
g4
sVserverIPAddress
p1046
V172.217.6.4
p1047
sVpageref
p1048
VGlass of Wine
p1049
sVstartedDateTime
p1050
V2017-04-16T08:44:46.390-05:00
p1051
sVcache
p1052
(dp1053
sVrequest
p1054
(dp1055
Vcomment
p1056
g4
sVcookies
p1057
(lp1058
sVurl
p1059
Vhttps://www.google.com/gen_204?atyp=i&ct=&cad=&vet=10ahUKEwiq4pWEjqnTAhVm7oMKHfXPCCIQ5W0IZSgF..s&ei=S3XzWOqQF-bcjwT1n6OQAg&zx=1492350286339
p1060
sVqueryString
p1061
(lp1062
(dp1063
Vname
p1064
Vatyp
p1065
sVvalue
p1066
g30
sa(dp1067
Vname
p1068
Vct
p1069
sVvalue
p1070
g4
sa(dp1071
Vname
p1072
Vcad
p1073
sVvalue
p1074
g4
sa(dp1075
Vname
p1076
Vvet
p1077
sVvalue
p1078
V10ahUKEwiq4pWEjqnTAhVm7oMKHfXPCCIQ5W0IZSgF..s
p1079
sa(dp1080
Vname
p1081
Vei
p1082
sVvalue
p1083
VS3XzWOqQF-bcjwT1n6OQAg
p1084
sa(dp1085
Vname
p1086
Vzx
p1087
sVvalue
p1088
V1492350286339
p1089
sasVheaders
p1090
(lp1091
sVheadersSize
p1092
I656
sVbodySize
p1093
I0
sVmethod
p1094
VGET
p1095
sVhttpVersion
p1096
VHTTP/1.1
p1097
ssVtimings
p1098
(dp1099
Vcomment
p1100
g4
sVreceive
p1101
I0
sVsend
p1102
I0
sVssl
p1103
I24
sVconnect
p1104
I42
sVdns
p1105
I0
sVwait
p1106
I29
sVblocked
p1107
I0
ssVtime
p1108
I71
sVresponse
p1109
(dp1110
Vstatus
p1111
I204
sVcomment
p1112
g4
sVcookies
p1113
(lp1114
sVstatusText
p1115
VNo Content
p1116
sVcontent
p1117
(dp1118
VmimeType
p1119
Vtext/html; charset=UTF-8
p1120
sVcomment
p1121
g4
sVsize
p1122
I0
ssVheaders
p1123
(lp1124
sVheadersSize
p1125
I248
sVredirectURL
p1126
g4
sVbodySize
p1127
I0
sVhttpVersion
p1128
VHTTP/1.1
p1129
ssa(dp1130
Vcomment
p1131
g4
sVserverIPAddress
p1132
V172.217.6.4
p1133
sVpageref
p1134
VGlass of Wine
p1135
sVstartedDateTime
p1136
V2017-04-16T08:44:46.396-05:00
p1137
sVcache
p1138
(dp1139
sVrequest
p1140
(dp1141
Vcomment
p1142
g4
sVcookies
p1143
(lp1144
sVurl
p1145
Vhttps://www.google.com/gen_204?atyp=i&ct=&cad=&vet=10ahUKEwiq4pWEjqnTAhVm7oMKHfXPCCIQ5W0IaCgG..s&ei=S3XzWOqQF-bcjwT1n6OQAg&zx=1492350286341
p1146
sVqueryString
p1147
(lp1148
(dp1149
Vname
p1150
Vatyp
p1151
sVvalue
p1152
g30
sa(dp1153
Vname
p1154
Vct
p1155
sVvalue
p1156
g4
sa(dp1157
Vname
p1158
Vcad
p1159
sVvalue
p1160
g4
sa(dp1161
Vname
p1162
Vvet
p1163
sVvalue
p1164
V10ahUKEwiq4pWEjqnTAhVm7oMKHfXPCCIQ5W0IaCgG..s
p1165
sa(dp1166
Vname
p1167
Vei
p1168
sVvalue
p1169
VS3XzWOqQF-bcjwT1n6OQAg
p1170
sa(dp1171
Vname
p1172
Vzx
p1173
sVvalue
p1174
V1492350286341
p1175
sasVheaders
p1176
(lp1177
sVheadersSize
p1178
I656
sVbodySize
p1179
I0
sVmethod
p1180
VGET
p1181
sVhttpVersion
p1182
VHTTP/1.1
p1183
ssVtimings
p1184
(dp1185
Vcomment
p1186
g4
sVreceive
p1187
I0
sVsend
p1188
I0
sVssl
p1189
I25
sVconnect
p1190
I48
sVdns
p1191
I0
sVwait
p1192
I49
sVblocked
p1193
I0
ssVtime
p1194
I97
sVresponse
p1195
(dp1196
Vstatus
p1197
I204
sVcomment
p1198
g4
sVcookies
p1199
(lp1200
sVstatusText
p1201
VNo Content
p1202
sVcontent
p1203
(dp1204
VmimeType
p1205
Vtext/html; charset=UTF-8
p1206
sVcomment
p1207
g4
sVsize
p1208
I0
ssVheaders
p1209
(lp1210
sVheadersSize
p1211
I248
sVredirectURL
p1212
g4
sVbodySize
p1213
I0
sVhttpVersion
p1214
VHTTP/1.1
p1215
ssa(dp1216
Vcomment
p1217
g4
sVserverIPAddress
p1218
V172.217.6.4
p1219
sVpageref
p1220
VGlass of Wine
p1221
sVstartedDateTime
p1222
V2017-04-16T08:44:46.439-05:00
p1223
sVcache
p1224
(dp1225
sVrequest
p1226
(dp1227
Vcomment
p1228
g4
sVcookies
p1229
(lp1230
sVurl
p1231
Vhttps://www.google.com/async/ampfp?vet=10ahUKEwiq4pWEjqnTAhVm7oMKHfXPCCIQtZoBCMsB..i&ei=S3XzWOqQF-bcjwT1n6OQAg&yv=2&async=_id:ampfp-async,_pms:qs
p1232
sVqueryString
p1233
(lp1234
(dp1235
Vname
p1236
Vvet
p1237
sVvalue
p1238
V10ahUKEwiq4pWEjqnTAhVm7oMKHfXPCCIQtZoBCMsB..i
p1239
sa(dp1240
Vname
p1241
Vei
p1242
sVvalue
p1243
VS3XzWOqQF-bcjwT1n6OQAg
p1244
sa(dp1245
Vname
p1246
Vyv
p1247
sVvalue
p1248
g64
sa(dp1249
Vname
p1250
Vasync
p1251
sVvalue
p1252
V_id:ampfp-async,_pms:qs
p1253
sasVheaders
p1254
(lp1255
sVheadersSize
p1256
I662
sVbodySize
p1257
I0
sVmethod
p1258
VGET
p1259
sVhttpVersion
p1260
VHTTP/1.1
p1261
ssVtimings
p1262
(dp1263
Vcomment
p1264
g4
sVreceive
p1265
I0
sVsend
p1266
I0
sVssl
p1267
I-1
sVconnect
p1268
I-1
sVdns
p1269
I-1
sVwait
p1270
I105
sVblocked
p1271
I-1
ssVtime
p1272
I106
sVresponse
p1273
(dp1274
Vstatus
p1275
I200
sVcomment
p1276
g4
sVcookies
p1277
(lp1278
sVstatusText
p1279
VOK
p1280
sVcontent
p1281
(dp1282
VmimeType
p1283
Vtext/html; charset=UTF-8
p1284
sVcomment
p1285
g4
sVsize
p1286
I0
ssVheaders
p1287
(lp1288
sVheadersSize
p1289
I383
sVredirectURL
p1290
g4
sVbodySize
p1291
I4527
sVhttpVersion
p1292
VHTTP/1.1
p1293
ssa(dp1294
Vcomment
p1295
g4
sVserverIPAddress
p1296
V216.58.216.193
p1297
sVpageref
p1298
VGlass of Wine
p1299
sVstartedDateTime
p1300
V2017-04-16T08:44:46.439-05:00
p1301
sVcache
p1302
(dp1303
sVrequest
p1304
(dp1305
Vcomment
p1306
g4
sVcookies
p1307
(lp1308
sVurl
p1309
Vhttps://cdn.ampproject.org/preconnect.gif?0.5451913307562916
p1310
sVqueryString
p1311
(lp1312
(dp1313
Vname
p1314
V0.5451913307562916
p1315
sVvalue
p1316
g4
sasVheaders
p1317
(lp1318
sVheadersSize
p1319
I375
sVbodySize
p1320
I0
sVmethod
p1321
VGET
p1322
sVhttpVersion
p1323
VHTTP/1.1
p1324
ssVtimings
p1325
(dp1326
Vcomment
p1327
g4
sVreceive
p1328
I0
sVsend
p1329
I0
sVssl
p1330
I-1
sVconnect
p1331
I-1
sVdns
p1332
I-1
sVwait
p1333
I100
sVblocked
p1334
I-1
ssVtime
p1335
I100
sVresponse
p1336
(dp1337
Vstatus
p1338
I200
sVcomment
p1339
g4
sVcookies
p1340
(lp1341
sVstatusText
p1342
VOK
p1343
sVcontent
p1344
(dp1345
VmimeType
p1346
Vimage/gif
p1347
sVcomment
p1348
g4
sVsize
p1349
I0
ssVheaders
p1350
(lp1351
sVheadersSize
p1352
I826
sVredirectURL
p1353
g4
sVbodySize
p1354
I37
sVhttpVersion
p1355
VHTTP/1.1
p1356
ssa(dp1357
Vcomment
p1358
g4
sVserverIPAddress
p1359
V216.58.216.206
p1360
sVpageref
p1361
VGlass of Wine
p1362
sVstartedDateTime
p1363
V2017-04-16T08:44:46.463-05:00
p1364
sVcache
p1365
(dp1366
sVrequest
p1367
(dp1368
Vcomment
p1369
g4
sVcookies
p1370
(lp1371
sVurl
p1372
Vhttps://encrypted-tbn1.gstatic.com/images?q=tbn:ANd9GcT6yLs7-cvspTfyazpKlgiOZLcCEtwBlNFH_2a-HGce4tHBdZOBw8wi4MY3
p1373
sVqueryString
p1374
(lp1375
(dp1376
Vname
p1377
g415
sVvalue
p1378
Vtbn:ANd9GcT6yLs7-cvspTfyazpKlgiOZLcCEtwBlNFH_2a-HGce4tHBdZOBw8wi4MY3
p1379
sasVheaders
p1380
(lp1381
sVheadersSize
p1382
I427
sVbodySize
p1383
I0
sVmethod
p1384
VGET
p1385
sVhttpVersion
p1386
VHTTP/1.1
p1387
ssVtimings
p1388
(dp1389
Vcomment
p1390
g4
sVreceive
p1391
I0
sVsend
p1392
I0
sVssl
p1393
I-1
sVconnect
p1394
I-1
sVdns
p1395
I-1
sVwait
p1396
I77
sVblocked
p1397
I-1
ssVtime
p1398
I77
sVresponse
p1399
(dp1400
Vstatus
p1401
I200
sVcomment
p1402
g4
sVcookies
p1403
(lp1404
sVstatusText
p1405
VOK
p1406
sVcontent
p1407
(dp1408
VmimeType
p1409
Vimage/jpeg
p1410
sVcomment
p1411
g4
sVsize
p1412
I0
ssVheaders
p1413
(lp1414
sVheadersSize
p1415
I415
sVredirectURL
p1416
g4
sVbodySize
p1417
I1641
sVhttpVersion
p1418
VHTTP/1.1
p1419
ssa(dp1420
Vcomment
p1421
g4
sVserverIPAddress
p1422
V172.217.6.4
p1423
sVpageref
p1424
VGlass of Wine
p1425
sVstartedDateTime
p1426
V2017-04-16T08:44:46.503-05:00
p1427
sVcache
p1428
(dp1429
sVrequest
p1430
(dp1431
Vcomment
p1432
g4
sVcookies
p1433
(lp1434
sVurl
p1435
Vhttps://www.google.com/xjs/_/js/k=xjs.qs.en_US.pCBXVCvTH3s.O/m=idg,sy4d,sy2u,sy4f,sy4c,sy4e,sy4b,syd7,dgm,syfu,ish,ivw/am=gCP4LtMEBXQA2RUaq_oFBISzAFA/rt=j/d=0/t=zcms/rs=ACT90oFwm4NZCwIcuuiqmthdlECdBzkhRA
p1436
sVqueryString
p1437
(lp1438
sVheaders
p1439
(lp1440
sVheadersSize
p1441
I720
sVbodySize
p1442
I0
sVmethod
p1443
VGET
p1444
sVhttpVersion
p1445
VHTTP/1.1
p1446
ssVtimings
p1447
(dp1448
Vcomment
p1449
g4
sVreceive
p1450
I0
sVsend
p1451
I0
sVssl
p1452
I-1
sVconnect
p1453
I-1
sVdns
p1454
I-1
sVwait
p1455
I24
sVblocked
p1456
I-1
ssVtime
p1457
I24
sVresponse
p1458
(dp1459
Vstatus
p1460
I200
sVcomment
p1461
g4
sVcookies
p1462
(lp1463
sVstatusText
p1464
VOK
p1465
sVcontent
p1466
(dp1467
VmimeType
p1468
Vtext/javascript; charset=UTF-8
p1469
sVcomment
p1470
g4
sVsize
p1471
I0
ssVheaders
p1472
(lp1473
sVheadersSize
p1474
I463
sVredirectURL
p1475
g4
sVbodySize
p1476
I5936
sVhttpVersion
p1477
VHTTP/1.1
p1478
ssa(dp1479
Vcomment
p1480
g4
sVserverIPAddress
p1481
V172.217.6.4
p1482
sVpageref
p1483
VGlass of Wine
p1484
sVstartedDateTime
p1485
V2017-04-16T08:44:46.633-05:00
p1486
sVcache
p1487
(dp1488
sVrequest
p1489
(dp1490
Vcomment
p1491
g4
sVcookies
p1492
(lp1493
sVurl
p1494
Vhttps://www.google.com/async/log_amp_item_set?vet=10ahUKEwj8kZaFjqnTAhUL4YMKHb-pDksQooQBCAE..i&ei=S3XzWOqQF-bcjwT1n6OQAg&yv=2&async=num_items:1,_fmt:jspb
p1495
sVqueryString
p1496
(lp1497
(dp1498
Vname
p1499
Vvet
p1500
sVvalue
p1501
V10ahUKEwj8kZaFjqnTAhUL4YMKHb-pDksQooQBCAE..i
p1502
sa(dp1503
Vname
p1504
Vei
p1505
sVvalue
p1506
VS3XzWOqQF-bcjwT1n6OQAg
p1507
sa(dp1508
Vname
p1509
Vyv
p1510
sVvalue
p1511
g64
sa(dp1512
Vname
p1513
Vasync
p1514
sVvalue
p1515
Vnum_items:1,_fmt:jspb
p1516
sasVheaders
p1517
(lp1518
sVheadersSize
p1519
I670
sVbodySize
p1520
I0
sVmethod
p1521
VGET
p1522
sVhttpVersion
p1523
VHTTP/1.1
p1524
ssVtimings
p1525
(dp1526
Vcomment
p1527
g4
sVreceive
p1528
I0
sVsend
p1529
I0
sVssl
p1530
I-1
sVconnect
p1531
I-1
sVdns
p1532
I-1
sVwait
p1533
I33
sVblocked
p1534
I-1
ssVtime
p1535
I34
sVresponse
p1536
(dp1537
Vstatus
p1538
I200
sVcomment
p1539
g4
sVcookies
p1540
(lp1541
sVstatusText
p1542
VOK
p1543
sVcontent
p1544
(dp1545
VmimeType
p1546
Vapplication/json; charset=UTF-8
p1547
sVcomment
p1548
g4
sVsize
p1549
I0
ssVheaders
p1550
(lp1551
sVheadersSize
p1552
I417
sVredirectURL
p1553
g4
sVbodySize
p1554
I132
sVhttpVersion
p1555
VHTTP/1.1
p1556
ssa(dp1557
Vcomment
p1558
g4
sVserverIPAddress
p1559
V216.58.216.193
p1560
sVpageref
p1561
VGlass of Wine
p1562
sVstartedDateTime
p1563
V2017-04-16T08:44:46.999-05:00
p1564
sVcache
p1565
(dp1566
sVrequest
p1567
(dp1568
Vcomment
p1569
g4
sVcookies
p1570
(lp1571
sVurl
p1572
Vhttps://amp-timeinc-net.cdn.ampproject.org/v/amp.timeinc.net/health/health/article/0,,20410287,00.html?source=dam&amp_js_v=9
p1573
sVqueryString
p1574
(lp1575
(dp1576
Vname
p1577
Vsource
p1578
sVvalue
p1579
Vdam
p1580
sa(dp1581
Vname
p1582
Vamp_js_v
p1583
sVvalue
p1584
V9
p1585
sasVheaders
p1586
(lp1587
sVheadersSize
p1588
I529
sVbodySize
p1589
I0
sVmethod
p1590
VGET
p1591
sVhttpVersion
p1592
VHTTP/1.1
p1593
ssVtimings
p1594
(dp1595
Vcomment
p1596
g4
sVreceive
p1597
I42
sVsend
p1598
I0
sVssl
p1599
I276
sVconnect
p1600
I302
sVdns
p1601
I57
sVwait
p1602
I89
sVblocked
p1603
I0
ssVtime
p1604
I492
sVresponse
p1605
(dp1606
Vstatus
p1607
I200
sVcomment
p1608
g4
sVcookies
p1609
(lp1610
sVstatusText
p1611
VOK
p1612
sVcontent
p1613
(dp1614
VmimeType
p1615
Vtext/html
p1616
sVcomment
p1617
g4
sVsize
p1618
I0
ssVheaders
p1619
(lp1620
sVheadersSize
p1621
I862
sVredirectURL
p1622
g4
sVbodySize
p1623
I20682
sVhttpVersion
p1624
VHTTP/1.1
p1625
ssa(dp1626
Vcomment
p1627
g4
sVserverIPAddress
p1628
V216.58.216.202
p1629
sVpageref
p1630
VGlass of Wine
p1631
sVstartedDateTime
p1632
V2017-04-16T08:44:47.106-05:00
p1633
sVcache
p1634
(dp1635
sVrequest
p1636
(dp1637
Vcomment
p1638
g4
sVcookies
p1639
(lp1640
sVurl
p1641
Vhttps://fonts.googleapis.com/css?family=Source%20Sans%20Pro:400,600,700
p1642
sVqueryString
p1643
(lp1644
(dp1645
Vname
p1646
Vfamily
p1647
sVvalue
p1648
VSource Sans Pro:400,600,700
p1649
sasVheaders
p1650
(lp1651
sVheadersSize
p1652
I502
sVbodySize
p1653
I0
sVmethod
p1654
VGET
p1655
sVhttpVersion
p1656
VHTTP/1.1
p1657
ssVtimings
p1658
(dp1659
Vcomment
p1660
g4
sVreceive
p1661
I5
sVsend
p1662
I0
sVssl
p1663
I-1
sVconnect
p1664
I-1
sVdns
p1665
I-1
sVwait
p1666
I36
sVblocked
p1667
I-1
ssVtime
p1668
I42
sVresponse
p1669
(dp1670
Vstatus
p1671
I200
sVcomment
p1672
g4
sVcookies
p1673
(lp1674
sVstatusText
p1675
VOK
p1676
sVcontent
p1677
(dp1678
VmimeType
p1679
Vtext/css; charset=utf-8
p1680
sVcomment
p1681
g4
sVsize
p1682
I0
ssVheaders
p1683
(lp1684
sVheadersSize
p1685
I405
sVredirectURL
p1686
g4
sVbodySize
p1687
I585
sVhttpVersion
p1688
VHTTP/1.1
p1689
ssa(dp1690
Vcomment
p1691
g4
sVserverIPAddress
p1692
V216.58.216.202
p1693
sVpageref
p1694
VGlass of Wine
p1695
sVstartedDateTime
p1696
V2017-04-16T08:44:47.163-05:00
p1697
sVcache
p1698
(dp1699
sVrequest
p1700
(dp1701
Vcomment
p1702
g4
sVcookies
p1703
(lp1704
sVurl
p1705
Vhttps://fonts.googleapis.com/css?family=Merriweather:300,400
p1706
sVqueryString
p1707
(lp1708
(dp1709
Vname
p1710
Vfamily
p1711
sVvalue
p1712
VMerriweather:300,400
p1713
sasVheaders
p1714
(lp1715
sVheadersSize
p1716
I491
sVbodySize
p1717
I0
sVmethod
p1718
VGET
p1719
sVhttpVersion
p1720
VHTTP/1.1
p1721
ssVtimings
p1722
(dp1723
Vcomment
p1724
g4
sVreceive
p1725
I0
sVsend
p1726
I0
sVssl
p1727
I28
sVconnect
p1728
I54
sVdns
p1729
I0
sVwait
p1730
I33
sVblocked
p1731
I0
ssVtime
p1732
I88
sVresponse
p1733
(dp1734
Vstatus
p1735
I200
sVcomment
p1736
g4
sVcookies
p1737
(lp1738
sVstatusText
p1739
VOK
p1740
sVcontent
p1741
(dp1742
VmimeType
p1743
Vtext/css; charset=utf-8
p1744
sVcomment
p1745
g4
sVsize
p1746
I0
ssVheaders
p1747
(lp1748
sVheadersSize
p1749
I405
sVredirectURL
p1750
g4
sVbodySize
p1751
I546
sVhttpVersion
p1752
VHTTP/1.1
p1753
ssa(dp1754
Vcomment
p1755
g4
sVserverIPAddress
p1756
V216.58.216.195
p1757
sVpageref
p1758
VGlass of Wine
p1759
sVstartedDateTime
p1760
V2017-04-16T08:44:47.207-05:00
p1761
sVcache
p1762
(dp1763
sVrequest
p1764
(dp1765
Vcomment
p1766
g4
sVcookies
p1767
(lp1768
sVurl
p1769
Vhttps://fonts.gstatic.com/s/sourcesanspro/v9/toadOcfmlt9b38dHJxOBGMzFoXZ-Kj537nB_-9jJhlA.woff2
p1770
sVqueryString
p1771
(lp1772
sVheaders
p1773
(lp1774
sVheadersSize
p1775
I563
sVbodySize
p1776
I0
sVmethod
p1777
VGET
p1778
sVhttpVersion
p1779
VHTTP/1.1
p1780
ssVtimings
p1781
(dp1782
Vcomment
p1783
g4
sVreceive
p1784
I1
sVsend
p1785
I0
sVssl
p1786
I-1
sVconnect
p1787
I-1
sVdns
p1788
I-1
sVwait
p1789
I19
sVblocked
p1790
I-1
ssVtime
p1791
I21
sVresponse
p1792
(dp1793
Vstatus
p1794
I200
sVcomment
p1795
g4
sVcookies
p1796
(lp1797
sVstatusText
p1798
VOK
p1799
sVcontent
p1800
(dp1801
VmimeType
p1802
Vfont/woff2
p1803
sVcomment
p1804
g4
sVsize
p1805
I0
ssVheaders
p1806
(lp1807
sVheadersSize
p1808
I454
sVredirectURL
p1809
g4
sVbodySize
p1810
I11256
sVhttpVersion
p1811
VHTTP/1.1
p1812
ssa(dp1813
Vcomment
p1814
g4
sVserverIPAddress
p1815
V216.58.216.193
p1816
sVpageref
p1817
VGlass of Wine
p1818
sVstartedDateTime
p1819
V2017-04-16T08:44:48.166-05:00
p1820
sVcache
p1821
(dp1822
sVrequest
p1823
(dp1824
Vcomment
p1825
g4
sVcookies
p1826
(lp1827
sVurl
p1828
Vhttps://d2mdtefgnbhwfs-cloudfront-net.cdn.ampproject.org/ii/w180/s/d2mdtefgnbhwfs.cloudfront.net/images/health-logo.png
p1829
sVqueryString
p1830
(lp1831
sVheaders
p1832
(lp1833
sVheadersSize
p1834
I535
sVbodySize
p1835
I0
sVmethod
p1836
VGET
p1837
sVhttpVersion
p1838
VHTTP/1.1
p1839
ssVtimings
p1840
(dp1841
Vcomment
p1842
g4
sVreceive
p1843
I0
sVsend
p1844
I0
sVssl
p1845
I852
sVconnect
p1846
I865
sVdns
p1847
I37
sVwait
p1848
I27
sVblocked
p1849
I0
ssVtime
p1850
I930
sVresponse
p1851
(dp1852
Vstatus
p1853
I200
sVcomment
p1854
g4
sVcookies
p1855
(lp1856
sVstatusText
p1857
VOK
p1858
sVcontent
p1859
(dp1860
VmimeType
p1861
Vimage/png
p1862
sVcomment
p1863
g4
sVsize
p1864
I0
ssVheaders
p1865
(lp1866
sVheadersSize
p1867
I819
sVredirectURL
p1868
g4
sVbodySize
p1869
I2186
sVhttpVersion
p1870
VHTTP/1.1
p1871
ssa(dp1872
Vcomment
p1873
g4
sVserverIPAddress
p1874
V216.58.216.193
p1875
sVpageref
p1876
VGlass of Wine
p1877
sVstartedDateTime
p1878
V2017-04-16T08:44:48.273-05:00
p1879
sVcache
p1880
(dp1881
sVrequest
p1882
(dp1883
Vcomment
p1884
g4
sVcookies
p1885
(lp1886
sVurl
p1887
Vhttps://cdn--img-health-com.cdn.ampproject.org/i/cdn-img.health.com/sites/default/files/styles/large/public/styles/main/public/LIVCheers_225.jpg
p1888
sVqueryString
p1889
(lp1890
sVheaders
p1891
(lp1892
sVheadersSize
p1893
I560
sVbodySize
p1894
I0
sVmethod
p1895
VGET
p1896
sVhttpVersion
p1897
VHTTP/1.1
p1898
ssVtimings
p1899
(dp1900
Vcomment
p1901
g4
sVreceive
p1902
I3
sVsend
p1903
I0
sVssl
p1904
I960
sVconnect
p1905
I976
sVdns
p1906
I30
sVwait
p1907
I38
sVblocked
p1908
I0
ssVtime
p1909
I1049
sVresponse
p1910
(dp1911
Vstatus
p1912
I200
sVcomment
p1913
g4
sVcookies
p1914
(lp1915
sVstatusText
p1916
VOK
p1917
sVcontent
p1918
(dp1919
VmimeType
p1920
Vimage/jpeg
p1921
sVcomment
p1922
g4
sVsize
p1923
I0
ssVheaders
p1924
(lp1925
sVheadersSize
p1926
I846
sVredirectURL
p1927
g4
sVbodySize
p1928
I11131
sVhttpVersion
p1929
VHTTP/1.1
p1930
ssa(dp1931
Vcomment
p1932
g4
sVserverIPAddress
p1933
V172.217.6.4
p1934
sVpageref
p1935
VGlass of Wine
p1936
sVstartedDateTime
p1937
V2017-04-16T08:44:48.346-05:00
p1938
sVcache
p1939
(dp1940
sVrequest
p1941
(dp1942
Vcomment
p1943
g4
sVcookies
p1944
(lp1945
sVurl
p1946
Vhttps://www.google.com/gen_204?s=web&atyp=csi&ei=S3XzWOqQF-bcjwT1n6OQAg&imc=30&imn=30&imp=18&adh=&xjs=init.46.14.sb_mob.29.dvl.7.async.3.c.2.mbsf.1&ima=10&rt=prt.1234,iml.1379,xjsls.1234,dcl.1299,xjses.1424,xjsee.1615,xjs.1615,qiml.2115,ol.3808,aft.1376,wsrt.214,cst.0,dnst.0,rqst.1420,rspt.1215,rqstt.2,unt.2,cstt.2,dit.1462
p1947
sVqueryString
p1948
(lp1949
(dp1950
Vname
p1951
g57
sVvalue
p1952
Vweb
p1953
sa(dp1954
Vname
p1955
Vatyp
p1956
sVvalue
p1957
Vcsi
p1958
sa(dp1959
Vname
p1960
Vei
p1961
sVvalue
p1962
VS3XzWOqQF-bcjwT1n6OQAg
p1963
sa(dp1964
Vname
p1965
Vimc
p1966
sVvalue
p1967
V30
p1968
sa(dp1969
Vname
p1970
Vimn
p1971
sVvalue
p1972
V30
p1973
sa(dp1974
Vname
p1975
Vimp
p1976
sVvalue
p1977
V18
p1978
sa(dp1979
Vname
p1980
Vadh
p1981
sVvalue
p1982
g4
sa(dp1983
Vname
p1984
Vxjs
p1985
sVvalue
p1986
Vinit.46.14.sb_mob.29.dvl.7.async.3.c.2.mbsf.1
p1987
sa(dp1988
Vname
p1989
Vima
p1990
sVvalue
p1991
V10
p1992
sa(dp1993
Vname
p1994
Vrt
p1995
sVvalue
p1996
Vprt.1234,iml.1379,xjsls.1234,dcl.1299,xjses.1424,xjsee.1615,xjs.1615,qiml.2115,ol.3808,aft.1376,wsrt.214,cst.0,dnst.0,rqst.1420,rspt.1215,rqstt.2,unt.2,cstt.2,dit.1462
p1997
sasVheaders
p1998
(lp1999
sVheadersSize
p2000
I842
sVbodySize
p2001
I0
sVmethod
p2002
VGET
p2003
sVhttpVersion
p2004
VHTTP/1.1
p2005
ssVtimings
p2006
(dp2007
Vcomment
p2008
g4
sVreceive
p2009
I0
sVsend
p2010
I0
sVssl
p2011
I-1
sVconnect
p2012
I-1
sVdns
p2013
I-1
sVwait
p2014
I81
sVblocked
p2015
I-1
ssVtime
p2016
I81
sVresponse
p2017
(dp2018
Vstatus
p2019
I204
sVcomment
p2020
g4
sVcookies
p2021
(lp2022
sVstatusText
p2023
VNo Content
p2024
sVcontent
p2025
(dp2026
VmimeType
p2027
Vtext/html; charset=UTF-8
p2028
sVcomment
p2029
g4
sVsize
p2030
I0
ssVheaders
p2031
(lp2032
sVheadersSize
p2033
I248
sVredirectURL
p2034
g4
sVbodySize
p2035
I0
sVhttpVersion
p2036
VHTTP/1.1
p2037
ssa(dp2038
Vcomment
p2039
g4
sVserverIPAddress
p2040
V172.217.6.4
p2041
sVpageref
p2042
VGlass of Wine
p2043
sVstartedDateTime
p2044
V2017-04-16T08:44:48.397-05:00
p2045
sVcache
p2046
(dp2047
sVrequest
p2048
(dp2049
Vcomment
p2050
g4
sVcookies
p2051
(lp2052
sVurl
p2053
Vhttps://www.google.com/gen_204?atyp=i&ct=slh&cad=&ei=OHXzWObiI-vWjwTxmK6ABQ&m=V&t=C&s=1&v=2&pv=0.1342303058634957&me=1:1492350267312,x:1,V,0,0,1280,944:0,N,1,OHXzWObiI-vWjwTxmK6ABQ:0,R,1,24,8,155,1249,465:0,R,1,25,8,155,1249,465:0,R,1,28,8,168,1249,40:0,R,1,41,8,219,1249,178:0,R,1,44,0,235,1265,197:0,R,1,84,8,414,1249,40:0,R,1,85,24,414,1217,40:0,R,1,88,8,470,1249,20:0,R,1,90,8,498,1249,20:0,R,1,100,8,526,1249,21:0,R,1,128,8,630,1249,201:0,R,1,129,24,630,1217,190:0,R,1,132,8,841,1249,201:0,R,1,133,24,841,1217,190:2,B,3735:16361,e,U&zx=1492350288393
p2054
sVqueryString
p2055
(lp2056
(dp2057
Vname
p2058
Vatyp
p2059
sVvalue
p2060
g30
sa(dp2061
Vname
p2062
Vct
p2063
sVvalue
p2064
Vslh
p2065
sa(dp2066
Vname
p2067
Vcad
p2068
sVvalue
p2069
g4
sa(dp2070
Vname
p2071
Vei
p2072
sVvalue
p2073
VOHXzWObiI-vWjwTxmK6ABQ
p2074
sa(dp2075
Vname
p2076
g47
sVvalue
p2077
g49
sa(dp2078
Vname
p2079
g52
sVvalue
p2080
g54
sa(dp2081
Vname
p2082
g57
sVvalue
p2083
g59
sa(dp2084
Vname
p2085
g62
sVvalue
p2086
g64
sa(dp2087
Vname
p2088
Vpv
p2089
sVvalue
p2090
V0.1342303058634957
p2091
sa(dp2092
Vname
p2093
Vme
p2094
sVvalue
p2095
V1:1492350267312,x:1,V,0,0,1280,944:0,N,1,OHXzWObiI-vWjwTxmK6ABQ:0,R,1,24,8,155,1249,465:0,R,1,25,8,155,1249,465:0,R,1,28,8,168,1249,40:0,R,1,41,8,219,1249,178:0,R,1,44,0,235,1265,197:0,R,1,84,8,414,1249,40:0,R,1,85,24,414,1217,40:0,R,1,88,8,470,1249,20:0,R,1,90,8,498,1249,20:0,R,1,100,8,526,1249,21:0,R,1,128,8,630,1249,201:0,R,1,129,24,630,1217,190:0,R,1,132,8,841,1249,201:0,R,1,133,24,841,1217,190:2,B,3735:16361,e,U
p2096
sa(dp2097
Vname
p2098
Vzx
p2099
sVvalue
p2100
V1492350288393
p2101
sasVheaders
p2102
(lp2103
sVheadersSize
p2104
I1071
sVbodySize
p2105
I0
sVmethod
p2106
VGET
p2107
sVhttpVersion
p2108
VHTTP/1.1
p2109
ssVtimings
p2110
(dp2111
Vcomment
p2112
g4
sVreceive
p2113
I0
sVsend
p2114
I0
sVssl
p2115
I-1
sVconnect
p2116
I-1
sVdns
p2117
I-1
sVwait
p2118
I31
sVblocked
p2119
I-1
ssVtime
p2120
I31
sVresponse
p2121
(dp2122
Vstatus
p2123
I204
sVcomment
p2124
g4
sVcookies
p2125
(lp2126
sVstatusText
p2127
VNo Content
p2128
sVcontent
p2129
(dp2130
VmimeType
p2131
Vtext/html; charset=UTF-8
p2132
sVcomment
p2133
g4
sVsize
p2134
I0
ssVheaders
p2135
(lp2136
sVheadersSize
p2137
I248
sVredirectURL
p2138
g4
sVbodySize
p2139
I0
sVhttpVersion
p2140
VHTTP/1.1
p2141
ssasVversion
p2142
V1.2
p2143
sVpages
p2144
(lp2145
(dp2146
VpageTimings
p2147
(dp2148
Vcomment
p2149
g4
ssVcomment
p2150
g4
sVtitle
p2151
VGlass of Wine
p2152
sVid
p2153
VGlass of Wine
p2154
sVstartedDateTime
p2155
V2017-04-16T08:44:43.668-05:00
p2156
sasVcreator
p2157
(dp2158
Vcomment
p2159
g4
sVversion
p2160
V2.1.4
p2161
sVname
p2162
VBrowserMob Proxy
p2163
sss.