(dp0
Vlog
p1
(dp2
Vcomment
p3
V
p4
sVentries
p5
(lp6
(dp7
Vcomment
p8
g4
sVserverIPAddress
p9
V172.217.6.4
p10
sVpageref
p11
VHonda
p12
sVstartedDateTime
p13
V2017-04-16T08:46:43.403-05:00
p14
sVcache
p15
(dp16
sVrequest
p17
(dp18
Vcomment
p19
g4
sVcookies
p20
(lp21
sVurl
p22
Vhttps://www.google.com/gen_204?atyp=i&ct=slh&cad=&ei=t3XzWIjQDYnojwT77KP4AQ&m=V&t=C&s=1&v=2&pv=0.33646945770094727&me=1:1492350397614,x:2,V,0,0,1280,944:0,N,1,t3XzWIjQDYnojwT77KP4AQ:0,R,1,24,8,155,1249,43:0,R,1,41,8,198,1249,328:0,R,1,43,8,242,1249,284:0,R,1,44,0,242,1265,304:0,R,1,76,8,536,1249,564:0,R,1,78,8,536,1197,564:0,R,1,82,95,536,1024,120:0,R,1,121,16,732,1189,104:0,R,1,140,16,836,1189,104:0,R,1,159,16,940,1189,114:2,B,4302:5783,e,U&zx=1492350403401
p23
sVqueryString
p24
(lp25
(dp26
Vname
p27
Vatyp
p28
sVvalue
p29
Vi
p30
sa(dp31
Vname
p32
Vct
p33
sVvalue
p34
Vslh
p35
sa(dp36
Vname
p37
Vcad
p38
sVvalue
p39
g4
sa(dp40
Vname
p41
Vei
p42
sVvalue
p43
Vt3XzWIjQDYnojwT77KP4AQ
p44
sa(dp45
Vname
p46
Vm
p47
sVvalue
p48
VV
p49
sa(dp50
Vname
p51
Vt
p52
sVvalue
p53
VC
p54
sa(dp55
Vname
p56
Vs
p57
sVvalue
p58
V1
p59
sa(dp60
Vname
p61
Vv
p62
sVvalue
p63
V2
p64
sa(dp65
Vname
p66
Vpv
p67
sVvalue
p68
V0.33646945770094727
p69
sa(dp70
Vname
p71
Vme
p72
sVvalue
p73
V1:1492350397614,x:2,V,0,0,1280,944:0,N,1,t3XzWIjQDYnojwT77KP4AQ:0,R,1,24,8,155,1249,43:0,R,1,41,8,198,1249,328:0,R,1,43,8,242,1249,284:0,R,1,44,0,242,1265,304:0,R,1,76,8,536,1249,564:0,R,1,78,8,536,1197,564:0,R,1,82,95,536,1024,120:0,R,1,121,16,732,1189,104:0,R,1,140,16,836,1189,104:0,R,1,159,16,940,1189,114:2,B,4302:5783,e,U
p74
sa(dp75
Vname
p76
Vzx
p77
sVvalue
p78
V1492350403401
p79
sasVheaders
p80
(lp81
sVheadersSize
p82
I979
sVbodySize
p83
I0
sVmethod
p84
VGET
p85
sVhttpVersion
p86
VHTTP/1.1
p87
ssVtimings
p88
(dp89
Vcomment
p90
g4
sVreceive
p91
I0
sVsend
p92
I0
sVssl
p93
I-1
sVconnect
p94
I-1
sVdns
p95
I-1
sVwait
p96
I0
sVblocked
p97
I-1
ssVtime
p98
I0
sVresponse
p99
(dp100
Vstatus
p101
I0
sVcomment
p102
g4
sVcookies
p103
(lp104
sV_error
p105
VNo response received
p106
sVstatusText
p107
g4
sVcontent
p108
(dp109
VmimeType
p110
g4
sVcomment
p111
g4
sVsize
p112
I0
ssVheaders
p113
(lp114
sVheadersSize
p115
I-1
sVredirectURL
p116
g4
sVbodySize
p117
I-1
sVhttpVersion
p118
Vunknown
p119
ssa(dp120
Vcomment
p121
g4
sVserverIPAddress
p122
V172.217.6.4
p123
sVpageref
p124
VHonda
p125
sVstartedDateTime
p126
V2017-04-16T08:46:43.408-05:00
p127
sVcache
p128
(dp129
sVrequest
p130
(dp131
Vcomment
p132
g4
sVcookies
p133
(lp134
sVurl
p135
Vhttp://www.google.com/
p136
sVqueryString
p137
(lp138
sVheaders
p139
(lp140
sVheadersSize
p141
I613
sVbodySize
p142
I0
sVmethod
p143
VGET
p144
sVhttpVersion
p145
VHTTP/1.1
p146
ssVtimings
p147
(dp148
Vcomment
p149
g4
sVreceive
p150
I0
sVsend
p151
I0
sVssl
p152
I-1
sVconnect
p153
I-1
sVdns
p154
I-1
sVwait
p155
I36
sVblocked
p156
I-1
ssVtime
p157
I37
sVresponse
p158
(dp159
Vstatus
p160
I302
sVcomment
p161
g4
sVcookies
p162
(lp163
sVstatusText
p164
VFound
p165
sVcontent
p166
(dp167
VmimeType
p168
Vtext/html; charset=UTF-8
p169
sVcomment
p170
g4
sVsize
p171
I0
ssVheaders
p172
(lp173
sVheadersSize
p174
I609
sVredirectURL
p175
Vhttps://www.google.com/?gws_rd=ssl
p176
sVbodySize
p177
I231
sVhttpVersion
p178
VHTTP/1.1
p179
ssa(dp180
Vcomment
p181
g4
sVserverIPAddress
p182
V172.217.6.4
p183
sVpageref
p184
VHonda
p185
sVstartedDateTime
p186
V2017-04-16T08:46:43.451-05:00
p187
sVcache
p188
(dp189
sVrequest
p190
(dp191
Vcomment
p192
g4
sVcookies
p193
(lp194
sVurl
p195
Vhttps://www.google.com/?gws_rd=ssl
p196
sVqueryString
p197
(lp198
(dp199
Vname
p200
Vgws_rd
p201
sVvalue
p202
Vssl
p203
sasVheaders
p204
(lp205
sVheadersSize
p206
I607
sVbodySize
p207
I0
sVmethod
p208
VGET
p209
sVhttpVersion
p210
VHTTP/1.1
p211
ssVtimings
p212
(dp213
Vcomment
p214
g4
sVreceive
p215
I7
sVsend
p216
I0
sVssl
p217
I-1
sVconnect
p218
I-1
sVdns
p219
I-1
sVwait
p220
I79
sVblocked
p221
I-1
ssVtime
p222
I86
sVresponse
p223
(dp224
Vstatus
p225
I200
sVcomment
p226
g4
sVcookies
p227
(lp228
sVstatusText
p229
VOK
p230
sVcontent
p231
(dp232
VmimeType
p233
Vtext/html; charset=UTF-8
p234
sVcomment
p235
g4
sVsize
p236
I0
ssVheaders
p237
(lp238
sVheadersSize
p239
I721
sVredirectURL
p240
g4
sVbodySize
p241
I34291
sVhttpVersion
p242
VHTTP/1.1
p243
ssa(dp244
Vcomment
p245
g4
sVserverIPAddress
p246
V172.217.6.4
p247
sVpageref
p248
VHonda
p249
sVstartedDateTime
p250
V2017-04-16T08:46:44.787-05:00
p251
sVcache
p252
(dp253
sVrequest
p254
(dp255
Vcomment
p256
g4
sVcookies
p257
(lp258
sVurl
p259
Vhttps://www.google.com/gen_204?s=mobilewebhp&atyp=csi&ei=wnXzWIjlGsvQjwS77bvABA&imc=1&imn=1&imp=0&adh=&xjs=init.25.12.sb_mob.19.dvl.3.c.1.mbsf.1.async.1&ima=1&rt=xjsls.13,prt.15,iml.15,dcl.48,xjses.105,xjsee.198,xjs.199,ol.1217,aft.15,wsrt.157,cst.0,dnst.0,rqst.90,rspt.10,rqstt.50,unt.46,cstt.46,dit.193
p260
sVqueryString
p261
(lp262
(dp263
Vname
p264
g57
sVvalue
p265
Vmobilewebhp
p266
sa(dp267
Vname
p268
Vatyp
p269
sVvalue
p270
Vcsi
p271
sa(dp272
Vname
p273
Vei
p274
sVvalue
p275
VwnXzWIjlGsvQjwS77bvABA
p276
sa(dp277
Vname
p278
Vimc
p279
sVvalue
p280
g59
sa(dp281
Vname
p282
Vimn
p283
sVvalue
p284
g59
sa(dp285
Vname
p286
Vimp
p287
sVvalue
p288
V0
p289
sa(dp290
Vname
p291
Vadh
p292
sVvalue
p293
g4
sa(dp294
Vname
p295
Vxjs
p296
sVvalue
p297
Vinit.25.12.sb_mob.19.dvl.3.c.1.mbsf.1.async.1
p298
sa(dp299
Vname
p300
Vima
p301
sVvalue
p302
g59
sa(dp303
Vname
p304
Vrt
p305
sVvalue
p306
Vxjsls.13,prt.15,iml.15,dcl.48,xjses.105,xjsee.198,xjs.199,ol.1217,aft.15,wsrt.157,cst.0,dnst.0,rqst.90,rspt.10,rqstt.50,unt.46,cstt.46,dit.193
p307
sasVheaders
p308
(lp309
sVheadersSize
p310
I832
sVbodySize
p311
I0
sVmethod
p312
VGET
p313
sVhttpVersion
p314
VHTTP/1.1
p315
ssVtimings
p316
(dp317
Vcomment
p318
g4
sVreceive
p319
I0
sVsend
p320
I0
sVssl
p321
I-1
sVconnect
p322
I-1
sVdns
p323
I-1
sVwait
p324
I79
sVblocked
p325
I-1
ssVtime
p326
I79
sVresponse
p327
(dp328
Vstatus
p329
I204
sVcomment
p330
g4
sVcookies
p331
(lp332
sVstatusText
p333
VNo Content
p334
sVcontent
p335
(dp336
VmimeType
p337
Vtext/html; charset=UTF-8
p338
sVcomment
p339
g4
sVsize
p340
I0
ssVheaders
p341
(lp342
sVheadersSize
p343
I248
sVredirectURL
p344
g4
sVbodySize
p345
I0
sVhttpVersion
p346
VHTTP/1.1
p347
ssa(dp348
Vcomment
p349
g4
sVserverIPAddress
p350
V172.217.6.4
p351
sVpageref
p352
VHonda
p353
sVstartedDateTime
p354
V2017-04-16T08:46:44.897-05:00
p355
sVcache
p356
(dp357
sVrequest
p358
(dp359
Vcomment
p360
g4
sVcookies
p361
(lp362
sVurl
p363
Vhttps://www.google.com/complete/search?client=mobile-gws-hp&hl=en&gs_rn=64&gs_ri=mobile-gws-hp&sla=1&pfq=harry%20potter%20and%20the%20cursed%20child&gm=602&cp=0&gs_id=1&xhr=t&q=H&tch=1&ech=1&psi=wnXzWIjlGsvQjwS77bvABA.1492350403733.1
p364
sVqueryString
p365
(lp366
(dp367
Vname
p368
Vclient
p369
sVvalue
p370
Vmobile-gws-hp
p371
sa(dp372
Vname
p373
Vhl
p374
sVvalue
p375
Ven
p376
sa(dp377
Vname
p378
Vgs_rn
p379
sVvalue
p380
V64
p381
sa(dp382
Vname
p383
Vgs_ri
p384
sVvalue
p385
Vmobile-gws-hp
p386
sa(dp387
Vname
p388
Vsla
p389
sVvalue
p390
g59
sa(dp391
Vname
p392
Vpfq
p393
sVvalue
p394
Vharry potter and the cursed child
p395
sa(dp396
Vname
p397
Vgm
p398
sVvalue
p399
V602
p400
sa(dp401
Vname
p402
Vcp
p403
sVvalue
p404
g289
sa(dp405
Vname
p406
Vgs_id
p407
sVvalue
p408
g59
sa(dp409
Vname
p410
Vxhr
p411
sVvalue
p412
g52
sa(dp413
Vname
p414
Vq
p415
sVvalue
p416
VH
p417
sa(dp418
Vname
p419
Vtch
p420
sVvalue
p421
g59
sa(dp422
Vname
p423
Vech
p424
sVvalue
p425
g59
sa(dp426
Vname
p427
Vpsi
p428
sVvalue
p429
VwnXzWIjlGsvQjwS77bvABA.1492350403733.1
p430
sasVheaders
p431
(lp432
sVheadersSize
p433
I761
sVbodySize
p434
I0
sVmethod
p435
VGET
p436
sVhttpVersion
p437
VHTTP/1.1
p438
ssVtimings
p439
(dp440
Vcomment
p441
g4
sVreceive
p442
I0
sVsend
p443
I0
sVssl
p444
I-1
sVconnect
p445
I-1
sVdns
p446
I-1
sVwait
p447
I0
sVblocked
p448
I-1
ssVtime
p449
I0
sVresponse
p450
(dp451
Vstatus
p452
I0
sVcomment
p453
g4
sVcookies
p454
(lp455
sV_error
p456
VNo response received
p457
sVstatusText
p458
g4
sVcontent
p459
(dp460
VmimeType
p461
g4
sVcomment
p462
g4
sVsize
p463
I0
ssVheaders
p464
(lp465
sVheadersSize
p466
I-1
sVredirectURL
p467
g4
sVbodySize
p468
I-1
sVhttpVersion
p469
Vunknown
p470
ssa(dp471
Vcomment
p472
g4
sVserverIPAddress
p473
V172.217.6.4
p474
sVpageref
p475
VHonda
p476
sVstartedDateTime
p477
V2017-04-16T08:46:44.962-05:00
p478
sVcache
p479
(dp480
sVrequest
p481
(dp482
Vcomment
p483
g4
sVcookies
p484
(lp485
sVurl
p486
Vhttps://www.google.com/search?site=&source=hp&ei=wnXzWIjlGsvQjwS77bvABA&q=Honda&oq=Honda&gs_l=mobile-gws-hp.3...1139.1158.0.1200.5.1.0.0.0.0.0.0..0.0....0...1c.1.64.mobile-gws-hp..5.0.0.hfB8GLmQ3G0
p487
sVqueryString
p488
(lp489
(dp490
Vname
p491
Vsite
p492
sVvalue
p493
g4
sa(dp494
Vname
p495
Vsource
p496
sVvalue
p497
Vhp
p498
sa(dp499
Vname
p500
Vei
p501
sVvalue
p502
VwnXzWIjlGsvQjwS77bvABA
p503
sa(dp504
Vname
p505
g415
sVvalue
p506
VHonda
p507
sa(dp508
Vname
p509
Voq
p510
sVvalue
p511
VHonda
p512
sa(dp513
Vname
p514
Vgs_l
p515
sVvalue
p516
Vmobile-gws-hp.3...1139.1158.0.1200.5.1.0.0.0.0.0.0..0.0....0...1c.1.64.mobile-gws-hp..5.0.0.hfB8GLmQ3G0
p517
sasVheaders
p518
(lp519
sVheadersSize
p520
I815
sVbodySize
p521
I0
sVmethod
p522
VGET
p523
sVhttpVersion
p524
VHTTP/1.1
p525
ssVtimings
p526
(dp527
Vcomment
p528
g4
sVreceive
p529
I1025
sVsend
p530
I0
sVssl
p531
I-1
sVconnect
p532
I-1
sVdns
p533
I-1
sVwait
p534
I145
sVblocked
p535
I-1
ssVtime
p536
I1170
sVresponse
p537
(dp538
Vstatus
p539
I200
sVcomment
p540
g4
sVcookies
p541
(lp542
sVstatusText
p543
VOK
p544
sVcontent
p545
(dp546
VmimeType
p547
Vtext/html; charset=UTF-8
p548
sVcomment
p549
g4
sVsize
p550
I0
ssVheaders
p551
(lp552
sVheadersSize
p553
I363
sVredirectURL
p554
g4
sVbodySize
p555
I121802
sVhttpVersion
p556
VHTTP/1.1
p557
ssa(dp558
Vcomment
p559
g4
sVserverIPAddress
p560
V172.217.6.4
p561
sVpageref
p562
VHonda
p563
sVstartedDateTime
p564
V2017-04-16T08:46:46.035-05:00
p565
sVcache
p566
(dp567
sVrequest
p568
(dp569
Vcomment
p570
g4
sVcookies
p571
(lp572
sVurl
p573
Vhttps://www.google.com/gen_204?atyp=i&ct=&cad=udla=1&ei=w3XzWOyFPJuvjwTdloXgDg&b=0&act=p&ps=0&zx=1492350406028
p574
sVqueryString
p575
(lp576
(dp577
Vname
p578
Vatyp
p579
sVvalue
p580
g30
sa(dp581
Vname
p582
Vct
p583
sVvalue
p584
g4
sa(dp585
Vname
p586
Vcad
p587
sVvalue
p588
Vudla=1
p589
sa(dp590
Vname
p591
Vei
p592
sVvalue
p593
Vw3XzWOyFPJuvjwTdloXgDg
p594
sa(dp595
Vname
p596
Vb
p597
sVvalue
p598
g289
sa(dp599
Vname
p600
Vact
p601
sVvalue
p602
Vp
p603
sa(dp604
Vname
p605
Vps
p606
sVvalue
p607
g289
sa(dp608
Vname
p609
Vzx
p610
sVvalue
p611
V1492350406028
p612
sasVheaders
p613
(lp614
sVheadersSize
p615
I627
sVbodySize
p616
I0
sVmethod
p617
VGET
p618
sVhttpVersion
p619
VHTTP/1.1
p620
ssVtimings
p621
(dp622
Vcomment
p623
g4
sVreceive
p624
I0
sVsend
p625
I0
sVssl
p626
I-1
sVconnect
p627
I-1
sVdns
p628
I-1
sVwait
p629
I50
sVblocked
p630
I-1
ssVtime
p631
I50
sVresponse
p632
(dp633
Vstatus
p634
I204
sVcomment
p635
g4
sVcookies
p636
(lp637
sVstatusText
p638
VNo Content
p639
sVcontent
p640
(dp641
VmimeType
p642
Vtext/html; charset=UTF-8
p643
sVcomment
p644
g4
sVsize
p645
I0
ssVheaders
p646
(lp647
sVheadersSize
p648
I248
sVredirectURL
p649
g4
sVbodySize
p650
I0
sVhttpVersion
p651
VHTTP/1.1
p652
ssa(dp653
Vcomment
p654
g4
sVserverIPAddress
p655
V172.217.6.4
p656
sVpageref
p657
VHonda
p658
sVstartedDateTime
p659
V2017-04-16T08:46:46.609-05:00
p660
sVcache
p661
(dp662
sVrequest
p663
(dp664
Vcomment
p665
g4
sVcookies
p666
(lp667
sVurl
p668
Vhttps://www.google.com/xjs/_/js/k=xjs.qs.en_US.pCBXVCvTH3s.O/m=syl,syj,syn,em3,em8,em6,em7,sym,aa,abd,sy2g,sy2k,sy29,sy2j,sy2d,sy2a,sy2c,sy2f,sy2l,sy2m,sy2n,emd,async,sybn,sybi,sybo,sy1f,sy45,sy46,sy9w,sybk,sybj,sybp,sy1g,sy30,sy47,sybm,sybl,sybq,sy1h,sybh,dvl,syep,foot,ipv6,sy32,emj,shm,sy5g,sy5i,sy5k,sykh,tl,sy2x,sy2y,sy2t,sy38,em12,vs,sy5j,sy5h,sy6u,sy66,sy67,sy7d,sy7j,sy4u,sy69,sy89,sy7e,sykk,sykl,tnv,sy23,sy24,sy4g,adinfo,attl,sy8y,add,apmf,bct,sy5o,sy5r,sy2u,sy5u,sy5t,sy33,sy34,sy2w,sy31,sy2z,sy7l,sy4v,sy6z,sy4l,sy37,sy2r,sy35,sy6q,sy7t,sy50,sy71,sy7f,sy7o,syah,syai,syak,syal,alc,sy1r,syaj,flum,sy4d,sy4f,sy4c,sy4e,sy4b,syd7,dgm,sy1y,sy3x,sy22,sy6p,sy3w,sy6i,syav,syaw,syb0,sy2o,sy6j,syb1,syaz,sy25,syao,sy2v,sy36,sy3z,syau,syb2,syb3,syay,syax,sy8x,syag,syb7,emb,em9,ema,sy2i,sy6k,syam,syaq,syat,syb4,syb5,syb6,sybc,sybg,lrl,lcm,mexp,sy48,sy3a,sy3c,sy5b,sy4x,sybd,sybe,sybt,sy2p,sy56,sybf,sybr,sybs,mlm,sy4z,sy4y,sy5d,sy5e,llmr,akpc,sy9m,syac,sy9b,sy9n,syhz,syl6,ssc,gldm,sy6n,flpm,sy5a,syan,syap,flmm,rltl,syi0,cpn,sy7y,sy7u,sy7w,sy87,sy7p,sy81,sy7q,sy7s,sy7z,sy82,sy85,sy83,sy26,sy5n,syas,syb8,syba,sybb,inf,sy5x,qif,rliv,skp,llmu,sy1i,sy40,syhm,sy1j,sy9p,sykf,nqsb,sy6t,nvm,twt,sy6l,sy6h,sy6m,qkx,syf5,sy99,syf4,syfc,syfn,syf7,syff,sy68,sy8d,syf6,syfl,syfr,syfq,syfg,sy4q,sy8h,syc7,syc8,syfb,syfj,syfs,syft,syg3,syg5,syg7,emn,emo,syg4,syg6,ivg,iuci,img,sy6w,shrb,sy41,tcc,sygq,kpc,kpci,sy4h,vrml,sy6y,sycu,d3l,sy5z,atn,sya3,sya2,sy4i,sya1,sya4,ampfp/am=gCP4LtMEBXQA2RUaq_oFBISzAFA/rt=j/d=0/t=zcms/rs=ACT90oFwm4NZCwIcuuiqmthdlECdBzkhRA
p669
sVqueryString
p670
(lp671
sVheaders
p672
(lp673
sVheadersSize
p674
I2067
sVbodySize
p675
I0
sVmethod
p676
VGET
p677
sVhttpVersion
p678
VHTTP/1.1
p679
ssVtimings
p680
(dp681
Vcomment
p682
g4
sVreceive
p683
I104
sVsend
p684
I0
sVssl
p685
I-1
sVconnect
p686
I-1
sVdns
p687
I-1
sVwait
p688
I100
sVblocked
p689
I-1
ssVtime
p690
I204
sVresponse
p691
(dp692
Vstatus
p693
I200
sVcomment
p694
g4
sVcookies
p695
(lp696
sVstatusText
p697
VOK
p698
sVcontent
p699
(dp700
VmimeType
p701
Vtext/javascript; charset=UTF-8
p702
sVcomment
p703
g4
sVsize
p704
I0
ssVheaders
p705
(lp706
sVheadersSize
p707
I452
sVredirectURL
p708
g4
sVbodySize
p709
I203613
sVhttpVersion
p710
VHTTP/1.1
p711
ssa(dp712
Vcomment
p713
g4
sVserverIPAddress
p714
V172.217.6.4
p715
sVpageref
p716
VHonda
p717
sVstartedDateTime
p718
V2017-04-16T08:46:46.973-05:00
p719
sVcache
p720
(dp721
sVrequest
p722
(dp723
Vcomment
p724
g4
sVcookies
p725
(lp726
sVurl
p727
Vhttps://www.google.com/gen_204?atyp=i&ct=phandle&cad=0,det:0&ei=w3XzWOyFPJuvjwTdloXgDg&zx=1492350406972
p728
sVqueryString
p729
(lp730
(dp731
Vname
p732
Vatyp
p733
sVvalue
p734
g30
sa(dp735
Vname
p736
Vct
p737
sVvalue
p738
Vphandle
p739
sa(dp740
Vname
p741
Vcad
p742
sVvalue
p743
V0,det:0
p744
sa(dp745
Vname
p746
Vei
p747
sVvalue
p748
Vw3XzWOyFPJuvjwTdloXgDg
p749
sa(dp750
Vname
p751
Vzx
p752
sVvalue
p753
V1492350406972
p754
sasVheaders
p755
(lp756
sVheadersSize
p757
I620
sVbodySize
p758
I0
sVmethod
p759
VGET
p760
sVhttpVersion
p761
VHTTP/1.1
p762
ssVtimings
p763
(dp764
Vcomment
p765
g4
sVreceive
p766
I0
sVsend
p767
I0
sVssl
p768
I-1
sVconnect
p769
I-1
sVdns
p770
I-1
sVwait
p771
I26
sVblocked
p772
I-1
ssVtime
p773
I26
sVresponse
p774
(dp775
Vstatus
p776
I204
sVcomment
p777
g4
sVcookies
p778
(lp779
sVstatusText
p780
VNo Content
p781
sVcontent
p782
(dp783
VmimeType
p784
Vtext/html; charset=UTF-8
p785
sVcomment
p786
g4
sVsize
p787
I0
ssVheaders
p788
(lp789
sVheadersSize
p790
I248
sVredirectURL
p791
g4
sVbodySize
p792
I0
sVhttpVersion
p793
VHTTP/1.1
p794
ssa(dp795
Vcomment
p796
g4
sVserverIPAddress
p797
V172.217.6.4
p798
sVpageref
p799
VHonda
p800
sVstartedDateTime
p801
V2017-04-16T08:46:47.115-05:00
p802
sVcache
p803
(dp804
sVrequest
p805
(dp806
Vcomment
p807
g4
sVcookies
p808
(lp809
sVurl
p810
Vhttps://www.google.com/generate_204
p811
sVqueryString
p812
(lp813
sVheaders
p814
(lp815
sVheadersSize
p816
I552
sVbodySize
p817
I0
sVmethod
p818
VGET
p819
sVhttpVersion
p820
VHTTP/1.1
p821
ssVtimings
p822
(dp823
Vcomment
p824
g4
sVreceive
p825
I0
sVsend
p826
I0
sVssl
p827
I-1
sVconnect
p828
I-1
sVdns
p829
I-1
sVwait
p830
I13
sVblocked
p831
I-1
ssVtime
p832
I14
sVresponse
p833
(dp834
Vstatus
p835
I204
sVcomment
p836
g4
sVcookies
p837
(lp838
sVstatusText
p839
VNo Content
p840
sVcontent
p841
(dp842
VmimeType
p843
g4
sVcomment
p844
g4
sVsize
p845
I0
ssVheaders
p846
(lp847
sVheadersSize
p848
I133
sVredirectURL
p849
g4
sVbodySize
p850
I0
sVhttpVersion
p851
VHTTP/1.1
p852
ssa(dp853
Vcomment
p854
g4
sVserverIPAddress
p855
V172.217.6.4
p856
sVpageref
p857
VHonda
p858
sVstartedDateTime
p859
V2017-04-16T08:46:47.149-05:00
p860
sVcache
p861
(dp862
sVrequest
p863
(dp864
Vcomment
p865
g4
sVcookies
p866
(lp867
sVurl
p868
Vhttps://www.google.com/async/irc?vet=10ahUKEwis89a9jqnTAhWb14MKHV1LAewQo0EI4gI..i&ved=0ahUKEwis89a9jqnTAhWb14MKHV1LAewQo0EI4gI&ei=w3XzWOyFPJuvjwTdloXgDg&yv=2&async=iu:1,ved:0ahUKEwis89a9jqnTAhWb14MKHV1LAewQo0EI4gI,_id:irc_async,_pms:qs
p869
sVqueryString
p870
(lp871
(dp872
Vname
p873
Vvet
p874
sVvalue
p875
V10ahUKEwis89a9jqnTAhWb14MKHV1LAewQo0EI4gI..i
p876
sa(dp877
Vname
p878
Vved
p879
sVvalue
p880
V0ahUKEwis89a9jqnTAhWb14MKHV1LAewQo0EI4gI
p881
sa(dp882
Vname
p883
Vei
p884
sVvalue
p885
Vw3XzWOyFPJuvjwTdloXgDg
p886
sa(dp887
Vname
p888
Vyv
p889
sVvalue
p890
g64
sa(dp891
Vname
p892
Vasync
p893
sVvalue
p894
Viu:1,ved:0ahUKEwis89a9jqnTAhWb14MKHV1LAewQo0EI4gI,_id:irc_async,_pms:qs
p895
sasVheaders
p896
(lp897
sVheadersSize
p898
I752
sVbodySize
p899
I0
sVmethod
p900
VGET
p901
sVhttpVersion
p902
VHTTP/1.1
p903
ssVtimings
p904
(dp905
Vcomment
p906
g4
sVreceive
p907
I2
sVsend
p908
I0
sVssl
p909
I-1
sVconnect
p910
I-1
sVdns
p911
I-1
sVwait
p912
I39
sVblocked
p913
I-1
ssVtime
p914
I42
sVresponse
p915
(dp916
Vstatus
p917
I200
sVcomment
p918
g4
sVcookies
p919
(lp920
sVstatusText
p921
VOK
p922
sVcontent
p923
(dp924
VmimeType
p925
Vtext/html; charset=UTF-8
p926
sVcomment
p927
g4
sVsize
p928
I0
ssVheaders
p929
(lp930
sVheadersSize
p931
I383
sVredirectURL
p932
g4
sVbodySize
p933
I7792
sVhttpVersion
p934
VHTTP/1.1
p935
ssa(dp936
Vcomment
p937
g4
sVserverIPAddress
p938
V172.217.6.4
p939
sVpageref
p940
VHonda
p941
sVstartedDateTime
p942
V2017-04-16T08:46:47.282-05:00
p943
sVcache
p944
(dp945
sVrequest
p946
(dp947
Vcomment
p948
g4
sVcookies
p949
(lp950
sVurl
p951
Vhttps://www.google.com/async/ampfp?vet=10ahUKEwis89a9jqnTAhWb14MKHV1LAewQtZoBCOAC..i&ei=w3XzWOyFPJuvjwTdloXgDg&yv=2&async=_id:ampfp-async,_pms:qs
p952
sVqueryString
p953
(lp954
(dp955
Vname
p956
Vvet
p957
sVvalue
p958
V10ahUKEwis89a9jqnTAhWb14MKHV1LAewQtZoBCOAC..i
p959
sa(dp960
Vname
p961
Vei
p962
sVvalue
p963
Vw3XzWOyFPJuvjwTdloXgDg
p964
sa(dp965
Vname
p966
Vyv
p967
sVvalue
p968
g64
sa(dp969
Vname
p970
Vasync
p971
sVvalue
p972
V_id:ampfp-async,_pms:qs
p973
sasVheaders
p974
(lp975
sVheadersSize
p976
I662
sVbodySize
p977
I0
sVmethod
p978
VGET
p979
sVhttpVersion
p980
VHTTP/1.1
p981
ssVtimings
p982
(dp983
Vcomment
p984
g4
sVreceive
p985
I2
sVsend
p986
I0
sVssl
p987
I-1
sVconnect
p988
I-1
sVdns
p989
I-1
sVwait
p990
I62
sVblocked
p991
I-1
ssVtime
p992
I65
sVresponse
p993
(dp994
Vstatus
p995
I200
sVcomment
p996
g4
sVcookies
p997
(lp998
sVstatusText
p999
VOK
p1000
sVcontent
p1001
(dp1002
VmimeType
p1003
Vtext/html; charset=UTF-8
p1004
sVcomment
p1005
g4
sVsize
p1006
I0
ssVheaders
p1007
(lp1008
sVheadersSize
p1009
I383
sVredirectURL
p1010
g4
sVbodySize
p1011
I4526
sVhttpVersion
p1012
VHTTP/1.1
p1013
ssa(dp1014
Vcomment
p1015
g4
sVserverIPAddress
p1016
V216.58.216.193
p1017
sVpageref
p1018
VHonda
p1019
sVstartedDateTime
p1020
V2017-04-16T08:46:47.282-05:00
p1021
sVcache
p1022
(dp1023
sVrequest
p1024
(dp1025
Vcomment
p1026
g4
sVcookies
p1027
(lp1028
sVurl
p1029
Vhttps://cdn.ampproject.org/preconnect.gif?0.16625882952700044
p1030
sVqueryString
p1031
(lp1032
(dp1033
Vname
p1034
V0.16625882952700044
p1035
sVvalue
p1036
g4
sasVheaders
p1037
(lp1038
sVheadersSize
p1039
I376
sVbodySize
p1040
I0
sVmethod
p1041
VGET
p1042
sVhttpVersion
p1043
VHTTP/1.1
p1044
ssVtimings
p1045
(dp1046
Vcomment
p1047
g4
sVreceive
p1048
I0
sVsend
p1049
I0
sVssl
p1050
I-1
sVconnect
p1051
I-1
sVdns
p1052
I-1
sVwait
p1053
I45
sVblocked
p1054
I-1
ssVtime
p1055
I45
sVresponse
p1056
(dp1057
Vstatus
p1058
I200
sVcomment
p1059
g4
sVcookies
p1060
(lp1061
sVstatusText
p1062
VOK
p1063
sVcontent
p1064
(dp1065
VmimeType
p1066
Vimage/gif
p1067
sVcomment
p1068
g4
sVsize
p1069
I0
ssVheaders
p1070
(lp1071
sVheadersSize
p1072
I826
sVredirectURL
p1073
g4
sVbodySize
p1074
I37
sVhttpVersion
p1075
VHTTP/1.1
p1076
ssa(dp1077
Vcomment
p1078
g4
sVserverIPAddress
p1079
V172.217.6.4
p1080
sVpageref
p1081
VHonda
p1082
sVstartedDateTime
p1083
V2017-04-16T08:46:47.416-05:00
p1084
sVcache
p1085
(dp1086
sVrequest
p1087
(dp1088
Vcomment
p1089
g4
sVcookies
p1090
(lp1091
sVurl
p1092
Vhttps://www.google.com/gen_204/local?ei=w3XzWOyFPJuvjwTdloXgDg&tm_n=pt&tm=958
p1093
sVqueryString
p1094
(lp1095
(dp1096
Vname
p1097
Vei
p1098
sVvalue
p1099
Vw3XzWOyFPJuvjwTdloXgDg
p1100
sa(dp1101
Vname
p1102
Vtm_n
p1103
sVvalue
p1104
Vpt
p1105
sa(dp1106
Vname
p1107
Vtm
p1108
sVvalue
p1109
V958
p1110
sasVheaders
p1111
(lp1112
sVheadersSize
p1113
I848
sVbodySize
p1114
I0
sVmethod
p1115
VPOST
p1116
sVhttpVersion
p1117
VHTTP/1.1
p1118
ssVtimings
p1119
(dp1120
Vcomment
p1121
g4
sVreceive
p1122
I0
sVsend
p1123
I0
sVssl
p1124
I-1
sVconnect
p1125
I-1
sVdns
p1126
I-1
sVwait
p1127
I37
sVblocked
p1128
I-1
ssVtime
p1129
I37
sVresponse
p1130
(dp1131
Vstatus
p1132
I204
sVcomment
p1133
g4
sVcookies
p1134
(lp1135
sVstatusText
p1136
VNo Content
p1137
sVcontent
p1138
(dp1139
VmimeType
p1140
Vtext/html; charset=UTF-8
p1141
sVcomment
p1142
g4
sVsize
p1143
I0
ssVheaders
p1144
(lp1145
sVheadersSize
p1146
I290
sVredirectURL
p1147
g4
sVbodySize
p1148
I0
sVhttpVersion
p1149
VHTTP/1.1
p1150
ssa(dp1151
Vcomment
p1152
g4
sVserverIPAddress
p1153
V172.217.6.4
p1154
sVpageref
p1155
VHonda
p1156
sVstartedDateTime
p1157
V2017-04-16T08:46:47.443-05:00
p1158
sVcache
p1159
(dp1160
sVrequest
p1161
(dp1162
Vcomment
p1163
g4
sVcookies
p1164
(lp1165
sVurl
p1166
Vhttps://www.google.com/async/lcl_akp?vet=10ahUKEwis89a9jqnTAhWb14MKHV1LAewQ30oIWw..i&ved=0ahUKEwis89a9jqnTAhWb14MKHV1LAewQkW0IXQ&ei=w3XzWOyFPJuvjwTdloXgDg&yv=2&tbs=lf_od:-1,lf_oh:-1,lf_oa:-1,lp:-D!8050!!1!!!0!2|-S!11!0!2|-F!3!0!3,lf_pqs:EAE,lf:1,lf_ui:3&async=id:akp_2804540578870385160,ludocids:2804540578870385160,f:rln,ui:3,_id:p0_uid_3_w3XzWOyFPJuvjwTdloXgDg,_pms:qs
p1167
sVqueryString
p1168
(lp1169
(dp1170
Vname
p1171
Vvet
p1172
sVvalue
p1173
V10ahUKEwis89a9jqnTAhWb14MKHV1LAewQ30oIWw..i
p1174
sa(dp1175
Vname
p1176
Vved
p1177
sVvalue
p1178
V0ahUKEwis89a9jqnTAhWb14MKHV1LAewQkW0IXQ
p1179
sa(dp1180
Vname
p1181
Vei
p1182
sVvalue
p1183
Vw3XzWOyFPJuvjwTdloXgDg
p1184
sa(dp1185
Vname
p1186
Vyv
p1187
sVvalue
p1188
g64
sa(dp1189
Vname
p1190
Vtbs
p1191
sVvalue
p1192
Vlf_od:-1,lf_oh:-1,lf_oa:-1,lp:-D!8050!!1!!!0!2|-S!11!0!2|-F!3!0!3,lf_pqs:EAE,lf:1,lf_ui:3
p1193
sa(dp1194
Vname
p1195
Vasync
p1196
sVvalue
p1197
Vid:akp_2804540578870385160,ludocids:2804540578870385160,f:rln,ui:3,_id:p0_uid_3_w3XzWOyFPJuvjwTdloXgDg,_pms:qs
p1198
sasVheaders
p1199
(lp1200
sVheadersSize
p1201
I887
sVbodySize
p1202
I0
sVmethod
p1203
VGET
p1204
sVhttpVersion
p1205
VHTTP/1.1
p1206
ssVtimings
p1207
(dp1208
Vcomment
p1209
g4
sVreceive
p1210
I41
sVsend
p1211
I0
sVssl
p1212
I-1
sVconnect
p1213
I-1
sVdns
p1214
I-1
sVwait
p1215
I280
sVblocked
p1216
I-1
ssVtime
p1217
I321
sVresponse
p1218
(dp1219
Vstatus
p1220
I200
sVcomment
p1221
g4
sVcookies
p1222
(lp1223
sVstatusText
p1224
VOK
p1225
sVcontent
p1226
(dp1227
VmimeType
p1228
Vtext/html; charset=UTF-8
p1229
sVcomment
p1230
g4
sVsize
p1231
I0
ssVheaders
p1232
(lp1233
sVheadersSize
p1234
I383
sVredirectURL
p1235
g4
sVbodySize
p1236
I40411
sVhttpVersion
p1237
VHTTP/1.1
p1238
ssa(dp1239
Vcomment
p1240
g4
sVserverIPAddress
p1241
V172.217.6.4
p1242
sVpageref
p1243
VHonda
p1244
sVstartedDateTime
p1245
V2017-04-16T08:46:47.454-05:00
p1246
sVcache
p1247
(dp1248
sVrequest
p1249
(dp1250
Vcomment
p1251
g4
sVcookies
p1252
(lp1253
sVurl
p1254
Vhttps://www.google.com/async/lcl_akp?vet=10ahUKEwis89a9jqnTAhWb14MKHV1LAewQ30oIbDAB..i&ved=0ahUKEwis89a9jqnTAhWb14MKHV1LAewQkW0IbjAB&ei=w3XzWOyFPJuvjwTdloXgDg&yv=2&tbs=lf_od:-1,lf_oh:-1,lf_oa:-1,lp:-D!8050!!1!!!0!2|-S!11!0!2|-F!3!0!3,lf_pqs:EAE,lf:1,lf_ui:3&async=id:akp_1845529892022743384,ludocids:1845529892022743384,f:rln,ui:3,_id:p0_uid_5_w3XzWOyFPJuvjwTdloXgDg,_pms:qs
p1255
sVqueryString
p1256
(lp1257
(dp1258
Vname
p1259
Vvet
p1260
sVvalue
p1261
V10ahUKEwis89a9jqnTAhWb14MKHV1LAewQ30oIbDAB..i
p1262
sa(dp1263
Vname
p1264
Vved
p1265
sVvalue
p1266
V0ahUKEwis89a9jqnTAhWb14MKHV1LAewQkW0IbjAB
p1267
sa(dp1268
Vname
p1269
Vei
p1270
sVvalue
p1271
Vw3XzWOyFPJuvjwTdloXgDg
p1272
sa(dp1273
Vname
p1274
Vyv
p1275
sVvalue
p1276
g64
sa(dp1277
Vname
p1278
Vtbs
p1279
sVvalue
p1280
Vlf_od:-1,lf_oh:-1,lf_oa:-1,lp:-D!8050!!1!!!0!2|-S!11!0!2|-F!3!0!3,lf_pqs:EAE,lf:1,lf_ui:3
p1281
sa(dp1282
Vname
p1283
Vasync
p1284
sVvalue
p1285
Vid:akp_1845529892022743384,ludocids:1845529892022743384,f:rln,ui:3,_id:p0_uid_5_w3XzWOyFPJuvjwTdloXgDg,_pms:qs
p1286
sasVheaders
p1287
(lp1288
sVheadersSize
p1289
I891
sVbodySize
p1290
I0
sVmethod
p1291
VGET
p1292
sVhttpVersion
p1293
VHTTP/1.1
p1294
ssVtimings
p1295
(dp1296
Vcomment
p1297
g4
sVreceive
p1298
I15
sVsend
p1299
I0
sVssl
p1300
I-1
sVconnect
p1301
I-1
sVdns
p1302
I-1
sVwait
p1303
I313
sVblocked
p1304
I-1
ssVtime
p1305
I328
sVresponse
p1306
(dp1307
Vstatus
p1308
I200
sVcomment
p1309
g4
sVcookies
p1310
(lp1311
sVstatusText
p1312
VOK
p1313
sVcontent
p1314
(dp1315
VmimeType
p1316
Vtext/html; charset=UTF-8
p1317
sVcomment
p1318
g4
sVsize
p1319
I0
ssVheaders
p1320
(lp1321
sVheadersSize
p1322
I383
sVredirectURL
p1323
g4
sVbodySize
p1324
I41251
sVhttpVersion
p1325
VHTTP/1.1
p1326
ssa(dp1327
Vcomment
p1328
g4
sVserverIPAddress
p1329
V172.217.6.4
p1330
sVpageref
p1331
VHonda
p1332
sVstartedDateTime
p1333
V2017-04-16T08:46:47.492-05:00
p1334
sVcache
p1335
(dp1336
sVrequest
p1337
(dp1338
Vcomment
p1339
g4
sVcookies
p1340
(lp1341
sVurl
p1342
Vhttps://www.google.com/async/lcl_akp?vet=10ahUKEwis89a9jqnTAhWb14MKHV1LAewQ30oIYzAA..i&ved=0ahUKEwis89a9jqnTAhWb14MKHV1LAewQkW0IZTAA&ei=w3XzWOyFPJuvjwTdloXgDg&yv=2&tbs=lf_od:-1,lf_oh:-1,lf_oa:-1,lp:-D!8050!!1!!!0!2|-S!11!0!2|-F!3!0!3,lf_pqs:EAE,lf:1,lf_ui:3&async=id:akp_5887401098059188278,ludocids:5887401098059188278,f:rln,ui:3,_id:p0_uid_4_w3XzWOyFPJuvjwTdloXgDg,_pms:qs
p1343
sVqueryString
p1344
(lp1345
(dp1346
Vname
p1347
Vvet
p1348
sVvalue
p1349
V10ahUKEwis89a9jqnTAhWb14MKHV1LAewQ30oIYzAA..i
p1350
sa(dp1351
Vname
p1352
Vved
p1353
sVvalue
p1354
V0ahUKEwis89a9jqnTAhWb14MKHV1LAewQkW0IZTAA
p1355
sa(dp1356
Vname
p1357
Vei
p1358
sVvalue
p1359
Vw3XzWOyFPJuvjwTdloXgDg
p1360
sa(dp1361
Vname
p1362
Vyv
p1363
sVvalue
p1364
g64
sa(dp1365
Vname
p1366
Vtbs
p1367
sVvalue
p1368
Vlf_od:-1,lf_oh:-1,lf_oa:-1,lp:-D!8050!!1!!!0!2|-S!11!0!2|-F!3!0!3,lf_pqs:EAE,lf:1,lf_ui:3
p1369
sa(dp1370
Vname
p1371
Vasync
p1372
sVvalue
p1373
Vid:akp_5887401098059188278,ludocids:5887401098059188278,f:rln,ui:3,_id:p0_uid_4_w3XzWOyFPJuvjwTdloXgDg,_pms:qs
p1374
sasVheaders
p1375
(lp1376
sVheadersSize
p1377
I891
sVbodySize
p1378
I0
sVmethod
p1379
VGET
p1380
sVhttpVersion
p1381
VHTTP/1.1
p1382
ssVtimings
p1383
(dp1384
Vcomment
p1385
g4
sVreceive
p1386
I41
sVsend
p1387
I0
sVssl
p1388
I21
sVconnect
p1389
I37
sVdns
p1390
I3
sVwait
p1391
I461
sVblocked
p1392
I0
ssVtime
p1393
I544
sVresponse
p1394
(dp1395
Vstatus
p1396
I200
sVcomment
p1397
g4
sVcookies
p1398
(lp1399
sVstatusText
p1400
VOK
p1401
sVcontent
p1402
(dp1403
VmimeType
p1404
Vtext/html; charset=UTF-8
p1405
sVcomment
p1406
g4
sVsize
p1407
I0
ssVheaders
p1408
(lp1409
sVheadersSize
p1410
I383
sVredirectURL
p1411
g4
sVbodySize
p1412
I37740
sVhttpVersion
p1413
VHTTP/1.1
p1414
ssa(dp1415
Vcomment
p1416
g4
sVserverIPAddress
p1417
V172.217.6.4
p1418
sVpageref
p1419
VHonda
p1420
sVstartedDateTime
p1421
V2017-04-16T08:46:47.505-05:00
p1422
sVcache
p1423
(dp1424
sVrequest
p1425
(dp1426
Vcomment
p1427
g4
sVcookies
p1428
(lp1429
sVurl
p1430
Vhttps://www.google.com/async/lcl_akp?vet=10ahUKEwis89a9jqnTAhWb14MKHV1LAewQ30oIdTAC..i&ved=0ahUKEwis89a9jqnTAhWb14MKHV1LAewQkW0IdzAC&ei=w3XzWOyFPJuvjwTdloXgDg&yv=2&tbs=lf_od:-1,lf_oh:-1,lf_oa:-1,lp:-D!8050!!1!!!0!2|-S!11!0!2|-F!3!0!3,lf_pqs:EAE,lf:1,lf_ui:3&async=id:akp_2687013879964147807,ludocids:2687013879964147807,f:rln,ui:3,_id:p0_uid_6_w3XzWOyFPJuvjwTdloXgDg,_pms:qs
p1431
sVqueryString
p1432
(lp1433
(dp1434
Vname
p1435
Vvet
p1436
sVvalue
p1437
V10ahUKEwis89a9jqnTAhWb14MKHV1LAewQ30oIdTAC..i
p1438
sa(dp1439
Vname
p1440
Vved
p1441
sVvalue
p1442
V0ahUKEwis89a9jqnTAhWb14MKHV1LAewQkW0IdzAC
p1443
sa(dp1444
Vname
p1445
Vei
p1446
sVvalue
p1447
Vw3XzWOyFPJuvjwTdloXgDg
p1448
sa(dp1449
Vname
p1450
Vyv
p1451
sVvalue
p1452
g64
sa(dp1453
Vname
p1454
Vtbs
p1455
sVvalue
p1456
Vlf_od:-1,lf_oh:-1,lf_oa:-1,lp:-D!8050!!1!!!0!2|-S!11!0!2|-F!3!0!3,lf_pqs:EAE,lf:1,lf_ui:3
p1457
sa(dp1458
Vname
p1459
Vasync
p1460
sVvalue
p1461
Vid:akp_2687013879964147807,ludocids:2687013879964147807,f:rln,ui:3,_id:p0_uid_6_w3XzWOyFPJuvjwTdloXgDg,_pms:qs
p1462
sasVheaders
p1463
(lp1464
sVheadersSize
p1465
I891
sVbodySize
p1466
I0
sVmethod
p1467
VGET
p1468
sVhttpVersion
p1469
VHTTP/1.1
p1470
ssVtimings
p1471
(dp1472
Vcomment
p1473
g4
sVreceive
p1474
I33
sVsend
p1475
I0
sVssl
p1476
I27
sVconnect
p1477
I45
sVdns
p1478
I0
sVwait
p1479
I332
sVblocked
p1480
I0
ssVtime
p1481
I411
sVresponse
p1482
(dp1483
Vstatus
p1484
I200
sVcomment
p1485
g4
sVcookies
p1486
(lp1487
sVstatusText
p1488
VOK
p1489
sVcontent
p1490
(dp1491
VmimeType
p1492
Vtext/html; charset=UTF-8
p1493
sVcomment
p1494
g4
sVsize
p1495
I0
ssVheaders
p1496
(lp1497
sVheadersSize
p1498
I383
sVredirectURL
p1499
g4
sVbodySize
p1500
I40691
sVhttpVersion
p1501
VHTTP/1.1
p1502
ssa(dp1503
Vcomment
p1504
g4
sVserverIPAddress
p1505
V172.217.6.4
p1506
sVpageref
p1507
VHonda
p1508
sVstartedDateTime
p1509
V2017-04-16T08:46:47.547-05:00
p1510
sVcache
p1511
(dp1512
sVrequest
p1513
(dp1514
Vcomment
p1515
g4
sVcookies
p1516
(lp1517
sVurl
p1518
Vhttps://www.google.com/gen_204/local?ei=w3XzWOyFPJuvjwTdloXgDg&tm_n=lrl_init&tm=5
p1519
sVqueryString
p1520
(lp1521
(dp1522
Vname
p1523
Vei
p1524
sVvalue
p1525
Vw3XzWOyFPJuvjwTdloXgDg
p1526
sa(dp1527
Vname
p1528
Vtm_n
p1529
sVvalue
p1530
Vlrl_init
p1531
sa(dp1532
Vname
p1533
Vtm
p1534
sVvalue
p1535
V5
p1536
sasVheaders
p1537
(lp1538
sVheadersSize
p1539
I852
sVbodySize
p1540
I0
sVmethod
p1541
VPOST
p1542
sVhttpVersion
p1543
VHTTP/1.1
p1544
ssVtimings
p1545
(dp1546
Vcomment
p1547
g4
sVreceive
p1548
I0
sVsend
p1549
I0
sVssl
p1550
I45
sVconnect
p1551
I65
sVdns
p1552
I0
sVwait
p1553
I45
sVblocked
p1554
I0
ssVtime
p1555
I111
sVresponse
p1556
(dp1557
Vstatus
p1558
I204
sVcomment
p1559
g4
sVcookies
p1560
(lp1561
sVstatusText
p1562
VNo Content
p1563
sVcontent
p1564
(dp1565
VmimeType
p1566
Vtext/html; charset=UTF-8
p1567
sVcomment
p1568
g4
sVsize
p1569
I0
ssVheaders
p1570
(lp1571
sVheadersSize
p1572
I290
sVredirectURL
p1573
g4
sVbodySize
p1574
I0
sVhttpVersion
p1575
VHTTP/1.1
p1576
ssa(dp1577
Vcomment
p1578
g4
sVserverIPAddress
p1579
V172.217.6.4
p1580
sVpageref
p1581
VHonda
p1582
sVstartedDateTime
p1583
V2017-04-16T08:46:47.565-05:00
p1584
sVcache
p1585
(dp1586
sVrequest
p1587
(dp1588
Vcomment
p1589
g4
sVcookies
p1590
(lp1591
sVurl
p1592
Vhttps://www.google.com/async/log_amp_item_set?vet=10ahUKEwjEieO-jqnTAhUE34MKHb3kAusQooQBCAE..i&ei=w3XzWOyFPJuvjwTdloXgDg&yv=2&async=num_items:2,_fmt:jspb
p1593
sVqueryString
p1594
(lp1595
(dp1596
Vname
p1597
Vvet
p1598
sVvalue
p1599
V10ahUKEwjEieO-jqnTAhUE34MKHb3kAusQooQBCAE..i
p1600
sa(dp1601
Vname
p1602
Vei
p1603
sVvalue
p1604
Vw3XzWOyFPJuvjwTdloXgDg
p1605
sa(dp1606
Vname
p1607
Vyv
p1608
sVvalue
p1609
g64
sa(dp1610
Vname
p1611
Vasync
p1612
sVvalue
p1613
Vnum_items:2,_fmt:jspb
p1614
sasVheaders
p1615
(lp1616
sVheadersSize
p1617
I670
sVbodySize
p1618
I0
sVmethod
p1619
VGET
p1620
sVhttpVersion
p1621
VHTTP/1.1
p1622
ssVtimings
p1623
(dp1624
Vcomment
p1625
g4
sVreceive
p1626
I0
sVsend
p1627
I0
sVssl
p1628
I23
sVconnect
p1629
I55
sVdns
p1630
I0
sVwait
p1631
I40
sVblocked
p1632
I0
ssVtime
p1633
I95
sVresponse
p1634
(dp1635
Vstatus
p1636
I200
sVcomment
p1637
g4
sVcookies
p1638
(lp1639
sVstatusText
p1640
VOK
p1641
sVcontent
p1642
(dp1643
VmimeType
p1644
Vapplication/json; charset=UTF-8
p1645
sVcomment
p1646
g4
sVsize
p1647
I0
ssVheaders
p1648
(lp1649
sVheadersSize
p1650
I417
sVredirectURL
p1651
g4
sVbodySize
p1652
I139
sVhttpVersion
p1653
VHTTP/1.1
p1654
ssa(dp1655
Vcomment
p1656
g4
sVserverIPAddress
p1657
V216.58.216.193
p1658
sVpageref
p1659
VHonda
p1660
sVstartedDateTime
p1661
V2017-04-16T08:46:47.996-05:00
p1662
sVcache
p1663
(dp1664
sVrequest
p1665
(dp1666
Vcomment
p1667
g4
sVcookies
p1668
(lp1669
sVurl
p1670
Vhttps://www-motorsport-com.cdn.ampproject.org/v/s/www.motorsport.com/f1/news/honda-puzzled-by-recurring-mgu-h-problems-in-bahrain-894427/amp/?amp_js_v=9
p1671
sVqueryString
p1672
(lp1673
(dp1674
Vname
p1675
Vamp_js_v
p1676
sVvalue
p1677
V9
p1678
sasVheaders
p1679
(lp1680
sVheadersSize
p1681
I557
sVbodySize
p1682
I0
sVmethod
p1683
VGET
p1684
sVhttpVersion
p1685
VHTTP/1.1
p1686
ssVtimings
p1687
(dp1688
Vcomment
p1689
g4
sVreceive
p1690
I1
sVsend
p1691
I0
sVssl
p1692
I417
sVconnect
p1693
I438
sVdns
p1694
I39
sVwait
p1695
I75
sVblocked
p1696
I0
ssVtime
p1697
I555
sVresponse
p1698
(dp1699
Vstatus
p1700
I200
sVcomment
p1701
g4
sVcookies
p1702
(lp1703
sVstatusText
p1704
VOK
p1705
sVcontent
p1706
(dp1707
VmimeType
p1708
Vtext/html
p1709
sVcomment
p1710
g4
sVsize
p1711
I0
ssVheaders
p1712
(lp1713
sVheadersSize
p1714
I859
sVredirectURL
p1715
g4
sVbodySize
p1716
I7522
sVhttpVersion
p1717
VHTTP/1.1
p1718
ssa(dp1719
Vcomment
p1720
g4
sVserverIPAddress
p1721
V172.217.6.4
p1722
sVpageref
p1723
VHonda
p1724
sVstartedDateTime
p1725
V2017-04-16T08:46:48.019-05:00
p1726
sVcache
p1727
(dp1728
sVrequest
p1729
(dp1730
Vcomment
p1731
g4
sVcookies
p1732
(lp1733
sVurl
p1734
Vhttps://www.google.com/maps/vt/data=RfCSdfNZ0LFPrHSm0ublXdzhdrDFhtmHhN1u-gM,GvJ3yH6VkHx2boqe1qvDyYAfHw43g3QhR8ZudT5x11N9eQrGCVa9qU7R6940kAUHnXMZ1_sACnXE9US3Xcn0nybomhOPQwFtS3NQJcvbn0AtExLB7Tb7rgSRBQR0E64WrOM9R2eI0gfBgAivI5b1duCggaWQCW9JODP1ve1qgy6dmO6fS-aD6SmPh4O7957gsbfYtkn4wv1s4ypFj2PGcc37NTJA5klcIQZbuY9YBVaVo2gh5032bw7wYOkn8RVuUEOb-_gIQzHEO712ZwDpctd2NsZFtZGPCT08Cf_2-VHuAcLVeR8bxH2QAPn4cyEsI8G0_xnF4pLH5LY7OFJiqjuf9pDwDw0W7ovFzdusi9MFhyWGMi_WYZMM0LeD1fQTntFfiHgzgITaZ7OnJ53kMv9lyuAeRJYYtvDscgmZhzy3VXaT9U-SN06oIRgnHzOAW0fNN2V3ttx0fOoaxwctx77GeM9cLbIYcc3qQDy7Qci49cFZDWteyg?h=120&w=1024&scale=2
p1735
sVqueryString
p1736
(lp1737
(dp1738
Vname
p1739
Vh
p1740
sVvalue
p1741
V120
p1742
sa(dp1743
Vname
p1744
Vw
p1745
sVvalue
p1746
V1024
p1747
sa(dp1748
Vname
p1749
Vscale
p1750
sVvalue
p1751
g64
sasVheaders
p1752
(lp1753
sVheadersSize
p1754
I1116
sVbodySize
p1755
I0
sVmethod
p1756
VGET
p1757
sVhttpVersion
p1758
VHTTP/1.1
p1759
ssVtimings
p1760
(dp1761
Vcomment
p1762
g4
sVreceive
p1763
I27
sVsend
p1764
I0
sVssl
p1765
I-1
sVconnect
p1766
I-1
sVdns
p1767
I-1
sVwait
p1768
I100
sVblocked
p1769
I-1
ssVtime
p1770
I129
sVresponse
p1771
(dp1772
Vstatus
p1773
I200
sVcomment
p1774
g4
sVcookies
p1775
(lp1776
sVstatusText
p1777
VOK
p1778
sVcontent
p1779
(dp1780
VmimeType
p1781
Vimage/png
p1782
sVcomment
p1783
g4
sVsize
p1784
I0
ssVheaders
p1785
(lp1786
sVheadersSize
p1787
I479
sVredirectURL
p1788
g4
sVbodySize
p1789
I59838
sVhttpVersion
p1790
VHTTP/1.1
p1791
ssa(dp1792
Vcomment
p1793
g4
sVserverIPAddress
p1794
V172.217.6.4
p1795
sVpageref
p1796
VHonda
p1797
sVstartedDateTime
p1798
V2017-04-16T08:46:48.021-05:00
p1799
sVcache
p1800
(dp1801
sVrequest
p1802
(dp1803
Vcomment
p1804
g4
sVcookies
p1805
(lp1806
sVurl
p1807
Vhttps://www.google.com/maps/vt/data=fyhx5vRTk6iZCJTK-4FW6WKsGg,IAMJ88oNbLzyOJWdHrIiQNv8I-JTTgCTF-rw1mCGij6JHCJWKz7M5fwviNgdmkltCm2LtdP5JI2_vkE6FCw2LmwilPDb46BqIR4yGE_qL7GmhAA_Gs8Wzf86_0RooTZVzXamgi4dK_if9bBbSrtL-4iQfhWVYIVvf7p0SaoqdnUv__9GaeX4WF1CUFTEi3cEwz55fLUBsGvEAcNT1M38lAYMkEtKznCb8PdM_qyAb-s1CkNNpUovAITKKGgT7WnIUMsJkuzXvCqxuL1dwUw3YkKZCNlggURxlX8aIbOWSWSTq5iM8yTQXAC_k140COW4KvHXOGOURMDcEoe8aIvnN7okyhMjGOw?h=120&w=1024&scale=2
p1808
sVqueryString
p1809
(lp1810
(dp1811
Vname
p1812
g1740
sVvalue
p1813
V120
p1814
sa(dp1815
Vname
p1816
g1745
sVvalue
p1817
V1024
p1818
sa(dp1819
Vname
p1820
Vscale
p1821
sVvalue
p1822
g64
sasVheaders
p1823
(lp1824
sVheadersSize
p1825
I952
sVbodySize
p1826
I0
sVmethod
p1827
VGET
p1828
sVhttpVersion
p1829
VHTTP/1.1
p1830
ssVtimings
p1831
(dp1832
Vcomment
p1833
g4
sVreceive
p1834
I0
sVsend
p1835
I0
sVssl
p1836
I-1
sVconnect
p1837
I-1
sVdns
p1838
I-1
sVwait
p1839
I55
sVblocked
p1840
I-1
ssVtime
p1841
I55
sVresponse
p1842
(dp1843
Vstatus
p1844
I200
sVcomment
p1845
g4
sVcookies
p1846
(lp1847
sVstatusText
p1848
VOK
p1849
sVcontent
p1850
(dp1851
VmimeType
p1852
Vimage/png
p1853
sVcomment
p1854
g4
sVsize
p1855
I0
ssVheaders
p1856
(lp1857
sVheadersSize
p1858
I458
sVredirectURL
p1859
g4
sVbodySize
p1860
I1742
sVhttpVersion
p1861
VHTTP/1.1
p1862
ssa(dp1863
Vcomment
p1864
g4
sVserverIPAddress
p1865
V172.217.6.4
p1866
sVpageref
p1867
VHonda
p1868
sVstartedDateTime
p1869
V2017-04-16T08:46:48.025-05:00
p1870
sVcache
p1871
(dp1872
sVrequest
p1873
(dp1874
Vcomment
p1875
g4
sVcookies
p1876
(lp1877
sVurl
p1878
Vhttps://www.google.com/xjs/_/js/k=xjs.qs.en_US.pCBXVCvTH3s.O/m=sy80,sy7m,sy8l,sy84,sy7r,sy7v,sy8q,sy7x,sy86,sy8k,sy8t,sy7g,sy72,sy9u,sy7n,sy3b,sycx,syew,syi6,syi9,syi7,syi8,syia,hcar,sy6a,sy6b,kch,sy6d,ltgt,syim,lubh,lurq,lusa,mmt,mpc,pv,sya0,syig,syif,syih,sttu,uvl/am=gCP4LtMEBXQA2RUaq_oFBISzAFA/rt=j/d=0/t=zcms/rs=ACT90oFwm4NZCwIcuuiqmthdlECdBzkhRA
p1879
sVqueryString
p1880
(lp1881
sVheaders
p1882
(lp1883
sVheadersSize
p1884
I868
sVbodySize
p1885
I0
sVmethod
p1886
VGET
p1887
sVhttpVersion
p1888
VHTTP/1.1
p1889
ssVtimings
p1890
(dp1891
Vcomment
p1892
g4
sVreceive
p1893
I16
sVsend
p1894
I0
sVssl
p1895
I-1
sVconnect
p1896
I-1
sVdns
p1897
I-1
sVwait
p1898
I15
sVblocked
p1899
I-1
ssVtime
p1900
I31
sVresponse
p1901
(dp1902
Vstatus
p1903
I200
sVcomment
p1904
g4
sVcookies
p1905
(lp1906
sVstatusText
p1907
VOK
p1908
sVcontent
p1909
(dp1910
VmimeType
p1911
Vtext/javascript; charset=UTF-8
p1912
sVcomment
p1913
g4
sVsize
p1914
I0
ssVheaders
p1915
(lp1916
sVheadersSize
p1917
I464
sVredirectURL
p1918
g4
sVbodySize
p1919
I34716
sVhttpVersion
p1920
VHTTP/1.1
p1921
ssa(dp1922
Vcomment
p1923
g4
sVserverIPAddress
p1924
V172.217.6.4
p1925
sVpageref
p1926
VHonda
p1927
sVstartedDateTime
p1928
V2017-04-16T08:46:48.191-05:00
p1929
sVcache
p1930
(dp1931
sVrequest
p1932
(dp1933
Vcomment
p1934
g4
sVcookies
p1935
(lp1936
sVurl
p1937
Vhttps://www.google.com/gen_204/local?ei=w3XzWOyFPJuvjwTdloXgDg&tm_n=lcsm-ns&tm=175
p1938
sVqueryString
p1939
(lp1940
(dp1941
Vname
p1942
Vei
p1943
sVvalue
p1944
Vw3XzWOyFPJuvjwTdloXgDg
p1945
sa(dp1946
Vname
p1947
Vtm_n
p1948
sVvalue
p1949
Vlcsm-ns
p1950
sa(dp1951
Vname
p1952
Vtm
p1953
sVvalue
p1954
V175
p1955
sasVheaders
p1956
(lp1957
sVheadersSize
p1958
I853
sVbodySize
p1959
I0
sVmethod
p1960
VPOST
p1961
sVhttpVersion
p1962
VHTTP/1.1
p1963
ssVtimings
p1964
(dp1965
Vcomment
p1966
g4
sVreceive
p1967
I3
sVsend
p1968
I0
sVssl
p1969
I-1
sVconnect
p1970
I-1
sVdns
p1971
I-1
sVwait
p1972
I38
sVblocked
p1973
I-1
ssVtime
p1974
I41
sVresponse
p1975
(dp1976
Vstatus
p1977
I204
sVcomment
p1978
g4
sVcookies
p1979
(lp1980
sVstatusText
p1981
VNo Content
p1982
sVcontent
p1983
(dp1984
VmimeType
p1985
Vtext/html; charset=UTF-8
p1986
sVcomment
p1987
g4
sVsize
p1988
I0
ssVheaders
p1989
(lp1990
sVheadersSize
p1991
I290
sVredirectURL
p1992
g4
sVbodySize
p1993
I0
sVhttpVersion
p1994
VHTTP/1.1
p1995
ssa(dp1996
Vcomment
p1997
g4
sVserverIPAddress
p1998
V172.217.6.4
p1999
sVpageref
p2000
VHonda
p2001
sVstartedDateTime
p2002
V2017-04-16T08:46:48.480-05:00
p2003
sVcache
p2004
(dp2005
sVrequest
p2006
(dp2007
Vcomment
p2008
g4
sVcookies
p2009
(lp2010
sVurl
p2011
Vhttps://www.google.com/gen_204?s=amp&atyp=csi&ei=w3XzWOyFPJuvjwTdloXgDg&ampexp=011492014732688&action=Prerender&rt=msr.213,is.728,mbv.862,e_is.862
p2012
sVqueryString
p2013
(lp2014
(dp2015
Vname
p2016
g57
sVvalue
p2017
Vamp
p2018
sa(dp2019
Vname
p2020
Vatyp
p2021
sVvalue
p2022
Vcsi
p2023
sa(dp2024
Vname
p2025
Vei
p2026
sVvalue
p2027
Vw3XzWOyFPJuvjwTdloXgDg
p2028
sa(dp2029
Vname
p2030
Vampexp
p2031
sVvalue
p2032
V011492014732688
p2033
sa(dp2034
Vname
p2035
Vaction
p2036
sVvalue
p2037
VPrerender
p2038
sa(dp2039
Vname
p2040
Vrt
p2041
sVvalue
p2042
Vmsr.213,is.728,mbv.862,e_is.862
p2043
sasVheaders
p2044
(lp2045
sVheadersSize
p2046
I663
sVbodySize
p2047
I0
sVmethod
p2048
VGET
p2049
sVhttpVersion
p2050
VHTTP/1.1
p2051
ssVtimings
p2052
(dp2053
Vcomment
p2054
g4
sVreceive
p2055
I0
sVsend
p2056
I0
sVssl
p2057
I-1
sVconnect
p2058
I-1
sVdns
p2059
I-1
sVwait
p2060
I34
sVblocked
p2061
I-1
ssVtime
p2062
I34
sVresponse
p2063
(dp2064
Vstatus
p2065
I204
sVcomment
p2066
g4
sVcookies
p2067
(lp2068
sVstatusText
p2069
VNo Content
p2070
sVcontent
p2071
(dp2072
VmimeType
p2073
Vtext/html; charset=UTF-8
p2074
sVcomment
p2075
g4
sVsize
p2076
I0
ssVheaders
p2077
(lp2078
sVheadersSize
p2079
I248
sVredirectURL
p2080
g4
sVbodySize
p2081
I0
sVhttpVersion
p2082
VHTTP/1.1
p2083
ssa(dp2084
Vcomment
p2085
g4
sVserverIPAddress
p2086
V216.58.216.193
p2087
sVpageref
p2088
VHonda
p2089
sVstartedDateTime
p2090
V2017-04-16T08:46:48.657-05:00
p2091
sVcache
p2092
(dp2093
sVrequest
p2094
(dp2095
Vcomment
p2096
g4
sVcookies
p2097
(lp2098
sVurl
p2099
Vhttps://cdn--6-motorsport-com.cdn.ampproject.org/i/s/cdn-6.motorsport.com/images/amp/01JBla52/s6/f1-bahrain-gp-2017-mclaren-mcl32-rear-detail.jpg
p2100
sVqueryString
p2101
(lp2102
sVheaders
p2103
(lp2104
sVheadersSize
p2105
I589
sVbodySize
p2106
I0
sVmethod
p2107
VGET
p2108
sVhttpVersion
p2109
VHTTP/1.1
p2110
ssVtimings
p2111
(dp2112
Vcomment
p2113
g4
sVreceive
p2114
I60
sVsend
p2115
I0
sVssl
p2116
I259
sVconnect
p2117
I275
sVdns
p2118
I29
sVwait
p2119
I30
sVblocked
p2120
I0
ssVtime
p2121
I395
sVresponse
p2122
(dp2123
Vstatus
p2124
I200
sVcomment
p2125
g4
sVcookies
p2126
(lp2127
sVstatusText
p2128
VOK
p2129
sVcontent
p2130
(dp2131
VmimeType
p2132
Vimage/jpeg
p2133
sVcomment
p2134
g4
sVsize
p2135
I0
ssVheaders
p2136
(lp2137
sVheadersSize
p2138
I850
sVredirectURL
p2139
g4
sVbodySize
p2140
I79331
sVhttpVersion
p2141
VHTTP/1.1
p2142
ssa(dp2143
Vcomment
p2144
g4
sVserverIPAddress
p2145
V172.217.6.4
p2146
sVpageref
p2147
VHonda
p2148
sVstartedDateTime
p2149
V2017-04-16T08:46:48.752-05:00
p2150
sVcache
p2151
(dp2152
sVrequest
p2153
(dp2154
Vcomment
p2155
g4
sVcookies
p2156
(lp2157
sVurl
p2158
Vhttps://www.google.com/gen_204?s=amp&atyp=csi&ei=w3XzWOyFPJuvjwTdloXgDg&ampexp=011492014732688&action=Prerender&rt=pc.1
p2159
sVqueryString
p2160
(lp2161
(dp2162
Vname
p2163
g57
sVvalue
p2164
Vamp
p2165
sa(dp2166
Vname
p2167
Vatyp
p2168
sVvalue
p2169
Vcsi
p2170
sa(dp2171
Vname
p2172
Vei
p2173
sVvalue
p2174
Vw3XzWOyFPJuvjwTdloXgDg
p2175
sa(dp2176
Vname
p2177
Vampexp
p2178
sVvalue
p2179
V011492014732688
p2180
sa(dp2181
Vname
p2182
Vaction
p2183
sVvalue
p2184
VPrerender
p2185
sa(dp2186
Vname
p2187
Vrt
p2188
sVvalue
p2189
Vpc.1
p2190
sasVheaders
p2191
(lp2192
sVheadersSize
p2193
I636
sVbodySize
p2194
I0
sVmethod
p2195
VGET
p2196
sVhttpVersion
p2197
VHTTP/1.1
p2198
ssVtimings
p2199
(dp2200
Vcomment
p2201
g4
sVreceive
p2202
I0
sVsend
p2203
I0
sVssl
p2204
I-1
sVconnect
p2205
I-1
sVdns
p2206
I-1
sVwait
p2207
I32
sVblocked
p2208
I-1
ssVtime
p2209
I32
sVresponse
p2210
(dp2211
Vstatus
p2212
I204
sVcomment
p2213
g4
sVcookies
p2214
(lp2215
sVstatusText
p2216
VNo Content
p2217
sVcontent
p2218
(dp2219
VmimeType
p2220
Vtext/html; charset=UTF-8
p2221
sVcomment
p2222
g4
sVsize
p2223
I0
ssVheaders
p2224
(lp2225
sVheadersSize
p2226
I248
sVredirectURL
p2227
g4
sVbodySize
p2228
I0
sVhttpVersion
p2229
VHTTP/1.1
p2230
ssa(dp2231
Vcomment
p2232
g4
sVserverIPAddress
p2233
V216.58.216.193
p2234
sVpageref
p2235
VHonda
p2236
sVstartedDateTime
p2237
V2017-04-16T08:46:49.088-05:00
p2238
sVcache
p2239
(dp2240
sVrequest
p2241
(dp2242
Vcomment
p2243
g4
sVcookies
p2244
(lp2245
sVurl
p2246
Vhttps://fonts-gstatic-com.cdn.ampproject.org/r/s/fonts.gstatic.com/s/opensans/v13/cJZKeOuBrn4kERxqtaUH3VtXRa8TVwTICgirnJhmVJw.woff2
p2247
sVqueryString
p2248
(lp2249
sVheaders
p2250
(lp2251
sVheadersSize
p2252
I684
sVbodySize
p2253
I0
sVmethod
p2254
VGET
p2255
sVhttpVersion
p2256
VHTTP/1.1
p2257
ssVtimings
p2258
(dp2259
Vcomment
p2260
g4
sVreceive
p2261
I18
sVsend
p2262
I0
sVssl
p2263
I899
sVconnect
p2264
I928
sVdns
p2265
I40
sVwait
p2266
I27
sVblocked
p2267
I0
ssVtime
p2268
I1014
sVresponse
p2269
(dp2270
Vstatus
p2271
I200
sVcomment
p2272
g4
sVcookies
p2273
(lp2274
sVstatusText
p2275
VOK
p2276
sVcontent
p2277
(dp2278
VmimeType
p2279
Vfont/woff2
p2280
sVcomment
p2281
g4
sVsize
p2282
I0
ssVheaders
p2283
(lp2284
sVheadersSize
p2285
I858
sVredirectURL
p2286
g4
sVbodySize
p2287
I15572
sVhttpVersion
p2288
VHTTP/1.1
p2289
ssa(dp2290
Vcomment
p2291
g4
sVserverIPAddress
p2292
V216.58.216.193
p2293
sVpageref
p2294
VHonda
p2295
sVstartedDateTime
p2296
V2017-04-16T08:46:49.089-05:00
p2297
sVcache
p2298
(dp2299
sVrequest
p2300
(dp2301
Vcomment
p2302
g4
sVcookies
p2303
(lp2304
sVurl
p2305
Vhttps://fonts-gstatic-com.cdn.ampproject.org/r/s/fonts.gstatic.com/s/opensans/v13/MTP_ySUJH_bn48VBG8sNSugdm0LZdjqr5-oayXSOefg.woff2
p2306
sVqueryString
p2307
(lp2308
sVheaders
p2309
(lp2310
sVheadersSize
p2311
I684
sVbodySize
p2312
I0
sVmethod
p2313
VGET
p2314
sVhttpVersion
p2315
VHTTP/1.1
p2316
ssVtimings
p2317
(dp2318
Vcomment
p2319
g4
sVreceive
p2320
I21
sVsend
p2321
I0
sVssl
p2322
I900
sVconnect
p2323
I929
sVdns
p2324
I40
sVwait
p2325
I30
sVblocked
p2326
I0
ssVtime
p2327
I1021
sVresponse
p2328
(dp2329
Vstatus
p2330
I200
sVcomment
p2331
g4
sVcookies
p2332
(lp2333
sVstatusText
p2334
VOK
p2335
sVcontent
p2336
(dp2337
VmimeType
p2338
Vfont/woff2
p2339
sVcomment
p2340
g4
sVsize
p2341
I0
ssVheaders
p2342
(lp2343
sVheadersSize
p2344
I858
sVredirectURL
p2345
g4
sVbodySize
p2346
I16164
sVhttpVersion
p2347
VHTTP/1.1
p2348
ssa(dp2349
Vcomment
p2350
g4
sVserverIPAddress
p2351
V172.217.6.4
p2352
sVpageref
p2353
VHonda
p2354
sVstartedDateTime
p2355
V2017-04-16T08:46:49.189-05:00
p2356
sVcache
p2357
(dp2358
sVrequest
p2359
(dp2360
Vcomment
p2361
g4
sVcookies
p2362
(lp2363
sVurl
p2364
Vhttps://www.google.com/gen_204?s=web&atyp=csi&ei=w3XzWOyFPJuvjwTdloXgDg&imc=43&imn=43&imp=12&adh=tv.500,t.500&xjs=init.46.14.sb_mob.30.dvl.6.mbsf.3.jsa.2.TG8rFw.1&ima=3&rt=prt.1058,iml.1181,xjsls.1058,qiml.1286,dcl.1178,xjses.1255,xjsee.1471,xjs.1472,ol.4040,aft.1058,wsrt.164,cst.0,dnst.0,rqst.1172,rspt.1026,rqstt.5,unt.4,cstt.4,dit.1246
p2365
sVqueryString
p2366
(lp2367
(dp2368
Vname
p2369
g57
sVvalue
p2370
Vweb
p2371
sa(dp2372
Vname
p2373
Vatyp
p2374
sVvalue
p2375
Vcsi
p2376
sa(dp2377
Vname
p2378
Vei
p2379
sVvalue
p2380
Vw3XzWOyFPJuvjwTdloXgDg
p2381
sa(dp2382
Vname
p2383
Vimc
p2384
sVvalue
p2385
V43
p2386
sa(dp2387
Vname
p2388
Vimn
p2389
sVvalue
p2390
V43
p2391
sa(dp2392
Vname
p2393
Vimp
p2394
sVvalue
p2395
V12
p2396
sa(dp2397
Vname
p2398
Vadh
p2399
sVvalue
p2400
Vtv.500,t.500
p2401
sa(dp2402
Vname
p2403
Vxjs
p2404
sVvalue
p2405
Vinit.46.14.sb_mob.30.dvl.6.mbsf.3.jsa.2.TG8rFw.1
p2406
sa(dp2407
Vname
p2408
Vima
p2409
sVvalue
p2410
V3
p2411
sa(dp2412
Vname
p2413
Vrt
p2414
sVvalue
p2415
Vprt.1058,iml.1181,xjsls.1058,qiml.1286,dcl.1178,xjses.1255,xjsee.1471,xjs.1472,ol.4040,aft.1058,wsrt.164,cst.0,dnst.0,rqst.1172,rspt.1026,rqstt.5,unt.4,cstt.4,dit.1246
p2416
sasVheaders
p2417
(lp2418
sVheadersSize
p2419
I856
sVbodySize
p2420
I0
sVmethod
p2421
VGET
p2422
sVhttpVersion
p2423
VHTTP/1.1
p2424
ssVtimings
p2425
(dp2426
Vcomment
p2427
g4
sVreceive
p2428
I0
sVsend
p2429
I0
sVssl
p2430
I-1
sVconnect
p2431
I-1
sVdns
p2432
I-1
sVwait
p2433
I30
sVblocked
p2434
I-1
ssVtime
p2435
I30
sVresponse
p2436
(dp2437
Vstatus
p2438
I204
sVcomment
p2439
g4
sVcookies
p2440
(lp2441
sVstatusText
p2442
VNo Content
p2443
sVcontent
p2444
(dp2445
VmimeType
p2446
Vtext/html; charset=UTF-8
p2447
sVcomment
p2448
g4
sVsize
p2449
I0
ssVheaders
p2450
(lp2451
sVheadersSize
p2452
I248
sVredirectURL
p2453
g4
sVbodySize
p2454
I0
sVhttpVersion
p2455
VHTTP/1.1
p2456
ssa(dp2457
Vcomment
p2458
g4
sVserverIPAddress
p2459
V172.217.6.4
p2460
sVpageref
p2461
VHonda
p2462
sVstartedDateTime
p2463
V2017-04-16T08:46:49.207-05:00
p2464
sVcache
p2465
(dp2466
sVrequest
p2467
(dp2468
Vcomment
p2469
g4
sVcookies
p2470
(lp2471
sVurl
p2472
Vhttps://www.google.com/gen_204?s=amp&atyp=csi&ei=w3XzWOyFPJuvjwTdloXgDg&ampexp=011492014732688&action=Prerender&rt=ol.1676
p2473
sVqueryString
p2474
(lp2475
(dp2476
Vname
p2477
g57
sVvalue
p2478
Vamp
p2479
sa(dp2480
Vname
p2481
Vatyp
p2482
sVvalue
p2483
Vcsi
p2484
sa(dp2485
Vname
p2486
Vei
p2487
sVvalue
p2488
Vw3XzWOyFPJuvjwTdloXgDg
p2489
sa(dp2490
Vname
p2491
Vampexp
p2492
sVvalue
p2493
V011492014732688
p2494
sa(dp2495
Vname
p2496
Vaction
p2497
sVvalue
p2498
VPrerender
p2499
sa(dp2500
Vname
p2501
Vrt
p2502
sVvalue
p2503
Vol.1676
p2504
sasVheaders
p2505
(lp2506
sVheadersSize
p2507
I639
sVbodySize
p2508
I0
sVmethod
p2509
VGET
p2510
sVhttpVersion
p2511
VHTTP/1.1
p2512
ssVtimings
p2513
(dp2514
Vcomment
p2515
g4
sVreceive
p2516
I0
sVsend
p2517
I0
sVssl
p2518
I-1
sVconnect
p2519
I-1
sVdns
p2520
I-1
sVwait
p2521
I31
sVblocked
p2522
I-1
ssVtime
p2523
I32
sVresponse
p2524
(dp2525
Vstatus
p2526
I204
sVcomment
p2527
g4
sVcookies
p2528
(lp2529
sVstatusText
p2530
VNo Content
p2531
sVcontent
p2532
(dp2533
VmimeType
p2534
Vtext/html; charset=UTF-8
p2535
sVcomment
p2536
g4
sVsize
p2537
I0
ssVheaders
p2538
(lp2539
sVheadersSize
p2540
I248
sVredirectURL
p2541
g4
sVbodySize
p2542
I0
sVhttpVersion
p2543
VHTTP/1.1
p2544
ssa(dp2545
Vcomment
p2546
g4
sVserverIPAddress
p2547
V172.217.6.4
p2548
sVpageref
p2549
VHonda
p2550
sVstartedDateTime
p2551
V2017-04-16T08:46:49.255-05:00
p2552
sVcache
p2553
(dp2554
sVrequest
p2555
(dp2556
Vcomment
p2557
g4
sVcookies
p2558
(lp2559
sVurl
p2560
Vhttps://www.google.com/gen_204?atyp=i&ct=slh&cad=&ei=t3XzWIjQDYnojwT77KP4AQ&m=V&t=C&s=1&v=2&pv=0.33646945770094727&me=1:1492350397614,x:2,V,0,0,1280,944:0,N,1,t3XzWIjQDYnojwT77KP4AQ:0,R,1,24,8,155,1249,43:0,R,1,41,8,198,1249,328:0,R,1,43,8,242,1249,284:0,R,1,44,0,242,1265,304:0,R,1,76,8,536,1249,564:0,R,1,78,8,536,1197,564:0,R,1,82,95,536,1024,120:0,R,1,121,16,732,1189,104:0,R,1,140,16,836,1189,104:0,R,1,159,16,940,1189,114:2,B,4302:5783,e,U&zx=1492350409254
p2561
sVqueryString
p2562
(lp2563
(dp2564
Vname
p2565
Vatyp
p2566
sVvalue
p2567
g30
sa(dp2568
Vname
p2569
Vct
p2570
sVvalue
p2571
Vslh
p2572
sa(dp2573
Vname
p2574
Vcad
p2575
sVvalue
p2576
g4
sa(dp2577
Vname
p2578
Vei
p2579
sVvalue
p2580
Vt3XzWIjQDYnojwT77KP4AQ
p2581
sa(dp2582
Vname
p2583
g47
sVvalue
p2584
g49
sa(dp2585
Vname
p2586
g52
sVvalue
p2587
g54
sa(dp2588
Vname
p2589
g57
sVvalue
p2590
g59
sa(dp2591
Vname
p2592
g62
sVvalue
p2593
g64
sa(dp2594
Vname
p2595
Vpv
p2596
sVvalue
p2597
V0.33646945770094727
p2598
sa(dp2599
Vname
p2600
Vme
p2601
sVvalue
p2602
V1:1492350397614,x:2,V,0,0,1280,944:0,N,1,t3XzWIjQDYnojwT77KP4AQ:0,R,1,24,8,155,1249,43:0,R,1,41,8,198,1249,328:0,R,1,43,8,242,1249,284:0,R,1,44,0,242,1265,304:0,R,1,76,8,536,1249,564:0,R,1,78,8,536,1197,564:0,R,1,82,95,536,1024,120:0,R,1,121,16,732,1189,104:0,R,1,140,16,836,1189,104:0,R,1,159,16,940,1189,114:2,B,4302:5783,e,U
p2603
sa(dp2604
Vname
p2605
Vzx
p2606
sVvalue
p2607
V1492350409254
p2608
sasVheaders
p2609
(lp2610
sVheadersSize
p2611
I979
sVbodySize
p2612
I0
sVmethod
p2613
VGET
p2614
sVhttpVersion
p2615
VHTTP/1.1
p2616
ssVtimings
p2617
(dp2618
Vcomment
p2619
g4
sVreceive
p2620
I0
sVsend
p2621
I0
sVssl
p2622
I-1
sVconnect
p2623
I-1
sVdns
p2624
I-1
sVwait
p2625
I31
sVblocked
p2626
I-1
ssVtime
p2627
I31
sVresponse
p2628
(dp2629
Vstatus
p2630
I204
sVcomment
p2631
g4
sVcookies
p2632
(lp2633
sVstatusText
p2634
VNo Content
p2635
sVcontent
p2636
(dp2637
VmimeType
p2638
Vtext/html; charset=UTF-8
p2639
sVcomment
p2640
g4
sVsize
p2641
I0
ssVheaders
p2642
(lp2643
sVheadersSize
p2644
I248
sVredirectURL
p2645
g4
sVbodySize
p2646
I0
sVhttpVersion
p2647
VHTTP/1.1
p2648
ssasVversion
p2649
V1.2
p2650
sVpages
p2651
(lp2652
(dp2653
VpageTimings
p2654
(dp2655
Vcomment
p2656
g4
ssVcomment
p2657
g4
sVtitle
p2658
VHonda
p2659
sVid
p2660
VHonda
p2661
sVstartedDateTime
p2662
V2017-04-16T08:46:43.384-05:00
p2663
sasVcreator
p2664
(dp2665
Vcomment
p2666
g4
sVversion
p2667
V2.1.4
p2668
sVname
p2669
VBrowserMob Proxy
p2670
sss.