(dp0
Vlog
p1
(dp2
Vcomment
p3
V
p4
sVentries
p5
(lp6
(dp7
Vcomment
p8
g4
sVserverIPAddress
p9
V172.217.6.4
p10
sVpageref
p11
VStephen Curry
p12
sVstartedDateTime
p13
V2017-04-16T08:29:57.401-05:00
p14
sVcache
p15
(dp16
sVrequest
p17
(dp18
Vcomment
p19
g4
sVcookies
p20
(lp21
sVurl
p22
Vhttps://www.google.com/gen_204?atyp=i&ct=slh&cad=&ei=w3HzWJjRH4uijwSyorDABA&m=V&t=C&s=1&v=2&pv=0.24343099472914476&me=1:1492349382301,x:1,V,0,0,1280,944:0,N,1,w3HzWJjRH4uijwSyorDABA:0,R,1,24,8,155,1249,647:0,R,1,25,8,155,1249,647:0,R,1,28,8,168,1249,40:0,R,1,41,8,220,1249,178:0,R,1,44,0,236,1265,197:0,R,1,84,8,415,1249,20:0,R,1,85,24,415,1217,20:0,R,1,91,8,451,1249,20:0,R,1,98,8,479,1249,20:0,R,1,150,8,812,1249,359:0,R,1,151,8,856,1249,315:0,R,1,152,0,856,1265,335:2,B,3809:15094,e,U&zx=1492349397399
p23
sVqueryString
p24
(lp25
(dp26
Vname
p27
Vatyp
p28
sVvalue
p29
Vi
p30
sa(dp31
Vname
p32
Vct
p33
sVvalue
p34
Vslh
p35
sa(dp36
Vname
p37
Vcad
p38
sVvalue
p39
g4
sa(dp40
Vname
p41
Vei
p42
sVvalue
p43
Vw3HzWJjRH4uijwSyorDABA
p44
sa(dp45
Vname
p46
Vm
p47
sVvalue
p48
VV
p49
sa(dp50
Vname
p51
Vt
p52
sVvalue
p53
VC
p54
sa(dp55
Vname
p56
Vs
p57
sVvalue
p58
V1
p59
sa(dp60
Vname
p61
Vv
p62
sVvalue
p63
V2
p64
sa(dp65
Vname
p66
Vpv
p67
sVvalue
p68
V0.24343099472914476
p69
sa(dp70
Vname
p71
Vme
p72
sVvalue
p73
V1:1492349382301,x:1,V,0,0,1280,944:0,N,1,w3HzWJjRH4uijwSyorDABA:0,R,1,24,8,155,1249,647:0,R,1,25,8,155,1249,647:0,R,1,28,8,168,1249,40:0,R,1,41,8,220,1249,178:0,R,1,44,0,236,1265,197:0,R,1,84,8,415,1249,20:0,R,1,85,24,415,1217,20:0,R,1,91,8,451,1249,20:0,R,1,98,8,479,1249,20:0,R,1,150,8,812,1249,359:0,R,1,151,8,856,1249,315:0,R,1,152,0,856,1265,335:2,B,3809:15094,e,U
p74
sa(dp75
Vname
p76
Vzx
p77
sVvalue
p78
V1492349397399
p79
sasVheaders
p80
(lp81
sVheadersSize
p82
I1021
sVbodySize
p83
I0
sVmethod
p84
VGET
p85
sVhttpVersion
p86
VHTTP/1.1
p87
ssVtimings
p88
(dp89
Vcomment
p90
g4
sVreceive
p91
I0
sVsend
p92
I0
sVssl
p93
I-1
sVconnect
p94
I-1
sVdns
p95
I-1
sVwait
p96
I0
sVblocked
p97
I-1
ssVtime
p98
I0
sVresponse
p99
(dp100
Vstatus
p101
I0
sVcomment
p102
g4
sVcookies
p103
(lp104
sV_error
p105
VNo response received
p106
sVstatusText
p107
g4
sVcontent
p108
(dp109
VmimeType
p110
g4
sVcomment
p111
g4
sVsize
p112
I0
ssVheaders
p113
(lp114
sVheadersSize
p115
I-1
sVredirectURL
p116
g4
sVbodySize
p117
I-1
sVhttpVersion
p118
Vunknown
p119
ssa(dp120
Vcomment
p121
g4
sVserverIPAddress
p122
V172.217.6.4
p123
sVpageref
p124
VStephen Curry
p125
sVstartedDateTime
p126
V2017-04-16T08:29:57.402-05:00
p127
sVcache
p128
(dp129
sVrequest
p130
(dp131
Vcomment
p132
g4
sVcookies
p133
(lp134
sVurl
p135
Vhttps://www.google.com/gen_204?atyp=i&ct=slh&cad=&ei=nXHzWIKbPKXSjwSo65mwDg&m=V&t=C&s=1&v=2&pv=0.9959760588225225&me=1:1492349344537,x:1,V,0,0,1280,944:0,N,1,nXHzWIKbPKXSjwSo65mwDg:0,R,1,24,8,155,1249,579:0,R,1,28,8,268,1249,332:0,R,1,29,0,269,1265,351:0,R,1,60,8,600,1249,134:0,R,1,91,8,744,1249,409:0,R,1,92,8,744,1249,409:0,R,1,95,8,757,1249,40:0,R,1,108,8,809,1249,170:0,R,1,111,0,825,1265,189:2,B,3148:11100,e,U&zx=1492349397400
p136
sVqueryString
p137
(lp138
(dp139
Vname
p140
Vatyp
p141
sVvalue
p142
g30
sa(dp143
Vname
p144
Vct
p145
sVvalue
p146
Vslh
p147
sa(dp148
Vname
p149
Vcad
p150
sVvalue
p151
g4
sa(dp152
Vname
p153
Vei
p154
sVvalue
p155
VnXHzWIKbPKXSjwSo65mwDg
p156
sa(dp157
Vname
p158
g47
sVvalue
p159
g49
sa(dp160
Vname
p161
g52
sVvalue
p162
g54
sa(dp163
Vname
p164
g57
sVvalue
p165
g59
sa(dp166
Vname
p167
g62
sVvalue
p168
g64
sa(dp169
Vname
p170
Vpv
p171
sVvalue
p172
V0.9959760588225225
p173
sa(dp174
Vname
p175
Vme
p176
sVvalue
p177
V1:1492349344537,x:1,V,0,0,1280,944:0,N,1,nXHzWIKbPKXSjwSo65mwDg:0,R,1,24,8,155,1249,579:0,R,1,28,8,268,1249,332:0,R,1,29,0,269,1265,351:0,R,1,60,8,600,1249,134:0,R,1,91,8,744,1249,409:0,R,1,92,8,744,1249,409:0,R,1,95,8,757,1249,40:0,R,1,108,8,809,1249,170:0,R,1,111,0,825,1265,189:2,B,3148:11100,e,U
p178
sa(dp179
Vname
p180
Vzx
p181
sVvalue
p182
V1492349397400
p183
sasVheaders
p184
(lp185
sVheadersSize
p186
I950
sVbodySize
p187
I0
sVmethod
p188
VGET
p189
sVhttpVersion
p190
VHTTP/1.1
p191
ssVtimings
p192
(dp193
Vcomment
p194
g4
sVreceive
p195
I0
sVsend
p196
I0
sVssl
p197
I-1
sVconnect
p198
I-1
sVdns
p199
I-1
sVwait
p200
I0
sVblocked
p201
I-1
ssVtime
p202
I0
sVresponse
p203
(dp204
Vstatus
p205
I0
sVcomment
p206
g4
sVcookies
p207
(lp208
sV_error
p209
VNo response received
p210
sVstatusText
p211
g4
sVcontent
p212
(dp213
VmimeType
p214
g4
sVcomment
p215
g4
sVsize
p216
I0
ssVheaders
p217
(lp218
sVheadersSize
p219
I-1
sVredirectURL
p220
g4
sVbodySize
p221
I-1
sVhttpVersion
p222
Vunknown
p223
ssa(dp224
Vcomment
p225
g4
sVserverIPAddress
p226
V172.217.6.4
p227
sVpageref
p228
VStephen Curry
p229
sVstartedDateTime
p230
V2017-04-16T08:29:57.402-05:00
p231
sVcache
p232
(dp233
sVrequest
p234
(dp235
Vcomment
p236
g4
sVcookies
p237
(lp238
sVurl
p239
Vhttps://www.google.com/gen_204?atyp=i&ct=slh&cad=&ei=q3HzWMbvD-LTjwTB4KfICA&m=V&t=C&s=1&v=2&pv=0.3112079168787465&me=1:1492349358460,x:1,V,0,0,1280,944:0,N,1,q3HzWMbvD-LTjwTB4KfICA:0,R,1,24,8,155,1249,445:0,R,1,28,8,268,1249,332:0,R,1,29,0,269,1265,351:0,R,1,60,8,610,1249,647:0,R,1,61,8,610,1249,647:0,R,1,64,8,623,1249,40:0,R,1,77,8,675,1249,178:0,R,1,80,0,691,1265,197:0,R,1,120,8,870,1249,20:0,R,1,121,24,870,1217,20:0,R,1,127,8,906,1249,20:0,R,1,136,8,934,1249,20:2,B,3782:21325,e,U&zx=1492349397401
p240
sVqueryString
p241
(lp242
(dp243
Vname
p244
Vatyp
p245
sVvalue
p246
g30
sa(dp247
Vname
p248
Vct
p249
sVvalue
p250
Vslh
p251
sa(dp252
Vname
p253
Vcad
p254
sVvalue
p255
g4
sa(dp256
Vname
p257
Vei
p258
sVvalue
p259
Vq3HzWMbvD-LTjwTB4KfICA
p260
sa(dp261
Vname
p262
g47
sVvalue
p263
g49
sa(dp264
Vname
p265
g52
sVvalue
p266
g54
sa(dp267
Vname
p268
g57
sVvalue
p269
g59
sa(dp270
Vname
p271
g62
sVvalue
p272
g64
sa(dp273
Vname
p274
Vpv
p275
sVvalue
p276
V0.3112079168787465
p277
sa(dp278
Vname
p279
Vme
p280
sVvalue
p281
V1:1492349358460,x:1,V,0,0,1280,944:0,N,1,q3HzWMbvD-LTjwTB4KfICA:0,R,1,24,8,155,1249,445:0,R,1,28,8,268,1249,332:0,R,1,29,0,269,1265,351:0,R,1,60,8,610,1249,647:0,R,1,61,8,610,1249,647:0,R,1,64,8,623,1249,40:0,R,1,77,8,675,1249,178:0,R,1,80,0,691,1265,197:0,R,1,120,8,870,1249,20:0,R,1,121,24,870,1217,20:0,R,1,127,8,906,1249,20:0,R,1,136,8,934,1249,20:2,B,3782:21325,e,U
p282
sa(dp283
Vname
p284
Vzx
p285
sVvalue
p286
V1492349397401
p287
sasVheaders
p288
(lp289
sVheadersSize
p290
I1021
sVbodySize
p291
I0
sVmethod
p292
VGET
p293
sVhttpVersion
p294
VHTTP/1.1
p295
ssVtimings
p296
(dp297
Vcomment
p298
g4
sVreceive
p299
I0
sVsend
p300
I0
sVssl
p301
I-1
sVconnect
p302
I-1
sVdns
p303
I-1
sVwait
p304
I0
sVblocked
p305
I-1
ssVtime
p306
I0
sVresponse
p307
(dp308
Vstatus
p309
I0
sVcomment
p310
g4
sVcookies
p311
(lp312
sV_error
p313
VNo response received
p314
sVstatusText
p315
g4
sVcontent
p316
(dp317
VmimeType
p318
g4
sVcomment
p319
g4
sVsize
p320
I0
ssVheaders
p321
(lp322
sVheadersSize
p323
I-1
sVredirectURL
p324
g4
sVbodySize
p325
I-1
sVhttpVersion
p326
Vunknown
p327
ssa(dp328
Vcomment
p329
g4
sVserverIPAddress
p330
V172.217.6.4
p331
sVpageref
p332
VStephen Curry
p333
sVstartedDateTime
p334
V2017-04-16T08:29:57.403-05:00
p335
sVcache
p336
(dp337
sVrequest
p338
(dp339
Vcomment
p340
g4
sVcookies
p341
(lp342
sVurl
p343
Vhttps://www.google.com/gen_204?atyp=i&ct=slh&cad=&ei=BXHzWIP8Meq-jwTI64z4DQ&m=V&t=C&s=1&v=2&pv=0.8802857241403822&me=1:1492349192964,x:2,V,0,0,1280,944:0,N,1,BXHzWIP8Meq-jwTI64z4DQ:0,R,1,24,8,155,1249,281:0,R,1,25,8,155,1249,261:0,R,1,26,8,155,1249,261:0,R,1,27,8,155,1249,110:0,R,1,42,8,446,1249,251:0,R,1,52,8,707,1249,301:0,R,1,53,8,707,1249,301:0,R,1,57,1142,707,115,107:0,R,1,66,8,741,1134,40:0,R,1,78,8,831,1249,40:0,R,1,79,24,831,1217,40:0,R,1,82,8,887,1249,20:0,R,1,84,8,915,1249,20:1,B,3492:19394,e,U&zx=1492349397401
p344
sVqueryString
p345
(lp346
(dp347
Vname
p348
Vatyp
p349
sVvalue
p350
g30
sa(dp351
Vname
p352
Vct
p353
sVvalue
p354
Vslh
p355
sa(dp356
Vname
p357
Vcad
p358
sVvalue
p359
g4
sa(dp360
Vname
p361
Vei
p362
sVvalue
p363
VBXHzWIP8Meq-jwTI64z4DQ
p364
sa(dp365
Vname
p366
g47
sVvalue
p367
g49
sa(dp368
Vname
p369
g52
sVvalue
p370
g54
sa(dp371
Vname
p372
g57
sVvalue
p373
g59
sa(dp374
Vname
p375
g62
sVvalue
p376
g64
sa(dp377
Vname
p378
Vpv
p379
sVvalue
p380
V0.8802857241403822
p381
sa(dp382
Vname
p383
Vme
p384
sVvalue
p385
V1:1492349192964,x:2,V,0,0,1280,944:0,N,1,BXHzWIP8Meq-jwTI64z4DQ:0,R,1,24,8,155,1249,281:0,R,1,25,8,155,1249,261:0,R,1,26,8,155,1249,261:0,R,1,27,8,155,1249,110:0,R,1,42,8,446,1249,251:0,R,1,52,8,707,1249,301:0,R,1,53,8,707,1249,301:0,R,1,57,1142,707,115,107:0,R,1,66,8,741,1134,40:0,R,1,78,8,831,1249,40:0,R,1,79,24,831,1217,40:0,R,1,82,8,887,1249,20:0,R,1,84,8,915,1249,20:1,B,3492:19394,e,U
p386
sa(dp387
Vname
p388
Vzx
p389
sVvalue
p390
V1492349397401
p391
sasVheaders
p392
(lp393
sVheadersSize
p394
I1043
sVbodySize
p395
I0
sVmethod
p396
VGET
p397
sVhttpVersion
p398
VHTTP/1.1
p399
ssVtimings
p400
(dp401
Vcomment
p402
g4
sVreceive
p403
I0
sVsend
p404
I0
sVssl
p405
I-1
sVconnect
p406
I-1
sVdns
p407
I-1
sVwait
p408
I0
sVblocked
p409
I-1
ssVtime
p410
I0
sVresponse
p411
(dp412
Vstatus
p413
I0
sVcomment
p414
g4
sVcookies
p415
(lp416
sV_error
p417
VNo response received
p418
sVstatusText
p419
g4
sVcontent
p420
(dp421
VmimeType
p422
g4
sVcomment
p423
g4
sVsize
p424
I0
ssVheaders
p425
(lp426
sVheadersSize
p427
I-1
sVredirectURL
p428
g4
sVbodySize
p429
I-1
sVhttpVersion
p430
Vunknown
p431
ssa(dp432
Vcomment
p433
g4
sVserverIPAddress
p434
V172.217.6.4
p435
sVpageref
p436
VStephen Curry
p437
sVstartedDateTime
p438
V2017-04-16T08:29:57.408-05:00
p439
sVcache
p440
(dp441
sVrequest
p442
(dp443
Vcomment
p444
g4
sVcookies
p445
(lp446
sVurl
p447
Vhttp://www.google.com/
p448
sVqueryString
p449
(lp450
sVheaders
p451
(lp452
sVheadersSize
p453
I613
sVbodySize
p454
I0
sVmethod
p455
VGET
p456
sVhttpVersion
p457
VHTTP/1.1
p458
ssVtimings
p459
(dp460
Vcomment
p461
g4
sVreceive
p462
I0
sVsend
p463
I0
sVssl
p464
I-1
sVconnect
p465
I-1
sVdns
p466
I-1
sVwait
p467
I97
sVblocked
p468
I-1
ssVtime
p469
I97
sVresponse
p470
(dp471
Vstatus
p472
I302
sVcomment
p473
g4
sVcookies
p474
(lp475
sVstatusText
p476
VFound
p477
sVcontent
p478
(dp479
VmimeType
p480
Vtext/html; charset=UTF-8
p481
sVcomment
p482
g4
sVsize
p483
I0
ssVheaders
p484
(lp485
sVheadersSize
p486
I609
sVredirectURL
p487
Vhttps://www.google.com/?gws_rd=ssl
p488
sVbodySize
p489
I231
sVhttpVersion
p490
VHTTP/1.1
p491
ssa(dp492
Vcomment
p493
g4
sVserverIPAddress
p494
V172.217.6.4
p495
sVpageref
p496
VStephen Curry
p497
sVstartedDateTime
p498
V2017-04-16T08:29:57.510-05:00
p499
sVcache
p500
(dp501
sVrequest
p502
(dp503
Vcomment
p504
g4
sVcookies
p505
(lp506
sVurl
p507
Vhttps://www.google.com/?gws_rd=ssl
p508
sVqueryString
p509
(lp510
(dp511
Vname
p512
Vgws_rd
p513
sVvalue
p514
Vssl
p515
sasVheaders
p516
(lp517
sVheadersSize
p518
I607
sVbodySize
p519
I0
sVmethod
p520
VGET
p521
sVhttpVersion
p522
VHTTP/1.1
p523
ssVtimings
p524
(dp525
Vcomment
p526
g4
sVreceive
p527
I26
sVsend
p528
I0
sVssl
p529
I-1
sVconnect
p530
I-1
sVdns
p531
I-1
sVwait
p532
I78
sVblocked
p533
I-1
ssVtime
p534
I104
sVresponse
p535
(dp536
Vstatus
p537
I200
sVcomment
p538
g4
sVcookies
p539
(lp540
sVstatusText
p541
VOK
p542
sVcontent
p543
(dp544
VmimeType
p545
Vtext/html; charset=UTF-8
p546
sVcomment
p547
g4
sVsize
p548
I0
ssVheaders
p549
(lp550
sVheadersSize
p551
I721
sVredirectURL
p552
g4
sVbodySize
p553
I34287
sVhttpVersion
p554
VHTTP/1.1
p555
ssa(dp556
Vcomment
p557
g4
sVserverIPAddress
p558
V172.217.6.4
p559
sVpageref
p560
VStephen Curry
p561
sVstartedDateTime
p562
V2017-04-16T08:29:57.807-05:00
p563
sVcache
p564
(dp565
sVrequest
p566
(dp567
Vcomment
p568
g4
sVcookies
p569
(lp570
sVurl
p571
Vhttps://www.google.com/gen_204?s=mobilewebhp&atyp=csi&ei=1HHzWP7_HuWZjwTZt6XoCg&imc=1&imn=1&imp=0&adh=&xjs=init.24.12.sb_mob.17.dvl.3.c.1.jsa.1.async.1&ima=1&rt=xjsls.9,prt.24,iml.24,dcl.36,xjses.78,xjsee.152,xjs.153,ol.189,aft.24,wsrt.216,cst.0,dnst.0,rqst.106,rspt.27,rqstt.112,unt.110,cstt.110,dit.249
p572
sVqueryString
p573
(lp574
(dp575
Vname
p576
g57
sVvalue
p577
Vmobilewebhp
p578
sa(dp579
Vname
p580
Vatyp
p581
sVvalue
p582
Vcsi
p583
sa(dp584
Vname
p585
Vei
p586
sVvalue
p587
V1HHzWP7_HuWZjwTZt6XoCg
p588
sa(dp589
Vname
p590
Vimc
p591
sVvalue
p592
g59
sa(dp593
Vname
p594
Vimn
p595
sVvalue
p596
g59
sa(dp597
Vname
p598
Vimp
p599
sVvalue
p600
V0
p601
sa(dp602
Vname
p603
Vadh
p604
sVvalue
p605
g4
sa(dp606
Vname
p607
Vxjs
p608
sVvalue
p609
Vinit.24.12.sb_mob.17.dvl.3.c.1.jsa.1.async.1
p610
sa(dp611
Vname
p612
Vima
p613
sVvalue
p614
g59
sa(dp615
Vname
p616
Vrt
p617
sVvalue
p618
Vxjsls.9,prt.24,iml.24,dcl.36,xjses.78,xjsee.152,xjs.153,ol.189,aft.24,wsrt.216,cst.0,dnst.0,rqst.106,rspt.27,rqstt.112,unt.110,cstt.110,dit.249
p619
sasVheaders
p620
(lp621
sVheadersSize
p622
I832
sVbodySize
p623
I0
sVmethod
p624
VGET
p625
sVhttpVersion
p626
VHTTP/1.1
p627
ssVtimings
p628
(dp629
Vcomment
p630
g4
sVreceive
p631
I0
sVsend
p632
I0
sVssl
p633
I-1
sVconnect
p634
I-1
sVdns
p635
I-1
sVwait
p636
I28
sVblocked
p637
I-1
ssVtime
p638
I28
sVresponse
p639
(dp640
Vstatus
p641
I204
sVcomment
p642
g4
sVcookies
p643
(lp644
sVstatusText
p645
VNo Content
p646
sVcontent
p647
(dp648
VmimeType
p649
Vtext/html; charset=UTF-8
p650
sVcomment
p651
g4
sVsize
p652
I0
ssVheaders
p653
(lp654
sVheadersSize
p655
I248
sVredirectURL
p656
g4
sVbodySize
p657
I0
sVhttpVersion
p658
VHTTP/1.1
p659
ssa(dp660
Vcomment
p661
g4
sVserverIPAddress
p662
V172.217.6.4
p663
sVpageref
p664
VStephen Curry
p665
sVstartedDateTime
p666
V2017-04-16T08:29:57.948-05:00
p667
sVcache
p668
(dp669
sVrequest
p670
(dp671
Vcomment
p672
g4
sVcookies
p673
(lp674
sVurl
p675
Vhttps://www.google.com/complete/search?client=mobile-gws-hp&hl=en&gs_rn=64&gs_ri=mobile-gws-hp&sla=1&pfq=san%20francisco%20giants&gm=602&cp=0&gs_id=1&xhr=t&q=S&tch=1&ech=1&psi=1HHzWP7_HuWZjwTZt6XoCg.1492349397744.1
p676
sVqueryString
p677
(lp678
(dp679
Vname
p680
Vclient
p681
sVvalue
p682
Vmobile-gws-hp
p683
sa(dp684
Vname
p685
Vhl
p686
sVvalue
p687
Ven
p688
sa(dp689
Vname
p690
Vgs_rn
p691
sVvalue
p692
V64
p693
sa(dp694
Vname
p695
Vgs_ri
p696
sVvalue
p697
Vmobile-gws-hp
p698
sa(dp699
Vname
p700
Vsla
p701
sVvalue
p702
g59
sa(dp703
Vname
p704
Vpfq
p705
sVvalue
p706
Vsan francisco giants
p707
sa(dp708
Vname
p709
Vgm
p710
sVvalue
p711
V602
p712
sa(dp713
Vname
p714
Vcp
p715
sVvalue
p716
g601
sa(dp717
Vname
p718
Vgs_id
p719
sVvalue
p720
g59
sa(dp721
Vname
p722
Vxhr
p723
sVvalue
p724
g52
sa(dp725
Vname
p726
Vq
p727
sVvalue
p728
VS
p729
sa(dp730
Vname
p731
Vtch
p732
sVvalue
p733
g59
sa(dp734
Vname
p735
Vech
p736
sVvalue
p737
g59
sa(dp738
Vname
p739
Vpsi
p740
sVvalue
p741
V1HHzWP7_HuWZjwTZt6XoCg.1492349397744.1
p742
sasVheaders
p743
(lp744
sVheadersSize
p745
I742
sVbodySize
p746
I0
sVmethod
p747
VGET
p748
sVhttpVersion
p749
VHTTP/1.1
p750
ssVtimings
p751
(dp752
Vcomment
p753
g4
sVreceive
p754
I0
sVsend
p755
I0
sVssl
p756
I-1
sVconnect
p757
I-1
sVdns
p758
I-1
sVwait
p759
I0
sVblocked
p760
I-1
ssVtime
p761
I0
sVresponse
p762
(dp763
Vstatus
p764
I0
sVcomment
p765
g4
sVcookies
p766
(lp767
sV_error
p768
VNo response received
p769
sVstatusText
p770
g4
sVcontent
p771
(dp772
VmimeType
p773
g4
sVcomment
p774
g4
sVsize
p775
I0
ssVheaders
p776
(lp777
sVheadersSize
p778
I-1
sVredirectURL
p779
g4
sVbodySize
p780
I-1
sVhttpVersion
p781
Vunknown
p782
ssa(dp783
Vcomment
p784
g4
sVserverIPAddress
p785
V172.217.6.4
p786
sVpageref
p787
VStephen Curry
p788
sVstartedDateTime
p789
V2017-04-16T08:29:58.015-05:00
p790
sVcache
p791
(dp792
sVrequest
p793
(dp794
Vcomment
p795
g4
sVcookies
p796
(lp797
sVurl
p798
Vhttps://www.google.com/search?site=&source=hp&ei=1HHzWP7_HuWZjwTZt6XoCg&q=Stephen+Curry&oq=Stephen+Curry&gs_l=mobile-gws-hp.3...185.223.0.249.13.1.0.0.0.0.0.0..0.0....0...1c.1.64.mobile-gws-hp..13.0.0.nzgF60QY5KU
p799
sVqueryString
p800
(lp801
(dp802
Vname
p803
Vsite
p804
sVvalue
p805
g4
sa(dp806
Vname
p807
Vsource
p808
sVvalue
p809
Vhp
p810
sa(dp811
Vname
p812
Vei
p813
sVvalue
p814
V1HHzWP7_HuWZjwTZt6XoCg
p815
sa(dp816
Vname
p817
g727
sVvalue
p818
VStephen Curry
p819
sa(dp820
Vname
p821
Voq
p822
sVvalue
p823
VStephen Curry
p824
sa(dp825
Vname
p826
Vgs_l
p827
sVvalue
p828
Vmobile-gws-hp.3...185.223.0.249.13.1.0.0.0.0.0.0..0.0....0...1c.1.64.mobile-gws-hp..13.0.0.nzgF60QY5KU
p829
sasVheaders
p830
(lp831
sVheadersSize
p832
I830
sVbodySize
p833
I0
sVmethod
p834
VGET
p835
sVhttpVersion
p836
VHTTP/1.1
p837
ssVtimings
p838
(dp839
Vcomment
p840
g4
sVreceive
p841
I883
sVsend
p842
I0
sVssl
p843
I-1
sVconnect
p844
I-1
sVdns
p845
I-1
sVwait
p846
I99
sVblocked
p847
I-1
ssVtime
p848
I983
sVresponse
p849
(dp850
Vstatus
p851
I200
sVcomment
p852
g4
sVcookies
p853
(lp854
sVstatusText
p855
VOK
p856
sVcontent
p857
(dp858
VmimeType
p859
Vtext/html; charset=UTF-8
p860
sVcomment
p861
g4
sVsize
p862
I0
ssVheaders
p863
(lp864
sVheadersSize
p865
I363
sVredirectURL
p866
g4
sVbodySize
p867
I134207
sVhttpVersion
p868
VHTTP/1.1
p869
ssa(dp870
Vcomment
p871
g4
sVserverIPAddress
p872
V172.217.6.4
p873
sVpageref
p874
VStephen Curry
p875
sVstartedDateTime
p876
V2017-04-16T08:29:59.513-05:00
p877
sVcache
p878
(dp879
sVrequest
p880
(dp881
Vcomment
p882
g4
sVcookies
p883
(lp884
sVurl
p885
Vhttps://www.google.com/xjs/_/js/k=xjs.qs.en_US.pCBXVCvTH3s.O/m=syl,syj,syn,em3,em8,em6,em7,sym,aa,abd,sy2g,sy2k,sy29,sy2j,sy2d,sy2a,sy2c,sy2f,sy2l,sy2m,sy2n,emd,async,sybn,sybi,sybo,sy1f,sy45,sy46,sy9w,sybk,sybj,sybp,sy1g,sy30,sy47,sybm,sybl,sybq,sy1h,sybh,dvl,syep,foot,ipv6,sy5g,sy5j,sy5h,sy6u,sy7d,sy7j,sy2x,sy5i,sy89,sy7e,sy23,sy2y,sy5k,sy6c,sy91,sy9b,sy9l,syhi,syhj,lrli,sy32,emj,shm,sykh,tl,sy2t,sy38,em12,vs,sy66,sy67,sy4u,sy69,sykk,sykl,tnv,bct,sy1y,sy2u,sy22,sy6i,sy34,sy31,sy6j,sy25,sy6l,sy6k,sy6h,emb,em9,ema,sy6m,qkx,sy4d,sy4f,sy4c,sy4e,sy24,sy4b,sy6w,shrb,sy4g,syd7,dgm,syf5,syf6,syf8,sygb,syg9,kptm,sy99,syf4,sy26,syfc,syfn,syf7,syff,sy1i,sy68,sy8d,syfl,syfr,syfq,syfg,sy1j,sy4q,sy5o,sy5r,sy6n,sy6p,sy8h,syc7,syc8,syfb,syfj,syfs,syft,syg3,syg5,syg7,emn,emo,syg4,syg6,ivg,sy9m,syac,sy9n,syhz,syl6,ssc,iuci,img,sy41,tcc,sygq,kpc,kpci,sy4h,vrml,sy6y,sycu,d3l,twt,syj7,syj8,syj2,syjc,syj6,syj3,syjg,syjh,syje,syjd,syjk,syji,syjf,syj0,emr,ems,emt,emu,emv,emx,emy,emz,em10,em11,udlg,sy5z,atn,sya3,sya2,sy4i,sya1,sya4,ampfp/am=gCP4LtMEBXQA2RUaq_oFBISzAFA/rt=j/d=0/t=zcms/rs=ACT90oFwm4NZCwIcuuiqmthdlECdBzkhRA
p886
sVqueryString
p887
(lp888
sVheaders
p889
(lp890
sVheadersSize
p891
I1632
sVbodySize
p892
I0
sVmethod
p893
VGET
p894
sVhttpVersion
p895
VHTTP/1.1
p896
ssVtimings
p897
(dp898
Vcomment
p899
g4
sVreceive
p900
I29
sVsend
p901
I0
sVssl
p902
I-1
sVconnect
p903
I-1
sVdns
p904
I-1
sVwait
p905
I13
sVblocked
p906
I-1
ssVtime
p907
I42
sVresponse
p908
(dp909
Vstatus
p910
I200
sVcomment
p911
g4
sVcookies
p912
(lp913
sVstatusText
p914
VOK
p915
sVcontent
p916
(dp917
VmimeType
p918
Vtext/javascript; charset=UTF-8
p919
sVcomment
p920
g4
sVsize
p921
I0
ssVheaders
p922
(lp923
sVheadersSize
p924
I465
sVredirectURL
p925
g4
sVbodySize
p926
I116643
sVhttpVersion
p927
VHTTP/1.1
p928
ssa(dp929
Vcomment
p930
g4
sVserverIPAddress
p931
V172.217.6.4
p932
sVpageref
p933
VStephen Curry
p934
sVstartedDateTime
p935
V2017-04-16T08:29:59.679-05:00
p936
sVcache
p937
(dp938
sVrequest
p939
(dp940
Vcomment
p941
g4
sVcookies
p942
(lp943
sVurl
p944
Vhttps://www.google.com/async/irc?vet=10ahUKEwjXqMLdiqnTAhUs_IMKHeV8AW4Qo0EI4QE..i&ved=0ahUKEwjXqMLdiqnTAhUs_IMKHeV8AW4Qo0EI4QE&ei=1XHzWJdqrPiPBOX5hfAG&yv=2&async=iu:1,ved:0ahUKEwjXqMLdiqnTAhUs_IMKHeV8AW4Qo0EI4QE,_id:irc_async,_pms:qs
p945
sVqueryString
p946
(lp947
(dp948
Vname
p949
Vvet
p950
sVvalue
p951
V10ahUKEwjXqMLdiqnTAhUs_IMKHeV8AW4Qo0EI4QE..i
p952
sa(dp953
Vname
p954
Vved
p955
sVvalue
p956
V0ahUKEwjXqMLdiqnTAhUs_IMKHeV8AW4Qo0EI4QE
p957
sa(dp958
Vname
p959
Vei
p960
sVvalue
p961
V1XHzWJdqrPiPBOX5hfAG
p962
sa(dp963
Vname
p964
Vyv
p965
sVvalue
p966
g64
sa(dp967
Vname
p968
Vasync
p969
sVvalue
p970
Viu:1,ved:0ahUKEwjXqMLdiqnTAhUs_IMKHeV8AW4Qo0EI4QE,_id:irc_async,_pms:qs
p971
sasVheaders
p972
(lp973
sVheadersSize
p974
I750
sVbodySize
p975
I0
sVmethod
p976
VGET
p977
sVhttpVersion
p978
VHTTP/1.1
p979
ssVtimings
p980
(dp981
Vcomment
p982
g4
sVreceive
p983
I1
sVsend
p984
I0
sVssl
p985
I-1
sVconnect
p986
I-1
sVdns
p987
I-1
sVwait
p988
I37
sVblocked
p989
I-1
ssVtime
p990
I39
sVresponse
p991
(dp992
Vstatus
p993
I200
sVcomment
p994
g4
sVcookies
p995
(lp996
sVstatusText
p997
VOK
p998
sVcontent
p999
(dp1000
VmimeType
p1001
Vtext/html; charset=UTF-8
p1002
sVcomment
p1003
g4
sVsize
p1004
I0
ssVheaders
p1005
(lp1006
sVheadersSize
p1007
I383
sVredirectURL
p1008
g4
sVbodySize
p1009
I7791
sVhttpVersion
p1010
VHTTP/1.1
p1011
ssa(dp1012
Vcomment
p1013
g4
sVserverIPAddress
p1014
V172.217.6.4
p1015
sVpageref
p1016
VStephen Curry
p1017
sVstartedDateTime
p1018
V2017-04-16T08:29:59.719-05:00
p1019
sVcache
p1020
(dp1021
sVrequest
p1022
(dp1023
Vcomment
p1024
g4
sVcookies
p1025
(lp1026
sVurl
p1027
Vhttps://www.google.com/gen_204?atyp=i&ct=&cad=&vet=10ahUKEwjXqMLdiqnTAhUs_IMKHeV8AW4Q5W0ITCgH..s&ei=1XHzWJdqrPiPBOX5hfAG&zx=1492349399700
p1028
sVqueryString
p1029
(lp1030
(dp1031
Vname
p1032
Vatyp
p1033
sVvalue
p1034
g30
sa(dp1035
Vname
p1036
Vct
p1037
sVvalue
p1038
g4
sa(dp1039
Vname
p1040
Vcad
p1041
sVvalue
p1042
g4
sa(dp1043
Vname
p1044
Vvet
p1045
sVvalue
p1046
V10ahUKEwjXqMLdiqnTAhUs_IMKHeV8AW4Q5W0ITCgH..s
p1047
sa(dp1048
Vname
p1049
Vei
p1050
sVvalue
p1051
V1XHzWJdqrPiPBOX5hfAG
p1052
sa(dp1053
Vname
p1054
Vzx
p1055
sVvalue
p1056
V1492349399700
p1057
sasVheaders
p1058
(lp1059
sVheadersSize
p1060
I654
sVbodySize
p1061
I0
sVmethod
p1062
VGET
p1063
sVhttpVersion
p1064
VHTTP/1.1
p1065
ssVtimings
p1066
(dp1067
Vcomment
p1068
g4
sVreceive
p1069
I0
sVsend
p1070
I0
sVssl
p1071
I-1
sVconnect
p1072
I-1
sVdns
p1073
I-1
sVwait
p1074
I26
sVblocked
p1075
I-1
ssVtime
p1076
I26
sVresponse
p1077
(dp1078
Vstatus
p1079
I204
sVcomment
p1080
g4
sVcookies
p1081
(lp1082
sVstatusText
p1083
VNo Content
p1084
sVcontent
p1085
(dp1086
VmimeType
p1087
Vtext/html; charset=UTF-8
p1088
sVcomment
p1089
g4
sVsize
p1090
I0
ssVheaders
p1091
(lp1092
sVheadersSize
p1093
I248
sVredirectURL
p1094
g4
sVbodySize
p1095
I0
sVhttpVersion
p1096
VHTTP/1.1
p1097
ssa(dp1098
Vcomment
p1099
g4
sVserverIPAddress
p1100
V172.217.6.4
p1101
sVpageref
p1102
VStephen Curry
p1103
sVstartedDateTime
p1104
V2017-04-16T08:29:59.739-05:00
p1105
sVcache
p1106
(dp1107
sVrequest
p1108
(dp1109
Vcomment
p1110
g4
sVcookies
p1111
(lp1112
sVurl
p1113
Vhttps://www.google.com/gen_204?atyp=i&ct=&cad=&vet=10ahUKEwjXqMLdiqnTAhUs_IMKHeV8AW4Q5W0IPSgC..s&ei=1XHzWJdqrPiPBOX5hfAG&zx=1492349399689
p1114
sVqueryString
p1115
(lp1116
(dp1117
Vname
p1118
Vatyp
p1119
sVvalue
p1120
g30
sa(dp1121
Vname
p1122
Vct
p1123
sVvalue
p1124
g4
sa(dp1125
Vname
p1126
Vcad
p1127
sVvalue
p1128
g4
sa(dp1129
Vname
p1130
Vvet
p1131
sVvalue
p1132
V10ahUKEwjXqMLdiqnTAhUs_IMKHeV8AW4Q5W0IPSgC..s
p1133
sa(dp1134
Vname
p1135
Vei
p1136
sVvalue
p1137
V1XHzWJdqrPiPBOX5hfAG
p1138
sa(dp1139
Vname
p1140
Vzx
p1141
sVvalue
p1142
V1492349399689
p1143
sasVheaders
p1144
(lp1145
sVheadersSize
p1146
I654
sVbodySize
p1147
I0
sVmethod
p1148
VGET
p1149
sVhttpVersion
p1150
VHTTP/1.1
p1151
ssVtimings
p1152
(dp1153
Vcomment
p1154
g4
sVreceive
p1155
I0
sVsend
p1156
I0
sVssl
p1157
I23
sVconnect
p1158
I47
sVdns
p1159
I0
sVwait
p1160
I28
sVblocked
p1161
I0
ssVtime
p1162
I76
sVresponse
p1163
(dp1164
Vstatus
p1165
I204
sVcomment
p1166
g4
sVcookies
p1167
(lp1168
sVstatusText
p1169
VNo Content
p1170
sVcontent
p1171
(dp1172
VmimeType
p1173
Vtext/html; charset=UTF-8
p1174
sVcomment
p1175
g4
sVsize
p1176
I0
ssVheaders
p1177
(lp1178
sVheadersSize
p1179
I248
sVredirectURL
p1180
g4
sVbodySize
p1181
I0
sVhttpVersion
p1182
VHTTP/1.1
p1183
ssa(dp1184
Vcomment
p1185
g4
sVserverIPAddress
p1186
V172.217.6.4
p1187
sVpageref
p1188
VStephen Curry
p1189
sVstartedDateTime
p1190
V2017-04-16T08:29:59.740-05:00
p1191
sVcache
p1192
(dp1193
sVrequest
p1194
(dp1195
Vcomment
p1196
g4
sVcookies
p1197
(lp1198
sVurl
p1199
Vhttps://www.google.com/gen_204?atyp=i&ct=&cad=&vet=10ahUKEwjXqMLdiqnTAhUs_IMKHeV8AW4Q5W0ISSgG..s&ei=1XHzWJdqrPiPBOX5hfAG&zx=1492349399698
p1200
sVqueryString
p1201
(lp1202
(dp1203
Vname
p1204
Vatyp
p1205
sVvalue
p1206
g30
sa(dp1207
Vname
p1208
Vct
p1209
sVvalue
p1210
g4
sa(dp1211
Vname
p1212
Vcad
p1213
sVvalue
p1214
g4
sa(dp1215
Vname
p1216
Vvet
p1217
sVvalue
p1218
V10ahUKEwjXqMLdiqnTAhUs_IMKHeV8AW4Q5W0ISSgG..s
p1219
sa(dp1220
Vname
p1221
Vei
p1222
sVvalue
p1223
V1XHzWJdqrPiPBOX5hfAG
p1224
sa(dp1225
Vname
p1226
Vzx
p1227
sVvalue
p1228
V1492349399698
p1229
sasVheaders
p1230
(lp1231
sVheadersSize
p1232
I654
sVbodySize
p1233
I0
sVmethod
p1234
VGET
p1235
sVhttpVersion
p1236
VHTTP/1.1
p1237
ssVtimings
p1238
(dp1239
Vcomment
p1240
g4
sVreceive
p1241
I0
sVsend
p1242
I0
sVssl
p1243
I23
sVconnect
p1244
I37
sVdns
p1245
I0
sVwait
p1246
I29
sVblocked
p1247
I0
ssVtime
p1248
I67
sVresponse
p1249
(dp1250
Vstatus
p1251
I204
sVcomment
p1252
g4
sVcookies
p1253
(lp1254
sVstatusText
p1255
VNo Content
p1256
sVcontent
p1257
(dp1258
VmimeType
p1259
Vtext/html; charset=UTF-8
p1260
sVcomment
p1261
g4
sVsize
p1262
I0
ssVheaders
p1263
(lp1264
sVheadersSize
p1265
I248
sVredirectURL
p1266
g4
sVbodySize
p1267
I0
sVhttpVersion
p1268
VHTTP/1.1
p1269
ssa(dp1270
Vcomment
p1271
g4
sVserverIPAddress
p1272
V172.217.6.4
p1273
sVpageref
p1274
VStephen Curry
p1275
sVstartedDateTime
p1276
V2017-04-16T08:29:59.740-05:00
p1277
sVcache
p1278
(dp1279
sVrequest
p1280
(dp1281
Vcomment
p1282
g4
sVcookies
p1283
(lp1284
sVurl
p1285
Vhttps://www.google.com/gen_204?atyp=i&ct=&cad=&vet=10ahUKEwjXqMLdiqnTAhUs_IMKHeV8AW4Q5W0IQCgD..s&ei=1XHzWJdqrPiPBOX5hfAG&zx=1492349399692
p1286
sVqueryString
p1287
(lp1288
(dp1289
Vname
p1290
Vatyp
p1291
sVvalue
p1292
g30
sa(dp1293
Vname
p1294
Vct
p1295
sVvalue
p1296
g4
sa(dp1297
Vname
p1298
Vcad
p1299
sVvalue
p1300
g4
sa(dp1301
Vname
p1302
Vvet
p1303
sVvalue
p1304
V10ahUKEwjXqMLdiqnTAhUs_IMKHeV8AW4Q5W0IQCgD..s
p1305
sa(dp1306
Vname
p1307
Vei
p1308
sVvalue
p1309
V1XHzWJdqrPiPBOX5hfAG
p1310
sa(dp1311
Vname
p1312
Vzx
p1313
sVvalue
p1314
V1492349399692
p1315
sasVheaders
p1316
(lp1317
sVheadersSize
p1318
I654
sVbodySize
p1319
I0
sVmethod
p1320
VGET
p1321
sVhttpVersion
p1322
VHTTP/1.1
p1323
ssVtimings
p1324
(dp1325
Vcomment
p1326
g4
sVreceive
p1327
I0
sVsend
p1328
I0
sVssl
p1329
I23
sVconnect
p1330
I45
sVdns
p1331
I0
sVwait
p1332
I28
sVblocked
p1333
I0
ssVtime
p1334
I74
sVresponse
p1335
(dp1336
Vstatus
p1337
I204
sVcomment
p1338
g4
sVcookies
p1339
(lp1340
sVstatusText
p1341
VNo Content
p1342
sVcontent
p1343
(dp1344
VmimeType
p1345
Vtext/html; charset=UTF-8
p1346
sVcomment
p1347
g4
sVsize
p1348
I0
ssVheaders
p1349
(lp1350
sVheadersSize
p1351
I248
sVredirectURL
p1352
g4
sVbodySize
p1353
I0
sVhttpVersion
p1354
VHTTP/1.1
p1355
ssa(dp1356
Vcomment
p1357
g4
sVserverIPAddress
p1358
V172.217.6.4
p1359
sVpageref
p1360
VStephen Curry
p1361
sVstartedDateTime
p1362
V2017-04-16T08:29:59.740-05:00
p1363
sVcache
p1364
(dp1365
sVrequest
p1366
(dp1367
Vcomment
p1368
g4
sVcookies
p1369
(lp1370
sVurl
p1371
Vhttps://www.google.com/gen_204?atyp=i&ct=&cad=&vet=10ahUKEwjXqMLdiqnTAhUs_IMKHeV8AW4Q5W0IQygE..s&ei=1XHzWJdqrPiPBOX5hfAG&zx=1492349399694
p1372
sVqueryString
p1373
(lp1374
(dp1375
Vname
p1376
Vatyp
p1377
sVvalue
p1378
g30
sa(dp1379
Vname
p1380
Vct
p1381
sVvalue
p1382
g4
sa(dp1383
Vname
p1384
Vcad
p1385
sVvalue
p1386
g4
sa(dp1387
Vname
p1388
Vvet
p1389
sVvalue
p1390
V10ahUKEwjXqMLdiqnTAhUs_IMKHeV8AW4Q5W0IQygE..s
p1391
sa(dp1392
Vname
p1393
Vei
p1394
sVvalue
p1395
V1XHzWJdqrPiPBOX5hfAG
p1396
sa(dp1397
Vname
p1398
Vzx
p1399
sVvalue
p1400
V1492349399694
p1401
sasVheaders
p1402
(lp1403
sVheadersSize
p1404
I654
sVbodySize
p1405
I0
sVmethod
p1406
VGET
p1407
sVhttpVersion
p1408
VHTTP/1.1
p1409
ssVtimings
p1410
(dp1411
Vcomment
p1412
g4
sVreceive
p1413
I0
sVsend
p1414
I0
sVssl
p1415
I24
sVconnect
p1416
I43
sVdns
p1417
I0
sVwait
p1418
I57
sVblocked
p1419
I0
ssVtime
p1420
I101
sVresponse
p1421
(dp1422
Vstatus
p1423
I204
sVcomment
p1424
g4
sVcookies
p1425
(lp1426
sVstatusText
p1427
VNo Content
p1428
sVcontent
p1429
(dp1430
VmimeType
p1431
Vtext/html; charset=UTF-8
p1432
sVcomment
p1433
g4
sVsize
p1434
I0
ssVheaders
p1435
(lp1436
sVheadersSize
p1437
I248
sVredirectURL
p1438
g4
sVbodySize
p1439
I0
sVhttpVersion
p1440
VHTTP/1.1
p1441
ssa(dp1442
Vcomment
p1443
g4
sVserverIPAddress
p1444
V172.217.6.4
p1445
sVpageref
p1446
VStephen Curry
p1447
sVstartedDateTime
p1448
V2017-04-16T08:29:59.742-05:00
p1449
sVcache
p1450
(dp1451
sVrequest
p1452
(dp1453
Vcomment
p1454
g4
sVcookies
p1455
(lp1456
sVurl
p1457
Vhttps://www.google.com/gen_204?atyp=i&ct=&cad=&vet=10ahUKEwjXqMLdiqnTAhUs_IMKHeV8AW4Q5W0IRigF..s&ei=1XHzWJdqrPiPBOX5hfAG&zx=1492349399696
p1458
sVqueryString
p1459
(lp1460
(dp1461
Vname
p1462
Vatyp
p1463
sVvalue
p1464
g30
sa(dp1465
Vname
p1466
Vct
p1467
sVvalue
p1468
g4
sa(dp1469
Vname
p1470
Vcad
p1471
sVvalue
p1472
g4
sa(dp1473
Vname
p1474
Vvet
p1475
sVvalue
p1476
V10ahUKEwjXqMLdiqnTAhUs_IMKHeV8AW4Q5W0IRigF..s
p1477
sa(dp1478
Vname
p1479
Vei
p1480
sVvalue
p1481
V1XHzWJdqrPiPBOX5hfAG
p1482
sa(dp1483
Vname
p1484
Vzx
p1485
sVvalue
p1486
V1492349399696
p1487
sasVheaders
p1488
(lp1489
sVheadersSize
p1490
I654
sVbodySize
p1491
I0
sVmethod
p1492
VGET
p1493
sVhttpVersion
p1494
VHTTP/1.1
p1495
ssVtimings
p1496
(dp1497
Vcomment
p1498
g4
sVreceive
p1499
I0
sVsend
p1500
I0
sVssl
p1501
I23
sVconnect
p1502
I41
sVdns
p1503
I0
sVwait
p1504
I26
sVblocked
p1505
I0
ssVtime
p1506
I68
sVresponse
p1507
(dp1508
Vstatus
p1509
I204
sVcomment
p1510
g4
sVcookies
p1511
(lp1512
sVstatusText
p1513
VNo Content
p1514
sVcontent
p1515
(dp1516
VmimeType
p1517
Vtext/html; charset=UTF-8
p1518
sVcomment
p1519
g4
sVsize
p1520
I0
ssVheaders
p1521
(lp1522
sVheadersSize
p1523
I248
sVredirectURL
p1524
g4
sVbodySize
p1525
I0
sVhttpVersion
p1526
VHTTP/1.1
p1527
ssa(dp1528
Vcomment
p1529
g4
sVserverIPAddress
p1530
V172.217.6.4
p1531
sVpageref
p1532
VStephen Curry
p1533
sVstartedDateTime
p1534
V2017-04-16T08:29:59.746-05:00
p1535
sVcache
p1536
(dp1537
sVrequest
p1538
(dp1539
Vcomment
p1540
g4
sVcookies
p1541
(lp1542
sVurl
p1543
Vhttps://www.google.com/gen_204?atyp=i&ct=&cad=&vet=10ahUKEwjXqMLdiqnTAhUs_IMKHeV8AW4Q5W0ITygI..s&ei=1XHzWJdqrPiPBOX5hfAG&zx=1492349399703
p1544
sVqueryString
p1545
(lp1546
(dp1547
Vname
p1548
Vatyp
p1549
sVvalue
p1550
g30
sa(dp1551
Vname
p1552
Vct
p1553
sVvalue
p1554
g4
sa(dp1555
Vname
p1556
Vcad
p1557
sVvalue
p1558
g4
sa(dp1559
Vname
p1560
Vvet
p1561
sVvalue
p1562
V10ahUKEwjXqMLdiqnTAhUs_IMKHeV8AW4Q5W0ITygI..s
p1563
sa(dp1564
Vname
p1565
Vei
p1566
sVvalue
p1567
V1XHzWJdqrPiPBOX5hfAG
p1568
sa(dp1569
Vname
p1570
Vzx
p1571
sVvalue
p1572
V1492349399703
p1573
sasVheaders
p1574
(lp1575
sVheadersSize
p1576
I654
sVbodySize
p1577
I0
sVmethod
p1578
VGET
p1579
sVhttpVersion
p1580
VHTTP/1.1
p1581
ssVtimings
p1582
(dp1583
Vcomment
p1584
g4
sVreceive
p1585
I0
sVsend
p1586
I0
sVssl
p1587
I-1
sVconnect
p1588
I-1
sVdns
p1589
I-1
sVwait
p1590
I22
sVblocked
p1591
I-1
ssVtime
p1592
I22
sVresponse
p1593
(dp1594
Vstatus
p1595
I204
sVcomment
p1596
g4
sVcookies
p1597
(lp1598
sVstatusText
p1599
VNo Content
p1600
sVcontent
p1601
(dp1602
VmimeType
p1603
Vtext/html; charset=UTF-8
p1604
sVcomment
p1605
g4
sVsize
p1606
I0
ssVheaders
p1607
(lp1608
sVheadersSize
p1609
I248
sVredirectURL
p1610
g4
sVbodySize
p1611
I0
sVhttpVersion
p1612
VHTTP/1.1
p1613
ssa(dp1614
Vcomment
p1615
g4
sVserverIPAddress
p1616
V172.217.6.4
p1617
sVpageref
p1618
VStephen Curry
p1619
sVstartedDateTime
p1620
V2017-04-16T08:29:59.780-05:00
p1621
sVcache
p1622
(dp1623
sVrequest
p1624
(dp1625
Vcomment
p1626
g4
sVcookies
p1627
(lp1628
sVurl
p1629
Vhttps://www.google.com/async/ampfp?vet=10ahUKEwjXqMLdiqnTAhUs_IMKHeV8AW4QtZoBCN8B..i&ei=1XHzWJdqrPiPBOX5hfAG&yv=2&async=_id:ampfp-async,_pms:qs
p1630
sVqueryString
p1631
(lp1632
(dp1633
Vname
p1634
Vvet
p1635
sVvalue
p1636
V10ahUKEwjXqMLdiqnTAhUs_IMKHeV8AW4QtZoBCN8B..i
p1637
sa(dp1638
Vname
p1639
Vei
p1640
sVvalue
p1641
V1XHzWJdqrPiPBOX5hfAG
p1642
sa(dp1643
Vname
p1644
Vyv
p1645
sVvalue
p1646
g64
sa(dp1647
Vname
p1648
Vasync
p1649
sVvalue
p1650
V_id:ampfp-async,_pms:qs
p1651
sasVheaders
p1652
(lp1653
sVheadersSize
p1654
I660
sVbodySize
p1655
I0
sVmethod
p1656
VGET
p1657
sVhttpVersion
p1658
VHTTP/1.1
p1659
ssVtimings
p1660
(dp1661
Vcomment
p1662
g4
sVreceive
p1663
I0
sVsend
p1664
I0
sVssl
p1665
I-1
sVconnect
p1666
I-1
sVdns
p1667
I-1
sVwait
p1668
I35
sVblocked
p1669
I-1
ssVtime
p1670
I36
sVresponse
p1671
(dp1672
Vstatus
p1673
I200
sVcomment
p1674
g4
sVcookies
p1675
(lp1676
sVstatusText
p1677
VOK
p1678
sVcontent
p1679
(dp1680
VmimeType
p1681
Vtext/html; charset=UTF-8
p1682
sVcomment
p1683
g4
sVsize
p1684
I0
ssVheaders
p1685
(lp1686
sVheadersSize
p1687
I383
sVredirectURL
p1688
g4
sVbodySize
p1689
I4526
sVhttpVersion
p1690
VHTTP/1.1
p1691
ssa(dp1692
Vcomment
p1693
g4
sVserverIPAddress
p1694
V216.58.216.193
p1695
sVpageref
p1696
VStephen Curry
p1697
sVstartedDateTime
p1698
V2017-04-16T08:29:59.781-05:00
p1699
sVcache
p1700
(dp1701
sVrequest
p1702
(dp1703
Vcomment
p1704
g4
sVcookies
p1705
(lp1706
sVurl
p1707
Vhttps://cdn.ampproject.org/preconnect.gif?0.9217645584891857
p1708
sVqueryString
p1709
(lp1710
(dp1711
Vname
p1712
V0.9217645584891857
p1713
sVvalue
p1714
g4
sasVheaders
p1715
(lp1716
sVheadersSize
p1717
I375
sVbodySize
p1718
I0
sVmethod
p1719
VGET
p1720
sVhttpVersion
p1721
VHTTP/1.1
p1722
ssVtimings
p1723
(dp1724
Vcomment
p1725
g4
sVreceive
p1726
I0
sVsend
p1727
I0
sVssl
p1728
I-1
sVconnect
p1729
I-1
sVdns
p1730
I-1
sVwait
p1731
I34
sVblocked
p1732
I-1
ssVtime
p1733
I34
sVresponse
p1734
(dp1735
Vstatus
p1736
I200
sVcomment
p1737
g4
sVcookies
p1738
(lp1739
sVstatusText
p1740
VOK
p1741
sVcontent
p1742
(dp1743
VmimeType
p1744
Vimage/gif
p1745
sVcomment
p1746
g4
sVsize
p1747
I0
ssVheaders
p1748
(lp1749
sVheadersSize
p1750
I826
sVredirectURL
p1751
g4
sVbodySize
p1752
I37
sVhttpVersion
p1753
VHTTP/1.1
p1754
ssa(dp1755
Vcomment
p1756
g4
sVserverIPAddress
p1757
V172.217.0.14
p1758
sVpageref
p1759
VStephen Curry
p1760
sVstartedDateTime
p1761
V2017-04-16T08:29:59.797-05:00
p1762
sVcache
p1763
(dp1764
sVrequest
p1765
(dp1766
Vcomment
p1767
g4
sVcookies
p1768
(lp1769
sVurl
p1770
Vhttps://encrypted-tbn1.gstatic.com/images?q=tbn:ANd9GcSpGXrRTyd9MdsNNgjLkFPkjMVP0tOjywj3mcptKK_WdqsEbl2DPuo5foa2
p1771
sVqueryString
p1772
(lp1773
(dp1774
Vname
p1775
g727
sVvalue
p1776
Vtbn:ANd9GcSpGXrRTyd9MdsNNgjLkFPkjMVP0tOjywj3mcptKK_WdqsEbl2DPuo5foa2
p1777
sasVheaders
p1778
(lp1779
sVheadersSize
p1780
I427
sVbodySize
p1781
I0
sVmethod
p1782
VGET
p1783
sVhttpVersion
p1784
VHTTP/1.1
p1785
ssVtimings
p1786
(dp1787
Vcomment
p1788
g4
sVreceive
p1789
I0
sVsend
p1790
I0
sVssl
p1791
I-1
sVconnect
p1792
I-1
sVdns
p1793
I-1
sVwait
p1794
I18
sVblocked
p1795
I-1
ssVtime
p1796
I18
sVresponse
p1797
(dp1798
Vstatus
p1799
I200
sVcomment
p1800
g4
sVcookies
p1801
(lp1802
sVstatusText
p1803
VOK
p1804
sVcontent
p1805
(dp1806
VmimeType
p1807
Vimage/jpeg
p1808
sVcomment
p1809
g4
sVsize
p1810
I0
ssVheaders
p1811
(lp1812
sVheadersSize
p1813
I427
sVredirectURL
p1814
g4
sVbodySize
p1815
I10873
sVhttpVersion
p1816
VHTTP/1.1
p1817
ssa(dp1818
Vcomment
p1819
g4
sVserverIPAddress
p1820
V172.217.0.14
p1821
sVpageref
p1822
VStephen Curry
p1823
sVstartedDateTime
p1824
V2017-04-16T08:29:59.798-05:00
p1825
sVcache
p1826
(dp1827
sVrequest
p1828
(dp1829
Vcomment
p1830
g4
sVcookies
p1831
(lp1832
sVurl
p1833
Vhttps://encrypted-tbn1.gstatic.com/images?q=tbn:ANd9GcS5qo1MiLbC_esaTC4dPeU_HfMFCDrDSmZPWmfTR3VpMzN6QFeY2U7_xeRu
p1834
sVqueryString
p1835
(lp1836
(dp1837
Vname
p1838
g727
sVvalue
p1839
Vtbn:ANd9GcS5qo1MiLbC_esaTC4dPeU_HfMFCDrDSmZPWmfTR3VpMzN6QFeY2U7_xeRu
p1840
sasVheaders
p1841
(lp1842
sVheadersSize
p1843
I427
sVbodySize
p1844
I0
sVmethod
p1845
VGET
p1846
sVhttpVersion
p1847
VHTTP/1.1
p1848
ssVtimings
p1849
(dp1850
Vcomment
p1851
g4
sVreceive
p1852
I0
sVsend
p1853
I0
sVssl
p1854
I-1
sVconnect
p1855
I-1
sVdns
p1856
I-1
sVwait
p1857
I19
sVblocked
p1858
I-1
ssVtime
p1859
I19
sVresponse
p1860
(dp1861
Vstatus
p1862
I200
sVcomment
p1863
g4
sVcookies
p1864
(lp1865
sVstatusText
p1866
VOK
p1867
sVcontent
p1868
(dp1869
VmimeType
p1870
Vimage/jpeg
p1871
sVcomment
p1872
g4
sVsize
p1873
I0
ssVheaders
p1874
(lp1875
sVheadersSize
p1876
I428
sVredirectURL
p1877
g4
sVbodySize
p1878
I3966
sVhttpVersion
p1879
VHTTP/1.1
p1880
ssa(dp1881
Vcomment
p1882
g4
sVserverIPAddress
p1883
V172.217.6.4
p1884
sVpageref
p1885
VStephen Curry
p1886
sVstartedDateTime
p1887
V2017-04-16T08:29:59.923-05:00
p1888
sVcache
p1889
(dp1890
sVrequest
p1891
(dp1892
Vcomment
p1893
g4
sVcookies
p1894
(lp1895
sVurl
p1896
Vhttps://www.google.com/async/log_amp_item_set?vet=10ahUKEwiQ063eiqnTAhVM_IMKHYDTDjcQooQBCAE..i&ei=1XHzWJdqrPiPBOX5hfAG&yv=2&async=num_items:3,_fmt:jspb
p1897
sVqueryString
p1898
(lp1899
(dp1900
Vname
p1901
Vvet
p1902
sVvalue
p1903
V10ahUKEwiQ063eiqnTAhVM_IMKHYDTDjcQooQBCAE..i
p1904
sa(dp1905
Vname
p1906
Vei
p1907
sVvalue
p1908
V1XHzWJdqrPiPBOX5hfAG
p1909
sa(dp1910
Vname
p1911
Vyv
p1912
sVvalue
p1913
g64
sa(dp1914
Vname
p1915
Vasync
p1916
sVvalue
p1917
Vnum_items:3,_fmt:jspb
p1918
sasVheaders
p1919
(lp1920
sVheadersSize
p1921
I668
sVbodySize
p1922
I0
sVmethod
p1923
VGET
p1924
sVhttpVersion
p1925
VHTTP/1.1
p1926
ssVtimings
p1927
(dp1928
Vcomment
p1929
g4
sVreceive
p1930
I0
sVsend
p1931
I0
sVssl
p1932
I-1
sVconnect
p1933
I-1
sVdns
p1934
I-1
sVwait
p1935
I35
sVblocked
p1936
I-1
ssVtime
p1937
I35
sVresponse
p1938
(dp1939
Vstatus
p1940
I200
sVcomment
p1941
g4
sVcookies
p1942
(lp1943
sVstatusText
p1944
VOK
p1945
sVcontent
p1946
(dp1947
VmimeType
p1948
Vapplication/json; charset=UTF-8
p1949
sVcomment
p1950
g4
sVsize
p1951
I0
ssVheaders
p1952
(lp1953
sVheadersSize
p1954
I417
sVredirectURL
p1955
g4
sVbodySize
p1956
I148
sVhttpVersion
p1957
VHTTP/1.1
p1958
ssa(dp1959
Vcomment
p1960
g4
sVserverIPAddress
p1961
V216.58.216.193
p1962
sVpageref
p1963
VStephen Curry
p1964
sVstartedDateTime
p1965
V2017-04-16T08:30:00.183-05:00
p1966
sVcache
p1967
(dp1968
sVrequest
p1969
(dp1970
Vcomment
p1971
g4
sVcookies
p1972
(lp1973
sVurl
p1974
Vhttps://fivethirtyeight-com.cdn.ampproject.org/v/s/fivethirtyeight.com/features/the-case-for-stephen-curry-mvp/amp/?amp_js_v=9
p1975
sVqueryString
p1976
(lp1977
(dp1978
Vname
p1979
Vamp_js_v
p1980
sVvalue
p1981
V9
p1982
sasVheaders
p1983
(lp1984
sVheadersSize
p1985
I531
sVbodySize
p1986
I0
sVmethod
p1987
VGET
p1988
sVhttpVersion
p1989
VHTTP/1.1
p1990
ssVtimings
p1991
(dp1992
Vcomment
p1993
g4
sVreceive
p1994
I3
sVsend
p1995
I0
sVssl
p1996
I202
sVconnect
p1997
I216
sVdns
p1998
I35
sVwait
p1999
I123
sVblocked
p2000
I0
ssVtime
p2001
I379
sVresponse
p2002
(dp2003
Vstatus
p2004
I200
sVcomment
p2005
g4
sVcookies
p2006
(lp2007
sVstatusText
p2008
VOK
p2009
sVcontent
p2010
(dp2011
VmimeType
p2012
Vtext/html
p2013
sVcomment
p2014
g4
sVsize
p2015
I0
ssVheaders
p2016
(lp2017
sVheadersSize
p2018
I860
sVredirectURL
p2019
g4
sVbodySize
p2020
I17724
sVhttpVersion
p2021
VHTTP/1.1
p2022
ssa(dp2023
Vcomment
p2024
g4
sVserverIPAddress
p2025
V216.58.216.193
p2026
sVpageref
p2027
VStephen Curry
p2028
sVstartedDateTime
p2029
V2017-04-16T08:30:00.762-05:00
p2030
sVcache
p2031
(dp2032
sVrequest
p2033
(dp2034
Vcomment
p2035
g4
sVcookies
p2036
(lp2037
sVurl
p2038
Vhttps://s0-wp-com.cdn.ampproject.org/r/s/s0.wp.com/wp-content/themes/vip/espn-fivethirtyeight/assets/fonts/AtlasGrotesk-Bold-Web.woff2
p2039
sVqueryString
p2040
(lp2041
sVheaders
p2042
(lp2043
sVheadersSize
p2044
I662
sVbodySize
p2045
I0
sVmethod
p2046
VGET
p2047
sVhttpVersion
p2048
VHTTP/1.1
p2049
ssVtimings
p2050
(dp2051
Vcomment
p2052
g4
sVreceive
p2053
I38
sVsend
p2054
I0
sVssl
p2055
I359
sVconnect
p2056
I376
sVdns
p2057
I19
sVwait
p2058
I26
sVblocked
p2059
I0
ssVtime
p2060
I461
sVresponse
p2061
(dp2062
Vstatus
p2063
I200
sVcomment
p2064
g4
sVcookies
p2065
(lp2066
sVstatusText
p2067
VOK
p2068
sVcontent
p2069
(dp2070
VmimeType
p2071
Vapplication/font-woff2
p2072
sVcomment
p2073
g4
sVsize
p2074
I0
ssVheaders
p2075
(lp2076
sVheadersSize
p2077
I870
sVredirectURL
p2078
g4
sVbodySize
p2079
I46760
sVhttpVersion
p2080
VHTTP/1.1
p2081
ssa(dp2082
Vcomment
p2083
g4
sVserverIPAddress
p2084
V216.58.216.193
p2085
sVpageref
p2086
VStephen Curry
p2087
sVstartedDateTime
p2088
V2017-04-16T08:30:00.772-05:00
p2089
sVcache
p2090
(dp2091
sVrequest
p2092
(dp2093
Vcomment
p2094
g4
sVcookies
p2095
(lp2096
sVurl
p2097
Vhttps://s0-wp-com.cdn.ampproject.org/i/s/s0.wp.com/wp-content/themes/vip/espn-fivethirtyeight/assets/images/logo-wordmark.svg
p2098
sVqueryString
p2099
(lp2100
sVheaders
p2101
(lp2102
sVheadersSize
p2103
I543
sVbodySize
p2104
I0
sVmethod
p2105
VGET
p2106
sVhttpVersion
p2107
VHTTP/1.1
p2108
ssVtimings
p2109
(dp2110
Vcomment
p2111
g4
sVreceive
p2112
I0
sVsend
p2113
I0
sVssl
p2114
I369
sVconnect
p2115
I388
sVdns
p2116
I35
sVwait
p2117
I25
sVblocked
p2118
I0
ssVtime
p2119
I450
sVresponse
p2120
(dp2121
Vstatus
p2122
I200
sVcomment
p2123
g4
sVcookies
p2124
(lp2125
sVstatusText
p2126
VOK
p2127
sVcontent
p2128
(dp2129
VmimeType
p2130
Vimage/svg+xml
p2131
sVcomment
p2132
g4
sVsize
p2133
I0
ssVheaders
p2134
(lp2135
sVheadersSize
p2136
I881
sVredirectURL
p2137
g4
sVbodySize
p2138
I1199
sVhttpVersion
p2139
VHTTP/1.1
p2140
ssa(dp2141
Vcomment
p2142
g4
sVserverIPAddress
p2143
V216.58.216.193
p2144
sVpageref
p2145
VStephen Curry
p2146
sVstartedDateTime
p2147
V2017-04-16T08:30:00.772-05:00
p2148
sVcache
p2149
(dp2150
sVrequest
p2151
(dp2152
Vcomment
p2153
g4
sVcookies
p2154
(lp2155
sVurl
p2156
Vhttps://s0-wp-com.cdn.ampproject.org/i/s/s0.wp.com/wp-content/themes/vip/espn-fivethirtyeight/assets/images/newsletter-icon.png
p2157
sVqueryString
p2158
(lp2159
sVheaders
p2160
(lp2161
sVheadersSize
p2162
I545
sVbodySize
p2163
I0
sVmethod
p2164
VGET
p2165
sVhttpVersion
p2166
VHTTP/1.1
p2167
ssVtimings
p2168
(dp2169
Vcomment
p2170
g4
sVreceive
p2171
I0
sVsend
p2172
I0
sVssl
p2173
I362
sVconnect
p2174
I385
sVdns
p2175
I30
sVwait
p2176
I25
sVblocked
p2177
I0
ssVtime
p2178
I440
sVresponse
p2179
(dp2180
Vstatus
p2181
I200
sVcomment
p2182
g4
sVcookies
p2183
(lp2184
sVstatusText
p2185
VOK
p2186
sVcontent
p2187
(dp2188
VmimeType
p2189
Vimage/png
p2190
sVcomment
p2191
g4
sVsize
p2192
I0
ssVheaders
p2193
(lp2194
sVheadersSize
p2195
I823
sVredirectURL
p2196
g4
sVbodySize
p2197
I732
sVhttpVersion
p2198
VHTTP/1.1
p2199
ssa(dp2200
Vcomment
p2201
g4
sVserverIPAddress
p2202
V216.58.216.193
p2203
sVpageref
p2204
VStephen Curry
p2205
sVstartedDateTime
p2206
V2017-04-16T08:30:00.776-05:00
p2207
sVcache
p2208
(dp2209
sVrequest
p2210
(dp2211
Vcomment
p2212
g4
sVcookies
p2213
(lp2214
sVurl
p2215
Vhttps://s0-wp-com.cdn.ampproject.org/r/s/s0.wp.com/wp-content/themes/vip/espn-fivethirtyeight/assets/fonts/ArnhemPro-Normal.woff2
p2216
sVqueryString
p2217
(lp2218
sVheaders
p2219
(lp2220
sVheadersSize
p2221
I657
sVbodySize
p2222
I0
sVmethod
p2223
VGET
p2224
sVhttpVersion
p2225
VHTTP/1.1
p2226
ssVtimings
p2227
(dp2228
Vcomment
p2229
g4
sVreceive
p2230
I61
sVsend
p2231
I0
sVssl
p2232
I367
sVconnect
p2233
I389
sVdns
p2234
I18
sVwait
p2235
I29
sVblocked
p2236
I0
ssVtime
p2237
I499
sVresponse
p2238
(dp2239
Vstatus
p2240
I200
sVcomment
p2241
g4
sVcookies
p2242
(lp2243
sVstatusText
p2244
VOK
p2245
sVcontent
p2246
(dp2247
VmimeType
p2248
Vapplication/font-woff2
p2249
sVcomment
p2250
g4
sVsize
p2251
I0
ssVheaders
p2252
(lp2253
sVheadersSize
p2254
I870
sVredirectURL
p2255
g4
sVbodySize
p2256
I57540
sVhttpVersion
p2257
VHTTP/1.1
p2258
ssa(dp2259
Vcomment
p2260
g4
sVserverIPAddress
p2261
V216.58.216.193
p2262
sVpageref
p2263
VStephen Curry
p2264
sVstartedDateTime
p2265
V2017-04-16T08:30:00.781-05:00
p2266
sVcache
p2267
(dp2268
sVrequest
p2269
(dp2270
Vcomment
p2271
g4
sVcookies
p2272
(lp2273
sVurl
p2274
Vhttps://s0-wp-com.cdn.ampproject.org/r/s/s0.wp.com/wp-content/themes/vip/espn-fivethirtyeight/assets/fonts/decimamonopro-webfont.woff2
p2275
sVqueryString
p2276
(lp2277
sVheaders
p2278
(lp2279
sVheadersSize
p2280
I662
sVbodySize
p2281
I0
sVmethod
p2282
VGET
p2283
sVhttpVersion
p2284
VHTTP/1.1
p2285
ssVtimings
p2286
(dp2287
Vcomment
p2288
g4
sVreceive
p2289
I33
sVsend
p2290
I0
sVssl
p2291
I375
sVconnect
p2292
I397
sVdns
p2293
I21
sVwait
p2294
I27
sVblocked
p2295
I0
ssVtime
p2296
I479
sVresponse
p2297
(dp2298
Vstatus
p2299
I200
sVcomment
p2300
g4
sVcookies
p2301
(lp2302
sVstatusText
p2303
VOK
p2304
sVcontent
p2305
(dp2306
VmimeType
p2307
Vapplication/font-woff2
p2308
sVcomment
p2309
g4
sVsize
p2310
I0
ssVheaders
p2311
(lp2312
sVheadersSize
p2313
I870
sVredirectURL
p2314
g4
sVbodySize
p2315
I21244
sVhttpVersion
p2316
VHTTP/1.1
p2317
ssa(dp2318
Vcomment
p2319
g4
sVserverIPAddress
p2320
V216.58.216.193
p2321
sVpageref
p2322
VStephen Curry
p2323
sVstartedDateTime
p2324
V2017-04-16T08:30:00.781-05:00
p2325
sVcache
p2326
(dp2327
sVrequest
p2328
(dp2329
Vcomment
p2330
g4
sVcookies
p2331
(lp2332
sVurl
p2333
Vhttps://s0-wp-com.cdn.ampproject.org/r/s/s0.wp.com/wp-content/themes/vip/espn-fivethirtyeight/assets/fonts/ArnhemPro-NormalItalic.woff2
p2334
sVqueryString
p2335
(lp2336
sVheaders
p2337
(lp2338
sVheadersSize
p2339
I663
sVbodySize
p2340
I0
sVmethod
p2341
VGET
p2342
sVhttpVersion
p2343
VHTTP/1.1
p2344
ssVtimings
p2345
(dp2346
Vcomment
p2347
g4
sVreceive
p2348
I59
sVsend
p2349
I0
sVssl
p2350
I370
sVconnect
p2351
I391
sVdns
p2352
I15
sVwait
p2353
I30
sVblocked
p2354
I0
ssVtime
p2355
I497
sVresponse
p2356
(dp2357
Vstatus
p2358
I200
sVcomment
p2359
g4
sVcookies
p2360
(lp2361
sVstatusText
p2362
VOK
p2363
sVcontent
p2364
(dp2365
VmimeType
p2366
Vapplication/font-woff2
p2367
sVcomment
p2368
g4
sVsize
p2369
I0
ssVheaders
p2370
(lp2371
sVheadersSize
p2372
I870
sVredirectURL
p2373
g4
sVbodySize
p2374
I58836
sVhttpVersion
p2375
VHTTP/1.1
p2376
ssa(dp2377
Vcomment
p2378
g4
sVserverIPAddress
p2379
V216.58.216.193
p2380
sVpageref
p2381
VStephen Curry
p2382
sVstartedDateTime
p2383
V2017-04-16T08:30:00.781-05:00
p2384
sVcache
p2385
(dp2386
sVrequest
p2387
(dp2388
Vcomment
p2389
g4
sVcookies
p2390
(lp2391
sVurl
p2392
Vhttps://s0-wp-com.cdn.ampproject.org/r/s/s0.wp.com/wp-content/themes/vip/espn-fivethirtyeight/assets/fonts/AtlasGrotesk-Regular-Web.woff2
p2393
sVqueryString
p2394
(lp2395
sVheaders
p2396
(lp2397
sVheadersSize
p2398
I665
sVbodySize
p2399
I0
sVmethod
p2400
VGET
p2401
sVhttpVersion
p2402
VHTTP/1.1
p2403
ssVtimings
p2404
(dp2405
Vcomment
p2406
g4
sVreceive
p2407
I34
sVsend
p2408
I0
sVssl
p2409
I378
sVconnect
p2410
I401
sVdns
p2411
I0
sVwait
p2412
I33
sVblocked
p2413
I0
ssVtime
p2414
I469
sVresponse
p2415
(dp2416
Vstatus
p2417
I200
sVcomment
p2418
g4
sVcookies
p2419
(lp2420
sVstatusText
p2421
VOK
p2422
sVcontent
p2423
(dp2424
VmimeType
p2425
Vapplication/font-woff2
p2426
sVcomment
p2427
g4
sVsize
p2428
I0
ssVheaders
p2429
(lp2430
sVheadersSize
p2431
I870
sVredirectURL
p2432
g4
sVbodySize
p2433
I43232
sVhttpVersion
p2434
VHTTP/1.1
p2435
ssa(dp2436
Vcomment
p2437
g4
sVserverIPAddress
p2438
V216.58.216.193
p2439
sVpageref
p2440
VStephen Curry
p2441
sVstartedDateTime
p2442
V2017-04-16T08:30:00.783-05:00
p2443
sVcache
p2444
(dp2445
sVrequest
p2446
(dp2447
Vcomment
p2448
g4
sVcookies
p2449
(lp2450
sVurl
p2451
Vhttps://s0-wp-com.cdn.ampproject.org/r/s/s0.wp.com/wp-content/themes/vip/espn-fivethirtyeight/assets/fonts/2F4FDA_0_0.woff2
p2452
sVqueryString
p2453
(lp2454
sVheaders
p2455
(lp2456
sVheadersSize
p2457
I651
sVbodySize
p2458
I0
sVmethod
p2459
VGET
p2460
sVhttpVersion
p2461
VHTTP/1.1
p2462
ssVtimings
p2463
(dp2464
Vcomment
p2465
g4
sVreceive
p2466
I26
sVsend
p2467
I0
sVssl
p2468
I379
sVconnect
p2469
I401
sVdns
p2470
I0
sVwait
p2471
I37
sVblocked
p2472
I0
ssVtime
p2473
I465
sVresponse
p2474
(dp2475
Vstatus
p2476
I200
sVcomment
p2477
g4
sVcookies
p2478
(lp2479
sVstatusText
p2480
VOK
p2481
sVcontent
p2482
(dp2483
VmimeType
p2484
Vapplication/font-woff2
p2485
sVcomment
p2486
g4
sVsize
p2487
I0
ssVheaders
p2488
(lp2489
sVheadersSize
p2490
I870
sVredirectURL
p2491
g4
sVbodySize
p2492
I18738
sVhttpVersion
p2493
VHTTP/1.1
p2494
ssa(dp2495
Vcomment
p2496
g4
sVserverIPAddress
p2497
V216.58.216.193
p2498
sVpageref
p2499
VStephen Curry
p2500
sVstartedDateTime
p2501
V2017-04-16T08:30:00.787-05:00
p2502
sVcache
p2503
(dp2504
sVrequest
p2505
(dp2506
Vcomment
p2507
g4
sVcookies
p2508
(lp2509
sVurl
p2510
Vhttps://s0-wp-com.cdn.ampproject.org/i/s/s0.wp.com/wp-content/themes/vip/espn-fivethirtyeight/assets/images/logo-fox-head-gray.svg
p2511
sVqueryString
p2512
(lp2513
sVheaders
p2514
(lp2515
sVheadersSize
p2516
I548
sVbodySize
p2517
I0
sVmethod
p2518
VGET
p2519
sVhttpVersion
p2520
VHTTP/1.1
p2521
ssVtimings
p2522
(dp2523
Vcomment
p2524
g4
sVreceive
p2525
I0
sVsend
p2526
I0
sVssl
p2527
I384
sVconnect
p2528
I406
sVdns
p2529
I29
sVwait
p2530
I34
sVblocked
p2531
I0
ssVtime
p2532
I469
sVresponse
p2533
(dp2534
Vstatus
p2535
I200
sVcomment
p2536
g4
sVcookies
p2537
(lp2538
sVstatusText
p2539
VOK
p2540
sVcontent
p2541
(dp2542
VmimeType
p2543
Vimage/svg+xml
p2544
sVcomment
p2545
g4
sVsize
p2546
I0
ssVheaders
p2547
(lp2548
sVheadersSize
p2549
I881
sVredirectURL
p2550
g4
sVbodySize
p2551
I430
sVhttpVersion
p2552
VHTTP/1.1
p2553
ssa(dp2554
Vcomment
p2555
g4
sVserverIPAddress
p2556
V216.58.216.193
p2557
sVpageref
p2558
VStephen Curry
p2559
sVstartedDateTime
p2560
V2017-04-16T08:30:00.829-05:00
p2561
sVcache
p2562
(dp2563
sVrequest
p2564
(dp2565
Vcomment
p2566
g4
sVcookies
p2567
(lp2568
sVurl
p2569
Vhttps://s0-wp-com.cdn.ampproject.org/r/s/s0.wp.com/wp-content/themes/vip/espn-fivethirtyeight/assets/fonts/2F4FDA_1_0.woff2
p2570
sVqueryString
p2571
(lp2572
sVheaders
p2573
(lp2574
sVheadersSize
p2575
I651
sVbodySize
p2576
I0
sVmethod
p2577
VGET
p2578
sVhttpVersion
p2579
VHTTP/1.1
p2580
ssVtimings
p2581
(dp2582
Vcomment
p2583
g4
sVreceive
p2584
I7
sVsend
p2585
I0
sVssl
p2586
I-1
sVconnect
p2587
I-1
sVdns
p2588
I-1
sVwait
p2589
I48
sVblocked
p2590
I-1
ssVtime
p2591
I56
sVresponse
p2592
(dp2593
Vstatus
p2594
I200
sVcomment
p2595
g4
sVcookies
p2596
(lp2597
sVstatusText
p2598
VOK
p2599
sVcontent
p2600
(dp2601
VmimeType
p2602
Vapplication/font-woff2
p2603
sVcomment
p2604
g4
sVsize
p2605
I0
ssVheaders
p2606
(lp2607
sVheadersSize
p2608
I870
sVredirectURL
p2609
g4
sVbodySize
p2610
I18490
sVhttpVersion
p2611
VHTTP/1.1
p2612
ssa(dp2613
Vcomment
p2614
g4
sVserverIPAddress
p2615
V216.58.216.193
p2616
sVpageref
p2617
VStephen Curry
p2618
sVstartedDateTime
p2619
V2017-04-16T08:30:00.844-05:00
p2620
sVcache
p2621
(dp2622
sVrequest
p2623
(dp2624
Vcomment
p2625
g4
sVcookies
p2626
(lp2627
sVurl
p2628
Vhttps://s0-wp-com.cdn.ampproject.org/r/s/s0.wp.com/wp-content/themes/vip/espn-fivethirtyeight/assets/fonts/ArnhemPro-Black.woff2
p2629
sVqueryString
p2630
(lp2631
sVheaders
p2632
(lp2633
sVheadersSize
p2634
I656
sVbodySize
p2635
I0
sVmethod
p2636
VGET
p2637
sVhttpVersion
p2638
VHTTP/1.1
p2639
ssVtimings
p2640
(dp2641
Vcomment
p2642
g4
sVreceive
p2643
I23
sVsend
p2644
I0
sVssl
p2645
I-1
sVconnect
p2646
I-1
sVdns
p2647
I-1
sVwait
p2648
I33
sVblocked
p2649
I-1
ssVtime
p2650
I57
sVresponse
p2651
(dp2652
Vstatus
p2653
I200
sVcomment
p2654
g4
sVcookies
p2655
(lp2656
sVstatusText
p2657
VOK
p2658
sVcontent
p2659
(dp2660
VmimeType
p2661
Vapplication/font-woff2
p2662
sVcomment
p2663
g4
sVsize
p2664
I0
ssVheaders
p2665
(lp2666
sVheadersSize
p2667
I870
sVredirectURL
p2668
g4
sVbodySize
p2669
I56088
sVhttpVersion
p2670
VHTTP/1.1
p2671
ssa(dp2672
Vcomment
p2673
g4
sVserverIPAddress
p2674
V216.58.216.193
p2675
sVpageref
p2676
VStephen Curry
p2677
sVstartedDateTime
p2678
V2017-04-16T08:30:01.634-05:00
p2679
sVcache
p2680
(dp2681
sVrequest
p2682
(dp2683
Vcomment
p2684
g4
sVcookies
p2685
(lp2686
sVurl
p2687
Vhttps://espnfivethirtyeight-files-wordpress-com.cdn.ampproject.org/i/s/espnfivethirtyeight.files.wordpress.com/2017/04/mvp-curry-lead.jpg?quality=100&strip=all&w=2048&ssl=1
p2688
sVqueryString
p2689
(lp2690
(dp2691
Vname
p2692
Vquality
p2693
sVvalue
p2694
V100
p2695
sa(dp2696
Vname
p2697
Vstrip
p2698
sVvalue
p2699
Vall
p2700
sa(dp2701
Vname
p2702
Vw
p2703
sVvalue
p2704
V2048
p2705
sa(dp2706
Vname
p2707
Vssl
p2708
sVvalue
p2709
g59
sasVheaders
p2710
(lp2711
sVheadersSize
p2712
I590
sVbodySize
p2713
I0
sVmethod
p2714
VGET
p2715
sVhttpVersion
p2716
VHTTP/1.1
p2717
ssVtimings
p2718
(dp2719
Vcomment
p2720
g4
sVreceive
p2721
I126
sVsend
p2722
I0
sVssl
p2723
I827
sVconnect
p2724
I849
sVdns
p2725
I32
sVwait
p2726
I35
sVblocked
p2727
I0
ssVtime
p2728
I1043
sVresponse
p2729
(dp2730
Vstatus
p2731
I200
sVcomment
p2732
g4
sVcookies
p2733
(lp2734
sVstatusText
p2735
VOK
p2736
sVcontent
p2737
(dp2738
VmimeType
p2739
Vimage/jpeg
p2740
sVcomment
p2741
g4
sVsize
p2742
I0
ssVheaders
p2743
(lp2744
sVheadersSize
p2745
I849
sVredirectURL
p2746
g4
sVbodySize
p2747
I80151
sVhttpVersion
p2748
VHTTP/1.1
p2749
ssa(dp2750
Vcomment
p2751
g4
sVserverIPAddress
p2752
V172.217.6.4
p2753
sVpageref
p2754
VStephen Curry
p2755
sVstartedDateTime
p2756
V2017-04-16T08:30:01.750-05:00
p2757
sVcache
p2758
(dp2759
sVrequest
p2760
(dp2761
Vcomment
p2762
g4
sVcookies
p2763
(lp2764
sVurl
p2765
Vhttps://www.google.com/gen_204?atyp=i&ct=slh&cad=&ei=nXHzWIKbPKXSjwSo65mwDg&m=V&t=C&s=1&v=2&pv=0.9959760588225225&me=1:1492349344537,x:1,V,0,0,1280,944:0,N,1,nXHzWIKbPKXSjwSo65mwDg:0,R,1,24,8,155,1249,579:0,R,1,28,8,268,1249,332:0,R,1,29,0,269,1265,351:0,R,1,60,8,600,1249,134:0,R,1,91,8,744,1249,409:0,R,1,92,8,744,1249,409:0,R,1,95,8,757,1249,40:0,R,1,108,8,809,1249,170:0,R,1,111,0,825,1265,189:2,B,3148:11100,e,U&zx=1492349401748
p2766
sVqueryString
p2767
(lp2768
(dp2769
Vname
p2770
Vatyp
p2771
sVvalue
p2772
g30
sa(dp2773
Vname
p2774
Vct
p2775
sVvalue
p2776
Vslh
p2777
sa(dp2778
Vname
p2779
Vcad
p2780
sVvalue
p2781
g4
sa(dp2782
Vname
p2783
Vei
p2784
sVvalue
p2785
VnXHzWIKbPKXSjwSo65mwDg
p2786
sa(dp2787
Vname
p2788
g47
sVvalue
p2789
g49
sa(dp2790
Vname
p2791
g52
sVvalue
p2792
g54
sa(dp2793
Vname
p2794
g57
sVvalue
p2795
g59
sa(dp2796
Vname
p2797
g62
sVvalue
p2798
g64
sa(dp2799
Vname
p2800
Vpv
p2801
sVvalue
p2802
V0.9959760588225225
p2803
sa(dp2804
Vname
p2805
Vme
p2806
sVvalue
p2807
V1:1492349344537,x:1,V,0,0,1280,944:0,N,1,nXHzWIKbPKXSjwSo65mwDg:0,R,1,24,8,155,1249,579:0,R,1,28,8,268,1249,332:0,R,1,29,0,269,1265,351:0,R,1,60,8,600,1249,134:0,R,1,91,8,744,1249,409:0,R,1,92,8,744,1249,409:0,R,1,95,8,757,1249,40:0,R,1,108,8,809,1249,170:0,R,1,111,0,825,1265,189:2,B,3148:11100,e,U
p2808
sa(dp2809
Vname
p2810
Vzx
p2811
sVvalue
p2812
V1492349401748
p2813
sasVheaders
p2814
(lp2815
sVheadersSize
p2816
I950
sVbodySize
p2817
I0
sVmethod
p2818
VGET
p2819
sVhttpVersion
p2820
VHTTP/1.1
p2821
ssVtimings
p2822
(dp2823
Vcomment
p2824
g4
sVreceive
p2825
I0
sVsend
p2826
I0
sVssl
p2827
I-1
sVconnect
p2828
I-1
sVdns
p2829
I-1
sVwait
p2830
I47
sVblocked
p2831
I-1
ssVtime
p2832
I47
sVresponse
p2833
(dp2834
Vstatus
p2835
I204
sVcomment
p2836
g4
sVcookies
p2837
(lp2838
sVstatusText
p2839
VNo Content
p2840
sVcontent
p2841
(dp2842
VmimeType
p2843
Vtext/html; charset=UTF-8
p2844
sVcomment
p2845
g4
sVsize
p2846
I0
ssVheaders
p2847
(lp2848
sVheadersSize
p2849
I248
sVredirectURL
p2850
g4
sVbodySize
p2851
I0
sVhttpVersion
p2852
VHTTP/1.1
p2853
ssa(dp2854
Vcomment
p2855
g4
sVserverIPAddress
p2856
V172.217.6.4
p2857
sVpageref
p2858
VStephen Curry
p2859
sVstartedDateTime
p2860
V2017-04-16T08:30:01.825-05:00
p2861
sVcache
p2862
(dp2863
sVrequest
p2864
(dp2865
Vcomment
p2866
g4
sVcookies
p2867
(lp2868
sVurl
p2869
Vhttps://www.google.com/gen_204?s=web&atyp=csi&ei=1XHzWJdqrPiPBOX5hfAG&imc=27&imn=27&imp=19&adh=&xjs=init.42.15.sb_mob.32.dvl.3.mbsf.2.c.1.jsa.1&ima=9&rt=prt.993,iml.1086,xjsls.994,dcl.1059,qiml.1263,xjses.1191,xjsee.1380,xjs.1381,ol.3687,aft.1063,wsrt.110,cst.0,dnst.0,rqst.985,rspt.885,rqstt.2,unt.2,cstt.2,dit.1117
p2870
sVqueryString
p2871
(lp2872
(dp2873
Vname
p2874
g57
sVvalue
p2875
Vweb
p2876
sa(dp2877
Vname
p2878
Vatyp
p2879
sVvalue
p2880
Vcsi
p2881
sa(dp2882
Vname
p2883
Vei
p2884
sVvalue
p2885
V1XHzWJdqrPiPBOX5hfAG
p2886
sa(dp2887
Vname
p2888
Vimc
p2889
sVvalue
p2890
V27
p2891
sa(dp2892
Vname
p2893
Vimn
p2894
sVvalue
p2895
V27
p2896
sa(dp2897
Vname
p2898
Vimp
p2899
sVvalue
p2900
V19
p2901
sa(dp2902
Vname
p2903
Vadh
p2904
sVvalue
p2905
g4
sa(dp2906
Vname
p2907
Vxjs
p2908
sVvalue
p2909
Vinit.42.15.sb_mob.32.dvl.3.mbsf.2.c.1.jsa.1
p2910
sa(dp2911
Vname
p2912
Vima
p2913
sVvalue
p2914
g1982
sa(dp2915
Vname
p2916
Vrt
p2917
sVvalue
p2918
Vprt.993,iml.1086,xjsls.994,dcl.1059,qiml.1263,xjses.1191,xjsee.1380,xjs.1381,ol.3687,aft.1063,wsrt.110,cst.0,dnst.0,rqst.985,rspt.885,rqstt.2,unt.2,cstt.2,dit.1117
p2919
sasVheaders
p2920
(lp2921
sVheadersSize
p2922
I833
sVbodySize
p2923
I0
sVmethod
p2924
VGET
p2925
sVhttpVersion
p2926
VHTTP/1.1
p2927
ssVtimings
p2928
(dp2929
Vcomment
p2930
g4
sVreceive
p2931
I0
sVsend
p2932
I0
sVssl
p2933
I-1
sVconnect
p2934
I-1
sVdns
p2935
I-1
sVwait
p2936
I40
sVblocked
p2937
I-1
ssVtime
p2938
I40
sVresponse
p2939
(dp2940
Vstatus
p2941
I204
sVcomment
p2942
g4
sVcookies
p2943
(lp2944
sVstatusText
p2945
VNo Content
p2946
sVcontent
p2947
(dp2948
VmimeType
p2949
Vtext/html; charset=UTF-8
p2950
sVcomment
p2951
g4
sVsize
p2952
I0
ssVheaders
p2953
(lp2954
sVheadersSize
p2955
I248
sVredirectURL
p2956
g4
sVbodySize
p2957
I0
sVhttpVersion
p2958
VHTTP/1.1
p2959
ssasVversion
p2960
V1.2
p2961
sVpages
p2962
(lp2963
(dp2964
VpageTimings
p2965
(dp2966
Vcomment
p2967
g4
ssVcomment
p2968
g4
sVtitle
p2969
VStephen Curry
p2970
sVid
p2971
VStephen Curry
p2972
sVstartedDateTime
p2973
V2017-04-16T08:29:57.389-05:00
p2974
sasVcreator
p2975
(dp2976
Vcomment
p2977
g4
sVversion
p2978
V2.1.4
p2979
sVname
p2980
VBrowserMob Proxy
p2981
sss.