(dp0
Vlog
p1
(dp2
Vcomment
p3
V
p4
sVentries
p5
(lp6
(dp7
Vcomment
p8
g4
sVserverIPAddress
p9
V216.58.216.196
p10
sVpageref
p11
VGiant Panda
p12
sVstartedDateTime
p13
V2017-04-16T08:14:09.748-05:00
p14
sVcache
p15
(dp16
sVrequest
p17
(dp18
Vcomment
p19
g4
sVcookies
p20
(lp21
sVurl
p22
Vhttps://www.google.com/gen_204?atyp=i&ct=slh&cad=&ei=Dm7zWIimNYXijwTPlLRA&m=V&t=C&s=1&v=2&pv=0.514992098051889&me=1:1492348433991,x:2,V,0,0,1280,944:0,N,1,Dm7zWIimNYXijwTPlLRA:0,R,1,24,8,155,1249,528:0,R,1,28,8,268,1249,332:0,R,1,29,0,269,1265,351:0,R,1,60,8,600,1249,83:0,R,1,82,8,693,1249,775:0,R,1,83,8,693,1249,775:0,R,1,86,8,706,1249,40:0,R,1,99,8,757,1249,178:0,R,1,102,0,773,1265,197:2,B,3960:15752,e,U&zx=1492348449747
p23
sVqueryString
p24
(lp25
(dp26
Vname
p27
Vatyp
p28
sVvalue
p29
Vi
p30
sa(dp31
Vname
p32
Vct
p33
sVvalue
p34
Vslh
p35
sa(dp36
Vname
p37
Vcad
p38
sVvalue
p39
g4
sa(dp40
Vname
p41
Vei
p42
sVvalue
p43
VDm7zWIimNYXijwTPlLRA
p44
sa(dp45
Vname
p46
Vm
p47
sVvalue
p48
VV
p49
sa(dp50
Vname
p51
Vt
p52
sVvalue
p53
VC
p54
sa(dp55
Vname
p56
Vs
p57
sVvalue
p58
V1
p59
sa(dp60
Vname
p61
Vv
p62
sVvalue
p63
V2
p64
sa(dp65
Vname
p66
Vpv
p67
sVvalue
p68
V0.514992098051889
p69
sa(dp70
Vname
p71
Vme
p72
sVvalue
p73
V1:1492348433991,x:2,V,0,0,1280,944:0,N,1,Dm7zWIimNYXijwTPlLRA:0,R,1,24,8,155,1249,528:0,R,1,28,8,268,1249,332:0,R,1,29,0,269,1265,351:0,R,1,60,8,600,1249,83:0,R,1,82,8,693,1249,775:0,R,1,83,8,693,1249,775:0,R,1,86,8,706,1249,40:0,R,1,99,8,757,1249,178:0,R,1,102,0,773,1265,197:2,B,3960:15752,e,U
p74
sa(dp75
Vname
p76
Vzx
p77
sVvalue
p78
V1492348449747
p79
sasVheaders
p80
(lp81
sVheadersSize
p82
I943
sVbodySize
p83
I0
sVmethod
p84
VGET
p85
sVhttpVersion
p86
VHTTP/1.1
p87
ssVtimings
p88
(dp89
Vcomment
p90
g4
sVreceive
p91
I0
sVsend
p92
I0
sVssl
p93
I-1
sVconnect
p94
I-1
sVdns
p95
I-1
sVwait
p96
I0
sVblocked
p97
I-1
ssVtime
p98
I0
sVresponse
p99
(dp100
Vstatus
p101
I0
sVcomment
p102
g4
sVcookies
p103
(lp104
sV_error
p105
VNo response received
p106
sVstatusText
p107
g4
sVcontent
p108
(dp109
VmimeType
p110
g4
sVcomment
p111
g4
sVsize
p112
I0
ssVheaders
p113
(lp114
sVheadersSize
p115
I-1
sVredirectURL
p116
g4
sVbodySize
p117
I-1
sVhttpVersion
p118
Vunknown
p119
ssa(dp120
Vcomment
p121
g4
sVserverIPAddress
p122
V216.58.216.196
p123
sVpageref
p124
VGiant Panda
p125
sVstartedDateTime
p126
V2017-04-16T08:14:09.753-05:00
p127
sVcache
p128
(dp129
sVrequest
p130
(dp131
Vcomment
p132
g4
sVcookies
p133
(lp134
sVurl
p135
Vhttp://www.google.com/
p136
sVqueryString
p137
(lp138
sVheaders
p139
(lp140
sVheadersSize
p141
I613
sVbodySize
p142
I0
sVmethod
p143
VGET
p144
sVhttpVersion
p145
VHTTP/1.1
p146
ssVtimings
p147
(dp148
Vcomment
p149
g4
sVreceive
p150
I0
sVsend
p151
I0
sVssl
p152
I-1
sVconnect
p153
I-1
sVdns
p154
I-1
sVwait
p155
I548
sVblocked
p156
I-1
ssVtime
p157
I548
sVresponse
p158
(dp159
Vstatus
p160
I302
sVcomment
p161
g4
sVcookies
p162
(lp163
sVstatusText
p164
VFound
p165
sVcontent
p166
(dp167
VmimeType
p168
Vtext/html; charset=UTF-8
p169
sVcomment
p170
g4
sVsize
p171
I0
ssVheaders
p172
(lp173
sVheadersSize
p174
I609
sVredirectURL
p175
Vhttps://www.google.com/?gws_rd=ssl
p176
sVbodySize
p177
I231
sVhttpVersion
p178
VHTTP/1.1
p179
ssa(dp180
Vcomment
p181
g4
sVserverIPAddress
p182
V216.58.216.196
p183
sVpageref
p184
VGiant Panda
p185
sVstartedDateTime
p186
V2017-04-16T08:14:10.306-05:00
p187
sVcache
p188
(dp189
sVrequest
p190
(dp191
Vcomment
p192
g4
sVcookies
p193
(lp194
sVurl
p195
Vhttps://www.google.com/?gws_rd=ssl
p196
sVqueryString
p197
(lp198
(dp199
Vname
p200
Vgws_rd
p201
sVvalue
p202
Vssl
p203
sasVheaders
p204
(lp205
sVheadersSize
p206
I607
sVbodySize
p207
I0
sVmethod
p208
VGET
p209
sVhttpVersion
p210
VHTTP/1.1
p211
ssVtimings
p212
(dp213
Vcomment
p214
g4
sVreceive
p215
I23
sVsend
p216
I0
sVssl
p217
I-1
sVconnect
p218
I-1
sVdns
p219
I-1
sVwait
p220
I76
sVblocked
p221
I-1
ssVtime
p222
I100
sVresponse
p223
(dp224
Vstatus
p225
I200
sVcomment
p226
g4
sVcookies
p227
(lp228
sVstatusText
p229
VOK
p230
sVcontent
p231
(dp232
VmimeType
p233
Vtext/html; charset=UTF-8
p234
sVcomment
p235
g4
sVsize
p236
I0
ssVheaders
p237
(lp238
sVheadersSize
p239
I721
sVredirectURL
p240
g4
sVbodySize
p241
I34293
sVhttpVersion
p242
VHTTP/1.1
p243
ssa(dp244
Vcomment
p245
g4
sVserverIPAddress
p246
V216.58.216.196
p247
sVpageref
p248
VGiant Panda
p249
sVstartedDateTime
p250
V2017-04-16T08:14:10.389-05:00
p251
sVcache
p252
(dp253
sVrequest
p254
(dp255
Vcomment
p256
g4
sVcookies
p257
(lp258
sVurl
p259
Vhttps://www.google.com/gen_204?atyp=i&ct=slh&cad=&ei=Dm7zWIimNYXijwTPlLRA&s=2&v=2&pv=0.514992098051889&me=15:1492348450384,e,H&zx=1492348450386
p260
sVqueryString
p261
(lp262
(dp263
Vname
p264
Vatyp
p265
sVvalue
p266
g30
sa(dp267
Vname
p268
Vct
p269
sVvalue
p270
Vslh
p271
sa(dp272
Vname
p273
Vcad
p274
sVvalue
p275
g4
sa(dp276
Vname
p277
Vei
p278
sVvalue
p279
VDm7zWIimNYXijwTPlLRA
p280
sa(dp281
Vname
p282
g57
sVvalue
p283
g64
sa(dp284
Vname
p285
g62
sVvalue
p286
g64
sa(dp287
Vname
p288
Vpv
p289
sVvalue
p290
V0.514992098051889
p291
sa(dp292
Vname
p293
Vme
p294
sVvalue
p295
V15:1492348450384,e,H
p296
sa(dp297
Vname
p298
Vzx
p299
sVvalue
p300
V1492348450386
p301
sasVheaders
p302
(lp303
sVheadersSize
p304
I660
sVbodySize
p305
I0
sVmethod
p306
VGET
p307
sVhttpVersion
p308
VHTTP/1.1
p309
ssVtimings
p310
(dp311
Vcomment
p312
g4
sVreceive
p313
I0
sVsend
p314
I0
sVssl
p315
I-1
sVconnect
p316
I-1
sVdns
p317
I-1
sVwait
p318
I33
sVblocked
p319
I-1
ssVtime
p320
I33
sVresponse
p321
(dp322
Vstatus
p323
I204
sVcomment
p324
g4
sVcookies
p325
(lp326
sVstatusText
p327
VNo Content
p328
sVcontent
p329
(dp330
VmimeType
p331
Vtext/html; charset=UTF-8
p332
sVcomment
p333
g4
sVsize
p334
I0
ssVheaders
p335
(lp336
sVheadersSize
p337
I248
sVredirectURL
p338
g4
sVbodySize
p339
I0
sVhttpVersion
p340
VHTTP/1.1
p341
ssa(dp342
Vcomment
p343
g4
sVserverIPAddress
p344
V216.58.216.196
p345
sVpageref
p346
VGiant Panda
p347
sVstartedDateTime
p348
V2017-04-16T08:14:10.598-05:00
p349
sVcache
p350
(dp351
sVrequest
p352
(dp353
Vcomment
p354
g4
sVcookies
p355
(lp356
sVurl
p357
Vhttps://www.google.com/gen_204?s=mobilewebhp&atyp=csi&ei=IW7zWNKXE-i0jwSMj6rwDA&imc=1&imn=1&imp=0&adh=&xjs=init.24.12.sb_mob.17.dvl.3.c.1.jsa.1.mbsf.1&ima=1&rt=xjsls.8,prt.8,iml.8,dcl.31,xjses.76,xjsee.155,xjs.156,ol.190,aft.8,wsrt.653,cst.0,dnst.0,rqst.101,rspt.24,rqstt.559,unt.556,cstt.556,dit.676
p358
sVqueryString
p359
(lp360
(dp361
Vname
p362
g57
sVvalue
p363
Vmobilewebhp
p364
sa(dp365
Vname
p366
Vatyp
p367
sVvalue
p368
Vcsi
p369
sa(dp370
Vname
p371
Vei
p372
sVvalue
p373
VIW7zWNKXE-i0jwSMj6rwDA
p374
sa(dp375
Vname
p376
Vimc
p377
sVvalue
p378
g59
sa(dp379
Vname
p380
Vimn
p381
sVvalue
p382
g59
sa(dp383
Vname
p384
Vimp
p385
sVvalue
p386
V0
p387
sa(dp388
Vname
p389
Vadh
p390
sVvalue
p391
g4
sa(dp392
Vname
p393
Vxjs
p394
sVvalue
p395
Vinit.24.12.sb_mob.17.dvl.3.c.1.jsa.1.mbsf.1
p396
sa(dp397
Vname
p398
Vima
p399
sVvalue
p400
g59
sa(dp401
Vname
p402
Vrt
p403
sVvalue
p404
Vxjsls.8,prt.8,iml.8,dcl.31,xjses.76,xjsee.155,xjs.156,ol.190,aft.8,wsrt.653,cst.0,dnst.0,rqst.101,rspt.24,rqstt.559,unt.556,cstt.556,dit.676
p405
sasVheaders
p406
(lp407
sVheadersSize
p408
I828
sVbodySize
p409
I0
sVmethod
p410
VGET
p411
sVhttpVersion
p412
VHTTP/1.1
p413
ssVtimings
p414
(dp415
Vcomment
p416
g4
sVreceive
p417
I0
sVsend
p418
I0
sVssl
p419
I-1
sVconnect
p420
I-1
sVdns
p421
I-1
sVwait
p422
I33
sVblocked
p423
I-1
ssVtime
p424
I33
sVresponse
p425
(dp426
Vstatus
p427
I204
sVcomment
p428
g4
sVcookies
p429
(lp430
sVstatusText
p431
VNo Content
p432
sVcontent
p433
(dp434
VmimeType
p435
Vtext/html; charset=UTF-8
p436
sVcomment
p437
g4
sVsize
p438
I0
ssVheaders
p439
(lp440
sVheadersSize
p441
I248
sVredirectURL
p442
g4
sVbodySize
p443
I0
sVhttpVersion
p444
VHTTP/1.1
p445
ssa(dp446
Vcomment
p447
g4
sVserverIPAddress
p448
V216.58.216.196
p449
sVpageref
p450
VGiant Panda
p451
sVstartedDateTime
p452
V2017-04-16T08:14:10.723-05:00
p453
sVcache
p454
(dp455
sVrequest
p456
(dp457
Vcomment
p458
g4
sVcookies
p459
(lp460
sVurl
p461
Vhttps://www.google.com/complete/search?client=mobile-gws-hp&hl=en&gs_rn=64&gs_ri=mobile-gws-hp&sla=1&pfq=gorilla&gm=602&cp=0&gs_id=1&xhr=t&q=G&tch=1&ech=1&psi=IW7zWNKXE-i0jwSMj6rwDA.1492348450532.1
p462
sVqueryString
p463
(lp464
(dp465
Vname
p466
Vclient
p467
sVvalue
p468
Vmobile-gws-hp
p469
sa(dp470
Vname
p471
Vhl
p472
sVvalue
p473
Ven
p474
sa(dp475
Vname
p476
Vgs_rn
p477
sVvalue
p478
V64
p479
sa(dp480
Vname
p481
Vgs_ri
p482
sVvalue
p483
Vmobile-gws-hp
p484
sa(dp485
Vname
p486
Vsla
p487
sVvalue
p488
g59
sa(dp489
Vname
p490
Vpfq
p491
sVvalue
p492
Vgorilla
p493
sa(dp494
Vname
p495
Vgm
p496
sVvalue
p497
V602
p498
sa(dp499
Vname
p500
Vcp
p501
sVvalue
p502
g387
sa(dp503
Vname
p504
Vgs_id
p505
sVvalue
p506
g59
sa(dp507
Vname
p508
Vxhr
p509
sVvalue
p510
g52
sa(dp511
Vname
p512
Vq
p513
sVvalue
p514
VG
p515
sa(dp516
Vname
p517
Vtch
p518
sVvalue
p519
g59
sa(dp520
Vname
p521
Vech
p522
sVvalue
p523
g59
sa(dp524
Vname
p525
Vpsi
p526
sVvalue
p527
VIW7zWNKXE-i0jwSMj6rwDA.1492348450532.1
p528
sasVheaders
p529
(lp530
sVheadersSize
p531
I725
sVbodySize
p532
I0
sVmethod
p533
VGET
p534
sVhttpVersion
p535
VHTTP/1.1
p536
ssVtimings
p537
(dp538
Vcomment
p539
g4
sVreceive
p540
I0
sVsend
p541
I0
sVssl
p542
I-1
sVconnect
p543
I-1
sVdns
p544
I-1
sVwait
p545
I0
sVblocked
p546
I-1
ssVtime
p547
I0
sVresponse
p548
(dp549
Vstatus
p550
I0
sVcomment
p551
g4
sVcookies
p552
(lp553
sV_error
p554
VNo response received
p555
sVstatusText
p556
g4
sVcontent
p557
(dp558
VmimeType
p559
g4
sVcomment
p560
g4
sVsize
p561
I0
ssVheaders
p562
(lp563
sVheadersSize
p564
I-1
sVredirectURL
p565
g4
sVbodySize
p566
I-1
sVhttpVersion
p567
Vunknown
p568
ssa(dp569
Vcomment
p570
g4
sVserverIPAddress
p571
V216.58.216.196
p572
sVpageref
p573
VGiant Panda
p574
sVstartedDateTime
p575
V2017-04-16T08:14:10.876-05:00
p576
sVcache
p577
(dp578
sVrequest
p579
(dp580
Vcomment
p581
g4
sVcookies
p582
(lp583
sVurl
p584
Vhttps://www.google.com/search?site=&source=hp&ei=IW7zWNKXE-i0jwSMj6rwDA&q=Giant+Panda&oq=Giant+Panda&gs_l=mobile-gws-hp.3...169.201.0.320.11.1.0.0.0.0.0.0..0.0....0...1c.1.64.mobile-gws-hp..11.0.0.uI2gX2TJ7NU
p585
sVqueryString
p586
(lp587
(dp588
Vname
p589
Vsite
p590
sVvalue
p591
g4
sa(dp592
Vname
p593
Vsource
p594
sVvalue
p595
Vhp
p596
sa(dp597
Vname
p598
Vei
p599
sVvalue
p600
VIW7zWNKXE-i0jwSMj6rwDA
p601
sa(dp602
Vname
p603
g513
sVvalue
p604
VGiant Panda
p605
sa(dp606
Vname
p607
Voq
p608
sVvalue
p609
VGiant Panda
p610
sa(dp611
Vname
p612
Vgs_l
p613
sVvalue
p614
Vmobile-gws-hp.3...169.201.0.320.11.1.0.0.0.0.0.0..0.0....0...1c.1.64.mobile-gws-hp..11.0.0.uI2gX2TJ7NU
p615
sasVheaders
p616
(lp617
sVheadersSize
p618
I826
sVbodySize
p619
I0
sVmethod
p620
VGET
p621
sVhttpVersion
p622
VHTTP/1.1
p623
ssVtimings
p624
(dp625
Vcomment
p626
g4
sVreceive
p627
I756
sVsend
p628
I0
sVssl
p629
I-1
sVconnect
p630
I-1
sVdns
p631
I-1
sVwait
p632
I95
sVblocked
p633
I-1
ssVtime
p634
I852
sVresponse
p635
(dp636
Vstatus
p637
I200
sVcomment
p638
g4
sVcookies
p639
(lp640
sVstatusText
p641
VOK
p642
sVcontent
p643
(dp644
VmimeType
p645
Vtext/html; charset=UTF-8
p646
sVcomment
p647
g4
sVsize
p648
I0
ssVheaders
p649
(lp650
sVheadersSize
p651
I363
sVredirectURL
p652
g4
sVbodySize
p653
I122234
sVhttpVersion
p654
VHTTP/1.1
p655
ssa(dp656
Vcomment
p657
g4
sVserverIPAddress
p658
V216.58.216.196
p659
sVpageref
p660
VGiant Panda
p661
sVstartedDateTime
p662
V2017-04-16T08:14:11.686-05:00
p663
sVcache
p664
(dp665
sVrequest
p666
(dp667
Vcomment
p668
g4
sVcookies
p669
(lp670
sVurl
p671
Vhttps://www.google.com/gen_204?atyp=i&ct=&cad=udla=1&ei=IW7zWJDPNuzKjwTYrakY&b=0&act=p&ps=0&zx=1492348451685
p672
sVqueryString
p673
(lp674
(dp675
Vname
p676
Vatyp
p677
sVvalue
p678
g30
sa(dp679
Vname
p680
Vct
p681
sVvalue
p682
g4
sa(dp683
Vname
p684
Vcad
p685
sVvalue
p686
Vudla=1
p687
sa(dp688
Vname
p689
Vei
p690
sVvalue
p691
VIW7zWJDPNuzKjwTYrakY
p692
sa(dp693
Vname
p694
Vb
p695
sVvalue
p696
g387
sa(dp697
Vname
p698
Vact
p699
sVvalue
p700
Vp
p701
sa(dp702
Vname
p703
Vps
p704
sVvalue
p705
g387
sa(dp706
Vname
p707
Vzx
p708
sVvalue
p709
V1492348451685
p710
sasVheaders
p711
(lp712
sVheadersSize
p713
I625
sVbodySize
p714
I0
sVmethod
p715
VGET
p716
sVhttpVersion
p717
VHTTP/1.1
p718
ssVtimings
p719
(dp720
Vcomment
p721
g4
sVreceive
p722
I0
sVsend
p723
I0
sVssl
p724
I-1
sVconnect
p725
I-1
sVdns
p726
I-1
sVwait
p727
I32
sVblocked
p728
I-1
ssVtime
p729
I33
sVresponse
p730
(dp731
Vstatus
p732
I204
sVcomment
p733
g4
sVcookies
p734
(lp735
sVstatusText
p736
VNo Content
p737
sVcontent
p738
(dp739
VmimeType
p740
Vtext/html; charset=UTF-8
p741
sVcomment
p742
g4
sVsize
p743
I0
ssVheaders
p744
(lp745
sVheadersSize
p746
I248
sVredirectURL
p747
g4
sVbodySize
p748
I0
sVhttpVersion
p749
VHTTP/1.1
p750
ssa(dp751
Vcomment
p752
g4
sVserverIPAddress
p753
V216.58.216.196
p754
sVpageref
p755
VGiant Panda
p756
sVstartedDateTime
p757
V2017-04-16T08:14:12.102-05:00
p758
sVcache
p759
(dp760
sVrequest
p761
(dp762
Vcomment
p763
g4
sVcookies
p764
(lp765
sVurl
p766
Vhttps://www.google.com/xjs/_/js/k=xjs.qs.en_US.pCBXVCvTH3s.O/m=syl,syj,syn,em3,em8,em6,em7,sym,aa,abd,sy2g,sy2k,sy29,sy2j,sy2d,sy2a,sy2c,sy2f,sy2l,sy2m,sy2n,emd,async,sybn,sybi,sybo,sy1f,sy45,sy46,sy9w,sybk,sybj,sybp,sy1g,sy30,sy47,sybm,sybl,sybq,sy1h,sybh,dvl,syep,foot,ipv6,sy32,emj,shm,sy5g,sy5i,sy5k,sykh,tl,sy2x,sy2y,sy2t,sy38,em12,vs,sy5j,sy5h,sy6u,sy66,sy67,sy7d,sy7j,sy4u,sy69,sy89,sy7e,sykk,sykl,tnv,bct,sy1y,sy23,sy2u,sy22,sy6i,sy34,sy31,sy6j,sy25,sy6l,sy6k,sy6h,emb,em9,ema,sy6m,qkx,sy4d,sy4f,sy4c,sy4e,sy24,sy4b,sy6w,shrb,sy4g,syd7,dgm,syf5,syf6,syf8,sygb,syg9,kptm,sy99,syf4,sy26,syfc,syfn,syf7,syff,sy1i,sy68,sy8d,sy9b,syfl,syfr,syfq,syfg,sy1j,sy4q,sy5o,sy5r,sy6n,sy6p,sy8h,syc7,syc8,syfb,syfj,syfs,syft,syg3,syg5,syg7,emn,emo,syg4,syg6,ivg,sy9m,syac,sy9n,syhz,syl6,ssc,iuci,img,sy41,tcc,sygq,kpc,kpci,sy4h,vrml,sy6y,sycu,d3l,sy5z,atn,sya3,sya2,sy4i,sya1,sya4,ampfp/am=gCP4LtMEBXQA2RUaq_oFBISzAFA/rt=j/d=0/t=zcms/rs=ACT90oFwm4NZCwIcuuiqmthdlECdBzkhRA
p767
sVqueryString
p768
(lp769
sVheaders
p770
(lp771
sVheadersSize
p772
I1481
sVbodySize
p773
I0
sVmethod
p774
VGET
p775
sVhttpVersion
p776
VHTTP/1.1
p777
ssVtimings
p778
(dp779
Vcomment
p780
g4
sVreceive
p781
I14
sVsend
p782
I0
sVssl
p783
I-1
sVconnect
p784
I-1
sVdns
p785
I-1
sVwait
p786
I20
sVblocked
p787
I-1
ssVtime
p788
I34
sVresponse
p789
(dp790
Vstatus
p791
I200
sVcomment
p792
g4
sVcookies
p793
(lp794
sVstatusText
p795
VOK
p796
sVcontent
p797
(dp798
VmimeType
p799
Vtext/javascript; charset=UTF-8
p800
sVcomment
p801
g4
sVsize
p802
I0
ssVheaders
p803
(lp804
sVheadersSize
p805
I465
sVredirectURL
p806
g4
sVbodySize
p807
I110834
sVhttpVersion
p808
VHTTP/1.1
p809
ssa(dp810
Vcomment
p811
g4
sVserverIPAddress
p812
V216.58.216.196
p813
sVpageref
p814
VGiant Panda
p815
sVstartedDateTime
p816
V2017-04-16T08:14:12.268-05:00
p817
sVcache
p818
(dp819
sVrequest
p820
(dp821
Vcomment
p822
g4
sVcookies
p823
(lp824
sVurl
p825
Vhttps://www.google.com/async/irc?vet=10ahUKEwjQ4_KZh6nTAhVs5YMKHdhWCgMQo0EI5AE..i&ved=0ahUKEwjQ4_KZh6nTAhVs5YMKHdhWCgMQo0EI5AE&ei=IW7zWJDPNuzKjwTYrakY&yv=2&async=iu:1,ved:0ahUKEwjQ4_KZh6nTAhVs5YMKHdhWCgMQo0EI5AE,_id:irc_async,_pms:qs
p826
sVqueryString
p827
(lp828
(dp829
Vname
p830
Vvet
p831
sVvalue
p832
V10ahUKEwjQ4_KZh6nTAhVs5YMKHdhWCgMQo0EI5AE..i
p833
sa(dp834
Vname
p835
Vved
p836
sVvalue
p837
V0ahUKEwjQ4_KZh6nTAhVs5YMKHdhWCgMQo0EI5AE
p838
sa(dp839
Vname
p840
Vei
p841
sVvalue
p842
VIW7zWJDPNuzKjwTYrakY
p843
sa(dp844
Vname
p845
Vyv
p846
sVvalue
p847
g64
sa(dp848
Vname
p849
Vasync
p850
sVvalue
p851
Viu:1,ved:0ahUKEwjQ4_KZh6nTAhVs5YMKHdhWCgMQo0EI5AE,_id:irc_async,_pms:qs
p852
sasVheaders
p853
(lp854
sVheadersSize
p855
I750
sVbodySize
p856
I0
sVmethod
p857
VGET
p858
sVhttpVersion
p859
VHTTP/1.1
p860
ssVtimings
p861
(dp862
Vcomment
p863
g4
sVreceive
p864
I1
sVsend
p865
I0
sVssl
p866
I-1
sVconnect
p867
I-1
sVdns
p868
I-1
sVwait
p869
I39
sVblocked
p870
I-1
ssVtime
p871
I40
sVresponse
p872
(dp873
Vstatus
p874
I200
sVcomment
p875
g4
sVcookies
p876
(lp877
sVstatusText
p878
VOK
p879
sVcontent
p880
(dp881
VmimeType
p882
Vtext/html; charset=UTF-8
p883
sVcomment
p884
g4
sVsize
p885
I0
ssVheaders
p886
(lp887
sVheadersSize
p888
I383
sVredirectURL
p889
g4
sVbodySize
p890
I7791
sVhttpVersion
p891
VHTTP/1.1
p892
ssa(dp893
Vcomment
p894
g4
sVserverIPAddress
p895
V216.58.216.196
p896
sVpageref
p897
VGiant Panda
p898
sVstartedDateTime
p899
V2017-04-16T08:14:12.281-05:00
p900
sVcache
p901
(dp902
sVrequest
p903
(dp904
Vcomment
p905
g4
sVcookies
p906
(lp907
sVurl
p908
Vhttps://www.google.com/gen_204?atyp=i&ct=&cad=&vet=10ahUKEwjQ4_KZh6nTAhVs5YMKHdhWCgMQ5W0IMygC..s&ei=IW7zWJDPNuzKjwTYrakY&zx=1492348452280
p909
sVqueryString
p910
(lp911
(dp912
Vname
p913
Vatyp
p914
sVvalue
p915
g30
sa(dp916
Vname
p917
Vct
p918
sVvalue
p919
g4
sa(dp920
Vname
p921
Vcad
p922
sVvalue
p923
g4
sa(dp924
Vname
p925
Vvet
p926
sVvalue
p927
V10ahUKEwjQ4_KZh6nTAhVs5YMKHdhWCgMQ5W0IMygC..s
p928
sa(dp929
Vname
p930
Vei
p931
sVvalue
p932
VIW7zWJDPNuzKjwTYrakY
p933
sa(dp934
Vname
p935
Vzx
p936
sVvalue
p937
V1492348452280
p938
sasVheaders
p939
(lp940
sVheadersSize
p941
I654
sVbodySize
p942
I0
sVmethod
p943
VGET
p944
sVhttpVersion
p945
VHTTP/1.1
p946
ssVtimings
p947
(dp948
Vcomment
p949
g4
sVreceive
p950
I0
sVsend
p951
I0
sVssl
p952
I-1
sVconnect
p953
I-1
sVdns
p954
I-1
sVwait
p955
I41
sVblocked
p956
I-1
ssVtime
p957
I41
sVresponse
p958
(dp959
Vstatus
p960
I204
sVcomment
p961
g4
sVcookies
p962
(lp963
sVstatusText
p964
VNo Content
p965
sVcontent
p966
(dp967
VmimeType
p968
Vtext/html; charset=UTF-8
p969
sVcomment
p970
g4
sVsize
p971
I0
ssVheaders
p972
(lp973
sVheadersSize
p974
I248
sVredirectURL
p975
g4
sVbodySize
p976
I0
sVhttpVersion
p977
VHTTP/1.1
p978
ssa(dp979
Vcomment
p980
g4
sVserverIPAddress
p981
V216.58.216.196
p982
sVpageref
p983
VGiant Panda
p984
sVstartedDateTime
p985
V2017-04-16T08:14:12.284-05:00
p986
sVcache
p987
(dp988
sVrequest
p989
(dp990
Vcomment
p991
g4
sVcookies
p992
(lp993
sVurl
p994
Vhttps://www.google.com/gen_204?atyp=i&ct=&cad=&vet=10ahUKEwjQ4_KZh6nTAhVs5YMKHdhWCgMQ5W0INigD..s&ei=IW7zWJDPNuzKjwTYrakY&zx=1492348452283
p995
sVqueryString
p996
(lp997
(dp998
Vname
p999
Vatyp
p1000
sVvalue
p1001
g30
sa(dp1002
Vname
p1003
Vct
p1004
sVvalue
p1005
g4
sa(dp1006
Vname
p1007
Vcad
p1008
sVvalue
p1009
g4
sa(dp1010
Vname
p1011
Vvet
p1012
sVvalue
p1013
V10ahUKEwjQ4_KZh6nTAhVs5YMKHdhWCgMQ5W0INigD..s
p1014
sa(dp1015
Vname
p1016
Vei
p1017
sVvalue
p1018
VIW7zWJDPNuzKjwTYrakY
p1019
sa(dp1020
Vname
p1021
Vzx
p1022
sVvalue
p1023
V1492348452283
p1024
sasVheaders
p1025
(lp1026
sVheadersSize
p1027
I654
sVbodySize
p1028
I0
sVmethod
p1029
VGET
p1030
sVhttpVersion
p1031
VHTTP/1.1
p1032
ssVtimings
p1033
(dp1034
Vcomment
p1035
g4
sVreceive
p1036
I0
sVsend
p1037
I0
sVssl
p1038
I-1
sVconnect
p1039
I-1
sVdns
p1040
I-1
sVwait
p1041
I43
sVblocked
p1042
I-1
ssVtime
p1043
I43
sVresponse
p1044
(dp1045
Vstatus
p1046
I204
sVcomment
p1047
g4
sVcookies
p1048
(lp1049
sVstatusText
p1050
VNo Content
p1051
sVcontent
p1052
(dp1053
VmimeType
p1054
Vtext/html; charset=UTF-8
p1055
sVcomment
p1056
g4
sVsize
p1057
I0
ssVheaders
p1058
(lp1059
sVheadersSize
p1060
I248
sVredirectURL
p1061
g4
sVbodySize
p1062
I0
sVhttpVersion
p1063
VHTTP/1.1
p1064
ssa(dp1065
Vcomment
p1066
g4
sVserverIPAddress
p1067
V216.58.216.196
p1068
sVpageref
p1069
VGiant Panda
p1070
sVstartedDateTime
p1071
V2017-04-16T08:14:12.286-05:00
p1072
sVcache
p1073
(dp1074
sVrequest
p1075
(dp1076
Vcomment
p1077
g4
sVcookies
p1078
(lp1079
sVurl
p1080
Vhttps://www.google.com/gen_204?atyp=i&ct=&cad=&vet=10ahUKEwjQ4_KZh6nTAhVs5YMKHdhWCgMQ5W0IOSgE..s&ei=IW7zWJDPNuzKjwTYrakY&zx=1492348452285
p1081
sVqueryString
p1082
(lp1083
(dp1084
Vname
p1085
Vatyp
p1086
sVvalue
p1087
g30
sa(dp1088
Vname
p1089
Vct
p1090
sVvalue
p1091
g4
sa(dp1092
Vname
p1093
Vcad
p1094
sVvalue
p1095
g4
sa(dp1096
Vname
p1097
Vvet
p1098
sVvalue
p1099
V10ahUKEwjQ4_KZh6nTAhVs5YMKHdhWCgMQ5W0IOSgE..s
p1100
sa(dp1101
Vname
p1102
Vei
p1103
sVvalue
p1104
VIW7zWJDPNuzKjwTYrakY
p1105
sa(dp1106
Vname
p1107
Vzx
p1108
sVvalue
p1109
V1492348452285
p1110
sasVheaders
p1111
(lp1112
sVheadersSize
p1113
I654
sVbodySize
p1114
I0
sVmethod
p1115
VGET
p1116
sVhttpVersion
p1117
VHTTP/1.1
p1118
ssVtimings
p1119
(dp1120
Vcomment
p1121
g4
sVreceive
p1122
I0
sVsend
p1123
I0
sVssl
p1124
I-1
sVconnect
p1125
I-1
sVdns
p1126
I-1
sVwait
p1127
I41
sVblocked
p1128
I-1
ssVtime
p1129
I41
sVresponse
p1130
(dp1131
Vstatus
p1132
I204
sVcomment
p1133
g4
sVcookies
p1134
(lp1135
sVstatusText
p1136
VNo Content
p1137
sVcontent
p1138
(dp1139
VmimeType
p1140
Vtext/html; charset=UTF-8
p1141
sVcomment
p1142
g4
sVsize
p1143
I0
ssVheaders
p1144
(lp1145
sVheadersSize
p1146
I248
sVredirectURL
p1147
g4
sVbodySize
p1148
I0
sVhttpVersion
p1149
VHTTP/1.1
p1150
ssa(dp1151
Vcomment
p1152
g4
sVserverIPAddress
p1153
V216.58.216.196
p1154
sVpageref
p1155
VGiant Panda
p1156
sVstartedDateTime
p1157
V2017-04-16T08:14:12.382-05:00
p1158
sVcache
p1159
(dp1160
sVrequest
p1161
(dp1162
Vcomment
p1163
g4
sVcookies
p1164
(lp1165
sVurl
p1166
Vhttps://www.google.com/async/ampfp?vet=10ahUKEwjQ4_KZh6nTAhVs5YMKHdhWCgMQtZoBCOIB..i&ei=IW7zWJDPNuzKjwTYrakY&yv=2&async=_id:ampfp-async,_pms:qs
p1167
sVqueryString
p1168
(lp1169
(dp1170
Vname
p1171
Vvet
p1172
sVvalue
p1173
V10ahUKEwjQ4_KZh6nTAhVs5YMKHdhWCgMQtZoBCOIB..i
p1174
sa(dp1175
Vname
p1176
Vei
p1177
sVvalue
p1178
VIW7zWJDPNuzKjwTYrakY
p1179
sa(dp1180
Vname
p1181
Vyv
p1182
sVvalue
p1183
g64
sa(dp1184
Vname
p1185
Vasync
p1186
sVvalue
p1187
V_id:ampfp-async,_pms:qs
p1188
sasVheaders
p1189
(lp1190
sVheadersSize
p1191
I660
sVbodySize
p1192
I0
sVmethod
p1193
VGET
p1194
sVhttpVersion
p1195
VHTTP/1.1
p1196
ssVtimings
p1197
(dp1198
Vcomment
p1199
g4
sVreceive
p1200
I1
sVsend
p1201
I0
sVssl
p1202
I-1
sVconnect
p1203
I-1
sVdns
p1204
I-1
sVwait
p1205
I45
sVblocked
p1206
I-1
ssVtime
p1207
I47
sVresponse
p1208
(dp1209
Vstatus
p1210
I200
sVcomment
p1211
g4
sVcookies
p1212
(lp1213
sVstatusText
p1214
VOK
p1215
sVcontent
p1216
(dp1217
VmimeType
p1218
Vtext/html; charset=UTF-8
p1219
sVcomment
p1220
g4
sVsize
p1221
I0
ssVheaders
p1222
(lp1223
sVheadersSize
p1224
I383
sVredirectURL
p1225
g4
sVbodySize
p1226
I4526
sVhttpVersion
p1227
VHTTP/1.1
p1228
ssa(dp1229
Vcomment
p1230
g4
sVserverIPAddress
p1231
V216.58.216.193
p1232
sVpageref
p1233
VGiant Panda
p1234
sVstartedDateTime
p1235
V2017-04-16T08:14:12.382-05:00
p1236
sVcache
p1237
(dp1238
sVrequest
p1239
(dp1240
Vcomment
p1241
g4
sVcookies
p1242
(lp1243
sVurl
p1244
Vhttps://cdn.ampproject.org/preconnect.gif?0.47518379178222825
p1245
sVqueryString
p1246
(lp1247
(dp1248
Vname
p1249
V0.47518379178222825
p1250
sVvalue
p1251
g4
sasVheaders
p1252
(lp1253
sVheadersSize
p1254
I376
sVbodySize
p1255
I0
sVmethod
p1256
VGET
p1257
sVhttpVersion
p1258
VHTTP/1.1
p1259
ssVtimings
p1260
(dp1261
Vcomment
p1262
g4
sVreceive
p1263
I0
sVsend
p1264
I0
sVssl
p1265
I-1
sVconnect
p1266
I-1
sVdns
p1267
I-1
sVwait
p1268
I39
sVblocked
p1269
I-1
ssVtime
p1270
I40
sVresponse
p1271
(dp1272
Vstatus
p1273
I200
sVcomment
p1274
g4
sVcookies
p1275
(lp1276
sVstatusText
p1277
VOK
p1278
sVcontent
p1279
(dp1280
VmimeType
p1281
Vimage/gif
p1282
sVcomment
p1283
g4
sVsize
p1284
I0
ssVheaders
p1285
(lp1286
sVheadersSize
p1287
I826
sVredirectURL
p1288
g4
sVbodySize
p1289
I37
sVhttpVersion
p1290
VHTTP/1.1
p1291
ssa(dp1292
Vcomment
p1293
g4
sVserverIPAddress
p1294
V216.58.217.14
p1295
sVpageref
p1296
VGiant Panda
p1297
sVstartedDateTime
p1298
V2017-04-16T08:14:12.398-05:00
p1299
sVcache
p1300
(dp1301
sVrequest
p1302
(dp1303
Vcomment
p1304
g4
sVcookies
p1305
(lp1306
sVurl
p1307
Vhttps://encrypted-tbn3.gstatic.com/images?q=tbn:ANd9GcTR4pM4NzOgkWaUqZBOIZFRwiKJEiIhI4dI6ODWHSBCqatatWzmgd9SxbwJ2Q
p1308
sVqueryString
p1309
(lp1310
(dp1311
Vname
p1312
g513
sVvalue
p1313
Vtbn:ANd9GcTR4pM4NzOgkWaUqZBOIZFRwiKJEiIhI4dI6ODWHSBCqatatWzmgd9SxbwJ2Q
p1314
sasVheaders
p1315
(lp1316
sVheadersSize
p1317
I429
sVbodySize
p1318
I0
sVmethod
p1319
VGET
p1320
sVhttpVersion
p1321
VHTTP/1.1
p1322
ssVtimings
p1323
(dp1324
Vcomment
p1325
g4
sVreceive
p1326
I1
sVsend
p1327
I0
sVssl
p1328
I-1
sVconnect
p1329
I-1
sVdns
p1330
I-1
sVwait
p1331
I13
sVblocked
p1332
I-1
ssVtime
p1333
I14
sVresponse
p1334
(dp1335
Vstatus
p1336
I200
sVcomment
p1337
g4
sVcookies
p1338
(lp1339
sVstatusText
p1340
VOK
p1341
sVcontent
p1342
(dp1343
VmimeType
p1344
Vimage/jpeg
p1345
sVcomment
p1346
g4
sVsize
p1347
I0
ssVheaders
p1348
(lp1349
sVheadersSize
p1350
I429
sVredirectURL
p1351
g4
sVbodySize
p1352
I6404
sVhttpVersion
p1353
VHTTP/1.1
p1354
ssa(dp1355
Vcomment
p1356
g4
sVserverIPAddress
p1357
V216.58.217.14
p1358
sVpageref
p1359
VGiant Panda
p1360
sVstartedDateTime
p1361
V2017-04-16T08:14:12.399-05:00
p1362
sVcache
p1363
(dp1364
sVrequest
p1365
(dp1366
Vcomment
p1367
g4
sVcookies
p1368
(lp1369
sVurl
p1370
Vhttps://encrypted-tbn3.gstatic.com/images?q=tbn:ANd9GcSVQoSOS91T5dQNyYJjApsY_hRSdUtCOPokSaWPcbIo8cLTwGMM-ZapDEAtdQ
p1371
sVqueryString
p1372
(lp1373
(dp1374
Vname
p1375
g513
sVvalue
p1376
Vtbn:ANd9GcSVQoSOS91T5dQNyYJjApsY_hRSdUtCOPokSaWPcbIo8cLTwGMM-ZapDEAtdQ
p1377
sasVheaders
p1378
(lp1379
sVheadersSize
p1380
I429
sVbodySize
p1381
I0
sVmethod
p1382
VGET
p1383
sVhttpVersion
p1384
VHTTP/1.1
p1385
ssVtimings
p1386
(dp1387
Vcomment
p1388
g4
sVreceive
p1389
I0
sVsend
p1390
I0
sVssl
p1391
I-1
sVconnect
p1392
I-1
sVdns
p1393
I-1
sVwait
p1394
I36
sVblocked
p1395
I-1
ssVtime
p1396
I37
sVresponse
p1397
(dp1398
Vstatus
p1399
I200
sVcomment
p1400
g4
sVcookies
p1401
(lp1402
sVstatusText
p1403
VOK
p1404
sVcontent
p1405
(dp1406
VmimeType
p1407
Vimage/jpeg
p1408
sVcomment
p1409
g4
sVsize
p1410
I0
ssVheaders
p1411
(lp1412
sVheadersSize
p1413
I430
sVredirectURL
p1414
g4
sVbodySize
p1415
I10402
sVhttpVersion
p1416
VHTTP/1.1
p1417
ssa(dp1418
Vcomment
p1419
g4
sVserverIPAddress
p1420
V216.58.216.206
p1421
sVpageref
p1422
VGiant Panda
p1423
sVstartedDateTime
p1424
V2017-04-16T08:14:12.400-05:00
p1425
sVcache
p1426
(dp1427
sVrequest
p1428
(dp1429
Vcomment
p1430
g4
sVcookies
p1431
(lp1432
sVurl
p1433
Vhttps://encrypted-tbn2.gstatic.com/images?q=tbn:ANd9GcRbCl_6IJzpoBpIiY4kZRDJYrl42pcHHWLe7gKlpySBQusklvIteeOxW1yTJQ
p1434
sVqueryString
p1435
(lp1436
(dp1437
Vname
p1438
g513
sVvalue
p1439
Vtbn:ANd9GcRbCl_6IJzpoBpIiY4kZRDJYrl42pcHHWLe7gKlpySBQusklvIteeOxW1yTJQ
p1440
sasVheaders
p1441
(lp1442
sVheadersSize
p1443
I429
sVbodySize
p1444
I0
sVmethod
p1445
VGET
p1446
sVhttpVersion
p1447
VHTTP/1.1
p1448
ssVtimings
p1449
(dp1450
Vcomment
p1451
g4
sVreceive
p1452
I3
sVsend
p1453
I0
sVssl
p1454
I-1
sVconnect
p1455
I-1
sVdns
p1456
I-1
sVwait
p1457
I22
sVblocked
p1458
I-1
ssVtime
p1459
I26
sVresponse
p1460
(dp1461
Vstatus
p1462
I200
sVcomment
p1463
g4
sVcookies
p1464
(lp1465
sVstatusText
p1466
VOK
p1467
sVcontent
p1468
(dp1469
VmimeType
p1470
Vimage/jpeg
p1471
sVcomment
p1472
g4
sVsize
p1473
I0
ssVheaders
p1474
(lp1475
sVheadersSize
p1476
I415
sVredirectURL
p1477
g4
sVbodySize
p1478
I7515
sVhttpVersion
p1479
VHTTP/1.1
p1480
ssa(dp1481
Vcomment
p1482
g4
sVserverIPAddress
p1483
V216.58.216.196
p1484
sVpageref
p1485
VGiant Panda
p1486
sVstartedDateTime
p1487
V2017-04-16T08:14:12.531-05:00
p1488
sVcache
p1489
(dp1490
sVrequest
p1491
(dp1492
Vcomment
p1493
g4
sVcookies
p1494
(lp1495
sVurl
p1496
Vhttps://www.google.com/async/log_amp_item_set?vet=10ahUKEwiwpM6ah6nTAhWrx4MKHSYEBFsQooQBCAE..i&ei=IW7zWJDPNuzKjwTYrakY&yv=2&async=num_items:2,_fmt:jspb
p1497
sVqueryString
p1498
(lp1499
(dp1500
Vname
p1501
Vvet
p1502
sVvalue
p1503
V10ahUKEwiwpM6ah6nTAhWrx4MKHSYEBFsQooQBCAE..i
p1504
sa(dp1505
Vname
p1506
Vei
p1507
sVvalue
p1508
VIW7zWJDPNuzKjwTYrakY
p1509
sa(dp1510
Vname
p1511
Vyv
p1512
sVvalue
p1513
g64
sa(dp1514
Vname
p1515
Vasync
p1516
sVvalue
p1517
Vnum_items:2,_fmt:jspb
p1518
sasVheaders
p1519
(lp1520
sVheadersSize
p1521
I668
sVbodySize
p1522
I0
sVmethod
p1523
VGET
p1524
sVhttpVersion
p1525
VHTTP/1.1
p1526
ssVtimings
p1527
(dp1528
Vcomment
p1529
g4
sVreceive
p1530
I0
sVsend
p1531
I0
sVssl
p1532
I-1
sVconnect
p1533
I-1
sVdns
p1534
I-1
sVwait
p1535
I33
sVblocked
p1536
I-1
ssVtime
p1537
I33
sVresponse
p1538
(dp1539
Vstatus
p1540
I200
sVcomment
p1541
g4
sVcookies
p1542
(lp1543
sVstatusText
p1544
VOK
p1545
sVcontent
p1546
(dp1547
VmimeType
p1548
Vapplication/json; charset=UTF-8
p1549
sVcomment
p1550
g4
sVsize
p1551
I0
ssVheaders
p1552
(lp1553
sVheadersSize
p1554
I417
sVredirectURL
p1555
g4
sVbodySize
p1556
I141
sVhttpVersion
p1557
VHTTP/1.1
p1558
ssa(dp1559
Vcomment
p1560
g4
sVserverIPAddress
p1561
V216.58.216.206
p1562
sVpageref
p1563
VGiant Panda
p1564
sVstartedDateTime
p1565
V2017-04-16T08:14:12.731-05:00
p1566
sVcache
p1567
(dp1568
sVrequest
p1569
(dp1570
Vcomment
p1571
g4
sVcookies
p1572
(lp1573
sVurl
p1574
Vhttps://encrypted-tbn1.gstatic.com/images?q=tbn:ANd9GcTe-dTafK1cdj3ArpQwAt1p_rWpL_uQXUJW1QadSa3pJvcsCsYG6v1RQP3k
p1575
sVqueryString
p1576
(lp1577
(dp1578
Vname
p1579
g513
sVvalue
p1580
Vtbn:ANd9GcTe-dTafK1cdj3ArpQwAt1p_rWpL_uQXUJW1QadSa3pJvcsCsYG6v1RQP3k
p1581
sasVheaders
p1582
(lp1583
sVheadersSize
p1584
I427
sVbodySize
p1585
I0
sVmethod
p1586
VGET
p1587
sVhttpVersion
p1588
VHTTP/1.1
p1589
ssVtimings
p1590
(dp1591
Vcomment
p1592
g4
sVreceive
p1593
I1
sVsend
p1594
I0
sVssl
p1595
I-1
sVconnect
p1596
I-1
sVdns
p1597
I-1
sVwait
p1598
I12
sVblocked
p1599
I-1
ssVtime
p1600
I14
sVresponse
p1601
(dp1602
Vstatus
p1603
I200
sVcomment
p1604
g4
sVcookies
p1605
(lp1606
sVstatusText
p1607
VOK
p1608
sVcontent
p1609
(dp1610
VmimeType
p1611
Vimage/jpeg
p1612
sVcomment
p1613
g4
sVsize
p1614
I0
ssVheaders
p1615
(lp1616
sVheadersSize
p1617
I428
sVredirectURL
p1618
g4
sVbodySize
p1619
I4786
sVhttpVersion
p1620
VHTTP/1.1
p1621
ssa(dp1622
Vcomment
p1623
g4
sVserverIPAddress
p1624
V216.58.216.196
p1625
sVpageref
p1626
VGiant Panda
p1627
sVstartedDateTime
p1628
V2017-04-16T08:14:12.765-05:00
p1629
sVcache
p1630
(dp1631
sVrequest
p1632
(dp1633
Vcomment
p1634
g4
sVcookies
p1635
(lp1636
sVurl
p1637
Vhttps://www.google.com/gen_204?atyp=i&ct=&cad=&vet=10ahUKEwjQ4_KZh6nTAhVs5YMKHdhWCgMQ5W0IPCgF..s&ei=IW7zWJDPNuzKjwTYrakY&zx=1492348452288
p1638
sVqueryString
p1639
(lp1640
(dp1641
Vname
p1642
Vatyp
p1643
sVvalue
p1644
g30
sa(dp1645
Vname
p1646
Vct
p1647
sVvalue
p1648
g4
sa(dp1649
Vname
p1650
Vcad
p1651
sVvalue
p1652
g4
sa(dp1653
Vname
p1654
Vvet
p1655
sVvalue
p1656
V10ahUKEwjQ4_KZh6nTAhVs5YMKHdhWCgMQ5W0IPCgF..s
p1657
sa(dp1658
Vname
p1659
Vei
p1660
sVvalue
p1661
VIW7zWJDPNuzKjwTYrakY
p1662
sa(dp1663
Vname
p1664
Vzx
p1665
sVvalue
p1666
V1492348452288
p1667
sasVheaders
p1668
(lp1669
sVheadersSize
p1670
I654
sVbodySize
p1671
I0
sVmethod
p1672
VGET
p1673
sVhttpVersion
p1674
VHTTP/1.1
p1675
ssVtimings
p1676
(dp1677
Vcomment
p1678
g4
sVreceive
p1679
I0
sVsend
p1680
I0
sVssl
p1681
I22
sVconnect
p1682
I34
sVdns
p1683
I440
sVwait
p1684
I34
sVblocked
p1685
I0
ssVtime
p1686
I509
sVresponse
p1687
(dp1688
Vstatus
p1689
I204
sVcomment
p1690
g4
sVcookies
p1691
(lp1692
sVstatusText
p1693
VNo Content
p1694
sVcontent
p1695
(dp1696
VmimeType
p1697
Vtext/html; charset=UTF-8
p1698
sVcomment
p1699
g4
sVsize
p1700
I0
ssVheaders
p1701
(lp1702
sVheadersSize
p1703
I248
sVredirectURL
p1704
g4
sVbodySize
p1705
I0
sVhttpVersion
p1706
VHTTP/1.1
p1707
ssa(dp1708
Vcomment
p1709
g4
sVserverIPAddress
p1710
V216.58.216.196
p1711
sVpageref
p1712
VGiant Panda
p1713
sVstartedDateTime
p1714
V2017-04-16T08:14:12.765-05:00
p1715
sVcache
p1716
(dp1717
sVrequest
p1718
(dp1719
Vcomment
p1720
g4
sVcookies
p1721
(lp1722
sVurl
p1723
Vhttps://www.google.com/gen_204?atyp=i&ct=&cad=&vet=10ahUKEwjQ4_KZh6nTAhVs5YMKHdhWCgMQ5W0IPygG..s&ei=IW7zWJDPNuzKjwTYrakY&zx=1492348452291
p1724
sVqueryString
p1725
(lp1726
(dp1727
Vname
p1728
Vatyp
p1729
sVvalue
p1730
g30
sa(dp1731
Vname
p1732
Vct
p1733
sVvalue
p1734
g4
sa(dp1735
Vname
p1736
Vcad
p1737
sVvalue
p1738
g4
sa(dp1739
Vname
p1740
Vvet
p1741
sVvalue
p1742
V10ahUKEwjQ4_KZh6nTAhVs5YMKHdhWCgMQ5W0IPygG..s
p1743
sa(dp1744
Vname
p1745
Vei
p1746
sVvalue
p1747
VIW7zWJDPNuzKjwTYrakY
p1748
sa(dp1749
Vname
p1750
Vzx
p1751
sVvalue
p1752
V1492348452291
p1753
sasVheaders
p1754
(lp1755
sVheadersSize
p1756
I654
sVbodySize
p1757
I0
sVmethod
p1758
VGET
p1759
sVhttpVersion
p1760
VHTTP/1.1
p1761
ssVtimings
p1762
(dp1763
Vcomment
p1764
g4
sVreceive
p1765
I0
sVsend
p1766
I0
sVssl
p1767
I25
sVconnect
p1768
I34
sVdns
p1769
I436
sVwait
p1770
I34
sVblocked
p1771
I0
ssVtime
p1772
I505
sVresponse
p1773
(dp1774
Vstatus
p1775
I204
sVcomment
p1776
g4
sVcookies
p1777
(lp1778
sVstatusText
p1779
VNo Content
p1780
sVcontent
p1781
(dp1782
VmimeType
p1783
Vtext/html; charset=UTF-8
p1784
sVcomment
p1785
g4
sVsize
p1786
I0
ssVheaders
p1787
(lp1788
sVheadersSize
p1789
I248
sVredirectURL
p1790
g4
sVbodySize
p1791
I0
sVhttpVersion
p1792
VHTTP/1.1
p1793
ssa(dp1794
Vcomment
p1795
g4
sVserverIPAddress
p1796
V216.58.216.196
p1797
sVpageref
p1798
VGiant Panda
p1799
sVstartedDateTime
p1800
V2017-04-16T08:14:12.814-05:00
p1801
sVcache
p1802
(dp1803
sVrequest
p1804
(dp1805
Vcomment
p1806
g4
sVcookies
p1807
(lp1808
sVurl
p1809
Vhttps://www.google.com/gen_204?s=web&atyp=csi&ei=IW7zWJDPNuzKjwTYrakY&imc=37&imn=37&imp=19&adh=&xjs=init.30.14.sb_mob.23.dvl.4.c.1.r.1.foot.1&ima=9&rt=prt.734,iml.744,xjsls.734,dcl.944,xjses.974,xjsee.1113,xjs.1114,qiml.1603,ol.1820,aft.743,wsrt.107,cst.0,dnst.0,rqst.854,rspt.758,rqstt.2,unt.2,cstt.2,dit.990
p1810
sVqueryString
p1811
(lp1812
(dp1813
Vname
p1814
g57
sVvalue
p1815
Vweb
p1816
sa(dp1817
Vname
p1818
Vatyp
p1819
sVvalue
p1820
Vcsi
p1821
sa(dp1822
Vname
p1823
Vei
p1824
sVvalue
p1825
VIW7zWJDPNuzKjwTYrakY
p1826
sa(dp1827
Vname
p1828
Vimc
p1829
sVvalue
p1830
V37
p1831
sa(dp1832
Vname
p1833
Vimn
p1834
sVvalue
p1835
V37
p1836
sa(dp1837
Vname
p1838
Vimp
p1839
sVvalue
p1840
V19
p1841
sa(dp1842
Vname
p1843
Vadh
p1844
sVvalue
p1845
g4
sa(dp1846
Vname
p1847
Vxjs
p1848
sVvalue
p1849
Vinit.30.14.sb_mob.23.dvl.4.c.1.r.1.foot.1
p1850
sa(dp1851
Vname
p1852
Vima
p1853
sVvalue
p1854
V9
p1855
sa(dp1856
Vname
p1857
Vrt
p1858
sVvalue
p1859
Vprt.734,iml.744,xjsls.734,dcl.944,xjses.974,xjsee.1113,xjs.1114,qiml.1603,ol.1820,aft.743,wsrt.107,cst.0,dnst.0,rqst.854,rspt.758,rqstt.2,unt.2,cstt.2,dit.990
p1860
sasVheaders
p1861
(lp1862
sVheadersSize
p1863
I826
sVbodySize
p1864
I0
sVmethod
p1865
VGET
p1866
sVhttpVersion
p1867
VHTTP/1.1
p1868
ssVtimings
p1869
(dp1870
Vcomment
p1871
g4
sVreceive
p1872
I0
sVsend
p1873
I0
sVssl
p1874
I-1
sVconnect
p1875
I-1
sVdns
p1876
I-1
sVwait
p1877
I32
sVblocked
p1878
I-1
ssVtime
p1879
I33
sVresponse
p1880
(dp1881
Vstatus
p1882
I204
sVcomment
p1883
g4
sVcookies
p1884
(lp1885
sVstatusText
p1886
VNo Content
p1887
sVcontent
p1888
(dp1889
VmimeType
p1890
Vtext/html; charset=UTF-8
p1891
sVcomment
p1892
g4
sVsize
p1893
I0
ssVheaders
p1894
(lp1895
sVheadersSize
p1896
I248
sVredirectURL
p1897
g4
sVbodySize
p1898
I0
sVhttpVersion
p1899
VHTTP/1.1
p1900
ssa(dp1901
Vcomment
p1902
g4
sVserverIPAddress
p1903
V216.58.216.196
p1904
sVpageref
p1905
VGiant Panda
p1906
sVstartedDateTime
p1907
V2017-04-16T08:14:14.359-05:00
p1908
sVcache
p1909
(dp1910
sVrequest
p1911
(dp1912
Vcomment
p1913
g4
sVcookies
p1914
(lp1915
sVurl
p1916
Vhttps://www.google.com/gen_204?atyp=i&ct=slh&cad=&ei=Dm7zWIimNYXijwTPlLRA&m=V&t=C&s=1&v=2&pv=0.514992098051889&me=1:1492348433991,x:2,V,0,0,1280,944:0,N,1,Dm7zWIimNYXijwTPlLRA:0,R,1,24,8,155,1249,528:0,R,1,28,8,268,1249,332:0,R,1,29,0,269,1265,351:0,R,1,60,8,600,1249,83:0,R,1,82,8,693,1249,775:0,R,1,83,8,693,1249,775:0,R,1,86,8,706,1249,40:0,R,1,99,8,757,1249,178:0,R,1,102,0,773,1265,197:2,B,3960:15752,e,U&zx=1492348454357
p1917
sVqueryString
p1918
(lp1919
(dp1920
Vname
p1921
Vatyp
p1922
sVvalue
p1923
g30
sa(dp1924
Vname
p1925
Vct
p1926
sVvalue
p1927
Vslh
p1928
sa(dp1929
Vname
p1930
Vcad
p1931
sVvalue
p1932
g4
sa(dp1933
Vname
p1934
Vei
p1935
sVvalue
p1936
VDm7zWIimNYXijwTPlLRA
p1937
sa(dp1938
Vname
p1939
g47
sVvalue
p1940
g49
sa(dp1941
Vname
p1942
g52
sVvalue
p1943
g54
sa(dp1944
Vname
p1945
g57
sVvalue
p1946
g59
sa(dp1947
Vname
p1948
g62
sVvalue
p1949
g64
sa(dp1950
Vname
p1951
Vpv
p1952
sVvalue
p1953
V0.514992098051889
p1954
sa(dp1955
Vname
p1956
Vme
p1957
sVvalue
p1958
V1:1492348433991,x:2,V,0,0,1280,944:0,N,1,Dm7zWIimNYXijwTPlLRA:0,R,1,24,8,155,1249,528:0,R,1,28,8,268,1249,332:0,R,1,29,0,269,1265,351:0,R,1,60,8,600,1249,83:0,R,1,82,8,693,1249,775:0,R,1,83,8,693,1249,775:0,R,1,86,8,706,1249,40:0,R,1,99,8,757,1249,178:0,R,1,102,0,773,1265,197:2,B,3960:15752,e,U
p1959
sa(dp1960
Vname
p1961
Vzx
p1962
sVvalue
p1963
V1492348454357
p1964
sasVheaders
p1965
(lp1966
sVheadersSize
p1967
I943
sVbodySize
p1968
I0
sVmethod
p1969
VGET
p1970
sVhttpVersion
p1971
VHTTP/1.1
p1972
ssVtimings
p1973
(dp1974
Vcomment
p1975
g4
sVreceive
p1976
I0
sVsend
p1977
I0
sVssl
p1978
I-1
sVconnect
p1979
I-1
sVdns
p1980
I-1
sVwait
p1981
I57
sVblocked
p1982
I-1
ssVtime
p1983
I57
sVresponse
p1984
(dp1985
Vstatus
p1986
I204
sVcomment
p1987
g4
sVcookies
p1988
(lp1989
sVstatusText
p1990
VNo Content
p1991
sVcontent
p1992
(dp1993
VmimeType
p1994
Vtext/html; charset=UTF-8
p1995
sVcomment
p1996
g4
sVsize
p1997
I0
ssVheaders
p1998
(lp1999
sVheadersSize
p2000
I248
sVredirectURL
p2001
g4
sVbodySize
p2002
I0
sVhttpVersion
p2003
VHTTP/1.1
p2004
ssasVversion
p2005
V1.2
p2006
sVpages
p2007
(lp2008
(dp2009
VpageTimings
p2010
(dp2011
Vcomment
p2012
g4
ssVcomment
p2013
g4
sVtitle
p2014
VGiant Panda
p2015
sVid
p2016
VGiant Panda
p2017
sVstartedDateTime
p2018
V2017-04-16T08:14:09.741-05:00
p2019
sasVcreator
p2020
(dp2021
Vcomment
p2022
g4
sVversion
p2023
V2.1.4
p2024
sVname
p2025
VBrowserMob Proxy
p2026
sss.