(dp0
Vlog
p1
(dp2
Vcomment
p3
V
p4
sVentries
p5
(lp6
(dp7
Vcomment
p8
g4
sVserverIPAddress
p9
V216.58.216.196
p10
sVpageref
p11
VColumbia Fireflies
p12
sVstartedDateTime
p13
V2017-04-16T08:26:30.045-05:00
p14
sVcache
p15
(dp16
sVrequest
p17
(dp18
Vcomment
p19
g4
sVcookies
p20
(lp21
sVurl
p22
Vhttps://www.google.com/gen_204?atyp=i&ct=slh&cad=&ei=7XDzWKbUDoXLjwS6-KnoDw&m=V&t=C&s=1&v=2&pv=0.22458876654708204&me=1:1492349169069,x:2,V,0,0,1280,944:0,N,1,7XDzWKbUDoXLjwS6-KnoDw:0,R,1,24,8,155,1249,249:0,R,1,34,8,414,1249,261:0,R,1,35,8,414,1249,241:0,R,1,36,8,414,1249,90:0,R,1,51,8,685,1249,251:18,B,3805:20955,e,U&zx=1492349190044
p23
sVqueryString
p24
(lp25
(dp26
Vname
p27
Vatyp
p28
sVvalue
p29
Vi
p30
sa(dp31
Vname
p32
Vct
p33
sVvalue
p34
Vslh
p35
sa(dp36
Vname
p37
Vcad
p38
sVvalue
p39
g4
sa(dp40
Vname
p41
Vei
p42
sVvalue
p43
V7XDzWKbUDoXLjwS6-KnoDw
p44
sa(dp45
Vname
p46
Vm
p47
sVvalue
p48
VV
p49
sa(dp50
Vname
p51
Vt
p52
sVvalue
p53
VC
p54
sa(dp55
Vname
p56
Vs
p57
sVvalue
p58
V1
p59
sa(dp60
Vname
p61
Vv
p62
sVvalue
p63
V2
p64
sa(dp65
Vname
p66
Vpv
p67
sVvalue
p68
V0.22458876654708204
p69
sa(dp70
Vname
p71
Vme
p72
sVvalue
p73
V1:1492349169069,x:2,V,0,0,1280,944:0,N,1,7XDzWKbUDoXLjwS6-KnoDw:0,R,1,24,8,155,1249,249:0,R,1,34,8,414,1249,261:0,R,1,35,8,414,1249,241:0,R,1,36,8,414,1249,90:0,R,1,51,8,685,1249,251:18,B,3805:20955,e,U
p74
sa(dp75
Vname
p76
Vzx
p77
sVvalue
p78
V1492349190044
p79
sasVheaders
p80
(lp81
sVheadersSize
p82
I854
sVbodySize
p83
I0
sVmethod
p84
VGET
p85
sVhttpVersion
p86
VHTTP/1.1
p87
ssVtimings
p88
(dp89
Vcomment
p90
g4
sVreceive
p91
I0
sVsend
p92
I0
sVssl
p93
I-1
sVconnect
p94
I-1
sVdns
p95
I-1
sVwait
p96
I0
sVblocked
p97
I-1
ssVtime
p98
I0
sVresponse
p99
(dp100
Vstatus
p101
I0
sVcomment
p102
g4
sVcookies
p103
(lp104
sV_error
p105
VNo response received
p106
sVstatusText
p107
g4
sVcontent
p108
(dp109
VmimeType
p110
g4
sVcomment
p111
g4
sVsize
p112
I0
ssVheaders
p113
(lp114
sVheadersSize
p115
I-1
sVredirectURL
p116
g4
sVbodySize
p117
I-1
sVhttpVersion
p118
Vunknown
p119
ssa(dp120
Vcomment
p121
g4
sVserverIPAddress
p122
V216.58.216.196
p123
sVpageref
p124
VColumbia Fireflies
p125
sVstartedDateTime
p126
V2017-04-16T08:26:30.046-05:00
p127
sVcache
p128
(dp129
sVrequest
p130
(dp131
Vcomment
p132
g4
sVcookies
p133
(lp134
sVurl
p135
Vhttps://www.google.com/gen_204?atyp=i&ct=slh&cad=&ei=13DzWPfiHIOLjwTNhoLABA&m=V&t=C&s=1&v=2&pv=0.7880447979059323&me=1:1492349146739,x:2,V,0,0,1280,944:0,N,1,13DzWPfiHIOLjwTNhoLABA:0,R,1,24,0,155,1197,635:0,R,1,25,0,155,1197,633:0,R,1,79,8,798,1264,545:0,R,1,80,8,842,1264,315:0,R,1,81,0,842,1280,335:2,B,4663:18745,e,U&zx=1492349190045
p136
sVqueryString
p137
(lp138
(dp139
Vname
p140
Vatyp
p141
sVvalue
p142
g30
sa(dp143
Vname
p144
Vct
p145
sVvalue
p146
Vslh
p147
sa(dp148
Vname
p149
Vcad
p150
sVvalue
p151
g4
sa(dp152
Vname
p153
Vei
p154
sVvalue
p155
V13DzWPfiHIOLjwTNhoLABA
p156
sa(dp157
Vname
p158
g47
sVvalue
p159
g49
sa(dp160
Vname
p161
g52
sVvalue
p162
g54
sa(dp163
Vname
p164
g57
sVvalue
p165
g59
sa(dp166
Vname
p167
g62
sVvalue
p168
g64
sa(dp169
Vname
p170
Vpv
p171
sVvalue
p172
V0.7880447979059323
p173
sa(dp174
Vname
p175
Vme
p176
sVvalue
p177
V1:1492349146739,x:2,V,0,0,1280,944:0,N,1,13DzWPfiHIOLjwTNhoLABA:0,R,1,24,0,155,1197,635:0,R,1,25,0,155,1197,633:0,R,1,79,8,798,1264,545:0,R,1,80,8,842,1264,315:0,R,1,81,0,842,1280,335:2,B,4663:18745,e,U
p178
sa(dp179
Vname
p180
Vzx
p181
sVvalue
p182
V1492349190045
p183
sasVheaders
p184
(lp185
sVheadersSize
p186
I853
sVbodySize
p187
I0
sVmethod
p188
VGET
p189
sVhttpVersion
p190
VHTTP/1.1
p191
ssVtimings
p192
(dp193
Vcomment
p194
g4
sVreceive
p195
I0
sVsend
p196
I0
sVssl
p197
I-1
sVconnect
p198
I-1
sVdns
p199
I-1
sVwait
p200
I0
sVblocked
p201
I-1
ssVtime
p202
I0
sVresponse
p203
(dp204
Vstatus
p205
I0
sVcomment
p206
g4
sVcookies
p207
(lp208
sV_error
p209
VNo response received
p210
sVstatusText
p211
g4
sVcontent
p212
(dp213
VmimeType
p214
g4
sVcomment
p215
g4
sVsize
p216
I0
ssVheaders
p217
(lp218
sVheadersSize
p219
I-1
sVredirectURL
p220
g4
sVbodySize
p221
I-1
sVhttpVersion
p222
Vunknown
p223
ssa(dp224
Vcomment
p225
g4
sVserverIPAddress
p226
V216.58.216.196
p227
sVpageref
p228
VColumbia Fireflies
p229
sVstartedDateTime
p230
V2017-04-16T08:26:30.052-05:00
p231
sVcache
p232
(dp233
sVrequest
p234
(dp235
Vcomment
p236
g4
sVcookies
p237
(lp238
sVurl
p239
Vhttp://www.google.com/
p240
sVqueryString
p241
(lp242
sVheaders
p243
(lp244
sVheadersSize
p245
I613
sVbodySize
p246
I0
sVmethod
p247
VGET
p248
sVhttpVersion
p249
VHTTP/1.1
p250
ssVtimings
p251
(dp252
Vcomment
p253
g4
sVreceive
p254
I0
sVsend
p255
I0
sVssl
p256
I-1
sVconnect
p257
I-1
sVdns
p258
I-1
sVwait
p259
I44
sVblocked
p260
I-1
ssVtime
p261
I44
sVresponse
p262
(dp263
Vstatus
p264
I302
sVcomment
p265
g4
sVcookies
p266
(lp267
sVstatusText
p268
VFound
p269
sVcontent
p270
(dp271
VmimeType
p272
Vtext/html; charset=UTF-8
p273
sVcomment
p274
g4
sVsize
p275
I0
ssVheaders
p276
(lp277
sVheadersSize
p278
I609
sVredirectURL
p279
Vhttps://www.google.com/?gws_rd=ssl
p280
sVbodySize
p281
I231
sVhttpVersion
p282
VHTTP/1.1
p283
ssa(dp284
Vcomment
p285
g4
sVserverIPAddress
p286
V216.58.216.196
p287
sVpageref
p288
VColumbia Fireflies
p289
sVstartedDateTime
p290
V2017-04-16T08:26:30.047-05:00
p291
sVcache
p292
(dp293
sVrequest
p294
(dp295
Vcomment
p296
g4
sVcookies
p297
(lp298
sVurl
p299
Vhttps://www.google.com
p300
sVqueryString
p301
(lp302
sVheaders
p303
(lp304
sVheadersSize
p305
I0
sVbodySize
p306
I0
sVmethod
p307
VCONNECT
p308
sVhttpVersion
p309
VHTTP/1.1
p310
ssVtimings
p311
(dp312
Vcomment
p313
g4
sVreceive
p314
I0
sVsend
p315
I0
sVssl
p316
I-1
sVconnect
p317
I30
sVdns
p318
I1
sVwait
p319
I0
sVblocked
p320
I0
ssVtime
p321
I31
sVresponse
p322
(dp323
Vstatus
p324
I0
sVcomment
p325
g4
sVcookies
p326
(lp327
sV_error
p328
VUnable to connect to host
p329
sVstatusText
p330
g4
sVcontent
p331
(dp332
VmimeType
p333
g4
sVcomment
p334
g4
sVsize
p335
I0
ssVheaders
p336
(lp337
sVheadersSize
p338
I-1
sVredirectURL
p339
g4
sVbodySize
p340
I-1
sVhttpVersion
p341
Vunknown
p342
ssa(dp343
Vcomment
p344
g4
sVserverIPAddress
p345
V216.58.216.196
p346
sVpageref
p347
VColumbia Fireflies
p348
sVstartedDateTime
p349
V2017-04-16T08:26:30.134-05:00
p350
sVcache
p351
(dp352
sVrequest
p353
(dp354
Vcomment
p355
g4
sVcookies
p356
(lp357
sVurl
p358
Vhttps://www.google.com/?gws_rd=ssl
p359
sVqueryString
p360
(lp361
(dp362
Vname
p363
Vgws_rd
p364
sVvalue
p365
Vssl
p366
sasVheaders
p367
(lp368
sVheadersSize
p369
I607
sVbodySize
p370
I0
sVmethod
p371
VGET
p372
sVhttpVersion
p373
VHTTP/1.1
p374
ssVtimings
p375
(dp376
Vcomment
p377
g4
sVreceive
p378
I22
sVsend
p379
I0
sVssl
p380
I15
sVconnect
p381
I32
sVdns
p382
I0
sVwait
p383
I81
sVblocked
p384
I0
ssVtime
p385
I136
sVresponse
p386
(dp387
Vstatus
p388
I200
sVcomment
p389
g4
sVcookies
p390
(lp391
sVstatusText
p392
VOK
p393
sVcontent
p394
(dp395
VmimeType
p396
Vtext/html; charset=UTF-8
p397
sVcomment
p398
g4
sVsize
p399
I0
ssVheaders
p400
(lp401
sVheadersSize
p402
I721
sVredirectURL
p403
g4
sVbodySize
p404
I34294
sVhttpVersion
p405
VHTTP/1.1
p406
ssa(dp407
Vcomment
p408
g4
sVserverIPAddress
p409
V216.58.216.196
p410
sVpageref
p411
VColumbia Fireflies
p412
sVstartedDateTime
p413
V2017-04-16T08:26:30.503-05:00
p414
sVcache
p415
(dp416
sVrequest
p417
(dp418
Vcomment
p419
g4
sVcookies
p420
(lp421
sVurl
p422
Vhttps://www.google.com/gen_204?s=mobilewebhp&atyp=csi&ei=BXHzWNiJCKzVjwTH5b2YAw&imc=1&imn=1&imp=0&adh=&xjs=init.34.12.sb_mob.24.dvl.5.c.1.jsa.1.mbsf.1&ima=1&rt=xjsls.36,prt.36,iml.36,dcl.59,xjses.110,xjsee.213,xjs.214,ol.257,aft.36,wsrt.195,cst.0,dnst.0,rqst.109,rspt.110,rqstt.90,unt.54,cstt.54,dit.247
p423
sVqueryString
p424
(lp425
(dp426
Vname
p427
g57
sVvalue
p428
Vmobilewebhp
p429
sa(dp430
Vname
p431
Vatyp
p432
sVvalue
p433
Vcsi
p434
sa(dp435
Vname
p436
Vei
p437
sVvalue
p438
VBXHzWNiJCKzVjwTH5b2YAw
p439
sa(dp440
Vname
p441
Vimc
p442
sVvalue
p443
g59
sa(dp444
Vname
p445
Vimn
p446
sVvalue
p447
g59
sa(dp448
Vname
p449
Vimp
p450
sVvalue
p451
V0
p452
sa(dp453
Vname
p454
Vadh
p455
sVvalue
p456
g4
sa(dp457
Vname
p458
Vxjs
p459
sVvalue
p460
Vinit.34.12.sb_mob.24.dvl.5.c.1.jsa.1.mbsf.1
p461
sa(dp462
Vname
p463
Vima
p464
sVvalue
p465
g59
sa(dp466
Vname
p467
Vrt
p468
sVvalue
p469
Vxjsls.36,prt.36,iml.36,dcl.59,xjses.110,xjsee.213,xjs.214,ol.257,aft.36,wsrt.195,cst.0,dnst.0,rqst.109,rspt.110,rqstt.90,unt.54,cstt.54,dit.247
p470
sasVheaders
p471
(lp472
sVheadersSize
p473
I831
sVbodySize
p474
I0
sVmethod
p475
VGET
p476
sVhttpVersion
p477
VHTTP/1.1
p478
ssVtimings
p479
(dp480
Vcomment
p481
g4
sVreceive
p482
I0
sVsend
p483
I0
sVssl
p484
I-1
sVconnect
p485
I-1
sVdns
p486
I-1
sVwait
p487
I27
sVblocked
p488
I-1
ssVtime
p489
I27
sVresponse
p490
(dp491
Vstatus
p492
I204
sVcomment
p493
g4
sVcookies
p494
(lp495
sVstatusText
p496
VNo Content
p497
sVcontent
p498
(dp499
VmimeType
p500
Vtext/html; charset=UTF-8
p501
sVcomment
p502
g4
sVsize
p503
I0
ssVheaders
p504
(lp505
sVheadersSize
p506
I248
sVredirectURL
p507
g4
sVbodySize
p508
I0
sVhttpVersion
p509
VHTTP/1.1
p510
ssa(dp511
Vcomment
p512
g4
sVserverIPAddress
p513
V216.58.216.196
p514
sVpageref
p515
VColumbia Fireflies
p516
sVstartedDateTime
p517
V2017-04-16T08:26:30.670-05:00
p518
sVcache
p519
(dp520
sVrequest
p521
(dp522
Vcomment
p523
g4
sVcookies
p524
(lp525
sVurl
p526
Vhttps://www.google.com/complete/search?client=mobile-gws-hp&hl=en&gs_rn=64&gs_ri=mobile-gws-hp&sla=1&pfq=cleveland%20indians&gm=602&cp=0&gs_id=1&xhr=t&q=C&tch=1&ech=1&psi=BXHzWNiJCKzVjwTH5b2YAw.1492349190420.1
p527
sVqueryString
p528
(lp529
(dp530
Vname
p531
Vclient
p532
sVvalue
p533
Vmobile-gws-hp
p534
sa(dp535
Vname
p536
Vhl
p537
sVvalue
p538
Ven
p539
sa(dp540
Vname
p541
Vgs_rn
p542
sVvalue
p543
V64
p544
sa(dp545
Vname
p546
Vgs_ri
p547
sVvalue
p548
Vmobile-gws-hp
p549
sa(dp550
Vname
p551
Vsla
p552
sVvalue
p553
g59
sa(dp554
Vname
p555
Vpfq
p556
sVvalue
p557
Vcleveland indians
p558
sa(dp559
Vname
p560
Vgm
p561
sVvalue
p562
V602
p563
sa(dp564
Vname
p565
Vcp
p566
sVvalue
p567
g452
sa(dp568
Vname
p569
Vgs_id
p570
sVvalue
p571
g59
sa(dp572
Vname
p573
Vxhr
p574
sVvalue
p575
g52
sa(dp576
Vname
p577
Vq
p578
sVvalue
p579
g54
sa(dp580
Vname
p581
Vtch
p582
sVvalue
p583
g59
sa(dp584
Vname
p585
Vech
p586
sVvalue
p587
g59
sa(dp588
Vname
p589
Vpsi
p590
sVvalue
p591
VBXHzWNiJCKzVjwTH5b2YAw.1492349190420.1
p592
sasVheaders
p593
(lp594
sVheadersSize
p595
I737
sVbodySize
p596
I0
sVmethod
p597
VGET
p598
sVhttpVersion
p599
VHTTP/1.1
p600
ssVtimings
p601
(dp602
Vcomment
p603
g4
sVreceive
p604
I0
sVsend
p605
I0
sVssl
p606
I-1
sVconnect
p607
I-1
sVdns
p608
I-1
sVwait
p609
I0
sVblocked
p610
I-1
ssVtime
p611
I0
sVresponse
p612
(dp613
Vstatus
p614
I0
sVcomment
p615
g4
sVcookies
p616
(lp617
sV_error
p618
VNo response received
p619
sVstatusText
p620
g4
sVcontent
p621
(dp622
VmimeType
p623
g4
sVcomment
p624
g4
sVsize
p625
I0
ssVheaders
p626
(lp627
sVheadersSize
p628
I-1
sVredirectURL
p629
g4
sVbodySize
p630
I-1
sVhttpVersion
p631
Vunknown
p632
ssa(dp633
Vcomment
p634
g4
sVserverIPAddress
p635
V216.58.216.196
p636
sVpageref
p637
VColumbia Fireflies
p638
sVstartedDateTime
p639
V2017-04-16T08:26:30.815-05:00
p640
sVcache
p641
(dp642
sVrequest
p643
(dp644
Vcomment
p645
g4
sVcookies
p646
(lp647
sVurl
p648
Vhttps://www.google.com/search?site=&source=hp&ei=BXHzWNiJCKzVjwTH5b2YAw&q=Columbia+Fireflies&oq=Columbia+Fireflies&gs_l=mobile-gws-hp.3...222.269.0.300.18.1.0.0.0.0.0.0..0.0....0...1c.1.64.mobile-gws-hp..18.0.0.RkcELsEdr6Q
p649
sVqueryString
p650
(lp651
(dp652
Vname
p653
Vsite
p654
sVvalue
p655
g4
sa(dp656
Vname
p657
Vsource
p658
sVvalue
p659
Vhp
p660
sa(dp661
Vname
p662
Vei
p663
sVvalue
p664
VBXHzWNiJCKzVjwTH5b2YAw
p665
sa(dp666
Vname
p667
g578
sVvalue
p668
VColumbia Fireflies
p669
sa(dp670
Vname
p671
Voq
p672
sVvalue
p673
VColumbia Fireflies
p674
sa(dp675
Vname
p676
Vgs_l
p677
sVvalue
p678
Vmobile-gws-hp.3...222.269.0.300.18.1.0.0.0.0.0.0..0.0....0...1c.1.64.mobile-gws-hp..18.0.0.RkcELsEdr6Q
p679
sasVheaders
p680
(lp681
sVheadersSize
p682
I840
sVbodySize
p683
I0
sVmethod
p684
VGET
p685
sVhttpVersion
p686
VHTTP/1.1
p687
ssVtimings
p688
(dp689
Vcomment
p690
g4
sVreceive
p691
I847
sVsend
p692
I0
sVssl
p693
I35
sVconnect
p694
I57
sVdns
p695
I0
sVwait
p696
I104
sVblocked
p697
I0
ssVtime
p698
I1009
sVresponse
p699
(dp700
Vstatus
p701
I200
sVcomment
p702
g4
sVcookies
p703
(lp704
sVstatusText
p705
VOK
p706
sVcontent
p707
(dp708
VmimeType
p709
Vtext/html; charset=UTF-8
p710
sVcomment
p711
g4
sVsize
p712
I0
ssVheaders
p713
(lp714
sVheadersSize
p715
I363
sVredirectURL
p716
g4
sVbodySize
p717
I130253
sVhttpVersion
p718
VHTTP/1.1
p719
ssa(dp720
Vcomment
p721
g4
sVserverIPAddress
p722
V216.58.216.196
p723
sVpageref
p724
VColumbia Fireflies
p725
sVstartedDateTime
p726
V2017-04-16T08:26:32.214-05:00
p727
sVcache
p728
(dp729
sVrequest
p730
(dp731
Vcomment
p732
g4
sVcookies
p733
(lp734
sVurl
p735
Vhttps://www.google.com/maps/vt/data=RfCSdfNZ0LFPrHSm0ublXdzhdrDFhtmHhN1u-gM,eb1A2pkAr8JkUKMWzsG57X5lbXd13ZEbdkPStlETqOwlY6viNNopO26AvHfn7S06w_SibRbixmNGgRM_rjVfq6-43JliH8AmTpOMMJiK5zou-7dVpVmQkfx_Rv0n-08-7NddJPc?scale=2&w=997
p736
sVqueryString
p737
(lp738
(dp739
Vname
p740
Vscale
p741
sVvalue
p742
g64
sa(dp743
Vname
p744
Vw
p745
sVvalue
p746
V997
p747
sasVheaders
p748
(lp749
sVheadersSize
p750
I742
sVbodySize
p751
I0
sVmethod
p752
VGET
p753
sVhttpVersion
p754
VHTTP/1.1
p755
ssVtimings
p756
(dp757
Vcomment
p758
g4
sVreceive
p759
I55
sVsend
p760
I0
sVssl
p761
I-1
sVconnect
p762
I-1
sVdns
p763
I-1
sVwait
p764
I125
sVblocked
p765
I-1
ssVtime
p766
I181
sVresponse
p767
(dp768
Vstatus
p769
I200
sVcomment
p770
g4
sVcookies
p771
(lp772
sVstatusText
p773
VOK
p774
sVcontent
p775
(dp776
VmimeType
p777
Vimage/png
p778
sVcomment
p779
g4
sVsize
p780
I0
ssVheaders
p781
(lp782
sVheadersSize
p783
I479
sVredirectURL
p784
g4
sVbodySize
p785
I82290
sVhttpVersion
p786
VHTTP/1.1
p787
ssa(dp788
Vcomment
p789
g4
sVserverIPAddress
p790
V172.217.0.1
p791
sVpageref
p792
VColumbia Fireflies
p793
sVstartedDateTime
p794
V2017-04-16T08:26:32.217-05:00
p795
sVcache
p796
(dp797
sVrequest
p798
(dp799
Vcomment
p800
g4
sVcookies
p801
(lp802
sVurl
p803
Vhttps://lh4.googleusercontent.com/-Jb-GMOsomXY/AAAAAAAAAAI/AAAAAAAAAAA/Yo6ZPPRnXLs/s80-c-k-mo/photo.jpg
p804
sVqueryString
p805
(lp806
sVheaders
p807
(lp808
sVheadersSize
p809
I418
sVbodySize
p810
I0
sVmethod
p811
VGET
p812
sVhttpVersion
p813
VHTTP/1.1
p814
ssVtimings
p815
(dp816
Vcomment
p817
g4
sVreceive
p818
I0
sVsend
p819
I0
sVssl
p820
I-1
sVconnect
p821
I-1
sVdns
p822
I-1
sVwait
p823
I33
sVblocked
p824
I-1
ssVtime
p825
I34
sVresponse
p826
(dp827
Vstatus
p828
I200
sVcomment
p829
g4
sVcookies
p830
(lp831
sVstatusText
p832
VOK
p833
sVcontent
p834
(dp835
VmimeType
p836
Vimage/jpeg
p837
sVcomment
p838
g4
sVsize
p839
I0
ssVheaders
p840
(lp841
sVheadersSize
p842
I494
sVredirectURL
p843
g4
sVbodySize
p844
I3117
sVhttpVersion
p845
VHTTP/1.1
p846
ssa(dp847
Vcomment
p848
g4
sVserverIPAddress
p849
V172.217.0.1
p850
sVpageref
p851
VColumbia Fireflies
p852
sVstartedDateTime
p853
V2017-04-16T08:26:32.280-05:00
p854
sVcache
p855
(dp856
sVrequest
p857
(dp858
Vcomment
p859
g4
sVcookies
p860
(lp861
sVurl
p862
Vhttps://lh4.googleusercontent.com/-UoB4w-iWI6E/AAAAAAAAAAI/AAAAAAAAAAA/_0eCsiu4MwE/s80-c-k-mo/photo.jpg
p863
sVqueryString
p864
(lp865
sVheaders
p866
(lp867
sVheadersSize
p868
I418
sVbodySize
p869
I0
sVmethod
p870
VGET
p871
sVhttpVersion
p872
VHTTP/1.1
p873
ssVtimings
p874
(dp875
Vcomment
p876
g4
sVreceive
p877
I2
sVsend
p878
I0
sVssl
p879
I29
sVconnect
p880
I58
sVdns
p881
I0
sVwait
p882
I26
sVblocked
p883
I0
ssVtime
p884
I87
sVresponse
p885
(dp886
Vstatus
p887
I200
sVcomment
p888
g4
sVcookies
p889
(lp890
sVstatusText
p891
VOK
p892
sVcontent
p893
(dp894
VmimeType
p895
Vimage/jpeg
p896
sVcomment
p897
g4
sVsize
p898
I0
ssVheaders
p899
(lp900
sVheadersSize
p901
I482
sVredirectURL
p902
g4
sVbodySize
p903
I4928
sVhttpVersion
p904
VHTTP/1.1
p905
ssa(dp906
Vcomment
p907
g4
sVserverIPAddress
p908
V216.58.216.196
p909
sVpageref
p910
VColumbia Fireflies
p911
sVstartedDateTime
p912
V2017-04-16T08:26:32.303-05:00
p913
sVcache
p914
(dp915
sVrequest
p916
(dp917
Vcomment
p918
g4
sVcookies
p919
(lp920
sVurl
p921
Vhttps://www.google.com/xjs/_/js/k=xjs.qs.en_US.pCBXVCvTH3s.O/m=syl,syj,syn,em3,em8,em6,em7,sym,aa,abd,sy2g,sy2k,sy29,sy2j,sy2d,sy2a,sy2c,sy2f,sy2l,sy2m,sy2n,emd,async,sybn,sybi,sybo,sy1f,sy45,sy46,sy9w,sybk,sybj,sybp,sy1g,sy30,sy47,sybm,sybl,sybq,sy1h,sybh,dvl,syep,foot,ipv6,sy32,emj,shm,sy5g,sy5i,sy5k,sykh,tl,sy2x,sy2y,sy2t,sy38,em12,vs,sy5j,sy5h,sy6u,sy66,sy67,sy7d,sy7j,sy4u,sy69,sy89,sy7e,sykk,sykl,tnv,bct,sy23,sy6t,nvm,sy1y,sy2u,sy22,sy6i,sy34,sy31,sy6j,sy25,sy6l,sy6k,sy6h,emb,em9,ema,sy6m,qkx,syf5,sy99,syf4,sy26,syfc,syfn,syf7,syff,sy1i,sy68,sy8d,sy9b,syf6,syfl,syfr,syfq,syfg,sy1j,sy4q,sy5o,sy5r,sy6n,sy6p,sy8h,syc7,syc8,syfb,syfj,syfs,syft,syg3,syg5,syg7,sy24,emn,emo,syg4,syg6,ivg,sy9m,sy9n,iuci,img,sy4d,sy4f,sy4c,sy4e,sy4b,sy6w,shrb,sy4g,syd7,dgm,sy41,tcc,sy6y,sycu,d3l,syac,syhz,syl6,ssc,twt,sy4h,sy6o,sy5x,sy6r,sy4i,sy5y,sy6a,syeg,lie,sy6b,sccm,kch,sy2z,sy2w,syka,trex,sy3d,sy3u,sy5m,sy6e,sy6f,sy6g,ofmc,mexp,sy7l,sy7t,sy7q,sy87,sy7y,sy80,sy7m,sy82,sy84,sy4l,sy7v,sy7f,sy8k,syi5,syi7,syia,uvl,mtm,sy7u,sy7w,sy7p,sy7s,sy8l,sy85,sy7r,sy81,sy8q,sy7z,sy7o,sy7x,sy86,sy83,sy8t,sy3a,sy3c,sy7g,sy72,sy9u,sy7n,sy3b,sybb,sycx,syew,syi6,syi9,sy91,syb1,syaz,sygq,syi8,hcar,sy4k,sy4v,syd6,syi2,syd4,syi3,syi4,fppu,fpv,sst,syi0,cpn,sy48,sy5b,sy4x,sy4z,sy56,sy52,sy4y,sycv,sy5d,sy8y,syd0,syda,syd5,sy5e,syd1,sydb,syel,syie,pe,syej,sy8b,syek,sybe,syic,sy70,syck,sycy,syem,syid,eil,di,mpc,sy79,sy8e,sy7b,sy8i,sy7c,sy8n,syjz,syk1,sy8s,sy37,sy6q,sya0,sydv,syf0,syig,syip,syk0,syk2,lor,wrl,rp,syha,fprl,sy5t,wra,qaim,qif,sya3,sya2,sya4,sykr,strm,syj7,syj8,syj2,syjc,syj6,syj3,syjg,syjh,syje,syjd,syjk,syji,syjf,syj0,emr,ems,emt,emu,emv,emx,emy,emz,em10,em11,udlg,sy5z,atn,sya1,ampfp/am=gCP4LtMEBXQA2RUaq_oFBISzAFA/rt=j/d=0/t=zcms/rs=ACT90oFwm4NZCwIcuuiqmthdlECdBzkhRA
p922
sVqueryString
p923
(lp924
sVheaders
p925
(lp926
sVheadersSize
p927
I2283
sVbodySize
p928
I0
sVmethod
p929
VGET
p930
sVhttpVersion
p931
VHTTP/1.1
p932
ssVtimings
p933
(dp934
Vcomment
p935
g4
sVreceive
p936
I123
sVsend
p937
I0
sVssl
p938
I23
sVconnect
p939
I40
sVdns
p940
I0
sVwait
p941
I134
sVblocked
p942
I0
ssVtime
p943
I298
sVresponse
p944
(dp945
Vstatus
p946
I200
sVcomment
p947
g4
sVcookies
p948
(lp949
sVstatusText
p950
VOK
p951
sVcontent
p952
(dp953
VmimeType
p954
Vtext/javascript; charset=UTF-8
p955
sVcomment
p956
g4
sVsize
p957
I0
ssVheaders
p958
(lp959
sVheadersSize
p960
I452
sVredirectURL
p961
g4
sVbodySize
p962
I223876
sVhttpVersion
p963
VHTTP/1.1
p964
ssa(dp965
Vcomment
p966
g4
sVserverIPAddress
p967
V216.58.216.196
p968
sVpageref
p969
VColumbia Fireflies
p970
sVstartedDateTime
p971
V2017-04-16T08:26:32.420-05:00
p972
sVcache
p973
(dp974
sVrequest
p975
(dp976
Vcomment
p977
g4
sVcookies
p978
(lp979
sVurl
p980
Vhttps://www.google.com/gen_204?s=lu&atyp=csi&ei=BXHzWIP8Meq-jwTI64z4DQ&ima=1&rt=lmap.1471,aft.854,wsrt.1463,cst.0,dnst.0,rqst.955,rspt.957,rqstt.66,unt.5,cstt.5,dit.1066
p981
sVqueryString
p982
(lp983
(dp984
Vname
p985
g57
sVvalue
p986
Vlu
p987
sa(dp988
Vname
p989
Vatyp
p990
sVvalue
p991
Vcsi
p992
sa(dp993
Vname
p994
Vei
p995
sVvalue
p996
VBXHzWIP8Meq-jwTI64z4DQ
p997
sa(dp998
Vname
p999
Vima
p1000
sVvalue
p1001
g59
sa(dp1002
Vname
p1003
Vrt
p1004
sVvalue
p1005
Vlmap.1471,aft.854,wsrt.1463,cst.0,dnst.0,rqst.955,rspt.957,rqstt.66,unt.5,cstt.5,dit.1066
p1006
sasVheaders
p1007
(lp1008
sVheadersSize
p1009
I686
sVbodySize
p1010
I0
sVmethod
p1011
VGET
p1012
sVhttpVersion
p1013
VHTTP/1.1
p1014
ssVtimings
p1015
(dp1016
Vcomment
p1017
g4
sVreceive
p1018
I0
sVsend
p1019
I0
sVssl
p1020
I-1
sVconnect
p1021
I-1
sVdns
p1022
I-1
sVwait
p1023
I33
sVblocked
p1024
I-1
ssVtime
p1025
I33
sVresponse
p1026
(dp1027
Vstatus
p1028
I204
sVcomment
p1029
g4
sVcookies
p1030
(lp1031
sVstatusText
p1032
VNo Content
p1033
sVcontent
p1034
(dp1035
VmimeType
p1036
Vtext/html; charset=UTF-8
p1037
sVcomment
p1038
g4
sVsize
p1039
I0
ssVheaders
p1040
(lp1041
sVheadersSize
p1042
I248
sVredirectURL
p1043
g4
sVbodySize
p1044
I0
sVhttpVersion
p1045
VHTTP/1.1
p1046
ssa(dp1047
Vcomment
p1048
g4
sVserverIPAddress
p1049
V172.217.0.3
p1050
sVpageref
p1051
VColumbia Fireflies
p1052
sVstartedDateTime
p1053
V2017-04-16T08:26:32.680-05:00
p1054
sVcache
p1055
(dp1056
sVrequest
p1057
(dp1058
Vcomment
p1059
g4
sVcookies
p1060
(lp1061
sVurl
p1062
Vhttps://maps.gstatic.com/tactile/omnibox/anonymous_v3.png
p1063
sVqueryString
p1064
(lp1065
sVheaders
p1066
(lp1067
sVheadersSize
p1068
I372
sVbodySize
p1069
I0
sVmethod
p1070
VGET
p1071
sVhttpVersion
p1072
VHTTP/1.1
p1073
ssVtimings
p1074
(dp1075
Vcomment
p1076
g4
sVreceive
p1077
I0
sVsend
p1078
I0
sVssl
p1079
I406
sVconnect
p1080
I426
sVdns
p1081
I31
sVwait
p1082
I25
sVblocked
p1083
I0
ssVtime
p1084
I483
sVresponse
p1085
(dp1086
Vstatus
p1087
I200
sVcomment
p1088
g4
sVcookies
p1089
(lp1090
sVstatusText
p1091
VOK
p1092
sVcontent
p1093
(dp1094
VmimeType
p1095
Vimage/png
p1096
sVcomment
p1097
g4
sVsize
p1098
I0
ssVheaders
p1099
(lp1100
sVheadersSize
p1101
I383
sVredirectURL
p1102
g4
sVbodySize
p1103
I1028
sVhttpVersion
p1104
VHTTP/1.1
p1105
ssa(dp1106
Vcomment
p1107
g4
sVserverIPAddress
p1108
V216.58.216.196
p1109
sVpageref
p1110
VColumbia Fireflies
p1111
sVstartedDateTime
p1112
V2017-04-16T08:26:32.864-05:00
p1113
sVcache
p1114
(dp1115
sVrequest
p1116
(dp1117
Vcomment
p1118
g4
sVcookies
p1119
(lp1120
sVurl
p1121
Vhttps://www.google.com/async/irc?vet=10ahUKEwjDktz6ianTAhVq34MKHcg1A98Qo0EIpgI..i&ved=0ahUKEwjDktz6ianTAhVq34MKHcg1A98Qo0EIpgI&ei=BXHzWIP8Meq-jwTI64z4DQ&yv=2&async=iu:1,ved:0ahUKEwjDktz6ianTAhVq34MKHcg1A98Qo0EIpgI,_id:irc_async,_pms:qs
p1122
sVqueryString
p1123
(lp1124
(dp1125
Vname
p1126
Vvet
p1127
sVvalue
p1128
V10ahUKEwjDktz6ianTAhVq34MKHcg1A98Qo0EIpgI..i
p1129
sa(dp1130
Vname
p1131
Vved
p1132
sVvalue
p1133
V0ahUKEwjDktz6ianTAhVq34MKHcg1A98Qo0EIpgI
p1134
sa(dp1135
Vname
p1136
Vei
p1137
sVvalue
p1138
VBXHzWIP8Meq-jwTI64z4DQ
p1139
sa(dp1140
Vname
p1141
Vyv
p1142
sVvalue
p1143
g64
sa(dp1144
Vname
p1145
Vasync
p1146
sVvalue
p1147
Viu:1,ved:0ahUKEwjDktz6ianTAhVq34MKHcg1A98Qo0EIpgI,_id:irc_async,_pms:qs
p1148
sasVheaders
p1149
(lp1150
sVheadersSize
p1151
I752
sVbodySize
p1152
I0
sVmethod
p1153
VGET
p1154
sVhttpVersion
p1155
VHTTP/1.1
p1156
ssVtimings
p1157
(dp1158
Vcomment
p1159
g4
sVreceive
p1160
I0
sVsend
p1161
I0
sVssl
p1162
I-1
sVconnect
p1163
I-1
sVdns
p1164
I-1
sVwait
p1165
I35
sVblocked
p1166
I-1
ssVtime
p1167
I36
sVresponse
p1168
(dp1169
Vstatus
p1170
I200
sVcomment
p1171
g4
sVcookies
p1172
(lp1173
sVstatusText
p1174
VOK
p1175
sVcontent
p1176
(dp1177
VmimeType
p1178
Vtext/html; charset=UTF-8
p1179
sVcomment
p1180
g4
sVsize
p1181
I0
ssVheaders
p1182
(lp1183
sVheadersSize
p1184
I383
sVredirectURL
p1185
g4
sVbodySize
p1186
I7789
sVhttpVersion
p1187
VHTTP/1.1
p1188
ssa(dp1189
Vcomment
p1190
g4
sVserverIPAddress
p1191
V172.217.0.1
p1192
sVpageref
p1193
VColumbia Fireflies
p1194
sVstartedDateTime
p1195
V2017-04-16T08:26:32.903-05:00
p1196
sVcache
p1197
(dp1198
sVrequest
p1199
(dp1200
Vcomment
p1201
g4
sVcookies
p1202
(lp1203
sVurl
p1204
Vhttps://lh6.googleusercontent.com/proxy/PlmXRAf7urcnNqxscaHe9WbrX1xS_Nk0DY5S6vwVisqv1yd1yueb-DRiDeiOBXss35oCzUyp1_JKosJnD5jM84En-sGcEz1ocQ0uGJDRQ41-E3a7SRPv1q--t9gB_Kuo_Gs1zgF4ZLIuj1Bej9LrKJtDxqMDjak=w1280-h664-k-no-l60
p1205
sVqueryString
p1206
(lp1207
sVheaders
p1208
(lp1209
sVheadersSize
p1210
I534
sVbodySize
p1211
I0
sVmethod
p1212
VGET
p1213
sVhttpVersion
p1214
VHTTP/1.1
p1215
ssVtimings
p1216
(dp1217
Vcomment
p1218
g4
sVreceive
p1219
I3
sVsend
p1220
I0
sVssl
p1221
I-1
sVconnect
p1222
I-1
sVdns
p1223
I-1
sVwait
p1224
I37
sVblocked
p1225
I-1
ssVtime
p1226
I41
sVresponse
p1227
(dp1228
Vstatus
p1229
I200
sVcomment
p1230
g4
sVcookies
p1231
(lp1232
sVstatusText
p1233
VOK
p1234
sVcontent
p1235
(dp1236
VmimeType
p1237
Vimage/jpeg
p1238
sVcomment
p1239
g4
sVsize
p1240
I0
ssVheaders
p1241
(lp1242
sVheadersSize
p1243
I471
sVredirectURL
p1244
g4
sVbodySize
p1245
I7366
sVhttpVersion
p1246
VHTTP/1.1
p1247
ssa(dp1248
Vcomment
p1249
g4
sVserverIPAddress
p1250
V216.58.216.196
p1251
sVpageref
p1252
VColumbia Fireflies
p1253
sVstartedDateTime
p1254
V2017-04-16T08:26:32.992-05:00
p1255
sVcache
p1256
(dp1257
sVrequest
p1258
(dp1259
Vcomment
p1260
g4
sVcookies
p1261
(lp1262
sVurl
p1263
Vhttps://www.google.com/async/ampfp?vet=10ahUKEwjDktz6ianTAhVq34MKHcg1A98QtZoBCKQC..i&ei=BXHzWIP8Meq-jwTI64z4DQ&yv=2&async=_id:ampfp-async,_pms:qs
p1264
sVqueryString
p1265
(lp1266
(dp1267
Vname
p1268
Vvet
p1269
sVvalue
p1270
V10ahUKEwjDktz6ianTAhVq34MKHcg1A98QtZoBCKQC..i
p1271
sa(dp1272
Vname
p1273
Vei
p1274
sVvalue
p1275
VBXHzWIP8Meq-jwTI64z4DQ
p1276
sa(dp1277
Vname
p1278
Vyv
p1279
sVvalue
p1280
g64
sa(dp1281
Vname
p1282
Vasync
p1283
sVvalue
p1284
V_id:ampfp-async,_pms:qs
p1285
sasVheaders
p1286
(lp1287
sVheadersSize
p1288
I662
sVbodySize
p1289
I0
sVmethod
p1290
VGET
p1291
sVhttpVersion
p1292
VHTTP/1.1
p1293
ssVtimings
p1294
(dp1295
Vcomment
p1296
g4
sVreceive
p1297
I0
sVsend
p1298
I0
sVssl
p1299
I-1
sVconnect
p1300
I-1
sVdns
p1301
I-1
sVwait
p1302
I43
sVblocked
p1303
I-1
ssVtime
p1304
I43
sVresponse
p1305
(dp1306
Vstatus
p1307
I200
sVcomment
p1308
g4
sVcookies
p1309
(lp1310
sVstatusText
p1311
VOK
p1312
sVcontent
p1313
(dp1314
VmimeType
p1315
Vtext/html; charset=UTF-8
p1316
sVcomment
p1317
g4
sVsize
p1318
I0
ssVheaders
p1319
(lp1320
sVheadersSize
p1321
I383
sVredirectURL
p1322
g4
sVbodySize
p1323
I4525
sVhttpVersion
p1324
VHTTP/1.1
p1325
ssa(dp1326
Vcomment
p1327
g4
sVserverIPAddress
p1328
V216.58.216.193
p1329
sVpageref
p1330
VColumbia Fireflies
p1331
sVstartedDateTime
p1332
V2017-04-16T08:26:32.992-05:00
p1333
sVcache
p1334
(dp1335
sVrequest
p1336
(dp1337
Vcomment
p1338
g4
sVcookies
p1339
(lp1340
sVurl
p1341
Vhttps://cdn.ampproject.org/preconnect.gif?0.5975814970334369
p1342
sVqueryString
p1343
(lp1344
(dp1345
Vname
p1346
V0.5975814970334369
p1347
sVvalue
p1348
g4
sasVheaders
p1349
(lp1350
sVheadersSize
p1351
I375
sVbodySize
p1352
I0
sVmethod
p1353
VGET
p1354
sVhttpVersion
p1355
VHTTP/1.1
p1356
ssVtimings
p1357
(dp1358
Vcomment
p1359
g4
sVreceive
p1360
I0
sVsend
p1361
I0
sVssl
p1362
I-1
sVconnect
p1363
I-1
sVdns
p1364
I-1
sVwait
p1365
I26
sVblocked
p1366
I-1
ssVtime
p1367
I26
sVresponse
p1368
(dp1369
Vstatus
p1370
I200
sVcomment
p1371
g4
sVcookies
p1372
(lp1373
sVstatusText
p1374
VOK
p1375
sVcontent
p1376
(dp1377
VmimeType
p1378
Vimage/gif
p1379
sVcomment
p1380
g4
sVsize
p1381
I0
ssVheaders
p1382
(lp1383
sVheadersSize
p1384
I826
sVredirectURL
p1385
g4
sVbodySize
p1386
I37
sVhttpVersion
p1387
VHTTP/1.1
p1388
ssa(dp1389
Vcomment
p1390
g4
sVserverIPAddress
p1391
V216.58.216.196
p1392
sVpageref
p1393
VColumbia Fireflies
p1394
sVstartedDateTime
p1395
V2017-04-16T08:26:33.172-05:00
p1396
sVcache
p1397
(dp1398
sVrequest
p1399
(dp1400
Vcomment
p1401
g4
sVcookies
p1402
(lp1403
sVurl
p1404
Vhttps://www.google.com/async/log_amp_item_set?vet=10ahUKEwjUxOD7ianTAhWk54MKHbHsD54QooQBCAE..i&ei=BXHzWIP8Meq-jwTI64z4DQ&yv=2&async=num_items:1,_fmt:jspb
p1405
sVqueryString
p1406
(lp1407
(dp1408
Vname
p1409
Vvet
p1410
sVvalue
p1411
V10ahUKEwjUxOD7ianTAhWk54MKHbHsD54QooQBCAE..i
p1412
sa(dp1413
Vname
p1414
Vei
p1415
sVvalue
p1416
VBXHzWIP8Meq-jwTI64z4DQ
p1417
sa(dp1418
Vname
p1419
Vyv
p1420
sVvalue
p1421
g64
sa(dp1422
Vname
p1423
Vasync
p1424
sVvalue
p1425
Vnum_items:1,_fmt:jspb
p1426
sasVheaders
p1427
(lp1428
sVheadersSize
p1429
I670
sVbodySize
p1430
I0
sVmethod
p1431
VGET
p1432
sVhttpVersion
p1433
VHTTP/1.1
p1434
ssVtimings
p1435
(dp1436
Vcomment
p1437
g4
sVreceive
p1438
I0
sVsend
p1439
I0
sVssl
p1440
I-1
sVconnect
p1441
I-1
sVdns
p1442
I-1
sVwait
p1443
I66
sVblocked
p1444
I-1
ssVtime
p1445
I66
sVresponse
p1446
(dp1447
Vstatus
p1448
I200
sVcomment
p1449
g4
sVcookies
p1450
(lp1451
sVstatusText
p1452
VOK
p1453
sVcontent
p1454
(dp1455
VmimeType
p1456
Vapplication/json; charset=UTF-8
p1457
sVcomment
p1458
g4
sVsize
p1459
I0
ssVheaders
p1460
(lp1461
sVheadersSize
p1462
I417
sVredirectURL
p1463
g4
sVbodySize
p1464
I132
sVhttpVersion
p1465
VHTTP/1.1
p1466
ssa(dp1467
Vcomment
p1468
g4
sVserverIPAddress
p1469
V216.58.216.196
p1470
sVpageref
p1471
VColumbia Fireflies
p1472
sVstartedDateTime
p1473
V2017-04-16T08:26:33.178-05:00
p1474
sVcache
p1475
(dp1476
sVrequest
p1477
(dp1478
Vcomment
p1479
g4
sVcookies
p1480
(lp1481
sVurl
p1482
Vhttps://www.google.com/gen_204?atyp=i&ct=ampipf&cad=&ampve&ei=BXHzWIP8Meq-jwTI64z4DQ&zx=1492349193177
p1483
sVqueryString
p1484
(lp1485
(dp1486
Vname
p1487
Vatyp
p1488
sVvalue
p1489
g30
sa(dp1490
Vname
p1491
Vct
p1492
sVvalue
p1493
Vampipf
p1494
sa(dp1495
Vname
p1496
Vcad
p1497
sVvalue
p1498
g4
sa(dp1499
Vname
p1500
Vampve
p1501
sVvalue
p1502
g4
sa(dp1503
Vname
p1504
Vei
p1505
sVvalue
p1506
VBXHzWIP8Meq-jwTI64z4DQ
p1507
sa(dp1508
Vname
p1509
Vzx
p1510
sVvalue
p1511
V1492349193177
p1512
sasVheaders
p1513
(lp1514
sVheadersSize
p1515
I618
sVbodySize
p1516
I0
sVmethod
p1517
VGET
p1518
sVhttpVersion
p1519
VHTTP/1.1
p1520
ssVtimings
p1521
(dp1522
Vcomment
p1523
g4
sVreceive
p1524
I0
sVsend
p1525
I0
sVssl
p1526
I-1
sVconnect
p1527
I-1
sVdns
p1528
I-1
sVwait
p1529
I51
sVblocked
p1530
I-1
ssVtime
p1531
I51
sVresponse
p1532
(dp1533
Vstatus
p1534
I204
sVcomment
p1535
g4
sVcookies
p1536
(lp1537
sVstatusText
p1538
VNo Content
p1539
sVcontent
p1540
(dp1541
VmimeType
p1542
Vtext/html; charset=UTF-8
p1543
sVcomment
p1544
g4
sVsize
p1545
I0
ssVheaders
p1546
(lp1547
sVheadersSize
p1548
I248
sVredirectURL
p1549
g4
sVbodySize
p1550
I0
sVhttpVersion
p1551
VHTTP/1.1
p1552
ssa(dp1553
Vcomment
p1554
g4
sVserverIPAddress
p1555
V172.217.0.1
p1556
sVpageref
p1557
VColumbia Fireflies
p1558
sVstartedDateTime
p1559
V2017-04-16T08:26:33.792-05:00
p1560
sVcache
p1561
(dp1562
sVrequest
p1563
(dp1564
Vcomment
p1565
g4
sVcookies
p1566
(lp1567
sVurl
p1568
Vhttps://wjbf-com.cdn.ampproject.org/v/wjbf.com/2017/04/13/greenjackets-drop-home-opener-to-tebow-columbia-fireflies/amp/?amp_js_v=9
p1569
sVqueryString
p1570
(lp1571
(dp1572
Vname
p1573
Vamp_js_v
p1574
sVvalue
p1575
V9
p1576
sasVheaders
p1577
(lp1578
sVheadersSize
p1579
I536
sVbodySize
p1580
I0
sVmethod
p1581
VGET
p1582
sVhttpVersion
p1583
VHTTP/1.1
p1584
ssVtimings
p1585
(dp1586
Vcomment
p1587
g4
sVreceive
p1588
I5
sVsend
p1589
I0
sVssl
p1590
I489
sVconnect
p1591
I568
sVdns
p1592
I42
sVwait
p1593
I67
sVblocked
p1594
I0
ssVtime
p1595
I684
sVresponse
p1596
(dp1597
Vstatus
p1598
I200
sVcomment
p1599
g4
sVcookies
p1600
(lp1601
sVstatusText
p1602
VOK
p1603
sVcontent
p1604
(dp1605
VmimeType
p1606
Vtext/html
p1607
sVcomment
p1608
g4
sVsize
p1609
I0
ssVheaders
p1610
(lp1611
sVheadersSize
p1612
I861
sVredirectURL
p1613
g4
sVbodySize
p1614
I9796
sVhttpVersion
p1615
VHTTP/1.1
p1616
ssa(dp1617
Vcomment
p1618
g4
sVserverIPAddress
p1619
V172.217.0.10
p1620
sVpageref
p1621
VColumbia Fireflies
p1622
sVstartedDateTime
p1623
V2017-04-16T08:26:34.233-05:00
p1624
sVcache
p1625
(dp1626
sVrequest
p1627
(dp1628
Vcomment
p1629
g4
sVcookies
p1630
(lp1631
sVurl
p1632
Vhttps://fonts.googleapis.com/css?family=Open+Sans%3A300italic%2C400italic%2C600italic%2C300%2C400%2C600&subset=latin%2Clatin-ext&ver=4.4.2
p1633
sVqueryString
p1634
(lp1635
(dp1636
Vname
p1637
Vfamily
p1638
sVvalue
p1639
VOpen Sans:300italic,400italic,600italic,300,400,600
p1640
sa(dp1641
Vname
p1642
Vsubset
p1643
sVvalue
p1644
Vlatin,latin-ext
p1645
sa(dp1646
Vname
p1647
Vver
p1648
sVvalue
p1649
V4.4.2
p1650
sasVheaders
p1651
(lp1652
sVheadersSize
p1653
I576
sVbodySize
p1654
I0
sVmethod
p1655
VGET
p1656
sVhttpVersion
p1657
VHTTP/1.1
p1658
ssVtimings
p1659
(dp1660
Vcomment
p1661
g4
sVreceive
p1662
I0
sVsend
p1663
I0
sVssl
p1664
I299
sVconnect
p1665
I313
sVdns
p1666
I42
sVwait
p1667
I32
sVblocked
p1668
I0
ssVtime
p1669
I389
sVresponse
p1670
(dp1671
Vstatus
p1672
I200
sVcomment
p1673
g4
sVcookies
p1674
(lp1675
sVstatusText
p1676
VOK
p1677
sVcontent
p1678
(dp1679
VmimeType
p1680
Vtext/css; charset=utf-8
p1681
sVcomment
p1682
g4
sVsize
p1683
I0
ssVheaders
p1684
(lp1685
sVheadersSize
p1686
I405
sVredirectURL
p1687
g4
sVbodySize
p1688
I1362
sVhttpVersion
p1689
VHTTP/1.1
p1690
ssa(dp1691
Vcomment
p1692
g4
sVserverIPAddress
p1693
V94.31.29.55
p1694
sVpageref
p1695
VColumbia Fireflies
p1696
sVstartedDateTime
p1697
V2017-04-16T08:26:34.242-05:00
p1698
sVcache
p1699
(dp1700
sVrequest
p1701
(dp1702
Vcomment
p1703
g4
sVcookies
p1704
(lp1705
sVurl
p1706
Vhttps://maxcdn.bootstrapcdn.com/font-awesome/4.5.0/css/font-awesome.min.css
p1707
sVqueryString
p1708
(lp1709
sVheaders
p1710
(lp1711
sVheadersSize
p1712
I513
sVbodySize
p1713
I0
sVmethod
p1714
VGET
p1715
sVhttpVersion
p1716
VHTTP/1.1
p1717
ssVtimings
p1718
(dp1719
Vcomment
p1720
g4
sVreceive
p1721
I24
sVsend
p1722
I0
sVssl
p1723
I319
sVconnect
p1724
I332
sVdns
p1725
I32
sVwait
p1726
I31
sVblocked
p1727
I0
ssVtime
p1728
I421
sVresponse
p1729
(dp1730
Vstatus
p1731
I200
sVcomment
p1732
g4
sVcookies
p1733
(lp1734
sVstatusText
p1735
VOK
p1736
sVcontent
p1737
(dp1738
VmimeType
p1739
Vtext/css
p1740
sVcomment
p1741
g4
sVsize
p1742
I0
ssVheaders
p1743
(lp1744
sVheadersSize
p1745
I467
sVredirectURL
p1746
g4
sVbodySize
p1747
I27466
sVhttpVersion
p1748
VHTTP/1.1
p1749
ssa(dp1750
Vcomment
p1751
g4
sVserverIPAddress
p1752
V94.31.29.55
p1753
sVpageref
p1754
VColumbia Fireflies
p1755
sVstartedDateTime
p1756
V2017-04-16T08:26:34.379-05:00
p1757
sVcache
p1758
(dp1759
sVrequest
p1760
(dp1761
Vcomment
p1762
g4
sVcookies
p1763
(lp1764
sVurl
p1765
Vhttps://maxcdn.bootstrapcdn.com/font-awesome/4.5.0/fonts/fontawesome-webfont.woff2?v=4.5.0
p1766
sVqueryString
p1767
(lp1768
(dp1769
Vname
p1770
g62
sVvalue
p1771
V4.5.0
p1772
sasVheaders
p1773
(lp1774
sVheadersSize
p1775
I556
sVbodySize
p1776
I0
sVmethod
p1777
VGET
p1778
sVhttpVersion
p1779
VHTTP/1.1
p1780
ssVtimings
p1781
(dp1782
Vcomment
p1783
g4
sVreceive
p1784
I20
sVsend
p1785
I0
sVssl
p1786
I39
sVconnect
p1787
I52
sVdns
p1788
I0
sVwait
p1789
I66
sVblocked
p1790
I0
ssVtime
p1791
I140
sVresponse
p1792
(dp1793
Vstatus
p1794
I200
sVcomment
p1795
g4
sVcookies
p1796
(lp1797
sVstatusText
p1798
VOK
p1799
sVcontent
p1800
(dp1801
VmimeType
p1802
Vapplication/font-woff2
p1803
sVcomment
p1804
g4
sVsize
p1805
I0
ssVheaders
p1806
(lp1807
sVheadersSize
p1808
I481
sVredirectURL
p1809
g4
sVbodySize
p1810
I66624
sVhttpVersion
p1811
VHTTP/1.1
p1812
ssa(dp1813
Vcomment
p1814
g4
sVserverIPAddress
p1815
V172.217.0.3
p1816
sVpageref
p1817
VColumbia Fireflies
p1818
sVstartedDateTime
p1819
V2017-04-16T08:26:34.680-05:00
p1820
sVcache
p1821
(dp1822
sVrequest
p1823
(dp1824
Vcomment
p1825
g4
sVcookies
p1826
(lp1827
sVurl
p1828
Vhttps://fonts.gstatic.com/s/opensans/v13/xjAJXh38I15wypJXxuGMBogp9Q8gbYrhqGlRav_IXfk.woff2
p1829
sVqueryString
p1830
(lp1831
sVheaders
p1832
(lp1833
sVheadersSize
p1834
I619
sVbodySize
p1835
I0
sVmethod
p1836
VGET
p1837
sVhttpVersion
p1838
VHTTP/1.1
p1839
ssVtimings
p1840
(dp1841
Vcomment
p1842
g4
sVreceive
p1843
I0
sVsend
p1844
I0
sVssl
p1845
I325
sVconnect
p1846
I338
sVdns
p1847
I40
sVwait
p1848
I23
sVblocked
p1849
I0
ssVtime
p1850
I403
sVresponse
p1851
(dp1852
Vstatus
p1853
I200
sVcomment
p1854
g4
sVcookies
p1855
(lp1856
sVstatusText
p1857
VOK
p1858
sVcontent
p1859
(dp1860
VmimeType
p1861
Vfont/woff2
p1862
sVcomment
p1863
g4
sVsize
p1864
I0
ssVheaders
p1865
(lp1866
sVheadersSize
p1867
I453
sVredirectURL
p1868
g4
sVbodySize
p1869
I10920
sVhttpVersion
p1870
VHTTP/1.1
p1871
ssa(dp1872
Vcomment
p1873
g4
sVserverIPAddress
p1874
V216.58.216.196
p1875
sVpageref
p1876
VColumbia Fireflies
p1877
sVstartedDateTime
p1878
V2017-04-16T08:26:34.973-05:00
p1879
sVcache
p1880
(dp1881
sVrequest
p1882
(dp1883
Vcomment
p1884
g4
sVcookies
p1885
(lp1886
sVurl
p1887
Vhttps://www.google.com/gen_204?atyp=i&ct=slh&cad=&ei=UXDzWPr8N6qijwSRuYvwBA&s=3&v=2&pv=0.3333314943202711&me=21:1492349022727,e,H&zx=1492349194967
p1888
sVqueryString
p1889
(lp1890
(dp1891
Vname
p1892
Vatyp
p1893
sVvalue
p1894
g30
sa(dp1895
Vname
p1896
Vct
p1897
sVvalue
p1898
Vslh
p1899
sa(dp1900
Vname
p1901
Vcad
p1902
sVvalue
p1903
g4
sa(dp1904
Vname
p1905
Vei
p1906
sVvalue
p1907
VUXDzWPr8N6qijwSRuYvwBA
p1908
sa(dp1909
Vname
p1910
g57
sVvalue
p1911
V3
p1912
sa(dp1913
Vname
p1914
g62
sVvalue
p1915
g64
sa(dp1916
Vname
p1917
Vpv
p1918
sVvalue
p1919
V0.3333314943202711
p1920
sa(dp1921
Vname
p1922
Vme
p1923
sVvalue
p1924
V21:1492349022727,e,H
p1925
sa(dp1926
Vname
p1927
Vzx
p1928
sVvalue
p1929
V1492349194967
p1930
sasVheaders
p1931
(lp1932
sVheadersSize
p1933
I663
sVbodySize
p1934
I0
sVmethod
p1935
VGET
p1936
sVhttpVersion
p1937
VHTTP/1.1
p1938
ssVtimings
p1939
(dp1940
Vcomment
p1941
g4
sVreceive
p1942
I0
sVsend
p1943
I0
sVssl
p1944
I-1
sVconnect
p1945
I-1
sVdns
p1946
I-1
sVwait
p1947
I42
sVblocked
p1948
I-1
ssVtime
p1949
I42
sVresponse
p1950
(dp1951
Vstatus
p1952
I204
sVcomment
p1953
g4
sVcookies
p1954
(lp1955
sVstatusText
p1956
VNo Content
p1957
sVcontent
p1958
(dp1959
VmimeType
p1960
Vtext/html; charset=UTF-8
p1961
sVcomment
p1962
g4
sVsize
p1963
I0
ssVheaders
p1964
(lp1965
sVheadersSize
p1966
I248
sVredirectURL
p1967
g4
sVbodySize
p1968
I0
sVhttpVersion
p1969
VHTTP/1.1
p1970
ssa(dp1971
Vcomment
p1972
g4
sVserverIPAddress
p1973
V172.217.0.1
p1974
sVpageref
p1975
VColumbia Fireflies
p1976
sVstartedDateTime
p1977
V2017-04-16T08:26:34.974-05:00
p1978
sVcache
p1979
(dp1980
sVrequest
p1981
(dp1982
Vcomment
p1983
g4
sVcookies
p1984
(lp1985
sVurl
p1986
Vhttps://mgtvwjbf-files-wordpress-com.cdn.ampproject.org/ii/w330/s/mgtvwjbf.files.wordpress.com/2015/03/logo-wjbf-large.png?w=150
p1987
sVqueryString
p1988
(lp1989
(dp1990
Vname
p1991
g745
sVvalue
p1992
V150
p1993
sasVheaders
p1994
(lp1995
sVheadersSize
p1996
I551
sVbodySize
p1997
I0
sVmethod
p1998
VGET
p1999
sVhttpVersion
p2000
VHTTP/1.1
p2001
ssVtimings
p2002
(dp2003
Vcomment
p2004
g4
sVreceive
p2005
I0
sVsend
p2006
I0
sVssl
p2007
I609
sVconnect
p2008
I631
sVdns
p2009
I40
sVwait
p2010
I40
sVblocked
p2011
I0
ssVtime
p2012
I713
sVresponse
p2013
(dp2014
Vstatus
p2015
I200
sVcomment
p2016
g4
sVcookies
p2017
(lp2018
sVstatusText
p2019
VOK
p2020
sVcontent
p2021
(dp2022
VmimeType
p2023
Vimage/png
p2024
sVcomment
p2025
g4
sVsize
p2026
I0
ssVheaders
p2027
(lp2028
sVheadersSize
p2029
I823
sVredirectURL
p2030
g4
sVbodySize
p2031
I4156
sVhttpVersion
p2032
VHTTP/1.1
p2033
ssa(dp2034
Vcomment
p2035
g4
sVserverIPAddress
p2036
V172.217.0.1
p2037
sVpageref
p2038
VColumbia Fireflies
p2039
sVstartedDateTime
p2040
V2017-04-16T08:26:34.976-05:00
p2041
sVcache
p2042
(dp2043
sVrequest
p2044
(dp2045
Vcomment
p2046
g4
sVcookies
p2047
(lp2048
sVurl
p2049
Vhttps://mgtvwjbf-files-wordpress-com.cdn.ampproject.org/i/s/mgtvwjbf.files.wordpress.com/2015/06/nathan-palm1.jpg?w=88&h=88&crop=1
p2050
sVqueryString
p2051
(lp2052
(dp2053
Vname
p2054
g745
sVvalue
p2055
V88
p2056
sa(dp2057
Vname
p2058
Vh
p2059
sVvalue
p2060
V88
p2061
sa(dp2062
Vname
p2063
Vcrop
p2064
sVvalue
p2065
g59
sasVheaders
p2066
(lp2067
sVheadersSize
p2068
I553
sVbodySize
p2069
I0
sVmethod
p2070
VGET
p2071
sVhttpVersion
p2072
VHTTP/1.1
p2073
ssVtimings
p2074
(dp2075
Vcomment
p2076
g4
sVreceive
p2077
I0
sVsend
p2078
I0
sVssl
p2079
I619
sVconnect
p2080
I634
sVdns
p2081
I39
sVwait
p2082
I39
sVblocked
p2083
I0
ssVtime
p2084
I712
sVresponse
p2085
(dp2086
Vstatus
p2087
I200
sVcomment
p2088
g4
sVcookies
p2089
(lp2090
sVstatusText
p2091
VOK
p2092
sVcontent
p2093
(dp2094
VmimeType
p2095
Vimage/jpeg
p2096
sVcomment
p2097
g4
sVsize
p2098
I0
ssVheaders
p2099
(lp2100
sVheadersSize
p2101
I848
sVredirectURL
p2102
g4
sVbodySize
p2103
I1740
sVhttpVersion
p2104
VHTTP/1.1
p2105
ssa(dp2106
Vcomment
p2107
g4
sVserverIPAddress
p2108
V216.58.216.196
p2109
sVpageref
p2110
VColumbia Fireflies
p2111
sVstartedDateTime
p2112
V2017-04-16T08:26:35.038-05:00
p2113
sVcache
p2114
(dp2115
sVrequest
p2116
(dp2117
Vcomment
p2118
g4
sVcookies
p2119
(lp2120
sVurl
p2121
Vhttps://www.google.com/gen_204?s=web&atyp=csi&ei=BXHzWIP8Meq-jwTI64z4DQ&imc=36&imn=36&imp=19&adh=&xjs=init.50.15.sb_mob.40.dvl.4.vs.2.c.1.mbsf.1&ima=1&rt=prt.847,iml.949,xjsls.847,dcl.954,qiml.1183,xjses.1044,xjsee.1301,xjs.1303,ol.4093,aft.854,wsrt.183,cst.0,dnst.0,rqst.955,rspt.957,rqstt.66,unt.5,cstt.5,dit.1066
p2122
sVqueryString
p2123
(lp2124
(dp2125
Vname
p2126
g57
sVvalue
p2127
Vweb
p2128
sa(dp2129
Vname
p2130
Vatyp
p2131
sVvalue
p2132
Vcsi
p2133
sa(dp2134
Vname
p2135
Vei
p2136
sVvalue
p2137
VBXHzWIP8Meq-jwTI64z4DQ
p2138
sa(dp2139
Vname
p2140
Vimc
p2141
sVvalue
p2142
V36
p2143
sa(dp2144
Vname
p2145
Vimn
p2146
sVvalue
p2147
V36
p2148
sa(dp2149
Vname
p2150
Vimp
p2151
sVvalue
p2152
V19
p2153
sa(dp2154
Vname
p2155
Vadh
p2156
sVvalue
p2157
g4
sa(dp2158
Vname
p2159
Vxjs
p2160
sVvalue
p2161
Vinit.50.15.sb_mob.40.dvl.4.vs.2.c.1.mbsf.1
p2162
sa(dp2163
Vname
p2164
Vima
p2165
sVvalue
p2166
g59
sa(dp2167
Vname
p2168
Vrt
p2169
sVvalue
p2170
Vprt.847,iml.949,xjsls.847,dcl.954,qiml.1183,xjses.1044,xjsee.1301,xjs.1303,ol.4093,aft.854,wsrt.183,cst.0,dnst.0,rqst.955,rspt.957,rqstt.66,unt.5,cstt.5,dit.1066
p2171
sasVheaders
p2172
(lp2173
sVheadersSize
p2174
I832
sVbodySize
p2175
I0
sVmethod
p2176
VGET
p2177
sVhttpVersion
p2178
VHTTP/1.1
p2179
ssVtimings
p2180
(dp2181
Vcomment
p2182
g4
sVreceive
p2183
I0
sVsend
p2184
I0
sVssl
p2185
I-1
sVconnect
p2186
I-1
sVdns
p2187
I-1
sVwait
p2188
I34
sVblocked
p2189
I-1
ssVtime
p2190
I35
sVresponse
p2191
(dp2192
Vstatus
p2193
I204
sVcomment
p2194
g4
sVcookies
p2195
(lp2196
sVstatusText
p2197
VNo Content
p2198
sVcontent
p2199
(dp2200
VmimeType
p2201
Vtext/html; charset=UTF-8
p2202
sVcomment
p2203
g4
sVsize
p2204
I0
ssVheaders
p2205
(lp2206
sVheadersSize
p2207
I248
sVredirectURL
p2208
g4
sVbodySize
p2209
I0
sVhttpVersion
p2210
VHTTP/1.1
p2211
ssasVversion
p2212
V1.2
p2213
sVpages
p2214
(lp2215
(dp2216
VpageTimings
p2217
(dp2218
Vcomment
p2219
g4
ssVcomment
p2220
g4
sVtitle
p2221
VColumbia Fireflies
p2222
sVid
p2223
VColumbia Fireflies
p2224
sVstartedDateTime
p2225
V2017-04-16T08:26:30.037-05:00
p2226
sasVcreator
p2227
(dp2228
Vcomment
p2229
g4
sVversion
p2230
V2.1.4
p2231
sVname
p2232
VBrowserMob Proxy
p2233
sss.