(dp0
Vlog
p1
(dp2
Vcomment
p3
V
p4
sVentries
p5
(lp6
(dp7
Vcomment
p8
g4
sVserverIPAddress
p9
V74.125.70.103
p10
sVpageref
p11
VRio de Janeiro
p12
sVstartedDateTime
p13
V2017-04-16T08:51:39.427-05:00
p14
sVcache
p15
(dp16
sVrequest
p17
(dp18
Vcomment
p19
g4
sVcookies
p20
(lp21
sVurl
p22
Vhttps://www.google.com/gen_204?atyp=i&ct=slh&cad=&ei=1nbzWOTyFKzXjwS1nraAAg&m=V&t=C&s=1&v=2&pv=0.941961282152072&me=1:1492350681475,x:2,V,0,0,1280,944:0,N,1,1nbzWOTyFKzXjwS1nraAAg:0,R,1,24,8,155,1249,429:0,R,1,26,8,155,1197,429:0,R,1,29,95,155,1024,120:0,R,1,74,8,351,1197,117:0,R,1,84,8,468,1197,116:0,R,1,95,8,594,1249,357:0,R,1,96,8,594,1249,337:0,R,1,97,8,594,1249,110:1,B,3530:17947,e,U&zx=1492350699426
p23
sVqueryString
p24
(lp25
(dp26
Vname
p27
Vatyp
p28
sVvalue
p29
Vi
p30
sa(dp31
Vname
p32
Vct
p33
sVvalue
p34
Vslh
p35
sa(dp36
Vname
p37
Vcad
p38
sVvalue
p39
g4
sa(dp40
Vname
p41
Vei
p42
sVvalue
p43
V1nbzWOTyFKzXjwS1nraAAg
p44
sa(dp45
Vname
p46
Vm
p47
sVvalue
p48
VV
p49
sa(dp50
Vname
p51
Vt
p52
sVvalue
p53
VC
p54
sa(dp55
Vname
p56
Vs
p57
sVvalue
p58
V1
p59
sa(dp60
Vname
p61
Vv
p62
sVvalue
p63
V2
p64
sa(dp65
Vname
p66
Vpv
p67
sVvalue
p68
V0.941961282152072
p69
sa(dp70
Vname
p71
Vme
p72
sVvalue
p73
V1:1492350681475,x:2,V,0,0,1280,944:0,N,1,1nbzWOTyFKzXjwS1nraAAg:0,R,1,24,8,155,1249,429:0,R,1,26,8,155,1197,429:0,R,1,29,95,155,1024,120:0,R,1,74,8,351,1197,117:0,R,1,84,8,468,1197,116:0,R,1,95,8,594,1249,357:0,R,1,96,8,594,1249,337:0,R,1,97,8,594,1249,110:1,B,3530:17947,e,U
p74
sa(dp75
Vname
p76
Vzx
p77
sVvalue
p78
V1492350699426
p79
sasVheaders
p80
(lp81
sVheadersSize
p82
I925
sVbodySize
p83
I0
sVmethod
p84
VGET
p85
sVhttpVersion
p86
VHTTP/1.1
p87
ssVtimings
p88
(dp89
Vcomment
p90
g4
sVreceive
p91
I0
sVsend
p92
I0
sVssl
p93
I-1
sVconnect
p94
I-1
sVdns
p95
I-1
sVwait
p96
I0
sVblocked
p97
I-1
ssVtime
p98
I0
sVresponse
p99
(dp100
Vstatus
p101
I0
sVcomment
p102
g4
sVcookies
p103
(lp104
sV_error
p105
VNo response received
p106
sVstatusText
p107
g4
sVcontent
p108
(dp109
VmimeType
p110
g4
sVcomment
p111
g4
sVsize
p112
I0
ssVheaders
p113
(lp114
sVheadersSize
p115
I-1
sVredirectURL
p116
g4
sVbodySize
p117
I-1
sVhttpVersion
p118
Vunknown
p119
ssa(dp120
Vcomment
p121
g4
sVserverIPAddress
p122
V74.125.70.103
p123
sVpageref
p124
VRio de Janeiro
p125
sVstartedDateTime
p126
V2017-04-16T08:51:39.428-05:00
p127
sVcache
p128
(dp129
sVrequest
p130
(dp131
Vcomment
p132
g4
sVcookies
p133
(lp134
sVurl
p135
Vhttps://www.google.com/gen_204?atyp=i&ct=slh&cad=&ei=gnbzWP3JEMHSjwSaz6n4Dw&m=V&t=C&s=1&v=2&pv=0.2296723393945379&me=1:1492350599216,x:2,V,0,0,1280,944:0,N,1,gnbzWP3JEMHSjwSaz6n4Dw:0,R,1,24,8,155,1249,445:0,R,1,26,8,155,1197,445:0,R,1,28,95,155,1024,120:0,R,1,68,8,351,1197,83:0,R,1,77,8,435,1197,83:0,R,1,86,8,518,1197,82:0,R,1,97,24,610,1217,115:0,R,1,104,8,746,1249,700:0,R,1,111,8,928,1249,332:0,R,1,112,0,929,1265,351:2,B,3554:14824,e,U&zx=1492350699426
p136
sVqueryString
p137
(lp138
(dp139
Vname
p140
Vatyp
p141
sVvalue
p142
g30
sa(dp143
Vname
p144
Vct
p145
sVvalue
p146
Vslh
p147
sa(dp148
Vname
p149
Vcad
p150
sVvalue
p151
g4
sa(dp152
Vname
p153
Vei
p154
sVvalue
p155
VgnbzWP3JEMHSjwSaz6n4Dw
p156
sa(dp157
Vname
p158
g47
sVvalue
p159
g49
sa(dp160
Vname
p161
g52
sVvalue
p162
g54
sa(dp163
Vname
p164
g57
sVvalue
p165
g59
sa(dp166
Vname
p167
g62
sVvalue
p168
g64
sa(dp169
Vname
p170
Vpv
p171
sVvalue
p172
V0.2296723393945379
p173
sa(dp174
Vname
p175
Vme
p176
sVvalue
p177
V1:1492350599216,x:2,V,0,0,1280,944:0,N,1,gnbzWP3JEMHSjwSaz6n4Dw:0,R,1,24,8,155,1249,445:0,R,1,26,8,155,1197,445:0,R,1,28,95,155,1024,120:0,R,1,68,8,351,1197,83:0,R,1,77,8,435,1197,83:0,R,1,86,8,518,1197,82:0,R,1,97,24,610,1217,115:0,R,1,104,8,746,1249,700:0,R,1,111,8,928,1249,332:0,R,1,112,0,929,1265,351:2,B,3554:14824,e,U
p178
sa(dp179
Vname
p180
Vzx
p181
sVvalue
p182
V1492350699426
p183
sasVheaders
p184
(lp185
sVheadersSize
p186
I975
sVbodySize
p187
I0
sVmethod
p188
VGET
p189
sVhttpVersion
p190
VHTTP/1.1
p191
ssVtimings
p192
(dp193
Vcomment
p194
g4
sVreceive
p195
I0
sVsend
p196
I0
sVssl
p197
I-1
sVconnect
p198
I-1
sVdns
p199
I-1
sVwait
p200
I0
sVblocked
p201
I-1
ssVtime
p202
I0
sVresponse
p203
(dp204
Vstatus
p205
I0
sVcomment
p206
g4
sVcookies
p207
(lp208
sV_error
p209
VNo response received
p210
sVstatusText
p211
g4
sVcontent
p212
(dp213
VmimeType
p214
g4
sVcomment
p215
g4
sVsize
p216
I0
ssVheaders
p217
(lp218
sVheadersSize
p219
I-1
sVredirectURL
p220
g4
sVbodySize
p221
I-1
sVhttpVersion
p222
Vunknown
p223
ssa(dp224
Vcomment
p225
g4
sVserverIPAddress
p226
V74.125.70.103
p227
sVpageref
p228
VRio de Janeiro
p229
sVstartedDateTime
p230
V2017-04-16T08:51:39.428-05:00
p231
sVcache
p232
(dp233
sVrequest
p234
(dp235
Vcomment
p236
g4
sVcookies
p237
(lp238
sVurl
p239
Vhttps://www.google.com/gen_204?atyp=i&ct=slh&cad=&ei=l3bzWIqPNcr4jwTk0KXoBw&m=V&t=C&s=1&v=2&pv=0.6432658591212015&me=1:1492350620718,x:2,V,0,0,1280,944:0,N,1,l3bzWIqPNcr4jwTk0KXoBw:0,R,1,22,8,155,1249,194:0,R,1,36,24,359,1217,115:0,R,1,43,8,495,1249,514:0,R,1,50,8,677,1249,332:0,R,1,51,0,678,1265,351:1,B,4078:8239,e,U&zx=1492350699427
p240
sVqueryString
p241
(lp242
(dp243
Vname
p244
Vatyp
p245
sVvalue
p246
g30
sa(dp247
Vname
p248
Vct
p249
sVvalue
p250
Vslh
p251
sa(dp252
Vname
p253
Vcad
p254
sVvalue
p255
g4
sa(dp256
Vname
p257
Vei
p258
sVvalue
p259
Vl3bzWIqPNcr4jwTk0KXoBw
p260
sa(dp261
Vname
p262
g47
sVvalue
p263
g49
sa(dp264
Vname
p265
g52
sVvalue
p266
g54
sa(dp267
Vname
p268
g57
sVvalue
p269
g59
sa(dp270
Vname
p271
g62
sVvalue
p272
g64
sa(dp273
Vname
p274
Vpv
p275
sVvalue
p276
V0.6432658591212015
p277
sa(dp278
Vname
p279
Vme
p280
sVvalue
p281
V1:1492350620718,x:2,V,0,0,1280,944:0,N,1,l3bzWIqPNcr4jwTk0KXoBw:0,R,1,22,8,155,1249,194:0,R,1,36,24,359,1217,115:0,R,1,43,8,495,1249,514:0,R,1,50,8,677,1249,332:0,R,1,51,0,678,1265,351:1,B,4078:8239,e,U
p282
sa(dp283
Vname
p284
Vzx
p285
sVvalue
p286
V1492350699427
p287
sasVheaders
p288
(lp289
sVheadersSize
p290
I853
sVbodySize
p291
I0
sVmethod
p292
VGET
p293
sVhttpVersion
p294
VHTTP/1.1
p295
ssVtimings
p296
(dp297
Vcomment
p298
g4
sVreceive
p299
I0
sVsend
p300
I0
sVssl
p301
I-1
sVconnect
p302
I-1
sVdns
p303
I-1
sVwait
p304
I0
sVblocked
p305
I-1
ssVtime
p306
I0
sVresponse
p307
(dp308
Vstatus
p309
I0
sVcomment
p310
g4
sVcookies
p311
(lp312
sV_error
p313
VNo response received
p314
sVstatusText
p315
g4
sVcontent
p316
(dp317
VmimeType
p318
g4
sVcomment
p319
g4
sVsize
p320
I0
ssVheaders
p321
(lp322
sVheadersSize
p323
I-1
sVredirectURL
p324
g4
sVbodySize
p325
I-1
sVhttpVersion
p326
Vunknown
p327
ssa(dp328
Vcomment
p329
g4
sVserverIPAddress
p330
V74.125.70.103
p331
sVpageref
p332
VRio de Janeiro
p333
sVstartedDateTime
p334
V2017-04-16T08:51:39.431-05:00
p335
sVcache
p336
(dp337
sVrequest
p338
(dp339
Vcomment
p340
g4
sVcookies
p341
(lp342
sVurl
p343
Vhttp://www.google.com/
p344
sVqueryString
p345
(lp346
sVheaders
p347
(lp348
sVheadersSize
p349
I613
sVbodySize
p350
I0
sVmethod
p351
VGET
p352
sVhttpVersion
p353
VHTTP/1.1
p354
ssVtimings
p355
(dp356
Vcomment
p357
g4
sVreceive
p358
I0
sVsend
p359
I0
sVssl
p360
I-1
sVconnect
p361
I-1
sVdns
p362
I-1
sVwait
p363
I38
sVblocked
p364
I-1
ssVtime
p365
I38
sVresponse
p366
(dp367
Vstatus
p368
I302
sVcomment
p369
g4
sVcookies
p370
(lp371
sVstatusText
p372
VFound
p373
sVcontent
p374
(dp375
VmimeType
p376
Vtext/html; charset=UTF-8
p377
sVcomment
p378
g4
sVsize
p379
I0
ssVheaders
p380
(lp381
sVheadersSize
p382
I609
sVredirectURL
p383
Vhttps://www.google.com/?gws_rd=ssl
p384
sVbodySize
p385
I231
sVhttpVersion
p386
VHTTP/1.1
p387
ssa(dp388
Vcomment
p389
g4
sVserverIPAddress
p390
V74.125.70.103
p391
sVpageref
p392
VRio de Janeiro
p393
sVstartedDateTime
p394
V2017-04-16T08:51:39.475-05:00
p395
sVcache
p396
(dp397
sVrequest
p398
(dp399
Vcomment
p400
g4
sVcookies
p401
(lp402
sVurl
p403
Vhttps://www.google.com/?gws_rd=ssl
p404
sVqueryString
p405
(lp406
(dp407
Vname
p408
Vgws_rd
p409
sVvalue
p410
Vssl
p411
sasVheaders
p412
(lp413
sVheadersSize
p414
I607
sVbodySize
p415
I0
sVmethod
p416
VGET
p417
sVhttpVersion
p418
VHTTP/1.1
p419
ssVtimings
p420
(dp421
Vcomment
p422
g4
sVreceive
p423
I28
sVsend
p424
I0
sVssl
p425
I-1
sVconnect
p426
I-1
sVdns
p427
I-1
sVwait
p428
I78
sVblocked
p429
I-1
ssVtime
p430
I106
sVresponse
p431
(dp432
Vstatus
p433
I200
sVcomment
p434
g4
sVcookies
p435
(lp436
sVstatusText
p437
VOK
p438
sVcontent
p439
(dp440
VmimeType
p441
Vtext/html; charset=UTF-8
p442
sVcomment
p443
g4
sVsize
p444
I0
ssVheaders
p445
(lp446
sVheadersSize
p447
I721
sVredirectURL
p448
g4
sVbodySize
p449
I34292
sVhttpVersion
p450
VHTTP/1.1
p451
ssa(dp452
Vcomment
p453
g4
sVserverIPAddress
p454
V74.125.70.103
p455
sVpageref
p456
VRio de Janeiro
p457
sVstartedDateTime
p458
V2017-04-16T08:51:39.829-05:00
p459
sVcache
p460
(dp461
sVrequest
p462
(dp463
Vcomment
p464
g4
sVcookies
p465
(lp466
sVurl
p467
Vhttps://www.google.com/gen_204?s=mobilewebhp&atyp=csi&ei=6nbzWKfZG4mcjwTlprX4Bw&imc=1&imn=1&imp=0&adh=&xjs=init.28.12.sb_mob.23.dvl.3.c.1.mbsf.1.TG8rFw.0&ima=1&rt=xjsls.25,prt.27,iml.27,dcl.44,xjses.104,xjsee.205,xjs.205,ol.246,aft.27,wsrt.152,cst.0,dnst.0,rqst.108,rspt.29,rqstt.49,unt.46,cstt.46,dit.193
p468
sVqueryString
p469
(lp470
(dp471
Vname
p472
g57
sVvalue
p473
Vmobilewebhp
p474
sa(dp475
Vname
p476
Vatyp
p477
sVvalue
p478
Vcsi
p479
sa(dp480
Vname
p481
Vei
p482
sVvalue
p483
V6nbzWKfZG4mcjwTlprX4Bw
p484
sa(dp485
Vname
p486
Vimc
p487
sVvalue
p488
g59
sa(dp489
Vname
p490
Vimn
p491
sVvalue
p492
g59
sa(dp493
Vname
p494
Vimp
p495
sVvalue
p496
V0
p497
sa(dp498
Vname
p499
Vadh
p500
sVvalue
p501
g4
sa(dp502
Vname
p503
Vxjs
p504
sVvalue
p505
Vinit.28.12.sb_mob.23.dvl.3.c.1.mbsf.1.TG8rFw.0
p506
sa(dp507
Vname
p508
Vima
p509
sVvalue
p510
g59
sa(dp511
Vname
p512
Vrt
p513
sVvalue
p514
Vxjsls.25,prt.27,iml.27,dcl.44,xjses.104,xjsee.205,xjs.205,ol.246,aft.27,wsrt.152,cst.0,dnst.0,rqst.108,rspt.29,rqstt.49,unt.46,cstt.46,dit.193
p515
sasVheaders
p516
(lp517
sVheadersSize
p518
I833
sVbodySize
p519
I0
sVmethod
p520
VGET
p521
sVhttpVersion
p522
VHTTP/1.1
p523
ssVtimings
p524
(dp525
Vcomment
p526
g4
sVreceive
p527
I0
sVsend
p528
I0
sVssl
p529
I-1
sVconnect
p530
I-1
sVdns
p531
I-1
sVwait
p532
I26
sVblocked
p533
I-1
ssVtime
p534
I27
sVresponse
p535
(dp536
Vstatus
p537
I204
sVcomment
p538
g4
sVcookies
p539
(lp540
sVstatusText
p541
VNo Content
p542
sVcontent
p543
(dp544
VmimeType
p545
Vtext/html; charset=UTF-8
p546
sVcomment
p547
g4
sVsize
p548
I0
ssVheaders
p549
(lp550
sVheadersSize
p551
I248
sVredirectURL
p552
g4
sVbodySize
p553
I0
sVhttpVersion
p554
VHTTP/1.1
p555
ssa(dp556
Vcomment
p557
g4
sVserverIPAddress
p558
V74.125.70.103
p559
sVpageref
p560
VRio de Janeiro
p561
sVstartedDateTime
p562
V2017-04-16T08:51:39.984-05:00
p563
sVcache
p564
(dp565
sVrequest
p566
(dp567
Vcomment
p568
g4
sVcookies
p569
(lp570
sVurl
p571
Vhttps://www.google.com/complete/search?client=mobile-gws-hp&hl=en&gs_rn=64&gs_ri=mobile-gws-hp&sla=1&pfq=rolls-royce&gm=602&cp=0&gs_id=1&xhr=t&q=R&tch=1&ech=1&psi=6nbzWKfZG4mcjwTlprX4Bw.1492350699753.1
p572
sVqueryString
p573
(lp574
(dp575
Vname
p576
Vclient
p577
sVvalue
p578
Vmobile-gws-hp
p579
sa(dp580
Vname
p581
Vhl
p582
sVvalue
p583
Ven
p584
sa(dp585
Vname
p586
Vgs_rn
p587
sVvalue
p588
V64
p589
sa(dp590
Vname
p591
Vgs_ri
p592
sVvalue
p593
Vmobile-gws-hp
p594
sa(dp595
Vname
p596
Vsla
p597
sVvalue
p598
g59
sa(dp599
Vname
p600
Vpfq
p601
sVvalue
p602
Vrolls-royce
p603
sa(dp604
Vname
p605
Vgm
p606
sVvalue
p607
V602
p608
sa(dp609
Vname
p610
Vcp
p611
sVvalue
p612
g497
sa(dp613
Vname
p614
Vgs_id
p615
sVvalue
p616
g59
sa(dp617
Vname
p618
Vxhr
p619
sVvalue
p620
g52
sa(dp621
Vname
p622
Vq
p623
sVvalue
p624
VR
p625
sa(dp626
Vname
p627
Vtch
p628
sVvalue
p629
g59
sa(dp630
Vname
p631
Vech
p632
sVvalue
p633
g59
sa(dp634
Vname
p635
Vpsi
p636
sVvalue
p637
V6nbzWKfZG4mcjwTlprX4Bw.1492350699753.1
p638
sasVheaders
p639
(lp640
sVheadersSize
p641
I729
sVbodySize
p642
I0
sVmethod
p643
VGET
p644
sVhttpVersion
p645
VHTTP/1.1
p646
ssVtimings
p647
(dp648
Vcomment
p649
g4
sVreceive
p650
I0
sVsend
p651
I0
sVssl
p652
I-1
sVconnect
p653
I-1
sVdns
p654
I-1
sVwait
p655
I0
sVblocked
p656
I-1
ssVtime
p657
I0
sVresponse
p658
(dp659
Vstatus
p660
I0
sVcomment
p661
g4
sVcookies
p662
(lp663
sV_error
p664
VNo response received
p665
sVstatusText
p666
g4
sVcontent
p667
(dp668
VmimeType
p669
g4
sVcomment
p670
g4
sVsize
p671
I0
ssVheaders
p672
(lp673
sVheadersSize
p674
I-1
sVredirectURL
p675
g4
sVbodySize
p676
I-1
sVhttpVersion
p677
Vunknown
p678
ssa(dp679
Vcomment
p680
g4
sVserverIPAddress
p681
V74.125.70.103
p682
sVpageref
p683
VRio de Janeiro
p684
sVstartedDateTime
p685
V2017-04-16T08:51:40.048-05:00
p686
sVcache
p687
(dp688
sVrequest
p689
(dp690
Vcomment
p691
g4
sVcookies
p692
(lp693
sVurl
p694
Vhttps://www.google.com/search?site=&source=hp&ei=6nbzWKfZG4mcjwTlprX4Bw&q=Rio+de+Janeiro&oq=Rio+de+Janeiro&gs_l=mobile-gws-hp.3...205.243.0.267.14.1.0.0.0.0.0.0..0.0....0...1c.1.64.mobile-gws-hp..14.0.0.LSnqsi3JcJc
p695
sVqueryString
p696
(lp697
(dp698
Vname
p699
Vsite
p700
sVvalue
p701
g4
sa(dp702
Vname
p703
Vsource
p704
sVvalue
p705
Vhp
p706
sa(dp707
Vname
p708
Vei
p709
sVvalue
p710
V6nbzWKfZG4mcjwTlprX4Bw
p711
sa(dp712
Vname
p713
g623
sVvalue
p714
VRio de Janeiro
p715
sa(dp716
Vname
p717
Voq
p718
sVvalue
p719
VRio de Janeiro
p720
sa(dp721
Vname
p722
Vgs_l
p723
sVvalue
p724
Vmobile-gws-hp.3...205.243.0.267.14.1.0.0.0.0.0.0..0.0....0...1c.1.64.mobile-gws-hp..14.0.0.LSnqsi3JcJc
p725
sasVheaders
p726
(lp727
sVheadersSize
p728
I832
sVbodySize
p729
I0
sVmethod
p730
VGET
p731
sVhttpVersion
p732
VHTTP/1.1
p733
ssVtimings
p734
(dp735
Vcomment
p736
g4
sVreceive
p737
I1171
sVsend
p738
I0
sVssl
p739
I-1
sVconnect
p740
I-1
sVdns
p741
I-1
sVwait
p742
I91
sVblocked
p743
I-1
ssVtime
p744
I1263
sVresponse
p745
(dp746
Vstatus
p747
I200
sVcomment
p748
g4
sVcookies
p749
(lp750
sVstatusText
p751
VOK
p752
sVcontent
p753
(dp754
VmimeType
p755
Vtext/html; charset=UTF-8
p756
sVcomment
p757
g4
sVsize
p758
I0
ssVheaders
p759
(lp760
sVheadersSize
p761
I363
sVredirectURL
p762
g4
sVbodySize
p763
I140052
sVhttpVersion
p764
VHTTP/1.1
p765
ssa(dp766
Vcomment
p767
g4
sVserverIPAddress
p768
V74.125.70.103
p769
sVpageref
p770
VRio de Janeiro
p771
sVstartedDateTime
p772
V2017-04-16T08:51:43.238-05:00
p773
sVcache
p774
(dp775
sVrequest
p776
(dp777
Vcomment
p778
g4
sVcookies
p779
(lp780
sVurl
p781
Vhttps://www.google.com/maps/vt/data=RfCSdfNZ0LFPrHSm0ublXdzhdrDFhtmHhN1u-gM,gH5IH5Qirr09nBWUYTwWnjQRjShou4dUOkebTypnL3R9ow30aNfQuHRln3DPlmTx-kf-M0qI1bCz4hRT3CHkCRB6724i-1SPG7Q_vl87zmyT9a2muanG-3nC6L5JwSN7DO46ZNrEVDqwyblbfrx0TBVNuXXQwzAxYSkZ9g2GgDqR1UbwFfp4_YdHD5_QUpyRbYGbLwOpco0?scale=2&h=104&w=1024
p782
sVqueryString
p783
(lp784
(dp785
Vname
p786
Vscale
p787
sVvalue
p788
g64
sa(dp789
Vname
p790
Vh
p791
sVvalue
p792
V104
p793
sa(dp794
Vname
p795
Vw
p796
sVvalue
p797
V1024
p798
sasVheaders
p799
(lp800
sVheadersSize
p801
I817
sVbodySize
p802
I0
sVmethod
p803
VGET
p804
sVhttpVersion
p805
VHTTP/1.1
p806
ssVtimings
p807
(dp808
Vcomment
p809
g4
sVreceive
p810
I13
sVsend
p811
I0
sVssl
p812
I-1
sVconnect
p813
I-1
sVdns
p814
I-1
sVwait
p815
I127
sVblocked
p816
I-1
ssVtime
p817
I141
sVresponse
p818
(dp819
Vstatus
p820
I200
sVcomment
p821
g4
sVcookies
p822
(lp823
sVstatusText
p824
VOK
p825
sVcontent
p826
(dp827
VmimeType
p828
Vimage/png
p829
sVcomment
p830
g4
sVsize
p831
I0
ssVheaders
p832
(lp833
sVheadersSize
p834
I479
sVredirectURL
p835
g4
sVbodySize
p836
I78467
sVhttpVersion
p837
VHTTP/1.1
p838
ssa(dp839
Vcomment
p840
g4
sVserverIPAddress
p841
V74.125.70.103
p842
sVpageref
p843
VRio de Janeiro
p844
sVstartedDateTime
p845
V2017-04-16T08:51:43.405-05:00
p846
sVcache
p847
(dp848
sVrequest
p849
(dp850
Vcomment
p851
g4
sVcookies
p852
(lp853
sVurl
p854
Vhttps://www.google.com/gen_204?s=lu&atyp=csi&ei=63bzWM_AAabJjwST_7ygBQ&ima=4&rt=lmap.3222,aft.3221,wsrt.3188,cst.0,dnst.0,rqst.1268,rspt.1175,rqstt.2,unt.2,cstt.2,dit.1368
p855
sVqueryString
p856
(lp857
(dp858
Vname
p859
g57
sVvalue
p860
Vlu
p861
sa(dp862
Vname
p863
Vatyp
p864
sVvalue
p865
Vcsi
p866
sa(dp867
Vname
p868
Vei
p869
sVvalue
p870
V63bzWM_AAabJjwST_7ygBQ
p871
sa(dp872
Vname
p873
Vima
p874
sVvalue
p875
V4
p876
sa(dp877
Vname
p878
Vrt
p879
sVvalue
p880
Vlmap.3222,aft.3221,wsrt.3188,cst.0,dnst.0,rqst.1268,rspt.1175,rqstt.2,unt.2,cstt.2,dit.1368
p881
sasVheaders
p882
(lp883
sVheadersSize
p884
I688
sVbodySize
p885
I0
sVmethod
p886
VGET
p887
sVhttpVersion
p888
VHTTP/1.1
p889
ssVtimings
p890
(dp891
Vcomment
p892
g4
sVreceive
p893
I0
sVsend
p894
I0
sVssl
p895
I-1
sVconnect
p896
I-1
sVdns
p897
I-1
sVwait
p898
I36
sVblocked
p899
I-1
ssVtime
p900
I36
sVresponse
p901
(dp902
Vstatus
p903
I204
sVcomment
p904
g4
sVcookies
p905
(lp906
sVstatusText
p907
VNo Content
p908
sVcontent
p909
(dp910
VmimeType
p911
Vtext/html; charset=UTF-8
p912
sVcomment
p913
g4
sVsize
p914
I0
ssVheaders
p915
(lp916
sVheadersSize
p917
I248
sVredirectURL
p918
g4
sVbodySize
p919
I0
sVhttpVersion
p920
VHTTP/1.1
p921
ssa(dp922
Vcomment
p923
g4
sVserverIPAddress
p924
V74.125.70.103
p925
sVpageref
p926
VRio de Janeiro
p927
sVstartedDateTime
p928
V2017-04-16T08:51:43.657-05:00
p929
sVcache
p930
(dp931
sVrequest
p932
(dp933
Vcomment
p934
g4
sVcookies
p935
(lp936
sVurl
p937
Vhttps://www.google.com/async/irc?vet=10ahUKEwiP4q7Kj6nTAhWm5IMKHZM_D1QQo0EIjAI..i&ved=0ahUKEwiP4q7Kj6nTAhWm5IMKHZM_D1QQo0EIjAI&ei=63bzWM_AAabJjwST_7ygBQ&yv=2&async=iu:1,ved:0ahUKEwiP4q7Kj6nTAhWm5IMKHZM_D1QQo0EIjAI,_id:irc_async,_pms:qs
p938
sVqueryString
p939
(lp940
(dp941
Vname
p942
Vvet
p943
sVvalue
p944
V10ahUKEwiP4q7Kj6nTAhWm5IMKHZM_D1QQo0EIjAI..i
p945
sa(dp946
Vname
p947
Vved
p948
sVvalue
p949
V0ahUKEwiP4q7Kj6nTAhWm5IMKHZM_D1QQo0EIjAI
p950
sa(dp951
Vname
p952
Vei
p953
sVvalue
p954
V63bzWM_AAabJjwST_7ygBQ
p955
sa(dp956
Vname
p957
Vyv
p958
sVvalue
p959
g64
sa(dp960
Vname
p961
Vasync
p962
sVvalue
p963
Viu:1,ved:0ahUKEwiP4q7Kj6nTAhWm5IMKHZM_D1QQo0EIjAI,_id:irc_async,_pms:qs
p964
sasVheaders
p965
(lp966
sVheadersSize
p967
I752
sVbodySize
p968
I0
sVmethod
p969
VGET
p970
sVhttpVersion
p971
VHTTP/1.1
p972
ssVtimings
p973
(dp974
Vcomment
p975
g4
sVreceive
p976
I0
sVsend
p977
I0
sVssl
p978
I-1
sVconnect
p979
I-1
sVdns
p980
I-1
sVwait
p981
I46
sVblocked
p982
I-1
ssVtime
p983
I47
sVresponse
p984
(dp985
Vstatus
p986
I200
sVcomment
p987
g4
sVcookies
p988
(lp989
sVstatusText
p990
VOK
p991
sVcontent
p992
(dp993
VmimeType
p994
Vtext/html; charset=UTF-8
p995
sVcomment
p996
g4
sVsize
p997
I0
ssVheaders
p998
(lp999
sVheadersSize
p1000
I383
sVredirectURL
p1001
g4
sVbodySize
p1002
I7791
sVhttpVersion
p1003
VHTTP/1.1
p1004
ssa(dp1005
Vcomment
p1006
g4
sVserverIPAddress
p1007
V74.125.70.99
p1008
sVpageref
p1009
VRio de Janeiro
p1010
sVstartedDateTime
p1011
V2017-04-16T08:51:43.757-05:00
p1012
sVcache
p1013
(dp1014
sVrequest
p1015
(dp1016
Vcomment
p1017
g4
sVcookies
p1018
(lp1019
sVurl
p1020
Vhttps://www.google.com/gen_204?atyp=i&ct=&cad=&uact=1&vet=10ahUKEwiP4q7Kj6nTAhWm5IMKHZM_D1QQ9V8INCgA..s&ei=63bzWM_AAabJjwST_7ygBQ&zx=1492350703689
p1021
sVqueryString
p1022
(lp1023
(dp1024
Vname
p1025
Vatyp
p1026
sVvalue
p1027
g30
sa(dp1028
Vname
p1029
Vct
p1030
sVvalue
p1031
g4
sa(dp1032
Vname
p1033
Vcad
p1034
sVvalue
p1035
g4
sa(dp1036
Vname
p1037
Vuact
p1038
sVvalue
p1039
g59
sa(dp1040
Vname
p1041
Vvet
p1042
sVvalue
p1043
V10ahUKEwiP4q7Kj6nTAhWm5IMKHZM_D1QQ9V8INCgA..s
p1044
sa(dp1045
Vname
p1046
Vei
p1047
sVvalue
p1048
V63bzWM_AAabJjwST_7ygBQ
p1049
sa(dp1050
Vname
p1051
Vzx
p1052
sVvalue
p1053
V1492350703689
p1054
sasVheaders
p1055
(lp1056
sVheadersSize
p1057
I663
sVbodySize
p1058
I0
sVmethod
p1059
VGET
p1060
sVhttpVersion
p1061
VHTTP/1.1
p1062
ssVtimings
p1063
(dp1064
Vcomment
p1065
g4
sVreceive
p1066
I0
sVsend
p1067
I0
sVssl
p1068
I32
sVconnect
p1069
I62
sVdns
p1070
I2
sVwait
p1071
I29
sVblocked
p1072
I0
ssVtime
p1073
I94
sVresponse
p1074
(dp1075
Vstatus
p1076
I204
sVcomment
p1077
g4
sVcookies
p1078
(lp1079
sVstatusText
p1080
VNo Content
p1081
sVcontent
p1082
(dp1083
VmimeType
p1084
Vtext/html; charset=UTF-8
p1085
sVcomment
p1086
g4
sVsize
p1087
I0
ssVheaders
p1088
(lp1089
sVheadersSize
p1090
I248
sVredirectURL
p1091
g4
sVbodySize
p1092
I0
sVhttpVersion
p1093
VHTTP/1.1
p1094
ssa(dp1095
Vcomment
p1096
g4
sVserverIPAddress
p1097
V74.125.70.99
p1098
sVpageref
p1099
VRio de Janeiro
p1100
sVstartedDateTime
p1101
V2017-04-16T08:51:43.757-05:00
p1102
sVcache
p1103
(dp1104
sVrequest
p1105
(dp1106
Vcomment
p1107
g4
sVcookies
p1108
(lp1109
sVurl
p1110
Vhttps://www.google.com/gen_204?atyp=i&ct=&cad=&uact=1&vet=10ahUKEwiP4q7Kj6nTAhWm5IMKHZM_D1QQ9V8INSgB..s&ei=63bzWM_AAabJjwST_7ygBQ&zx=1492350703692
p1111
sVqueryString
p1112
(lp1113
(dp1114
Vname
p1115
Vatyp
p1116
sVvalue
p1117
g30
sa(dp1118
Vname
p1119
Vct
p1120
sVvalue
p1121
g4
sa(dp1122
Vname
p1123
Vcad
p1124
sVvalue
p1125
g4
sa(dp1126
Vname
p1127
Vuact
p1128
sVvalue
p1129
g59
sa(dp1130
Vname
p1131
Vvet
p1132
sVvalue
p1133
V10ahUKEwiP4q7Kj6nTAhWm5IMKHZM_D1QQ9V8INSgB..s
p1134
sa(dp1135
Vname
p1136
Vei
p1137
sVvalue
p1138
V63bzWM_AAabJjwST_7ygBQ
p1139
sa(dp1140
Vname
p1141
Vzx
p1142
sVvalue
p1143
V1492350703692
p1144
sasVheaders
p1145
(lp1146
sVheadersSize
p1147
I663
sVbodySize
p1148
I0
sVmethod
p1149
VGET
p1150
sVhttpVersion
p1151
VHTTP/1.1
p1152
ssVtimings
p1153
(dp1154
Vcomment
p1155
g4
sVreceive
p1156
I0
sVsend
p1157
I0
sVssl
p1158
I27
sVconnect
p1159
I62
sVdns
p1160
I0
sVwait
p1161
I29
sVblocked
p1162
I0
ssVtime
p1163
I91
sVresponse
p1164
(dp1165
Vstatus
p1166
I204
sVcomment
p1167
g4
sVcookies
p1168
(lp1169
sVstatusText
p1170
VNo Content
p1171
sVcontent
p1172
(dp1173
VmimeType
p1174
Vtext/html; charset=UTF-8
p1175
sVcomment
p1176
g4
sVsize
p1177
I0
ssVheaders
p1178
(lp1179
sVheadersSize
p1180
I248
sVredirectURL
p1181
g4
sVbodySize
p1182
I0
sVhttpVersion
p1183
VHTTP/1.1
p1184
ssa(dp1185
Vcomment
p1186
g4
sVserverIPAddress
p1187
V74.125.70.99
p1188
sVpageref
p1189
VRio de Janeiro
p1190
sVstartedDateTime
p1191
V2017-04-16T08:51:43.799-05:00
p1192
sVcache
p1193
(dp1194
sVrequest
p1195
(dp1196
Vcomment
p1197
g4
sVcookies
p1198
(lp1199
sVurl
p1200
Vhttps://www.google.com/async/ampfp?vet=10ahUKEwiP4q7Kj6nTAhWm5IMKHZM_D1QQtZoBCIoC..i&ei=63bzWM_AAabJjwST_7ygBQ&yv=2&async=_id:ampfp-async,_pms:qs
p1201
sVqueryString
p1202
(lp1203
(dp1204
Vname
p1205
Vvet
p1206
sVvalue
p1207
V10ahUKEwiP4q7Kj6nTAhWm5IMKHZM_D1QQtZoBCIoC..i
p1208
sa(dp1209
Vname
p1210
Vei
p1211
sVvalue
p1212
V63bzWM_AAabJjwST_7ygBQ
p1213
sa(dp1214
Vname
p1215
Vyv
p1216
sVvalue
p1217
g64
sa(dp1218
Vname
p1219
Vasync
p1220
sVvalue
p1221
V_id:ampfp-async,_pms:qs
p1222
sasVheaders
p1223
(lp1224
sVheadersSize
p1225
I662
sVbodySize
p1226
I0
sVmethod
p1227
VGET
p1228
sVhttpVersion
p1229
VHTTP/1.1
p1230
ssVtimings
p1231
(dp1232
Vcomment
p1233
g4
sVreceive
p1234
I0
sVsend
p1235
I0
sVssl
p1236
I-1
sVconnect
p1237
I-1
sVdns
p1238
I-1
sVwait
p1239
I41
sVblocked
p1240
I-1
ssVtime
p1241
I42
sVresponse
p1242
(dp1243
Vstatus
p1244
I200
sVcomment
p1245
g4
sVcookies
p1246
(lp1247
sVstatusText
p1248
VOK
p1249
sVcontent
p1250
(dp1251
VmimeType
p1252
Vtext/html; charset=UTF-8
p1253
sVcomment
p1254
g4
sVsize
p1255
I0
ssVheaders
p1256
(lp1257
sVheadersSize
p1258
I383
sVredirectURL
p1259
g4
sVbodySize
p1260
I4528
sVhttpVersion
p1261
VHTTP/1.1
p1262
ssa(dp1263
Vcomment
p1264
g4
sVserverIPAddress
p1265
V216.58.216.193
p1266
sVpageref
p1267
VRio de Janeiro
p1268
sVstartedDateTime
p1269
V2017-04-16T08:51:43.800-05:00
p1270
sVcache
p1271
(dp1272
sVrequest
p1273
(dp1274
Vcomment
p1275
g4
sVcookies
p1276
(lp1277
sVurl
p1278
Vhttps://cdn.ampproject.org/preconnect.gif?0.5107101135061889
p1279
sVqueryString
p1280
(lp1281
(dp1282
Vname
p1283
V0.5107101135061889
p1284
sVvalue
p1285
g4
sasVheaders
p1286
(lp1287
sVheadersSize
p1288
I375
sVbodySize
p1289
I0
sVmethod
p1290
VGET
p1291
sVhttpVersion
p1292
VHTTP/1.1
p1293
ssVtimings
p1294
(dp1295
Vcomment
p1296
g4
sVreceive
p1297
I0
sVsend
p1298
I0
sVssl
p1299
I-1
sVconnect
p1300
I-1
sVdns
p1301
I-1
sVwait
p1302
I33
sVblocked
p1303
I-1
ssVtime
p1304
I34
sVresponse
p1305
(dp1306
Vstatus
p1307
I200
sVcomment
p1308
g4
sVcookies
p1309
(lp1310
sVstatusText
p1311
VOK
p1312
sVcontent
p1313
(dp1314
VmimeType
p1315
Vimage/gif
p1316
sVcomment
p1317
g4
sVsize
p1318
I0
ssVheaders
p1319
(lp1320
sVheadersSize
p1321
I826
sVredirectURL
p1322
g4
sVbodySize
p1323
I37
sVhttpVersion
p1324
VHTTP/1.1
p1325
ssa(dp1326
Vcomment
p1327
g4
sVserverIPAddress
p1328
V216.58.216.206
p1329
sVpageref
p1330
VRio de Janeiro
p1331
sVstartedDateTime
p1332
V2017-04-16T08:51:43.821-05:00
p1333
sVcache
p1334
(dp1335
sVrequest
p1336
(dp1337
Vcomment
p1338
g4
sVcookies
p1339
(lp1340
sVurl
p1341
Vhttps://encrypted-tbn3.gstatic.com/images?q=tbn:ANd9GcRmazXvxLoqEMiWd3ZkTkn0FhkpX51yH_rj-_E6bEkqD-wTI1TQMI0aKxb7
p1342
sVqueryString
p1343
(lp1344
(dp1345
Vname
p1346
g623
sVvalue
p1347
Vtbn:ANd9GcRmazXvxLoqEMiWd3ZkTkn0FhkpX51yH_rj-_E6bEkqD-wTI1TQMI0aKxb7
p1348
sasVheaders
p1349
(lp1350
sVheadersSize
p1351
I427
sVbodySize
p1352
I0
sVmethod
p1353
VGET
p1354
sVhttpVersion
p1355
VHTTP/1.1
p1356
ssVtimings
p1357
(dp1358
Vcomment
p1359
g4
sVreceive
p1360
I3
sVsend
p1361
I0
sVssl
p1362
I-1
sVconnect
p1363
I-1
sVdns
p1364
I-1
sVwait
p1365
I26
sVblocked
p1366
I-1
ssVtime
p1367
I30
sVresponse
p1368
(dp1369
Vstatus
p1370
I200
sVcomment
p1371
g4
sVcookies
p1372
(lp1373
sVstatusText
p1374
VOK
p1375
sVcontent
p1376
(dp1377
VmimeType
p1378
Vimage/jpeg
p1379
sVcomment
p1380
g4
sVsize
p1381
I0
ssVheaders
p1382
(lp1383
sVheadersSize
p1384
I416
sVredirectURL
p1385
g4
sVbodySize
p1386
I10501
sVhttpVersion
p1387
VHTTP/1.1
p1388
ssa(dp1389
Vcomment
p1390
g4
sVserverIPAddress
p1391
V216.58.216.206
p1392
sVpageref
p1393
VRio de Janeiro
p1394
sVstartedDateTime
p1395
V2017-04-16T08:51:43.823-05:00
p1396
sVcache
p1397
(dp1398
sVrequest
p1399
(dp1400
Vcomment
p1401
g4
sVcookies
p1402
(lp1403
sVurl
p1404
Vhttps://encrypted-tbn0.gstatic.com/images?q=tbn:ANd9GcQHACKYwMNjXuvwMRfNJPmjh9kHv8x1mUBnvqHcLkbsIuieeE4kXtLeF1YL
p1405
sVqueryString
p1406
(lp1407
(dp1408
Vname
p1409
g623
sVvalue
p1410
Vtbn:ANd9GcQHACKYwMNjXuvwMRfNJPmjh9kHv8x1mUBnvqHcLkbsIuieeE4kXtLeF1YL
p1411
sasVheaders
p1412
(lp1413
sVheadersSize
p1414
I427
sVbodySize
p1415
I0
sVmethod
p1416
VGET
p1417
sVhttpVersion
p1418
VHTTP/1.1
p1419
ssVtimings
p1420
(dp1421
Vcomment
p1422
g4
sVreceive
p1423
I3
sVsend
p1424
I0
sVssl
p1425
I-1
sVconnect
p1426
I-1
sVdns
p1427
I-1
sVwait
p1428
I19
sVblocked
p1429
I-1
ssVtime
p1430
I23
sVresponse
p1431
(dp1432
Vstatus
p1433
I200
sVcomment
p1434
g4
sVcookies
p1435
(lp1436
sVstatusText
p1437
VOK
p1438
sVcontent
p1439
(dp1440
VmimeType
p1441
Vimage/jpeg
p1442
sVcomment
p1443
g4
sVsize
p1444
I0
ssVheaders
p1445
(lp1446
sVheadersSize
p1447
I429
sVredirectURL
p1448
g4
sVbodySize
p1449
I14014
sVhttpVersion
p1450
VHTTP/1.1
p1451
ssa(dp1452
Vcomment
p1453
g4
sVserverIPAddress
p1454
V74.125.70.99
p1455
sVpageref
p1456
VRio de Janeiro
p1457
sVstartedDateTime
p1458
V2017-04-16T08:51:43.883-05:00
p1459
sVcache
p1460
(dp1461
sVrequest
p1462
(dp1463
Vcomment
p1464
g4
sVcookies
p1465
(lp1466
sVurl
p1467
Vhttps://www.google.com/xjs/_/js/k=xjs.qs.en_US.pCBXVCvTH3s.O/m=idg,sy4d,sy4f,sy4c,sy4e,sy4b,syd7,dgm,syfu,ish,ivw,syi2,syi5,syi4,fpv,sy8e,sya8,sya6,sya7,sya9,amp,sp/am=gCP4LtMEBXQA2RUaq_oFBISzAFA/rt=j/d=0/t=zcms/rs=ACT90oFwm4NZCwIcuuiqmthdlECdBzkhRA
p1468
sVqueryString
p1469
(lp1470
sVheaders
p1471
(lp1472
sVheadersSize
p1473
I766
sVbodySize
p1474
I0
sVmethod
p1475
VGET
p1476
sVhttpVersion
p1477
VHTTP/1.1
p1478
ssVtimings
p1479
(dp1480
Vcomment
p1481
g4
sVreceive
p1482
I2
sVsend
p1483
I0
sVssl
p1484
I-1
sVconnect
p1485
I-1
sVdns
p1486
I-1
sVwait
p1487
I25
sVblocked
p1488
I-1
ssVtime
p1489
I28
sVresponse
p1490
(dp1491
Vstatus
p1492
I200
sVcomment
p1493
g4
sVcookies
p1494
(lp1495
sVstatusText
p1496
VOK
p1497
sVcontent
p1498
(dp1499
VmimeType
p1500
Vtext/javascript; charset=UTF-8
p1501
sVcomment
p1502
g4
sVsize
p1503
I0
ssVheaders
p1504
(lp1505
sVheadersSize
p1506
I463
sVredirectURL
p1507
g4
sVbodySize
p1508
I30829
sVhttpVersion
p1509
VHTTP/1.1
p1510
ssa(dp1511
Vcomment
p1512
g4
sVserverIPAddress
p1513
V74.125.70.99
p1514
sVpageref
p1515
VRio de Janeiro
p1516
sVstartedDateTime
p1517
V2017-04-16T08:51:43.979-05:00
p1518
sVcache
p1519
(dp1520
sVrequest
p1521
(dp1522
Vcomment
p1523
g4
sVcookies
p1524
(lp1525
sVurl
p1526
Vhttps://www.google.com/async/log_amp_item_set?vet=10ahUKEwi2-pPMj6nTAhXm8YMKHfbQAzMQooQBCAE..i&ei=63bzWM_AAabJjwST_7ygBQ&yv=2&async=num_items:1,_fmt:jspb
p1527
sVqueryString
p1528
(lp1529
(dp1530
Vname
p1531
Vvet
p1532
sVvalue
p1533
V10ahUKEwi2-pPMj6nTAhXm8YMKHfbQAzMQooQBCAE..i
p1534
sa(dp1535
Vname
p1536
Vei
p1537
sVvalue
p1538
V63bzWM_AAabJjwST_7ygBQ
p1539
sa(dp1540
Vname
p1541
Vyv
p1542
sVvalue
p1543
g64
sa(dp1544
Vname
p1545
Vasync
p1546
sVvalue
p1547
Vnum_items:1,_fmt:jspb
p1548
sasVheaders
p1549
(lp1550
sVheadersSize
p1551
I670
sVbodySize
p1552
I0
sVmethod
p1553
VGET
p1554
sVhttpVersion
p1555
VHTTP/1.1
p1556
ssVtimings
p1557
(dp1558
Vcomment
p1559
g4
sVreceive
p1560
I0
sVsend
p1561
I0
sVssl
p1562
I-1
sVconnect
p1563
I-1
sVdns
p1564
I-1
sVwait
p1565
I40
sVblocked
p1566
I-1
ssVtime
p1567
I40
sVresponse
p1568
(dp1569
Vstatus
p1570
I200
sVcomment
p1571
g4
sVcookies
p1572
(lp1573
sVstatusText
p1574
VOK
p1575
sVcontent
p1576
(dp1577
VmimeType
p1578
Vapplication/json; charset=UTF-8
p1579
sVcomment
p1580
g4
sVsize
p1581
I0
ssVheaders
p1582
(lp1583
sVheadersSize
p1584
I417
sVredirectURL
p1585
g4
sVbodySize
p1586
I132
sVhttpVersion
p1587
VHTTP/1.1
p1588
ssa(dp1589
Vcomment
p1590
g4
sVserverIPAddress
p1591
V216.58.216.206
p1592
sVpageref
p1593
VRio de Janeiro
p1594
sVstartedDateTime
p1595
V2017-04-16T08:51:44.320-05:00
p1596
sVcache
p1597
(dp1598
sVrequest
p1599
(dp1600
Vcomment
p1601
g4
sVcookies
p1602
(lp1603
sVurl
p1604
Vhttps://encrypted-tbn1.gstatic.com/images?q=tbn:ANd9GcTnNwolB1oTBYuQqkCMeNYDoUy7mAXltOpAJ18SesEhXffHb4DNwIw23NCsiA
p1605
sVqueryString
p1606
(lp1607
(dp1608
Vname
p1609
g623
sVvalue
p1610
Vtbn:ANd9GcTnNwolB1oTBYuQqkCMeNYDoUy7mAXltOpAJ18SesEhXffHb4DNwIw23NCsiA
p1611
sasVheaders
p1612
(lp1613
sVheadersSize
p1614
I429
sVbodySize
p1615
I0
sVmethod
p1616
VGET
p1617
sVhttpVersion
p1618
VHTTP/1.1
p1619
ssVtimings
p1620
(dp1621
Vcomment
p1622
g4
sVreceive
p1623
I1
sVsend
p1624
I0
sVssl
p1625
I25
sVconnect
p1626
I51
sVdns
p1627
I445
sVwait
p1628
I15
sVblocked
p1629
I0
ssVtime
p1630
I513
sVresponse
p1631
(dp1632
Vstatus
p1633
I200
sVcomment
p1634
g4
sVcookies
p1635
(lp1636
sVstatusText
p1637
VOK
p1638
sVcontent
p1639
(dp1640
VmimeType
p1641
Vimage/jpeg
p1642
sVcomment
p1643
g4
sVsize
p1644
I0
ssVheaders
p1645
(lp1646
sVheadersSize
p1647
I428
sVredirectURL
p1648
g4
sVbodySize
p1649
I11215
sVhttpVersion
p1650
VHTTP/1.1
p1651
ssa(dp1652
Vcomment
p1653
g4
sVserverIPAddress
p1654
V74.125.70.99
p1655
sVpageref
p1656
VRio de Janeiro
p1657
sVstartedDateTime
p1658
V2017-04-16T08:51:44.349-05:00
p1659
sVcache
p1660
(dp1661
sVrequest
p1662
(dp1663
Vcomment
p1664
g4
sVcookies
p1665
(lp1666
sVurl
p1667
Vhttps://www.google.com/gen_204?s=web&atyp=csi&ei=63bzWM_AAabJjwST_7ygBQ&imc=23&imn=23&imp=13&adh=&xjs=init.38.15.sb_mob.23.dvl.4.vs.3.trex.2.c.1&ima=4&rt=prt.1185,iml.3221,xjsls.1185,dcl.1294,xjses.2944,xjsee.3086,xjs.3087,qiml.3844,ol.4181,aft.3221,wsrt.115,cst.0,dnst.0,rqst.1268,rspt.1175,rqstt.2,unt.2,cstt.2,dit.1368
p1668
sVqueryString
p1669
(lp1670
(dp1671
Vname
p1672
g57
sVvalue
p1673
Vweb
p1674
sa(dp1675
Vname
p1676
Vatyp
p1677
sVvalue
p1678
Vcsi
p1679
sa(dp1680
Vname
p1681
Vei
p1682
sVvalue
p1683
V63bzWM_AAabJjwST_7ygBQ
p1684
sa(dp1685
Vname
p1686
Vimc
p1687
sVvalue
p1688
V23
p1689
sa(dp1690
Vname
p1691
Vimn
p1692
sVvalue
p1693
V23
p1694
sa(dp1695
Vname
p1696
Vimp
p1697
sVvalue
p1698
V13
p1699
sa(dp1700
Vname
p1701
Vadh
p1702
sVvalue
p1703
g4
sa(dp1704
Vname
p1705
Vxjs
p1706
sVvalue
p1707
Vinit.38.15.sb_mob.23.dvl.4.vs.3.trex.2.c.1
p1708
sa(dp1709
Vname
p1710
Vima
p1711
sVvalue
p1712
g876
sa(dp1713
Vname
p1714
Vrt
p1715
sVvalue
p1716
Vprt.1185,iml.3221,xjsls.1185,dcl.1294,xjses.2944,xjsee.3086,xjs.3087,qiml.3844,ol.4181,aft.3221,wsrt.115,cst.0,dnst.0,rqst.1268,rspt.1175,rqstt.2,unt.2,cstt.2,dit.1368
p1717
sasVheaders
p1718
(lp1719
sVheadersSize
p1720
I838
sVbodySize
p1721
I0
sVmethod
p1722
VGET
p1723
sVhttpVersion
p1724
VHTTP/1.1
p1725
ssVtimings
p1726
(dp1727
Vcomment
p1728
g4
sVreceive
p1729
I0
sVsend
p1730
I0
sVssl
p1731
I-1
sVconnect
p1732
I-1
sVdns
p1733
I-1
sVwait
p1734
I25
sVblocked
p1735
I-1
ssVtime
p1736
I26
sVresponse
p1737
(dp1738
Vstatus
p1739
I204
sVcomment
p1740
g4
sVcookies
p1741
(lp1742
sVstatusText
p1743
VNo Content
p1744
sVcontent
p1745
(dp1746
VmimeType
p1747
Vtext/html; charset=UTF-8
p1748
sVcomment
p1749
g4
sVsize
p1750
I0
ssVheaders
p1751
(lp1752
sVheadersSize
p1753
I248
sVredirectURL
p1754
g4
sVbodySize
p1755
I0
sVhttpVersion
p1756
VHTTP/1.1
p1757
ssa(dp1758
Vcomment
p1759
g4
sVserverIPAddress
p1760
V74.125.70.99
p1761
sVpageref
p1762
VRio de Janeiro
p1763
sVstartedDateTime
p1764
V2017-04-16T08:51:45.774-05:00
p1765
sVcache
p1766
(dp1767
sVrequest
p1768
(dp1769
Vcomment
p1770
g4
sVcookies
p1771
(lp1772
sVurl
p1773
Vhttps://www.google.com/gen_204?atyp=i&ct=slh&cad=&ei=l3bzWIqPNcr4jwTk0KXoBw&m=V&t=C&s=1&v=2&pv=0.6432658591212015&me=1:1492350620718,x:2,V,0,0,1280,944:0,N,1,l3bzWIqPNcr4jwTk0KXoBw:0,R,1,22,8,155,1249,194:0,R,1,36,24,359,1217,115:0,R,1,43,8,495,1249,514:0,R,1,50,8,677,1249,332:0,R,1,51,0,678,1265,351:1,B,4078:8239,e,U&zx=1492350705773
p1774
sVqueryString
p1775
(lp1776
(dp1777
Vname
p1778
Vatyp
p1779
sVvalue
p1780
g30
sa(dp1781
Vname
p1782
Vct
p1783
sVvalue
p1784
Vslh
p1785
sa(dp1786
Vname
p1787
Vcad
p1788
sVvalue
p1789
g4
sa(dp1790
Vname
p1791
Vei
p1792
sVvalue
p1793
Vl3bzWIqPNcr4jwTk0KXoBw
p1794
sa(dp1795
Vname
p1796
g47
sVvalue
p1797
g49
sa(dp1798
Vname
p1799
g52
sVvalue
p1800
g54
sa(dp1801
Vname
p1802
g57
sVvalue
p1803
g59
sa(dp1804
Vname
p1805
g62
sVvalue
p1806
g64
sa(dp1807
Vname
p1808
Vpv
p1809
sVvalue
p1810
V0.6432658591212015
p1811
sa(dp1812
Vname
p1813
Vme
p1814
sVvalue
p1815
V1:1492350620718,x:2,V,0,0,1280,944:0,N,1,l3bzWIqPNcr4jwTk0KXoBw:0,R,1,22,8,155,1249,194:0,R,1,36,24,359,1217,115:0,R,1,43,8,495,1249,514:0,R,1,50,8,677,1249,332:0,R,1,51,0,678,1265,351:1,B,4078:8239,e,U
p1816
sa(dp1817
Vname
p1818
Vzx
p1819
sVvalue
p1820
V1492350705773
p1821
sasVheaders
p1822
(lp1823
sVheadersSize
p1824
I853
sVbodySize
p1825
I0
sVmethod
p1826
VGET
p1827
sVhttpVersion
p1828
VHTTP/1.1
p1829
ssVtimings
p1830
(dp1831
Vcomment
p1832
g4
sVreceive
p1833
I0
sVsend
p1834
I0
sVssl
p1835
I-1
sVconnect
p1836
I-1
sVdns
p1837
I-1
sVwait
p1838
I35
sVblocked
p1839
I-1
ssVtime
p1840
I35
sVresponse
p1841
(dp1842
Vstatus
p1843
I204
sVcomment
p1844
g4
sVcookies
p1845
(lp1846
sVstatusText
p1847
VNo Content
p1848
sVcontent
p1849
(dp1850
VmimeType
p1851
Vtext/html; charset=UTF-8
p1852
sVcomment
p1853
g4
sVsize
p1854
I0
ssVheaders
p1855
(lp1856
sVheadersSize
p1857
I248
sVredirectURL
p1858
g4
sVbodySize
p1859
I0
sVhttpVersion
p1860
VHTTP/1.1
p1861
ssasVversion
p1862
V1.2
p1863
sVpages
p1864
(lp1865
(dp1866
VpageTimings
p1867
(dp1868
Vcomment
p1869
g4
ssVcomment
p1870
g4
sVtitle
p1871
VRio de Janeiro
p1872
sVid
p1873
VRio de Janeiro
p1874
sVstartedDateTime
p1875
V2017-04-16T08:51:39.381-05:00
p1876
sasVcreator
p1877
(dp1878
Vcomment
p1879
g4
sVversion
p1880
V2.1.4
p1881
sVname
p1882
VBrowserMob Proxy
p1883
sss.