(dp0
Vlog
p1
(dp2
Vcomment
p3
V
p4
sVentries
p5
(lp6
(dp7
Vcomment
p8
g4
sVserverIPAddress
p9
V216.58.216.196
p10
sVpageref
p11
VChris Sale
p12
sVstartedDateTime
p13
V2017-04-16T08:24:21.569-05:00
p14
sVcache
p15
(dp16
sVrequest
p17
(dp18
Vcomment
p19
g4
sVcookies
p20
(lp21
sVurl
p22
Vhttps://www.google.com/gen_204?atyp=i&ct=slh&cad=&ei=cXDzWLyhKqPljwT_-LygBw&m=V&t=C&s=1&v=2&pv=0.9162020108068021&me=1:1492349044355,x:1,V,0,0,1280,944:0,N,1,cXDzWLyhKqPljwT_-LygBw:0,R,1,24,8,155,1249,359:0,R,1,25,8,199,1249,315:0,R,1,26,0,199,1265,335:0,R,1,51,8,524,1249,417:0,R,1,52,8,524,1249,417:0,R,1,55,8,537,1249,40:0,R,1,68,8,589,1249,178:0,R,1,71,0,605,1265,197:0,R,1,111,8,784,1249,20:0,R,1,112,24,784,1217,20:0,R,1,118,8,820,1249,20:0,R,1,122,8,848,1249,20:2,B,3068:17209,e,U&zx=1492349061568
p23
sVqueryString
p24
(lp25
(dp26
Vname
p27
Vatyp
p28
sVvalue
p29
Vi
p30
sa(dp31
Vname
p32
Vct
p33
sVvalue
p34
Vslh
p35
sa(dp36
Vname
p37
Vcad
p38
sVvalue
p39
g4
sa(dp40
Vname
p41
Vei
p42
sVvalue
p43
VcXDzWLyhKqPljwT_-LygBw
p44
sa(dp45
Vname
p46
Vm
p47
sVvalue
p48
VV
p49
sa(dp50
Vname
p51
Vt
p52
sVvalue
p53
VC
p54
sa(dp55
Vname
p56
Vs
p57
sVvalue
p58
V1
p59
sa(dp60
Vname
p61
Vv
p62
sVvalue
p63
V2
p64
sa(dp65
Vname
p66
Vpv
p67
sVvalue
p68
V0.9162020108068021
p69
sa(dp70
Vname
p71
Vme
p72
sVvalue
p73
V1:1492349044355,x:1,V,0,0,1280,944:0,N,1,cXDzWLyhKqPljwT_-LygBw:0,R,1,24,8,155,1249,359:0,R,1,25,8,199,1249,315:0,R,1,26,0,199,1265,335:0,R,1,51,8,524,1249,417:0,R,1,52,8,524,1249,417:0,R,1,55,8,537,1249,40:0,R,1,68,8,589,1249,178:0,R,1,71,0,605,1265,197:0,R,1,111,8,784,1249,20:0,R,1,112,24,784,1217,20:0,R,1,118,8,820,1249,20:0,R,1,122,8,848,1249,20:2,B,3068:17209,e,U
p74
sa(dp75
Vname
p76
Vzx
p77
sVvalue
p78
V1492349061568
p79
sasVheaders
p80
(lp81
sVheadersSize
p82
I1021
sVbodySize
p83
I0
sVmethod
p84
VGET
p85
sVhttpVersion
p86
VHTTP/1.1
p87
ssVtimings
p88
(dp89
Vcomment
p90
g4
sVreceive
p91
I0
sVsend
p92
I0
sVssl
p93
I-1
sVconnect
p94
I-1
sVdns
p95
I-1
sVwait
p96
I0
sVblocked
p97
I-1
ssVtime
p98
I0
sVresponse
p99
(dp100
Vstatus
p101
I0
sVcomment
p102
g4
sVcookies
p103
(lp104
sV_error
p105
VNo response received
p106
sVstatusText
p107
g4
sVcontent
p108
(dp109
VmimeType
p110
g4
sVcomment
p111
g4
sVsize
p112
I0
ssVheaders
p113
(lp114
sVheadersSize
p115
I-1
sVredirectURL
p116
g4
sVbodySize
p117
I-1
sVhttpVersion
p118
Vunknown
p119
ssa(dp120
Vcomment
p121
g4
sVserverIPAddress
p122
V216.58.216.196
p123
sVpageref
p124
VChris Sale
p125
sVstartedDateTime
p126
V2017-04-16T08:24:21.571-05:00
p127
sVcache
p128
(dp129
sVrequest
p130
(dp131
Vcomment
p132
g4
sVcookies
p133
(lp134
sVurl
p135
Vhttps://www.google.com/gen_204?atyp=i&ct=slh&cad=&ei=UXDzWPr8N6qijwSRuYvwBA&s=3&v=2&pv=0.3333314943202711&me=21:1492349022727,e,H&zx=1492349061568
p136
sVqueryString
p137
(lp138
(dp139
Vname
p140
Vatyp
p141
sVvalue
p142
g30
sa(dp143
Vname
p144
Vct
p145
sVvalue
p146
Vslh
p147
sa(dp148
Vname
p149
Vcad
p150
sVvalue
p151
g4
sa(dp152
Vname
p153
Vei
p154
sVvalue
p155
VUXDzWPr8N6qijwSRuYvwBA
p156
sa(dp157
Vname
p158
g57
sVvalue
p159
V3
p160
sa(dp161
Vname
p162
g62
sVvalue
p163
g64
sa(dp164
Vname
p165
Vpv
p166
sVvalue
p167
V0.3333314943202711
p168
sa(dp169
Vname
p170
Vme
p171
sVvalue
p172
V21:1492349022727,e,H
p173
sa(dp174
Vname
p175
Vzx
p176
sVvalue
p177
V1492349061568
p178
sasVheaders
p179
(lp180
sVheadersSize
p181
I663
sVbodySize
p182
I0
sVmethod
p183
VGET
p184
sVhttpVersion
p185
VHTTP/1.1
p186
ssVtimings
p187
(dp188
Vcomment
p189
g4
sVreceive
p190
I0
sVsend
p191
I0
sVssl
p192
I-1
sVconnect
p193
I-1
sVdns
p194
I-1
sVwait
p195
I0
sVblocked
p196
I-1
ssVtime
p197
I0
sVresponse
p198
(dp199
Vstatus
p200
I0
sVcomment
p201
g4
sVcookies
p202
(lp203
sV_error
p204
VNo response received
p205
sVstatusText
p206
g4
sVcontent
p207
(dp208
VmimeType
p209
g4
sVcomment
p210
g4
sVsize
p211
I0
ssVheaders
p212
(lp213
sVheadersSize
p214
I-1
sVredirectURL
p215
g4
sVbodySize
p216
I-1
sVhttpVersion
p217
Vunknown
p218
ssa(dp219
Vcomment
p220
g4
sVserverIPAddress
p221
V216.58.216.196
p222
sVpageref
p223
VChris Sale
p224
sVstartedDateTime
p225
V2017-04-16T08:24:21.574-05:00
p226
sVcache
p227
(dp228
sVrequest
p229
(dp230
Vcomment
p231
g4
sVcookies
p232
(lp233
sVurl
p234
Vhttp://www.google.com/
p235
sVqueryString
p236
(lp237
sVheaders
p238
(lp239
sVheadersSize
p240
I613
sVbodySize
p241
I0
sVmethod
p242
VGET
p243
sVhttpVersion
p244
VHTTP/1.1
p245
ssVtimings
p246
(dp247
Vcomment
p248
g4
sVreceive
p249
I0
sVsend
p250
I0
sVssl
p251
I-1
sVconnect
p252
I-1
sVdns
p253
I-1
sVwait
p254
I37
sVblocked
p255
I-1
ssVtime
p256
I37
sVresponse
p257
(dp258
Vstatus
p259
I302
sVcomment
p260
g4
sVcookies
p261
(lp262
sVstatusText
p263
VFound
p264
sVcontent
p265
(dp266
VmimeType
p267
Vtext/html; charset=UTF-8
p268
sVcomment
p269
g4
sVsize
p270
I0
ssVheaders
p271
(lp272
sVheadersSize
p273
I609
sVredirectURL
p274
Vhttps://www.google.com/?gws_rd=ssl
p275
sVbodySize
p276
I231
sVhttpVersion
p277
VHTTP/1.1
p278
ssa(dp279
Vcomment
p280
g4
sVserverIPAddress
p281
V216.58.216.196
p282
sVpageref
p283
VChris Sale
p284
sVstartedDateTime
p285
V2017-04-16T08:24:21.615-05:00
p286
sVcache
p287
(dp288
sVrequest
p289
(dp290
Vcomment
p291
g4
sVcookies
p292
(lp293
sVurl
p294
Vhttps://www.google.com/?gws_rd=ssl
p295
sVqueryString
p296
(lp297
(dp298
Vname
p299
Vgws_rd
p300
sVvalue
p301
Vssl
p302
sasVheaders
p303
(lp304
sVheadersSize
p305
I607
sVbodySize
p306
I0
sVmethod
p307
VGET
p308
sVhttpVersion
p309
VHTTP/1.1
p310
ssVtimings
p311
(dp312
Vcomment
p313
g4
sVreceive
p314
I21
sVsend
p315
I0
sVssl
p316
I-1
sVconnect
p317
I-1
sVdns
p318
I-1
sVwait
p319
I70
sVblocked
p320
I-1
ssVtime
p321
I92
sVresponse
p322
(dp323
Vstatus
p324
I200
sVcomment
p325
g4
sVcookies
p326
(lp327
sVstatusText
p328
VOK
p329
sVcontent
p330
(dp331
VmimeType
p332
Vtext/html; charset=UTF-8
p333
sVcomment
p334
g4
sVsize
p335
I0
ssVheaders
p336
(lp337
sVheadersSize
p338
I721
sVredirectURL
p339
g4
sVbodySize
p340
I34289
sVhttpVersion
p341
VHTTP/1.1
p342
ssa(dp343
Vcomment
p344
g4
sVserverIPAddress
p345
V216.58.216.196
p346
sVpageref
p347
VChris Sale
p348
sVstartedDateTime
p349
V2017-04-16T08:24:21.922-05:00
p350
sVcache
p351
(dp352
sVrequest
p353
(dp354
Vcomment
p355
g4
sVcookies
p356
(lp357
sVurl
p358
Vhttps://www.google.com/gen_204?s=mobilewebhp&atyp=csi&ei=hHDzWIGfJezCjwTE44JY&imc=1&imn=1&imp=0&adh=&xjs=init.37.12.sb_mob.31.dvl.3.c.1.mbsf.1.async.1&ima=1&rt=xjsls.9,prt.10,iml.10,dcl.38,xjses.79,xjsee.175,xjs.176,ol.210,aft.10,wsrt.140,cst.0,dnst.0,rqst.93,rspt.22,rqstt.48,unt.45,cstt.45,dit.176
p359
sVqueryString
p360
(lp361
(dp362
Vname
p363
g57
sVvalue
p364
Vmobilewebhp
p365
sa(dp366
Vname
p367
Vatyp
p368
sVvalue
p369
Vcsi
p370
sa(dp371
Vname
p372
Vei
p373
sVvalue
p374
VhHDzWIGfJezCjwTE44JY
p375
sa(dp376
Vname
p377
Vimc
p378
sVvalue
p379
g59
sa(dp380
Vname
p381
Vimn
p382
sVvalue
p383
g59
sa(dp384
Vname
p385
Vimp
p386
sVvalue
p387
V0
p388
sa(dp389
Vname
p390
Vadh
p391
sVvalue
p392
g4
sa(dp393
Vname
p394
Vxjs
p395
sVvalue
p396
Vinit.37.12.sb_mob.31.dvl.3.c.1.mbsf.1.async.1
p397
sa(dp398
Vname
p399
Vima
p400
sVvalue
p401
g59
sa(dp402
Vname
p403
Vrt
p404
sVvalue
p405
Vxjsls.9,prt.10,iml.10,dcl.38,xjses.79,xjsee.175,xjs.176,ol.210,aft.10,wsrt.140,cst.0,dnst.0,rqst.93,rspt.22,rqstt.48,unt.45,cstt.45,dit.176
p406
sasVheaders
p407
(lp408
sVheadersSize
p409
I827
sVbodySize
p410
I0
sVmethod
p411
VGET
p412
sVhttpVersion
p413
VHTTP/1.1
p414
ssVtimings
p415
(dp416
Vcomment
p417
g4
sVreceive
p418
I0
sVsend
p419
I0
sVssl
p420
I-1
sVconnect
p421
I-1
sVdns
p422
I-1
sVwait
p423
I71
sVblocked
p424
I-1
ssVtime
p425
I72
sVresponse
p426
(dp427
Vstatus
p428
I204
sVcomment
p429
g4
sVcookies
p430
(lp431
sVstatusText
p432
VNo Content
p433
sVcontent
p434
(dp435
VmimeType
p436
Vtext/html; charset=UTF-8
p437
sVcomment
p438
g4
sVsize
p439
I0
ssVheaders
p440
(lp441
sVheadersSize
p442
I248
sVredirectURL
p443
g4
sVbodySize
p444
I0
sVhttpVersion
p445
VHTTP/1.1
p446
ssa(dp447
Vcomment
p448
g4
sVserverIPAddress
p449
V216.58.216.196
p450
sVpageref
p451
VChris Sale
p452
sVstartedDateTime
p453
V2017-04-16T08:24:22.041-05:00
p454
sVcache
p455
(dp456
sVrequest
p457
(dp458
Vcomment
p459
g4
sVcookies
p460
(lp461
sVurl
p462
Vhttps://www.google.com/complete/search?client=mobile-gws-hp&hl=en&gs_rn=64&gs_ri=mobile-gws-hp&sla=1&pfq=charles%20perrault&gm=602&cp=0&gs_id=1&xhr=t&q=C&tch=1&ech=1&psi=hHDzWIGfJezCjwTE44JY.1492349061845.1
p463
sVqueryString
p464
(lp465
(dp466
Vname
p467
Vclient
p468
sVvalue
p469
Vmobile-gws-hp
p470
sa(dp471
Vname
p472
Vhl
p473
sVvalue
p474
Ven
p475
sa(dp476
Vname
p477
Vgs_rn
p478
sVvalue
p479
V64
p480
sa(dp481
Vname
p482
Vgs_ri
p483
sVvalue
p484
Vmobile-gws-hp
p485
sa(dp486
Vname
p487
Vsla
p488
sVvalue
p489
g59
sa(dp490
Vname
p491
Vpfq
p492
sVvalue
p493
Vcharles perrault
p494
sa(dp495
Vname
p496
Vgm
p497
sVvalue
p498
V602
p499
sa(dp500
Vname
p501
Vcp
p502
sVvalue
p503
g388
sa(dp504
Vname
p505
Vgs_id
p506
sVvalue
p507
g59
sa(dp508
Vname
p509
Vxhr
p510
sVvalue
p511
g52
sa(dp512
Vname
p513
Vq
p514
sVvalue
p515
g54
sa(dp516
Vname
p517
Vtch
p518
sVvalue
p519
g59
sa(dp520
Vname
p521
Vech
p522
sVvalue
p523
g59
sa(dp524
Vname
p525
Vpsi
p526
sVvalue
p527
VhHDzWIGfJezCjwTE44JY.1492349061845.1
p528
sasVheaders
p529
(lp530
sVheadersSize
p531
I734
sVbodySize
p532
I0
sVmethod
p533
VGET
p534
sVhttpVersion
p535
VHTTP/1.1
p536
ssVtimings
p537
(dp538
Vcomment
p539
g4
sVreceive
p540
I0
sVsend
p541
I0
sVssl
p542
I-1
sVconnect
p543
I-1
sVdns
p544
I-1
sVwait
p545
I0
sVblocked
p546
I-1
ssVtime
p547
I0
sVresponse
p548
(dp549
Vstatus
p550
I0
sVcomment
p551
g4
sVcookies
p552
(lp553
sV_error
p554
VNo response received
p555
sVstatusText
p556
g4
sVcontent
p557
(dp558
VmimeType
p559
g4
sVcomment
p560
g4
sVsize
p561
I0
ssVheaders
p562
(lp563
sVheadersSize
p564
I-1
sVredirectURL
p565
g4
sVbodySize
p566
I-1
sVhttpVersion
p567
Vunknown
p568
ssa(dp569
Vcomment
p570
g4
sVserverIPAddress
p571
V216.58.216.196
p572
sVpageref
p573
VChris Sale
p574
sVstartedDateTime
p575
V2017-04-16T08:24:22.095-05:00
p576
sVcache
p577
(dp578
sVrequest
p579
(dp580
Vcomment
p581
g4
sVcookies
p582
(lp583
sVurl
p584
Vhttps://www.google.com/search?site=&source=hp&ei=hHDzWIGfJezCjwTE44JY&q=Chris+Sale&oq=Chris+Sale&gs_l=mobile-gws-hp.3...163.188.0.212.10.1.0.0.0.0.0.0..0.0....0...1c.1.64.mobile-gws-hp..10.0.0.h7tS8NhxMfA
p585
sVqueryString
p586
(lp587
(dp588
Vname
p589
Vsite
p590
sVvalue
p591
g4
sa(dp592
Vname
p593
Vsource
p594
sVvalue
p595
Vhp
p596
sa(dp597
Vname
p598
Vei
p599
sVvalue
p600
VhHDzWIGfJezCjwTE44JY
p601
sa(dp602
Vname
p603
g514
sVvalue
p604
VChris Sale
p605
sa(dp606
Vname
p607
Voq
p608
sVvalue
p609
VChris Sale
p610
sa(dp611
Vname
p612
Vgs_l
p613
sVvalue
p614
Vmobile-gws-hp.3...163.188.0.212.10.1.0.0.0.0.0.0..0.0....0...1c.1.64.mobile-gws-hp..10.0.0.h7tS8NhxMfA
p615
sasVheaders
p616
(lp617
sVheadersSize
p618
I822
sVbodySize
p619
I0
sVmethod
p620
VGET
p621
sVhttpVersion
p622
VHTTP/1.1
p623
ssVtimings
p624
(dp625
Vcomment
p626
g4
sVreceive
p627
I759
sVsend
p628
I0
sVssl
p629
I-1
sVconnect
p630
I-1
sVdns
p631
I-1
sVwait
p632
I231
sVblocked
p633
I-1
ssVtime
p634
I991
sVresponse
p635
(dp636
Vstatus
p637
I200
sVcomment
p638
g4
sVcookies
p639
(lp640
sVstatusText
p641
VOK
p642
sVcontent
p643
(dp644
VmimeType
p645
Vtext/html; charset=UTF-8
p646
sVcomment
p647
g4
sVsize
p648
I0
ssVheaders
p649
(lp650
sVheadersSize
p651
I363
sVredirectURL
p652
g4
sVbodySize
p653
I146657
sVhttpVersion
p654
VHTTP/1.1
p655
ssa(dp656
Vcomment
p657
g4
sVserverIPAddress
p658
V216.58.216.196
p659
sVpageref
p660
VChris Sale
p661
sVstartedDateTime
p662
V2017-04-16T08:24:23.689-05:00
p663
sVcache
p664
(dp665
sVrequest
p666
(dp667
Vcomment
p668
g4
sVcookies
p669
(lp670
sVurl
p671
Vhttps://www.google.com/async/irc?vet=10ahUKEwjcoK69ianTAhUH04MKHU0SC3cQo0EI-AE..i&ved=0ahUKEwjcoK69ianTAhUH04MKHU0SC3cQo0EI-AE&ei=hXDzWJzKCIemjwTNpKy4Bw&yv=2&async=iu:1,ved:0ahUKEwjcoK69ianTAhUH04MKHU0SC3cQo0EI-AE,_id:irc_async,_pms:qs
p672
sVqueryString
p673
(lp674
(dp675
Vname
p676
Vvet
p677
sVvalue
p678
V10ahUKEwjcoK69ianTAhUH04MKHU0SC3cQo0EI-AE..i
p679
sa(dp680
Vname
p681
Vved
p682
sVvalue
p683
V0ahUKEwjcoK69ianTAhUH04MKHU0SC3cQo0EI-AE
p684
sa(dp685
Vname
p686
Vei
p687
sVvalue
p688
VhXDzWJzKCIemjwTNpKy4Bw
p689
sa(dp690
Vname
p691
Vyv
p692
sVvalue
p693
g64
sa(dp694
Vname
p695
Vasync
p696
sVvalue
p697
Viu:1,ved:0ahUKEwjcoK69ianTAhUH04MKHU0SC3cQo0EI-AE,_id:irc_async,_pms:qs
p698
sasVheaders
p699
(lp700
sVheadersSize
p701
I752
sVbodySize
p702
I0
sVmethod
p703
VGET
p704
sVhttpVersion
p705
VHTTP/1.1
p706
ssVtimings
p707
(dp708
Vcomment
p709
g4
sVreceive
p710
I1
sVsend
p711
I0
sVssl
p712
I-1
sVconnect
p713
I-1
sVdns
p714
I-1
sVwait
p715
I112
sVblocked
p716
I-1
ssVtime
p717
I113
sVresponse
p718
(dp719
Vstatus
p720
I200
sVcomment
p721
g4
sVcookies
p722
(lp723
sVstatusText
p724
VOK
p725
sVcontent
p726
(dp727
VmimeType
p728
Vtext/html; charset=UTF-8
p729
sVcomment
p730
g4
sVsize
p731
I0
ssVheaders
p732
(lp733
sVheadersSize
p734
I383
sVredirectURL
p735
g4
sVbodySize
p736
I7793
sVhttpVersion
p737
VHTTP/1.1
p738
ssa(dp739
Vcomment
p740
g4
sVserverIPAddress
p741
V216.58.216.196
p742
sVpageref
p743
VChris Sale
p744
sVstartedDateTime
p745
V2017-04-16T08:24:23.696-05:00
p746
sVcache
p747
(dp748
sVrequest
p749
(dp750
Vcomment
p751
g4
sVcookies
p752
(lp753
sVurl
p754
Vhttps://www.google.com/gen_204?atyp=i&ct=&cad=&vet=10ahUKEwjcoK69ianTAhUH04MKHU0SC3cQ5W0IVygC..s&ei=hXDzWJzKCIemjwTNpKy4Bw&zx=1492349063695
p755
sVqueryString
p756
(lp757
(dp758
Vname
p759
Vatyp
p760
sVvalue
p761
g30
sa(dp762
Vname
p763
Vct
p764
sVvalue
p765
g4
sa(dp766
Vname
p767
Vcad
p768
sVvalue
p769
g4
sa(dp770
Vname
p771
Vvet
p772
sVvalue
p773
V10ahUKEwjcoK69ianTAhUH04MKHU0SC3cQ5W0IVygC..s
p774
sa(dp775
Vname
p776
Vei
p777
sVvalue
p778
VhXDzWJzKCIemjwTNpKy4Bw
p779
sa(dp780
Vname
p781
Vzx
p782
sVvalue
p783
V1492349063695
p784
sasVheaders
p785
(lp786
sVheadersSize
p787
I656
sVbodySize
p788
I0
sVmethod
p789
VGET
p790
sVhttpVersion
p791
VHTTP/1.1
p792
ssVtimings
p793
(dp794
Vcomment
p795
g4
sVreceive
p796
I0
sVsend
p797
I0
sVssl
p798
I-1
sVconnect
p799
I-1
sVdns
p800
I-1
sVwait
p801
I105
sVblocked
p802
I-1
ssVtime
p803
I105
sVresponse
p804
(dp805
Vstatus
p806
I204
sVcomment
p807
g4
sVcookies
p808
(lp809
sVstatusText
p810
VNo Content
p811
sVcontent
p812
(dp813
VmimeType
p814
Vtext/html; charset=UTF-8
p815
sVcomment
p816
g4
sVsize
p817
I0
ssVheaders
p818
(lp819
sVheadersSize
p820
I248
sVredirectURL
p821
g4
sVbodySize
p822
I0
sVhttpVersion
p823
VHTTP/1.1
p824
ssa(dp825
Vcomment
p826
g4
sVserverIPAddress
p827
V216.58.216.196
p828
sVpageref
p829
VChris Sale
p830
sVstartedDateTime
p831
V2017-04-16T08:24:23.698-05:00
p832
sVcache
p833
(dp834
sVrequest
p835
(dp836
Vcomment
p837
g4
sVcookies
p838
(lp839
sVurl
p840
Vhttps://www.google.com/gen_204?atyp=i&ct=&cad=&vet=10ahUKEwjcoK69ianTAhUH04MKHU0SC3cQ5W0IWigD..s&ei=hXDzWJzKCIemjwTNpKy4Bw&zx=1492349063697
p841
sVqueryString
p842
(lp843
(dp844
Vname
p845
Vatyp
p846
sVvalue
p847
g30
sa(dp848
Vname
p849
Vct
p850
sVvalue
p851
g4
sa(dp852
Vname
p853
Vcad
p854
sVvalue
p855
g4
sa(dp856
Vname
p857
Vvet
p858
sVvalue
p859
V10ahUKEwjcoK69ianTAhUH04MKHU0SC3cQ5W0IWigD..s
p860
sa(dp861
Vname
p862
Vei
p863
sVvalue
p864
VhXDzWJzKCIemjwTNpKy4Bw
p865
sa(dp866
Vname
p867
Vzx
p868
sVvalue
p869
V1492349063697
p870
sasVheaders
p871
(lp872
sVheadersSize
p873
I656
sVbodySize
p874
I0
sVmethod
p875
VGET
p876
sVhttpVersion
p877
VHTTP/1.1
p878
ssVtimings
p879
(dp880
Vcomment
p881
g4
sVreceive
p882
I0
sVsend
p883
I0
sVssl
p884
I-1
sVconnect
p885
I-1
sVdns
p886
I-1
sVwait
p887
I95
sVblocked
p888
I-1
ssVtime
p889
I95
sVresponse
p890
(dp891
Vstatus
p892
I204
sVcomment
p893
g4
sVcookies
p894
(lp895
sVstatusText
p896
VNo Content
p897
sVcontent
p898
(dp899
VmimeType
p900
Vtext/html; charset=UTF-8
p901
sVcomment
p902
g4
sVsize
p903
I0
ssVheaders
p904
(lp905
sVheadersSize
p906
I248
sVredirectURL
p907
g4
sVbodySize
p908
I0
sVhttpVersion
p909
VHTTP/1.1
p910
ssa(dp911
Vcomment
p912
g4
sVserverIPAddress
p913
V216.58.216.193
p914
sVpageref
p915
VChris Sale
p916
sVstartedDateTime
p917
V2017-04-16T08:24:23.792-05:00
p918
sVcache
p919
(dp920
sVrequest
p921
(dp922
Vcomment
p923
g4
sVcookies
p924
(lp925
sVurl
p926
Vhttps://cdn.ampproject.org/preconnect.gif?0.3410980546090836
p927
sVqueryString
p928
(lp929
(dp930
Vname
p931
V0.3410980546090836
p932
sVvalue
p933
g4
sasVheaders
p934
(lp935
sVheadersSize
p936
I375
sVbodySize
p937
I0
sVmethod
p938
VGET
p939
sVhttpVersion
p940
VHTTP/1.1
p941
ssVtimings
p942
(dp943
Vcomment
p944
g4
sVreceive
p945
I0
sVsend
p946
I0
sVssl
p947
I-1
sVconnect
p948
I-1
sVdns
p949
I-1
sVwait
p950
I46
sVblocked
p951
I-1
ssVtime
p952
I46
sVresponse
p953
(dp954
Vstatus
p955
I200
sVcomment
p956
g4
sVcookies
p957
(lp958
sVstatusText
p959
VOK
p960
sVcontent
p961
(dp962
VmimeType
p963
Vimage/gif
p964
sVcomment
p965
g4
sVsize
p966
I0
ssVheaders
p967
(lp968
sVheadersSize
p969
I826
sVredirectURL
p970
g4
sVbodySize
p971
I37
sVhttpVersion
p972
VHTTP/1.1
p973
ssa(dp974
Vcomment
p975
g4
sVserverIPAddress
p976
V216.58.216.196
p977
sVpageref
p978
VChris Sale
p979
sVstartedDateTime
p980
V2017-04-16T08:24:23.794-05:00
p981
sVcache
p982
(dp983
sVrequest
p984
(dp985
Vcomment
p986
g4
sVcookies
p987
(lp988
sVurl
p989
Vhttps://www.google.com/async/ampfp?vet=10ahUKEwjcoK69ianTAhUH04MKHU0SC3cQtZoBCPYB..i&ei=hXDzWJzKCIemjwTNpKy4Bw&yv=2&async=_id:ampfp-async,_pms:qs
p990
sVqueryString
p991
(lp992
(dp993
Vname
p994
Vvet
p995
sVvalue
p996
V10ahUKEwjcoK69ianTAhUH04MKHU0SC3cQtZoBCPYB..i
p997
sa(dp998
Vname
p999
Vei
p1000
sVvalue
p1001
VhXDzWJzKCIemjwTNpKy4Bw
p1002
sa(dp1003
Vname
p1004
Vyv
p1005
sVvalue
p1006
g64
sa(dp1007
Vname
p1008
Vasync
p1009
sVvalue
p1010
V_id:ampfp-async,_pms:qs
p1011
sasVheaders
p1012
(lp1013
sVheadersSize
p1014
I662
sVbodySize
p1015
I0
sVmethod
p1016
VGET
p1017
sVhttpVersion
p1018
VHTTP/1.1
p1019
ssVtimings
p1020
(dp1021
Vcomment
p1022
g4
sVreceive
p1023
I5
sVsend
p1024
I0
sVssl
p1025
I-1
sVconnect
p1026
I-1
sVdns
p1027
I-1
sVwait
p1028
I56
sVblocked
p1029
I-1
ssVtime
p1030
I62
sVresponse
p1031
(dp1032
Vstatus
p1033
I200
sVcomment
p1034
g4
sVcookies
p1035
(lp1036
sVstatusText
p1037
VOK
p1038
sVcontent
p1039
(dp1040
VmimeType
p1041
Vtext/html; charset=UTF-8
p1042
sVcomment
p1043
g4
sVsize
p1044
I0
ssVheaders
p1045
(lp1046
sVheadersSize
p1047
I383
sVredirectURL
p1048
g4
sVbodySize
p1049
I4525
sVhttpVersion
p1050
VHTTP/1.1
p1051
ssa(dp1052
Vcomment
p1053
g4
sVserverIPAddress
p1054
V216.58.216.206
p1055
sVpageref
p1056
VChris Sale
p1057
sVstartedDateTime
p1058
V2017-04-16T08:24:23.814-05:00
p1059
sVcache
p1060
(dp1061
sVrequest
p1062
(dp1063
Vcomment
p1064
g4
sVcookies
p1065
(lp1066
sVurl
p1067
Vhttps://encrypted-tbn3.gstatic.com/images?q=tbn:ANd9GcRIn4JwHojnnsm-PW35x6IJZfQy8NqyeGTRtZlweoY0aumvDcFZPQDeeAvUtQ
p1068
sVqueryString
p1069
(lp1070
(dp1071
Vname
p1072
g514
sVvalue
p1073
Vtbn:ANd9GcRIn4JwHojnnsm-PW35x6IJZfQy8NqyeGTRtZlweoY0aumvDcFZPQDeeAvUtQ
p1074
sasVheaders
p1075
(lp1076
sVheadersSize
p1077
I429
sVbodySize
p1078
I0
sVmethod
p1079
VGET
p1080
sVhttpVersion
p1081
VHTTP/1.1
p1082
ssVtimings
p1083
(dp1084
Vcomment
p1085
g4
sVreceive
p1086
I0
sVsend
p1087
I0
sVssl
p1088
I-1
sVconnect
p1089
I-1
sVdns
p1090
I-1
sVwait
p1091
I23
sVblocked
p1092
I-1
ssVtime
p1093
I24
sVresponse
p1094
(dp1095
Vstatus
p1096
I200
sVcomment
p1097
g4
sVcookies
p1098
(lp1099
sVstatusText
p1100
VOK
p1101
sVcontent
p1102
(dp1103
VmimeType
p1104
Vimage/jpeg
p1105
sVcomment
p1106
g4
sVsize
p1107
I0
ssVheaders
p1108
(lp1109
sVheadersSize
p1110
I430
sVredirectURL
p1111
g4
sVbodySize
p1112
I10904
sVhttpVersion
p1113
VHTTP/1.1
p1114
ssa(dp1115
Vcomment
p1116
g4
sVserverIPAddress
p1117
V172.217.0.14
p1118
sVpageref
p1119
VChris Sale
p1120
sVstartedDateTime
p1121
V2017-04-16T08:24:23.815-05:00
p1122
sVcache
p1123
(dp1124
sVrequest
p1125
(dp1126
Vcomment
p1127
g4
sVcookies
p1128
(lp1129
sVurl
p1130
Vhttps://encrypted-tbn1.gstatic.com/images?q=tbn:ANd9GcQCdOcsb5VAvxYckx3E_Ok0r4Fq0EM-mjhGWEGpVKeWHwXqHiCEh-X6SGSc
p1131
sVqueryString
p1132
(lp1133
(dp1134
Vname
p1135
g514
sVvalue
p1136
Vtbn:ANd9GcQCdOcsb5VAvxYckx3E_Ok0r4Fq0EM-mjhGWEGpVKeWHwXqHiCEh-X6SGSc
p1137
sasVheaders
p1138
(lp1139
sVheadersSize
p1140
I427
sVbodySize
p1141
I0
sVmethod
p1142
VGET
p1143
sVhttpVersion
p1144
VHTTP/1.1
p1145
ssVtimings
p1146
(dp1147
Vcomment
p1148
g4
sVreceive
p1149
I0
sVsend
p1150
I0
sVssl
p1151
I-1
sVconnect
p1152
I-1
sVdns
p1153
I-1
sVwait
p1154
I23
sVblocked
p1155
I-1
ssVtime
p1156
I23
sVresponse
p1157
(dp1158
Vstatus
p1159
I200
sVcomment
p1160
g4
sVcookies
p1161
(lp1162
sVstatusText
p1163
VOK
p1164
sVcontent
p1165
(dp1166
VmimeType
p1167
Vimage/jpeg
p1168
sVcomment
p1169
g4
sVsize
p1170
I0
ssVheaders
p1171
(lp1172
sVheadersSize
p1173
I428
sVredirectURL
p1174
g4
sVbodySize
p1175
I5060
sVhttpVersion
p1176
VHTTP/1.1
p1177
ssa(dp1178
Vcomment
p1179
g4
sVserverIPAddress
p1180
V216.58.216.196
p1181
sVpageref
p1182
VChris Sale
p1183
sVstartedDateTime
p1184
V2017-04-16T08:24:23.841-05:00
p1185
sVcache
p1186
(dp1187
sVrequest
p1188
(dp1189
Vcomment
p1190
g4
sVcookies
p1191
(lp1192
sVurl
p1193
Vhttps://www.google.com/gen_204?atyp=i&ct=&cad=&vet=10ahUKEwjcoK69ianTAhUH04MKHU0SC3cQ5W0IXSgE..s&ei=hXDzWJzKCIemjwTNpKy4Bw&zx=1492349063699
p1194
sVqueryString
p1195
(lp1196
(dp1197
Vname
p1198
Vatyp
p1199
sVvalue
p1200
g30
sa(dp1201
Vname
p1202
Vct
p1203
sVvalue
p1204
g4
sa(dp1205
Vname
p1206
Vcad
p1207
sVvalue
p1208
g4
sa(dp1209
Vname
p1210
Vvet
p1211
sVvalue
p1212
V10ahUKEwjcoK69ianTAhUH04MKHU0SC3cQ5W0IXSgE..s
p1213
sa(dp1214
Vname
p1215
Vei
p1216
sVvalue
p1217
VhXDzWJzKCIemjwTNpKy4Bw
p1218
sa(dp1219
Vname
p1220
Vzx
p1221
sVvalue
p1222
V1492349063699
p1223
sasVheaders
p1224
(lp1225
sVheadersSize
p1226
I656
sVbodySize
p1227
I0
sVmethod
p1228
VGET
p1229
sVhttpVersion
p1230
VHTTP/1.1
p1231
ssVtimings
p1232
(dp1233
Vcomment
p1234
g4
sVreceive
p1235
I0
sVsend
p1236
I0
sVssl
p1237
I58
sVconnect
p1238
I139
sVdns
p1239
I0
sVwait
p1240
I28
sVblocked
p1241
I0
ssVtime
p1242
I168
sVresponse
p1243
(dp1244
Vstatus
p1245
I204
sVcomment
p1246
g4
sVcookies
p1247
(lp1248
sVstatusText
p1249
VNo Content
p1250
sVcontent
p1251
(dp1252
VmimeType
p1253
Vtext/html; charset=UTF-8
p1254
sVcomment
p1255
g4
sVsize
p1256
I0
ssVheaders
p1257
(lp1258
sVheadersSize
p1259
I248
sVredirectURL
p1260
g4
sVbodySize
p1261
I0
sVhttpVersion
p1262
VHTTP/1.1
p1263
ssa(dp1264
Vcomment
p1265
g4
sVserverIPAddress
p1266
V216.58.216.196
p1267
sVpageref
p1268
VChris Sale
p1269
sVstartedDateTime
p1270
V2017-04-16T08:24:23.843-05:00
p1271
sVcache
p1272
(dp1273
sVrequest
p1274
(dp1275
Vcomment
p1276
g4
sVcookies
p1277
(lp1278
sVurl
p1279
Vhttps://www.google.com/gen_204?atyp=i&ct=&cad=&vet=10ahUKEwjcoK69ianTAhUH04MKHU0SC3cQ5W0IYCgF..s&ei=hXDzWJzKCIemjwTNpKy4Bw&zx=1492349063701
p1280
sVqueryString
p1281
(lp1282
(dp1283
Vname
p1284
Vatyp
p1285
sVvalue
p1286
g30
sa(dp1287
Vname
p1288
Vct
p1289
sVvalue
p1290
g4
sa(dp1291
Vname
p1292
Vcad
p1293
sVvalue
p1294
g4
sa(dp1295
Vname
p1296
Vvet
p1297
sVvalue
p1298
V10ahUKEwjcoK69ianTAhUH04MKHU0SC3cQ5W0IYCgF..s
p1299
sa(dp1300
Vname
p1301
Vei
p1302
sVvalue
p1303
VhXDzWJzKCIemjwTNpKy4Bw
p1304
sa(dp1305
Vname
p1306
Vzx
p1307
sVvalue
p1308
V1492349063701
p1309
sasVheaders
p1310
(lp1311
sVheadersSize
p1312
I656
sVbodySize
p1313
I0
sVmethod
p1314
VGET
p1315
sVhttpVersion
p1316
VHTTP/1.1
p1317
ssVtimings
p1318
(dp1319
Vcomment
p1320
g4
sVreceive
p1321
I0
sVsend
p1322
I0
sVssl
p1323
I60
sVconnect
p1324
I139
sVdns
p1325
I0
sVwait
p1326
I29
sVblocked
p1327
I0
ssVtime
p1328
I169
sVresponse
p1329
(dp1330
Vstatus
p1331
I204
sVcomment
p1332
g4
sVcookies
p1333
(lp1334
sVstatusText
p1335
VNo Content
p1336
sVcontent
p1337
(dp1338
VmimeType
p1339
Vtext/html; charset=UTF-8
p1340
sVcomment
p1341
g4
sVsize
p1342
I0
ssVheaders
p1343
(lp1344
sVheadersSize
p1345
I248
sVredirectURL
p1346
g4
sVbodySize
p1347
I0
sVhttpVersion
p1348
VHTTP/1.1
p1349
ssa(dp1350
Vcomment
p1351
g4
sVserverIPAddress
p1352
V216.58.216.196
p1353
sVpageref
p1354
VChris Sale
p1355
sVstartedDateTime
p1356
V2017-04-16T08:24:23.843-05:00
p1357
sVcache
p1358
(dp1359
sVrequest
p1360
(dp1361
Vcomment
p1362
g4
sVcookies
p1363
(lp1364
sVurl
p1365
Vhttps://www.google.com/gen_204?atyp=i&ct=&cad=&vet=10ahUKEwjcoK69ianTAhUH04MKHU0SC3cQ5W0IYygG..s&ei=hXDzWJzKCIemjwTNpKy4Bw&zx=1492349063704
p1366
sVqueryString
p1367
(lp1368
(dp1369
Vname
p1370
Vatyp
p1371
sVvalue
p1372
g30
sa(dp1373
Vname
p1374
Vct
p1375
sVvalue
p1376
g4
sa(dp1377
Vname
p1378
Vcad
p1379
sVvalue
p1380
g4
sa(dp1381
Vname
p1382
Vvet
p1383
sVvalue
p1384
V10ahUKEwjcoK69ianTAhUH04MKHU0SC3cQ5W0IYygG..s
p1385
sa(dp1386
Vname
p1387
Vei
p1388
sVvalue
p1389
VhXDzWJzKCIemjwTNpKy4Bw
p1390
sa(dp1391
Vname
p1392
Vzx
p1393
sVvalue
p1394
V1492349063704
p1395
sasVheaders
p1396
(lp1397
sVheadersSize
p1398
I656
sVbodySize
p1399
I0
sVmethod
p1400
VGET
p1401
sVhttpVersion
p1402
VHTTP/1.1
p1403
ssVtimings
p1404
(dp1405
Vcomment
p1406
g4
sVreceive
p1407
I0
sVsend
p1408
I0
sVssl
p1409
I60
sVconnect
p1410
I136
sVdns
p1411
I0
sVwait
p1412
I28
sVblocked
p1413
I0
ssVtime
p1414
I165
sVresponse
p1415
(dp1416
Vstatus
p1417
I204
sVcomment
p1418
g4
sVcookies
p1419
(lp1420
sVstatusText
p1421
VNo Content
p1422
sVcontent
p1423
(dp1424
VmimeType
p1425
Vtext/html; charset=UTF-8
p1426
sVcomment
p1427
g4
sVsize
p1428
I0
ssVheaders
p1429
(lp1430
sVheadersSize
p1431
I248
sVredirectURL
p1432
g4
sVbodySize
p1433
I0
sVhttpVersion
p1434
VHTTP/1.1
p1435
ssa(dp1436
Vcomment
p1437
g4
sVserverIPAddress
p1438
V216.58.216.196
p1439
sVpageref
p1440
VChris Sale
p1441
sVstartedDateTime
p1442
V2017-04-16T08:24:23.916-05:00
p1443
sVcache
p1444
(dp1445
sVrequest
p1446
(dp1447
Vcomment
p1448
g4
sVcookies
p1449
(lp1450
sVurl
p1451
Vhttps://www.google.com/xjs/_/js/k=xjs.qs.en_US.pCBXVCvTH3s.O/m=syi2,syi5,syi4,fpv,sy48,sy3a,sy3c,sy5b,sy4x,sy4z,sy56,sy4y,sy5d,sy8e,sya8,sy5e,sy91,sya6,sya7,sya9,amp,sp,pz/am=gCP4LtMEBXQA2RUaq_oFBISzAFA/rt=j/d=0/t=zcms/rs=ACT90oFwm4NZCwIcuuiqmthdlECdBzkhRA
p1452
sVqueryString
p1453
(lp1454
sVheaders
p1455
(lp1456
sVheadersSize
p1457
I773
sVbodySize
p1458
I0
sVmethod
p1459
VGET
p1460
sVhttpVersion
p1461
VHTTP/1.1
p1462
ssVtimings
p1463
(dp1464
Vcomment
p1465
g4
sVreceive
p1466
I5
sVsend
p1467
I0
sVssl
p1468
I-1
sVconnect
p1469
I-1
sVdns
p1470
I-1
sVwait
p1471
I20
sVblocked
p1472
I-1
ssVtime
p1473
I25
sVresponse
p1474
(dp1475
Vstatus
p1476
I200
sVcomment
p1477
g4
sVcookies
p1478
(lp1479
sVstatusText
p1480
VOK
p1481
sVcontent
p1482
(dp1483
VmimeType
p1484
Vtext/javascript; charset=UTF-8
p1485
sVcomment
p1486
g4
sVsize
p1487
I0
ssVheaders
p1488
(lp1489
sVheadersSize
p1490
I464
sVredirectURL
p1491
g4
sVbodySize
p1492
I56151
sVhttpVersion
p1493
VHTTP/1.1
p1494
ssa(dp1495
Vcomment
p1496
g4
sVserverIPAddress
p1497
V216.58.216.196
p1498
sVpageref
p1499
VChris Sale
p1500
sVstartedDateTime
p1501
V2017-04-16T08:24:23.980-05:00
p1502
sVcache
p1503
(dp1504
sVrequest
p1505
(dp1506
Vcomment
p1507
g4
sVcookies
p1508
(lp1509
sVurl
p1510
Vhttps://www.google.com/async/log_amp_item_set?vet=10ahUKEwimkpS-ianTAhVI74MKHXQTC4kQooQBCAE..i&ei=hXDzWJzKCIemjwTNpKy4Bw&yv=2&async=num_items:1,_fmt:jspb
p1511
sVqueryString
p1512
(lp1513
(dp1514
Vname
p1515
Vvet
p1516
sVvalue
p1517
V10ahUKEwimkpS-ianTAhVI74MKHXQTC4kQooQBCAE..i
p1518
sa(dp1519
Vname
p1520
Vei
p1521
sVvalue
p1522
VhXDzWJzKCIemjwTNpKy4Bw
p1523
sa(dp1524
Vname
p1525
Vyv
p1526
sVvalue
p1527
g64
sa(dp1528
Vname
p1529
Vasync
p1530
sVvalue
p1531
Vnum_items:1,_fmt:jspb
p1532
sasVheaders
p1533
(lp1534
sVheadersSize
p1535
I670
sVbodySize
p1536
I0
sVmethod
p1537
VGET
p1538
sVhttpVersion
p1539
VHTTP/1.1
p1540
ssVtimings
p1541
(dp1542
Vcomment
p1543
g4
sVreceive
p1544
I0
sVsend
p1545
I0
sVssl
p1546
I-1
sVconnect
p1547
I-1
sVdns
p1548
I-1
sVwait
p1549
I40
sVblocked
p1550
I-1
ssVtime
p1551
I40
sVresponse
p1552
(dp1553
Vstatus
p1554
I200
sVcomment
p1555
g4
sVcookies
p1556
(lp1557
sVstatusText
p1558
VOK
p1559
sVcontent
p1560
(dp1561
VmimeType
p1562
Vapplication/json; charset=UTF-8
p1563
sVcomment
p1564
g4
sVsize
p1565
I0
ssVheaders
p1566
(lp1567
sVheadersSize
p1568
I417
sVredirectURL
p1569
g4
sVbodySize
p1570
I132
sVhttpVersion
p1571
VHTTP/1.1
p1572
ssa(dp1573
Vcomment
p1574
g4
sVserverIPAddress
p1575
V216.58.216.193
p1576
sVpageref
p1577
VChris Sale
p1578
sVstartedDateTime
p1579
V2017-04-16T08:24:24.042-05:00
p1580
sVcache
p1581
(dp1582
sVrequest
p1583
(dp1584
Vcomment
p1585
g4
sVcookies
p1586
(lp1587
sVurl
p1588
Vhttps://amp-masslive-com.cdn.ampproject.org/v/amp.masslive.com/v1/articles/20495182/chris_sale_already.amp?amp_js_v=9
p1589
sVqueryString
p1590
(lp1591
(dp1592
Vname
p1593
Vamp_js_v
p1594
sVvalue
p1595
V9
p1596
sasVheaders
p1597
(lp1598
sVheadersSize
p1599
I522
sVbodySize
p1600
I0
sVmethod
p1601
VGET
p1602
sVhttpVersion
p1603
VHTTP/1.1
p1604
ssVtimings
p1605
(dp1606
Vcomment
p1607
g4
sVreceive
p1608
I0
sVsend
p1609
I0
sVssl
p1610
I31
sVconnect
p1611
I46
sVdns
p1612
I1
sVwait
p1613
I63
sVblocked
p1614
I0
ssVtime
p1615
I111
sVresponse
p1616
(dp1617
Vstatus
p1618
I200
sVcomment
p1619
g4
sVcookies
p1620
(lp1621
sVstatusText
p1622
VOK
p1623
sVcontent
p1624
(dp1625
VmimeType
p1626
Vtext/html
p1627
sVcomment
p1628
g4
sVsize
p1629
I0
ssVheaders
p1630
(lp1631
sVheadersSize
p1632
I861
sVredirectURL
p1633
g4
sVbodySize
p1634
I5802
sVhttpVersion
p1635
VHTTP/1.1
p1636
ssa(dp1637
Vcomment
p1638
g4
sVserverIPAddress
p1639
V216.58.216.193
p1640
sVpageref
p1641
VChris Sale
p1642
sVstartedDateTime
p1643
V2017-04-16T08:24:24.252-05:00
p1644
sVcache
p1645
(dp1646
sVrequest
p1647
(dp1648
Vcomment
p1649
g4
sVcookies
p1650
(lp1651
sVurl
p1652
Vhttps://media-advance-net.cdn.ampproject.org/i/media.advance.net/avatars/11/71/90/60.png
p1653
sVqueryString
p1654
(lp1655
sVheaders
p1656
(lp1657
sVheadersSize
p1658
I547
sVbodySize
p1659
I0
sVmethod
p1660
VGET
p1661
sVhttpVersion
p1662
VHTTP/1.1
p1663
ssVtimings
p1664
(dp1665
Vcomment
p1666
g4
sVreceive
p1667
I0
sVsend
p1668
I0
sVssl
p1669
I-1
sVconnect
p1670
I-1
sVdns
p1671
I-1
sVwait
p1672
I31
sVblocked
p1673
I-1
ssVtime
p1674
I31
sVresponse
p1675
(dp1676
Vstatus
p1677
I304
sVcomment
p1678
g4
sVcookies
p1679
(lp1680
sVstatusText
p1681
VNot Modified
p1682
sVcontent
p1683
(dp1684
VmimeType
p1685
Vimage/png
p1686
sVcomment
p1687
g4
sVsize
p1688
I0
ssVheaders
p1689
(lp1690
sVheadersSize
p1691
I344
sVredirectURL
p1692
g4
sVbodySize
p1693
I0
sVhttpVersion
p1694
VHTTP/1.1
p1695
ssa(dp1696
Vcomment
p1697
g4
sVserverIPAddress
p1698
V172.217.0.1
p1699
sVpageref
p1700
VChris Sale
p1701
sVstartedDateTime
p1702
V2017-04-16T08:24:24.286-05:00
p1703
sVcache
p1704
(dp1705
sVrequest
p1706
(dp1707
Vcomment
p1708
g4
sVcookies
p1709
(lp1710
sVurl
p1711
Vhttps://media-masslive-com.cdn.ampproject.org/i/media.masslive.com/redsox_impact/photo/rays-red-sox-baseball-5de84332f1aa6494.jpg
p1712
sVqueryString
p1713
(lp1714
sVheaders
p1715
(lp1716
sVheadersSize
p1717
I538
sVbodySize
p1718
I0
sVmethod
p1719
VGET
p1720
sVhttpVersion
p1721
VHTTP/1.1
p1722
ssVtimings
p1723
(dp1724
Vcomment
p1725
g4
sVreceive
p1726
I70
sVsend
p1727
I0
sVssl
p1728
I28
sVconnect
p1729
I41
sVdns
p1730
I4
sVwait
p1731
I185
sVblocked
p1732
I0
ssVtime
p1733
I301
sVresponse
p1734
(dp1735
Vstatus
p1736
I200
sVcomment
p1737
g4
sVcookies
p1738
(lp1739
sVstatusText
p1740
VOK
p1741
sVcontent
p1742
(dp1743
VmimeType
p1744
Vimage/jpeg
p1745
sVcomment
p1746
g4
sVsize
p1747
I0
ssVheaders
p1748
(lp1749
sVheadersSize
p1750
I846
sVredirectURL
p1751
g4
sVbodySize
p1752
I232051
sVhttpVersion
p1753
VHTTP/1.1
p1754
ssa(dp1755
Vcomment
p1756
g4
sVserverIPAddress
p1757
V172.217.0.14
p1758
sVpageref
p1759
VChris Sale
p1760
sVstartedDateTime
p1761
V2017-04-16T08:24:24.304-05:00
p1762
sVcache
p1763
(dp1764
sVrequest
p1765
(dp1766
Vcomment
p1767
g4
sVcookies
p1768
(lp1769
sVurl
p1770
Vhttps://encrypted-tbn3.gstatic.com/images?q=tbn:ANd9GcQJGNTFBR0gVH7ZZ3fSP4iYVgpiQ9W4vPuuHzubU7VqDVOyxcGvhAAa2aVAcQ
p1771
sVqueryString
p1772
(lp1773
(dp1774
Vname
p1775
g514
sVvalue
p1776
Vtbn:ANd9GcQJGNTFBR0gVH7ZZ3fSP4iYVgpiQ9W4vPuuHzubU7VqDVOyxcGvhAAa2aVAcQ
p1777
sasVheaders
p1778
(lp1779
sVheadersSize
p1780
I429
sVbodySize
p1781
I0
sVmethod
p1782
VGET
p1783
sVhttpVersion
p1784
VHTTP/1.1
p1785
ssVtimings
p1786
(dp1787
Vcomment
p1788
g4
sVreceive
p1789
I1
sVsend
p1790
I0
sVssl
p1791
I37
sVconnect
p1792
I52
sVdns
p1793
I435
sVwait
p1794
I14
sVblocked
p1795
I0
ssVtime
p1796
I503
sVresponse
p1797
(dp1798
Vstatus
p1799
I200
sVcomment
p1800
g4
sVcookies
p1801
(lp1802
sVstatusText
p1803
VOK
p1804
sVcontent
p1805
(dp1806
VmimeType
p1807
Vimage/jpeg
p1808
sVcomment
p1809
g4
sVsize
p1810
I0
ssVheaders
p1811
(lp1812
sVheadersSize
p1813
I425
sVredirectURL
p1814
g4
sVbodySize
p1815
I7002
sVhttpVersion
p1816
VHTTP/1.1
p1817
ssa(dp1818
Vcomment
p1819
g4
sVserverIPAddress
p1820
V216.58.216.196
p1821
sVpageref
p1822
VChris Sale
p1823
sVstartedDateTime
p1824
V2017-04-16T08:24:24.558-05:00
p1825
sVcache
p1826
(dp1827
sVrequest
p1828
(dp1829
Vcomment
p1830
g4
sVcookies
p1831
(lp1832
sVurl
p1833
Vhttps://www.google.com/gen_204?s=web&atyp=csi&ei=hXDzWJzKCIemjwTNpKy4Bw&imc=54&imn=54&imp=25&adh=&xjs=init.34.14.sb_mob.26.dvl.4.c.1.mbsf.1.jsa.1&ima=19&rt=prt.790,iml.839,xjsls.791,dcl.917,xjses.1028,xjsee.1168,xjs.1169,qiml.1652,ol.2206,aft.839,wsrt.248,cst.0,dnst.0,rqst.995,rspt.763,rqstt.3,unt.3,cstt.3,dit.1109
p1834
sVqueryString
p1835
(lp1836
(dp1837
Vname
p1838
g57
sVvalue
p1839
Vweb
p1840
sa(dp1841
Vname
p1842
Vatyp
p1843
sVvalue
p1844
Vcsi
p1845
sa(dp1846
Vname
p1847
Vei
p1848
sVvalue
p1849
VhXDzWJzKCIemjwTNpKy4Bw
p1850
sa(dp1851
Vname
p1852
Vimc
p1853
sVvalue
p1854
V54
p1855
sa(dp1856
Vname
p1857
Vimn
p1858
sVvalue
p1859
V54
p1860
sa(dp1861
Vname
p1862
Vimp
p1863
sVvalue
p1864
V25
p1865
sa(dp1866
Vname
p1867
Vadh
p1868
sVvalue
p1869
g4
sa(dp1870
Vname
p1871
Vxjs
p1872
sVvalue
p1873
Vinit.34.14.sb_mob.26.dvl.4.c.1.mbsf.1.jsa.1
p1874
sa(dp1875
Vname
p1876
Vima
p1877
sVvalue
p1878
V19
p1879
sa(dp1880
Vname
p1881
Vrt
p1882
sVvalue
p1883
Vprt.790,iml.839,xjsls.791,dcl.917,xjses.1028,xjsee.1168,xjs.1169,qiml.1652,ol.2206,aft.839,wsrt.248,cst.0,dnst.0,rqst.995,rspt.763,rqstt.3,unt.3,cstt.3,dit.1109
p1884
sasVheaders
p1885
(lp1886
sVheadersSize
p1887
I833
sVbodySize
p1888
I0
sVmethod
p1889
VGET
p1890
sVhttpVersion
p1891
VHTTP/1.1
p1892
ssVtimings
p1893
(dp1894
Vcomment
p1895
g4
sVreceive
p1896
I0
sVsend
p1897
I0
sVssl
p1898
I-1
sVconnect
p1899
I-1
sVdns
p1900
I-1
sVwait
p1901
I25
sVblocked
p1902
I-1
ssVtime
p1903
I25
sVresponse
p1904
(dp1905
Vstatus
p1906
I204
sVcomment
p1907
g4
sVcookies
p1908
(lp1909
sVstatusText
p1910
VNo Content
p1911
sVcontent
p1912
(dp1913
VmimeType
p1914
Vtext/html; charset=UTF-8
p1915
sVcomment
p1916
g4
sVsize
p1917
I0
ssVheaders
p1918
(lp1919
sVheadersSize
p1920
I248
sVredirectURL
p1921
g4
sVbodySize
p1922
I0
sVhttpVersion
p1923
VHTTP/1.1
p1924
ssa(dp1925
Vcomment
p1926
g4
sVserverIPAddress
p1927
V216.58.216.196
p1928
sVpageref
p1929
VChris Sale
p1930
sVstartedDateTime
p1931
V2017-04-16T08:24:25.755-05:00
p1932
sVcache
p1933
(dp1934
sVrequest
p1935
(dp1936
Vcomment
p1937
g4
sVcookies
p1938
(lp1939
sVurl
p1940
Vhttps://www.google.com/gen_204?atyp=i&ct=slh&cad=&ei=cXDzWLyhKqPljwT_-LygBw&m=V&t=C&s=1&v=2&pv=0.9162020108068021&me=1:1492349044355,x:1,V,0,0,1280,944:0,N,1,cXDzWLyhKqPljwT_-LygBw:0,R,1,24,8,155,1249,359:0,R,1,25,8,199,1249,315:0,R,1,26,0,199,1265,335:0,R,1,51,8,524,1249,417:0,R,1,52,8,524,1249,417:0,R,1,55,8,537,1249,40:0,R,1,68,8,589,1249,178:0,R,1,71,0,605,1265,197:0,R,1,111,8,784,1249,20:0,R,1,112,24,784,1217,20:0,R,1,118,8,820,1249,20:0,R,1,122,8,848,1249,20:2,B,3068:17209,e,U&zx=1492349065753
p1941
sVqueryString
p1942
(lp1943
(dp1944
Vname
p1945
Vatyp
p1946
sVvalue
p1947
g30
sa(dp1948
Vname
p1949
Vct
p1950
sVvalue
p1951
Vslh
p1952
sa(dp1953
Vname
p1954
Vcad
p1955
sVvalue
p1956
g4
sa(dp1957
Vname
p1958
Vei
p1959
sVvalue
p1960
VcXDzWLyhKqPljwT_-LygBw
p1961
sa(dp1962
Vname
p1963
g47
sVvalue
p1964
g49
sa(dp1965
Vname
p1966
g52
sVvalue
p1967
g54
sa(dp1968
Vname
p1969
g57
sVvalue
p1970
g59
sa(dp1971
Vname
p1972
g62
sVvalue
p1973
g64
sa(dp1974
Vname
p1975
Vpv
p1976
sVvalue
p1977
V0.9162020108068021
p1978
sa(dp1979
Vname
p1980
Vme
p1981
sVvalue
p1982
V1:1492349044355,x:1,V,0,0,1280,944:0,N,1,cXDzWLyhKqPljwT_-LygBw:0,R,1,24,8,155,1249,359:0,R,1,25,8,199,1249,315:0,R,1,26,0,199,1265,335:0,R,1,51,8,524,1249,417:0,R,1,52,8,524,1249,417:0,R,1,55,8,537,1249,40:0,R,1,68,8,589,1249,178:0,R,1,71,0,605,1265,197:0,R,1,111,8,784,1249,20:0,R,1,112,24,784,1217,20:0,R,1,118,8,820,1249,20:0,R,1,122,8,848,1249,20:2,B,3068:17209,e,U
p1983
sa(dp1984
Vname
p1985
Vzx
p1986
sVvalue
p1987
V1492349065753
p1988
sasVheaders
p1989
(lp1990
sVheadersSize
p1991
I1021
sVbodySize
p1992
I0
sVmethod
p1993
VGET
p1994
sVhttpVersion
p1995
VHTTP/1.1
p1996
ssVtimings
p1997
(dp1998
Vcomment
p1999
g4
sVreceive
p2000
I0
sVsend
p2001
I0
sVssl
p2002
I-1
sVconnect
p2003
I-1
sVdns
p2004
I-1
sVwait
p2005
I27
sVblocked
p2006
I-1
ssVtime
p2007
I27
sVresponse
p2008
(dp2009
Vstatus
p2010
I204
sVcomment
p2011
g4
sVcookies
p2012
(lp2013
sVstatusText
p2014
VNo Content
p2015
sVcontent
p2016
(dp2017
VmimeType
p2018
Vtext/html; charset=UTF-8
p2019
sVcomment
p2020
g4
sVsize
p2021
I0
ssVheaders
p2022
(lp2023
sVheadersSize
p2024
I248
sVredirectURL
p2025
g4
sVbodySize
p2026
I0
sVhttpVersion
p2027
VHTTP/1.1
p2028
ssasVversion
p2029
V1.2
p2030
sVpages
p2031
(lp2032
(dp2033
VpageTimings
p2034
(dp2035
Vcomment
p2036
g4
ssVcomment
p2037
g4
sVtitle
p2038
VChris Sale
p2039
sVid
p2040
VChris Sale
p2041
sVstartedDateTime
p2042
V2017-04-16T08:24:21.561-05:00
p2043
sasVcreator
p2044
(dp2045
Vcomment
p2046
g4
sVversion
p2047
V2.1.4
p2048
sVname
p2049
VBrowserMob Proxy
p2050
sss.