(dp0
Vlog
p1
(dp2
Vcomment
p3
V
p4
sVentries
p5
(lp6
(dp7
Vcomment
p8
g4
sVserverIPAddress
p9
V216.58.216.196
p10
sVpageref
p11
VTom Holland
p12
sVstartedDateTime
p13
V2017-04-16T08:05:29.937-05:00
p14
sVcache
p15
(dp16
sVrequest
p17
(dp18
Vcomment
p19
g4
sVcookies
p20
(lp21
sVurl
p22
Vhttps://www.google.com/gen_204?atyp=i&ct=slh&cad=&ei=BWzzWOqsMcyPjwSr47CwBg&m=V&t=C&s=1&v=2&pv=0.020409581095021223&me=1:1492347912417,x:2,V,0,0,1280,944:0,N,1,BWzzWOqsMcyPjwSr47CwBg:0,R,1,24,8,155,1249,1053:0,R,1,25,8,155,1249,1053:0,R,1,29,8,168,1249,40:0,R,1,46,8,267,1249,178:0,R,1,49,0,283,1265,197:0,R,1,89,8,462,1249,20:0,R,1,90,24,462,1217,20:0,R,1,98,8,498,1249,20:0,R,1,117,8,538,1249,295:0,R,1,118,0,583,1265,270:0,R,1,135,8,878,1249,263:0,R,1,136,0,878,1265,283:1,B,3994:17515,e,U&zx=1492347929936
p23
sVqueryString
p24
(lp25
(dp26
Vname
p27
Vatyp
p28
sVvalue
p29
Vi
p30
sa(dp31
Vname
p32
Vct
p33
sVvalue
p34
Vslh
p35
sa(dp36
Vname
p37
Vcad
p38
sVvalue
p39
g4
sa(dp40
Vname
p41
Vei
p42
sVvalue
p43
VBWzzWOqsMcyPjwSr47CwBg
p44
sa(dp45
Vname
p46
Vm
p47
sVvalue
p48
VV
p49
sa(dp50
Vname
p51
Vt
p52
sVvalue
p53
VC
p54
sa(dp55
Vname
p56
Vs
p57
sVvalue
p58
V1
p59
sa(dp60
Vname
p61
Vv
p62
sVvalue
p63
V2
p64
sa(dp65
Vname
p66
Vpv
p67
sVvalue
p68
V0.020409581095021223
p69
sa(dp70
Vname
p71
Vme
p72
sVvalue
p73
V1:1492347912417,x:2,V,0,0,1280,944:0,N,1,BWzzWOqsMcyPjwSr47CwBg:0,R,1,24,8,155,1249,1053:0,R,1,25,8,155,1249,1053:0,R,1,29,8,168,1249,40:0,R,1,46,8,267,1249,178:0,R,1,49,0,283,1265,197:0,R,1,89,8,462,1249,20:0,R,1,90,24,462,1217,20:0,R,1,98,8,498,1249,20:0,R,1,117,8,538,1249,295:0,R,1,118,0,583,1265,270:0,R,1,135,8,878,1249,263:0,R,1,136,0,878,1265,283:1,B,3994:17515,e,U
p74
sa(dp75
Vname
p76
Vzx
p77
sVvalue
p78
V1492347929936
p79
sasVheaders
p80
(lp81
sVheadersSize
p82
I1026
sVbodySize
p83
I0
sVmethod
p84
VGET
p85
sVhttpVersion
p86
VHTTP/1.1
p87
ssVtimings
p88
(dp89
Vcomment
p90
g4
sVreceive
p91
I0
sVsend
p92
I0
sVssl
p93
I-1
sVconnect
p94
I-1
sVdns
p95
I-1
sVwait
p96
I0
sVblocked
p97
I-1
ssVtime
p98
I0
sVresponse
p99
(dp100
Vstatus
p101
I0
sVcomment
p102
g4
sVcookies
p103
(lp104
sV_error
p105
VNo response received
p106
sVstatusText
p107
g4
sVcontent
p108
(dp109
VmimeType
p110
g4
sVcomment
p111
g4
sVsize
p112
I0
ssVheaders
p113
(lp114
sVheadersSize
p115
I-1
sVredirectURL
p116
g4
sVbodySize
p117
I-1
sVhttpVersion
p118
Vunknown
p119
ssa(dp120
Vcomment
p121
g4
sVserverIPAddress
p122
V216.58.216.196
p123
sVpageref
p124
VTom Holland
p125
sVstartedDateTime
p126
V2017-04-16T08:05:29.941-05:00
p127
sVcache
p128
(dp129
sVrequest
p130
(dp131
Vcomment
p132
g4
sVcookies
p133
(lp134
sVurl
p135
Vhttp://www.google.com/
p136
sVqueryString
p137
(lp138
sVheaders
p139
(lp140
sVheadersSize
p141
I613
sVbodySize
p142
I0
sVmethod
p143
VGET
p144
sVhttpVersion
p145
VHTTP/1.1
p146
ssVtimings
p147
(dp148
Vcomment
p149
g4
sVreceive
p150
I0
sVsend
p151
I0
sVssl
p152
I-1
sVconnect
p153
I-1
sVdns
p154
I-1
sVwait
p155
I44
sVblocked
p156
I-1
ssVtime
p157
I45
sVresponse
p158
(dp159
Vstatus
p160
I302
sVcomment
p161
g4
sVcookies
p162
(lp163
sVstatusText
p164
VFound
p165
sVcontent
p166
(dp167
VmimeType
p168
Vtext/html; charset=UTF-8
p169
sVcomment
p170
g4
sVsize
p171
I0
ssVheaders
p172
(lp173
sVheadersSize
p174
I609
sVredirectURL
p175
Vhttps://www.google.com/?gws_rd=ssl
p176
sVbodySize
p177
I231
sVhttpVersion
p178
VHTTP/1.1
p179
ssa(dp180
Vcomment
p181
g4
sVserverIPAddress
p182
V216.58.216.196
p183
sVpageref
p184
VTom Holland
p185
sVstartedDateTime
p186
V2017-04-16T08:05:29.990-05:00
p187
sVcache
p188
(dp189
sVrequest
p190
(dp191
Vcomment
p192
g4
sVcookies
p193
(lp194
sVurl
p195
Vhttps://www.google.com/?gws_rd=ssl
p196
sVqueryString
p197
(lp198
(dp199
Vname
p200
Vgws_rd
p201
sVvalue
p202
Vssl
p203
sasVheaders
p204
(lp205
sVheadersSize
p206
I607
sVbodySize
p207
I0
sVmethod
p208
VGET
p209
sVhttpVersion
p210
VHTTP/1.1
p211
ssVtimings
p212
(dp213
Vcomment
p214
g4
sVreceive
p215
I25
sVsend
p216
I0
sVssl
p217
I-1
sVconnect
p218
I-1
sVdns
p219
I-1
sVwait
p220
I79
sVblocked
p221
I-1
ssVtime
p222
I105
sVresponse
p223
(dp224
Vstatus
p225
I200
sVcomment
p226
g4
sVcookies
p227
(lp228
sVstatusText
p229
VOK
p230
sVcontent
p231
(dp232
VmimeType
p233
Vtext/html; charset=UTF-8
p234
sVcomment
p235
g4
sVsize
p236
I0
ssVheaders
p237
(lp238
sVheadersSize
p239
I721
sVredirectURL
p240
g4
sVbodySize
p241
I34286
sVhttpVersion
p242
VHTTP/1.1
p243
ssa(dp244
Vcomment
p245
g4
sVserverIPAddress
p246
V216.58.216.196
p247
sVpageref
p248
VTom Holland
p249
sVstartedDateTime
p250
V2017-04-16T08:05:30.312-05:00
p251
sVcache
p252
(dp253
sVrequest
p254
(dp255
Vcomment
p256
g4
sVcookies
p257
(lp258
sVurl
p259
Vhttps://www.google.com/gen_204?s=mobilewebhp&atyp=csi&ei=GWzzWJw6oq-PBNv3k0g&imc=1&imn=1&imp=0&adh=&xjs=init.33.12.sb_mob.18.dvl.8.mbsf.3.c.1.jsa.1&ima=1&rt=xjsls.14,prt.15,iml.15,dcl.53,xjses.89,xjsee.176,xjs.177,ol.215,aft.15,wsrt.157,cst.0,dnst.0,rqst.108,rspt.27,rqstt.55,unt.53,cstt.53,dit.204
p260
sVqueryString
p261
(lp262
(dp263
Vname
p264
g57
sVvalue
p265
Vmobilewebhp
p266
sa(dp267
Vname
p268
Vatyp
p269
sVvalue
p270
Vcsi
p271
sa(dp272
Vname
p273
Vei
p274
sVvalue
p275
VGWzzWJw6oq-PBNv3k0g
p276
sa(dp277
Vname
p278
Vimc
p279
sVvalue
p280
g59
sa(dp281
Vname
p282
Vimn
p283
sVvalue
p284
g59
sa(dp285
Vname
p286
Vimp
p287
sVvalue
p288
V0
p289
sa(dp290
Vname
p291
Vadh
p292
sVvalue
p293
g4
sa(dp294
Vname
p295
Vxjs
p296
sVvalue
p297
Vinit.33.12.sb_mob.18.dvl.8.mbsf.3.c.1.jsa.1
p298
sa(dp299
Vname
p300
Vima
p301
sVvalue
p302
g59
sa(dp303
Vname
p304
Vrt
p305
sVvalue
p306
Vxjsls.14,prt.15,iml.15,dcl.53,xjses.89,xjsee.176,xjs.177,ol.215,aft.15,wsrt.157,cst.0,dnst.0,rqst.108,rspt.27,rqstt.55,unt.53,cstt.53,dit.204
p307
sasVheaders
p308
(lp309
sVheadersSize
p310
I826
sVbodySize
p311
I0
sVmethod
p312
VGET
p313
sVhttpVersion
p314
VHTTP/1.1
p315
ssVtimings
p316
(dp317
Vcomment
p318
g4
sVreceive
p319
I0
sVsend
p320
I0
sVssl
p321
I-1
sVconnect
p322
I-1
sVdns
p323
I-1
sVwait
p324
I35
sVblocked
p325
I-1
ssVtime
p326
I35
sVresponse
p327
(dp328
Vstatus
p329
I204
sVcomment
p330
g4
sVcookies
p331
(lp332
sVstatusText
p333
VNo Content
p334
sVcontent
p335
(dp336
VmimeType
p337
Vtext/html; charset=UTF-8
p338
sVcomment
p339
g4
sVsize
p340
I0
ssVheaders
p341
(lp342
sVheadersSize
p343
I248
sVredirectURL
p344
g4
sVbodySize
p345
I0
sVhttpVersion
p346
VHTTP/1.1
p347
ssa(dp348
Vcomment
p349
g4
sVserverIPAddress
p350
V216.58.216.196
p351
sVpageref
p352
VTom Holland
p353
sVstartedDateTime
p354
V2017-04-16T08:05:30.456-05:00
p355
sVcache
p356
(dp357
sVrequest
p358
(dp359
Vcomment
p360
g4
sVcookies
p361
(lp362
sVurl
p363
Vhttps://www.google.com/complete/search?client=mobile-gws-hp&hl=en&gs_rn=64&gs_ri=mobile-gws-hp&sla=1&pfq=tom%20hiddleston&gm=602&cp=0&gs_id=1&xhr=t&q=T&tch=1&ech=1&psi=GWzzWJw6oq-PBNv3k0g.1492347930242.1
p364
sVqueryString
p365
(lp366
(dp367
Vname
p368
Vclient
p369
sVvalue
p370
Vmobile-gws-hp
p371
sa(dp372
Vname
p373
Vhl
p374
sVvalue
p375
Ven
p376
sa(dp377
Vname
p378
Vgs_rn
p379
sVvalue
p380
V64
p381
sa(dp382
Vname
p383
Vgs_ri
p384
sVvalue
p385
Vmobile-gws-hp
p386
sa(dp387
Vname
p388
Vsla
p389
sVvalue
p390
g59
sa(dp391
Vname
p392
Vpfq
p393
sVvalue
p394
Vtom hiddleston
p395
sa(dp396
Vname
p397
Vgm
p398
sVvalue
p399
V602
p400
sa(dp401
Vname
p402
Vcp
p403
sVvalue
p404
g289
sa(dp405
Vname
p406
Vgs_id
p407
sVvalue
p408
g59
sa(dp409
Vname
p410
Vxhr
p411
sVvalue
p412
g52
sa(dp413
Vname
p414
Vq
p415
sVvalue
p416
VT
p417
sa(dp418
Vname
p419
Vtch
p420
sVvalue
p421
g59
sa(dp422
Vname
p423
Vech
p424
sVvalue
p425
g59
sa(dp426
Vname
p427
Vpsi
p428
sVvalue
p429
VGWzzWJw6oq-PBNv3k0g.1492347930242.1
p430
sasVheaders
p431
(lp432
sVheadersSize
p433
I731
sVbodySize
p434
I0
sVmethod
p435
VGET
p436
sVhttpVersion
p437
VHTTP/1.1
p438
ssVtimings
p439
(dp440
Vcomment
p441
g4
sVreceive
p442
I0
sVsend
p443
I0
sVssl
p444
I-1
sVconnect
p445
I-1
sVdns
p446
I-1
sVwait
p447
I0
sVblocked
p448
I-1
ssVtime
p449
I0
sVresponse
p450
(dp451
Vstatus
p452
I0
sVcomment
p453
g4
sVcookies
p454
(lp455
sV_error
p456
VNo response received
p457
sVstatusText
p458
g4
sVcontent
p459
(dp460
VmimeType
p461
g4
sVcomment
p462
g4
sVsize
p463
I0
ssVheaders
p464
(lp465
sVheadersSize
p466
I-1
sVredirectURL
p467
g4
sVbodySize
p468
I-1
sVhttpVersion
p469
Vunknown
p470
ssa(dp471
Vcomment
p472
g4
sVserverIPAddress
p473
V216.58.216.196
p474
sVpageref
p475
VTom Holland
p476
sVstartedDateTime
p477
V2017-04-16T08:05:30.526-05:00
p478
sVcache
p479
(dp480
sVrequest
p481
(dp482
Vcomment
p483
g4
sVcookies
p484
(lp485
sVurl
p486
Vhttps://www.google.com/search?site=&source=hp&ei=GWzzWJw6oq-PBNv3k0g&q=Tom+Holland&oq=Tom+Holland&gs_l=mobile-gws-hp.3...194.232.0.261.11.1.0.0.0.0.0.0..0.0....0...1c.1.64.mobile-gws-hp..11.0.0.gM_X9fvCFZw
p487
sVqueryString
p488
(lp489
(dp490
Vname
p491
Vsite
p492
sVvalue
p493
g4
sa(dp494
Vname
p495
Vsource
p496
sVvalue
p497
Vhp
p498
sa(dp499
Vname
p500
Vei
p501
sVvalue
p502
VGWzzWJw6oq-PBNv3k0g
p503
sa(dp504
Vname
p505
g415
sVvalue
p506
VTom Holland
p507
sa(dp508
Vname
p509
Voq
p510
sVvalue
p511
VTom Holland
p512
sa(dp513
Vname
p514
Vgs_l
p515
sVvalue
p516
Vmobile-gws-hp.3...194.232.0.261.11.1.0.0.0.0.0.0..0.0....0...1c.1.64.mobile-gws-hp..11.0.0.gM_X9fvCFZw
p517
sasVheaders
p518
(lp519
sVheadersSize
p520
I823
sVbodySize
p521
I0
sVmethod
p522
VGET
p523
sVhttpVersion
p524
VHTTP/1.1
p525
ssVtimings
p526
(dp527
Vcomment
p528
g4
sVreceive
p529
I849
sVsend
p530
I0
sVssl
p531
I-1
sVconnect
p532
I-1
sVdns
p533
I-1
sVwait
p534
I81
sVblocked
p535
I-1
ssVtime
p536
I931
sVresponse
p537
(dp538
Vstatus
p539
I200
sVcomment
p540
g4
sVcookies
p541
(lp542
sVstatusText
p543
VOK
p544
sVcontent
p545
(dp546
VmimeType
p547
Vtext/html; charset=UTF-8
p548
sVcomment
p549
g4
sVsize
p550
I0
ssVheaders
p551
(lp552
sVheadersSize
p553
I363
sVredirectURL
p554
g4
sVbodySize
p555
I286070
sVhttpVersion
p556
VHTTP/1.1
p557
ssa(dp558
Vcomment
p559
g4
sVserverIPAddress
p560
V216.58.216.196
p561
sVpageref
p562
VTom Holland
p563
sVstartedDateTime
p564
V2017-04-16T08:05:32.160-05:00
p565
sVcache
p566
(dp567
sVrequest
p568
(dp569
Vcomment
p570
g4
sVcookies
p571
(lp572
sVurl
p573
Vhttps://www.google.com/gen_204?atyp=i&ct=&cad=&uact=1&vet=10ahUKEwjU4eKhhanTAhWr1IMKHST6DGMQ9V8INCgA..s&ei=GWzzWJTxIKupjwSk9LOYBg&zx=1492347932159
p574
sVqueryString
p575
(lp576
(dp577
Vname
p578
Vatyp
p579
sVvalue
p580
g30
sa(dp581
Vname
p582
Vct
p583
sVvalue
p584
g4
sa(dp585
Vname
p586
Vcad
p587
sVvalue
p588
g4
sa(dp589
Vname
p590
Vuact
p591
sVvalue
p592
g59
sa(dp593
Vname
p594
Vvet
p595
sVvalue
p596
V10ahUKEwjU4eKhhanTAhWr1IMKHST6DGMQ9V8INCgA..s
p597
sa(dp598
Vname
p599
Vei
p600
sVvalue
p601
VGWzzWJTxIKupjwSk9LOYBg
p602
sa(dp603
Vname
p604
Vzx
p605
sVvalue
p606
V1492347932159
p607
sasVheaders
p608
(lp609
sVheadersSize
p610
I663
sVbodySize
p611
I0
sVmethod
p612
VGET
p613
sVhttpVersion
p614
VHTTP/1.1
p615
ssVtimings
p616
(dp617
Vcomment
p618
g4
sVreceive
p619
I0
sVsend
p620
I0
sVssl
p621
I-1
sVconnect
p622
I-1
sVdns
p623
I-1
sVwait
p624
I29
sVblocked
p625
I-1
ssVtime
p626
I30
sVresponse
p627
(dp628
Vstatus
p629
I204
sVcomment
p630
g4
sVcookies
p631
(lp632
sVstatusText
p633
VNo Content
p634
sVcontent
p635
(dp636
VmimeType
p637
Vtext/html; charset=UTF-8
p638
sVcomment
p639
g4
sVsize
p640
I0
ssVheaders
p641
(lp642
sVheadersSize
p643
I248
sVredirectURL
p644
g4
sVbodySize
p645
I0
sVhttpVersion
p646
VHTTP/1.1
p647
ssa(dp648
Vcomment
p649
g4
sVserverIPAddress
p650
V216.58.216.196
p651
sVpageref
p652
VTom Holland
p653
sVstartedDateTime
p654
V2017-04-16T08:05:32.168-05:00
p655
sVcache
p656
(dp657
sVrequest
p658
(dp659
Vcomment
p660
g4
sVcookies
p661
(lp662
sVurl
p663
Vhttps://www.google.com/gen_204?atyp=i&ct=&cad=&uact=1&vet=10ahUKEwjU4eKhhanTAhWr1IMKHST6DGMQ9V8INSgB..s&ei=GWzzWJTxIKupjwSk9LOYBg&zx=1492347932165
p664
sVqueryString
p665
(lp666
(dp667
Vname
p668
Vatyp
p669
sVvalue
p670
g30
sa(dp671
Vname
p672
Vct
p673
sVvalue
p674
g4
sa(dp675
Vname
p676
Vcad
p677
sVvalue
p678
g4
sa(dp679
Vname
p680
Vuact
p681
sVvalue
p682
g59
sa(dp683
Vname
p684
Vvet
p685
sVvalue
p686
V10ahUKEwjU4eKhhanTAhWr1IMKHST6DGMQ9V8INSgB..s
p687
sa(dp688
Vname
p689
Vei
p690
sVvalue
p691
VGWzzWJTxIKupjwSk9LOYBg
p692
sa(dp693
Vname
p694
Vzx
p695
sVvalue
p696
V1492347932165
p697
sasVheaders
p698
(lp699
sVheadersSize
p700
I663
sVbodySize
p701
I0
sVmethod
p702
VGET
p703
sVhttpVersion
p704
VHTTP/1.1
p705
ssVtimings
p706
(dp707
Vcomment
p708
g4
sVreceive
p709
I0
sVsend
p710
I0
sVssl
p711
I-1
sVconnect
p712
I-1
sVdns
p713
I-1
sVwait
p714
I27
sVblocked
p715
I-1
ssVtime
p716
I27
sVresponse
p717
(dp718
Vstatus
p719
I204
sVcomment
p720
g4
sVcookies
p721
(lp722
sVstatusText
p723
VNo Content
p724
sVcontent
p725
(dp726
VmimeType
p727
Vtext/html; charset=UTF-8
p728
sVcomment
p729
g4
sVsize
p730
I0
ssVheaders
p731
(lp732
sVheadersSize
p733
I248
sVredirectURL
p734
g4
sVbodySize
p735
I0
sVhttpVersion
p736
VHTTP/1.1
p737
ssa(dp738
Vcomment
p739
g4
sVserverIPAddress
p740
V216.58.216.196
p741
sVpageref
p742
VTom Holland
p743
sVstartedDateTime
p744
V2017-04-16T08:05:32.181-05:00
p745
sVcache
p746
(dp747
sVrequest
p748
(dp749
Vcomment
p750
g4
sVcookies
p751
(lp752
sVurl
p753
Vhttps://www.google.com/async/irc?vet=10ahUKEwjU4eKhhanTAhWr1IMKHST6DGMQo0EI_wE..i&ved=0ahUKEwjU4eKhhanTAhWr1IMKHST6DGMQo0EI_wE&ei=GWzzWJTxIKupjwSk9LOYBg&yv=2&async=iu:1,ved:0ahUKEwjU4eKhhanTAhWr1IMKHST6DGMQo0EI_wE,_id:irc_async,_pms:qs
p754
sVqueryString
p755
(lp756
(dp757
Vname
p758
Vvet
p759
sVvalue
p760
V10ahUKEwjU4eKhhanTAhWr1IMKHST6DGMQo0EI_wE..i
p761
sa(dp762
Vname
p763
Vved
p764
sVvalue
p765
V0ahUKEwjU4eKhhanTAhWr1IMKHST6DGMQo0EI_wE
p766
sa(dp767
Vname
p768
Vei
p769
sVvalue
p770
VGWzzWJTxIKupjwSk9LOYBg
p771
sa(dp772
Vname
p773
Vyv
p774
sVvalue
p775
g64
sa(dp776
Vname
p777
Vasync
p778
sVvalue
p779
Viu:1,ved:0ahUKEwjU4eKhhanTAhWr1IMKHST6DGMQo0EI_wE,_id:irc_async,_pms:qs
p780
sasVheaders
p781
(lp782
sVheadersSize
p783
I752
sVbodySize
p784
I0
sVmethod
p785
VGET
p786
sVhttpVersion
p787
VHTTP/1.1
p788
ssVtimings
p789
(dp790
Vcomment
p791
g4
sVreceive
p792
I2
sVsend
p793
I0
sVssl
p794
I-1
sVconnect
p795
I-1
sVdns
p796
I-1
sVwait
p797
I52
sVblocked
p798
I-1
ssVtime
p799
I55
sVresponse
p800
(dp801
Vstatus
p802
I200
sVcomment
p803
g4
sVcookies
p804
(lp805
sVstatusText
p806
VOK
p807
sVcontent
p808
(dp809
VmimeType
p810
Vtext/html; charset=UTF-8
p811
sVcomment
p812
g4
sVsize
p813
I0
ssVheaders
p814
(lp815
sVheadersSize
p816
I383
sVredirectURL
p817
g4
sVbodySize
p818
I7792
sVhttpVersion
p819
VHTTP/1.1
p820
ssa(dp821
Vcomment
p822
g4
sVserverIPAddress
p823
V216.58.216.196
p824
sVpageref
p825
VTom Holland
p826
sVstartedDateTime
p827
V2017-04-16T08:05:32.188-05:00
p828
sVcache
p829
(dp830
sVrequest
p831
(dp832
Vcomment
p833
g4
sVcookies
p834
(lp835
sVurl
p836
Vhttps://www.google.com/gen_204?atyp=i&ct=&cad=&vet=10ahUKEwjU4eKhhanTAhWr1IMKHST6DGMQ5W0IQigC..s&ei=GWzzWJTxIKupjwSk9LOYBg&zx=1492347932187
p837
sVqueryString
p838
(lp839
(dp840
Vname
p841
Vatyp
p842
sVvalue
p843
g30
sa(dp844
Vname
p845
Vct
p846
sVvalue
p847
g4
sa(dp848
Vname
p849
Vcad
p850
sVvalue
p851
g4
sa(dp852
Vname
p853
Vvet
p854
sVvalue
p855
V10ahUKEwjU4eKhhanTAhWr1IMKHST6DGMQ5W0IQigC..s
p856
sa(dp857
Vname
p858
Vei
p859
sVvalue
p860
VGWzzWJTxIKupjwSk9LOYBg
p861
sa(dp862
Vname
p863
Vzx
p864
sVvalue
p865
V1492347932187
p866
sasVheaders
p867
(lp868
sVheadersSize
p869
I656
sVbodySize
p870
I0
sVmethod
p871
VGET
p872
sVhttpVersion
p873
VHTTP/1.1
p874
ssVtimings
p875
(dp876
Vcomment
p877
g4
sVreceive
p878
I0
sVsend
p879
I0
sVssl
p880
I-1
sVconnect
p881
I-1
sVdns
p882
I-1
sVwait
p883
I32
sVblocked
p884
I-1
ssVtime
p885
I32
sVresponse
p886
(dp887
Vstatus
p888
I204
sVcomment
p889
g4
sVcookies
p890
(lp891
sVstatusText
p892
VNo Content
p893
sVcontent
p894
(dp895
VmimeType
p896
Vtext/html; charset=UTF-8
p897
sVcomment
p898
g4
sVsize
p899
I0
ssVheaders
p900
(lp901
sVheadersSize
p902
I248
sVredirectURL
p903
g4
sVbodySize
p904
I0
sVhttpVersion
p905
VHTTP/1.1
p906
ssa(dp907
Vcomment
p908
g4
sVserverIPAddress
p909
V216.58.216.196
p910
sVpageref
p911
VTom Holland
p912
sVstartedDateTime
p913
V2017-04-16T08:05:32.192-05:00
p914
sVcache
p915
(dp916
sVrequest
p917
(dp918
Vcomment
p919
g4
sVcookies
p920
(lp921
sVurl
p922
Vhttps://www.google.com/gen_204?atyp=i&ct=&cad=&vet=10ahUKEwjU4eKhhanTAhWr1IMKHST6DGMQ5W0IRSgD..s&ei=GWzzWJTxIKupjwSk9LOYBg&zx=1492347932190
p923
sVqueryString
p924
(lp925
(dp926
Vname
p927
Vatyp
p928
sVvalue
p929
g30
sa(dp930
Vname
p931
Vct
p932
sVvalue
p933
g4
sa(dp934
Vname
p935
Vcad
p936
sVvalue
p937
g4
sa(dp938
Vname
p939
Vvet
p940
sVvalue
p941
V10ahUKEwjU4eKhhanTAhWr1IMKHST6DGMQ5W0IRSgD..s
p942
sa(dp943
Vname
p944
Vei
p945
sVvalue
p946
VGWzzWJTxIKupjwSk9LOYBg
p947
sa(dp948
Vname
p949
Vzx
p950
sVvalue
p951
V1492347932190
p952
sasVheaders
p953
(lp954
sVheadersSize
p955
I656
sVbodySize
p956
I0
sVmethod
p957
VGET
p958
sVhttpVersion
p959
VHTTP/1.1
p960
ssVtimings
p961
(dp962
Vcomment
p963
g4
sVreceive
p964
I0
sVsend
p965
I0
sVssl
p966
I-1
sVconnect
p967
I-1
sVdns
p968
I-1
sVwait
p969
I26
sVblocked
p970
I-1
ssVtime
p971
I26
sVresponse
p972
(dp973
Vstatus
p974
I204
sVcomment
p975
g4
sVcookies
p976
(lp977
sVstatusText
p978
VNo Content
p979
sVcontent
p980
(dp981
VmimeType
p982
Vtext/html; charset=UTF-8
p983
sVcomment
p984
g4
sVsize
p985
I0
ssVheaders
p986
(lp987
sVheadersSize
p988
I248
sVredirectURL
p989
g4
sVbodySize
p990
I0
sVhttpVersion
p991
VHTTP/1.1
p992
ssa(dp993
Vcomment
p994
g4
sVserverIPAddress
p995
V216.58.216.196
p996
sVpageref
p997
VTom Holland
p998
sVstartedDateTime
p999
V2017-04-16T08:05:32.199-05:00
p1000
sVcache
p1001
(dp1002
sVrequest
p1003
(dp1004
Vcomment
p1005
g4
sVcookies
p1006
(lp1007
sVurl
p1008
Vhttps://www.google.com/gen_204?atyp=i&ct=&cad=&vet=10ahUKEwjU4eKhhanTAhWr1IMKHST6DGMQ5W0ISygF..s&ei=GWzzWJTxIKupjwSk9LOYBg&zx=1492347932194
p1009
sVqueryString
p1010
(lp1011
(dp1012
Vname
p1013
Vatyp
p1014
sVvalue
p1015
g30
sa(dp1016
Vname
p1017
Vct
p1018
sVvalue
p1019
g4
sa(dp1020
Vname
p1021
Vcad
p1022
sVvalue
p1023
g4
sa(dp1024
Vname
p1025
Vvet
p1026
sVvalue
p1027
V10ahUKEwjU4eKhhanTAhWr1IMKHST6DGMQ5W0ISygF..s
p1028
sa(dp1029
Vname
p1030
Vei
p1031
sVvalue
p1032
VGWzzWJTxIKupjwSk9LOYBg
p1033
sa(dp1034
Vname
p1035
Vzx
p1036
sVvalue
p1037
V1492347932194
p1038
sasVheaders
p1039
(lp1040
sVheadersSize
p1041
I656
sVbodySize
p1042
I0
sVmethod
p1043
VGET
p1044
sVhttpVersion
p1045
VHTTP/1.1
p1046
ssVtimings
p1047
(dp1048
Vcomment
p1049
g4
sVreceive
p1050
I0
sVsend
p1051
I0
sVssl
p1052
I-1
sVconnect
p1053
I-1
sVdns
p1054
I-1
sVwait
p1055
I30
sVblocked
p1056
I-1
ssVtime
p1057
I30
sVresponse
p1058
(dp1059
Vstatus
p1060
I204
sVcomment
p1061
g4
sVcookies
p1062
(lp1063
sVstatusText
p1064
VNo Content
p1065
sVcontent
p1066
(dp1067
VmimeType
p1068
Vtext/html; charset=UTF-8
p1069
sVcomment
p1070
g4
sVsize
p1071
I0
ssVheaders
p1072
(lp1073
sVheadersSize
p1074
I248
sVredirectURL
p1075
g4
sVbodySize
p1076
I0
sVhttpVersion
p1077
VHTTP/1.1
p1078
ssa(dp1079
Vcomment
p1080
g4
sVserverIPAddress
p1081
V216.58.216.196
p1082
sVpageref
p1083
VTom Holland
p1084
sVstartedDateTime
p1085
V2017-04-16T08:05:32.220-05:00
p1086
sVcache
p1087
(dp1088
sVrequest
p1089
(dp1090
Vcomment
p1091
g4
sVcookies
p1092
(lp1093
sVurl
p1094
Vhttps://www.google.com/gen_204?atyp=i&ct=&cad=&vet=10ahUKEwjU4eKhhanTAhWr1IMKHST6DGMQ5W0IUSgH..s&ei=GWzzWJTxIKupjwSk9LOYBg&zx=1492347932198
p1095
sVqueryString
p1096
(lp1097
(dp1098
Vname
p1099
Vatyp
p1100
sVvalue
p1101
g30
sa(dp1102
Vname
p1103
Vct
p1104
sVvalue
p1105
g4
sa(dp1106
Vname
p1107
Vcad
p1108
sVvalue
p1109
g4
sa(dp1110
Vname
p1111
Vvet
p1112
sVvalue
p1113
V10ahUKEwjU4eKhhanTAhWr1IMKHST6DGMQ5W0IUSgH..s
p1114
sa(dp1115
Vname
p1116
Vei
p1117
sVvalue
p1118
VGWzzWJTxIKupjwSk9LOYBg
p1119
sa(dp1120
Vname
p1121
Vzx
p1122
sVvalue
p1123
V1492347932198
p1124
sasVheaders
p1125
(lp1126
sVheadersSize
p1127
I656
sVbodySize
p1128
I0
sVmethod
p1129
VGET
p1130
sVhttpVersion
p1131
VHTTP/1.1
p1132
ssVtimings
p1133
(dp1134
Vcomment
p1135
g4
sVreceive
p1136
I0
sVsend
p1137
I0
sVssl
p1138
I-1
sVconnect
p1139
I-1
sVdns
p1140
I-1
sVwait
p1141
I26
sVblocked
p1142
I-1
ssVtime
p1143
I26
sVresponse
p1144
(dp1145
Vstatus
p1146
I204
sVcomment
p1147
g4
sVcookies
p1148
(lp1149
sVstatusText
p1150
VNo Content
p1151
sVcontent
p1152
(dp1153
VmimeType
p1154
Vtext/html; charset=UTF-8
p1155
sVcomment
p1156
g4
sVsize
p1157
I0
ssVheaders
p1158
(lp1159
sVheadersSize
p1160
I248
sVredirectURL
p1161
g4
sVbodySize
p1162
I0
sVhttpVersion
p1163
VHTTP/1.1
p1164
ssa(dp1165
Vcomment
p1166
g4
sVserverIPAddress
p1167
V216.58.216.196
p1168
sVpageref
p1169
VTom Holland
p1170
sVstartedDateTime
p1171
V2017-04-16T08:05:32.232-05:00
p1172
sVcache
p1173
(dp1174
sVrequest
p1175
(dp1176
Vcomment
p1177
g4
sVcookies
p1178
(lp1179
sVurl
p1180
Vhttps://www.google.com/gen_204?atyp=i&ct=&cad=&vet=10ahUKEwjU4eKhhanTAhWr1IMKHST6DGMQ5W0ISCgE..s&ei=GWzzWJTxIKupjwSk9LOYBg&zx=1492347932193
p1181
sVqueryString
p1182
(lp1183
(dp1184
Vname
p1185
Vatyp
p1186
sVvalue
p1187
g30
sa(dp1188
Vname
p1189
Vct
p1190
sVvalue
p1191
g4
sa(dp1192
Vname
p1193
Vcad
p1194
sVvalue
p1195
g4
sa(dp1196
Vname
p1197
Vvet
p1198
sVvalue
p1199
V10ahUKEwjU4eKhhanTAhWr1IMKHST6DGMQ5W0ISCgE..s
p1200
sa(dp1201
Vname
p1202
Vei
p1203
sVvalue
p1204
VGWzzWJTxIKupjwSk9LOYBg
p1205
sa(dp1206
Vname
p1207
Vzx
p1208
sVvalue
p1209
V1492347932193
p1210
sasVheaders
p1211
(lp1212
sVheadersSize
p1213
I656
sVbodySize
p1214
I0
sVmethod
p1215
VGET
p1216
sVhttpVersion
p1217
VHTTP/1.1
p1218
ssVtimings
p1219
(dp1220
Vcomment
p1221
g4
sVreceive
p1222
I0
sVsend
p1223
I0
sVssl
p1224
I21
sVconnect
p1225
I37
sVdns
p1226
I0
sVwait
p1227
I27
sVblocked
p1228
I0
ssVtime
p1229
I65
sVresponse
p1230
(dp1231
Vstatus
p1232
I204
sVcomment
p1233
g4
sVcookies
p1234
(lp1235
sVstatusText
p1236
VNo Content
p1237
sVcontent
p1238
(dp1239
VmimeType
p1240
Vtext/html; charset=UTF-8
p1241
sVcomment
p1242
g4
sVsize
p1243
I0
ssVheaders
p1244
(lp1245
sVheadersSize
p1246
I248
sVredirectURL
p1247
g4
sVbodySize
p1248
I0
sVhttpVersion
p1249
VHTTP/1.1
p1250
ssa(dp1251
Vcomment
p1252
g4
sVserverIPAddress
p1253
V216.58.216.196
p1254
sVpageref
p1255
VTom Holland
p1256
sVstartedDateTime
p1257
V2017-04-16T08:05:32.244-05:00
p1258
sVcache
p1259
(dp1260
sVrequest
p1261
(dp1262
Vcomment
p1263
g4
sVcookies
p1264
(lp1265
sVurl
p1266
Vhttps://www.google.com/gen_204?atyp=i&ct=&cad=&vet=10ahUKEwjU4eKhhanTAhWr1IMKHST6DGMQ5W0ITigG..s&ei=GWzzWJTxIKupjwSk9LOYBg&zx=1492347932196
p1267
sVqueryString
p1268
(lp1269
(dp1270
Vname
p1271
Vatyp
p1272
sVvalue
p1273
g30
sa(dp1274
Vname
p1275
Vct
p1276
sVvalue
p1277
g4
sa(dp1278
Vname
p1279
Vcad
p1280
sVvalue
p1281
g4
sa(dp1282
Vname
p1283
Vvet
p1284
sVvalue
p1285
V10ahUKEwjU4eKhhanTAhWr1IMKHST6DGMQ5W0ITigG..s
p1286
sa(dp1287
Vname
p1288
Vei
p1289
sVvalue
p1290
VGWzzWJTxIKupjwSk9LOYBg
p1291
sa(dp1292
Vname
p1293
Vzx
p1294
sVvalue
p1295
V1492347932196
p1296
sasVheaders
p1297
(lp1298
sVheadersSize
p1299
I656
sVbodySize
p1300
I0
sVmethod
p1301
VGET
p1302
sVhttpVersion
p1303
VHTTP/1.1
p1304
ssVtimings
p1305
(dp1306
Vcomment
p1307
g4
sVreceive
p1308
I0
sVsend
p1309
I0
sVssl
p1310
I24
sVconnect
p1311
I43
sVdns
p1312
I0
sVwait
p1313
I27
sVblocked
p1314
I0
ssVtime
p1315
I71
sVresponse
p1316
(dp1317
Vstatus
p1318
I204
sVcomment
p1319
g4
sVcookies
p1320
(lp1321
sVstatusText
p1322
VNo Content
p1323
sVcontent
p1324
(dp1325
VmimeType
p1326
Vtext/html; charset=UTF-8
p1327
sVcomment
p1328
g4
sVsize
p1329
I0
ssVheaders
p1330
(lp1331
sVheadersSize
p1332
I248
sVredirectURL
p1333
g4
sVbodySize
p1334
I0
sVhttpVersion
p1335
VHTTP/1.1
p1336
ssa(dp1337
Vcomment
p1338
g4
sVserverIPAddress
p1339
V216.58.216.196
p1340
sVpageref
p1341
VTom Holland
p1342
sVstartedDateTime
p1343
V2017-04-16T08:05:32.312-05:00
p1344
sVcache
p1345
(dp1346
sVrequest
p1347
(dp1348
Vcomment
p1349
g4
sVcookies
p1350
(lp1351
sVurl
p1352
Vhttps://www.google.com/async/ampfp?vet=10ahUKEwjU4eKhhanTAhWr1IMKHST6DGMQtZoBCP0B..i&ei=GWzzWJTxIKupjwSk9LOYBg&yv=2&async=_id:ampfp-async,_pms:qs
p1353
sVqueryString
p1354
(lp1355
(dp1356
Vname
p1357
Vvet
p1358
sVvalue
p1359
V10ahUKEwjU4eKhhanTAhWr1IMKHST6DGMQtZoBCP0B..i
p1360
sa(dp1361
Vname
p1362
Vei
p1363
sVvalue
p1364
VGWzzWJTxIKupjwSk9LOYBg
p1365
sa(dp1366
Vname
p1367
Vyv
p1368
sVvalue
p1369
g64
sa(dp1370
Vname
p1371
Vasync
p1372
sVvalue
p1373
V_id:ampfp-async,_pms:qs
p1374
sasVheaders
p1375
(lp1376
sVheadersSize
p1377
I662
sVbodySize
p1378
I0
sVmethod
p1379
VGET
p1380
sVhttpVersion
p1381
VHTTP/1.1
p1382
ssVtimings
p1383
(dp1384
Vcomment
p1385
g4
sVreceive
p1386
I0
sVsend
p1387
I0
sVssl
p1388
I-1
sVconnect
p1389
I-1
sVdns
p1390
I-1
sVwait
p1391
I35
sVblocked
p1392
I-1
ssVtime
p1393
I36
sVresponse
p1394
(dp1395
Vstatus
p1396
I200
sVcomment
p1397
g4
sVcookies
p1398
(lp1399
sVstatusText
p1400
VOK
p1401
sVcontent
p1402
(dp1403
VmimeType
p1404
Vtext/html; charset=UTF-8
p1405
sVcomment
p1406
g4
sVsize
p1407
I0
ssVheaders
p1408
(lp1409
sVheadersSize
p1410
I383
sVredirectURL
p1411
g4
sVbodySize
p1412
I4523
sVhttpVersion
p1413
VHTTP/1.1
p1414
ssa(dp1415
Vcomment
p1416
g4
sVserverIPAddress
p1417
V216.58.216.193
p1418
sVpageref
p1419
VTom Holland
p1420
sVstartedDateTime
p1421
V2017-04-16T08:05:32.313-05:00
p1422
sVcache
p1423
(dp1424
sVrequest
p1425
(dp1426
Vcomment
p1427
g4
sVcookies
p1428
(lp1429
sVurl
p1430
Vhttps://cdn.ampproject.org/preconnect.gif?0.7308483307882291
p1431
sVqueryString
p1432
(lp1433
(dp1434
Vname
p1435
V0.7308483307882291
p1436
sVvalue
p1437
g4
sasVheaders
p1438
(lp1439
sVheadersSize
p1440
I375
sVbodySize
p1441
I0
sVmethod
p1442
VGET
p1443
sVhttpVersion
p1444
VHTTP/1.1
p1445
ssVtimings
p1446
(dp1447
Vcomment
p1448
g4
sVreceive
p1449
I0
sVsend
p1450
I0
sVssl
p1451
I-1
sVconnect
p1452
I-1
sVdns
p1453
I-1
sVwait
p1454
I29
sVblocked
p1455
I-1
ssVtime
p1456
I30
sVresponse
p1457
(dp1458
Vstatus
p1459
I200
sVcomment
p1460
g4
sVcookies
p1461
(lp1462
sVstatusText
p1463
VOK
p1464
sVcontent
p1465
(dp1466
VmimeType
p1467
Vimage/gif
p1468
sVcomment
p1469
g4
sVsize
p1470
I0
ssVheaders
p1471
(lp1472
sVheadersSize
p1473
I826
sVredirectURL
p1474
g4
sVbodySize
p1475
I37
sVhttpVersion
p1476
VHTTP/1.1
p1477
ssa(dp1478
Vcomment
p1479
g4
sVserverIPAddress
p1480
V216.58.216.206
p1481
sVpageref
p1482
VTom Holland
p1483
sVstartedDateTime
p1484
V2017-04-16T08:05:32.325-05:00
p1485
sVcache
p1486
(dp1487
sVrequest
p1488
(dp1489
Vcomment
p1490
g4
sVcookies
p1491
(lp1492
sVurl
p1493
Vhttps://encrypted-tbn2.gstatic.com/images?q=tbn:ANd9GcStANM_WulI4vvYWEP0585yIOG9lVoQpImcC80FJeXwS0Q1hp6mwdgkMpvm
p1494
sVqueryString
p1495
(lp1496
(dp1497
Vname
p1498
g415
sVvalue
p1499
Vtbn:ANd9GcStANM_WulI4vvYWEP0585yIOG9lVoQpImcC80FJeXwS0Q1hp6mwdgkMpvm
p1500
sasVheaders
p1501
(lp1502
sVheadersSize
p1503
I427
sVbodySize
p1504
I0
sVmethod
p1505
VGET
p1506
sVhttpVersion
p1507
VHTTP/1.1
p1508
ssVtimings
p1509
(dp1510
Vcomment
p1511
g4
sVreceive
p1512
I0
sVsend
p1513
I0
sVssl
p1514
I-1
sVconnect
p1515
I-1
sVdns
p1516
I-1
sVwait
p1517
I16
sVblocked
p1518
I-1
ssVtime
p1519
I17
sVresponse
p1520
(dp1521
Vstatus
p1522
I200
sVcomment
p1523
g4
sVcookies
p1524
(lp1525
sVstatusText
p1526
VOK
p1527
sVcontent
p1528
(dp1529
VmimeType
p1530
Vimage/jpeg
p1531
sVcomment
p1532
g4
sVsize
p1533
I0
ssVheaders
p1534
(lp1535
sVheadersSize
p1536
I407
sVredirectURL
p1537
g4
sVbodySize
p1538
I2219
sVhttpVersion
p1539
VHTTP/1.1
p1540
ssa(dp1541
Vcomment
p1542
g4
sVserverIPAddress
p1543
V216.58.216.206
p1544
sVpageref
p1545
VTom Holland
p1546
sVstartedDateTime
p1547
V2017-04-16T08:05:32.325-05:00
p1548
sVcache
p1549
(dp1550
sVrequest
p1551
(dp1552
Vcomment
p1553
g4
sVcookies
p1554
(lp1555
sVurl
p1556
Vhttps://encrypted-tbn0.gstatic.com/images?q=tbn:ANd9GcS8UxunPaIp90-L2LbxpfMLxx9kwX3Jeu_uRESPQpZ2Ic0iJys9WtTfCJbg
p1557
sVqueryString
p1558
(lp1559
(dp1560
Vname
p1561
g415
sVvalue
p1562
Vtbn:ANd9GcS8UxunPaIp90-L2LbxpfMLxx9kwX3Jeu_uRESPQpZ2Ic0iJys9WtTfCJbg
p1563
sasVheaders
p1564
(lp1565
sVheadersSize
p1566
I427
sVbodySize
p1567
I0
sVmethod
p1568
VGET
p1569
sVhttpVersion
p1570
VHTTP/1.1
p1571
ssVtimings
p1572
(dp1573
Vcomment
p1574
g4
sVreceive
p1575
I3
sVsend
p1576
I0
sVssl
p1577
I-1
sVconnect
p1578
I-1
sVdns
p1579
I-1
sVwait
p1580
I18
sVblocked
p1581
I-1
ssVtime
p1582
I21
sVresponse
p1583
(dp1584
Vstatus
p1585
I200
sVcomment
p1586
g4
sVcookies
p1587
(lp1588
sVstatusText
p1589
VOK
p1590
sVcontent
p1591
(dp1592
VmimeType
p1593
Vimage/jpeg
p1594
sVcomment
p1595
g4
sVsize
p1596
I0
ssVheaders
p1597
(lp1598
sVheadersSize
p1599
I429
sVredirectURL
p1600
g4
sVbodySize
p1601
I7547
sVhttpVersion
p1602
VHTTP/1.1
p1603
ssa(dp1604
Vcomment
p1605
g4
sVserverIPAddress
p1606
V216.58.216.206
p1607
sVpageref
p1608
VTom Holland
p1609
sVstartedDateTime
p1610
V2017-04-16T08:05:32.401-05:00
p1611
sVcache
p1612
(dp1613
sVrequest
p1614
(dp1615
Vcomment
p1616
g4
sVcookies
p1617
(lp1618
sVurl
p1619
Vhttps://encrypted-tbn0.gstatic.com/images?q=tbn:ANd9GcQ5Zsoa8fSyRnwJQrGb5M0lbiD6gH8pifkUoLctM-y3yjBtTjLWK4dxmtQ
p1620
sVqueryString
p1621
(lp1622
(dp1623
Vname
p1624
g415
sVvalue
p1625
Vtbn:ANd9GcQ5Zsoa8fSyRnwJQrGb5M0lbiD6gH8pifkUoLctM-y3yjBtTjLWK4dxmtQ
p1626
sasVheaders
p1627
(lp1628
sVheadersSize
p1629
I426
sVbodySize
p1630
I0
sVmethod
p1631
VGET
p1632
sVhttpVersion
p1633
VHTTP/1.1
p1634
ssVtimings
p1635
(dp1636
Vcomment
p1637
g4
sVreceive
p1638
I0
sVsend
p1639
I0
sVssl
p1640
I27
sVconnect
p1641
I39
sVdns
p1642
I34
sVwait
p1643
I14
sVblocked
p1644
I0
ssVtime
p1645
I87
sVresponse
p1646
(dp1647
Vstatus
p1648
I200
sVcomment
p1649
g4
sVcookies
p1650
(lp1651
sVstatusText
p1652
VOK
p1653
sVcontent
p1654
(dp1655
VmimeType
p1656
Vimage/jpeg
p1657
sVcomment
p1658
g4
sVsize
p1659
I0
ssVheaders
p1660
(lp1661
sVheadersSize
p1662
I428
sVredirectURL
p1663
g4
sVbodySize
p1664
I3306
sVhttpVersion
p1665
VHTTP/1.1
p1666
ssa(dp1667
Vcomment
p1668
g4
sVserverIPAddress
p1669
V216.58.216.196
p1670
sVpageref
p1671
VTom Holland
p1672
sVstartedDateTime
p1673
V2017-04-16T08:05:32.458-05:00
p1674
sVcache
p1675
(dp1676
sVrequest
p1677
(dp1678
Vcomment
p1679
g4
sVcookies
p1680
(lp1681
sVurl
p1682
Vhttps://www.google.com/async/log_amp_item_set?vet=10ahUKEwj_1s-ihanTAhWM7YMKHTvJBpoQooQBCAE..i&ei=GWzzWJTxIKupjwSk9LOYBg&yv=2&async=num_items:1,_fmt:jspb
p1683
sVqueryString
p1684
(lp1685
(dp1686
Vname
p1687
Vvet
p1688
sVvalue
p1689
V10ahUKEwj_1s-ihanTAhWM7YMKHTvJBpoQooQBCAE..i
p1690
sa(dp1691
Vname
p1692
Vei
p1693
sVvalue
p1694
VGWzzWJTxIKupjwSk9LOYBg
p1695
sa(dp1696
Vname
p1697
Vyv
p1698
sVvalue
p1699
g64
sa(dp1700
Vname
p1701
Vasync
p1702
sVvalue
p1703
Vnum_items:1,_fmt:jspb
p1704
sasVheaders
p1705
(lp1706
sVheadersSize
p1707
I670
sVbodySize
p1708
I0
sVmethod
p1709
VGET
p1710
sVhttpVersion
p1711
VHTTP/1.1
p1712
ssVtimings
p1713
(dp1714
Vcomment
p1715
g4
sVreceive
p1716
I0
sVsend
p1717
I0
sVssl
p1718
I-1
sVconnect
p1719
I-1
sVdns
p1720
I-1
sVwait
p1721
I280
sVblocked
p1722
I-1
ssVtime
p1723
I281
sVresponse
p1724
(dp1725
Vstatus
p1726
I200
sVcomment
p1727
g4
sVcookies
p1728
(lp1729
sVstatusText
p1730
VOK
p1731
sVcontent
p1732
(dp1733
VmimeType
p1734
Vapplication/json; charset=UTF-8
p1735
sVcomment
p1736
g4
sVsize
p1737
I0
ssVheaders
p1738
(lp1739
sVheadersSize
p1740
I417
sVredirectURL
p1741
g4
sVbodySize
p1742
I132
sVhttpVersion
p1743
VHTTP/1.1
p1744
ssa(dp1745
Vcomment
p1746
g4
sVserverIPAddress
p1747
V216.58.216.193
p1748
sVpageref
p1749
VTom Holland
p1750
sVstartedDateTime
p1751
V2017-04-16T08:05:32.903-05:00
p1752
sVcache
p1753
(dp1754
sVrequest
p1755
(dp1756
Vcomment
p1757
g4
sVcookies
p1758
(lp1759
sVurl
p1760
Vhttps://comicbook-com.cdn.ampproject.org/v/comicbook.com/marvel/amp/2017/04/16/tom-holland-shares-behind-the-scenes-picture/?amp_js_v=9
p1761
sVqueryString
p1762
(lp1763
(dp1764
Vname
p1765
Vamp_js_v
p1766
sVvalue
p1767
V9
p1768
sasVheaders
p1769
(lp1770
sVheadersSize
p1771
I540
sVbodySize
p1772
I0
sVmethod
p1773
VGET
p1774
sVhttpVersion
p1775
VHTTP/1.1
p1776
ssVtimings
p1777
(dp1778
Vcomment
p1779
g4
sVreceive
p1780
I3
sVsend
p1781
I0
sVssl
p1782
I381
sVconnect
p1783
I400
sVdns
p1784
I30
sVwait
p1785
I66
sVblocked
p1786
I0
ssVtime
p1787
I500
sVresponse
p1788
(dp1789
Vstatus
p1790
I200
sVcomment
p1791
g4
sVcookies
p1792
(lp1793
sVstatusText
p1794
VOK
p1795
sVcontent
p1796
(dp1797
VmimeType
p1798
Vtext/html
p1799
sVcomment
p1800
g4
sVsize
p1801
I0
ssVheaders
p1802
(lp1803
sVheadersSize
p1804
I861
sVredirectURL
p1805
g4
sVbodySize
p1806
I6261
sVhttpVersion
p1807
VHTTP/1.1
p1808
ssa(dp1809
Vcomment
p1810
g4
sVserverIPAddress
p1811
V216.58.216.193
p1812
sVpageref
p1813
VTom Holland
p1814
sVstartedDateTime
p1815
V2017-04-16T08:05:32.981-05:00
p1816
sVcache
p1817
(dp1818
sVrequest
p1819
(dp1820
Vcomment
p1821
g4
sVcookies
p1822
(lp1823
sVurl
p1824
Vhttps://cdn.ampproject.org/rtv/011492014732688/v0/amp-jwplayer-0.1.js
p1825
sVqueryString
p1826
(lp1827
sVheaders
p1828
(lp1829
sVheadersSize
p1830
I496
sVbodySize
p1831
I0
sVmethod
p1832
VGET
p1833
sVhttpVersion
p1834
VHTTP/1.1
p1835
ssVtimings
p1836
(dp1837
Vcomment
p1838
g4
sVreceive
p1839
I0
sVsend
p1840
I0
sVssl
p1841
I-1
sVconnect
p1842
I-1
sVdns
p1843
I-1
sVwait
p1844
I26
sVblocked
p1845
I-1
ssVtime
p1846
I26
sVresponse
p1847
(dp1848
Vstatus
p1849
I200
sVcomment
p1850
g4
sVcookies
p1851
(lp1852
sVstatusText
p1853
VOK
p1854
sVcontent
p1855
(dp1856
VmimeType
p1857
Vtext/javascript
p1858
sVcomment
p1859
g4
sVsize
p1860
I0
ssVheaders
p1861
(lp1862
sVheadersSize
p1863
I1164
sVredirectURL
p1864
g4
sVbodySize
p1865
I994
sVhttpVersion
p1866
VHTTP/1.1
p1867
ssa(dp1868
Vcomment
p1869
g4
sVserverIPAddress
p1870
V216.58.216.193
p1871
sVpageref
p1872
VTom Holland
p1873
sVstartedDateTime
p1874
V2017-04-16T08:05:33.709-05:00
p1875
sVcache
p1876
(dp1877
sVrequest
p1878
(dp1879
Vcomment
p1880
g4
sVcookies
p1881
(lp1882
sVurl
p1883
Vhttps://asset-comicbook-com.cdn.ampproject.org/ii/w470/asset.comicbook.com/img/comicbook/cb-logo-1-amp.png
p1884
sVqueryString
p1885
(lp1886
sVheaders
p1887
(lp1888
sVheadersSize
p1889
I533
sVbodySize
p1890
I0
sVmethod
p1891
VGET
p1892
sVhttpVersion
p1893
VHTTP/1.1
p1894
ssVtimings
p1895
(dp1896
Vcomment
p1897
g4
sVreceive
p1898
I0
sVsend
p1899
I0
sVssl
p1900
I541
sVconnect
p1901
I562
sVdns
p1902
I39
sVwait
p1903
I37
sVblocked
p1904
I0
ssVtime
p1905
I639
sVresponse
p1906
(dp1907
Vstatus
p1908
I200
sVcomment
p1909
g4
sVcookies
p1910
(lp1911
sVstatusText
p1912
VOK
p1913
sVcontent
p1914
(dp1915
VmimeType
p1916
Vimage/png
p1917
sVcomment
p1918
g4
sVsize
p1919
I0
ssVheaders
p1920
(lp1921
sVheadersSize
p1922
I819
sVredirectURL
p1923
g4
sVbodySize
p1924
I1253
sVhttpVersion
p1925
VHTTP/1.1
p1926
ssa(dp1927
Vcomment
p1928
g4
sVserverIPAddress
p1929
V216.58.216.193
p1930
sVpageref
p1931
VTom Holland
p1932
sVstartedDateTime
p1933
V2017-04-16T08:05:33.995-05:00
p1934
sVcache
p1935
(dp1936
sVrequest
p1937
(dp1938
Vcomment
p1939
g4
sVcookies
p1940
(lp1941
sVurl
p1942
Vhttps://media-comicbook-com.cdn.ampproject.org/ii/w1200/media.comicbook.com/2017/03/spider-man-homecoming-costumes-classic-iron-spider-homemade-987055.jpg
p1943
sVqueryString
p1944
(lp1945
sVheaders
p1946
(lp1947
sVheadersSize
p1948
I581
sVbodySize
p1949
I0
sVmethod
p1950
VGET
p1951
sVhttpVersion
p1952
VHTTP/1.1
p1953
ssVtimings
p1954
(dp1955
Vcomment
p1956
g4
sVreceive
p1957
I9
sVsend
p1958
I0
sVssl
p1959
I793
sVconnect
p1960
I812
sVdns
p1961
I70
sVwait
p1962
I45
sVblocked
p1963
I0
ssVtime
p1964
I938
sVresponse
p1965
(dp1966
Vstatus
p1967
I200
sVcomment
p1968
g4
sVcookies
p1969
(lp1970
sVstatusText
p1971
VOK
p1972
sVcontent
p1973
(dp1974
VmimeType
p1975
Vimage/jpeg
p1976
sVcomment
p1977
g4
sVsize
p1978
I0
ssVheaders
p1979
(lp1980
sVheadersSize
p1981
I845
sVredirectURL
p1982
g4
sVbodySize
p1983
I19573
sVhttpVersion
p1984
VHTTP/1.1
p1985
ssa(dp1986
Vcomment
p1987
g4
sVserverIPAddress
p1988
V216.58.216.196
p1989
sVpageref
p1990
VTom Holland
p1991
sVstartedDateTime
p1992
V2017-04-16T08:05:34.078-05:00
p1993
sVcache
p1994
(dp1995
sVrequest
p1996
(dp1997
Vcomment
p1998
g4
sVcookies
p1999
(lp2000
sVurl
p2001
Vhttps://www.google.com/gen_204?s=web&atyp=csi&ei=GWzzWJTxIKupjwSk9LOYBg&imc=39&imn=39&imp=24&adh=&xjs=init.34.14.sb_mob.23.dvl.6.c.1.mbsf.1.async.1&ima=14&rt=prt.829,iml.1019,xjsls.829,dcl.942,xjses.1027,xjsee.1168,xjs.1169,qiml.1896,ol.3442,aft.1017,wsrt.96,cst.0,dnst.0,rqst.933,rspt.849,rqstt.2,unt.2,cstt.2,dit.1022
p2002
sVqueryString
p2003
(lp2004
(dp2005
Vname
p2006
g57
sVvalue
p2007
Vweb
p2008
sa(dp2009
Vname
p2010
Vatyp
p2011
sVvalue
p2012
Vcsi
p2013
sa(dp2014
Vname
p2015
Vei
p2016
sVvalue
p2017
VGWzzWJTxIKupjwSk9LOYBg
p2018
sa(dp2019
Vname
p2020
Vimc
p2021
sVvalue
p2022
V39
p2023
sa(dp2024
Vname
p2025
Vimn
p2026
sVvalue
p2027
V39
p2028
sa(dp2029
Vname
p2030
Vimp
p2031
sVvalue
p2032
V24
p2033
sa(dp2034
Vname
p2035
Vadh
p2036
sVvalue
p2037
g4
sa(dp2038
Vname
p2039
Vxjs
p2040
sVvalue
p2041
Vinit.34.14.sb_mob.23.dvl.6.c.1.mbsf.1.async.1
p2042
sa(dp2043
Vname
p2044
Vima
p2045
sVvalue
p2046
V14
p2047
sa(dp2048
Vname
p2049
Vrt
p2050
sVvalue
p2051
Vprt.829,iml.1019,xjsls.829,dcl.942,xjses.1027,xjsee.1168,xjs.1169,qiml.1896,ol.3442,aft.1017,wsrt.96,cst.0,dnst.0,rqst.933,rspt.849,rqstt.2,unt.2,cstt.2,dit.1022
p2052
sasVheaders
p2053
(lp2054
sVheadersSize
p2055
I836
sVbodySize
p2056
I0
sVmethod
p2057
VGET
p2058
sVhttpVersion
p2059
VHTTP/1.1
p2060
ssVtimings
p2061
(dp2062
Vcomment
p2063
g4
sVreceive
p2064
I0
sVsend
p2065
I1
sVssl
p2066
I-1
sVconnect
p2067
I-1
sVdns
p2068
I-1
sVwait
p2069
I89
sVblocked
p2070
I-1
ssVtime
p2071
I90
sVresponse
p2072
(dp2073
Vstatus
p2074
I204
sVcomment
p2075
g4
sVcookies
p2076
(lp2077
sVstatusText
p2078
VNo Content
p2079
sVcontent
p2080
(dp2081
VmimeType
p2082
Vtext/html; charset=UTF-8
p2083
sVcomment
p2084
g4
sVsize
p2085
I0
ssVheaders
p2086
(lp2087
sVheadersSize
p2088
I248
sVredirectURL
p2089
g4
sVbodySize
p2090
I0
sVhttpVersion
p2091
VHTTP/1.1
p2092
ssa(dp2093
Vcomment
p2094
g4
sVserverIPAddress
p2095
V216.58.216.196
p2096
sVpageref
p2097
VTom Holland
p2098
sVstartedDateTime
p2099
V2017-04-16T08:05:34.283-05:00
p2100
sVcache
p2101
(dp2102
sVrequest
p2103
(dp2104
Vcomment
p2105
g4
sVcookies
p2106
(lp2107
sVurl
p2108
Vhttps://www.google.com/gen_204?atyp=i&ct=slh&cad=&ei=BWzzWOqsMcyPjwSr47CwBg&m=V&t=C&s=1&v=2&pv=0.020409581095021223&me=1:1492347912417,x:2,V,0,0,1280,944:0,N,1,BWzzWOqsMcyPjwSr47CwBg:0,R,1,24,8,155,1249,1053:0,R,1,25,8,155,1249,1053:0,R,1,29,8,168,1249,40:0,R,1,46,8,267,1249,178:0,R,1,49,0,283,1265,197:0,R,1,89,8,462,1249,20:0,R,1,90,24,462,1217,20:0,R,1,98,8,498,1249,20:0,R,1,117,8,538,1249,295:0,R,1,118,0,583,1265,270:0,R,1,135,8,878,1249,263:0,R,1,136,0,878,1265,283:1,B,3994:17515,e,U&zx=1492347934281
p2109
sVqueryString
p2110
(lp2111
(dp2112
Vname
p2113
Vatyp
p2114
sVvalue
p2115
g30
sa(dp2116
Vname
p2117
Vct
p2118
sVvalue
p2119
Vslh
p2120
sa(dp2121
Vname
p2122
Vcad
p2123
sVvalue
p2124
g4
sa(dp2125
Vname
p2126
Vei
p2127
sVvalue
p2128
VBWzzWOqsMcyPjwSr47CwBg
p2129
sa(dp2130
Vname
p2131
g47
sVvalue
p2132
g49
sa(dp2133
Vname
p2134
g52
sVvalue
p2135
g54
sa(dp2136
Vname
p2137
g57
sVvalue
p2138
g59
sa(dp2139
Vname
p2140
g62
sVvalue
p2141
g64
sa(dp2142
Vname
p2143
Vpv
p2144
sVvalue
p2145
V0.020409581095021223
p2146
sa(dp2147
Vname
p2148
Vme
p2149
sVvalue
p2150
V1:1492347912417,x:2,V,0,0,1280,944:0,N,1,BWzzWOqsMcyPjwSr47CwBg:0,R,1,24,8,155,1249,1053:0,R,1,25,8,155,1249,1053:0,R,1,29,8,168,1249,40:0,R,1,46,8,267,1249,178:0,R,1,49,0,283,1265,197:0,R,1,89,8,462,1249,20:0,R,1,90,24,462,1217,20:0,R,1,98,8,498,1249,20:0,R,1,117,8,538,1249,295:0,R,1,118,0,583,1265,270:0,R,1,135,8,878,1249,263:0,R,1,136,0,878,1265,283:1,B,3994:17515,e,U
p2151
sa(dp2152
Vname
p2153
Vzx
p2154
sVvalue
p2155
V1492347934281
p2156
sasVheaders
p2157
(lp2158
sVheadersSize
p2159
I1026
sVbodySize
p2160
I0
sVmethod
p2161
VGET
p2162
sVhttpVersion
p2163
VHTTP/1.1
p2164
ssVtimings
p2165
(dp2166
Vcomment
p2167
g4
sVreceive
p2168
I0
sVsend
p2169
I0
sVssl
p2170
I-1
sVconnect
p2171
I-1
sVdns
p2172
I-1
sVwait
p2173
I27
sVblocked
p2174
I-1
ssVtime
p2175
I28
sVresponse
p2176
(dp2177
Vstatus
p2178
I204
sVcomment
p2179
g4
sVcookies
p2180
(lp2181
sVstatusText
p2182
VNo Content
p2183
sVcontent
p2184
(dp2185
VmimeType
p2186
Vtext/html; charset=UTF-8
p2187
sVcomment
p2188
g4
sVsize
p2189
I0
ssVheaders
p2190
(lp2191
sVheadersSize
p2192
I248
sVredirectURL
p2193
g4
sVbodySize
p2194
I0
sVhttpVersion
p2195
VHTTP/1.1
p2196
ssasVversion
p2197
V1.2
p2198
sVpages
p2199
(lp2200
(dp2201
VpageTimings
p2202
(dp2203
Vcomment
p2204
g4
ssVcomment
p2205
g4
sVtitle
p2206
VTom Holland
p2207
sVid
p2208
VTom Holland
p2209
sVstartedDateTime
p2210
V2017-04-16T08:05:29.925-05:00
p2211
sasVcreator
p2212
(dp2213
Vcomment
p2214
g4
sVversion
p2215
V2.1.4
p2216
sVname
p2217
VBrowserMob Proxy
p2218
sss.