(dp0
Vlog
p1
(dp2
Vcomment
p3
V
p4
sVentries
p5
(lp6
(dp7
Vcomment
p8
g4
sVserverIPAddress
p9
V216.58.216.196
p10
sVpageref
p11
VChicago Bulls
p12
sVstartedDateTime
p13
V2017-04-16T08:32:36.472-05:00
p14
sVcache
p15
(dp16
sVrequest
p17
(dp18
Vcomment
p19
g4
sVcookies
p20
(lp21
sVurl
p22
Vhttps://www.google.com/gen_204?atyp=i&ct=slh&cad=&ei=XXLzWK2wLMWwjwSa04yoBQ&m=V&t=C&s=1&v=2&pv=0.5403626778856149&me=1:1492349537343,x:2,V,0,0,1280,944:0,N,1,XXLzWK2wLMWwjwSa04yoBQ:0,R,1,24,0,155,1197,506:0,R,1,25,0,155,1197,504:0,R,1,78,8,669,1264,545:0,R,1,79,8,713,1264,315:0,R,1,80,0,713,1280,335:1,B,4633:19124,e,U&zx=1492349556471
p23
sVqueryString
p24
(lp25
(dp26
Vname
p27
Vatyp
p28
sVvalue
p29
Vi
p30
sa(dp31
Vname
p32
Vct
p33
sVvalue
p34
Vslh
p35
sa(dp36
Vname
p37
Vcad
p38
sVvalue
p39
g4
sa(dp40
Vname
p41
Vei
p42
sVvalue
p43
VXXLzWK2wLMWwjwSa04yoBQ
p44
sa(dp45
Vname
p46
Vm
p47
sVvalue
p48
VV
p49
sa(dp50
Vname
p51
Vt
p52
sVvalue
p53
VC
p54
sa(dp55
Vname
p56
Vs
p57
sVvalue
p58
V1
p59
sa(dp60
Vname
p61
Vv
p62
sVvalue
p63
V2
p64
sa(dp65
Vname
p66
Vpv
p67
sVvalue
p68
V0.5403626778856149
p69
sa(dp70
Vname
p71
Vme
p72
sVvalue
p73
V1:1492349537343,x:2,V,0,0,1280,944:0,N,1,XXLzWK2wLMWwjwSa04yoBQ:0,R,1,24,0,155,1197,506:0,R,1,25,0,155,1197,504:0,R,1,78,8,669,1264,545:0,R,1,79,8,713,1264,315:0,R,1,80,0,713,1280,335:1,B,4633:19124,e,U
p74
sa(dp75
Vname
p76
Vzx
p77
sVvalue
p78
V1492349556471
p79
sasVheaders
p80
(lp81
sVheadersSize
p82
I853
sVbodySize
p83
I0
sVmethod
p84
VGET
p85
sVhttpVersion
p86
VHTTP/1.1
p87
ssVtimings
p88
(dp89
Vcomment
p90
g4
sVreceive
p91
I0
sVsend
p92
I0
sVssl
p93
I-1
sVconnect
p94
I-1
sVdns
p95
I-1
sVwait
p96
I0
sVblocked
p97
I-1
ssVtime
p98
I0
sVresponse
p99
(dp100
Vstatus
p101
I0
sVcomment
p102
g4
sVcookies
p103
(lp104
sV_error
p105
VNo response received
p106
sVstatusText
p107
g4
sVcontent
p108
(dp109
VmimeType
p110
g4
sVcomment
p111
g4
sVsize
p112
I0
ssVheaders
p113
(lp114
sVheadersSize
p115
I-1
sVredirectURL
p116
g4
sVbodySize
p117
I-1
sVhttpVersion
p118
Vunknown
p119
ssa(dp120
Vcomment
p121
g4
sVserverIPAddress
p122
V216.58.216.196
p123
sVpageref
p124
VChicago Bulls
p125
sVstartedDateTime
p126
V2017-04-16T08:32:36.478-05:00
p127
sVcache
p128
(dp129
sVrequest
p130
(dp131
Vcomment
p132
g4
sVcookies
p133
(lp134
sVurl
p135
Vhttp://www.google.com/
p136
sVqueryString
p137
(lp138
sVheaders
p139
(lp140
sVheadersSize
p141
I613
sVbodySize
p142
I0
sVmethod
p143
VGET
p144
sVhttpVersion
p145
VHTTP/1.1
p146
ssVtimings
p147
(dp148
Vcomment
p149
g4
sVreceive
p150
I0
sVsend
p151
I0
sVssl
p152
I-1
sVconnect
p153
I-1
sVdns
p154
I-1
sVwait
p155
I59
sVblocked
p156
I-1
ssVtime
p157
I60
sVresponse
p158
(dp159
Vstatus
p160
I302
sVcomment
p161
g4
sVcookies
p162
(lp163
sVstatusText
p164
VFound
p165
sVcontent
p166
(dp167
VmimeType
p168
Vtext/html; charset=UTF-8
p169
sVcomment
p170
g4
sVsize
p171
I0
ssVheaders
p172
(lp173
sVheadersSize
p174
I609
sVredirectURL
p175
Vhttps://www.google.com/?gws_rd=ssl
p176
sVbodySize
p177
I231
sVhttpVersion
p178
VHTTP/1.1
p179
ssa(dp180
Vcomment
p181
g4
sVserverIPAddress
p182
V216.58.216.196
p183
sVpageref
p184
VChicago Bulls
p185
sVstartedDateTime
p186
V2017-04-16T08:32:36.543-05:00
p187
sVcache
p188
(dp189
sVrequest
p190
(dp191
Vcomment
p192
g4
sVcookies
p193
(lp194
sVurl
p195
Vhttps://www.google.com/?gws_rd=ssl
p196
sVqueryString
p197
(lp198
(dp199
Vname
p200
Vgws_rd
p201
sVvalue
p202
Vssl
p203
sasVheaders
p204
(lp205
sVheadersSize
p206
I607
sVbodySize
p207
I0
sVmethod
p208
VGET
p209
sVhttpVersion
p210
VHTTP/1.1
p211
ssVtimings
p212
(dp213
Vcomment
p214
g4
sVreceive
p215
I29
sVsend
p216
I0
sVssl
p217
I-1
sVconnect
p218
I-1
sVdns
p219
I-1
sVwait
p220
I72
sVblocked
p221
I-1
ssVtime
p222
I102
sVresponse
p223
(dp224
Vstatus
p225
I200
sVcomment
p226
g4
sVcookies
p227
(lp228
sVstatusText
p229
VOK
p230
sVcontent
p231
(dp232
VmimeType
p233
Vtext/html; charset=UTF-8
p234
sVcomment
p235
g4
sVsize
p236
I0
ssVheaders
p237
(lp238
sVheadersSize
p239
I721
sVredirectURL
p240
g4
sVbodySize
p241
I34289
sVhttpVersion
p242
VHTTP/1.1
p243
ssa(dp244
Vcomment
p245
g4
sVserverIPAddress
p246
V216.58.216.196
p247
sVpageref
p248
VChicago Bulls
p249
sVstartedDateTime
p250
V2017-04-16T08:32:37.021-05:00
p251
sVcache
p252
(dp253
sVrequest
p254
(dp255
Vcomment
p256
g4
sVcookies
p257
(lp258
sVurl
p259
Vhttps://www.google.com/gen_204?s=mobilewebhp&atyp=csi&ei=c3LzWPPDIMHUjwSNvbWoDA&imc=1&imn=1&imp=0&adh=&xjs=init.26.12.sb_mob.20.dvl.2.c.1.mbsf.1.async.1&ima=1&rt=xjsls.27,prt.28,iml.28,dcl.61,xjses.158,xjsee.247,xjs.248,ol.374,aft.28,wsrt.172,cst.0,dnst.0,rqst.108,rspt.34,rqstt.72,unt.70,cstt.70,dit.222
p260
sVqueryString
p261
(lp262
(dp263
Vname
p264
g57
sVvalue
p265
Vmobilewebhp
p266
sa(dp267
Vname
p268
Vatyp
p269
sVvalue
p270
Vcsi
p271
sa(dp272
Vname
p273
Vei
p274
sVvalue
p275
Vc3LzWPPDIMHUjwSNvbWoDA
p276
sa(dp277
Vname
p278
Vimc
p279
sVvalue
p280
g59
sa(dp281
Vname
p282
Vimn
p283
sVvalue
p284
g59
sa(dp285
Vname
p286
Vimp
p287
sVvalue
p288
V0
p289
sa(dp290
Vname
p291
Vadh
p292
sVvalue
p293
g4
sa(dp294
Vname
p295
Vxjs
p296
sVvalue
p297
Vinit.26.12.sb_mob.20.dvl.2.c.1.mbsf.1.async.1
p298
sa(dp299
Vname
p300
Vima
p301
sVvalue
p302
g59
sa(dp303
Vname
p304
Vrt
p305
sVvalue
p306
Vxjsls.27,prt.28,iml.28,dcl.61,xjses.158,xjsee.247,xjs.248,ol.374,aft.28,wsrt.172,cst.0,dnst.0,rqst.108,rspt.34,rqstt.72,unt.70,cstt.70,dit.222
p307
sasVheaders
p308
(lp309
sVheadersSize
p310
I832
sVbodySize
p311
I0
sVmethod
p312
VGET
p313
sVhttpVersion
p314
VHTTP/1.1
p315
ssVtimings
p316
(dp317
Vcomment
p318
g4
sVreceive
p319
I0
sVsend
p320
I0
sVssl
p321
I-1
sVconnect
p322
I-1
sVdns
p323
I-1
sVwait
p324
I27
sVblocked
p325
I-1
ssVtime
p326
I27
sVresponse
p327
(dp328
Vstatus
p329
I204
sVcomment
p330
g4
sVcookies
p331
(lp332
sVstatusText
p333
VNo Content
p334
sVcontent
p335
(dp336
VmimeType
p337
Vtext/html; charset=UTF-8
p338
sVcomment
p339
g4
sVsize
p340
I0
ssVheaders
p341
(lp342
sVheadersSize
p343
I248
sVredirectURL
p344
g4
sVbodySize
p345
I0
sVhttpVersion
p346
VHTTP/1.1
p347
ssa(dp348
Vcomment
p349
g4
sVserverIPAddress
p350
V216.58.216.196
p351
sVpageref
p352
VChicago Bulls
p353
sVstartedDateTime
p354
V2017-04-16T08:32:37.134-05:00
p355
sVcache
p356
(dp357
sVrequest
p358
(dp359
Vcomment
p360
g4
sVcookies
p361
(lp362
sVurl
p363
Vhttps://www.google.com/complete/search?client=mobile-gws-hp&hl=en&gs_rn=64&gs_ri=mobile-gws-hp&sla=1&pfq=cleveland%20cavaliers&gm=602&cp=0&gs_id=1&xhr=t&q=C&tch=1&ech=1&psi=c3LzWPPDIMHUjwSNvbWoDA.1492349556863.1
p364
sVqueryString
p365
(lp366
(dp367
Vname
p368
Vclient
p369
sVvalue
p370
Vmobile-gws-hp
p371
sa(dp372
Vname
p373
Vhl
p374
sVvalue
p375
Ven
p376
sa(dp377
Vname
p378
Vgs_rn
p379
sVvalue
p380
V64
p381
sa(dp382
Vname
p383
Vgs_ri
p384
sVvalue
p385
Vmobile-gws-hp
p386
sa(dp387
Vname
p388
Vsla
p389
sVvalue
p390
g59
sa(dp391
Vname
p392
Vpfq
p393
sVvalue
p394
Vcleveland cavaliers
p395
sa(dp396
Vname
p397
Vgm
p398
sVvalue
p399
V602
p400
sa(dp401
Vname
p402
Vcp
p403
sVvalue
p404
g289
sa(dp405
Vname
p406
Vgs_id
p407
sVvalue
p408
g59
sa(dp409
Vname
p410
Vxhr
p411
sVvalue
p412
g52
sa(dp413
Vname
p414
Vq
p415
sVvalue
p416
g54
sa(dp417
Vname
p418
Vtch
p419
sVvalue
p420
g59
sa(dp421
Vname
p422
Vech
p423
sVvalue
p424
g59
sa(dp425
Vname
p426
Vpsi
p427
sVvalue
p428
Vc3LzWPPDIMHUjwSNvbWoDA.1492349556863.1
p429
sasVheaders
p430
(lp431
sVheadersSize
p432
I739
sVbodySize
p433
I0
sVmethod
p434
VGET
p435
sVhttpVersion
p436
VHTTP/1.1
p437
ssVtimings
p438
(dp439
Vcomment
p440
g4
sVreceive
p441
I0
sVsend
p442
I0
sVssl
p443
I-1
sVconnect
p444
I-1
sVdns
p445
I-1
sVwait
p446
I0
sVblocked
p447
I-1
ssVtime
p448
I0
sVresponse
p449
(dp450
Vstatus
p451
I0
sVcomment
p452
g4
sVcookies
p453
(lp454
sV_error
p455
VNo response received
p456
sVstatusText
p457
g4
sVcontent
p458
(dp459
VmimeType
p460
g4
sVcomment
p461
g4
sVsize
p462
I0
ssVheaders
p463
(lp464
sVheadersSize
p465
I-1
sVredirectURL
p466
g4
sVbodySize
p467
I-1
sVhttpVersion
p468
Vunknown
p469
ssa(dp470
Vcomment
p471
g4
sVserverIPAddress
p472
V216.58.216.196
p473
sVpageref
p474
VChicago Bulls
p475
sVstartedDateTime
p476
V2017-04-16T08:32:37.285-05:00
p477
sVcache
p478
(dp479
sVrequest
p480
(dp481
Vcomment
p482
g4
sVcookies
p483
(lp484
sVurl
p485
Vhttps://www.google.com/search?site=&source=hp&ei=c3LzWPPDIMHUjwSNvbWoDA&q=Chicago+Bulls&oq=Chicago+Bulls&gs_l=mobile-gws-hp.3...238.314.0.371.13.1.0.0.0.0.0.0..0.0....0...1c.1.64.mobile-gws-hp..13.0.0.svtlz_Hw_MI
p486
sVqueryString
p487
(lp488
(dp489
Vname
p490
Vsite
p491
sVvalue
p492
g4
sa(dp493
Vname
p494
Vsource
p495
sVvalue
p496
Vhp
p497
sa(dp498
Vname
p499
Vei
p500
sVvalue
p501
Vc3LzWPPDIMHUjwSNvbWoDA
p502
sa(dp503
Vname
p504
g415
sVvalue
p505
VChicago Bulls
p506
sa(dp507
Vname
p508
Voq
p509
sVvalue
p510
VChicago Bulls
p511
sa(dp512
Vname
p513
Vgs_l
p514
sVvalue
p515
Vmobile-gws-hp.3...238.314.0.371.13.1.0.0.0.0.0.0..0.0....0...1c.1.64.mobile-gws-hp..13.0.0.svtlz_Hw_MI
p516
sasVheaders
p517
(lp518
sVheadersSize
p519
I830
sVbodySize
p520
I0
sVmethod
p521
VGET
p522
sVhttpVersion
p523
VHTTP/1.1
p524
ssVtimings
p525
(dp526
Vcomment
p527
g4
sVreceive
p528
I1324
sVsend
p529
I0
sVssl
p530
I-1
sVconnect
p531
I-1
sVdns
p532
I-1
sVwait
p533
I95
sVblocked
p534
I-1
ssVtime
p535
I1420
sVresponse
p536
(dp537
Vstatus
p538
I200
sVcomment
p539
g4
sVcookies
p540
(lp541
sVstatusText
p542
VOK
p543
sVcontent
p544
(dp545
VmimeType
p546
Vtext/html; charset=UTF-8
p547
sVcomment
p548
g4
sVsize
p549
I0
ssVheaders
p550
(lp551
sVheadersSize
p552
I363
sVredirectURL
p553
g4
sVbodySize
p554
I210066
sVhttpVersion
p555
VHTTP/1.1
p556
ssa(dp557
Vcomment
p558
g4
sVserverIPAddress
p559
V216.58.216.195
p560
sVpageref
p561
VChicago Bulls
p562
sVstartedDateTime
p563
V2017-04-16T08:32:38.596-05:00
p564
sVcache
p565
(dp566
sVrequest
p567
(dp568
Vcomment
p569
g4
sVcookies
p570
(lp571
sVurl
p572
Vhttps://ssl.gstatic.com/onebox/media/sports/logos/ofjScRGiytT__Flak2j4dg_48x48.png
p573
sVqueryString
p574
(lp575
sVheaders
p576
(lp577
sVheadersSize
p578
I397
sVbodySize
p579
I0
sVmethod
p580
VGET
p581
sVhttpVersion
p582
VHTTP/1.1
p583
ssVtimings
p584
(dp585
Vcomment
p586
g4
sVreceive
p587
I0
sVsend
p588
I0
sVssl
p589
I-1
sVconnect
p590
I-1
sVdns
p591
I-1
sVwait
p592
I52
sVblocked
p593
I-1
ssVtime
p594
I52
sVresponse
p595
(dp596
Vstatus
p597
I200
sVcomment
p598
g4
sVcookies
p599
(lp600
sVstatusText
p601
VOK
p602
sVcontent
p603
(dp604
VmimeType
p605
Vimage/png
p606
sVcomment
p607
g4
sVsize
p608
I0
ssVheaders
p609
(lp610
sVheadersSize
p611
I424
sVredirectURL
p612
g4
sVbodySize
p613
I3019
sVhttpVersion
p614
VHTTP/1.1
p615
ssa(dp616
Vcomment
p617
g4
sVserverIPAddress
p618
V216.58.216.195
p619
sVpageref
p620
VChicago Bulls
p621
sVstartedDateTime
p622
V2017-04-16T08:32:38.596-05:00
p623
sVcache
p624
(dp625
sVrequest
p626
(dp627
Vcomment
p628
g4
sVcookies
p629
(lp630
sVurl
p631
Vhttps://ssl.gstatic.com/onebox/media/sports/logos/ofjScRGiytT__Flak2j4dg_96x96.png
p632
sVqueryString
p633
(lp634
sVheaders
p635
(lp636
sVheadersSize
p637
I397
sVbodySize
p638
I0
sVmethod
p639
VGET
p640
sVhttpVersion
p641
VHTTP/1.1
p642
ssVtimings
p643
(dp644
Vcomment
p645
g4
sVreceive
p646
I10
sVsend
p647
I0
sVssl
p648
I-1
sVconnect
p649
I-1
sVdns
p650
I-1
sVwait
p651
I51
sVblocked
p652
I-1
ssVtime
p653
I62
sVresponse
p654
(dp655
Vstatus
p656
I200
sVcomment
p657
g4
sVcookies
p658
(lp659
sVstatusText
p660
VOK
p661
sVcontent
p662
(dp663
VmimeType
p664
Vimage/png
p665
sVcomment
p666
g4
sVsize
p667
I0
ssVheaders
p668
(lp669
sVheadersSize
p670
I424
sVredirectURL
p671
g4
sVbodySize
p672
I7370
sVhttpVersion
p673
VHTTP/1.1
p674
ssa(dp675
Vcomment
p676
g4
sVserverIPAddress
p677
V216.58.216.195
p678
sVpageref
p679
VChicago Bulls
p680
sVstartedDateTime
p681
V2017-04-16T08:32:38.596-05:00
p682
sVcache
p683
(dp684
sVrequest
p685
(dp686
Vcomment
p687
g4
sVcookies
p688
(lp689
sVurl
p690
Vhttps://ssl.gstatic.com/onebox/media/sports/logos/GDJBo7eEF8EO5-kDHVpdqw_96x96.png
p691
sVqueryString
p692
(lp693
sVheaders
p694
(lp695
sVheadersSize
p696
I397
sVbodySize
p697
I0
sVmethod
p698
VGET
p699
sVhttpVersion
p700
VHTTP/1.1
p701
ssVtimings
p702
(dp703
Vcomment
p704
g4
sVreceive
p705
I2
sVsend
p706
I0
sVssl
p707
I-1
sVconnect
p708
I-1
sVdns
p709
I-1
sVwait
p710
I25
sVblocked
p711
I-1
ssVtime
p712
I28
sVresponse
p713
(dp714
Vstatus
p715
I200
sVcomment
p716
g4
sVcookies
p717
(lp718
sVstatusText
p719
VOK
p720
sVcontent
p721
(dp722
VmimeType
p723
Vimage/png
p724
sVcomment
p725
g4
sVsize
p726
I0
ssVheaders
p727
(lp728
sVheadersSize
p729
I403
sVredirectURL
p730
g4
sVbodySize
p731
I13833
sVhttpVersion
p732
VHTTP/1.1
p733
ssa(dp734
Vcomment
p735
g4
sVserverIPAddress
p736
V216.58.216.195
p737
sVpageref
p738
VChicago Bulls
p739
sVstartedDateTime
p740
V2017-04-16T08:32:38.614-05:00
p741
sVcache
p742
(dp743
sVrequest
p744
(dp745
Vcomment
p746
g4
sVcookies
p747
(lp748
sVurl
p749
Vhttps://ssl.gstatic.com/onebox/media/sports/logos/GDJBo7eEF8EO5-kDHVpdqw_48x48.png
p750
sVqueryString
p751
(lp752
sVheaders
p753
(lp754
sVheadersSize
p755
I397
sVbodySize
p756
I0
sVmethod
p757
VGET
p758
sVhttpVersion
p759
VHTTP/1.1
p760
ssVtimings
p761
(dp762
Vcomment
p763
g4
sVreceive
p764
I0
sVsend
p765
I0
sVssl
p766
I-1
sVconnect
p767
I-1
sVdns
p768
I-1
sVwait
p769
I46
sVblocked
p770
I-1
ssVtime
p771
I46
sVresponse
p772
(dp773
Vstatus
p774
I200
sVcomment
p775
g4
sVcookies
p776
(lp777
sVstatusText
p778
VOK
p779
sVcontent
p780
(dp781
VmimeType
p782
Vimage/png
p783
sVcomment
p784
g4
sVsize
p785
I0
ssVheaders
p786
(lp787
sVheadersSize
p788
I424
sVredirectURL
p789
g4
sVbodySize
p790
I4874
sVhttpVersion
p791
VHTTP/1.1
p792
ssa(dp793
Vcomment
p794
g4
sVserverIPAddress
p795
V216.58.216.196
p796
sVpageref
p797
VChicago Bulls
p798
sVstartedDateTime
p799
V2017-04-16T08:32:38.628-05:00
p800
sVcache
p801
(dp802
sVrequest
p803
(dp804
Vcomment
p805
g4
sVcookies
p806
(lp807
sVurl
p808
Vhttps://www.google.com/gen_204?atyp=i&ct=&cad=udla=1&ei=dHLzWO_xEOvHjwSxnIOoCw&b=0&act=p&ps=0&zx=1492349558577
p809
sVqueryString
p810
(lp811
(dp812
Vname
p813
Vatyp
p814
sVvalue
p815
g30
sa(dp816
Vname
p817
Vct
p818
sVvalue
p819
g4
sa(dp820
Vname
p821
Vcad
p822
sVvalue
p823
Vudla=1
p824
sa(dp825
Vname
p826
Vei
p827
sVvalue
p828
VdHLzWO_xEOvHjwSxnIOoCw
p829
sa(dp830
Vname
p831
Vb
p832
sVvalue
p833
g289
sa(dp834
Vname
p835
Vact
p836
sVvalue
p837
Vp
p838
sa(dp839
Vname
p840
Vps
p841
sVvalue
p842
g289
sa(dp843
Vname
p844
Vzx
p845
sVvalue
p846
V1492349558577
p847
sasVheaders
p848
(lp849
sVheadersSize
p850
I627
sVbodySize
p851
I0
sVmethod
p852
VGET
p853
sVhttpVersion
p854
VHTTP/1.1
p855
ssVtimings
p856
(dp857
Vcomment
p858
g4
sVreceive
p859
I0
sVsend
p860
I0
sVssl
p861
I34
sVconnect
p862
I48
sVdns
p863
I0
sVwait
p864
I74
sVblocked
p865
I0
ssVtime
p866
I123
sVresponse
p867
(dp868
Vstatus
p869
I204
sVcomment
p870
g4
sVcookies
p871
(lp872
sVstatusText
p873
VNo Content
p874
sVcontent
p875
(dp876
VmimeType
p877
Vtext/html; charset=UTF-8
p878
sVcomment
p879
g4
sVsize
p880
I0
ssVheaders
p881
(lp882
sVheadersSize
p883
I248
sVredirectURL
p884
g4
sVbodySize
p885
I0
sVhttpVersion
p886
VHTTP/1.1
p887
ssa(dp888
Vcomment
p889
g4
sVserverIPAddress
p890
V216.58.216.196
p891
sVpageref
p892
VChicago Bulls
p893
sVstartedDateTime
p894
V2017-04-16T08:32:39.534-05:00
p895
sVcache
p896
(dp897
sVrequest
p898
(dp899
Vcomment
p900
g4
sVcookies
p901
(lp902
sVurl
p903
Vhttps://www.google.com/xjs/_/js/k=xjs.qs.en_US.pCBXVCvTH3s.O/m=syl,syj,syn,em3,em8,em6,em7,sym,aa,abd,sy2g,sy2k,sy29,sy2j,sy2d,sy2a,sy2c,sy2f,sy2l,sy2m,sy2n,emd,async,sybn,sybi,sybo,sy1f,sy45,sy46,sy9w,sybk,sybj,sybp,sy1g,sy30,sy47,sybm,sybl,sybq,sy1h,sybh,dvl,syep,foot,ipv6,sy5g,sy5j,sy5h,sy6u,sy7d,sy7j,sy2x,sy5i,sy89,sy7e,sy23,sy2y,sy5k,sy6c,sy91,sy9b,sy9l,syhi,syhj,syhk,syhl,lr,lrli,sy32,emj,shm,sykh,tl,sy2t,sy38,em12,vs,sy66,sy67,sy4u,sy69,sykk,sykl,tnv,bct,sy48,sy3a,sy3c,sy5b,sy4x,sy4z,sy56,sy1y,sy31,sy4y,sy22,sy6i,sy4h,sy6h,sy6o,sya3,sy5d,sy25,sy6j,sy6k,sy6r,sya2,sy5e,sy6n,emb,em9,ema,sy24,sy2o,sy4c,sy65,sy6p,sy6s,sy6w,sy72,sya4,syd7,syel,syho,syhs,syhu,syhv,sio,sy6y,sycu,d3l,sy5x,qif,tabs,sy9m,syac,sy4g,sy9n,syhz,syl6,ssc,sy26,sykr,strm,twt,sy2u,sy34,sy6l,sy6m,qkx,syf5,sy99,syf4,syfc,syfn,syf7,syff,sy1i,sy68,sy8d,syf6,syfl,syfr,syfq,syfg,sy1j,sy4q,sy5o,sy5r,sy8h,syc7,syc8,syfb,syfj,syfs,syft,syg3,syg5,syg7,emn,emo,syg4,syg6,ivg,iuci,img,sy4d,sy4f,sy4e,sy4b,shrb,dgm,sy41,tcc,sy1r,sy8g,syer,sy9u,syex,syey,syet,syeu,syew,syez,syf0,hlr,sy4i,syes,hlmi,sygq,kpc,kpci,sy5z,atn,sya1,ampfp/am=gCP4LtMEBXQA2RUaq_oFBISzAFA/rt=j/d=0/t=zcms/rs=ACT90oFwm4NZCwIcuuiqmthdlECdBzkhRA
p904
sVqueryString
p905
(lp906
sVheaders
p907
(lp908
sVheadersSize
p909
I1705
sVbodySize
p910
I0
sVmethod
p911
VGET
p912
sVhttpVersion
p913
VHTTP/1.1
p914
ssVtimings
p915
(dp916
Vcomment
p917
g4
sVreceive
p918
I69
sVsend
p919
I0
sVssl
p920
I-1
sVconnect
p921
I-1
sVdns
p922
I-1
sVwait
p923
I84
sVblocked
p924
I-1
ssVtime
p925
I153
sVresponse
p926
(dp927
Vstatus
p928
I200
sVcomment
p929
g4
sVcookies
p930
(lp931
sVstatusText
p932
VOK
p933
sVcontent
p934
(dp935
VmimeType
p936
Vtext/javascript; charset=UTF-8
p937
sVcomment
p938
g4
sVsize
p939
I0
ssVheaders
p940
(lp941
sVheadersSize
p942
I452
sVredirectURL
p943
g4
sVbodySize
p944
I223712
sVhttpVersion
p945
VHTTP/1.1
p946
ssa(dp947
Vcomment
p948
g4
sVserverIPAddress
p949
V216.58.216.196
p950
sVpageref
p951
VChicago Bulls
p952
sVstartedDateTime
p953
V2017-04-16T08:32:40.197-05:00
p954
sVcache
p955
(dp956
sVrequest
p957
(dp958
Vcomment
p959
g4
sVcookies
p960
(lp961
sVurl
p962
Vhttps://www.google.com/async/irc?vet=10ahUKEwjv-7qpi6nTAhXr44MKHTHOALUQo0EIhAM..i&ved=0ahUKEwjv-7qpi6nTAhXr44MKHTHOALUQo0EIhAM&ei=dHLzWO_xEOvHjwSxnIOoCw&yv=2&async=iu:1,ved:0ahUKEwjv-7qpi6nTAhXr44MKHTHOALUQo0EIhAM,_id:irc_async,_pms:qs
p963
sVqueryString
p964
(lp965
(dp966
Vname
p967
Vvet
p968
sVvalue
p969
V10ahUKEwjv-7qpi6nTAhXr44MKHTHOALUQo0EIhAM..i
p970
sa(dp971
Vname
p972
Vved
p973
sVvalue
p974
V0ahUKEwjv-7qpi6nTAhXr44MKHTHOALUQo0EIhAM
p975
sa(dp976
Vname
p977
Vei
p978
sVvalue
p979
VdHLzWO_xEOvHjwSxnIOoCw
p980
sa(dp981
Vname
p982
Vyv
p983
sVvalue
p984
g64
sa(dp985
Vname
p986
Vasync
p987
sVvalue
p988
Viu:1,ved:0ahUKEwjv-7qpi6nTAhXr44MKHTHOALUQo0EIhAM,_id:irc_async,_pms:qs
p989
sasVheaders
p990
(lp991
sVheadersSize
p992
I752
sVbodySize
p993
I0
sVmethod
p994
VGET
p995
sVhttpVersion
p996
VHTTP/1.1
p997
ssVtimings
p998
(dp999
Vcomment
p1000
g4
sVreceive
p1001
I0
sVsend
p1002
I0
sVssl
p1003
I-1
sVconnect
p1004
I-1
sVdns
p1005
I-1
sVwait
p1006
I49
sVblocked
p1007
I-1
ssVtime
p1008
I49
sVresponse
p1009
(dp1010
Vstatus
p1011
I200
sVcomment
p1012
g4
sVcookies
p1013
(lp1014
sVstatusText
p1015
VOK
p1016
sVcontent
p1017
(dp1018
VmimeType
p1019
Vtext/html; charset=UTF-8
p1020
sVcomment
p1021
g4
sVsize
p1022
I0
ssVheaders
p1023
(lp1024
sVheadersSize
p1025
I383
sVredirectURL
p1026
g4
sVbodySize
p1027
I7792
sVhttpVersion
p1028
VHTTP/1.1
p1029
ssa(dp1030
Vcomment
p1031
g4
sVserverIPAddress
p1032
V216.58.216.196
p1033
sVpageref
p1034
VChicago Bulls
p1035
sVstartedDateTime
p1036
V2017-04-16T08:32:40.306-05:00
p1037
sVcache
p1038
(dp1039
sVrequest
p1040
(dp1041
Vcomment
p1042
g4
sVcookies
p1043
(lp1044
sVurl
p1045
Vhttps://www.google.com/async/ampfp?vet=10ahUKEwjv-7qpi6nTAhXr44MKHTHOALUQtZoBCIID..i&ei=dHLzWO_xEOvHjwSxnIOoCw&yv=2&async=_id:ampfp-async,_pms:qs
p1046
sVqueryString
p1047
(lp1048
(dp1049
Vname
p1050
Vvet
p1051
sVvalue
p1052
V10ahUKEwjv-7qpi6nTAhXr44MKHTHOALUQtZoBCIID..i
p1053
sa(dp1054
Vname
p1055
Vei
p1056
sVvalue
p1057
VdHLzWO_xEOvHjwSxnIOoCw
p1058
sa(dp1059
Vname
p1060
Vyv
p1061
sVvalue
p1062
g64
sa(dp1063
Vname
p1064
Vasync
p1065
sVvalue
p1066
V_id:ampfp-async,_pms:qs
p1067
sasVheaders
p1068
(lp1069
sVheadersSize
p1070
I662
sVbodySize
p1071
I0
sVmethod
p1072
VGET
p1073
sVhttpVersion
p1074
VHTTP/1.1
p1075
ssVtimings
p1076
(dp1077
Vcomment
p1078
g4
sVreceive
p1079
I0
sVsend
p1080
I0
sVssl
p1081
I-1
sVconnect
p1082
I-1
sVdns
p1083
I-1
sVwait
p1084
I42
sVblocked
p1085
I-1
ssVtime
p1086
I43
sVresponse
p1087
(dp1088
Vstatus
p1089
I200
sVcomment
p1090
g4
sVcookies
p1091
(lp1092
sVstatusText
p1093
VOK
p1094
sVcontent
p1095
(dp1096
VmimeType
p1097
Vtext/html; charset=UTF-8
p1098
sVcomment
p1099
g4
sVsize
p1100
I0
ssVheaders
p1101
(lp1102
sVheadersSize
p1103
I383
sVredirectURL
p1104
g4
sVbodySize
p1105
I4528
sVhttpVersion
p1106
VHTTP/1.1
p1107
ssa(dp1108
Vcomment
p1109
g4
sVserverIPAddress
p1110
V216.58.216.193
p1111
sVpageref
p1112
VChicago Bulls
p1113
sVstartedDateTime
p1114
V2017-04-16T08:32:40.307-05:00
p1115
sVcache
p1116
(dp1117
sVrequest
p1118
(dp1119
Vcomment
p1120
g4
sVcookies
p1121
(lp1122
sVurl
p1123
Vhttps://cdn.ampproject.org/preconnect.gif?0.2980244098093072
p1124
sVqueryString
p1125
(lp1126
(dp1127
Vname
p1128
V0.2980244098093072
p1129
sVvalue
p1130
g4
sasVheaders
p1131
(lp1132
sVheadersSize
p1133
I375
sVbodySize
p1134
I0
sVmethod
p1135
VGET
p1136
sVhttpVersion
p1137
VHTTP/1.1
p1138
ssVtimings
p1139
(dp1140
Vcomment
p1141
g4
sVreceive
p1142
I0
sVsend
p1143
I0
sVssl
p1144
I-1
sVconnect
p1145
I-1
sVdns
p1146
I-1
sVwait
p1147
I31
sVblocked
p1148
I-1
ssVtime
p1149
I32
sVresponse
p1150
(dp1151
Vstatus
p1152
I200
sVcomment
p1153
g4
sVcookies
p1154
(lp1155
sVstatusText
p1156
VOK
p1157
sVcontent
p1158
(dp1159
VmimeType
p1160
Vimage/gif
p1161
sVcomment
p1162
g4
sVsize
p1163
I0
ssVheaders
p1164
(lp1165
sVheadersSize
p1166
I826
sVredirectURL
p1167
g4
sVbodySize
p1168
I37
sVhttpVersion
p1169
VHTTP/1.1
p1170
ssa(dp1171
Vcomment
p1172
g4
sVserverIPAddress
p1173
V216.58.216.196
p1174
sVpageref
p1175
VChicago Bulls
p1176
sVstartedDateTime
p1177
V2017-04-16T08:32:40.556-05:00
p1178
sVcache
p1179
(dp1180
sVrequest
p1181
(dp1182
Vcomment
p1183
g4
sVcookies
p1184
(lp1185
sVurl
p1186
Vhttps://www.google.com/gen_204?s=web&atyp=csi&ei=dHLzWO_xEOvHjwSxnIOoCw&imc=75&imn=75&imp=33&adh=&xjs=init.46.16.sb_mob.34.async.3.dvl.3.c.1.mbsf.1&ima=11&rt=prt.1303,iml.1938,xjsls.1303,qiml.1634,dcl.1443,xjses.1950,xjsee.2107,xjs.2108,ol.3129,aft.1938,wsrt.134,cst.0,dnst.0,rqst.1423,rspt.1326,rqstt.3,unt.3,cstt.3,dit.1543
p1187
sVqueryString
p1188
(lp1189
(dp1190
Vname
p1191
g57
sVvalue
p1192
Vweb
p1193
sa(dp1194
Vname
p1195
Vatyp
p1196
sVvalue
p1197
Vcsi
p1198
sa(dp1199
Vname
p1200
Vei
p1201
sVvalue
p1202
VdHLzWO_xEOvHjwSxnIOoCw
p1203
sa(dp1204
Vname
p1205
Vimc
p1206
sVvalue
p1207
V75
p1208
sa(dp1209
Vname
p1210
Vimn
p1211
sVvalue
p1212
V75
p1213
sa(dp1214
Vname
p1215
Vimp
p1216
sVvalue
p1217
V33
p1218
sa(dp1219
Vname
p1220
Vadh
p1221
sVvalue
p1222
g4
sa(dp1223
Vname
p1224
Vxjs
p1225
sVvalue
p1226
Vinit.46.16.sb_mob.34.async.3.dvl.3.c.1.mbsf.1
p1227
sa(dp1228
Vname
p1229
Vima
p1230
sVvalue
p1231
V11
p1232
sa(dp1233
Vname
p1234
Vrt
p1235
sVvalue
p1236
Vprt.1303,iml.1938,xjsls.1303,qiml.1634,dcl.1443,xjses.1950,xjsee.2107,xjs.2108,ol.3129,aft.1938,wsrt.134,cst.0,dnst.0,rqst.1423,rspt.1326,rqstt.3,unt.3,cstt.3,dit.1543
p1237
sasVheaders
p1238
(lp1239
sVheadersSize
p1240
I842
sVbodySize
p1241
I0
sVmethod
p1242
VGET
p1243
sVhttpVersion
p1244
VHTTP/1.1
p1245
ssVtimings
p1246
(dp1247
Vcomment
p1248
g4
sVreceive
p1249
I0
sVsend
p1250
I0
sVssl
p1251
I-1
sVconnect
p1252
I-1
sVdns
p1253
I-1
sVwait
p1254
I36
sVblocked
p1255
I-1
ssVtime
p1256
I36
sVresponse
p1257
(dp1258
Vstatus
p1259
I204
sVcomment
p1260
g4
sVcookies
p1261
(lp1262
sVstatusText
p1263
VNo Content
p1264
sVcontent
p1265
(dp1266
VmimeType
p1267
Vtext/html; charset=UTF-8
p1268
sVcomment
p1269
g4
sVsize
p1270
I0
ssVheaders
p1271
(lp1272
sVheadersSize
p1273
I248
sVredirectURL
p1274
g4
sVbodySize
p1275
I0
sVhttpVersion
p1276
VHTTP/1.1
p1277
ssa(dp1278
Vcomment
p1279
g4
sVserverIPAddress
p1280
V216.58.216.196
p1281
sVpageref
p1282
VChicago Bulls
p1283
sVstartedDateTime
p1284
V2017-04-16T08:32:40.624-05:00
p1285
sVcache
p1286
(dp1287
sVrequest
p1288
(dp1289
Vcomment
p1290
g4
sVcookies
p1291
(lp1292
sVurl
p1293
Vhttps://www.google.com/async/log_amp_item_set?vet=10ahUKEwjkxPOqi6nTAhVnwYMKHamQBuMQooQBCAE..i&ei=dHLzWO_xEOvHjwSxnIOoCw&yv=2&async=num_items:1,_fmt:jspb
p1294
sVqueryString
p1295
(lp1296
(dp1297
Vname
p1298
Vvet
p1299
sVvalue
p1300
V10ahUKEwjkxPOqi6nTAhVnwYMKHamQBuMQooQBCAE..i
p1301
sa(dp1302
Vname
p1303
Vei
p1304
sVvalue
p1305
VdHLzWO_xEOvHjwSxnIOoCw
p1306
sa(dp1307
Vname
p1308
Vyv
p1309
sVvalue
p1310
g64
sa(dp1311
Vname
p1312
Vasync
p1313
sVvalue
p1314
Vnum_items:1,_fmt:jspb
p1315
sasVheaders
p1316
(lp1317
sVheadersSize
p1318
I670
sVbodySize
p1319
I0
sVmethod
p1320
VGET
p1321
sVhttpVersion
p1322
VHTTP/1.1
p1323
ssVtimings
p1324
(dp1325
Vcomment
p1326
g4
sVreceive
p1327
I0
sVsend
p1328
I0
sVssl
p1329
I-1
sVconnect
p1330
I-1
sVdns
p1331
I-1
sVwait
p1332
I39
sVblocked
p1333
I-1
ssVtime
p1334
I39
sVresponse
p1335
(dp1336
Vstatus
p1337
I200
sVcomment
p1338
g4
sVcookies
p1339
(lp1340
sVstatusText
p1341
VOK
p1342
sVcontent
p1343
(dp1344
VmimeType
p1345
Vapplication/json; charset=UTF-8
p1346
sVcomment
p1347
g4
sVsize
p1348
I0
ssVheaders
p1349
(lp1350
sVheadersSize
p1351
I417
sVredirectURL
p1352
g4
sVbodySize
p1353
I132
sVhttpVersion
p1354
VHTTP/1.1
p1355
ssa(dp1356
Vcomment
p1357
g4
sVserverIPAddress
p1358
V172.217.0.1
p1359
sVpageref
p1360
VChicago Bulls
p1361
sVstartedDateTime
p1362
V2017-04-16T08:32:40.632-05:00
p1363
sVcache
p1364
(dp1365
sVrequest
p1366
(dp1367
Vcomment
p1368
g4
sVcookies
p1369
(lp1370
sVurl
p1371
Vhttps://syndication-bleacherreport-com.cdn.ampproject.org/v/s/syndication.bleacherreport.com/amp/chicago-bulls?amp_js_v=9
p1372
sVqueryString
p1373
(lp1374
(dp1375
Vname
p1376
Vamp_js_v
p1377
sVvalue
p1378
V9
p1379
sasVheaders
p1380
(lp1381
sVheadersSize
p1382
I526
sVbodySize
p1383
I0
sVmethod
p1384
VGET
p1385
sVhttpVersion
p1386
VHTTP/1.1
p1387
ssVtimings
p1388
(dp1389
Vcomment
p1390
g4
sVreceive
p1391
I2
sVsend
p1392
I0
sVssl
p1393
I-1
sVconnect
p1394
I-1
sVdns
p1395
I-1
sVwait
p1396
I22
sVblocked
p1397
I-1
ssVtime
p1398
I24
sVresponse
p1399
(dp1400
Vstatus
p1401
I200
sVcomment
p1402
g4
sVcookies
p1403
(lp1404
sVstatusText
p1405
VOK
p1406
sVcontent
p1407
(dp1408
VmimeType
p1409
Vtext/html
p1410
sVcomment
p1411
g4
sVsize
p1412
I0
ssVheaders
p1413
(lp1414
sVheadersSize
p1415
I860
sVredirectURL
p1416
g4
sVbodySize
p1417
I12133
sVhttpVersion
p1418
VHTTP/1.1
p1419
ssa(dp1420
Vcomment
p1421
g4
sVserverIPAddress
p1422
V172.217.0.1
p1423
sVpageref
p1424
VChicago Bulls
p1425
sVstartedDateTime
p1426
V2017-04-16T08:32:40.691-05:00
p1427
sVcache
p1428
(dp1429
sVrequest
p1430
(dp1431
Vcomment
p1432
g4
sVcookies
p1433
(lp1434
sVurl
p1435
Vhttps://cdn-bleacherreport-net.cdn.ampproject.org/i/cdn.bleacherreport.net/images/team_logos/164x164/brooklyn_nets.png
p1436
sVqueryString
p1437
(lp1438
sVheaders
p1439
(lp1440
sVheadersSize
p1441
I531
sVbodySize
p1442
I0
sVmethod
p1443
VGET
p1444
sVhttpVersion
p1445
VHTTP/1.1
p1446
ssVtimings
p1447
(dp1448
Vcomment
p1449
g4
sVreceive
p1450
I19
sVsend
p1451
I0
sVssl
p1452
I-1
sVconnect
p1453
I-1
sVdns
p1454
I-1
sVwait
p1455
I29
sVblocked
p1456
I-1
ssVtime
p1457
I49
sVresponse
p1458
(dp1459
Vstatus
p1460
I200
sVcomment
p1461
g4
sVcookies
p1462
(lp1463
sVstatusText
p1464
VOK
p1465
sVcontent
p1466
(dp1467
VmimeType
p1468
Vimage/png
p1469
sVcomment
p1470
g4
sVsize
p1471
I0
ssVheaders
p1472
(lp1473
sVheadersSize
p1474
I821
sVredirectURL
p1475
g4
sVbodySize
p1476
I4853
sVhttpVersion
p1477
VHTTP/1.1
p1478
ssa(dp1479
Vcomment
p1480
g4
sVserverIPAddress
p1481
V172.217.0.1
p1482
sVpageref
p1483
VChicago Bulls
p1484
sVstartedDateTime
p1485
V2017-04-16T08:32:40.691-05:00
p1486
sVcache
p1487
(dp1488
sVrequest
p1489
(dp1490
Vcomment
p1491
g4
sVcookies
p1492
(lp1493
sVurl
p1494
Vhttps://cdn-bleacherreport-net.cdn.ampproject.org/i/cdn.bleacherreport.net/images/team_logos/164x164/chicago_bulls.png
p1495
sVqueryString
p1496
(lp1497
sVheaders
p1498
(lp1499
sVheadersSize
p1500
I531
sVbodySize
p1501
I0
sVmethod
p1502
VGET
p1503
sVhttpVersion
p1504
VHTTP/1.1
p1505
ssVtimings
p1506
(dp1507
Vcomment
p1508
g4
sVreceive
p1509
I0
sVsend
p1510
I0
sVssl
p1511
I-1
sVconnect
p1512
I-1
sVdns
p1513
I-1
sVwait
p1514
I49
sVblocked
p1515
I-1
ssVtime
p1516
I50
sVresponse
p1517
(dp1518
Vstatus
p1519
I200
sVcomment
p1520
g4
sVcookies
p1521
(lp1522
sVstatusText
p1523
VOK
p1524
sVcontent
p1525
(dp1526
VmimeType
p1527
Vimage/png
p1528
sVcomment
p1529
g4
sVsize
p1530
I0
ssVheaders
p1531
(lp1532
sVheadersSize
p1533
I821
sVredirectURL
p1534
g4
sVbodySize
p1535
I6479
sVhttpVersion
p1536
VHTTP/1.1
p1537
ssa(dp1538
Vcomment
p1539
g4
sVserverIPAddress
p1540
V172.217.0.1
p1541
sVpageref
p1542
VChicago Bulls
p1543
sVstartedDateTime
p1544
V2017-04-16T08:32:40.693-05:00
p1545
sVcache
p1546
(dp1547
sVrequest
p1548
(dp1549
Vcomment
p1550
g4
sVcookies
p1551
(lp1552
sVurl
p1553
Vhttps://cdn-bleacherreport-net.cdn.ampproject.org/i/cdn.bleacherreport.net/images/team_logos/164x164/orlando_magic.png
p1554
sVqueryString
p1555
(lp1556
sVheaders
p1557
(lp1558
sVheadersSize
p1559
I531
sVbodySize
p1560
I0
sVmethod
p1561
VGET
p1562
sVhttpVersion
p1563
VHTTP/1.1
p1564
ssVtimings
p1565
(dp1566
Vcomment
p1567
g4
sVreceive
p1568
I0
sVsend
p1569
I0
sVssl
p1570
I-1
sVconnect
p1571
I-1
sVdns
p1572
I-1
sVwait
p1573
I46
sVblocked
p1574
I-1
ssVtime
p1575
I47
sVresponse
p1576
(dp1577
Vstatus
p1578
I200
sVcomment
p1579
g4
sVcookies
p1580
(lp1581
sVstatusText
p1582
VOK
p1583
sVcontent
p1584
(dp1585
VmimeType
p1586
Vimage/png
p1587
sVcomment
p1588
g4
sVsize
p1589
I0
ssVheaders
p1590
(lp1591
sVheadersSize
p1592
I821
sVredirectURL
p1593
g4
sVbodySize
p1594
I4852
sVhttpVersion
p1595
VHTTP/1.1
p1596
ssa(dp1597
Vcomment
p1598
g4
sVserverIPAddress
p1599
V172.217.0.1
p1600
sVpageref
p1601
VChicago Bulls
p1602
sVstartedDateTime
p1603
V2017-04-16T08:32:40.702-05:00
p1604
sVcache
p1605
(dp1606
sVrequest
p1607
(dp1608
Vcomment
p1609
g4
sVcookies
p1610
(lp1611
sVurl
p1612
Vhttps://cdn-bleacherreport-net.cdn.ampproject.org/i/cdn.bleacherreport.net/images/team_logos/164x164/philadelphia_76ers.png
p1613
sVqueryString
p1614
(lp1615
sVheaders
p1616
(lp1617
sVheadersSize
p1618
I536
sVbodySize
p1619
I0
sVmethod
p1620
VGET
p1621
sVhttpVersion
p1622
VHTTP/1.1
p1623
ssVtimings
p1624
(dp1625
Vcomment
p1626
g4
sVreceive
p1627
I3
sVsend
p1628
I0
sVssl
p1629
I-1
sVconnect
p1630
I-1
sVdns
p1631
I-1
sVwait
p1632
I44
sVblocked
p1633
I-1
ssVtime
p1634
I48
sVresponse
p1635
(dp1636
Vstatus
p1637
I200
sVcomment
p1638
g4
sVcookies
p1639
(lp1640
sVstatusText
p1641
VOK
p1642
sVcontent
p1643
(dp1644
VmimeType
p1645
Vimage/png
p1646
sVcomment
p1647
g4
sVsize
p1648
I0
ssVheaders
p1649
(lp1650
sVheadersSize
p1651
I821
sVredirectURL
p1652
g4
sVbodySize
p1653
I5754
sVhttpVersion
p1654
VHTTP/1.1
p1655
ssa(dp1656
Vcomment
p1657
g4
sVserverIPAddress
p1658
V172.217.0.1
p1659
sVpageref
p1660
VChicago Bulls
p1661
sVstartedDateTime
p1662
V2017-04-16T08:32:40.904-05:00
p1663
sVcache
p1664
(dp1665
sVrequest
p1666
(dp1667
Vcomment
p1668
g4
sVcookies
p1669
(lp1670
sVurl
p1671
Vhttps://cdn-bleacherreport-net.cdn.ampproject.org/ii/w150/cdn.bleacherreport.net/images/team_logos/150x150/chicago_bulls.png
p1672
sVqueryString
p1673
(lp1674
sVheaders
p1675
(lp1676
sVheadersSize
p1677
I537
sVbodySize
p1678
I0
sVmethod
p1679
VGET
p1680
sVhttpVersion
p1681
VHTTP/1.1
p1682
ssVtimings
p1683
(dp1684
Vcomment
p1685
g4
sVreceive
p1686
I0
sVsend
p1687
I0
sVssl
p1688
I-1
sVconnect
p1689
I-1
sVdns
p1690
I-1
sVwait
p1691
I20
sVblocked
p1692
I-1
ssVtime
p1693
I21
sVresponse
p1694
(dp1695
Vstatus
p1696
I200
sVcomment
p1697
g4
sVcookies
p1698
(lp1699
sVstatusText
p1700
VOK
p1701
sVcontent
p1702
(dp1703
VmimeType
p1704
Vimage/png
p1705
sVcomment
p1706
g4
sVsize
p1707
I0
ssVheaders
p1708
(lp1709
sVheadersSize
p1710
I821
sVredirectURL
p1711
g4
sVbodySize
p1712
I4784
sVhttpVersion
p1713
VHTTP/1.1
p1714
ssa(dp1715
Vcomment
p1716
g4
sVserverIPAddress
p1717
V172.217.0.1
p1718
sVpageref
p1719
VChicago Bulls
p1720
sVstartedDateTime
p1721
V2017-04-16T08:32:40.908-05:00
p1722
sVcache
p1723
(dp1724
sVrequest
p1725
(dp1726
Vcomment
p1727
g4
sVcookies
p1728
(lp1729
sVurl
p1730
Vhttps://img-bleacherreport-net.cdn.ampproject.org/i/s/img.bleacherreport.net/cms/media/image/d8/8b/97/3c/705d/454f/912d/306710d3991d/crop_exact_full_image.jpeg?h=3002&q=90&w=4498
p1731
sVqueryString
p1732
(lp1733
(dp1734
Vname
p1735
Vh
p1736
sVvalue
p1737
V3002
p1738
sa(dp1739
Vname
p1740
g415
sVvalue
p1741
V90
p1742
sa(dp1743
Vname
p1744
Vw
p1745
sVvalue
p1746
V4498
p1747
sasVheaders
p1748
(lp1749
sVheadersSize
p1750
I591
sVbodySize
p1751
I0
sVmethod
p1752
VGET
p1753
sVhttpVersion
p1754
VHTTP/1.1
p1755
ssVtimings
p1756
(dp1757
Vcomment
p1758
g4
sVreceive
p1759
I64
sVsend
p1760
I0
sVssl
p1761
I-1
sVconnect
p1762
I-1
sVdns
p1763
I-1
sVwait
p1764
I31
sVblocked
p1765
I-1
ssVtime
p1766
I96
sVresponse
p1767
(dp1768
Vstatus
p1769
I200
sVcomment
p1770
g4
sVcookies
p1771
(lp1772
sVstatusText
p1773
VOK
p1774
sVcontent
p1775
(dp1776
VmimeType
p1777
Vimage/jpeg
p1778
sVcomment
p1779
g4
sVsize
p1780
I0
ssVheaders
p1781
(lp1782
sVheadersSize
p1783
I803
sVredirectURL
p1784
g4
sVbodySize
p1785
I139501
sVhttpVersion
p1786
VHTTP/1.1
p1787
ssa(dp1788
Vcomment
p1789
g4
sVserverIPAddress
p1790
V172.217.0.1
p1791
sVpageref
p1792
VChicago Bulls
p1793
sVstartedDateTime
p1794
V2017-04-16T08:32:40.910-05:00
p1795
sVcache
p1796
(dp1797
sVrequest
p1798
(dp1799
Vcomment
p1800
g4
sVcookies
p1801
(lp1802
sVurl
p1803
Vhttps://img-bleacherreport-net.cdn.ampproject.org/i/s/img.bleacherreport.net/cms/media/image/7b/be/4b/78/cca3/415c/b52a/203a18b48a8c/crop_exact_full_image.jpeg?h=3648&q=90&w=5462
p1804
sVqueryString
p1805
(lp1806
(dp1807
Vname
p1808
g1736
sVvalue
p1809
V3648
p1810
sa(dp1811
Vname
p1812
g415
sVvalue
p1813
V90
p1814
sa(dp1815
Vname
p1816
g1745
sVvalue
p1817
V5462
p1818
sasVheaders
p1819
(lp1820
sVheadersSize
p1821
I591
sVbodySize
p1822
I0
sVmethod
p1823
VGET
p1824
sVhttpVersion
p1825
VHTTP/1.1
p1826
ssVtimings
p1827
(dp1828
Vcomment
p1829
g4
sVreceive
p1830
I51
sVsend
p1831
I0
sVssl
p1832
I-1
sVconnect
p1833
I-1
sVdns
p1834
I-1
sVwait
p1835
I24
sVblocked
p1836
I-1
ssVtime
p1837
I77
sVresponse
p1838
(dp1839
Vstatus
p1840
I200
sVcomment
p1841
g4
sVcookies
p1842
(lp1843
sVstatusText
p1844
VOK
p1845
sVcontent
p1846
(dp1847
VmimeType
p1848
Vimage/jpeg
p1849
sVcomment
p1850
g4
sVsize
p1851
I0
ssVheaders
p1852
(lp1853
sVheadersSize
p1854
I848
sVredirectURL
p1855
g4
sVbodySize
p1856
I98029
sVhttpVersion
p1857
VHTTP/1.1
p1858
ssa(dp1859
Vcomment
p1860
g4
sVserverIPAddress
p1861
V172.217.0.1
p1862
sVpageref
p1863
VChicago Bulls
p1864
sVstartedDateTime
p1865
V2017-04-16T08:32:40.914-05:00
p1866
sVcache
p1867
(dp1868
sVrequest
p1869
(dp1870
Vcomment
p1871
g4
sVcookies
p1872
(lp1873
sVurl
p1874
Vhttps://img-bleacherreport-net.cdn.ampproject.org/i/s/img.bleacherreport.net/cms/media/image/5b/7f/29/b5/ea6a/4288/8911/acb7a30e284a/crop_exact_full_image.jpeg?h=1863&q=90&w=2795
p1875
sVqueryString
p1876
(lp1877
(dp1878
Vname
p1879
g1736
sVvalue
p1880
V1863
p1881
sa(dp1882
Vname
p1883
g415
sVvalue
p1884
V90
p1885
sa(dp1886
Vname
p1887
g1745
sVvalue
p1888
V2795
p1889
sasVheaders
p1890
(lp1891
sVheadersSize
p1892
I591
sVbodySize
p1893
I0
sVmethod
p1894
VGET
p1895
sVhttpVersion
p1896
VHTTP/1.1
p1897
ssVtimings
p1898
(dp1899
Vcomment
p1900
g4
sVreceive
p1901
I38
sVsend
p1902
I0
sVssl
p1903
I-1
sVconnect
p1904
I-1
sVdns
p1905
I-1
sVwait
p1906
I64
sVblocked
p1907
I-1
ssVtime
p1908
I102
sVresponse
p1909
(dp1910
Vstatus
p1911
I200
sVcomment
p1912
g4
sVcookies
p1913
(lp1914
sVstatusText
p1915
VOK
p1916
sVcontent
p1917
(dp1918
VmimeType
p1919
Vimage/jpeg
p1920
sVcomment
p1921
g4
sVsize
p1922
I0
ssVheaders
p1923
(lp1924
sVheadersSize
p1925
I849
sVredirectURL
p1926
g4
sVbodySize
p1927
I125168
sVhttpVersion
p1928
VHTTP/1.1
p1929
ssa(dp1930
Vcomment
p1931
g4
sVserverIPAddress
p1932
V172.217.0.1
p1933
sVpageref
p1934
VChicago Bulls
p1935
sVstartedDateTime
p1936
V2017-04-16T08:32:40.916-05:00
p1937
sVcache
p1938
(dp1939
sVrequest
p1940
(dp1941
Vcomment
p1942
g4
sVcookies
p1943
(lp1944
sVurl
p1945
Vhttps://img-bleacherreport-net.cdn.ampproject.org/i/s/img.bleacherreport.net/cms/media/image/71/a6/9c/97/dfcc/47d1/a8fb/9136a301251f/crop_exact_full_image.jpeg?h=3298&q=90&w=4961
p1946
sVqueryString
p1947
(lp1948
(dp1949
Vname
p1950
g1736
sVvalue
p1951
V3298
p1952
sa(dp1953
Vname
p1954
g415
sVvalue
p1955
V90
p1956
sa(dp1957
Vname
p1958
g1745
sVvalue
p1959
V4961
p1960
sasVheaders
p1961
(lp1962
sVheadersSize
p1963
I591
sVbodySize
p1964
I0
sVmethod
p1965
VGET
p1966
sVhttpVersion
p1967
VHTTP/1.1
p1968
ssVtimings
p1969
(dp1970
Vcomment
p1971
g4
sVreceive
p1972
I34
sVsend
p1973
I0
sVssl
p1974
I-1
sVconnect
p1975
I-1
sVdns
p1976
I-1
sVwait
p1977
I189
sVblocked
p1978
I-1
ssVtime
p1979
I223
sVresponse
p1980
(dp1981
Vstatus
p1982
I200
sVcomment
p1983
g4
sVcookies
p1984
(lp1985
sVstatusText
p1986
VOK
p1987
sVcontent
p1988
(dp1989
VmimeType
p1990
Vimage/jpeg
p1991
sVcomment
p1992
g4
sVsize
p1993
I0
ssVheaders
p1994
(lp1995
sVheadersSize
p1996
I849
sVredirectURL
p1997
g4
sVbodySize
p1998
I132950
sVhttpVersion
p1999
VHTTP/1.1
p2000
ssa(dp2001
Vcomment
p2002
g4
sVserverIPAddress
p2003
V216.58.216.196
p2004
sVpageref
p2005
VChicago Bulls
p2006
sVstartedDateTime
p2007
V2017-04-16T08:32:41.971-05:00
p2008
sVcache
p2009
(dp2010
sVrequest
p2011
(dp2012
Vcomment
p2013
g4
sVcookies
p2014
(lp2015
sVurl
p2016
Vhttps://www.google.com/gen_204?atyp=i&ct=slh&cad=&ei=dHLzWO_xEOvHjwSxnIOoCw&m=V&t=C&s=1&v=2&pv=0.4248089188677242&me=1:1492349560257,x:2,V,0,0,1280,944:0,N,1,dHLzWO_xEOvHjwSxnIOoCw:0,R,1,24,0,155,1197,589:0,R,1,25,0,155,1197,587:0,R,1,78,8,752,1264,309:0,R,1,79,8,796,1264,265:0,R,1,80,0,796,1280,285:2,B,4916:1689,e,B&zx=1492349561951
p2017
sVqueryString
p2018
(lp2019
(dp2020
Vname
p2021
Vatyp
p2022
sVvalue
p2023
g30
sa(dp2024
Vname
p2025
Vct
p2026
sVvalue
p2027
Vslh
p2028
sa(dp2029
Vname
p2030
Vcad
p2031
sVvalue
p2032
g4
sa(dp2033
Vname
p2034
Vei
p2035
sVvalue
p2036
VdHLzWO_xEOvHjwSxnIOoCw
p2037
sa(dp2038
Vname
p2039
g47
sVvalue
p2040
g49
sa(dp2041
Vname
p2042
g52
sVvalue
p2043
g54
sa(dp2044
Vname
p2045
g57
sVvalue
p2046
g59
sa(dp2047
Vname
p2048
g62
sVvalue
p2049
g64
sa(dp2050
Vname
p2051
Vpv
p2052
sVvalue
p2053
V0.4248089188677242
p2054
sa(dp2055
Vname
p2056
Vme
p2057
sVvalue
p2058
V1:1492349560257,x:2,V,0,0,1280,944:0,N,1,dHLzWO_xEOvHjwSxnIOoCw:0,R,1,24,0,155,1197,589:0,R,1,25,0,155,1197,587:0,R,1,78,8,752,1264,309:0,R,1,79,8,796,1264,265:0,R,1,80,0,796,1280,285:2,B,4916:1689,e,B
p2059
sa(dp2060
Vname
p2061
Vzx
p2062
sVvalue
p2063
V1492349561951
p2064
sasVheaders
p2065
(lp2066
sVheadersSize
p2067
I852
sVbodySize
p2068
I0
sVmethod
p2069
VGET
p2070
sVhttpVersion
p2071
VHTTP/1.1
p2072
ssVtimings
p2073
(dp2074
Vcomment
p2075
g4
sVreceive
p2076
I0
sVsend
p2077
I0
sVssl
p2078
I-1
sVconnect
p2079
I-1
sVdns
p2080
I-1
sVwait
p2081
I29
sVblocked
p2082
I-1
ssVtime
p2083
I29
sVresponse
p2084
(dp2085
Vstatus
p2086
I204
sVcomment
p2087
g4
sVcookies
p2088
(lp2089
sVstatusText
p2090
VNo Content
p2091
sVcontent
p2092
(dp2093
VmimeType
p2094
Vtext/html; charset=UTF-8
p2095
sVcomment
p2096
g4
sVsize
p2097
I0
ssVheaders
p2098
(lp2099
sVheadersSize
p2100
I248
sVredirectURL
p2101
g4
sVbodySize
p2102
I0
sVhttpVersion
p2103
VHTTP/1.1
p2104
ssa(dp2105
Vcomment
p2106
g4
sVserverIPAddress
p2107
V216.58.216.196
p2108
sVpageref
p2109
VChicago Bulls
p2110
sVstartedDateTime
p2111
V2017-04-16T08:32:41.971-05:00
p2112
sVcache
p2113
(dp2114
sVrequest
p2115
(dp2116
Vcomment
p2117
g4
sVcookies
p2118
(lp2119
sVurl
p2120
Vhttps://www.google.com/gen_204?atyp=i&ct=slh&cad=&ei=XXLzWK2wLMWwjwSa04yoBQ&m=V&t=C&s=1&v=2&pv=0.5403626778856149&me=1:1492349537343,x:2,V,0,0,1280,944:0,N,1,XXLzWK2wLMWwjwSa04yoBQ:0,R,1,24,0,155,1197,506:0,R,1,25,0,155,1197,504:0,R,1,78,8,669,1264,545:0,R,1,79,8,713,1264,315:0,R,1,80,0,713,1280,335:1,B,4633:19124,e,U&zx=1492349561952
p2121
sVqueryString
p2122
(lp2123
(dp2124
Vname
p2125
Vatyp
p2126
sVvalue
p2127
g30
sa(dp2128
Vname
p2129
Vct
p2130
sVvalue
p2131
Vslh
p2132
sa(dp2133
Vname
p2134
Vcad
p2135
sVvalue
p2136
g4
sa(dp2137
Vname
p2138
Vei
p2139
sVvalue
p2140
VXXLzWK2wLMWwjwSa04yoBQ
p2141
sa(dp2142
Vname
p2143
g47
sVvalue
p2144
g49
sa(dp2145
Vname
p2146
g52
sVvalue
p2147
g54
sa(dp2148
Vname
p2149
g57
sVvalue
p2150
g59
sa(dp2151
Vname
p2152
g62
sVvalue
p2153
g64
sa(dp2154
Vname
p2155
Vpv
p2156
sVvalue
p2157
V0.5403626778856149
p2158
sa(dp2159
Vname
p2160
Vme
p2161
sVvalue
p2162
V1:1492349537343,x:2,V,0,0,1280,944:0,N,1,XXLzWK2wLMWwjwSa04yoBQ:0,R,1,24,0,155,1197,506:0,R,1,25,0,155,1197,504:0,R,1,78,8,669,1264,545:0,R,1,79,8,713,1264,315:0,R,1,80,0,713,1280,335:1,B,4633:19124,e,U
p2163
sa(dp2164
Vname
p2165
Vzx
p2166
sVvalue
p2167
V1492349561952
p2168
sasVheaders
p2169
(lp2170
sVheadersSize
p2171
I853
sVbodySize
p2172
I0
sVmethod
p2173
VGET
p2174
sVhttpVersion
p2175
VHTTP/1.1
p2176
ssVtimings
p2177
(dp2178
Vcomment
p2179
g4
sVreceive
p2180
I0
sVsend
p2181
I0
sVssl
p2182
I-1
sVconnect
p2183
I-1
sVdns
p2184
I-1
sVwait
p2185
I28
sVblocked
p2186
I-1
ssVtime
p2187
I28
sVresponse
p2188
(dp2189
Vstatus
p2190
I204
sVcomment
p2191
g4
sVcookies
p2192
(lp2193
sVstatusText
p2194
VNo Content
p2195
sVcontent
p2196
(dp2197
VmimeType
p2198
Vtext/html; charset=UTF-8
p2199
sVcomment
p2200
g4
sVsize
p2201
I0
ssVheaders
p2202
(lp2203
sVheadersSize
p2204
I248
sVredirectURL
p2205
g4
sVbodySize
p2206
I0
sVhttpVersion
p2207
VHTTP/1.1
p2208
ssasVversion
p2209
V1.2
p2210
sVpages
p2211
(lp2212
(dp2213
VpageTimings
p2214
(dp2215
Vcomment
p2216
g4
ssVcomment
p2217
g4
sVtitle
p2218
VChicago Bulls
p2219
sVid
p2220
VChicago Bulls
p2221
sVstartedDateTime
p2222
V2017-04-16T08:32:36.464-05:00
p2223
sasVcreator
p2224
(dp2225
Vcomment
p2226
g4
sVversion
p2227
V2.1.4
p2228
sVname
p2229
VBrowserMob Proxy
p2230
sss.