(dp0
Vlog
p1
(dp2
Vcomment
p3
V
p4
sVentries
p5
(lp6
(dp7
Vcomment
p8
g4
sVserverIPAddress
p9
V216.58.216.196
p10
sVpageref
p11
VAlan Thicke
p12
sVstartedDateTime
p13
V2017-04-16T08:09:10.380-05:00
p14
sVcache
p15
(dp16
sVrequest
p17
(dp18
Vcomment
p19
g4
sVcookies
p20
(lp21
sVurl
p22
Vhttps://www.google.com/gen_204?atyp=i&ct=slh&cad=&ei=3GzzWKGIFenBjwT_4KtI&m=V&t=C&s=1&v=2&pv=0.9418693183012797&me=1:1492348127157,x:2,V,0,0,1280,944:0,N,1,3GzzWKGIFenBjwT_4KtI:0,R,1,24,8,155,1249,778:0,R,1,25,8,155,1249,778:0,R,1,29,8,168,1249,40:0,R,1,47,8,267,1249,178:0,R,1,50,0,283,1265,197:0,R,1,90,8,462,1249,20:0,R,1,91,24,462,1217,20:0,R,1,97,8,498,1249,20:0,R,1,113,8,583,1249,283:0,R,1,114,0,583,1265,303:0,R,1,177,24,943,1217,115:3,B,3366:23216,e,U&zx=1492348150378
p23
sVqueryString
p24
(lp25
(dp26
Vname
p27
Vatyp
p28
sVvalue
p29
Vi
p30
sa(dp31
Vname
p32
Vct
p33
sVvalue
p34
Vslh
p35
sa(dp36
Vname
p37
Vcad
p38
sVvalue
p39
g4
sa(dp40
Vname
p41
Vei
p42
sVvalue
p43
V3GzzWKGIFenBjwT_4KtI
p44
sa(dp45
Vname
p46
Vm
p47
sVvalue
p48
VV
p49
sa(dp50
Vname
p51
Vt
p52
sVvalue
p53
VC
p54
sa(dp55
Vname
p56
Vs
p57
sVvalue
p58
V1
p59
sa(dp60
Vname
p61
Vv
p62
sVvalue
p63
V2
p64
sa(dp65
Vname
p66
Vpv
p67
sVvalue
p68
V0.9418693183012797
p69
sa(dp70
Vname
p71
Vme
p72
sVvalue
p73
V1:1492348127157,x:2,V,0,0,1280,944:0,N,1,3GzzWKGIFenBjwT_4KtI:0,R,1,24,8,155,1249,778:0,R,1,25,8,155,1249,778:0,R,1,29,8,168,1249,40:0,R,1,47,8,267,1249,178:0,R,1,50,0,283,1265,197:0,R,1,90,8,462,1249,20:0,R,1,91,24,462,1217,20:0,R,1,97,8,498,1249,20:0,R,1,113,8,583,1249,283:0,R,1,114,0,583,1265,303:0,R,1,177,24,943,1217,115:3,B,3366:23216,e,U
p74
sa(dp75
Vname
p76
Vzx
p77
sVvalue
p78
V1492348150378
p79
sasVheaders
p80
(lp81
sVheadersSize
p82
I994
sVbodySize
p83
I0
sVmethod
p84
VGET
p85
sVhttpVersion
p86
VHTTP/1.1
p87
ssVtimings
p88
(dp89
Vcomment
p90
g4
sVreceive
p91
I0
sVsend
p92
I0
sVssl
p93
I-1
sVconnect
p94
I-1
sVdns
p95
I-1
sVwait
p96
I0
sVblocked
p97
I-1
ssVtime
p98
I0
sVresponse
p99
(dp100
Vstatus
p101
I0
sVcomment
p102
g4
sVcookies
p103
(lp104
sV_error
p105
VNo response received
p106
sVstatusText
p107
g4
sVcontent
p108
(dp109
VmimeType
p110
g4
sVcomment
p111
g4
sVsize
p112
I0
ssVheaders
p113
(lp114
sVheadersSize
p115
I-1
sVredirectURL
p116
g4
sVbodySize
p117
I-1
sVhttpVersion
p118
Vunknown
p119
ssa(dp120
Vcomment
p121
g4
sVserverIPAddress
p122
V216.58.216.196
p123
sVpageref
p124
VAlan Thicke
p125
sVstartedDateTime
p126
V2017-04-16T08:09:10.384-05:00
p127
sVcache
p128
(dp129
sVrequest
p130
(dp131
Vcomment
p132
g4
sVcookies
p133
(lp134
sVurl
p135
Vhttp://www.google.com/
p136
sVqueryString
p137
(lp138
sVheaders
p139
(lp140
sVheadersSize
p141
I613
sVbodySize
p142
I0
sVmethod
p143
VGET
p144
sVhttpVersion
p145
VHTTP/1.1
p146
ssVtimings
p147
(dp148
Vcomment
p149
g4
sVreceive
p150
I0
sVsend
p151
I0
sVssl
p152
I-1
sVconnect
p153
I-1
sVdns
p154
I-1
sVwait
p155
I175
sVblocked
p156
I-1
ssVtime
p157
I175
sVresponse
p158
(dp159
Vstatus
p160
I302
sVcomment
p161
g4
sVcookies
p162
(lp163
sVstatusText
p164
VFound
p165
sVcontent
p166
(dp167
VmimeType
p168
Vtext/html; charset=UTF-8
p169
sVcomment
p170
g4
sVsize
p171
I0
ssVheaders
p172
(lp173
sVheadersSize
p174
I609
sVredirectURL
p175
Vhttps://www.google.com/?gws_rd=ssl
p176
sVbodySize
p177
I231
sVhttpVersion
p178
VHTTP/1.1
p179
ssa(dp180
Vcomment
p181
g4
sVserverIPAddress
p182
V216.58.216.196
p183
sVpageref
p184
VAlan Thicke
p185
sVstartedDateTime
p186
V2017-04-16T08:09:10.565-05:00
p187
sVcache
p188
(dp189
sVrequest
p190
(dp191
Vcomment
p192
g4
sVcookies
p193
(lp194
sVurl
p195
Vhttps://www.google.com/?gws_rd=ssl
p196
sVqueryString
p197
(lp198
(dp199
Vname
p200
Vgws_rd
p201
sVvalue
p202
Vssl
p203
sasVheaders
p204
(lp205
sVheadersSize
p206
I607
sVbodySize
p207
I0
sVmethod
p208
VGET
p209
sVhttpVersion
p210
VHTTP/1.1
p211
ssVtimings
p212
(dp213
Vcomment
p214
g4
sVreceive
p215
I20
sVsend
p216
I0
sVssl
p217
I-1
sVconnect
p218
I-1
sVdns
p219
I-1
sVwait
p220
I77
sVblocked
p221
I-1
ssVtime
p222
I98
sVresponse
p223
(dp224
Vstatus
p225
I200
sVcomment
p226
g4
sVcookies
p227
(lp228
sVstatusText
p229
VOK
p230
sVcontent
p231
(dp232
VmimeType
p233
Vtext/html; charset=UTF-8
p234
sVcomment
p235
g4
sVsize
p236
I0
ssVheaders
p237
(lp238
sVheadersSize
p239
I721
sVredirectURL
p240
g4
sVbodySize
p241
I34294
sVhttpVersion
p242
VHTTP/1.1
p243
ssa(dp244
Vcomment
p245
g4
sVserverIPAddress
p246
V216.58.216.196
p247
sVpageref
p248
VAlan Thicke
p249
sVstartedDateTime
p250
V2017-04-16T08:09:10.867-05:00
p251
sVcache
p252
(dp253
sVrequest
p254
(dp255
Vcomment
p256
g4
sVcookies
p257
(lp258
sVurl
p259
Vhttps://www.google.com/gen_204?s=mobilewebhp&atyp=csi&ei=9WzzWOO3I6LQjwSM6KOgAw&imc=1&imn=1&imp=0&adh=&xjs=init.25.12.sb_mob.18.jsa.2.mbsf.2.dvl.2.async.1&ima=1&rt=xjsls.12,prt.13,iml.13,dcl.40,xjses.85,xjsee.172,xjs.173,ol.201,aft.13,wsrt.285,cst.0,dnst.0,rqst.101,rspt.22,rqstt.187,unt.185,cstt.185,dit.323
p260
sVqueryString
p261
(lp262
(dp263
Vname
p264
g57
sVvalue
p265
Vmobilewebhp
p266
sa(dp267
Vname
p268
Vatyp
p269
sVvalue
p270
Vcsi
p271
sa(dp272
Vname
p273
Vei
p274
sVvalue
p275
V9WzzWOO3I6LQjwSM6KOgAw
p276
sa(dp277
Vname
p278
Vimc
p279
sVvalue
p280
g59
sa(dp281
Vname
p282
Vimn
p283
sVvalue
p284
g59
sa(dp285
Vname
p286
Vimp
p287
sVvalue
p288
V0
p289
sa(dp290
Vname
p291
Vadh
p292
sVvalue
p293
g4
sa(dp294
Vname
p295
Vxjs
p296
sVvalue
p297
Vinit.25.12.sb_mob.18.jsa.2.mbsf.2.dvl.2.async.1
p298
sa(dp299
Vname
p300
Vima
p301
sVvalue
p302
g59
sa(dp303
Vname
p304
Vrt
p305
sVvalue
p306
Vxjsls.12,prt.13,iml.13,dcl.40,xjses.85,xjsee.172,xjs.173,ol.201,aft.13,wsrt.285,cst.0,dnst.0,rqst.101,rspt.22,rqstt.187,unt.185,cstt.185,dit.323
p307
sasVheaders
p308
(lp309
sVheadersSize
p310
I836
sVbodySize
p311
I0
sVmethod
p312
VGET
p313
sVhttpVersion
p314
VHTTP/1.1
p315
ssVtimings
p316
(dp317
Vcomment
p318
g4
sVreceive
p319
I0
sVsend
p320
I0
sVssl
p321
I-1
sVconnect
p322
I-1
sVdns
p323
I-1
sVwait
p324
I25
sVblocked
p325
I-1
ssVtime
p326
I25
sVresponse
p327
(dp328
Vstatus
p329
I204
sVcomment
p330
g4
sVcookies
p331
(lp332
sVstatusText
p333
VNo Content
p334
sVcontent
p335
(dp336
VmimeType
p337
Vtext/html; charset=UTF-8
p338
sVcomment
p339
g4
sVsize
p340
I0
ssVheaders
p341
(lp342
sVheadersSize
p343
I248
sVredirectURL
p344
g4
sVbodySize
p345
I0
sVhttpVersion
p346
VHTTP/1.1
p347
ssa(dp348
Vcomment
p349
g4
sVserverIPAddress
p350
V216.58.216.196
p351
sVpageref
p352
VAlan Thicke
p353
sVstartedDateTime
p354
V2017-04-16T08:09:11.000-05:00
p355
sVcache
p356
(dp357
sVrequest
p358
(dp359
Vcomment
p360
g4
sVcookies
p361
(lp362
sVurl
p363
Vhttps://www.google.com/complete/search?client=mobile-gws-hp&hl=en&gs_rn=64&gs_ri=mobile-gws-hp&sla=1&pfq=alan%20rickman&gm=602&cp=0&gs_id=1&xhr=t&q=A&tch=1&ech=1&psi=9WzzWOO3I6LQjwSM6KOgAw.1492348150810.1
p364
sVqueryString
p365
(lp366
(dp367
Vname
p368
Vclient
p369
sVvalue
p370
Vmobile-gws-hp
p371
sa(dp372
Vname
p373
Vhl
p374
sVvalue
p375
Ven
p376
sa(dp377
Vname
p378
Vgs_rn
p379
sVvalue
p380
V64
p381
sa(dp382
Vname
p383
Vgs_ri
p384
sVvalue
p385
Vmobile-gws-hp
p386
sa(dp387
Vname
p388
Vsla
p389
sVvalue
p390
g59
sa(dp391
Vname
p392
Vpfq
p393
sVvalue
p394
Valan rickman
p395
sa(dp396
Vname
p397
Vgm
p398
sVvalue
p399
V602
p400
sa(dp401
Vname
p402
Vcp
p403
sVvalue
p404
g289
sa(dp405
Vname
p406
Vgs_id
p407
sVvalue
p408
g59
sa(dp409
Vname
p410
Vxhr
p411
sVvalue
p412
g52
sa(dp413
Vname
p414
Vq
p415
sVvalue
p416
VA
p417
sa(dp418
Vname
p419
Vtch
p420
sVvalue
p421
g59
sa(dp422
Vname
p423
Vech
p424
sVvalue
p425
g59
sa(dp426
Vname
p427
Vpsi
p428
sVvalue
p429
V9WzzWOO3I6LQjwSM6KOgAw.1492348150810.1
p430
sasVheaders
p431
(lp432
sVheadersSize
p433
I732
sVbodySize
p434
I0
sVmethod
p435
VGET
p436
sVhttpVersion
p437
VHTTP/1.1
p438
ssVtimings
p439
(dp440
Vcomment
p441
g4
sVreceive
p442
I0
sVsend
p443
I0
sVssl
p444
I-1
sVconnect
p445
I-1
sVdns
p446
I-1
sVwait
p447
I0
sVblocked
p448
I-1
ssVtime
p449
I0
sVresponse
p450
(dp451
Vstatus
p452
I0
sVcomment
p453
g4
sVcookies
p454
(lp455
sV_error
p456
VNo response received
p457
sVstatusText
p458
g4
sVcontent
p459
(dp460
VmimeType
p461
g4
sVcomment
p462
g4
sVsize
p463
I0
ssVheaders
p464
(lp465
sVheadersSize
p466
I-1
sVredirectURL
p467
g4
sVbodySize
p468
I-1
sVhttpVersion
p469
Vunknown
p470
ssa(dp471
Vcomment
p472
g4
sVserverIPAddress
p473
V216.58.216.196
p474
sVpageref
p475
VAlan Thicke
p476
sVstartedDateTime
p477
V2017-04-16T08:09:11.062-05:00
p478
sVcache
p479
(dp480
sVrequest
p481
(dp482
Vcomment
p483
g4
sVcookies
p484
(lp485
sVurl
p486
Vhttps://www.google.com/search?site=&source=hp&ei=9WzzWOO3I6LQjwSM6KOgAw&q=Alan+Thicke&oq=Alan+Thicke&gs_l=mobile-gws-hp.3...170.198.0.223.11.1.0.0.0.0.0.0..0.0....0...1c.1.64.mobile-gws-hp..11.0.0.PqVSyUP2HO8
p487
sVqueryString
p488
(lp489
(dp490
Vname
p491
Vsite
p492
sVvalue
p493
g4
sa(dp494
Vname
p495
Vsource
p496
sVvalue
p497
Vhp
p498
sa(dp499
Vname
p500
Vei
p501
sVvalue
p502
V9WzzWOO3I6LQjwSM6KOgAw
p503
sa(dp504
Vname
p505
g415
sVvalue
p506
VAlan Thicke
p507
sa(dp508
Vname
p509
Voq
p510
sVvalue
p511
VAlan Thicke
p512
sa(dp513
Vname
p514
Vgs_l
p515
sVvalue
p516
Vmobile-gws-hp.3...170.198.0.223.11.1.0.0.0.0.0.0..0.0....0...1c.1.64.mobile-gws-hp..11.0.0.PqVSyUP2HO8
p517
sasVheaders
p518
(lp519
sVheadersSize
p520
I826
sVbodySize
p521
I0
sVmethod
p522
VGET
p523
sVhttpVersion
p524
VHTTP/1.1
p525
ssVtimings
p526
(dp527
Vcomment
p528
g4
sVreceive
p529
I669
sVsend
p530
I0
sVssl
p531
I-1
sVconnect
p532
I-1
sVdns
p533
I-1
sVwait
p534
I77
sVblocked
p535
I-1
ssVtime
p536
I747
sVresponse
p537
(dp538
Vstatus
p539
I200
sVcomment
p540
g4
sVcookies
p541
(lp542
sVstatusText
p543
VOK
p544
sVcontent
p545
(dp546
VmimeType
p547
Vtext/html; charset=UTF-8
p548
sVcomment
p549
g4
sVsize
p550
I0
ssVheaders
p551
(lp552
sVheadersSize
p553
I363
sVredirectURL
p554
g4
sVbodySize
p555
I123615
sVhttpVersion
p556
VHTTP/1.1
p557
ssa(dp558
Vcomment
p559
g4
sVserverIPAddress
p560
V216.58.216.196
p561
sVpageref
p562
VAlan Thicke
p563
sVstartedDateTime
p564
V2017-04-16T08:09:12.483-05:00
p565
sVcache
p566
(dp567
sVrequest
p568
(dp569
Vcomment
p570
g4
sVcookies
p571
(lp572
sVurl
p573
Vhttps://www.google.com/gen_204?atyp=i&ct=&cad=&uact=1&vet=10ahUKEwixjfeKhqnTAhUJ8IMKHVGfDOYQ9V8IKigA..s&ei=9mzzWLG6BIngjwTRvrKwDg&zx=1492348152481
p574
sVqueryString
p575
(lp576
(dp577
Vname
p578
Vatyp
p579
sVvalue
p580
g30
sa(dp581
Vname
p582
Vct
p583
sVvalue
p584
g4
sa(dp585
Vname
p586
Vcad
p587
sVvalue
p588
g4
sa(dp589
Vname
p590
Vuact
p591
sVvalue
p592
g59
sa(dp593
Vname
p594
Vvet
p595
sVvalue
p596
V10ahUKEwixjfeKhqnTAhUJ8IMKHVGfDOYQ9V8IKigA..s
p597
sa(dp598
Vname
p599
Vei
p600
sVvalue
p601
V9mzzWLG6BIngjwTRvrKwDg
p602
sa(dp603
Vname
p604
Vzx
p605
sVvalue
p606
V1492348152481
p607
sasVheaders
p608
(lp609
sVheadersSize
p610
I663
sVbodySize
p611
I0
sVmethod
p612
VGET
p613
sVhttpVersion
p614
VHTTP/1.1
p615
ssVtimings
p616
(dp617
Vcomment
p618
g4
sVreceive
p619
I0
sVsend
p620
I0
sVssl
p621
I-1
sVconnect
p622
I-1
sVdns
p623
I-1
sVwait
p624
I27
sVblocked
p625
I-1
ssVtime
p626
I27
sVresponse
p627
(dp628
Vstatus
p629
I204
sVcomment
p630
g4
sVcookies
p631
(lp632
sVstatusText
p633
VNo Content
p634
sVcontent
p635
(dp636
VmimeType
p637
Vtext/html; charset=UTF-8
p638
sVcomment
p639
g4
sVsize
p640
I0
ssVheaders
p641
(lp642
sVheadersSize
p643
I248
sVredirectURL
p644
g4
sVbodySize
p645
I0
sVhttpVersion
p646
VHTTP/1.1
p647
ssa(dp648
Vcomment
p649
g4
sVserverIPAddress
p650
V216.58.216.196
p651
sVpageref
p652
VAlan Thicke
p653
sVstartedDateTime
p654
V2017-04-16T08:09:12.485-05:00
p655
sVcache
p656
(dp657
sVrequest
p658
(dp659
Vcomment
p660
g4
sVcookies
p661
(lp662
sVurl
p663
Vhttps://www.google.com/gen_204?atyp=i&ct=&cad=&uact=1&vet=10ahUKEwixjfeKhqnTAhUJ8IMKHVGfDOYQ9V8IKygB..s&ei=9mzzWLG6BIngjwTRvrKwDg&zx=1492348152484
p664
sVqueryString
p665
(lp666
(dp667
Vname
p668
Vatyp
p669
sVvalue
p670
g30
sa(dp671
Vname
p672
Vct
p673
sVvalue
p674
g4
sa(dp675
Vname
p676
Vcad
p677
sVvalue
p678
g4
sa(dp679
Vname
p680
Vuact
p681
sVvalue
p682
g59
sa(dp683
Vname
p684
Vvet
p685
sVvalue
p686
V10ahUKEwixjfeKhqnTAhUJ8IMKHVGfDOYQ9V8IKygB..s
p687
sa(dp688
Vname
p689
Vei
p690
sVvalue
p691
V9mzzWLG6BIngjwTRvrKwDg
p692
sa(dp693
Vname
p694
Vzx
p695
sVvalue
p696
V1492348152484
p697
sasVheaders
p698
(lp699
sVheadersSize
p700
I663
sVbodySize
p701
I0
sVmethod
p702
VGET
p703
sVhttpVersion
p704
VHTTP/1.1
p705
ssVtimings
p706
(dp707
Vcomment
p708
g4
sVreceive
p709
I0
sVsend
p710
I0
sVssl
p711
I-1
sVconnect
p712
I-1
sVdns
p713
I-1
sVwait
p714
I34
sVblocked
p715
I-1
ssVtime
p716
I34
sVresponse
p717
(dp718
Vstatus
p719
I204
sVcomment
p720
g4
sVcookies
p721
(lp722
sVstatusText
p723
VNo Content
p724
sVcontent
p725
(dp726
VmimeType
p727
Vtext/html; charset=UTF-8
p728
sVcomment
p729
g4
sVsize
p730
I0
ssVheaders
p731
(lp732
sVheadersSize
p733
I248
sVredirectURL
p734
g4
sVbodySize
p735
I0
sVhttpVersion
p736
VHTTP/1.1
p737
ssa(dp738
Vcomment
p739
g4
sVserverIPAddress
p740
V216.58.216.196
p741
sVpageref
p742
VAlan Thicke
p743
sVstartedDateTime
p744
V2017-04-16T08:09:12.487-05:00
p745
sVcache
p746
(dp747
sVrequest
p748
(dp749
Vcomment
p750
g4
sVcookies
p751
(lp752
sVurl
p753
Vhttps://www.google.com/gen_204?atyp=i&ct=&cad=&uact=1&vet=10ahUKEwixjfeKhqnTAhUJ8IMKHVGfDOYQ9V8ILCgC..s&ei=9mzzWLG6BIngjwTRvrKwDg&zx=1492348152486
p754
sVqueryString
p755
(lp756
(dp757
Vname
p758
Vatyp
p759
sVvalue
p760
g30
sa(dp761
Vname
p762
Vct
p763
sVvalue
p764
g4
sa(dp765
Vname
p766
Vcad
p767
sVvalue
p768
g4
sa(dp769
Vname
p770
Vuact
p771
sVvalue
p772
g59
sa(dp773
Vname
p774
Vvet
p775
sVvalue
p776
V10ahUKEwixjfeKhqnTAhUJ8IMKHVGfDOYQ9V8ILCgC..s
p777
sa(dp778
Vname
p779
Vei
p780
sVvalue
p781
V9mzzWLG6BIngjwTRvrKwDg
p782
sa(dp783
Vname
p784
Vzx
p785
sVvalue
p786
V1492348152486
p787
sasVheaders
p788
(lp789
sVheadersSize
p790
I663
sVbodySize
p791
I0
sVmethod
p792
VGET
p793
sVhttpVersion
p794
VHTTP/1.1
p795
ssVtimings
p796
(dp797
Vcomment
p798
g4
sVreceive
p799
I0
sVsend
p800
I0
sVssl
p801
I-1
sVconnect
p802
I-1
sVdns
p803
I-1
sVwait
p804
I37
sVblocked
p805
I-1
ssVtime
p806
I37
sVresponse
p807
(dp808
Vstatus
p809
I204
sVcomment
p810
g4
sVcookies
p811
(lp812
sVstatusText
p813
VNo Content
p814
sVcontent
p815
(dp816
VmimeType
p817
Vtext/html; charset=UTF-8
p818
sVcomment
p819
g4
sVsize
p820
I0
ssVheaders
p821
(lp822
sVheadersSize
p823
I248
sVredirectURL
p824
g4
sVbodySize
p825
I0
sVhttpVersion
p826
VHTTP/1.1
p827
ssa(dp828
Vcomment
p829
g4
sVserverIPAddress
p830
V216.58.216.196
p831
sVpageref
p832
VAlan Thicke
p833
sVstartedDateTime
p834
V2017-04-16T08:09:12.501-05:00
p835
sVcache
p836
(dp837
sVrequest
p838
(dp839
Vcomment
p840
g4
sVcookies
p841
(lp842
sVurl
p843
Vhttps://www.google.com/async/irc?vet=10ahUKEwixjfeKhqnTAhUJ8IMKHVGfDOYQo0EIkQI..i&ved=0ahUKEwixjfeKhqnTAhUJ8IMKHVGfDOYQo0EIkQI&ei=9mzzWLG6BIngjwTRvrKwDg&yv=2&async=iu:1,ved:0ahUKEwixjfeKhqnTAhUJ8IMKHVGfDOYQo0EIkQI,_id:irc_async,_pms:qs
p844
sVqueryString
p845
(lp846
(dp847
Vname
p848
Vvet
p849
sVvalue
p850
V10ahUKEwixjfeKhqnTAhUJ8IMKHVGfDOYQo0EIkQI..i
p851
sa(dp852
Vname
p853
Vved
p854
sVvalue
p855
V0ahUKEwixjfeKhqnTAhUJ8IMKHVGfDOYQo0EIkQI
p856
sa(dp857
Vname
p858
Vei
p859
sVvalue
p860
V9mzzWLG6BIngjwTRvrKwDg
p861
sa(dp862
Vname
p863
Vyv
p864
sVvalue
p865
g64
sa(dp866
Vname
p867
Vasync
p868
sVvalue
p869
Viu:1,ved:0ahUKEwixjfeKhqnTAhUJ8IMKHVGfDOYQo0EIkQI,_id:irc_async,_pms:qs
p870
sasVheaders
p871
(lp872
sVheadersSize
p873
I752
sVbodySize
p874
I0
sVmethod
p875
VGET
p876
sVhttpVersion
p877
VHTTP/1.1
p878
ssVtimings
p879
(dp880
Vcomment
p881
g4
sVreceive
p882
I3
sVsend
p883
I0
sVssl
p884
I-1
sVconnect
p885
I-1
sVdns
p886
I-1
sVwait
p887
I142
sVblocked
p888
I-1
ssVtime
p889
I146
sVresponse
p890
(dp891
Vstatus
p892
I200
sVcomment
p893
g4
sVcookies
p894
(lp895
sVstatusText
p896
VOK
p897
sVcontent
p898
(dp899
VmimeType
p900
Vtext/html; charset=UTF-8
p901
sVcomment
p902
g4
sVsize
p903
I0
ssVheaders
p904
(lp905
sVheadersSize
p906
I383
sVredirectURL
p907
g4
sVbodySize
p908
I7790
sVhttpVersion
p909
VHTTP/1.1
p910
ssa(dp911
Vcomment
p912
g4
sVserverIPAddress
p913
V216.58.216.196
p914
sVpageref
p915
VAlan Thicke
p916
sVstartedDateTime
p917
V2017-04-16T08:09:12.513-05:00
p918
sVcache
p919
(dp920
sVrequest
p921
(dp922
Vcomment
p923
g4
sVcookies
p924
(lp925
sVurl
p926
Vhttps://www.google.com/gen_204?atyp=i&ct=&cad=&vet=10ahUKEwixjfeKhqnTAhUJ8IMKHVGfDOYQ5W0IPCgD..s&ei=9mzzWLG6BIngjwTRvrKwDg&zx=1492348152511
p927
sVqueryString
p928
(lp929
(dp930
Vname
p931
Vatyp
p932
sVvalue
p933
g30
sa(dp934
Vname
p935
Vct
p936
sVvalue
p937
g4
sa(dp938
Vname
p939
Vcad
p940
sVvalue
p941
g4
sa(dp942
Vname
p943
Vvet
p944
sVvalue
p945
V10ahUKEwixjfeKhqnTAhUJ8IMKHVGfDOYQ5W0IPCgD..s
p946
sa(dp947
Vname
p948
Vei
p949
sVvalue
p950
V9mzzWLG6BIngjwTRvrKwDg
p951
sa(dp952
Vname
p953
Vzx
p954
sVvalue
p955
V1492348152511
p956
sasVheaders
p957
(lp958
sVheadersSize
p959
I656
sVbodySize
p960
I0
sVmethod
p961
VGET
p962
sVhttpVersion
p963
VHTTP/1.1
p964
ssVtimings
p965
(dp966
Vcomment
p967
g4
sVreceive
p968
I0
sVsend
p969
I0
sVssl
p970
I-1
sVconnect
p971
I-1
sVdns
p972
I-1
sVwait
p973
I26
sVblocked
p974
I-1
ssVtime
p975
I26
sVresponse
p976
(dp977
Vstatus
p978
I204
sVcomment
p979
g4
sVcookies
p980
(lp981
sVstatusText
p982
VNo Content
p983
sVcontent
p984
(dp985
VmimeType
p986
Vtext/html; charset=UTF-8
p987
sVcomment
p988
g4
sVsize
p989
I0
ssVheaders
p990
(lp991
sVheadersSize
p992
I248
sVredirectURL
p993
g4
sVbodySize
p994
I0
sVhttpVersion
p995
VHTTP/1.1
p996
ssa(dp997
Vcomment
p998
g4
sVserverIPAddress
p999
V216.58.216.196
p1000
sVpageref
p1001
VAlan Thicke
p1002
sVstartedDateTime
p1003
V2017-04-16T08:09:12.520-05:00
p1004
sVcache
p1005
(dp1006
sVrequest
p1007
(dp1008
Vcomment
p1009
g4
sVcookies
p1010
(lp1011
sVurl
p1012
Vhttps://www.google.com/gen_204?atyp=i&ct=&cad=&vet=10ahUKEwixjfeKhqnTAhUJ8IMKHVGfDOYQ5W0IQigF..s&ei=9mzzWLG6BIngjwTRvrKwDg&zx=1492348152515
p1013
sVqueryString
p1014
(lp1015
(dp1016
Vname
p1017
Vatyp
p1018
sVvalue
p1019
g30
sa(dp1020
Vname
p1021
Vct
p1022
sVvalue
p1023
g4
sa(dp1024
Vname
p1025
Vcad
p1026
sVvalue
p1027
g4
sa(dp1028
Vname
p1029
Vvet
p1030
sVvalue
p1031
V10ahUKEwixjfeKhqnTAhUJ8IMKHVGfDOYQ5W0IQigF..s
p1032
sa(dp1033
Vname
p1034
Vei
p1035
sVvalue
p1036
V9mzzWLG6BIngjwTRvrKwDg
p1037
sa(dp1038
Vname
p1039
Vzx
p1040
sVvalue
p1041
V1492348152515
p1042
sasVheaders
p1043
(lp1044
sVheadersSize
p1045
I656
sVbodySize
p1046
I0
sVmethod
p1047
VGET
p1048
sVhttpVersion
p1049
VHTTP/1.1
p1050
ssVtimings
p1051
(dp1052
Vcomment
p1053
g4
sVreceive
p1054
I0
sVsend
p1055
I0
sVssl
p1056
I-1
sVconnect
p1057
I-1
sVdns
p1058
I-1
sVwait
p1059
I39
sVblocked
p1060
I-1
ssVtime
p1061
I39
sVresponse
p1062
(dp1063
Vstatus
p1064
I204
sVcomment
p1065
g4
sVcookies
p1066
(lp1067
sVstatusText
p1068
VNo Content
p1069
sVcontent
p1070
(dp1071
VmimeType
p1072
Vtext/html; charset=UTF-8
p1073
sVcomment
p1074
g4
sVsize
p1075
I0
ssVheaders
p1076
(lp1077
sVheadersSize
p1078
I248
sVredirectURL
p1079
g4
sVbodySize
p1080
I0
sVhttpVersion
p1081
VHTTP/1.1
p1082
ssa(dp1083
Vcomment
p1084
g4
sVserverIPAddress
p1085
V216.58.216.196
p1086
sVpageref
p1087
VAlan Thicke
p1088
sVstartedDateTime
p1089
V2017-04-16T08:09:12.525-05:00
p1090
sVcache
p1091
(dp1092
sVrequest
p1093
(dp1094
Vcomment
p1095
g4
sVcookies
p1096
(lp1097
sVurl
p1098
Vhttps://www.google.com/gen_204?atyp=i&ct=&cad=&vet=10ahUKEwixjfeKhqnTAhUJ8IMKHVGfDOYQ5W0IRSgG..s&ei=9mzzWLG6BIngjwTRvrKwDg&zx=1492348152517
p1099
sVqueryString
p1100
(lp1101
(dp1102
Vname
p1103
Vatyp
p1104
sVvalue
p1105
g30
sa(dp1106
Vname
p1107
Vct
p1108
sVvalue
p1109
g4
sa(dp1110
Vname
p1111
Vcad
p1112
sVvalue
p1113
g4
sa(dp1114
Vname
p1115
Vvet
p1116
sVvalue
p1117
V10ahUKEwixjfeKhqnTAhUJ8IMKHVGfDOYQ5W0IRSgG..s
p1118
sa(dp1119
Vname
p1120
Vei
p1121
sVvalue
p1122
V9mzzWLG6BIngjwTRvrKwDg
p1123
sa(dp1124
Vname
p1125
Vzx
p1126
sVvalue
p1127
V1492348152517
p1128
sasVheaders
p1129
(lp1130
sVheadersSize
p1131
I656
sVbodySize
p1132
I0
sVmethod
p1133
VGET
p1134
sVhttpVersion
p1135
VHTTP/1.1
p1136
ssVtimings
p1137
(dp1138
Vcomment
p1139
g4
sVreceive
p1140
I0
sVsend
p1141
I0
sVssl
p1142
I-1
sVconnect
p1143
I-1
sVdns
p1144
I-1
sVwait
p1145
I38
sVblocked
p1146
I-1
ssVtime
p1147
I39
sVresponse
p1148
(dp1149
Vstatus
p1150
I204
sVcomment
p1151
g4
sVcookies
p1152
(lp1153
sVstatusText
p1154
VNo Content
p1155
sVcontent
p1156
(dp1157
VmimeType
p1158
Vtext/html; charset=UTF-8
p1159
sVcomment
p1160
g4
sVsize
p1161
I0
ssVheaders
p1162
(lp1163
sVheadersSize
p1164
I248
sVredirectURL
p1165
g4
sVbodySize
p1166
I0
sVhttpVersion
p1167
VHTTP/1.1
p1168
ssa(dp1169
Vcomment
p1170
g4
sVserverIPAddress
p1171
V216.58.216.196
p1172
sVpageref
p1173
VAlan Thicke
p1174
sVstartedDateTime
p1175
V2017-04-16T08:09:12.540-05:00
p1176
sVcache
p1177
(dp1178
sVrequest
p1179
(dp1180
Vcomment
p1181
g4
sVcookies
p1182
(lp1183
sVurl
p1184
Vhttps://www.google.com/gen_204?atyp=i&ct=&cad=&vet=10ahUKEwixjfeKhqnTAhUJ8IMKHVGfDOYQ5W0ISCgH..s&ei=9mzzWLG6BIngjwTRvrKwDg&zx=1492348152520
p1185
sVqueryString
p1186
(lp1187
(dp1188
Vname
p1189
Vatyp
p1190
sVvalue
p1191
g30
sa(dp1192
Vname
p1193
Vct
p1194
sVvalue
p1195
g4
sa(dp1196
Vname
p1197
Vcad
p1198
sVvalue
p1199
g4
sa(dp1200
Vname
p1201
Vvet
p1202
sVvalue
p1203
V10ahUKEwixjfeKhqnTAhUJ8IMKHVGfDOYQ5W0ISCgH..s
p1204
sa(dp1205
Vname
p1206
Vei
p1207
sVvalue
p1208
V9mzzWLG6BIngjwTRvrKwDg
p1209
sa(dp1210
Vname
p1211
Vzx
p1212
sVvalue
p1213
V1492348152520
p1214
sasVheaders
p1215
(lp1216
sVheadersSize
p1217
I656
sVbodySize
p1218
I0
sVmethod
p1219
VGET
p1220
sVhttpVersion
p1221
VHTTP/1.1
p1222
ssVtimings
p1223
(dp1224
Vcomment
p1225
g4
sVreceive
p1226
I0
sVsend
p1227
I0
sVssl
p1228
I-1
sVconnect
p1229
I-1
sVdns
p1230
I-1
sVwait
p1231
I25
sVblocked
p1232
I-1
ssVtime
p1233
I26
sVresponse
p1234
(dp1235
Vstatus
p1236
I204
sVcomment
p1237
g4
sVcookies
p1238
(lp1239
sVstatusText
p1240
VNo Content
p1241
sVcontent
p1242
(dp1243
VmimeType
p1244
Vtext/html; charset=UTF-8
p1245
sVcomment
p1246
g4
sVsize
p1247
I0
ssVheaders
p1248
(lp1249
sVheadersSize
p1250
I248
sVredirectURL
p1251
g4
sVbodySize
p1252
I0
sVhttpVersion
p1253
VHTTP/1.1
p1254
ssa(dp1255
Vcomment
p1256
g4
sVserverIPAddress
p1257
V216.58.216.206
p1258
sVpageref
p1259
VAlan Thicke
p1260
sVstartedDateTime
p1261
V2017-04-16T08:09:12.544-05:00
p1262
sVcache
p1263
(dp1264
sVrequest
p1265
(dp1266
Vcomment
p1267
g4
sVcookies
p1268
(lp1269
sVurl
p1270
Vhttps://encrypted-tbn1.gstatic.com/images?q=tbn:ANd9GcQlKKmJsDR2vg__MhHhgw4ZbzKZOf3CyEBf6tyr8DflFC0-_8osVtBfqpvwlZj4XqNFv2cy
p1271
sVqueryString
p1272
(lp1273
(dp1274
Vname
p1275
g415
sVvalue
p1276
Vtbn:ANd9GcQlKKmJsDR2vg__MhHhgw4ZbzKZOf3CyEBf6tyr8DflFC0-_8osVtBfqpvwlZj4XqNFv2cy
p1277
sasVheaders
p1278
(lp1279
sVheadersSize
p1280
I439
sVbodySize
p1281
I0
sVmethod
p1282
VGET
p1283
sVhttpVersion
p1284
VHTTP/1.1
p1285
ssVtimings
p1286
(dp1287
Vcomment
p1288
g4
sVreceive
p1289
I1
sVsend
p1290
I0
sVssl
p1291
I-1
sVconnect
p1292
I-1
sVdns
p1293
I-1
sVwait
p1294
I17
sVblocked
p1295
I-1
ssVtime
p1296
I19
sVresponse
p1297
(dp1298
Vstatus
p1299
I200
sVcomment
p1300
g4
sVcookies
p1301
(lp1302
sVstatusText
p1303
VOK
p1304
sVcontent
p1305
(dp1306
VmimeType
p1307
Vimage/jpeg
p1308
sVcomment
p1309
g4
sVsize
p1310
I0
ssVheaders
p1311
(lp1312
sVheadersSize
p1313
I429
sVredirectURL
p1314
g4
sVbodySize
p1315
I5003
sVhttpVersion
p1316
VHTTP/1.1
p1317
ssa(dp1318
Vcomment
p1319
g4
sVserverIPAddress
p1320
V216.58.216.206
p1321
sVpageref
p1322
VAlan Thicke
p1323
sVstartedDateTime
p1324
V2017-04-16T08:09:12.548-05:00
p1325
sVcache
p1326
(dp1327
sVrequest
p1328
(dp1329
Vcomment
p1330
g4
sVcookies
p1331
(lp1332
sVurl
p1333
Vhttps://encrypted-tbn0.gstatic.com/images?q=tbn:ANd9GcQ6_k9s0BOlVX70y4O8aeHvGrAGNc6-xi1RwfnJbL2kul3uqzjtrA5kCE3oJQyJtM4XEcfE
p1334
sVqueryString
p1335
(lp1336
(dp1337
Vname
p1338
g415
sVvalue
p1339
Vtbn:ANd9GcQ6_k9s0BOlVX70y4O8aeHvGrAGNc6-xi1RwfnJbL2kul3uqzjtrA5kCE3oJQyJtM4XEcfE
p1340
sasVheaders
p1341
(lp1342
sVheadersSize
p1343
I439
sVbodySize
p1344
I0
sVmethod
p1345
VGET
p1346
sVhttpVersion
p1347
VHTTP/1.1
p1348
ssVtimings
p1349
(dp1350
Vcomment
p1351
g4
sVreceive
p1352
I1
sVsend
p1353
I0
sVssl
p1354
I-1
sVconnect
p1355
I-1
sVdns
p1356
I-1
sVwait
p1357
I25
sVblocked
p1358
I-1
ssVtime
p1359
I27
sVresponse
p1360
(dp1361
Vstatus
p1362
I200
sVcomment
p1363
g4
sVcookies
p1364
(lp1365
sVstatusText
p1366
VOK
p1367
sVcontent
p1368
(dp1369
VmimeType
p1370
Vimage/jpeg
p1371
sVcomment
p1372
g4
sVsize
p1373
I0
ssVheaders
p1374
(lp1375
sVheadersSize
p1376
I429
sVredirectURL
p1377
g4
sVbodySize
p1378
I6702
sVhttpVersion
p1379
VHTTP/1.1
p1380
ssa(dp1381
Vcomment
p1382
g4
sVserverIPAddress
p1383
V216.58.216.196
p1384
sVpageref
p1385
VAlan Thicke
p1386
sVstartedDateTime
p1387
V2017-04-16T08:09:12.563-05:00
p1388
sVcache
p1389
(dp1390
sVrequest
p1391
(dp1392
Vcomment
p1393
g4
sVcookies
p1394
(lp1395
sVurl
p1396
Vhttps://www.google.com/gen_204?atyp=i&ct=&cad=&vet=10ahUKEwixjfeKhqnTAhUJ8IMKHVGfDOYQ5W0ISygI..s&ei=9mzzWLG6BIngjwTRvrKwDg&zx=1492348152522
p1397
sVqueryString
p1398
(lp1399
(dp1400
Vname
p1401
Vatyp
p1402
sVvalue
p1403
g30
sa(dp1404
Vname
p1405
Vct
p1406
sVvalue
p1407
g4
sa(dp1408
Vname
p1409
Vcad
p1410
sVvalue
p1411
g4
sa(dp1412
Vname
p1413
Vvet
p1414
sVvalue
p1415
V10ahUKEwixjfeKhqnTAhUJ8IMKHVGfDOYQ5W0ISygI..s
p1416
sa(dp1417
Vname
p1418
Vei
p1419
sVvalue
p1420
V9mzzWLG6BIngjwTRvrKwDg
p1421
sa(dp1422
Vname
p1423
Vzx
p1424
sVvalue
p1425
V1492348152522
p1426
sasVheaders
p1427
(lp1428
sVheadersSize
p1429
I656
sVbodySize
p1430
I0
sVmethod
p1431
VGET
p1432
sVhttpVersion
p1433
VHTTP/1.1
p1434
ssVtimings
p1435
(dp1436
Vcomment
p1437
g4
sVreceive
p1438
I0
sVsend
p1439
I0
sVssl
p1440
I-1
sVconnect
p1441
I-1
sVdns
p1442
I-1
sVwait
p1443
I36
sVblocked
p1444
I-1
ssVtime
p1445
I37
sVresponse
p1446
(dp1447
Vstatus
p1448
I204
sVcomment
p1449
g4
sVcookies
p1450
(lp1451
sVstatusText
p1452
VNo Content
p1453
sVcontent
p1454
(dp1455
VmimeType
p1456
Vtext/html; charset=UTF-8
p1457
sVcomment
p1458
g4
sVsize
p1459
I0
ssVheaders
p1460
(lp1461
sVheadersSize
p1462
I248
sVredirectURL
p1463
g4
sVbodySize
p1464
I0
sVhttpVersion
p1465
VHTTP/1.1
p1466
ssa(dp1467
Vcomment
p1468
g4
sVserverIPAddress
p1469
V216.58.216.196
p1470
sVpageref
p1471
VAlan Thicke
p1472
sVstartedDateTime
p1473
V2017-04-16T08:09:12.566-05:00
p1474
sVcache
p1475
(dp1476
sVrequest
p1477
(dp1478
Vcomment
p1479
g4
sVcookies
p1480
(lp1481
sVurl
p1482
Vhttps://www.google.com/gen_204?atyp=i&ct=&cad=&vet=10ahUKEwixjfeKhqnTAhUJ8IMKHVGfDOYQ5W0IOSgC..s&ei=9mzzWLG6BIngjwTRvrKwDg&zx=1492348152509
p1483
sVqueryString
p1484
(lp1485
(dp1486
Vname
p1487
Vatyp
p1488
sVvalue
p1489
g30
sa(dp1490
Vname
p1491
Vct
p1492
sVvalue
p1493
g4
sa(dp1494
Vname
p1495
Vcad
p1496
sVvalue
p1497
g4
sa(dp1498
Vname
p1499
Vvet
p1500
sVvalue
p1501
V10ahUKEwixjfeKhqnTAhUJ8IMKHVGfDOYQ5W0IOSgC..s
p1502
sa(dp1503
Vname
p1504
Vei
p1505
sVvalue
p1506
V9mzzWLG6BIngjwTRvrKwDg
p1507
sa(dp1508
Vname
p1509
Vzx
p1510
sVvalue
p1511
V1492348152509
p1512
sasVheaders
p1513
(lp1514
sVheadersSize
p1515
I656
sVbodySize
p1516
I0
sVmethod
p1517
VGET
p1518
sVhttpVersion
p1519
VHTTP/1.1
p1520
ssVtimings
p1521
(dp1522
Vcomment
p1523
g4
sVreceive
p1524
I0
sVsend
p1525
I0
sVssl
p1526
I38
sVconnect
p1527
I51
sVdns
p1528
I1
sVwait
p1529
I27
sVblocked
p1530
I0
ssVtime
p1531
I81
sVresponse
p1532
(dp1533
Vstatus
p1534
I204
sVcomment
p1535
g4
sVcookies
p1536
(lp1537
sVstatusText
p1538
VNo Content
p1539
sVcontent
p1540
(dp1541
VmimeType
p1542
Vtext/html; charset=UTF-8
p1543
sVcomment
p1544
g4
sVsize
p1545
I0
ssVheaders
p1546
(lp1547
sVheadersSize
p1548
I248
sVredirectURL
p1549
g4
sVbodySize
p1550
I0
sVhttpVersion
p1551
VHTTP/1.1
p1552
ssa(dp1553
Vcomment
p1554
g4
sVserverIPAddress
p1555
V216.58.216.196
p1556
sVpageref
p1557
VAlan Thicke
p1558
sVstartedDateTime
p1559
V2017-04-16T08:09:12.566-05:00
p1560
sVcache
p1561
(dp1562
sVrequest
p1563
(dp1564
Vcomment
p1565
g4
sVcookies
p1566
(lp1567
sVurl
p1568
Vhttps://www.google.com/gen_204?atyp=i&ct=&cad=&vet=10ahUKEwixjfeKhqnTAhUJ8IMKHVGfDOYQ5W0IPygE..s&ei=9mzzWLG6BIngjwTRvrKwDg&zx=1492348152514
p1569
sVqueryString
p1570
(lp1571
(dp1572
Vname
p1573
Vatyp
p1574
sVvalue
p1575
g30
sa(dp1576
Vname
p1577
Vct
p1578
sVvalue
p1579
g4
sa(dp1580
Vname
p1581
Vcad
p1582
sVvalue
p1583
g4
sa(dp1584
Vname
p1585
Vvet
p1586
sVvalue
p1587
V10ahUKEwixjfeKhqnTAhUJ8IMKHVGfDOYQ5W0IPygE..s
p1588
sa(dp1589
Vname
p1590
Vei
p1591
sVvalue
p1592
V9mzzWLG6BIngjwTRvrKwDg
p1593
sa(dp1594
Vname
p1595
Vzx
p1596
sVvalue
p1597
V1492348152514
p1598
sasVheaders
p1599
(lp1600
sVheadersSize
p1601
I656
sVbodySize
p1602
I0
sVmethod
p1603
VGET
p1604
sVhttpVersion
p1605
VHTTP/1.1
p1606
ssVtimings
p1607
(dp1608
Vcomment
p1609
g4
sVreceive
p1610
I0
sVsend
p1611
I0
sVssl
p1612
I32
sVconnect
p1613
I50
sVdns
p1614
I0
sVwait
p1615
I27
sVblocked
p1616
I0
ssVtime
p1617
I78
sVresponse
p1618
(dp1619
Vstatus
p1620
I204
sVcomment
p1621
g4
sVcookies
p1622
(lp1623
sVstatusText
p1624
VNo Content
p1625
sVcontent
p1626
(dp1627
VmimeType
p1628
Vtext/html; charset=UTF-8
p1629
sVcomment
p1630
g4
sVsize
p1631
I0
ssVheaders
p1632
(lp1633
sVheadersSize
p1634
I248
sVredirectURL
p1635
g4
sVbodySize
p1636
I0
sVhttpVersion
p1637
VHTTP/1.1
p1638
ssa(dp1639
Vcomment
p1640
g4
sVserverIPAddress
p1641
V216.58.216.196
p1642
sVpageref
p1643
VAlan Thicke
p1644
sVstartedDateTime
p1645
V2017-04-16T08:09:12.567-05:00
p1646
sVcache
p1647
(dp1648
sVrequest
p1649
(dp1650
Vcomment
p1651
g4
sVcookies
p1652
(lp1653
sVurl
p1654
Vhttps://www.google.com/gen_204?atyp=i&ct=&cad=&vet=10ahUKEwixjfeKhqnTAhUJ8IMKHVGfDOYQ5W0ITigJ..s&ei=9mzzWLG6BIngjwTRvrKwDg&zx=1492348152524
p1655
sVqueryString
p1656
(lp1657
(dp1658
Vname
p1659
Vatyp
p1660
sVvalue
p1661
g30
sa(dp1662
Vname
p1663
Vct
p1664
sVvalue
p1665
g4
sa(dp1666
Vname
p1667
Vcad
p1668
sVvalue
p1669
g4
sa(dp1670
Vname
p1671
Vvet
p1672
sVvalue
p1673
V10ahUKEwixjfeKhqnTAhUJ8IMKHVGfDOYQ5W0ITigJ..s
p1674
sa(dp1675
Vname
p1676
Vei
p1677
sVvalue
p1678
V9mzzWLG6BIngjwTRvrKwDg
p1679
sa(dp1680
Vname
p1681
Vzx
p1682
sVvalue
p1683
V1492348152524
p1684
sasVheaders
p1685
(lp1686
sVheadersSize
p1687
I656
sVbodySize
p1688
I0
sVmethod
p1689
VGET
p1690
sVhttpVersion
p1691
VHTTP/1.1
p1692
ssVtimings
p1693
(dp1694
Vcomment
p1695
g4
sVreceive
p1696
I0
sVsend
p1697
I0
sVssl
p1698
I-1
sVconnect
p1699
I-1
sVdns
p1700
I-1
sVwait
p1701
I36
sVblocked
p1702
I-1
ssVtime
p1703
I36
sVresponse
p1704
(dp1705
Vstatus
p1706
I204
sVcomment
p1707
g4
sVcookies
p1708
(lp1709
sVstatusText
p1710
VNo Content
p1711
sVcontent
p1712
(dp1713
VmimeType
p1714
Vtext/html; charset=UTF-8
p1715
sVcomment
p1716
g4
sVsize
p1717
I0
ssVheaders
p1718
(lp1719
sVheadersSize
p1720
I248
sVredirectURL
p1721
g4
sVbodySize
p1722
I0
sVhttpVersion
p1723
VHTTP/1.1
p1724
ssa(dp1725
Vcomment
p1726
g4
sVserverIPAddress
p1727
V216.58.216.196
p1728
sVpageref
p1729
VAlan Thicke
p1730
sVstartedDateTime
p1731
V2017-04-16T08:09:12.567-05:00
p1732
sVcache
p1733
(dp1734
sVrequest
p1735
(dp1736
Vcomment
p1737
g4
sVcookies
p1738
(lp1739
sVurl
p1740
Vhttps://www.google.com/gen_204?atyp=i&ct=&cad=&vet=10ahUKEwixjfeKhqnTAhUJ8IMKHVGfDOYQlEsIfSgDMBM..s&ei=9mzzWLG6BIngjwTRvrKwDg&zx=1492348152545
p1741
sVqueryString
p1742
(lp1743
(dp1744
Vname
p1745
Vatyp
p1746
sVvalue
p1747
g30
sa(dp1748
Vname
p1749
Vct
p1750
sVvalue
p1751
g4
sa(dp1752
Vname
p1753
Vcad
p1754
sVvalue
p1755
g4
sa(dp1756
Vname
p1757
Vvet
p1758
sVvalue
p1759
V10ahUKEwixjfeKhqnTAhUJ8IMKHVGfDOYQlEsIfSgDMBM..s
p1760
sa(dp1761
Vname
p1762
Vei
p1763
sVvalue
p1764
V9mzzWLG6BIngjwTRvrKwDg
p1765
sa(dp1766
Vname
p1767
Vzx
p1768
sVvalue
p1769
V1492348152545
p1770
sasVheaders
p1771
(lp1772
sVheadersSize
p1773
I659
sVbodySize
p1774
I0
sVmethod
p1775
VGET
p1776
sVhttpVersion
p1777
VHTTP/1.1
p1778
ssVtimings
p1779
(dp1780
Vcomment
p1781
g4
sVreceive
p1782
I0
sVsend
p1783
I0
sVssl
p1784
I-1
sVconnect
p1785
I-1
sVdns
p1786
I-1
sVwait
p1787
I32
sVblocked
p1788
I-1
ssVtime
p1789
I32
sVresponse
p1790
(dp1791
Vstatus
p1792
I204
sVcomment
p1793
g4
sVcookies
p1794
(lp1795
sVstatusText
p1796
VNo Content
p1797
sVcontent
p1798
(dp1799
VmimeType
p1800
Vtext/html; charset=UTF-8
p1801
sVcomment
p1802
g4
sVsize
p1803
I0
ssVheaders
p1804
(lp1805
sVheadersSize
p1806
I248
sVredirectURL
p1807
g4
sVbodySize
p1808
I0
sVhttpVersion
p1809
VHTTP/1.1
p1810
ssa(dp1811
Vcomment
p1812
g4
sVserverIPAddress
p1813
V216.58.216.206
p1814
sVpageref
p1815
VAlan Thicke
p1816
sVstartedDateTime
p1817
V2017-04-16T08:09:12.575-05:00
p1818
sVcache
p1819
(dp1820
sVrequest
p1821
(dp1822
Vcomment
p1823
g4
sVcookies
p1824
(lp1825
sVurl
p1826
Vhttps://encrypted-tbn0.gstatic.com/images?q=tbn:ANd9GcTx1xCRTaPjxcR-LEdlhpX2Q8XpZx2jGmDdFHBbtCrBJjy81Jx3FOAB6kGgyqvSKGUIfNry
p1827
sVqueryString
p1828
(lp1829
(dp1830
Vname
p1831
g415
sVvalue
p1832
Vtbn:ANd9GcTx1xCRTaPjxcR-LEdlhpX2Q8XpZx2jGmDdFHBbtCrBJjy81Jx3FOAB6kGgyqvSKGUIfNry
p1833
sasVheaders
p1834
(lp1835
sVheadersSize
p1836
I439
sVbodySize
p1837
I0
sVmethod
p1838
VGET
p1839
sVhttpVersion
p1840
VHTTP/1.1
p1841
ssVtimings
p1842
(dp1843
Vcomment
p1844
g4
sVreceive
p1845
I1
sVsend
p1846
I0
sVssl
p1847
I-1
sVconnect
p1848
I-1
sVdns
p1849
I-1
sVwait
p1850
I20
sVblocked
p1851
I-1
ssVtime
p1852
I22
sVresponse
p1853
(dp1854
Vstatus
p1855
I200
sVcomment
p1856
g4
sVcookies
p1857
(lp1858
sVstatusText
p1859
VOK
p1860
sVcontent
p1861
(dp1862
VmimeType
p1863
Vimage/jpeg
p1864
sVcomment
p1865
g4
sVsize
p1866
I0
ssVheaders
p1867
(lp1868
sVheadersSize
p1869
I407
sVredirectURL
p1870
g4
sVbodySize
p1871
I5222
sVhttpVersion
p1872
VHTTP/1.1
p1873
ssa(dp1874
Vcomment
p1875
g4
sVserverIPAddress
p1876
V216.58.216.206
p1877
sVpageref
p1878
VAlan Thicke
p1879
sVstartedDateTime
p1880
V2017-04-16T08:09:12.586-05:00
p1881
sVcache
p1882
(dp1883
sVrequest
p1884
(dp1885
Vcomment
p1886
g4
sVcookies
p1887
(lp1888
sVurl
p1889
Vhttps://encrypted-tbn2.gstatic.com/images?q=tbn:ANd9GcReeaOxgTVxUHr2HTBJrVdNHm1AOXAoET6UoDgR7DXVveHWUOVaNub8ntpO6tlGZHL5df6P
p1890
sVqueryString
p1891
(lp1892
(dp1893
Vname
p1894
g415
sVvalue
p1895
Vtbn:ANd9GcReeaOxgTVxUHr2HTBJrVdNHm1AOXAoET6UoDgR7DXVveHWUOVaNub8ntpO6tlGZHL5df6P
p1896
sasVheaders
p1897
(lp1898
sVheadersSize
p1899
I439
sVbodySize
p1900
I0
sVmethod
p1901
VGET
p1902
sVhttpVersion
p1903
VHTTP/1.1
p1904
ssVtimings
p1905
(dp1906
Vcomment
p1907
g4
sVreceive
p1908
I2
sVsend
p1909
I0
sVssl
p1910
I-1
sVconnect
p1911
I-1
sVdns
p1912
I-1
sVwait
p1913
I19
sVblocked
p1914
I-1
ssVtime
p1915
I21
sVresponse
p1916
(dp1917
Vstatus
p1918
I200
sVcomment
p1919
g4
sVcookies
p1920
(lp1921
sVstatusText
p1922
VOK
p1923
sVcontent
p1924
(dp1925
VmimeType
p1926
Vimage/jpeg
p1927
sVcomment
p1928
g4
sVsize
p1929
I0
ssVheaders
p1930
(lp1931
sVheadersSize
p1932
I407
sVredirectURL
p1933
g4
sVbodySize
p1934
I7058
sVhttpVersion
p1935
VHTTP/1.1
p1936
ssa(dp1937
Vcomment
p1938
g4
sVserverIPAddress
p1939
V216.58.216.196
p1940
sVpageref
p1941
VAlan Thicke
p1942
sVstartedDateTime
p1943
V2017-04-16T08:09:12.595-05:00
p1944
sVcache
p1945
(dp1946
sVrequest
p1947
(dp1948
Vcomment
p1949
g4
sVcookies
p1950
(lp1951
sVurl
p1952
Vhttps://www.google.com/gen_204?atyp=i&ct=&cad=&vet=10ahUKEwixjfeKhqnTAhUJ8IMKHVGfDOYQlEsIfygEMBM..s&ei=9mzzWLG6BIngjwTRvrKwDg&zx=1492348152548
p1953
sVqueryString
p1954
(lp1955
(dp1956
Vname
p1957
Vatyp
p1958
sVvalue
p1959
g30
sa(dp1960
Vname
p1961
Vct
p1962
sVvalue
p1963
g4
sa(dp1964
Vname
p1965
Vcad
p1966
sVvalue
p1967
g4
sa(dp1968
Vname
p1969
Vvet
p1970
sVvalue
p1971
V10ahUKEwixjfeKhqnTAhUJ8IMKHVGfDOYQlEsIfygEMBM..s
p1972
sa(dp1973
Vname
p1974
Vei
p1975
sVvalue
p1976
V9mzzWLG6BIngjwTRvrKwDg
p1977
sa(dp1978
Vname
p1979
Vzx
p1980
sVvalue
p1981
V1492348152548
p1982
sasVheaders
p1983
(lp1984
sVheadersSize
p1985
I659
sVbodySize
p1986
I0
sVmethod
p1987
VGET
p1988
sVhttpVersion
p1989
VHTTP/1.1
p1990
ssVtimings
p1991
(dp1992
Vcomment
p1993
g4
sVreceive
p1994
I0
sVsend
p1995
I0
sVssl
p1996
I-1
sVconnect
p1997
I-1
sVdns
p1998
I-1
sVwait
p1999
I32
sVblocked
p2000
I-1
ssVtime
p2001
I32
sVresponse
p2002
(dp2003
Vstatus
p2004
I204
sVcomment
p2005
g4
sVcookies
p2006
(lp2007
sVstatusText
p2008
VNo Content
p2009
sVcontent
p2010
(dp2011
VmimeType
p2012
Vtext/html; charset=UTF-8
p2013
sVcomment
p2014
g4
sVsize
p2015
I0
ssVheaders
p2016
(lp2017
sVheadersSize
p2018
I248
sVredirectURL
p2019
g4
sVbodySize
p2020
I0
sVhttpVersion
p2021
VHTTP/1.1
p2022
ssa(dp2023
Vcomment
p2024
g4
sVserverIPAddress
p2025
V216.58.216.196
p2026
sVpageref
p2027
VAlan Thicke
p2028
sVstartedDateTime
p2029
V2017-04-16T08:09:12.596-05:00
p2030
sVcache
p2031
(dp2032
sVrequest
p2033
(dp2034
Vcomment
p2035
g4
sVcookies
p2036
(lp2037
sVurl
p2038
Vhttps://www.google.com/gen_204?atyp=i&ct=&cad=&vet=10ahUKEwixjfeKhqnTAhUJ8IMKHVGfDOYQlEsIgwEoBjAT..s&ei=9mzzWLG6BIngjwTRvrKwDg&zx=1492348152557
p2039
sVqueryString
p2040
(lp2041
(dp2042
Vname
p2043
Vatyp
p2044
sVvalue
p2045
g30
sa(dp2046
Vname
p2047
Vct
p2048
sVvalue
p2049
g4
sa(dp2050
Vname
p2051
Vcad
p2052
sVvalue
p2053
g4
sa(dp2054
Vname
p2055
Vvet
p2056
sVvalue
p2057
V10ahUKEwixjfeKhqnTAhUJ8IMKHVGfDOYQlEsIgwEoBjAT..s
p2058
sa(dp2059
Vname
p2060
Vei
p2061
sVvalue
p2062
V9mzzWLG6BIngjwTRvrKwDg
p2063
sa(dp2064
Vname
p2065
Vzx
p2066
sVvalue
p2067
V1492348152557
p2068
sasVheaders
p2069
(lp2070
sVheadersSize
p2071
I660
sVbodySize
p2072
I0
sVmethod
p2073
VGET
p2074
sVhttpVersion
p2075
VHTTP/1.1
p2076
ssVtimings
p2077
(dp2078
Vcomment
p2079
g4
sVreceive
p2080
I0
sVsend
p2081
I0
sVssl
p2082
I-1
sVconnect
p2083
I-1
sVdns
p2084
I-1
sVwait
p2085
I31
sVblocked
p2086
I-1
ssVtime
p2087
I32
sVresponse
p2088
(dp2089
Vstatus
p2090
I204
sVcomment
p2091
g4
sVcookies
p2092
(lp2093
sVstatusText
p2094
VNo Content
p2095
sVcontent
p2096
(dp2097
VmimeType
p2098
Vtext/html; charset=UTF-8
p2099
sVcomment
p2100
g4
sVsize
p2101
I0
ssVheaders
p2102
(lp2103
sVheadersSize
p2104
I248
sVredirectURL
p2105
g4
sVbodySize
p2106
I0
sVhttpVersion
p2107
VHTTP/1.1
p2108
ssa(dp2109
Vcomment
p2110
g4
sVserverIPAddress
p2111
V216.58.216.196
p2112
sVpageref
p2113
VAlan Thicke
p2114
sVstartedDateTime
p2115
V2017-04-16T08:09:12.601-05:00
p2116
sVcache
p2117
(dp2118
sVrequest
p2119
(dp2120
Vcomment
p2121
g4
sVcookies
p2122
(lp2123
sVurl
p2124
Vhttps://www.google.com/gen_204?atyp=i&ct=&cad=&vet=10ahUKEwixjfeKhqnTAhUJ8IMKHVGfDOYQlEsIgQEoBTAT..s&ei=9mzzWLG6BIngjwTRvrKwDg&zx=1492348152555
p2125
sVqueryString
p2126
(lp2127
(dp2128
Vname
p2129
Vatyp
p2130
sVvalue
p2131
g30
sa(dp2132
Vname
p2133
Vct
p2134
sVvalue
p2135
g4
sa(dp2136
Vname
p2137
Vcad
p2138
sVvalue
p2139
g4
sa(dp2140
Vname
p2141
Vvet
p2142
sVvalue
p2143
V10ahUKEwixjfeKhqnTAhUJ8IMKHVGfDOYQlEsIgQEoBTAT..s
p2144
sa(dp2145
Vname
p2146
Vei
p2147
sVvalue
p2148
V9mzzWLG6BIngjwTRvrKwDg
p2149
sa(dp2150
Vname
p2151
Vzx
p2152
sVvalue
p2153
V1492348152555
p2154
sasVheaders
p2155
(lp2156
sVheadersSize
p2157
I660
sVbodySize
p2158
I0
sVmethod
p2159
VGET
p2160
sVhttpVersion
p2161
VHTTP/1.1
p2162
ssVtimings
p2163
(dp2164
Vcomment
p2165
g4
sVreceive
p2166
I0
sVsend
p2167
I0
sVssl
p2168
I-1
sVconnect
p2169
I-1
sVdns
p2170
I-1
sVwait
p2171
I30
sVblocked
p2172
I-1
ssVtime
p2173
I30
sVresponse
p2174
(dp2175
Vstatus
p2176
I204
sVcomment
p2177
g4
sVcookies
p2178
(lp2179
sVstatusText
p2180
VNo Content
p2181
sVcontent
p2182
(dp2183
VmimeType
p2184
Vtext/html; charset=UTF-8
p2185
sVcomment
p2186
g4
sVsize
p2187
I0
ssVheaders
p2188
(lp2189
sVheadersSize
p2190
I248
sVredirectURL
p2191
g4
sVbodySize
p2192
I0
sVhttpVersion
p2193
VHTTP/1.1
p2194
ssa(dp2195
Vcomment
p2196
g4
sVserverIPAddress
p2197
V216.58.216.196
p2198
sVpageref
p2199
VAlan Thicke
p2200
sVstartedDateTime
p2201
V2017-04-16T08:09:12.601-05:00
p2202
sVcache
p2203
(dp2204
sVrequest
p2205
(dp2206
Vcomment
p2207
g4
sVcookies
p2208
(lp2209
sVurl
p2210
Vhttps://www.google.com/gen_204?atyp=i&ct=&cad=&vet=10ahUKEwixjfeKhqnTAhUJ8IMKHVGfDOYQlEsIhQEoBzAT..s&ei=9mzzWLG6BIngjwTRvrKwDg&zx=1492348152560
p2211
sVqueryString
p2212
(lp2213
(dp2214
Vname
p2215
Vatyp
p2216
sVvalue
p2217
g30
sa(dp2218
Vname
p2219
Vct
p2220
sVvalue
p2221
g4
sa(dp2222
Vname
p2223
Vcad
p2224
sVvalue
p2225
g4
sa(dp2226
Vname
p2227
Vvet
p2228
sVvalue
p2229
V10ahUKEwixjfeKhqnTAhUJ8IMKHVGfDOYQlEsIhQEoBzAT..s
p2230
sa(dp2231
Vname
p2232
Vei
p2233
sVvalue
p2234
V9mzzWLG6BIngjwTRvrKwDg
p2235
sa(dp2236
Vname
p2237
Vzx
p2238
sVvalue
p2239
V1492348152560
p2240
sasVheaders
p2241
(lp2242
sVheadersSize
p2243
I660
sVbodySize
p2244
I0
sVmethod
p2245
VGET
p2246
sVhttpVersion
p2247
VHTTP/1.1
p2248
ssVtimings
p2249
(dp2250
Vcomment
p2251
g4
sVreceive
p2252
I0
sVsend
p2253
I0
sVssl
p2254
I-1
sVconnect
p2255
I-1
sVdns
p2256
I-1
sVwait
p2257
I30
sVblocked
p2258
I-1
ssVtime
p2259
I30
sVresponse
p2260
(dp2261
Vstatus
p2262
I204
sVcomment
p2263
g4
sVcookies
p2264
(lp2265
sVstatusText
p2266
VNo Content
p2267
sVcontent
p2268
(dp2269
VmimeType
p2270
Vtext/html; charset=UTF-8
p2271
sVcomment
p2272
g4
sVsize
p2273
I0
ssVheaders
p2274
(lp2275
sVheadersSize
p2276
I248
sVredirectURL
p2277
g4
sVbodySize
p2278
I0
sVhttpVersion
p2279
VHTTP/1.1
p2280
ssa(dp2281
Vcomment
p2282
g4
sVserverIPAddress
p2283
V216.58.216.196
p2284
sVpageref
p2285
VAlan Thicke
p2286
sVstartedDateTime
p2287
V2017-04-16T08:09:12.605-05:00
p2288
sVcache
p2289
(dp2290
sVrequest
p2291
(dp2292
Vcomment
p2293
g4
sVcookies
p2294
(lp2295
sVurl
p2296
Vhttps://www.google.com/gen_204?atyp=i&ct=&cad=&vet=10ahUKEwixjfeKhqnTAhUJ8IMKHVGfDOYQvW4IhwEoCDAT..s&ei=9mzzWLG6BIngjwTRvrKwDg&zx=1492348152566
p2297
sVqueryString
p2298
(lp2299
(dp2300
Vname
p2301
Vatyp
p2302
sVvalue
p2303
g30
sa(dp2304
Vname
p2305
Vct
p2306
sVvalue
p2307
g4
sa(dp2308
Vname
p2309
Vcad
p2310
sVvalue
p2311
g4
sa(dp2312
Vname
p2313
Vvet
p2314
sVvalue
p2315
V10ahUKEwixjfeKhqnTAhUJ8IMKHVGfDOYQvW4IhwEoCDAT..s
p2316
sa(dp2317
Vname
p2318
Vei
p2319
sVvalue
p2320
V9mzzWLG6BIngjwTRvrKwDg
p2321
sa(dp2322
Vname
p2323
Vzx
p2324
sVvalue
p2325
V1492348152566
p2326
sasVheaders
p2327
(lp2328
sVheadersSize
p2329
I660
sVbodySize
p2330
I0
sVmethod
p2331
VGET
p2332
sVhttpVersion
p2333
VHTTP/1.1
p2334
ssVtimings
p2335
(dp2336
Vcomment
p2337
g4
sVreceive
p2338
I0
sVsend
p2339
I0
sVssl
p2340
I-1
sVconnect
p2341
I-1
sVdns
p2342
I-1
sVwait
p2343
I31
sVblocked
p2344
I-1
ssVtime
p2345
I31
sVresponse
p2346
(dp2347
Vstatus
p2348
I204
sVcomment
p2349
g4
sVcookies
p2350
(lp2351
sVstatusText
p2352
VNo Content
p2353
sVcontent
p2354
(dp2355
VmimeType
p2356
Vtext/html; charset=UTF-8
p2357
sVcomment
p2358
g4
sVsize
p2359
I0
ssVheaders
p2360
(lp2361
sVheadersSize
p2362
I248
sVredirectURL
p2363
g4
sVbodySize
p2364
I0
sVhttpVersion
p2365
VHTTP/1.1
p2366
ssa(dp2367
Vcomment
p2368
g4
sVserverIPAddress
p2369
V216.58.216.206
p2370
sVpageref
p2371
VAlan Thicke
p2372
sVstartedDateTime
p2373
V2017-04-16T08:09:12.609-05:00
p2374
sVcache
p2375
(dp2376
sVrequest
p2377
(dp2378
Vcomment
p2379
g4
sVcookies
p2380
(lp2381
sVurl
p2382
Vhttps://encrypted-tbn3.gstatic.com/images?q=tbn:ANd9GcSHJXcgmmRLlHdZz6LyznyQi8JIVPRz0BPqCaEc3_fsqmzCMGoQDMTnGNJ9DTbs0tRDbR_B
p2383
sVqueryString
p2384
(lp2385
(dp2386
Vname
p2387
g415
sVvalue
p2388
Vtbn:ANd9GcSHJXcgmmRLlHdZz6LyznyQi8JIVPRz0BPqCaEc3_fsqmzCMGoQDMTnGNJ9DTbs0tRDbR_B
p2389
sasVheaders
p2390
(lp2391
sVheadersSize
p2392
I439
sVbodySize
p2393
I0
sVmethod
p2394
VGET
p2395
sVhttpVersion
p2396
VHTTP/1.1
p2397
ssVtimings
p2398
(dp2399
Vcomment
p2400
g4
sVreceive
p2401
I0
sVsend
p2402
I0
sVssl
p2403
I-1
sVconnect
p2404
I-1
sVdns
p2405
I-1
sVwait
p2406
I18
sVblocked
p2407
I-1
ssVtime
p2408
I18
sVresponse
p2409
(dp2410
Vstatus
p2411
I200
sVcomment
p2412
g4
sVcookies
p2413
(lp2414
sVstatusText
p2415
VOK
p2416
sVcontent
p2417
(dp2418
VmimeType
p2419
Vimage/jpeg
p2420
sVcomment
p2421
g4
sVsize
p2422
I0
ssVheaders
p2423
(lp2424
sVheadersSize
p2425
I429
sVredirectURL
p2426
g4
sVbodySize
p2427
I4866
sVhttpVersion
p2428
VHTTP/1.1
p2429
ssa(dp2430
Vcomment
p2431
g4
sVserverIPAddress
p2432
V216.58.216.193
p2433
sVpageref
p2434
VAlan Thicke
p2435
sVstartedDateTime
p2436
V2017-04-16T08:09:12.622-05:00
p2437
sVcache
p2438
(dp2439
sVrequest
p2440
(dp2441
Vcomment
p2442
g4
sVcookies
p2443
(lp2444
sVurl
p2445
Vhttps://cdn.ampproject.org/preconnect.gif?0.4652780111075623
p2446
sVqueryString
p2447
(lp2448
(dp2449
Vname
p2450
V0.4652780111075623
p2451
sVvalue
p2452
g4
sasVheaders
p2453
(lp2454
sVheadersSize
p2455
I375
sVbodySize
p2456
I0
sVmethod
p2457
VGET
p2458
sVhttpVersion
p2459
VHTTP/1.1
p2460
ssVtimings
p2461
(dp2462
Vcomment
p2463
g4
sVreceive
p2464
I0
sVsend
p2465
I0
sVssl
p2466
I-1
sVconnect
p2467
I-1
sVdns
p2468
I-1
sVwait
p2469
I36
sVblocked
p2470
I-1
ssVtime
p2471
I37
sVresponse
p2472
(dp2473
Vstatus
p2474
I200
sVcomment
p2475
g4
sVcookies
p2476
(lp2477
sVstatusText
p2478
VOK
p2479
sVcontent
p2480
(dp2481
VmimeType
p2482
Vimage/gif
p2483
sVcomment
p2484
g4
sVsize
p2485
I0
ssVheaders
p2486
(lp2487
sVheadersSize
p2488
I826
sVredirectURL
p2489
g4
sVbodySize
p2490
I37
sVhttpVersion
p2491
VHTTP/1.1
p2492
ssa(dp2493
Vcomment
p2494
g4
sVserverIPAddress
p2495
V216.58.216.196
p2496
sVpageref
p2497
VAlan Thicke
p2498
sVstartedDateTime
p2499
V2017-04-16T08:09:12.630-05:00
p2500
sVcache
p2501
(dp2502
sVrequest
p2503
(dp2504
Vcomment
p2505
g4
sVcookies
p2506
(lp2507
sVurl
p2508
Vhttps://www.google.com/async/ampfp?vet=10ahUKEwixjfeKhqnTAhUJ8IMKHVGfDOYQtZoBCI8C..i&ei=9mzzWLG6BIngjwTRvrKwDg&yv=2&async=_id:ampfp-async,_pms:qs
p2509
sVqueryString
p2510
(lp2511
(dp2512
Vname
p2513
Vvet
p2514
sVvalue
p2515
V10ahUKEwixjfeKhqnTAhUJ8IMKHVGfDOYQtZoBCI8C..i
p2516
sa(dp2517
Vname
p2518
Vei
p2519
sVvalue
p2520
V9mzzWLG6BIngjwTRvrKwDg
p2521
sa(dp2522
Vname
p2523
Vyv
p2524
sVvalue
p2525
g64
sa(dp2526
Vname
p2527
Vasync
p2528
sVvalue
p2529
V_id:ampfp-async,_pms:qs
p2530
sasVheaders
p2531
(lp2532
sVheadersSize
p2533
I662
sVbodySize
p2534
I0
sVmethod
p2535
VGET
p2536
sVhttpVersion
p2537
VHTTP/1.1
p2538
ssVtimings
p2539
(dp2540
Vcomment
p2541
g4
sVreceive
p2542
I0
sVsend
p2543
I0
sVssl
p2544
I-1
sVconnect
p2545
I-1
sVdns
p2546
I-1
sVwait
p2547
I38
sVblocked
p2548
I-1
ssVtime
p2549
I39
sVresponse
p2550
(dp2551
Vstatus
p2552
I200
sVcomment
p2553
g4
sVcookies
p2554
(lp2555
sVstatusText
p2556
VOK
p2557
sVcontent
p2558
(dp2559
VmimeType
p2560
Vtext/html; charset=UTF-8
p2561
sVcomment
p2562
g4
sVsize
p2563
I0
ssVheaders
p2564
(lp2565
sVheadersSize
p2566
I383
sVredirectURL
p2567
g4
sVbodySize
p2568
I4526
sVhttpVersion
p2569
VHTTP/1.1
p2570
ssa(dp2571
Vcomment
p2572
g4
sVserverIPAddress
p2573
V216.58.216.206
p2574
sVpageref
p2575
VAlan Thicke
p2576
sVstartedDateTime
p2577
V2017-04-16T08:09:12.645-05:00
p2578
sVcache
p2579
(dp2580
sVrequest
p2581
(dp2582
Vcomment
p2583
g4
sVcookies
p2584
(lp2585
sVurl
p2586
Vhttps://encrypted-tbn3.gstatic.com/images?q=tbn:ANd9GcT7kwSvIcxdb3zEQPQ0c8pmdHsTBZWxgM-9Vs7l267SjJjgX9l6eInn95Nc
p2587
sVqueryString
p2588
(lp2589
(dp2590
Vname
p2591
g415
sVvalue
p2592
Vtbn:ANd9GcT7kwSvIcxdb3zEQPQ0c8pmdHsTBZWxgM-9Vs7l267SjJjgX9l6eInn95Nc
p2593
sasVheaders
p2594
(lp2595
sVheadersSize
p2596
I427
sVbodySize
p2597
I0
sVmethod
p2598
VGET
p2599
sVhttpVersion
p2600
VHTTP/1.1
p2601
ssVtimings
p2602
(dp2603
Vcomment
p2604
g4
sVreceive
p2605
I14
sVsend
p2606
I0
sVssl
p2607
I-1
sVconnect
p2608
I-1
sVdns
p2609
I-1
sVwait
p2610
I172
sVblocked
p2611
I-1
ssVtime
p2612
I187
sVresponse
p2613
(dp2614
Vstatus
p2615
I200
sVcomment
p2616
g4
sVcookies
p2617
(lp2618
sVstatusText
p2619
VOK
p2620
sVcontent
p2621
(dp2622
VmimeType
p2623
Vimage/jpeg
p2624
sVcomment
p2625
g4
sVsize
p2626
I0
ssVheaders
p2627
(lp2628
sVheadersSize
p2629
I428
sVredirectURL
p2630
g4
sVbodySize
p2631
I4447
sVhttpVersion
p2632
VHTTP/1.1
p2633
ssa(dp2634
Vcomment
p2635
g4
sVserverIPAddress
p2636
V216.58.216.196
p2637
sVpageref
p2638
VAlan Thicke
p2639
sVstartedDateTime
p2640
V2017-04-16T08:09:12.795-05:00
p2641
sVcache
p2642
(dp2643
sVrequest
p2644
(dp2645
Vcomment
p2646
g4
sVcookies
p2647
(lp2648
sVurl
p2649
Vhttps://www.google.com/async/log_amp_item_set?vet=10ahUKEwjo4daLhqnTAhUozoMKHWlGA8IQooQBCAE..i&ei=9mzzWLG6BIngjwTRvrKwDg&yv=2&async=num_items:1,_fmt:jspb
p2650
sVqueryString
p2651
(lp2652
(dp2653
Vname
p2654
Vvet
p2655
sVvalue
p2656
V10ahUKEwjo4daLhqnTAhUozoMKHWlGA8IQooQBCAE..i
p2657
sa(dp2658
Vname
p2659
Vei
p2660
sVvalue
p2661
V9mzzWLG6BIngjwTRvrKwDg
p2662
sa(dp2663
Vname
p2664
Vyv
p2665
sVvalue
p2666
g64
sa(dp2667
Vname
p2668
Vasync
p2669
sVvalue
p2670
Vnum_items:1,_fmt:jspb
p2671
sasVheaders
p2672
(lp2673
sVheadersSize
p2674
I670
sVbodySize
p2675
I0
sVmethod
p2676
VGET
p2677
sVhttpVersion
p2678
VHTTP/1.1
p2679
ssVtimings
p2680
(dp2681
Vcomment
p2682
g4
sVreceive
p2683
I0
sVsend
p2684
I0
sVssl
p2685
I-1
sVconnect
p2686
I-1
sVdns
p2687
I-1
sVwait
p2688
I43
sVblocked
p2689
I-1
ssVtime
p2690
I43
sVresponse
p2691
(dp2692
Vstatus
p2693
I200
sVcomment
p2694
g4
sVcookies
p2695
(lp2696
sVstatusText
p2697
VOK
p2698
sVcontent
p2699
(dp2700
VmimeType
p2701
Vapplication/json; charset=UTF-8
p2702
sVcomment
p2703
g4
sVsize
p2704
I0
ssVheaders
p2705
(lp2706
sVheadersSize
p2707
I417
sVredirectURL
p2708
g4
sVbodySize
p2709
I132
sVhttpVersion
p2710
VHTTP/1.1
p2711
ssa(dp2712
Vcomment
p2713
g4
sVserverIPAddress
p2714
V216.58.217.1
p2715
sVpageref
p2716
VAlan Thicke
p2717
sVstartedDateTime
p2718
V2017-04-16T08:09:13.388-05:00
p2719
sVcache
p2720
(dp2721
sVrequest
p2722
(dp2723
Vcomment
p2724
g4
sVcookies
p2725
(lp2726
sVurl
p2727
Vhttps://people-com.cdn.ampproject.org/v/people.com/celebrity/alan-thickes-cause-of-death-has-been-confirmed/amp/?amp_js_v=9
p2728
sVqueryString
p2729
(lp2730
(dp2731
Vname
p2732
Vamp_js_v
p2733
sVvalue
p2734
V9
p2735
sasVheaders
p2736
(lp2737
sVheadersSize
p2738
I528
sVbodySize
p2739
I0
sVmethod
p2740
VGET
p2741
sVhttpVersion
p2742
VHTTP/1.1
p2743
ssVtimings
p2744
(dp2745
Vcomment
p2746
g4
sVreceive
p2747
I0
sVsend
p2748
I0
sVssl
p2749
I361
sVconnect
p2750
I399
sVdns
p2751
I181
sVwait
p2752
I78
sVblocked
p2753
I0
ssVtime
p2754
I660
sVresponse
p2755
(dp2756
Vstatus
p2757
I200
sVcomment
p2758
g4
sVcookies
p2759
(lp2760
sVstatusText
p2761
VOK
p2762
sVcontent
p2763
(dp2764
VmimeType
p2765
Vtext/html
p2766
sVcomment
p2767
g4
sVsize
p2768
I0
ssVheaders
p2769
(lp2770
sVheadersSize
p2771
I859
sVredirectURL
p2772
g4
sVbodySize
p2773
I4909
sVhttpVersion
p2774
VHTTP/1.1
p2775
ssa(dp2776
Vcomment
p2777
g4
sVserverIPAddress
p2778
V216.58.216.202
p2779
sVpageref
p2780
VAlan Thicke
p2781
sVstartedDateTime
p2782
V2017-04-16T08:09:13.480-05:00
p2783
sVcache
p2784
(dp2785
sVrequest
p2786
(dp2787
Vcomment
p2788
g4
sVcookies
p2789
(lp2790
sVurl
p2791
Vhttps://fonts.googleapis.com/css?family=Lora:400,700
p2792
sVqueryString
p2793
(lp2794
(dp2795
Vname
p2796
Vfamily
p2797
sVvalue
p2798
VLora:400,700
p2799
sasVheaders
p2800
(lp2801
sVheadersSize
p2802
I482
sVbodySize
p2803
I0
sVmethod
p2804
VGET
p2805
sVhttpVersion
p2806
VHTTP/1.1
p2807
ssVtimings
p2808
(dp2809
Vcomment
p2810
g4
sVreceive
p2811
I4
sVsend
p2812
I0
sVssl
p2813
I-1
sVconnect
p2814
I-1
sVdns
p2815
I-1
sVwait
p2816
I33
sVblocked
p2817
I-1
ssVtime
p2818
I38
sVresponse
p2819
(dp2820
Vstatus
p2821
I200
sVcomment
p2822
g4
sVcookies
p2823
(lp2824
sVstatusText
p2825
VOK
p2826
sVcontent
p2827
(dp2828
VmimeType
p2829
Vtext/css; charset=utf-8
p2830
sVcomment
p2831
g4
sVsize
p2832
I0
ssVheaders
p2833
(lp2834
sVheadersSize
p2835
I405
sVredirectURL
p2836
g4
sVbodySize
p2837
I646
sVhttpVersion
p2838
VHTTP/1.1
p2839
ssa(dp2840
Vcomment
p2841
g4
sVserverIPAddress
p2842
V216.58.216.202
p2843
sVpageref
p2844
VAlan Thicke
p2845
sVstartedDateTime
p2846
V2017-04-16T08:09:13.529-05:00
p2847
sVcache
p2848
(dp2849
sVrequest
p2850
(dp2851
Vcomment
p2852
g4
sVcookies
p2853
(lp2854
sVurl
p2855
Vhttps://fonts.googleapis.com/css?family=Roboto:400,700
p2856
sVqueryString
p2857
(lp2858
(dp2859
Vname
p2860
Vfamily
p2861
sVvalue
p2862
VRoboto:400,700
p2863
sasVheaders
p2864
(lp2865
sVheadersSize
p2866
I484
sVbodySize
p2867
I0
sVmethod
p2868
VGET
p2869
sVhttpVersion
p2870
VHTTP/1.1
p2871
ssVtimings
p2872
(dp2873
Vcomment
p2874
g4
sVreceive
p2875
I0
sVsend
p2876
I1
sVssl
p2877
I24
sVconnect
p2878
I45
sVdns
p2879
I1
sVwait
p2880
I26
sVblocked
p2881
I0
ssVtime
p2882
I75
sVresponse
p2883
(dp2884
Vstatus
p2885
I200
sVcomment
p2886
g4
sVcookies
p2887
(lp2888
sVstatusText
p2889
VOK
p2890
sVcontent
p2891
(dp2892
VmimeType
p2893
Vtext/css; charset=utf-8
p2894
sVcomment
p2895
g4
sVsize
p2896
I0
ssVheaders
p2897
(lp2898
sVheadersSize
p2899
I405
sVredirectURL
p2900
g4
sVbodySize
p2901
I750
sVhttpVersion
p2902
VHTTP/1.1
p2903
ssa(dp2904
Vcomment
p2905
g4
sVserverIPAddress
p2906
V216.58.216.193
p2907
sVpageref
p2908
VAlan Thicke
p2909
sVstartedDateTime
p2910
V2017-04-16T08:09:13.616-05:00
p2911
sVcache
p2912
(dp2913
sVrequest
p2914
(dp2915
Vcomment
p2916
g4
sVcookies
p2917
(lp2918
sVurl
p2919
Vhttps://s0-wp-com.cdn.ampproject.org/ii/w330/s/s0.wp.com/wp-content/themes/vip/people-2016/static/img/amp-people-logo.png
p2920
sVqueryString
p2921
(lp2922
sVheaders
p2923
(lp2924
sVheadersSize
p2925
I536
sVbodySize
p2926
I0
sVmethod
p2927
VGET
p2928
sVhttpVersion
p2929
VHTTP/1.1
p2930
ssVtimings
p2931
(dp2932
Vcomment
p2933
g4
sVreceive
p2934
I1
sVsend
p2935
I0
sVssl
p2936
I-1
sVconnect
p2937
I-1
sVdns
p2938
I-1
sVwait
p2939
I29
sVblocked
p2940
I-1
ssVtime
p2941
I30
sVresponse
p2942
(dp2943
Vstatus
p2944
I200
sVcomment
p2945
g4
sVcookies
p2946
(lp2947
sVstatusText
p2948
VOK
p2949
sVcontent
p2950
(dp2951
VmimeType
p2952
Vimage/png
p2953
sVcomment
p2954
g4
sVsize
p2955
I0
ssVheaders
p2956
(lp2957
sVheadersSize
p2958
I824
sVredirectURL
p2959
g4
sVbodySize
p2960
I2482
sVhttpVersion
p2961
VHTTP/1.1
p2962
ssa(dp2963
Vcomment
p2964
g4
sVserverIPAddress
p2965
V216.58.216.195
p2966
sVpageref
p2967
VAlan Thicke
p2968
sVstartedDateTime
p2969
V2017-04-16T08:09:13.681-05:00
p2970
sVcache
p2971
(dp2972
sVrequest
p2973
(dp2974
Vcomment
p2975
g4
sVcookies
p2976
(lp2977
sVurl
p2978
Vhttps://fonts.gstatic.com/s/lora/v10/rAXKWvABQNHjPUk26ixVvvesZW2xOQ-xsNqO47m55DA.woff2
p2979
sVqueryString
p2980
(lp2981
sVheaders
p2982
(lp2983
sVheadersSize
p2984
I531
sVbodySize
p2985
I0
sVmethod
p2986
VGET
p2987
sVhttpVersion
p2988
VHTTP/1.1
p2989
ssVtimings
p2990
(dp2991
Vcomment
p2992
g4
sVreceive
p2993
I7
sVsend
p2994
I0
sVssl
p2995
I-1
sVconnect
p2996
I-1
sVdns
p2997
I-1
sVwait
p2998
I25
sVblocked
p2999
I-1
ssVtime
p3000
I33
sVresponse
p3001
(dp3002
Vstatus
p3003
I200
sVcomment
p3004
g4
sVcookies
p3005
(lp3006
sVstatusText
p3007
VOK
p3008
sVcontent
p3009
(dp3010
VmimeType
p3011
Vfont/woff2
p3012
sVcomment
p3013
g4
sVsize
p3014
I0
ssVheaders
p3015
(lp3016
sVheadersSize
p3017
I454
sVredirectURL
p3018
g4
sVbodySize
p3019
I15632
sVhttpVersion
p3020
VHTTP/1.1
p3021
ssa(dp3022
Vcomment
p3023
g4
sVserverIPAddress
p3024
V216.58.216.195
p3025
sVpageref
p3026
VAlan Thicke
p3027
sVstartedDateTime
p3028
V2017-04-16T08:09:13.682-05:00
p3029
sVcache
p3030
(dp3031
sVrequest
p3032
(dp3033
Vcomment
p3034
g4
sVcookies
p3035
(lp3036
sVurl
p3037
Vhttps://fonts.gstatic.com/s/lora/v10/mlTYdpdDwCepOR2s5kS2CwLUuEpTyoUstqEm5AMlJo4.woff2
p3038
sVqueryString
p3039
(lp3040
sVheaders
p3041
(lp3042
sVheadersSize
p3043
I531
sVbodySize
p3044
I0
sVmethod
p3045
VGET
p3046
sVhttpVersion
p3047
VHTTP/1.1
p3048
ssVtimings
p3049
(dp3050
Vcomment
p3051
g4
sVreceive
p3052
I6
sVsend
p3053
I0
sVssl
p3054
I-1
sVconnect
p3055
I-1
sVdns
p3056
I-1
sVwait
p3057
I33
sVblocked
p3058
I-1
ssVtime
p3059
I39
sVresponse
p3060
(dp3061
Vstatus
p3062
I200
sVcomment
p3063
g4
sVcookies
p3064
(lp3065
sVstatusText
p3066
VOK
p3067
sVcontent
p3068
(dp3069
VmimeType
p3070
Vfont/woff2
p3071
sVcomment
p3072
g4
sVsize
p3073
I0
ssVheaders
p3074
(lp3075
sVheadersSize
p3076
I432
sVredirectURL
p3077
g4
sVbodySize
p3078
I15408
sVhttpVersion
p3079
VHTTP/1.1
p3080
ssa(dp3081
Vcomment
p3082
g4
sVserverIPAddress
p3083
V216.58.216.196
p3084
sVpageref
p3085
VAlan Thicke
p3086
sVstartedDateTime
p3087
V2017-04-16T08:09:13.738-05:00
p3088
sVcache
p3089
(dp3090
sVrequest
p3091
(dp3092
Vcomment
p3093
g4
sVcookies
p3094
(lp3095
sVurl
p3096
Vhttps://www.google.com/gen_204?s=web&atyp=csi&ei=9mzzWLG6BIngjwTRvrKwDg&imc=47&imn=47&imp=27&adh=&xjs=init.31.14.sb_mob.24.dvl.4.c.1.r.1.tl.1&ima=18&rt=prt.604,iml.950,xjsls.604,dcl.747,xjses.763,xjsee.911,xjs.911,qiml.1661,ol.2567,aft.950,wsrt.110,cst.0,dnst.0,rqst.748,rspt.669,rqstt.8,unt.8,cstt.8,dit.813
p3097
sVqueryString
p3098
(lp3099
(dp3100
Vname
p3101
g57
sVvalue
p3102
Vweb
p3103
sa(dp3104
Vname
p3105
Vatyp
p3106
sVvalue
p3107
Vcsi
p3108
sa(dp3109
Vname
p3110
Vei
p3111
sVvalue
p3112
V9mzzWLG6BIngjwTRvrKwDg
p3113
sa(dp3114
Vname
p3115
Vimc
p3116
sVvalue
p3117
V47
p3118
sa(dp3119
Vname
p3120
Vimn
p3121
sVvalue
p3122
V47
p3123
sa(dp3124
Vname
p3125
Vimp
p3126
sVvalue
p3127
V27
p3128
sa(dp3129
Vname
p3130
Vadh
p3131
sVvalue
p3132
g4
sa(dp3133
Vname
p3134
Vxjs
p3135
sVvalue
p3136
Vinit.31.14.sb_mob.24.dvl.4.c.1.r.1.tl.1
p3137
sa(dp3138
Vname
p3139
Vima
p3140
sVvalue
p3141
V18
p3142
sa(dp3143
Vname
p3144
Vrt
p3145
sVvalue
p3146
Vprt.604,iml.950,xjsls.604,dcl.747,xjses.763,xjsee.911,xjs.911,qiml.1661,ol.2567,aft.950,wsrt.110,cst.0,dnst.0,rqst.748,rspt.669,rqstt.8,unt.8,cstt.8,dit.813
p3147
sasVheaders
p3148
(lp3149
sVheadersSize
p3150
I825
sVbodySize
p3151
I0
sVmethod
p3152
VGET
p3153
sVhttpVersion
p3154
VHTTP/1.1
p3155
ssVtimings
p3156
(dp3157
Vcomment
p3158
g4
sVreceive
p3159
I0
sVsend
p3160
I0
sVssl
p3161
I-1
sVconnect
p3162
I-1
sVdns
p3163
I-1
sVwait
p3164
I26
sVblocked
p3165
I-1
ssVtime
p3166
I26
sVresponse
p3167
(dp3168
Vstatus
p3169
I204
sVcomment
p3170
g4
sVcookies
p3171
(lp3172
sVstatusText
p3173
VNo Content
p3174
sVcontent
p3175
(dp3176
VmimeType
p3177
Vtext/html; charset=UTF-8
p3178
sVcomment
p3179
g4
sVsize
p3180
I0
ssVheaders
p3181
(lp3182
sVheadersSize
p3183
I248
sVredirectURL
p3184
g4
sVbodySize
p3185
I0
sVhttpVersion
p3186
VHTTP/1.1
p3187
ssa(dp3188
Vcomment
p3189
g4
sVserverIPAddress
p3190
V216.58.216.196
p3191
sVpageref
p3192
VAlan Thicke
p3193
sVstartedDateTime
p3194
V2017-04-16T08:09:14.589-05:00
p3195
sVcache
p3196
(dp3197
sVrequest
p3198
(dp3199
Vcomment
p3200
g4
sVcookies
p3201
(lp3202
sVurl
p3203
Vhttps://www.google.com/gen_204?atyp=i&ct=slh&cad=&ei=3GzzWKGIFenBjwT_4KtI&m=V&t=C&s=1&v=2&pv=0.9418693183012797&me=1:1492348127157,x:2,V,0,0,1280,944:0,N,1,3GzzWKGIFenBjwT_4KtI:0,R,1,24,8,155,1249,778:0,R,1,25,8,155,1249,778:0,R,1,29,8,168,1249,40:0,R,1,47,8,267,1249,178:0,R,1,50,0,283,1265,197:0,R,1,90,8,462,1249,20:0,R,1,91,24,462,1217,20:0,R,1,97,8,498,1249,20:0,R,1,113,8,583,1249,283:0,R,1,114,0,583,1265,303:0,R,1,177,24,943,1217,115:3,B,3366:23216,e,U&zx=1492348154588
p3204
sVqueryString
p3205
(lp3206
(dp3207
Vname
p3208
Vatyp
p3209
sVvalue
p3210
g30
sa(dp3211
Vname
p3212
Vct
p3213
sVvalue
p3214
Vslh
p3215
sa(dp3216
Vname
p3217
Vcad
p3218
sVvalue
p3219
g4
sa(dp3220
Vname
p3221
Vei
p3222
sVvalue
p3223
V3GzzWKGIFenBjwT_4KtI
p3224
sa(dp3225
Vname
p3226
g47
sVvalue
p3227
g49
sa(dp3228
Vname
p3229
g52
sVvalue
p3230
g54
sa(dp3231
Vname
p3232
g57
sVvalue
p3233
g59
sa(dp3234
Vname
p3235
g62
sVvalue
p3236
g64
sa(dp3237
Vname
p3238
Vpv
p3239
sVvalue
p3240
V0.9418693183012797
p3241
sa(dp3242
Vname
p3243
Vme
p3244
sVvalue
p3245
V1:1492348127157,x:2,V,0,0,1280,944:0,N,1,3GzzWKGIFenBjwT_4KtI:0,R,1,24,8,155,1249,778:0,R,1,25,8,155,1249,778:0,R,1,29,8,168,1249,40:0,R,1,47,8,267,1249,178:0,R,1,50,0,283,1265,197:0,R,1,90,8,462,1249,20:0,R,1,91,24,462,1217,20:0,R,1,97,8,498,1249,20:0,R,1,113,8,583,1249,283:0,R,1,114,0,583,1265,303:0,R,1,177,24,943,1217,115:3,B,3366:23216,e,U
p3246
sa(dp3247
Vname
p3248
Vzx
p3249
sVvalue
p3250
V1492348154588
p3251
sasVheaders
p3252
(lp3253
sVheadersSize
p3254
I994
sVbodySize
p3255
I0
sVmethod
p3256
VGET
p3257
sVhttpVersion
p3258
VHTTP/1.1
p3259
ssVtimings
p3260
(dp3261
Vcomment
p3262
g4
sVreceive
p3263
I0
sVsend
p3264
I0
sVssl
p3265
I-1
sVconnect
p3266
I-1
sVdns
p3267
I-1
sVwait
p3268
I56
sVblocked
p3269
I-1
ssVtime
p3270
I56
sVresponse
p3271
(dp3272
Vstatus
p3273
I204
sVcomment
p3274
g4
sVcookies
p3275
(lp3276
sVstatusText
p3277
VNo Content
p3278
sVcontent
p3279
(dp3280
VmimeType
p3281
Vtext/html; charset=UTF-8
p3282
sVcomment
p3283
g4
sVsize
p3284
I0
ssVheaders
p3285
(lp3286
sVheadersSize
p3287
I248
sVredirectURL
p3288
g4
sVbodySize
p3289
I0
sVhttpVersion
p3290
VHTTP/1.1
p3291
ssasVversion
p3292
V1.2
p3293
sVpages
p3294
(lp3295
(dp3296
VpageTimings
p3297
(dp3298
Vcomment
p3299
g4
ssVcomment
p3300
g4
sVtitle
p3301
VAlan Thicke
p3302
sVid
p3303
VAlan Thicke
p3304
sVstartedDateTime
p3305
V2017-04-16T08:09:10.371-05:00
p3306
sasVcreator
p3307
(dp3308
Vcomment
p3309
g4
sVversion
p3310
V2.1.4
p3311
sVname
p3312
VBrowserMob Proxy
p3313
sss.