(dp0
Vlog
p1
(dp2
Vcomment
p3
V
p4
sVentries
p5
(lp6
(dp7
Vcomment
p8
g4
sVserverIPAddress
p9
V172.217.6.4
p10
sVpageref
p11
VBen Shapiro
p12
sVstartedDateTime
p13
V2017-04-16T08:20:16.986-05:00
p14
sVcache
p15
(dp16
sVrequest
p17
(dp18
Vcomment
p19
g4
sVcookies
p20
(lp21
sVurl
p22
Vhttps://www.google.com/gen_204?atyp=i&ct=slh&cad=&ei=gm_zWPftOezKjwTYrakY&m=V&t=C&s=1&v=2&pv=0.2693722252924927&me=1:1492348805423,x:2,V,0,0,1280,944:0,N,1,gm_zWPftOezKjwTYrakY:0,R,1,24,8,155,1249,458:0,R,1,25,8,155,1249,458:0,R,1,29,8,168,1249,40:0,R,1,46,8,267,1249,178:0,R,1,49,0,283,1265,197:0,R,1,89,8,462,1249,20:0,R,1,90,24,462,1217,20:0,R,1,96,8,498,1249,20:0,R,1,99,8,526,1249,20:0,R,1,146,24,623,1217,135:0,R,1,153,24,779,1217,114:0,R,1,156,24,914,1217,114:2,B,3185:11557,e,U&zx=1492348816984
p23
sVqueryString
p24
(lp25
(dp26
Vname
p27
Vatyp
p28
sVvalue
p29
Vi
p30
sa(dp31
Vname
p32
Vct
p33
sVvalue
p34
Vslh
p35
sa(dp36
Vname
p37
Vcad
p38
sVvalue
p39
g4
sa(dp40
Vname
p41
Vei
p42
sVvalue
p43
Vgm_zWPftOezKjwTYrakY
p44
sa(dp45
Vname
p46
Vm
p47
sVvalue
p48
VV
p49
sa(dp50
Vname
p51
Vt
p52
sVvalue
p53
VC
p54
sa(dp55
Vname
p56
Vs
p57
sVvalue
p58
V1
p59
sa(dp60
Vname
p61
Vv
p62
sVvalue
p63
V2
p64
sa(dp65
Vname
p66
Vpv
p67
sVvalue
p68
V0.2693722252924927
p69
sa(dp70
Vname
p71
Vme
p72
sVvalue
p73
V1:1492348805423,x:2,V,0,0,1280,944:0,N,1,gm_zWPftOezKjwTYrakY:0,R,1,24,8,155,1249,458:0,R,1,25,8,155,1249,458:0,R,1,29,8,168,1249,40:0,R,1,46,8,267,1249,178:0,R,1,49,0,283,1265,197:0,R,1,89,8,462,1249,20:0,R,1,90,24,462,1217,20:0,R,1,96,8,498,1249,20:0,R,1,99,8,526,1249,20:0,R,1,146,24,623,1217,135:0,R,1,153,24,779,1217,114:0,R,1,156,24,914,1217,114:2,B,3185:11557,e,U
p74
sa(dp75
Vname
p76
Vzx
p77
sVvalue
p78
V1492348816984
p79
sasVheaders
p80
(lp81
sVheadersSize
p82
I1019
sVbodySize
p83
I0
sVmethod
p84
VGET
p85
sVhttpVersion
p86
VHTTP/1.1
p87
ssVtimings
p88
(dp89
Vcomment
p90
g4
sVreceive
p91
I0
sVsend
p92
I0
sVssl
p93
I-1
sVconnect
p94
I-1
sVdns
p95
I-1
sVwait
p96
I0
sVblocked
p97
I-1
ssVtime
p98
I0
sVresponse
p99
(dp100
Vstatus
p101
I0
sVcomment
p102
g4
sVcookies
p103
(lp104
sV_error
p105
VNo response received
p106
sVstatusText
p107
g4
sVcontent
p108
(dp109
VmimeType
p110
g4
sVcomment
p111
g4
sVsize
p112
I0
ssVheaders
p113
(lp114
sVheadersSize
p115
I-1
sVredirectURL
p116
g4
sVbodySize
p117
I-1
sVhttpVersion
p118
Vunknown
p119
ssa(dp120
Vcomment
p121
g4
sVserverIPAddress
p122
V172.217.6.4
p123
sVpageref
p124
VBen Shapiro
p125
sVstartedDateTime
p126
V2017-04-16T08:20:16.993-05:00
p127
sVcache
p128
(dp129
sVrequest
p130
(dp131
Vcomment
p132
g4
sVcookies
p133
(lp134
sVurl
p135
Vhttp://www.google.com/
p136
sVqueryString
p137
(lp138
sVheaders
p139
(lp140
sVheadersSize
p141
I613
sVbodySize
p142
I0
sVmethod
p143
VGET
p144
sVhttpVersion
p145
VHTTP/1.1
p146
ssVtimings
p147
(dp148
Vcomment
p149
g4
sVreceive
p150
I0
sVsend
p151
I0
sVssl
p152
I-1
sVconnect
p153
I-1
sVdns
p154
I-1
sVwait
p155
I54
sVblocked
p156
I-1
ssVtime
p157
I55
sVresponse
p158
(dp159
Vstatus
p160
I302
sVcomment
p161
g4
sVcookies
p162
(lp163
sVstatusText
p164
VFound
p165
sVcontent
p166
(dp167
VmimeType
p168
Vtext/html; charset=UTF-8
p169
sVcomment
p170
g4
sVsize
p171
I0
ssVheaders
p172
(lp173
sVheadersSize
p174
I609
sVredirectURL
p175
Vhttps://www.google.com/?gws_rd=ssl
p176
sVbodySize
p177
I231
sVhttpVersion
p178
VHTTP/1.1
p179
ssa(dp180
Vcomment
p181
g4
sVserverIPAddress
p182
V172.217.6.4
p183
sVpageref
p184
VBen Shapiro
p185
sVstartedDateTime
p186
V2017-04-16T08:20:17.060-05:00
p187
sVcache
p188
(dp189
sVrequest
p190
(dp191
Vcomment
p192
g4
sVcookies
p193
(lp194
sVurl
p195
Vhttps://www.google.com/?gws_rd=ssl
p196
sVqueryString
p197
(lp198
(dp199
Vname
p200
Vgws_rd
p201
sVvalue
p202
Vssl
p203
sasVheaders
p204
(lp205
sVheadersSize
p206
I607
sVbodySize
p207
I0
sVmethod
p208
VGET
p209
sVhttpVersion
p210
VHTTP/1.1
p211
ssVtimings
p212
(dp213
Vcomment
p214
g4
sVreceive
p215
I90
sVsend
p216
I0
sVssl
p217
I-1
sVconnect
p218
I-1
sVdns
p219
I-1
sVwait
p220
I61
sVblocked
p221
I-1
ssVtime
p222
I152
sVresponse
p223
(dp224
Vstatus
p225
I200
sVcomment
p226
g4
sVcookies
p227
(lp228
sVstatusText
p229
VOK
p230
sVcontent
p231
(dp232
VmimeType
p233
Vtext/html; charset=UTF-8
p234
sVcomment
p235
g4
sVsize
p236
I0
ssVheaders
p237
(lp238
sVheadersSize
p239
I721
sVredirectURL
p240
g4
sVbodySize
p241
I34292
sVhttpVersion
p242
VHTTP/1.1
p243
ssa(dp244
Vcomment
p245
g4
sVserverIPAddress
p246
V172.217.6.4
p247
sVpageref
p248
VBen Shapiro
p249
sVstartedDateTime
p250
V2017-04-16T08:20:17.593-05:00
p251
sVcache
p252
(dp253
sVrequest
p254
(dp255
Vcomment
p256
g4
sVcookies
p257
(lp258
sVurl
p259
Vhttps://www.google.com/gen_204?s=mobilewebhp&atyp=csi&ei=kG_zWO3BA6fajwTXsL8o&imc=1&imn=1&imp=0&adh=&xjs=init.42.12.sb_mob.30.dvl.6.foot.2.c.1.jsa.1&ima=1&rt=xjsls.17,prt.19,iml.19,dcl.117,xjses.160,xjsee.285,xjs.286,ol.427,aft.19,wsrt.170,cst.0,dnst.0,rqst.161,rspt.93,rqstt.72,unt.66,cstt.66,dit.282
p260
sVqueryString
p261
(lp262
(dp263
Vname
p264
g57
sVvalue
p265
Vmobilewebhp
p266
sa(dp267
Vname
p268
Vatyp
p269
sVvalue
p270
Vcsi
p271
sa(dp272
Vname
p273
Vei
p274
sVvalue
p275
VkG_zWO3BA6fajwTXsL8o
p276
sa(dp277
Vname
p278
Vimc
p279
sVvalue
p280
g59
sa(dp281
Vname
p282
Vimn
p283
sVvalue
p284
g59
sa(dp285
Vname
p286
Vimp
p287
sVvalue
p288
V0
p289
sa(dp290
Vname
p291
Vadh
p292
sVvalue
p293
g4
sa(dp294
Vname
p295
Vxjs
p296
sVvalue
p297
Vinit.42.12.sb_mob.30.dvl.6.foot.2.c.1.jsa.1
p298
sa(dp299
Vname
p300
Vima
p301
sVvalue
p302
g59
sa(dp303
Vname
p304
Vrt
p305
sVvalue
p306
Vxjsls.17,prt.19,iml.19,dcl.117,xjses.160,xjsee.285,xjs.286,ol.427,aft.19,wsrt.170,cst.0,dnst.0,rqst.161,rspt.93,rqstt.72,unt.66,cstt.66,dit.282
p307
sasVheaders
p308
(lp309
sVheadersSize
p310
I829
sVbodySize
p311
I0
sVmethod
p312
VGET
p313
sVhttpVersion
p314
VHTTP/1.1
p315
ssVtimings
p316
(dp317
Vcomment
p318
g4
sVreceive
p319
I0
sVsend
p320
I0
sVssl
p321
I-1
sVconnect
p322
I-1
sVdns
p323
I-1
sVwait
p324
I26
sVblocked
p325
I-1
ssVtime
p326
I27
sVresponse
p327
(dp328
Vstatus
p329
I204
sVcomment
p330
g4
sVcookies
p331
(lp332
sVstatusText
p333
VNo Content
p334
sVcontent
p335
(dp336
VmimeType
p337
Vtext/html; charset=UTF-8
p338
sVcomment
p339
g4
sVsize
p340
I0
ssVheaders
p341
(lp342
sVheadersSize
p343
I248
sVredirectURL
p344
g4
sVbodySize
p345
I0
sVhttpVersion
p346
VHTTP/1.1
p347
ssa(dp348
Vcomment
p349
g4
sVserverIPAddress
p350
V172.217.6.4
p351
sVpageref
p352
VBen Shapiro
p353
sVstartedDateTime
p354
V2017-04-16T08:20:17.714-05:00
p355
sVcache
p356
(dp357
sVrequest
p358
(dp359
Vcomment
p360
g4
sVcookies
p361
(lp362
sVurl
p363
Vhttps://www.google.com/complete/search?client=mobile-gws-hp&hl=en&gs_rn=64&gs_ri=mobile-gws-hp&sla=1&pfq=brie%20larson&gm=602&cp=0&gs_id=1&xhr=t&q=B&tch=1&ech=1&psi=kG_zWO3BA6fajwTXsL8o.1492348817401.1
p364
sVqueryString
p365
(lp366
(dp367
Vname
p368
Vclient
p369
sVvalue
p370
Vmobile-gws-hp
p371
sa(dp372
Vname
p373
Vhl
p374
sVvalue
p375
Ven
p376
sa(dp377
Vname
p378
Vgs_rn
p379
sVvalue
p380
V64
p381
sa(dp382
Vname
p383
Vgs_ri
p384
sVvalue
p385
Vmobile-gws-hp
p386
sa(dp387
Vname
p388
Vsla
p389
sVvalue
p390
g59
sa(dp391
Vname
p392
Vpfq
p393
sVvalue
p394
Vbrie larson
p395
sa(dp396
Vname
p397
Vgm
p398
sVvalue
p399
V602
p400
sa(dp401
Vname
p402
Vcp
p403
sVvalue
p404
g289
sa(dp405
Vname
p406
Vgs_id
p407
sVvalue
p408
g59
sa(dp409
Vname
p410
Vxhr
p411
sVvalue
p412
g52
sa(dp413
Vname
p414
Vq
p415
sVvalue
p416
VB
p417
sa(dp418
Vname
p419
Vtch
p420
sVvalue
p421
g59
sa(dp422
Vname
p423
Vech
p424
sVvalue
p425
g59
sa(dp426
Vname
p427
Vpsi
p428
sVvalue
p429
VkG_zWO3BA6fajwTXsL8o.1492348817401.1
p430
sasVheaders
p431
(lp432
sVheadersSize
p433
I729
sVbodySize
p434
I0
sVmethod
p435
VGET
p436
sVhttpVersion
p437
VHTTP/1.1
p438
ssVtimings
p439
(dp440
Vcomment
p441
g4
sVreceive
p442
I0
sVsend
p443
I0
sVssl
p444
I-1
sVconnect
p445
I-1
sVdns
p446
I-1
sVwait
p447
I0
sVblocked
p448
I-1
ssVtime
p449
I0
sVresponse
p450
(dp451
Vstatus
p452
I0
sVcomment
p453
g4
sVcookies
p454
(lp455
sV_error
p456
VNo response received
p457
sVstatusText
p458
g4
sVcontent
p459
(dp460
VmimeType
p461
g4
sVcomment
p462
g4
sVsize
p463
I0
ssVheaders
p464
(lp465
sVheadersSize
p466
I-1
sVredirectURL
p467
g4
sVbodySize
p468
I-1
sVhttpVersion
p469
Vunknown
p470
ssa(dp471
Vcomment
p472
g4
sVserverIPAddress
p473
V172.217.6.4
p474
sVpageref
p475
VBen Shapiro
p476
sVstartedDateTime
p477
V2017-04-16T08:20:17.810-05:00
p478
sVcache
p479
(dp480
sVrequest
p481
(dp482
Vcomment
p483
g4
sVcookies
p484
(lp485
sVurl
p486
Vhttps://www.google.com/search?site=&source=hp&ei=kG_zWO3BA6fajwTXsL8o&q=Ben+Shapiro&oq=Ben+Shapiro&gs_l=mobile-gws-hp.3...276.318.0.369.11.1.0.0.0.0.0.0..0.0....0...1c.1.64.mobile-gws-hp..11.0.0.iLeeHhF-zo0
p487
sVqueryString
p488
(lp489
(dp490
Vname
p491
Vsite
p492
sVvalue
p493
g4
sa(dp494
Vname
p495
Vsource
p496
sVvalue
p497
Vhp
p498
sa(dp499
Vname
p500
Vei
p501
sVvalue
p502
VkG_zWO3BA6fajwTXsL8o
p503
sa(dp504
Vname
p505
g415
sVvalue
p506
VBen Shapiro
p507
sa(dp508
Vname
p509
Voq
p510
sVvalue
p511
VBen Shapiro
p512
sa(dp513
Vname
p514
Vgs_l
p515
sVvalue
p516
Vmobile-gws-hp.3...276.318.0.369.11.1.0.0.0.0.0.0..0.0....0...1c.1.64.mobile-gws-hp..11.0.0.iLeeHhF-zo0
p517
sasVheaders
p518
(lp519
sVheadersSize
p520
I824
sVbodySize
p521
I0
sVmethod
p522
VGET
p523
sVhttpVersion
p524
VHTTP/1.1
p525
ssVtimings
p526
(dp527
Vcomment
p528
g4
sVreceive
p529
I864
sVsend
p530
I0
sVssl
p531
I-1
sVconnect
p532
I-1
sVdns
p533
I-1
sVwait
p534
I117
sVblocked
p535
I-1
ssVtime
p536
I982
sVresponse
p537
(dp538
Vstatus
p539
I200
sVcomment
p540
g4
sVcookies
p541
(lp542
sVstatusText
p543
VOK
p544
sVcontent
p545
(dp546
VmimeType
p547
Vtext/html; charset=UTF-8
p548
sVcomment
p549
g4
sVsize
p550
I0
ssVheaders
p551
(lp552
sVheadersSize
p553
I363
sVredirectURL
p554
g4
sVbodySize
p555
I172713
sVhttpVersion
p556
VHTTP/1.1
p557
ssa(dp558
Vcomment
p559
g4
sVserverIPAddress
p560
V172.217.6.4
p561
sVpageref
p562
VBen Shapiro
p563
sVstartedDateTime
p564
V2017-04-16T08:20:19.655-05:00
p565
sVcache
p566
(dp567
sVrequest
p568
(dp569
Vcomment
p570
g4
sVcookies
p571
(lp572
sVurl
p573
Vhttps://www.google.com/async/irc?vet=10ahUKEwigy-7IiKnTAhUM34MKHcMVCYAQo0EIyAI..i&ved=0ahUKEwigy-7IiKnTAhUM34MKHcMVCYAQo0EIyAI&ei=kG_zWKDDMoy-jwTDq6SACA&yv=2&async=iu:1,ved:0ahUKEwigy-7IiKnTAhUM34MKHcMVCYAQo0EIyAI,_id:irc_async,_pms:qs
p574
sVqueryString
p575
(lp576
(dp577
Vname
p578
Vvet
p579
sVvalue
p580
V10ahUKEwigy-7IiKnTAhUM34MKHcMVCYAQo0EIyAI..i
p581
sa(dp582
Vname
p583
Vved
p584
sVvalue
p585
V0ahUKEwigy-7IiKnTAhUM34MKHcMVCYAQo0EIyAI
p586
sa(dp587
Vname
p588
Vei
p589
sVvalue
p590
VkG_zWKDDMoy-jwTDq6SACA
p591
sa(dp592
Vname
p593
Vyv
p594
sVvalue
p595
g64
sa(dp596
Vname
p597
Vasync
p598
sVvalue
p599
Viu:1,ved:0ahUKEwigy-7IiKnTAhUM34MKHcMVCYAQo0EIyAI,_id:irc_async,_pms:qs
p600
sasVheaders
p601
(lp602
sVheadersSize
p603
I752
sVbodySize
p604
I0
sVmethod
p605
VGET
p606
sVhttpVersion
p607
VHTTP/1.1
p608
ssVtimings
p609
(dp610
Vcomment
p611
g4
sVreceive
p612
I14
sVsend
p613
I0
sVssl
p614
I-1
sVconnect
p615
I-1
sVdns
p616
I-1
sVwait
p617
I39
sVblocked
p618
I-1
ssVtime
p619
I54
sVresponse
p620
(dp621
Vstatus
p622
I200
sVcomment
p623
g4
sVcookies
p624
(lp625
sVstatusText
p626
VOK
p627
sVcontent
p628
(dp629
VmimeType
p630
Vtext/html; charset=UTF-8
p631
sVcomment
p632
g4
sVsize
p633
I0
ssVheaders
p634
(lp635
sVheadersSize
p636
I383
sVredirectURL
p637
g4
sVbodySize
p638
I7792
sVhttpVersion
p639
VHTTP/1.1
p640
ssa(dp641
Vcomment
p642
g4
sVserverIPAddress
p643
V172.217.6.4
p644
sVpageref
p645
VBen Shapiro
p646
sVstartedDateTime
p647
V2017-04-16T08:20:19.676-05:00
p648
sVcache
p649
(dp650
sVrequest
p651
(dp652
Vcomment
p653
g4
sVcookies
p654
(lp655
sVurl
p656
Vhttps://www.google.com/gen_204?atyp=i&ct=&cad=&vet=10ahUKEwigy-7IiKnTAhUM34MKHcMVCYAQ5W0IPSgC..s&ei=kG_zWKDDMoy-jwTDq6SACA&zx=1492348819671
p657
sVqueryString
p658
(lp659
(dp660
Vname
p661
Vatyp
p662
sVvalue
p663
g30
sa(dp664
Vname
p665
Vct
p666
sVvalue
p667
g4
sa(dp668
Vname
p669
Vcad
p670
sVvalue
p671
g4
sa(dp672
Vname
p673
Vvet
p674
sVvalue
p675
V10ahUKEwigy-7IiKnTAhUM34MKHcMVCYAQ5W0IPSgC..s
p676
sa(dp677
Vname
p678
Vei
p679
sVvalue
p680
VkG_zWKDDMoy-jwTDq6SACA
p681
sa(dp682
Vname
p683
Vzx
p684
sVvalue
p685
V1492348819671
p686
sasVheaders
p687
(lp688
sVheadersSize
p689
I656
sVbodySize
p690
I0
sVmethod
p691
VGET
p692
sVhttpVersion
p693
VHTTP/1.1
p694
ssVtimings
p695
(dp696
Vcomment
p697
g4
sVreceive
p698
I0
sVsend
p699
I0
sVssl
p700
I-1
sVconnect
p701
I-1
sVdns
p702
I-1
sVwait
p703
I36
sVblocked
p704
I-1
ssVtime
p705
I36
sVresponse
p706
(dp707
Vstatus
p708
I204
sVcomment
p709
g4
sVcookies
p710
(lp711
sVstatusText
p712
VNo Content
p713
sVcontent
p714
(dp715
VmimeType
p716
Vtext/html; charset=UTF-8
p717
sVcomment
p718
g4
sVsize
p719
I0
ssVheaders
p720
(lp721
sVheadersSize
p722
I248
sVredirectURL
p723
g4
sVbodySize
p724
I0
sVhttpVersion
p725
VHTTP/1.1
p726
ssa(dp727
Vcomment
p728
g4
sVserverIPAddress
p729
V172.217.6.4
p730
sVpageref
p731
VBen Shapiro
p732
sVstartedDateTime
p733
V2017-04-16T08:20:19.678-05:00
p734
sVcache
p735
(dp736
sVrequest
p737
(dp738
Vcomment
p739
g4
sVcookies
p740
(lp741
sVurl
p742
Vhttps://www.google.com/gen_204?atyp=i&ct=&cad=&vet=10ahUKEwigy-7IiKnTAhUM34MKHcMVCYAQ5W0IQCgD..s&ei=kG_zWKDDMoy-jwTDq6SACA&zx=1492348819677
p743
sVqueryString
p744
(lp745
(dp746
Vname
p747
Vatyp
p748
sVvalue
p749
g30
sa(dp750
Vname
p751
Vct
p752
sVvalue
p753
g4
sa(dp754
Vname
p755
Vcad
p756
sVvalue
p757
g4
sa(dp758
Vname
p759
Vvet
p760
sVvalue
p761
V10ahUKEwigy-7IiKnTAhUM34MKHcMVCYAQ5W0IQCgD..s
p762
sa(dp763
Vname
p764
Vei
p765
sVvalue
p766
VkG_zWKDDMoy-jwTDq6SACA
p767
sa(dp768
Vname
p769
Vzx
p770
sVvalue
p771
V1492348819677
p772
sasVheaders
p773
(lp774
sVheadersSize
p775
I656
sVbodySize
p776
I0
sVmethod
p777
VGET
p778
sVhttpVersion
p779
VHTTP/1.1
p780
ssVtimings
p781
(dp782
Vcomment
p783
g4
sVreceive
p784
I0
sVsend
p785
I0
sVssl
p786
I-1
sVconnect
p787
I-1
sVdns
p788
I-1
sVwait
p789
I33
sVblocked
p790
I-1
ssVtime
p791
I33
sVresponse
p792
(dp793
Vstatus
p794
I204
sVcomment
p795
g4
sVcookies
p796
(lp797
sVstatusText
p798
VNo Content
p799
sVcontent
p800
(dp801
VmimeType
p802
Vtext/html; charset=UTF-8
p803
sVcomment
p804
g4
sVsize
p805
I0
ssVheaders
p806
(lp807
sVheadersSize
p808
I248
sVredirectURL
p809
g4
sVbodySize
p810
I0
sVhttpVersion
p811
VHTTP/1.1
p812
ssa(dp813
Vcomment
p814
g4
sVserverIPAddress
p815
V172.217.6.4
p816
sVpageref
p817
VBen Shapiro
p818
sVstartedDateTime
p819
V2017-04-16T08:20:19.686-05:00
p820
sVcache
p821
(dp822
sVrequest
p823
(dp824
Vcomment
p825
g4
sVcookies
p826
(lp827
sVurl
p828
Vhttps://www.google.com/gen_204?atyp=i&ct=&cad=&vet=10ahUKEwigy-7IiKnTAhUM34MKHcMVCYAQ5W0IQygE..s&ei=kG_zWKDDMoy-jwTDq6SACA&zx=1492348819683
p829
sVqueryString
p830
(lp831
(dp832
Vname
p833
Vatyp
p834
sVvalue
p835
g30
sa(dp836
Vname
p837
Vct
p838
sVvalue
p839
g4
sa(dp840
Vname
p841
Vcad
p842
sVvalue
p843
g4
sa(dp844
Vname
p845
Vvet
p846
sVvalue
p847
V10ahUKEwigy-7IiKnTAhUM34MKHcMVCYAQ5W0IQygE..s
p848
sa(dp849
Vname
p850
Vei
p851
sVvalue
p852
VkG_zWKDDMoy-jwTDq6SACA
p853
sa(dp854
Vname
p855
Vzx
p856
sVvalue
p857
V1492348819683
p858
sasVheaders
p859
(lp860
sVheadersSize
p861
I656
sVbodySize
p862
I0
sVmethod
p863
VGET
p864
sVhttpVersion
p865
VHTTP/1.1
p866
ssVtimings
p867
(dp868
Vcomment
p869
g4
sVreceive
p870
I0
sVsend
p871
I0
sVssl
p872
I-1
sVconnect
p873
I-1
sVdns
p874
I-1
sVwait
p875
I29
sVblocked
p876
I-1
ssVtime
p877
I29
sVresponse
p878
(dp879
Vstatus
p880
I204
sVcomment
p881
g4
sVcookies
p882
(lp883
sVstatusText
p884
VNo Content
p885
sVcontent
p886
(dp887
VmimeType
p888
Vtext/html; charset=UTF-8
p889
sVcomment
p890
g4
sVsize
p891
I0
ssVheaders
p892
(lp893
sVheadersSize
p894
I248
sVredirectURL
p895
g4
sVbodySize
p896
I0
sVhttpVersion
p897
VHTTP/1.1
p898
ssa(dp899
Vcomment
p900
g4
sVserverIPAddress
p901
V172.217.6.4
p902
sVpageref
p903
VBen Shapiro
p904
sVstartedDateTime
p905
V2017-04-16T08:20:19.710-05:00
p906
sVcache
p907
(dp908
sVrequest
p909
(dp910
Vcomment
p911
g4
sVcookies
p912
(lp913
sVurl
p914
Vhttps://www.google.com/gen_204?atyp=i&ct=&cad=&vet=10ahUKEwigy-7IiKnTAhUM34MKHcMVCYAQ5W0ITCgH..s&ei=kG_zWKDDMoy-jwTDq6SACA&zx=1492348819698
p915
sVqueryString
p916
(lp917
(dp918
Vname
p919
Vatyp
p920
sVvalue
p921
g30
sa(dp922
Vname
p923
Vct
p924
sVvalue
p925
g4
sa(dp926
Vname
p927
Vcad
p928
sVvalue
p929
g4
sa(dp930
Vname
p931
Vvet
p932
sVvalue
p933
V10ahUKEwigy-7IiKnTAhUM34MKHcMVCYAQ5W0ITCgH..s
p934
sa(dp935
Vname
p936
Vei
p937
sVvalue
p938
VkG_zWKDDMoy-jwTDq6SACA
p939
sa(dp940
Vname
p941
Vzx
p942
sVvalue
p943
V1492348819698
p944
sasVheaders
p945
(lp946
sVheadersSize
p947
I656
sVbodySize
p948
I0
sVmethod
p949
VGET
p950
sVhttpVersion
p951
VHTTP/1.1
p952
ssVtimings
p953
(dp954
Vcomment
p955
g4
sVreceive
p956
I0
sVsend
p957
I0
sVssl
p958
I-1
sVconnect
p959
I-1
sVdns
p960
I-1
sVwait
p961
I34
sVblocked
p962
I-1
ssVtime
p963
I35
sVresponse
p964
(dp965
Vstatus
p966
I204
sVcomment
p967
g4
sVcookies
p968
(lp969
sVstatusText
p970
VNo Content
p971
sVcontent
p972
(dp973
VmimeType
p974
Vtext/html; charset=UTF-8
p975
sVcomment
p976
g4
sVsize
p977
I0
ssVheaders
p978
(lp979
sVheadersSize
p980
I248
sVredirectURL
p981
g4
sVbodySize
p982
I0
sVhttpVersion
p983
VHTTP/1.1
p984
ssa(dp985
Vcomment
p986
g4
sVserverIPAddress
p987
V172.217.6.4
p988
sVpageref
p989
VBen Shapiro
p990
sVstartedDateTime
p991
V2017-04-16T08:20:19.713-05:00
p992
sVcache
p993
(dp994
sVrequest
p995
(dp996
Vcomment
p997
g4
sVcookies
p998
(lp999
sVurl
p1000
Vhttps://www.google.com/gen_204?atyp=i&ct=&cad=&vet=10ahUKEwigy-7IiKnTAhUM34MKHcMVCYAQ5W0ITygI..s&ei=kG_zWKDDMoy-jwTDq6SACA&zx=1492348819701
p1001
sVqueryString
p1002
(lp1003
(dp1004
Vname
p1005
Vatyp
p1006
sVvalue
p1007
g30
sa(dp1008
Vname
p1009
Vct
p1010
sVvalue
p1011
g4
sa(dp1012
Vname
p1013
Vcad
p1014
sVvalue
p1015
g4
sa(dp1016
Vname
p1017
Vvet
p1018
sVvalue
p1019
V10ahUKEwigy-7IiKnTAhUM34MKHcMVCYAQ5W0ITygI..s
p1020
sa(dp1021
Vname
p1022
Vei
p1023
sVvalue
p1024
VkG_zWKDDMoy-jwTDq6SACA
p1025
sa(dp1026
Vname
p1027
Vzx
p1028
sVvalue
p1029
V1492348819701
p1030
sasVheaders
p1031
(lp1032
sVheadersSize
p1033
I656
sVbodySize
p1034
I0
sVmethod
p1035
VGET
p1036
sVhttpVersion
p1037
VHTTP/1.1
p1038
ssVtimings
p1039
(dp1040
Vcomment
p1041
g4
sVreceive
p1042
I0
sVsend
p1043
I0
sVssl
p1044
I-1
sVconnect
p1045
I-1
sVdns
p1046
I-1
sVwait
p1047
I31
sVblocked
p1048
I-1
ssVtime
p1049
I32
sVresponse
p1050
(dp1051
Vstatus
p1052
I204
sVcomment
p1053
g4
sVcookies
p1054
(lp1055
sVstatusText
p1056
VNo Content
p1057
sVcontent
p1058
(dp1059
VmimeType
p1060
Vtext/html; charset=UTF-8
p1061
sVcomment
p1062
g4
sVsize
p1063
I0
ssVheaders
p1064
(lp1065
sVheadersSize
p1066
I248
sVredirectURL
p1067
g4
sVbodySize
p1068
I0
sVhttpVersion
p1069
VHTTP/1.1
p1070
ssa(dp1071
Vcomment
p1072
g4
sVserverIPAddress
p1073
V172.217.6.4
p1074
sVpageref
p1075
VBen Shapiro
p1076
sVstartedDateTime
p1077
V2017-04-16T08:20:19.798-05:00
p1078
sVcache
p1079
(dp1080
sVrequest
p1081
(dp1082
Vcomment
p1083
g4
sVcookies
p1084
(lp1085
sVurl
p1086
Vhttps://www.google.com/gen_204?atyp=i&ct=&cad=&vet=10ahUKEwigy-7IiKnTAhUM34MKHcMVCYAQ5W0IRigF..s&ei=kG_zWKDDMoy-jwTDq6SACA&zx=1492348819689
p1087
sVqueryString
p1088
(lp1089
(dp1090
Vname
p1091
Vatyp
p1092
sVvalue
p1093
g30
sa(dp1094
Vname
p1095
Vct
p1096
sVvalue
p1097
g4
sa(dp1098
Vname
p1099
Vcad
p1100
sVvalue
p1101
g4
sa(dp1102
Vname
p1103
Vvet
p1104
sVvalue
p1105
V10ahUKEwigy-7IiKnTAhUM34MKHcMVCYAQ5W0IRigF..s
p1106
sa(dp1107
Vname
p1108
Vei
p1109
sVvalue
p1110
VkG_zWKDDMoy-jwTDq6SACA
p1111
sa(dp1112
Vname
p1113
Vzx
p1114
sVvalue
p1115
V1492348819689
p1116
sasVheaders
p1117
(lp1118
sVheadersSize
p1119
I656
sVbodySize
p1120
I0
sVmethod
p1121
VGET
p1122
sVhttpVersion
p1123
VHTTP/1.1
p1124
ssVtimings
p1125
(dp1126
Vcomment
p1127
g4
sVreceive
p1128
I0
sVsend
p1129
I0
sVssl
p1130
I65
sVconnect
p1131
I103
sVdns
p1132
I0
sVwait
p1133
I35
sVblocked
p1134
I0
ssVtime
p1135
I139
sVresponse
p1136
(dp1137
Vstatus
p1138
I204
sVcomment
p1139
g4
sVcookies
p1140
(lp1141
sVstatusText
p1142
VNo Content
p1143
sVcontent
p1144
(dp1145
VmimeType
p1146
Vtext/html; charset=UTF-8
p1147
sVcomment
p1148
g4
sVsize
p1149
I0
ssVheaders
p1150
(lp1151
sVheadersSize
p1152
I248
sVredirectURL
p1153
g4
sVbodySize
p1154
I0
sVhttpVersion
p1155
VHTTP/1.1
p1156
ssa(dp1157
Vcomment
p1158
g4
sVserverIPAddress
p1159
V172.217.6.4
p1160
sVpageref
p1161
VBen Shapiro
p1162
sVstartedDateTime
p1163
V2017-04-16T08:20:19.798-05:00
p1164
sVcache
p1165
(dp1166
sVrequest
p1167
(dp1168
Vcomment
p1169
g4
sVcookies
p1170
(lp1171
sVurl
p1172
Vhttps://www.google.com/gen_204?atyp=i&ct=&cad=&vet=10ahUKEwigy-7IiKnTAhUM34MKHcMVCYAQ5W0ISSgG..s&ei=kG_zWKDDMoy-jwTDq6SACA&zx=1492348819697
p1173
sVqueryString
p1174
(lp1175
(dp1176
Vname
p1177
Vatyp
p1178
sVvalue
p1179
g30
sa(dp1180
Vname
p1181
Vct
p1182
sVvalue
p1183
g4
sa(dp1184
Vname
p1185
Vcad
p1186
sVvalue
p1187
g4
sa(dp1188
Vname
p1189
Vvet
p1190
sVvalue
p1191
V10ahUKEwigy-7IiKnTAhUM34MKHcMVCYAQ5W0ISSgG..s
p1192
sa(dp1193
Vname
p1194
Vei
p1195
sVvalue
p1196
VkG_zWKDDMoy-jwTDq6SACA
p1197
sa(dp1198
Vname
p1199
Vzx
p1200
sVvalue
p1201
V1492348819697
p1202
sasVheaders
p1203
(lp1204
sVheadersSize
p1205
I656
sVbodySize
p1206
I0
sVmethod
p1207
VGET
p1208
sVhttpVersion
p1209
VHTTP/1.1
p1210
ssVtimings
p1211
(dp1212
Vcomment
p1213
g4
sVreceive
p1214
I0
sVsend
p1215
I0
sVssl
p1216
I66
sVconnect
p1217
I98
sVdns
p1218
I0
sVwait
p1219
I35
sVblocked
p1220
I0
ssVtime
p1221
I134
sVresponse
p1222
(dp1223
Vstatus
p1224
I204
sVcomment
p1225
g4
sVcookies
p1226
(lp1227
sVstatusText
p1228
VNo Content
p1229
sVcontent
p1230
(dp1231
VmimeType
p1232
Vtext/html; charset=UTF-8
p1233
sVcomment
p1234
g4
sVsize
p1235
I0
ssVheaders
p1236
(lp1237
sVheadersSize
p1238
I248
sVredirectURL
p1239
g4
sVbodySize
p1240
I0
sVhttpVersion
p1241
VHTTP/1.1
p1242
ssa(dp1243
Vcomment
p1244
g4
sVserverIPAddress
p1245
V172.217.6.4
p1246
sVpageref
p1247
VBen Shapiro
p1248
sVstartedDateTime
p1249
V2017-04-16T08:20:19.866-05:00
p1250
sVcache
p1251
(dp1252
sVrequest
p1253
(dp1254
Vcomment
p1255
g4
sVcookies
p1256
(lp1257
sVurl
p1258
Vhttps://www.google.com/async/ampfp?vet=10ahUKEwigy-7IiKnTAhUM34MKHcMVCYAQtZoBCMYC..i&ei=kG_zWKDDMoy-jwTDq6SACA&yv=2&async=_id:ampfp-async,_pms:qs
p1259
sVqueryString
p1260
(lp1261
(dp1262
Vname
p1263
Vvet
p1264
sVvalue
p1265
V10ahUKEwigy-7IiKnTAhUM34MKHcMVCYAQtZoBCMYC..i
p1266
sa(dp1267
Vname
p1268
Vei
p1269
sVvalue
p1270
VkG_zWKDDMoy-jwTDq6SACA
p1271
sa(dp1272
Vname
p1273
Vyv
p1274
sVvalue
p1275
g64
sa(dp1276
Vname
p1277
Vasync
p1278
sVvalue
p1279
V_id:ampfp-async,_pms:qs
p1280
sasVheaders
p1281
(lp1282
sVheadersSize
p1283
I662
sVbodySize
p1284
I0
sVmethod
p1285
VGET
p1286
sVhttpVersion
p1287
VHTTP/1.1
p1288
ssVtimings
p1289
(dp1290
Vcomment
p1291
g4
sVreceive
p1292
I0
sVsend
p1293
I0
sVssl
p1294
I-1
sVconnect
p1295
I-1
sVdns
p1296
I-1
sVwait
p1297
I99
sVblocked
p1298
I-1
ssVtime
p1299
I99
sVresponse
p1300
(dp1301
Vstatus
p1302
I200
sVcomment
p1303
g4
sVcookies
p1304
(lp1305
sVstatusText
p1306
VOK
p1307
sVcontent
p1308
(dp1309
VmimeType
p1310
Vtext/html; charset=UTF-8
p1311
sVcomment
p1312
g4
sVsize
p1313
I0
ssVheaders
p1314
(lp1315
sVheadersSize
p1316
I383
sVredirectURL
p1317
g4
sVbodySize
p1318
I4527
sVhttpVersion
p1319
VHTTP/1.1
p1320
ssa(dp1321
Vcomment
p1322
g4
sVserverIPAddress
p1323
V216.58.216.193
p1324
sVpageref
p1325
VBen Shapiro
p1326
sVstartedDateTime
p1327
V2017-04-16T08:20:19.867-05:00
p1328
sVcache
p1329
(dp1330
sVrequest
p1331
(dp1332
Vcomment
p1333
g4
sVcookies
p1334
(lp1335
sVurl
p1336
Vhttps://cdn.ampproject.org/preconnect.gif?0.10973004950041632
p1337
sVqueryString
p1338
(lp1339
(dp1340
Vname
p1341
V0.10973004950041632
p1342
sVvalue
p1343
g4
sasVheaders
p1344
(lp1345
sVheadersSize
p1346
I376
sVbodySize
p1347
I0
sVmethod
p1348
VGET
p1349
sVhttpVersion
p1350
VHTTP/1.1
p1351
ssVtimings
p1352
(dp1353
Vcomment
p1354
g4
sVreceive
p1355
I0
sVsend
p1356
I0
sVssl
p1357
I-1
sVconnect
p1358
I-1
sVdns
p1359
I-1
sVwait
p1360
I46
sVblocked
p1361
I-1
ssVtime
p1362
I46
sVresponse
p1363
(dp1364
Vstatus
p1365
I200
sVcomment
p1366
g4
sVcookies
p1367
(lp1368
sVstatusText
p1369
VOK
p1370
sVcontent
p1371
(dp1372
VmimeType
p1373
Vimage/gif
p1374
sVcomment
p1375
g4
sVsize
p1376
I0
ssVheaders
p1377
(lp1378
sVheadersSize
p1379
I826
sVredirectURL
p1380
g4
sVbodySize
p1381
I37
sVhttpVersion
p1382
VHTTP/1.1
p1383
ssa(dp1384
Vcomment
p1385
g4
sVserverIPAddress
p1386
V216.58.216.206
p1387
sVpageref
p1388
VBen Shapiro
p1389
sVstartedDateTime
p1390
V2017-04-16T08:20:19.895-05:00
p1391
sVcache
p1392
(dp1393
sVrequest
p1394
(dp1395
Vcomment
p1396
g4
sVcookies
p1397
(lp1398
sVurl
p1399
Vhttps://encrypted-tbn2.gstatic.com/images?q=tbn:ANd9GcS1Glf31hKzU73ZsN2XqA-wHG27jF-RMZ92KFEKzZFVqIeBmsu88YhVppM
p1400
sVqueryString
p1401
(lp1402
(dp1403
Vname
p1404
g415
sVvalue
p1405
Vtbn:ANd9GcS1Glf31hKzU73ZsN2XqA-wHG27jF-RMZ92KFEKzZFVqIeBmsu88YhVppM
p1406
sasVheaders
p1407
(lp1408
sVheadersSize
p1409
I426
sVbodySize
p1410
I0
sVmethod
p1411
VGET
p1412
sVhttpVersion
p1413
VHTTP/1.1
p1414
ssVtimings
p1415
(dp1416
Vcomment
p1417
g4
sVreceive
p1418
I1
sVsend
p1419
I0
sVssl
p1420
I-1
sVconnect
p1421
I-1
sVdns
p1422
I-1
sVwait
p1423
I22
sVblocked
p1424
I-1
ssVtime
p1425
I24
sVresponse
p1426
(dp1427
Vstatus
p1428
I200
sVcomment
p1429
g4
sVcookies
p1430
(lp1431
sVstatusText
p1432
VOK
p1433
sVcontent
p1434
(dp1435
VmimeType
p1436
Vimage/jpeg
p1437
sVcomment
p1438
g4
sVsize
p1439
I0
ssVheaders
p1440
(lp1441
sVheadersSize
p1442
I428
sVredirectURL
p1443
g4
sVbodySize
p1444
I2996
sVhttpVersion
p1445
VHTTP/1.1
p1446
ssa(dp1447
Vcomment
p1448
g4
sVserverIPAddress
p1449
V216.58.216.206
p1450
sVpageref
p1451
VBen Shapiro
p1452
sVstartedDateTime
p1453
V2017-04-16T08:20:19.895-05:00
p1454
sVcache
p1455
(dp1456
sVrequest
p1457
(dp1458
Vcomment
p1459
g4
sVcookies
p1460
(lp1461
sVurl
p1462
Vhttps://encrypted-tbn1.gstatic.com/images?q=tbn:ANd9GcTnxfJEEgwbVNAc-Tt-9DUkAMSrioAwFOtSBI_gPQjGy9C_YoGBXWL3nIlh
p1463
sVqueryString
p1464
(lp1465
(dp1466
Vname
p1467
g415
sVvalue
p1468
Vtbn:ANd9GcTnxfJEEgwbVNAc-Tt-9DUkAMSrioAwFOtSBI_gPQjGy9C_YoGBXWL3nIlh
p1469
sasVheaders
p1470
(lp1471
sVheadersSize
p1472
I427
sVbodySize
p1473
I0
sVmethod
p1474
VGET
p1475
sVhttpVersion
p1476
VHTTP/1.1
p1477
ssVtimings
p1478
(dp1479
Vcomment
p1480
g4
sVreceive
p1481
I2
sVsend
p1482
I0
sVssl
p1483
I-1
sVconnect
p1484
I-1
sVdns
p1485
I-1
sVwait
p1486
I24
sVblocked
p1487
I-1
ssVtime
p1488
I27
sVresponse
p1489
(dp1490
Vstatus
p1491
I200
sVcomment
p1492
g4
sVcookies
p1493
(lp1494
sVstatusText
p1495
VOK
p1496
sVcontent
p1497
(dp1498
VmimeType
p1499
Vimage/jpeg
p1500
sVcomment
p1501
g4
sVsize
p1502
I0
ssVheaders
p1503
(lp1504
sVheadersSize
p1505
I428
sVredirectURL
p1506
g4
sVbodySize
p1507
I6364
sVhttpVersion
p1508
VHTTP/1.1
p1509
ssa(dp1510
Vcomment
p1511
g4
sVserverIPAddress
p1512
V172.217.6.4
p1513
sVpageref
p1514
VBen Shapiro
p1515
sVstartedDateTime
p1516
V2017-04-16T08:20:19.986-05:00
p1517
sVcache
p1518
(dp1519
sVrequest
p1520
(dp1521
Vcomment
p1522
g4
sVcookies
p1523
(lp1524
sVurl
p1525
Vhttps://www.google.com/gen_204?s=web&atyp=csi&ei=kG_zWKDDMoy-jwTDq6SACA&imc=59&imn=59&imp=25&adh=&xjs=init.46.14.sb_mob.36.dvl.5.mbsf.2.TG8rFw.1.jsa.1&ima=15&rt=prt.968,iml.1066,xjsls.968,qiml.1261,dcl.1076,xjses.1297,xjsee.1479,xjs.1479,ol.2029,aft.1064,wsrt.134,cst.0,dnst.0,rqst.988,rspt.869,rqstt.3,unt.3,cstt.3,dit.1139
p1526
sVqueryString
p1527
(lp1528
(dp1529
Vname
p1530
g57
sVvalue
p1531
Vweb
p1532
sa(dp1533
Vname
p1534
Vatyp
p1535
sVvalue
p1536
Vcsi
p1537
sa(dp1538
Vname
p1539
Vei
p1540
sVvalue
p1541
VkG_zWKDDMoy-jwTDq6SACA
p1542
sa(dp1543
Vname
p1544
Vimc
p1545
sVvalue
p1546
V59
p1547
sa(dp1548
Vname
p1549
Vimn
p1550
sVvalue
p1551
V59
p1552
sa(dp1553
Vname
p1554
Vimp
p1555
sVvalue
p1556
V25
p1557
sa(dp1558
Vname
p1559
Vadh
p1560
sVvalue
p1561
g4
sa(dp1562
Vname
p1563
Vxjs
p1564
sVvalue
p1565
Vinit.46.14.sb_mob.36.dvl.5.mbsf.2.TG8rFw.1.jsa.1
p1566
sa(dp1567
Vname
p1568
Vima
p1569
sVvalue
p1570
V15
p1571
sa(dp1572
Vname
p1573
Vrt
p1574
sVvalue
p1575
Vprt.968,iml.1066,xjsls.968,qiml.1261,dcl.1076,xjses.1297,xjsee.1479,xjs.1479,ol.2029,aft.1064,wsrt.134,cst.0,dnst.0,rqst.988,rspt.869,rqstt.3,unt.3,cstt.3,dit.1139
p1576
sasVheaders
p1577
(lp1578
sVheadersSize
p1579
I841
sVbodySize
p1580
I0
sVmethod
p1581
VGET
p1582
sVhttpVersion
p1583
VHTTP/1.1
p1584
ssVtimings
p1585
(dp1586
Vcomment
p1587
g4
sVreceive
p1588
I0
sVsend
p1589
I0
sVssl
p1590
I-1
sVconnect
p1591
I-1
sVdns
p1592
I-1
sVwait
p1593
I28
sVblocked
p1594
I-1
ssVtime
p1595
I28
sVresponse
p1596
(dp1597
Vstatus
p1598
I204
sVcomment
p1599
g4
sVcookies
p1600
(lp1601
sVstatusText
p1602
VNo Content
p1603
sVcontent
p1604
(dp1605
VmimeType
p1606
Vtext/html; charset=UTF-8
p1607
sVcomment
p1608
g4
sVsize
p1609
I0
ssVheaders
p1610
(lp1611
sVheadersSize
p1612
I248
sVredirectURL
p1613
g4
sVbodySize
p1614
I0
sVhttpVersion
p1615
VHTTP/1.1
p1616
ssa(dp1617
Vcomment
p1618
g4
sVserverIPAddress
p1619
V172.217.6.4
p1620
sVpageref
p1621
VBen Shapiro
p1622
sVstartedDateTime
p1623
V2017-04-16T08:20:20.111-05:00
p1624
sVcache
p1625
(dp1626
sVrequest
p1627
(dp1628
Vcomment
p1629
g4
sVcookies
p1630
(lp1631
sVurl
p1632
Vhttps://www.google.com/async/log_amp_item_set?vet=10ahUKEwj2iuzJiKnTAhVC94MKHWa_AYoQooQBCAE..i&ei=kG_zWKDDMoy-jwTDq6SACA&yv=2&async=num_items:2,_fmt:jspb
p1633
sVqueryString
p1634
(lp1635
(dp1636
Vname
p1637
Vvet
p1638
sVvalue
p1639
V10ahUKEwj2iuzJiKnTAhVC94MKHWa_AYoQooQBCAE..i
p1640
sa(dp1641
Vname
p1642
Vei
p1643
sVvalue
p1644
VkG_zWKDDMoy-jwTDq6SACA
p1645
sa(dp1646
Vname
p1647
Vyv
p1648
sVvalue
p1649
g64
sa(dp1650
Vname
p1651
Vasync
p1652
sVvalue
p1653
Vnum_items:2,_fmt:jspb
p1654
sasVheaders
p1655
(lp1656
sVheadersSize
p1657
I670
sVbodySize
p1658
I0
sVmethod
p1659
VGET
p1660
sVhttpVersion
p1661
VHTTP/1.1
p1662
ssVtimings
p1663
(dp1664
Vcomment
p1665
g4
sVreceive
p1666
I0
sVsend
p1667
I0
sVssl
p1668
I-1
sVconnect
p1669
I-1
sVdns
p1670
I-1
sVwait
p1671
I46
sVblocked
p1672
I-1
ssVtime
p1673
I46
sVresponse
p1674
(dp1675
Vstatus
p1676
I200
sVcomment
p1677
g4
sVcookies
p1678
(lp1679
sVstatusText
p1680
VOK
p1681
sVcontent
p1682
(dp1683
VmimeType
p1684
Vapplication/json; charset=UTF-8
p1685
sVcomment
p1686
g4
sVsize
p1687
I0
ssVheaders
p1688
(lp1689
sVheadersSize
p1690
I417
sVredirectURL
p1691
g4
sVbodySize
p1692
I141
sVhttpVersion
p1693
VHTTP/1.1
p1694
ssa(dp1695
Vcomment
p1696
g4
sVserverIPAddress
p1697
V216.58.216.193
p1698
sVpageref
p1699
VBen Shapiro
p1700
sVstartedDateTime
p1701
V2017-04-16T08:20:20.535-05:00
p1702
sVcache
p1703
(dp1704
sVrequest
p1705
(dp1706
Vcomment
p1707
g4
sVcookies
p1708
(lp1709
sVurl
p1710
Vhttps://insider-foxnews-com.cdn.ampproject.org/v/insider.foxnews.com/amp/article/55392?amp_js_v=9
p1711
sVqueryString
p1712
(lp1713
(dp1714
Vname
p1715
Vamp_js_v
p1716
sVvalue
p1717
V9
p1718
sasVheaders
p1719
(lp1720
sVheadersSize
p1721
I502
sVbodySize
p1722
I0
sVmethod
p1723
VGET
p1724
sVhttpVersion
p1725
VHTTP/1.1
p1726
ssVtimings
p1727
(dp1728
Vcomment
p1729
g4
sVreceive
p1730
I0
sVsend
p1731
I0
sVssl
p1732
I367
sVconnect
p1733
I381
sVdns
p1734
I30
sVwait
p1735
I62
sVblocked
p1736
I0
ssVtime
p1737
I474
sVresponse
p1738
(dp1739
Vstatus
p1740
I200
sVcomment
p1741
g4
sVcookies
p1742
(lp1743
sVstatusText
p1744
VOK
p1745
sVcontent
p1746
(dp1747
VmimeType
p1748
Vtext/html
p1749
sVcomment
p1750
g4
sVsize
p1751
I0
ssVheaders
p1752
(lp1753
sVheadersSize
p1754
I861
sVredirectURL
p1755
g4
sVbodySize
p1756
I7009
sVhttpVersion
p1757
VHTTP/1.1
p1758
ssa(dp1759
Vcomment
p1760
g4
sVserverIPAddress
p1761
V216.58.216.202
p1762
sVpageref
p1763
VBen Shapiro
p1764
sVstartedDateTime
p1765
V2017-04-16T08:20:20.619-05:00
p1766
sVcache
p1767
(dp1768
sVrequest
p1769
(dp1770
Vcomment
p1771
g4
sVcookies
p1772
(lp1773
sVurl
p1774
Vhttps://fonts.googleapis.com/css?family=Roboto:400,400italic,700,700italic,900%7CRoboto+Condensed:400italic,700italic,400,700
p1775
sVqueryString
p1776
(lp1777
(dp1778
Vname
p1779
Vfamily
p1780
sVvalue
p1781
VRoboto:400,400italic,700,700italic,900|Roboto Condensed:400italic,700italic,400,700
p1782
sasVheaders
p1783
(lp1784
sVheadersSize
p1785
I529
sVbodySize
p1786
I0
sVmethod
p1787
VGET
p1788
sVhttpVersion
p1789
VHTTP/1.1
p1790
ssVtimings
p1791
(dp1792
Vcomment
p1793
g4
sVreceive
p1794
I1
sVsend
p1795
I0
sVssl
p1796
I-1
sVconnect
p1797
I-1
sVdns
p1798
I-1
sVwait
p1799
I38
sVblocked
p1800
I-1
ssVtime
p1801
I40
sVresponse
p1802
(dp1803
Vstatus
p1804
I200
sVcomment
p1805
g4
sVcookies
p1806
(lp1807
sVstatusText
p1808
VOK
p1809
sVcontent
p1810
(dp1811
VmimeType
p1812
Vtext/css; charset=utf-8
p1813
sVcomment
p1814
g4
sVsize
p1815
I0
ssVheaders
p1816
(lp1817
sVheadersSize
p1818
I405
sVredirectURL
p1819
g4
sVbodySize
p1820
I2137
sVhttpVersion
p1821
VHTTP/1.1
p1822
ssa(dp1823
Vcomment
p1824
g4
sVserverIPAddress
p1825
V216.58.216.193
p1826
sVpageref
p1827
VBen Shapiro
p1828
sVstartedDateTime
p1829
V2017-04-16T08:20:20.690-05:00
p1830
sVcache
p1831
(dp1832
sVrequest
p1833
(dp1834
Vcomment
p1835
g4
sVcookies
p1836
(lp1837
sVurl
p1838
Vhttps://insider-foxnews-com.cdn.ampproject.org/i/insider.foxnews.com/sites/insider.foxnews.com/themes/insider_boot/img/sprite-vector.svg
p1839
sVqueryString
p1840
(lp1841
sVheaders
p1842
(lp1843
sVheadersSize
p1844
I525
sVbodySize
p1845
I0
sVmethod
p1846
VGET
p1847
sVhttpVersion
p1848
VHTTP/1.1
p1849
ssVtimings
p1850
(dp1851
Vcomment
p1852
g4
sVreceive
p1853
I0
sVsend
p1854
I0
sVssl
p1855
I-1
sVconnect
p1856
I-1
sVdns
p1857
I-1
sVwait
p1858
I99
sVblocked
p1859
I-1
ssVtime
p1860
I100
sVresponse
p1861
(dp1862
Vstatus
p1863
I200
sVcomment
p1864
g4
sVcookies
p1865
(lp1866
sVstatusText
p1867
VOK
p1868
sVcontent
p1869
(dp1870
VmimeType
p1871
Vimage/svg+xml
p1872
sVcomment
p1873
g4
sVsize
p1874
I0
ssVheaders
p1875
(lp1876
sVheadersSize
p1877
I876
sVredirectURL
p1878
g4
sVbodySize
p1879
I11061
sVhttpVersion
p1880
VHTTP/1.1
p1881
ssa(dp1882
Vcomment
p1883
g4
sVserverIPAddress
p1884
V216.58.216.195
p1885
sVpageref
p1886
VBen Shapiro
p1887
sVstartedDateTime
p1888
V2017-04-16T08:20:20.702-05:00
p1889
sVcache
p1890
(dp1891
sVrequest
p1892
(dp1893
Vcomment
p1894
g4
sVcookies
p1895
(lp1896
sVurl
p1897
Vhttps://fonts.gstatic.com/s/robotocondensed/v13/b9QBgL0iMZfDSpmcXcE8nPX2or14QGUHgbhSBV1Go0E.woff2
p1898
sVqueryString
p1899
(lp1900
sVheaders
p1901
(lp1902
sVheadersSize
p1903
I624
sVbodySize
p1904
I0
sVmethod
p1905
VGET
p1906
sVhttpVersion
p1907
VHTTP/1.1
p1908
ssVtimings
p1909
(dp1910
Vcomment
p1911
g4
sVreceive
p1912
I70
sVsend
p1913
I0
sVssl
p1914
I-1
sVconnect
p1915
I-1
sVdns
p1916
I-1
sVwait
p1917
I16
sVblocked
p1918
I-1
ssVtime
p1919
I87
sVresponse
p1920
(dp1921
Vstatus
p1922
I200
sVcomment
p1923
g4
sVcookies
p1924
(lp1925
sVstatusText
p1926
VOK
p1927
sVcontent
p1928
(dp1929
VmimeType
p1930
Vfont/woff2
p1931
sVcomment
p1932
g4
sVsize
p1933
I0
ssVheaders
p1934
(lp1935
sVheadersSize
p1936
I454
sVredirectURL
p1937
g4
sVbodySize
p1938
I10308
sVhttpVersion
p1939
VHTTP/1.1
p1940
ssa(dp1941
Vcomment
p1942
g4
sVserverIPAddress
p1943
V216.58.216.195
p1944
sVpageref
p1945
VBen Shapiro
p1946
sVstartedDateTime
p1947
V2017-04-16T08:20:20.714-05:00
p1948
sVcache
p1949
(dp1950
sVrequest
p1951
(dp1952
Vcomment
p1953
g4
sVcookies
p1954
(lp1955
sVurl
p1956
Vhttps://fonts.gstatic.com/s/roboto/v15/vPcynSL0qHq_6dX7lKVByXYhjbSpvc47ee6xR_80Hnw.woff2
p1957
sVqueryString
p1958
(lp1959
sVheaders
p1960
(lp1961
sVheadersSize
p1962
I615
sVbodySize
p1963
I0
sVmethod
p1964
VGET
p1965
sVhttpVersion
p1966
VHTTP/1.1
p1967
ssVtimings
p1968
(dp1969
Vcomment
p1970
g4
sVreceive
p1971
I0
sVsend
p1972
I0
sVssl
p1973
I-1
sVconnect
p1974
I-1
sVdns
p1975
I-1
sVwait
p1976
I23
sVblocked
p1977
I-1
ssVtime
p1978
I25
sVresponse
p1979
(dp1980
Vstatus
p1981
I200
sVcomment
p1982
g4
sVcookies
p1983
(lp1984
sVstatusText
p1985
VOK
p1986
sVcontent
p1987
(dp1988
VmimeType
p1989
Vfont/woff2
p1990
sVcomment
p1991
g4
sVsize
p1992
I0
ssVheaders
p1993
(lp1994
sVheadersSize
p1995
I453
sVredirectURL
p1996
g4
sVbodySize
p1997
I11500
sVhttpVersion
p1998
VHTTP/1.1
p1999
ssa(dp2000
Vcomment
p2001
g4
sVserverIPAddress
p2002
V216.58.216.195
p2003
sVpageref
p2004
VBen Shapiro
p2005
sVstartedDateTime
p2006
V2017-04-16T08:20:20.721-05:00
p2007
sVcache
p2008
(dp2009
sVrequest
p2010
(dp2011
Vcomment
p2012
g4
sVcookies
p2013
(lp2014
sVurl
p2015
Vhttps://fonts.gstatic.com/s/robotocondensed/v13/Zd2E9abXLFGSr9G3YK2MsH4vxAoi6d67T_UKWi0EoHQ.woff2
p2016
sVqueryString
p2017
(lp2018
sVheaders
p2019
(lp2020
sVheadersSize
p2021
I624
sVbodySize
p2022
I0
sVmethod
p2023
VGET
p2024
sVhttpVersion
p2025
VHTTP/1.1
p2026
ssVtimings
p2027
(dp2028
Vcomment
p2029
g4
sVreceive
p2030
I3
sVsend
p2031
I0
sVssl
p2032
I-1
sVconnect
p2033
I-1
sVdns
p2034
I-1
sVwait
p2035
I43
sVblocked
p2036
I-1
ssVtime
p2037
I47
sVresponse
p2038
(dp2039
Vstatus
p2040
I200
sVcomment
p2041
g4
sVcookies
p2042
(lp2043
sVstatusText
p2044
VOK
p2045
sVcontent
p2046
(dp2047
VmimeType
p2048
Vfont/woff2
p2049
sVcomment
p2050
g4
sVsize
p2051
I0
ssVheaders
p2052
(lp2053
sVheadersSize
p2054
I453
sVredirectURL
p2055
g4
sVbodySize
p2056
I10260
sVhttpVersion
p2057
VHTTP/1.1
p2058
ssa(dp2059
Vcomment
p2060
g4
sVserverIPAddress
p2061
V172.217.6.4
p2062
sVpageref
p2063
VBen Shapiro
p2064
sVstartedDateTime
p2065
V2017-04-16T08:20:20.981-05:00
p2066
sVcache
p2067
(dp2068
sVrequest
p2069
(dp2070
Vcomment
p2071
g4
sVcookies
p2072
(lp2073
sVurl
p2074
Vhttps://www.google.com/gen_204?s=amp&atyp=csi&ei=kG_zWKDDMoy-jwTDq6SACA&ampexp=011492014732688&action=Prerender&rt=msr.276,is.574,mbv.722,e_is.722
p2075
sVqueryString
p2076
(lp2077
(dp2078
Vname
p2079
g57
sVvalue
p2080
Vamp
p2081
sa(dp2082
Vname
p2083
Vatyp
p2084
sVvalue
p2085
Vcsi
p2086
sa(dp2087
Vname
p2088
Vei
p2089
sVvalue
p2090
VkG_zWKDDMoy-jwTDq6SACA
p2091
sa(dp2092
Vname
p2093
Vampexp
p2094
sVvalue
p2095
V011492014732688
p2096
sa(dp2097
Vname
p2098
Vaction
p2099
sVvalue
p2100
VPrerender
p2101
sa(dp2102
Vname
p2103
Vrt
p2104
sVvalue
p2105
Vmsr.276,is.574,mbv.722,e_is.722
p2106
sasVheaders
p2107
(lp2108
sVheadersSize
p2109
I663
sVbodySize
p2110
I0
sVmethod
p2111
VGET
p2112
sVhttpVersion
p2113
VHTTP/1.1
p2114
ssVtimings
p2115
(dp2116
Vcomment
p2117
g4
sVreceive
p2118
I0
sVsend
p2119
I0
sVssl
p2120
I-1
sVconnect
p2121
I-1
sVdns
p2122
I-1
sVwait
p2123
I25
sVblocked
p2124
I-1
ssVtime
p2125
I25
sVresponse
p2126
(dp2127
Vstatus
p2128
I204
sVcomment
p2129
g4
sVcookies
p2130
(lp2131
sVstatusText
p2132
VNo Content
p2133
sVcontent
p2134
(dp2135
VmimeType
p2136
Vtext/html; charset=UTF-8
p2137
sVcomment
p2138
g4
sVsize
p2139
I0
ssVheaders
p2140
(lp2141
sVheadersSize
p2142
I248
sVredirectURL
p2143
g4
sVbodySize
p2144
I0
sVhttpVersion
p2145
VHTTP/1.1
p2146
ssa(dp2147
Vcomment
p2148
g4
sVserverIPAddress
p2149
V216.58.216.193
p2150
sVpageref
p2151
VBen Shapiro
p2152
sVstartedDateTime
p2153
V2017-04-16T08:20:21.003-05:00
p2154
sVcache
p2155
(dp2156
sVrequest
p2157
(dp2158
Vcomment
p2159
g4
sVcookies
p2160
(lp2161
sVurl
p2162
Vhttps://insider-foxnews-com.cdn.ampproject.org/i/insider.foxnews.com/sites/insider.foxnews.com/themes/insider_boot/img/0.gif
p2163
sVqueryString
p2164
(lp2165
sVheaders
p2166
(lp2167
sVheadersSize
p2168
I513
sVbodySize
p2169
I0
sVmethod
p2170
VGET
p2171
sVhttpVersion
p2172
VHTTP/1.1
p2173
ssVtimings
p2174
(dp2175
Vcomment
p2176
g4
sVreceive
p2177
I0
sVsend
p2178
I0
sVssl
p2179
I-1
sVconnect
p2180
I-1
sVdns
p2181
I-1
sVwait
p2182
I38
sVblocked
p2183
I-1
ssVtime
p2184
I38
sVresponse
p2185
(dp2186
Vstatus
p2187
I200
sVcomment
p2188
g4
sVcookies
p2189
(lp2190
sVstatusText
p2191
VOK
p2192
sVcontent
p2193
(dp2194
VmimeType
p2195
Vimage/png
p2196
sVcomment
p2197
g4
sVsize
p2198
I0
ssVheaders
p2199
(lp2200
sVheadersSize
p2201
I817
sVredirectURL
p2202
g4
sVbodySize
p2203
I67
sVhttpVersion
p2204
VHTTP/1.1
p2205
ssa(dp2206
Vcomment
p2207
g4
sVserverIPAddress
p2208
V216.58.216.193
p2209
sVpageref
p2210
VBen Shapiro
p2211
sVstartedDateTime
p2212
V2017-04-16T08:20:21.421-05:00
p2213
sVcache
p2214
(dp2215
sVrequest
p2216
(dp2217
Vcomment
p2218
g4
sVcookies
p2219
(lp2220
sVurl
p2221
Vhttps://a57-foxnews-com.cdn.ampproject.org/i/s/a57.foxnews.com/media2.foxnews.com/BrightCove/694940094001/2017/04/14/640/360/694940094001_5398927028001_5398903071001-vs.jpg
p2222
sVqueryString
p2223
(lp2224
sVheaders
p2225
(lp2226
sVheadersSize
p2227
I561
sVbodySize
p2228
I0
sVmethod
p2229
VGET
p2230
sVhttpVersion
p2231
VHTTP/1.1
p2232
ssVtimings
p2233
(dp2234
Vcomment
p2235
g4
sVreceive
p2236
I30
sVsend
p2237
I0
sVssl
p2238
I525
sVconnect
p2239
I556
sVdns
p2240
I0
sVwait
p2241
I28
sVblocked
p2242
I0
ssVtime
p2243
I615
sVresponse
p2244
(dp2245
Vstatus
p2246
I200
sVcomment
p2247
g4
sVcookies
p2248
(lp2249
sVstatusText
p2250
VOK
p2251
sVcontent
p2252
(dp2253
VmimeType
p2254
Vimage/jpeg
p2255
sVcomment
p2256
g4
sVsize
p2257
I0
ssVheaders
p2258
(lp2259
sVheadersSize
p2260
I847
sVredirectURL
p2261
g4
sVbodySize
p2262
I37878
sVhttpVersion
p2263
VHTTP/1.1
p2264
ssa(dp2265
Vcomment
p2266
g4
sVserverIPAddress
p2267
V216.58.216.193
p2268
sVpageref
p2269
VBen Shapiro
p2270
sVstartedDateTime
p2271
V2017-04-16T08:20:21.424-05:00
p2272
sVcache
p2273
(dp2274
sVrequest
p2275
(dp2276
Vcomment
p2277
g4
sVcookies
p2278
(lp2279
sVurl
p2280
Vhttps://a57-foxnews-com.cdn.ampproject.org/ii/w1200/s/a57.foxnews.com/media2.foxnews.com/BrightCove/694940094001/2017/04/14/640/360/694940094001_5398927028001_5398903071001-vs.jpg
p2281
sVqueryString
p2282
(lp2283
sVheaders
p2284
(lp2285
sVheadersSize
p2286
I568
sVbodySize
p2287
I0
sVmethod
p2288
VGET
p2289
sVhttpVersion
p2290
VHTTP/1.1
p2291
ssVtimings
p2292
(dp2293
Vcomment
p2294
g4
sVreceive
p2295
I32
sVsend
p2296
I0
sVssl
p2297
I558
sVconnect
p2298
I574
sVdns
p2299
I32
sVwait
p2300
I24
sVblocked
p2301
I0
ssVtime
p2302
I665
sVresponse
p2303
(dp2304
Vstatus
p2305
I200
sVcomment
p2306
g4
sVcookies
p2307
(lp2308
sVstatusText
p2309
VOK
p2310
sVcontent
p2311
(dp2312
VmimeType
p2313
Vimage/jpeg
p2314
sVcomment
p2315
g4
sVsize
p2316
I0
ssVheaders
p2317
(lp2318
sVheadersSize
p2319
I847
sVredirectURL
p2320
g4
sVbodySize
p2321
I37878
sVhttpVersion
p2322
VHTTP/1.1
p2323
ssa(dp2324
Vcomment
p2325
g4
sVserverIPAddress
p2326
V172.217.6.4
p2327
sVpageref
p2328
VBen Shapiro
p2329
sVstartedDateTime
p2330
V2017-04-16T08:20:21.494-05:00
p2331
sVcache
p2332
(dp2333
sVrequest
p2334
(dp2335
Vcomment
p2336
g4
sVcookies
p2337
(lp2338
sVurl
p2339
Vhttps://www.google.com/gen_204?s=amp&atyp=csi&ei=kG_zWKDDMoy-jwTDq6SACA&ampexp=011492014732688&action=Prerender&rt=pc.1
p2340
sVqueryString
p2341
(lp2342
(dp2343
Vname
p2344
g57
sVvalue
p2345
Vamp
p2346
sa(dp2347
Vname
p2348
Vatyp
p2349
sVvalue
p2350
Vcsi
p2351
sa(dp2352
Vname
p2353
Vei
p2354
sVvalue
p2355
VkG_zWKDDMoy-jwTDq6SACA
p2356
sa(dp2357
Vname
p2358
Vampexp
p2359
sVvalue
p2360
V011492014732688
p2361
sa(dp2362
Vname
p2363
Vaction
p2364
sVvalue
p2365
VPrerender
p2366
sa(dp2367
Vname
p2368
Vrt
p2369
sVvalue
p2370
Vpc.1
p2371
sasVheaders
p2372
(lp2373
sVheadersSize
p2374
I636
sVbodySize
p2375
I0
sVmethod
p2376
VGET
p2377
sVhttpVersion
p2378
VHTTP/1.1
p2379
ssVtimings
p2380
(dp2381
Vcomment
p2382
g4
sVreceive
p2383
I0
sVsend
p2384
I0
sVssl
p2385
I-1
sVconnect
p2386
I-1
sVdns
p2387
I-1
sVwait
p2388
I139
sVblocked
p2389
I-1
ssVtime
p2390
I139
sVresponse
p2391
(dp2392
Vstatus
p2393
I204
sVcomment
p2394
g4
sVcookies
p2395
(lp2396
sVstatusText
p2397
VNo Content
p2398
sVcontent
p2399
(dp2400
VmimeType
p2401
Vtext/html; charset=UTF-8
p2402
sVcomment
p2403
g4
sVsize
p2404
I0
ssVheaders
p2405
(lp2406
sVheadersSize
p2407
I248
sVredirectURL
p2408
g4
sVbodySize
p2409
I0
sVhttpVersion
p2410
VHTTP/1.1
p2411
ssa(dp2412
Vcomment
p2413
g4
sVserverIPAddress
p2414
V172.217.6.4
p2415
sVpageref
p2416
VBen Shapiro
p2417
sVstartedDateTime
p2418
V2017-04-16T08:20:21.495-05:00
p2419
sVcache
p2420
(dp2421
sVrequest
p2422
(dp2423
Vcomment
p2424
g4
sVcookies
p2425
(lp2426
sVurl
p2427
Vhttps://www.google.com/gen_204?s=amp&atyp=csi&ei=kG_zWKDDMoy-jwTDq6SACA&ampexp=011492014732688&action=Prerender&rt=ol.1372
p2428
sVqueryString
p2429
(lp2430
(dp2431
Vname
p2432
g57
sVvalue
p2433
Vamp
p2434
sa(dp2435
Vname
p2436
Vatyp
p2437
sVvalue
p2438
Vcsi
p2439
sa(dp2440
Vname
p2441
Vei
p2442
sVvalue
p2443
VkG_zWKDDMoy-jwTDq6SACA
p2444
sa(dp2445
Vname
p2446
Vampexp
p2447
sVvalue
p2448
V011492014732688
p2449
sa(dp2450
Vname
p2451
Vaction
p2452
sVvalue
p2453
VPrerender
p2454
sa(dp2455
Vname
p2456
Vrt
p2457
sVvalue
p2458
Vol.1372
p2459
sasVheaders
p2460
(lp2461
sVheadersSize
p2462
I639
sVbodySize
p2463
I0
sVmethod
p2464
VGET
p2465
sVhttpVersion
p2466
VHTTP/1.1
p2467
ssVtimings
p2468
(dp2469
Vcomment
p2470
g4
sVreceive
p2471
I0
sVsend
p2472
I0
sVssl
p2473
I-1
sVconnect
p2474
I-1
sVdns
p2475
I-1
sVwait
p2476
I27
sVblocked
p2477
I-1
ssVtime
p2478
I28
sVresponse
p2479
(dp2480
Vstatus
p2481
I204
sVcomment
p2482
g4
sVcookies
p2483
(lp2484
sVstatusText
p2485
VNo Content
p2486
sVcontent
p2487
(dp2488
VmimeType
p2489
Vtext/html; charset=UTF-8
p2490
sVcomment
p2491
g4
sVsize
p2492
I0
ssVheaders
p2493
(lp2494
sVheadersSize
p2495
I248
sVredirectURL
p2496
g4
sVbodySize
p2497
I0
sVhttpVersion
p2498
VHTTP/1.1
p2499
ssa(dp2500
Vcomment
p2501
g4
sVserverIPAddress
p2502
V172.217.6.4
p2503
sVpageref
p2504
VBen Shapiro
p2505
sVstartedDateTime
p2506
V2017-04-16T08:20:21.829-05:00
p2507
sVcache
p2508
(dp2509
sVrequest
p2510
(dp2511
Vcomment
p2512
g4
sVcookies
p2513
(lp2514
sVurl
p2515
Vhttps://www.google.com/gen_204?atyp=i&ct=slh&cad=&ei=gm_zWPftOezKjwTYrakY&m=V&t=C&s=1&v=2&pv=0.2693722252924927&me=1:1492348805423,x:2,V,0,0,1280,944:0,N,1,gm_zWPftOezKjwTYrakY:0,R,1,24,8,155,1249,458:0,R,1,25,8,155,1249,458:0,R,1,29,8,168,1249,40:0,R,1,46,8,267,1249,178:0,R,1,49,0,283,1265,197:0,R,1,89,8,462,1249,20:0,R,1,90,24,462,1217,20:0,R,1,96,8,498,1249,20:0,R,1,99,8,526,1249,20:0,R,1,146,24,623,1217,135:0,R,1,153,24,779,1217,114:0,R,1,156,24,914,1217,114:2,B,3185:11557,e,U&zx=1492348821827
p2516
sVqueryString
p2517
(lp2518
(dp2519
Vname
p2520
Vatyp
p2521
sVvalue
p2522
g30
sa(dp2523
Vname
p2524
Vct
p2525
sVvalue
p2526
Vslh
p2527
sa(dp2528
Vname
p2529
Vcad
p2530
sVvalue
p2531
g4
sa(dp2532
Vname
p2533
Vei
p2534
sVvalue
p2535
Vgm_zWPftOezKjwTYrakY
p2536
sa(dp2537
Vname
p2538
g47
sVvalue
p2539
g49
sa(dp2540
Vname
p2541
g52
sVvalue
p2542
g54
sa(dp2543
Vname
p2544
g57
sVvalue
p2545
g59
sa(dp2546
Vname
p2547
g62
sVvalue
p2548
g64
sa(dp2549
Vname
p2550
Vpv
p2551
sVvalue
p2552
V0.2693722252924927
p2553
sa(dp2554
Vname
p2555
Vme
p2556
sVvalue
p2557
V1:1492348805423,x:2,V,0,0,1280,944:0,N,1,gm_zWPftOezKjwTYrakY:0,R,1,24,8,155,1249,458:0,R,1,25,8,155,1249,458:0,R,1,29,8,168,1249,40:0,R,1,46,8,267,1249,178:0,R,1,49,0,283,1265,197:0,R,1,89,8,462,1249,20:0,R,1,90,24,462,1217,20:0,R,1,96,8,498,1249,20:0,R,1,99,8,526,1249,20:0,R,1,146,24,623,1217,135:0,R,1,153,24,779,1217,114:0,R,1,156,24,914,1217,114:2,B,3185:11557,e,U
p2558
sa(dp2559
Vname
p2560
Vzx
p2561
sVvalue
p2562
V1492348821827
p2563
sasVheaders
p2564
(lp2565
sVheadersSize
p2566
I1019
sVbodySize
p2567
I0
sVmethod
p2568
VGET
p2569
sVhttpVersion
p2570
VHTTP/1.1
p2571
ssVtimings
p2572
(dp2573
Vcomment
p2574
g4
sVreceive
p2575
I0
sVsend
p2576
I0
sVssl
p2577
I-1
sVconnect
p2578
I-1
sVdns
p2579
I-1
sVwait
p2580
I32
sVblocked
p2581
I-1
ssVtime
p2582
I32
sVresponse
p2583
(dp2584
Vstatus
p2585
I204
sVcomment
p2586
g4
sVcookies
p2587
(lp2588
sVstatusText
p2589
VNo Content
p2590
sVcontent
p2591
(dp2592
VmimeType
p2593
Vtext/html; charset=UTF-8
p2594
sVcomment
p2595
g4
sVsize
p2596
I0
ssVheaders
p2597
(lp2598
sVheadersSize
p2599
I248
sVredirectURL
p2600
g4
sVbodySize
p2601
I0
sVhttpVersion
p2602
VHTTP/1.1
p2603
ssasVversion
p2604
V1.2
p2605
sVpages
p2606
(lp2607
(dp2608
VpageTimings
p2609
(dp2610
Vcomment
p2611
g4
ssVcomment
p2612
g4
sVtitle
p2613
VBen Shapiro
p2614
sVid
p2615
VBen Shapiro
p2616
sVstartedDateTime
p2617
V2017-04-16T08:20:16.976-05:00
p2618
sasVcreator
p2619
(dp2620
Vcomment
p2621
g4
sVversion
p2622
V2.1.4
p2623
sVname
p2624
VBrowserMob Proxy
p2625
sss.