(dp0
Vlog
p1
(dp2
Vcomment
p3
V
p4
sVentries
p5
(lp6
(dp7
Vcomment
p8
g4
sVserverIPAddress
p9
V216.58.216.196
p10
sVpageref
p11
VDetroit Pistons
p12
sVstartedDateTime
p13
V2017-04-16T08:36:50.447-05:00
p14
sVcache
p15
(dp16
sVrequest
p17
(dp18
Vcomment
p19
g4
sVcookies
p20
(lp21
sVurl
p22
Vhttps://www.google.com/gen_204?atyp=i&ct=slh&cad=&ei=WnPzWN3AO8GLjwSchougBQ&m=V&t=C&s=1&v=2&pv=0.9769904341871493&me=1:1492349790824,x:3,V,0,0,1280,944:0,N,1,WnPzWN3AO8GLjwSchougBQ:0,R,1,24,0,155,1197,589:0,R,1,25,0,155,1197,587:0,R,1,78,8,752,1264,545:0,R,1,79,8,796,1264,315:0,R,1,80,0,796,1280,335:3,B,4070:19615,e,U&zx=1492349810446
p23
sVqueryString
p24
(lp25
(dp26
Vname
p27
Vatyp
p28
sVvalue
p29
Vi
p30
sa(dp31
Vname
p32
Vct
p33
sVvalue
p34
Vslh
p35
sa(dp36
Vname
p37
Vcad
p38
sVvalue
p39
g4
sa(dp40
Vname
p41
Vei
p42
sVvalue
p43
VWnPzWN3AO8GLjwSchougBQ
p44
sa(dp45
Vname
p46
Vm
p47
sVvalue
p48
VV
p49
sa(dp50
Vname
p51
Vt
p52
sVvalue
p53
VC
p54
sa(dp55
Vname
p56
Vs
p57
sVvalue
p58
V1
p59
sa(dp60
Vname
p61
Vv
p62
sVvalue
p63
V2
p64
sa(dp65
Vname
p66
Vpv
p67
sVvalue
p68
V0.9769904341871493
p69
sa(dp70
Vname
p71
Vme
p72
sVvalue
p73
V1:1492349790824,x:3,V,0,0,1280,944:0,N,1,WnPzWN3AO8GLjwSchougBQ:0,R,1,24,0,155,1197,589:0,R,1,25,0,155,1197,587:0,R,1,78,8,752,1264,545:0,R,1,79,8,796,1264,315:0,R,1,80,0,796,1280,335:3,B,4070:19615,e,U
p74
sa(dp75
Vname
p76
Vzx
p77
sVvalue
p78
V1492349810446
p79
sasVheaders
p80
(lp81
sVheadersSize
p82
I853
sVbodySize
p83
I0
sVmethod
p84
VGET
p85
sVhttpVersion
p86
VHTTP/1.1
p87
ssVtimings
p88
(dp89
Vcomment
p90
g4
sVreceive
p91
I0
sVsend
p92
I0
sVssl
p93
I-1
sVconnect
p94
I-1
sVdns
p95
I-1
sVwait
p96
I0
sVblocked
p97
I-1
ssVtime
p98
I0
sVresponse
p99
(dp100
Vstatus
p101
I0
sVcomment
p102
g4
sVcookies
p103
(lp104
sV_error
p105
VNo response received
p106
sVstatusText
p107
g4
sVcontent
p108
(dp109
VmimeType
p110
g4
sVcomment
p111
g4
sVsize
p112
I0
ssVheaders
p113
(lp114
sVheadersSize
p115
I-1
sVredirectURL
p116
g4
sVbodySize
p117
I-1
sVhttpVersion
p118
Vunknown
p119
ssa(dp120
Vcomment
p121
g4
sVserverIPAddress
p122
V216.58.216.196
p123
sVpageref
p124
VDetroit Pistons
p125
sVstartedDateTime
p126
V2017-04-16T08:36:50.452-05:00
p127
sVcache
p128
(dp129
sVrequest
p130
(dp131
Vcomment
p132
g4
sVcookies
p133
(lp134
sVurl
p135
Vhttp://www.google.com/
p136
sVqueryString
p137
(lp138
sVheaders
p139
(lp140
sVheadersSize
p141
I613
sVbodySize
p142
I0
sVmethod
p143
VGET
p144
sVhttpVersion
p145
VHTTP/1.1
p146
ssVtimings
p147
(dp148
Vcomment
p149
g4
sVreceive
p150
I0
sVsend
p151
I0
sVssl
p152
I-1
sVconnect
p153
I-1
sVdns
p154
I-1
sVwait
p155
I37
sVblocked
p156
I-1
ssVtime
p157
I37
sVresponse
p158
(dp159
Vstatus
p160
I302
sVcomment
p161
g4
sVcookies
p162
(lp163
sVstatusText
p164
VFound
p165
sVcontent
p166
(dp167
VmimeType
p168
Vtext/html; charset=UTF-8
p169
sVcomment
p170
g4
sVsize
p171
I0
ssVheaders
p172
(lp173
sVheadersSize
p174
I609
sVredirectURL
p175
Vhttps://www.google.com/?gws_rd=ssl
p176
sVbodySize
p177
I231
sVhttpVersion
p178
VHTTP/1.1
p179
ssa(dp180
Vcomment
p181
g4
sVserverIPAddress
p182
V216.58.216.196
p183
sVpageref
p184
VDetroit Pistons
p185
sVstartedDateTime
p186
V2017-04-16T08:36:50.540-05:00
p187
sVcache
p188
(dp189
sVrequest
p190
(dp191
Vcomment
p192
g4
sVcookies
p193
(lp194
sVurl
p195
Vhttps://www.google.com/?gws_rd=ssl
p196
sVqueryString
p197
(lp198
(dp199
Vname
p200
Vgws_rd
p201
sVvalue
p202
Vssl
p203
sasVheaders
p204
(lp205
sVheadersSize
p206
I607
sVbodySize
p207
I0
sVmethod
p208
VGET
p209
sVhttpVersion
p210
VHTTP/1.1
p211
ssVtimings
p212
(dp213
Vcomment
p214
g4
sVreceive
p215
I24
sVsend
p216
I0
sVssl
p217
I24
sVconnect
p218
I42
sVdns
p219
I0
sVwait
p220
I95
sVblocked
p221
I0
ssVtime
p222
I162
sVresponse
p223
(dp224
Vstatus
p225
I200
sVcomment
p226
g4
sVcookies
p227
(lp228
sVstatusText
p229
VOK
p230
sVcontent
p231
(dp232
VmimeType
p233
Vtext/html; charset=UTF-8
p234
sVcomment
p235
g4
sVsize
p236
I0
ssVheaders
p237
(lp238
sVheadersSize
p239
I721
sVredirectURL
p240
g4
sVbodySize
p241
I34291
sVhttpVersion
p242
VHTTP/1.1
p243
ssa(dp244
Vcomment
p245
g4
sVserverIPAddress
p246
V216.58.216.196
p247
sVpageref
p248
VDetroit Pistons
p249
sVstartedDateTime
p250
V2017-04-16T08:36:51.757-05:00
p251
sVcache
p252
(dp253
sVrequest
p254
(dp255
Vcomment
p256
g4
sVcookies
p257
(lp258
sVurl
p259
Vhttps://www.google.com/gen_204?s=mobilewebhp&atyp=csi&ei=cXPzWNDAIeTTjwS-sb6QDw&imc=1&imn=1&imp=0&adh=&xjs=init.34.12.sb_mob.26.dvl.4.c.1.mbsf.1.r.1&ima=1&rt=xjsls.22,prt.24,iml.24,dcl.749,xjses.906,xjsee.1028,xjs.1029,ol.1075,aft.24,wsrt.229,cst.0,dnst.0,rqst.123,rspt.125,rqstt.95,unt.49,cstt.49,dit.272
p260
sVqueryString
p261
(lp262
(dp263
Vname
p264
g57
sVvalue
p265
Vmobilewebhp
p266
sa(dp267
Vname
p268
Vatyp
p269
sVvalue
p270
Vcsi
p271
sa(dp272
Vname
p273
Vei
p274
sVvalue
p275
VcXPzWNDAIeTTjwS-sb6QDw
p276
sa(dp277
Vname
p278
Vimc
p279
sVvalue
p280
g59
sa(dp281
Vname
p282
Vimn
p283
sVvalue
p284
g59
sa(dp285
Vname
p286
Vimp
p287
sVvalue
p288
V0
p289
sa(dp290
Vname
p291
Vadh
p292
sVvalue
p293
g4
sa(dp294
Vname
p295
Vxjs
p296
sVvalue
p297
Vinit.34.12.sb_mob.26.dvl.4.c.1.mbsf.1.r.1
p298
sa(dp299
Vname
p300
Vima
p301
sVvalue
p302
g59
sa(dp303
Vname
p304
Vrt
p305
sVvalue
p306
Vxjsls.22,prt.24,iml.24,dcl.749,xjses.906,xjsee.1028,xjs.1029,ol.1075,aft.24,wsrt.229,cst.0,dnst.0,rqst.123,rspt.125,rqstt.95,unt.49,cstt.49,dit.272
p307
sasVheaders
p308
(lp309
sVheadersSize
p310
I833
sVbodySize
p311
I0
sVmethod
p312
VGET
p313
sVhttpVersion
p314
VHTTP/1.1
p315
ssVtimings
p316
(dp317
Vcomment
p318
g4
sVreceive
p319
I0
sVsend
p320
I0
sVssl
p321
I-1
sVconnect
p322
I-1
sVdns
p323
I-1
sVwait
p324
I29
sVblocked
p325
I-1
ssVtime
p326
I30
sVresponse
p327
(dp328
Vstatus
p329
I204
sVcomment
p330
g4
sVcookies
p331
(lp332
sVstatusText
p333
VNo Content
p334
sVcontent
p335
(dp336
VmimeType
p337
Vtext/html; charset=UTF-8
p338
sVcomment
p339
g4
sVsize
p340
I0
ssVheaders
p341
(lp342
sVheadersSize
p343
I248
sVredirectURL
p344
g4
sVbodySize
p345
I0
sVhttpVersion
p346
VHTTP/1.1
p347
ssa(dp348
Vcomment
p349
g4
sVserverIPAddress
p350
V216.58.216.196
p351
sVpageref
p352
VDetroit Pistons
p353
sVstartedDateTime
p354
V2017-04-16T08:36:51.877-05:00
p355
sVcache
p356
(dp357
sVrequest
p358
(dp359
Vcomment
p360
g4
sVcookies
p361
(lp362
sVurl
p363
Vhttps://www.google.com/complete/search?client=mobile-gws-hp&hl=en&gs_rn=64&gs_ri=mobile-gws-hp&sla=1&pfq=dallas%20mavericks&gm=602&cp=0&gs_id=1&xhr=t&q=D&tch=1&ech=1&psi=cXPzWNDAIeTTjwS-sb6QDw.1492349811670.1
p364
sVqueryString
p365
(lp366
(dp367
Vname
p368
Vclient
p369
sVvalue
p370
Vmobile-gws-hp
p371
sa(dp372
Vname
p373
Vhl
p374
sVvalue
p375
Ven
p376
sa(dp377
Vname
p378
Vgs_rn
p379
sVvalue
p380
V64
p381
sa(dp382
Vname
p383
Vgs_ri
p384
sVvalue
p385
Vmobile-gws-hp
p386
sa(dp387
Vname
p388
Vsla
p389
sVvalue
p390
g59
sa(dp391
Vname
p392
Vpfq
p393
sVvalue
p394
Vdallas mavericks
p395
sa(dp396
Vname
p397
Vgm
p398
sVvalue
p399
V602
p400
sa(dp401
Vname
p402
Vcp
p403
sVvalue
p404
g289
sa(dp405
Vname
p406
Vgs_id
p407
sVvalue
p408
g59
sa(dp409
Vname
p410
Vxhr
p411
sVvalue
p412
g52
sa(dp413
Vname
p414
Vq
p415
sVvalue
p416
VD
p417
sa(dp418
Vname
p419
Vtch
p420
sVvalue
p421
g59
sa(dp422
Vname
p423
Vech
p424
sVvalue
p425
g59
sa(dp426
Vname
p427
Vpsi
p428
sVvalue
p429
VcXPzWNDAIeTTjwS-sb6QDw.1492349811670.1
p430
sasVheaders
p431
(lp432
sVheadersSize
p433
I736
sVbodySize
p434
I0
sVmethod
p435
VGET
p436
sVhttpVersion
p437
VHTTP/1.1
p438
ssVtimings
p439
(dp440
Vcomment
p441
g4
sVreceive
p442
I0
sVsend
p443
I0
sVssl
p444
I-1
sVconnect
p445
I-1
sVdns
p446
I-1
sVwait
p447
I0
sVblocked
p448
I-1
ssVtime
p449
I0
sVresponse
p450
(dp451
Vstatus
p452
I0
sVcomment
p453
g4
sVcookies
p454
(lp455
sV_error
p456
VNo response received
p457
sVstatusText
p458
g4
sVcontent
p459
(dp460
VmimeType
p461
g4
sVcomment
p462
g4
sVsize
p463
I0
ssVheaders
p464
(lp465
sVheadersSize
p466
I-1
sVredirectURL
p467
g4
sVbodySize
p468
I-1
sVhttpVersion
p469
Vunknown
p470
ssa(dp471
Vcomment
p472
g4
sVserverIPAddress
p473
V216.58.216.196
p474
sVpageref
p475
VDetroit Pistons
p476
sVstartedDateTime
p477
V2017-04-16T08:36:52.009-05:00
p478
sVcache
p479
(dp480
sVrequest
p481
(dp482
Vcomment
p483
g4
sVcookies
p484
(lp485
sVurl
p486
Vhttps://www.google.com/search?site=&source=hp&ei=cXPzWNDAIeTTjwS-sb6QDw&q=Detroit+Pistons&oq=Detroit+Pistons&gs_l=mobile-gws-hp.3...178.221.0.253.15.1.0.0.0.0.0.0..0.0....0...1c.1.64.mobile-gws-hp..15.0.0.OGqrca5HN_I
p487
sVqueryString
p488
(lp489
(dp490
Vname
p491
Vsite
p492
sVvalue
p493
g4
sa(dp494
Vname
p495
Vsource
p496
sVvalue
p497
Vhp
p498
sa(dp499
Vname
p500
Vei
p501
sVvalue
p502
VcXPzWNDAIeTTjwS-sb6QDw
p503
sa(dp504
Vname
p505
g415
sVvalue
p506
VDetroit Pistons
p507
sa(dp508
Vname
p509
Voq
p510
sVvalue
p511
VDetroit Pistons
p512
sa(dp513
Vname
p514
Vgs_l
p515
sVvalue
p516
Vmobile-gws-hp.3...178.221.0.253.15.1.0.0.0.0.0.0..0.0....0...1c.1.64.mobile-gws-hp..15.0.0.OGqrca5HN_I
p517
sasVheaders
p518
(lp519
sVheadersSize
p520
I834
sVbodySize
p521
I0
sVmethod
p522
VGET
p523
sVhttpVersion
p524
VHTTP/1.1
p525
ssVtimings
p526
(dp527
Vcomment
p528
g4
sVreceive
p529
I1174
sVsend
p530
I0
sVssl
p531
I21
sVconnect
p532
I49
sVdns
p533
I0
sVwait
p534
I107
sVblocked
p535
I0
ssVtime
p536
I1330
sVresponse
p537
(dp538
Vstatus
p539
I200
sVcomment
p540
g4
sVcookies
p541
(lp542
sVstatusText
p543
VOK
p544
sVcontent
p545
(dp546
VmimeType
p547
Vtext/html; charset=UTF-8
p548
sVcomment
p549
g4
sVsize
p550
I0
ssVheaders
p551
(lp552
sVheadersSize
p553
I363
sVredirectURL
p554
g4
sVbodySize
p555
I170921
sVhttpVersion
p556
VHTTP/1.1
p557
ssa(dp558
Vcomment
p559
g4
sVserverIPAddress
p560
V216.58.216.195
p561
sVpageref
p562
VDetroit Pistons
p563
sVstartedDateTime
p564
V2017-04-16T08:36:53.243-05:00
p565
sVcache
p566
(dp567
sVrequest
p568
(dp569
Vcomment
p570
g4
sVcookies
p571
(lp572
sVurl
p573
Vhttps://ssl.gstatic.com/onebox/media/sports/logos/qvWE2FgBX0MCqFfciFBDiw_48x48.png
p574
sVqueryString
p575
(lp576
sVheaders
p577
(lp578
sVheadersSize
p579
I397
sVbodySize
p580
I0
sVmethod
p581
VGET
p582
sVhttpVersion
p583
VHTTP/1.1
p584
ssVtimings
p585
(dp586
Vcomment
p587
g4
sVreceive
p588
I1
sVsend
p589
I0
sVssl
p590
I-1
sVconnect
p591
I-1
sVdns
p592
I-1
sVwait
p593
I14
sVblocked
p594
I-1
ssVtime
p595
I16
sVresponse
p596
(dp597
Vstatus
p598
I200
sVcomment
p599
g4
sVcookies
p600
(lp601
sVstatusText
p602
VOK
p603
sVcontent
p604
(dp605
VmimeType
p606
Vimage/png
p607
sVcomment
p608
g4
sVsize
p609
I0
ssVheaders
p610
(lp611
sVheadersSize
p612
I424
sVredirectURL
p613
g4
sVbodySize
p614
I4048
sVhttpVersion
p615
VHTTP/1.1
p616
ssa(dp617
Vcomment
p618
g4
sVserverIPAddress
p619
V216.58.216.195
p620
sVpageref
p621
VDetroit Pistons
p622
sVstartedDateTime
p623
V2017-04-16T08:36:53.244-05:00
p624
sVcache
p625
(dp626
sVrequest
p627
(dp628
Vcomment
p629
g4
sVcookies
p630
(lp631
sVurl
p632
Vhttps://ssl.gstatic.com/onebox/media/sports/videos/nba/i1diVwd1plk_192x108.jpg
p633
sVqueryString
p634
(lp635
sVheaders
p636
(lp637
sVheadersSize
p638
I393
sVbodySize
p639
I0
sVmethod
p640
VGET
p641
sVhttpVersion
p642
VHTTP/1.1
p643
ssVtimings
p644
(dp645
Vcomment
p646
g4
sVreceive
p647
I0
sVsend
p648
I0
sVssl
p649
I-1
sVconnect
p650
I-1
sVdns
p651
I-1
sVwait
p652
I27
sVblocked
p653
I-1
ssVtime
p654
I28
sVresponse
p655
(dp656
Vstatus
p657
I200
sVcomment
p658
g4
sVcookies
p659
(lp660
sVstatusText
p661
VOK
p662
sVcontent
p663
(dp664
VmimeType
p665
Vimage/jpeg
p666
sVcomment
p667
g4
sVsize
p668
I0
ssVheaders
p669
(lp670
sVheadersSize
p671
I392
sVredirectURL
p672
g4
sVbodySize
p673
I9515
sVhttpVersion
p674
VHTTP/1.1
p675
ssa(dp676
Vcomment
p677
g4
sVserverIPAddress
p678
V216.58.216.195
p679
sVpageref
p680
VDetroit Pistons
p681
sVstartedDateTime
p682
V2017-04-16T08:36:53.248-05:00
p683
sVcache
p684
(dp685
sVrequest
p686
(dp687
Vcomment
p688
g4
sVcookies
p689
(lp690
sVurl
p691
Vhttps://ssl.gstatic.com/onebox/media/sports/videos/nba/s0Z8G89N9WU_192x108.jpg
p692
sVqueryString
p693
(lp694
sVheaders
p695
(lp696
sVheadersSize
p697
I393
sVbodySize
p698
I0
sVmethod
p699
VGET
p700
sVhttpVersion
p701
VHTTP/1.1
p702
ssVtimings
p703
(dp704
Vcomment
p705
g4
sVreceive
p706
I0
sVsend
p707
I0
sVssl
p708
I-1
sVconnect
p709
I-1
sVdns
p710
I-1
sVwait
p711
I30
sVblocked
p712
I-1
ssVtime
p713
I30
sVresponse
p714
(dp715
Vstatus
p716
I200
sVcomment
p717
g4
sVcookies
p718
(lp719
sVstatusText
p720
VOK
p721
sVcontent
p722
(dp723
VmimeType
p724
Vimage/jpeg
p725
sVcomment
p726
g4
sVsize
p727
I0
ssVheaders
p728
(lp729
sVheadersSize
p730
I392
sVredirectURL
p731
g4
sVbodySize
p732
I8304
sVhttpVersion
p733
VHTTP/1.1
p734
ssa(dp735
Vcomment
p736
g4
sVserverIPAddress
p737
V216.58.216.195
p738
sVpageref
p739
VDetroit Pistons
p740
sVstartedDateTime
p741
V2017-04-16T08:36:53.248-05:00
p742
sVcache
p743
(dp744
sVrequest
p745
(dp746
Vcomment
p747
g4
sVcookies
p748
(lp749
sVurl
p750
Vhttps://ssl.gstatic.com/onebox/media/sports/videos/nba/Gph1_1gKOSU_192x108.jpg
p751
sVqueryString
p752
(lp753
sVheaders
p754
(lp755
sVheadersSize
p756
I393
sVbodySize
p757
I0
sVmethod
p758
VGET
p759
sVhttpVersion
p760
VHTTP/1.1
p761
ssVtimings
p762
(dp763
Vcomment
p764
g4
sVreceive
p765
I0
sVsend
p766
I0
sVssl
p767
I-1
sVconnect
p768
I-1
sVdns
p769
I-1
sVwait
p770
I25
sVblocked
p771
I-1
ssVtime
p772
I25
sVresponse
p773
(dp774
Vstatus
p775
I200
sVcomment
p776
g4
sVcookies
p777
(lp778
sVstatusText
p779
VOK
p780
sVcontent
p781
(dp782
VmimeType
p783
Vimage/jpeg
p784
sVcomment
p785
g4
sVsize
p786
I0
ssVheaders
p787
(lp788
sVheadersSize
p789
I393
sVredirectURL
p790
g4
sVbodySize
p791
I10153
sVhttpVersion
p792
VHTTP/1.1
p793
ssa(dp794
Vcomment
p795
g4
sVserverIPAddress
p796
V216.58.216.195
p797
sVpageref
p798
VDetroit Pistons
p799
sVstartedDateTime
p800
V2017-04-16T08:36:53.248-05:00
p801
sVcache
p802
(dp803
sVrequest
p804
(dp805
Vcomment
p806
g4
sVcookies
p807
(lp808
sVurl
p809
Vhttps://ssl.gstatic.com/onebox/media/sports/logos/p69oiJ4LDsvCJUDQ3wR9PQ_48x48.png
p810
sVqueryString
p811
(lp812
sVheaders
p813
(lp814
sVheadersSize
p815
I397
sVbodySize
p816
I0
sVmethod
p817
VGET
p818
sVhttpVersion
p819
VHTTP/1.1
p820
ssVtimings
p821
(dp822
Vcomment
p823
g4
sVreceive
p824
I0
sVsend
p825
I0
sVssl
p826
I-1
sVconnect
p827
I-1
sVdns
p828
I-1
sVwait
p829
I26
sVblocked
p830
I-1
ssVtime
p831
I26
sVresponse
p832
(dp833
Vstatus
p834
I200
sVcomment
p835
g4
sVcookies
p836
(lp837
sVstatusText
p838
VOK
p839
sVcontent
p840
(dp841
VmimeType
p842
Vimage/png
p843
sVcomment
p844
g4
sVsize
p845
I0
ssVheaders
p846
(lp847
sVheadersSize
p848
I424
sVredirectURL
p849
g4
sVbodySize
p850
I3350
sVhttpVersion
p851
VHTTP/1.1
p852
ssa(dp853
Vcomment
p854
g4
sVserverIPAddress
p855
V216.58.216.196
p856
sVpageref
p857
VDetroit Pistons
p858
sVstartedDateTime
p859
V2017-04-16T08:36:55.330-05:00
p860
sVcache
p861
(dp862
sVrequest
p863
(dp864
Vcomment
p865
g4
sVcookies
p866
(lp867
sVurl
p868
Vhttps://www.google.com/xjs/_/js/k=xjs.qs.en_US.pCBXVCvTH3s.O/m=syl,syj,syn,em3,em8,em6,em7,sym,aa,abd,sy2g,sy2k,sy29,sy2j,sy2d,sy2a,sy2c,sy2f,sy2l,sy2m,sy2n,emd,async,sybn,sybi,sybo,sy1f,sy45,sy46,sy9w,sybk,sybj,sybp,sy1g,sy30,sy47,sybm,sybl,sybq,sy1h,sybh,dvl,syep,foot,ipv6,sy5g,sy5j,sy5h,sy6u,sy7d,sy7j,sy2x,sy5i,sy89,sy7e,sy23,sy2y,sy5k,sy6c,sy91,sy9b,sy9l,syhi,syhj,syhk,syhl,lr,lrli,sy32,emj,shm,sykh,tl,sy2t,sy38,em12,vs,sy66,sy67,sy4u,sy69,sykk,sykl,tnv,bct,sy48,sy3a,sy3c,sy5b,sy4x,sy4z,sy56,sy1y,sy31,sy4y,sy22,sy6i,sy4h,sy6h,sy6o,sya3,sy5d,sy25,sy6j,sy6k,sy6r,sya2,sy5e,sy6n,emb,em9,ema,sy24,sy2o,sy4c,sy65,sy6p,sy6s,sy6w,sy72,sya4,syd7,syel,syho,syhs,syhu,syhv,sio,sy6y,sycu,d3l,sy5x,qif,tabs,sy9m,syac,sy4g,sy9n,syhz,syl6,ssc,sy26,sykr,strm,sy2u,sy34,sy6l,sy6m,qkx,syf5,sy99,syf4,syfc,syfn,syf7,syff,sy1i,sy68,sy8d,syf6,syfl,syfr,syfq,syfg,sy1j,sy4q,sy5o,sy5r,sy8h,syc7,syc8,syfb,syfj,syfs,syft,syg3,syg5,syg7,emn,emo,syg4,syg6,ivg,iuci,img,sy4d,sy4f,sy4e,sy4b,shrb,dgm,sy41,tcc,twt,syj7,syj8,syj2,syjc,syj6,syj3,syjg,syjh,syje,syjd,syjk,syji,syjf,syj0,emr,ems,emt,emu,emv,emx,emy,emz,em10,em11,udlg,sy5z,atn,sy4i,sya1,ampfp/am=gCP4LtMEBXQA2RUaq_oFBISzAFA/rt=j/d=0/t=zcms/rs=ACT90oFwm4NZCwIcuuiqmthdlECdBzkhRA
p869
sVqueryString
p870
(lp871
sVheaders
p872
(lp873
sVheadersSize
p874
I1739
sVbodySize
p875
I0
sVmethod
p876
VGET
p877
sVhttpVersion
p878
VHTTP/1.1
p879
ssVtimings
p880
(dp881
Vcomment
p882
g4
sVreceive
p883
I43
sVsend
p884
I0
sVssl
p885
I-1
sVconnect
p886
I-1
sVdns
p887
I-1
sVwait
p888
I20
sVblocked
p889
I-1
ssVtime
p890
I64
sVresponse
p891
(dp892
Vstatus
p893
I200
sVcomment
p894
g4
sVcookies
p895
(lp896
sVstatusText
p897
VOK
p898
sVcontent
p899
(dp900
VmimeType
p901
Vtext/javascript; charset=UTF-8
p902
sVcomment
p903
g4
sVsize
p904
I0
ssVheaders
p905
(lp906
sVheadersSize
p907
I464
sVredirectURL
p908
g4
sVbodySize
p909
I207496
sVhttpVersion
p910
VHTTP/1.1
p911
ssa(dp912
Vcomment
p913
g4
sVserverIPAddress
p914
V216.58.216.196
p915
sVpageref
p916
VDetroit Pistons
p917
sVstartedDateTime
p918
V2017-04-16T08:36:55.809-05:00
p919
sVcache
p920
(dp921
sVrequest
p922
(dp923
Vcomment
p924
g4
sVcookies
p925
(lp926
sVurl
p927
Vhttps://www.google.com/async/irc?vet=10ahUKEwi2_fWijKnTAhXr1IMKHd4MAYcQo0EIiQM..i&ved=0ahUKEwi2_fWijKnTAhXr1IMKHd4MAYcQo0EIiQM&ei=cnPzWLb8POupjwTemYS4CA&yv=2&async=iu:1,ved:0ahUKEwi2_fWijKnTAhXr1IMKHd4MAYcQo0EIiQM,_id:irc_async,_pms:qs
p928
sVqueryString
p929
(lp930
(dp931
Vname
p932
Vvet
p933
sVvalue
p934
V10ahUKEwi2_fWijKnTAhXr1IMKHd4MAYcQo0EIiQM..i
p935
sa(dp936
Vname
p937
Vved
p938
sVvalue
p939
V0ahUKEwi2_fWijKnTAhXr1IMKHd4MAYcQo0EIiQM
p940
sa(dp941
Vname
p942
Vei
p943
sVvalue
p944
VcnPzWLb8POupjwTemYS4CA
p945
sa(dp946
Vname
p947
Vyv
p948
sVvalue
p949
g64
sa(dp950
Vname
p951
Vasync
p952
sVvalue
p953
Viu:1,ved:0ahUKEwi2_fWijKnTAhXr1IMKHd4MAYcQo0EIiQM,_id:irc_async,_pms:qs
p954
sasVheaders
p955
(lp956
sVheadersSize
p957
I752
sVbodySize
p958
I0
sVmethod
p959
VGET
p960
sVhttpVersion
p961
VHTTP/1.1
p962
ssVtimings
p963
(dp964
Vcomment
p965
g4
sVreceive
p966
I1
sVsend
p967
I0
sVssl
p968
I-1
sVconnect
p969
I-1
sVdns
p970
I-1
sVwait
p971
I38
sVblocked
p972
I-1
ssVtime
p973
I40
sVresponse
p974
(dp975
Vstatus
p976
I200
sVcomment
p977
g4
sVcookies
p978
(lp979
sVstatusText
p980
VOK
p981
sVcontent
p982
(dp983
VmimeType
p984
Vtext/html; charset=UTF-8
p985
sVcomment
p986
g4
sVsize
p987
I0
ssVheaders
p988
(lp989
sVheadersSize
p990
I383
sVredirectURL
p991
g4
sVbodySize
p992
I7789
sVhttpVersion
p993
VHTTP/1.1
p994
ssa(dp995
Vcomment
p996
g4
sVserverIPAddress
p997
V216.58.216.196
p998
sVpageref
p999
VDetroit Pistons
p1000
sVstartedDateTime
p1001
V2017-04-16T08:36:55.928-05:00
p1002
sVcache
p1003
(dp1004
sVrequest
p1005
(dp1006
Vcomment
p1007
g4
sVcookies
p1008
(lp1009
sVurl
p1010
Vhttps://www.google.com/async/ampfp?vet=10ahUKEwi2_fWijKnTAhXr1IMKHd4MAYcQtZoBCIcD..i&ei=cnPzWLb8POupjwTemYS4CA&yv=2&async=_id:ampfp-async,_pms:qs
p1011
sVqueryString
p1012
(lp1013
(dp1014
Vname
p1015
Vvet
p1016
sVvalue
p1017
V10ahUKEwi2_fWijKnTAhXr1IMKHd4MAYcQtZoBCIcD..i
p1018
sa(dp1019
Vname
p1020
Vei
p1021
sVvalue
p1022
VcnPzWLb8POupjwTemYS4CA
p1023
sa(dp1024
Vname
p1025
Vyv
p1026
sVvalue
p1027
g64
sa(dp1028
Vname
p1029
Vasync
p1030
sVvalue
p1031
V_id:ampfp-async,_pms:qs
p1032
sasVheaders
p1033
(lp1034
sVheadersSize
p1035
I662
sVbodySize
p1036
I0
sVmethod
p1037
VGET
p1038
sVhttpVersion
p1039
VHTTP/1.1
p1040
ssVtimings
p1041
(dp1042
Vcomment
p1043
g4
sVreceive
p1044
I0
sVsend
p1045
I0
sVssl
p1046
I-1
sVconnect
p1047
I-1
sVdns
p1048
I-1
sVwait
p1049
I105
sVblocked
p1050
I-1
ssVtime
p1051
I106
sVresponse
p1052
(dp1053
Vstatus
p1054
I200
sVcomment
p1055
g4
sVcookies
p1056
(lp1057
sVstatusText
p1058
VOK
p1059
sVcontent
p1060
(dp1061
VmimeType
p1062
Vtext/html; charset=UTF-8
p1063
sVcomment
p1064
g4
sVsize
p1065
I0
ssVheaders
p1066
(lp1067
sVheadersSize
p1068
I383
sVredirectURL
p1069
g4
sVbodySize
p1070
I4525
sVhttpVersion
p1071
VHTTP/1.1
p1072
ssa(dp1073
Vcomment
p1074
g4
sVserverIPAddress
p1075
V216.58.216.193
p1076
sVpageref
p1077
VDetroit Pistons
p1078
sVstartedDateTime
p1079
V2017-04-16T08:36:55.928-05:00
p1080
sVcache
p1081
(dp1082
sVrequest
p1083
(dp1084
Vcomment
p1085
g4
sVcookies
p1086
(lp1087
sVurl
p1088
Vhttps://cdn.ampproject.org/preconnect.gif?0.028620377072533953
p1089
sVqueryString
p1090
(lp1091
(dp1092
Vname
p1093
V0.028620377072533953
p1094
sVvalue
p1095
g4
sasVheaders
p1096
(lp1097
sVheadersSize
p1098
I377
sVbodySize
p1099
I0
sVmethod
p1100
VGET
p1101
sVhttpVersion
p1102
VHTTP/1.1
p1103
ssVtimings
p1104
(dp1105
Vcomment
p1106
g4
sVreceive
p1107
I0
sVsend
p1108
I0
sVssl
p1109
I-1
sVconnect
p1110
I-1
sVdns
p1111
I-1
sVwait
p1112
I115
sVblocked
p1113
I-1
ssVtime
p1114
I115
sVresponse
p1115
(dp1116
Vstatus
p1117
I200
sVcomment
p1118
g4
sVcookies
p1119
(lp1120
sVstatusText
p1121
VOK
p1122
sVcontent
p1123
(dp1124
VmimeType
p1125
Vimage/gif
p1126
sVcomment
p1127
g4
sVsize
p1128
I0
ssVheaders
p1129
(lp1130
sVheadersSize
p1131
I826
sVredirectURL
p1132
g4
sVbodySize
p1133
I37
sVhttpVersion
p1134
VHTTP/1.1
p1135
ssa(dp1136
Vcomment
p1137
g4
sVserverIPAddress
p1138
V216.58.216.196
p1139
sVpageref
p1140
VDetroit Pistons
p1141
sVstartedDateTime
p1142
V2017-04-16T08:36:56.238-05:00
p1143
sVcache
p1144
(dp1145
sVrequest
p1146
(dp1147
Vcomment
p1148
g4
sVcookies
p1149
(lp1150
sVurl
p1151
Vhttps://www.google.com/gen_204?s=web&atyp=csi&ei=cnPzWLb8POupjwTemYS4CA&imc=81&imn=81&imp=29&adh=&xjs=init.44.16.sb_mob.30.dvl.5.c.2.mbsf.2.async.2&ima=16&rt=prt.1303,iml.1566,xjsls.1304,qiml.1571,dcl.1417,xjses.3000,xjsee.3180,xjs.3180,ol.4084,aft.1566,wsrt.187,cst.0,dnst.0,rqst.1283,rspt.1285,rqstt.56,unt.4,cstt.4,dit.1521
p1152
sVqueryString
p1153
(lp1154
(dp1155
Vname
p1156
g57
sVvalue
p1157
Vweb
p1158
sa(dp1159
Vname
p1160
Vatyp
p1161
sVvalue
p1162
Vcsi
p1163
sa(dp1164
Vname
p1165
Vei
p1166
sVvalue
p1167
VcnPzWLb8POupjwTemYS4CA
p1168
sa(dp1169
Vname
p1170
Vimc
p1171
sVvalue
p1172
V81
p1173
sa(dp1174
Vname
p1175
Vimn
p1176
sVvalue
p1177
V81
p1178
sa(dp1179
Vname
p1180
Vimp
p1181
sVvalue
p1182
V29
p1183
sa(dp1184
Vname
p1185
Vadh
p1186
sVvalue
p1187
g4
sa(dp1188
Vname
p1189
Vxjs
p1190
sVvalue
p1191
Vinit.44.16.sb_mob.30.dvl.5.c.2.mbsf.2.async.2
p1192
sa(dp1193
Vname
p1194
Vima
p1195
sVvalue
p1196
V16
p1197
sa(dp1198
Vname
p1199
Vrt
p1200
sVvalue
p1201
Vprt.1303,iml.1566,xjsls.1304,qiml.1571,dcl.1417,xjses.3000,xjsee.3180,xjs.3180,ol.4084,aft.1566,wsrt.187,cst.0,dnst.0,rqst.1283,rspt.1285,rqstt.56,unt.4,cstt.4,dit.1521
p1202
sasVheaders
p1203
(lp1204
sVheadersSize
p1205
I843
sVbodySize
p1206
I0
sVmethod
p1207
VGET
p1208
sVhttpVersion
p1209
VHTTP/1.1
p1210
ssVtimings
p1211
(dp1212
Vcomment
p1213
g4
sVreceive
p1214
I0
sVsend
p1215
I0
sVssl
p1216
I-1
sVconnect
p1217
I-1
sVdns
p1218
I-1
sVwait
p1219
I85
sVblocked
p1220
I-1
ssVtime
p1221
I86
sVresponse
p1222
(dp1223
Vstatus
p1224
I204
sVcomment
p1225
g4
sVcookies
p1226
(lp1227
sVstatusText
p1228
VNo Content
p1229
sVcontent
p1230
(dp1231
VmimeType
p1232
Vtext/html; charset=UTF-8
p1233
sVcomment
p1234
g4
sVsize
p1235
I0
ssVheaders
p1236
(lp1237
sVheadersSize
p1238
I248
sVredirectURL
p1239
g4
sVbodySize
p1240
I0
sVhttpVersion
p1241
VHTTP/1.1
p1242
ssa(dp1243
Vcomment
p1244
g4
sVserverIPAddress
p1245
V216.58.216.196
p1246
sVpageref
p1247
VDetroit Pistons
p1248
sVstartedDateTime
p1249
V2017-04-16T08:36:56.362-05:00
p1250
sVcache
p1251
(dp1252
sVrequest
p1253
(dp1254
Vcomment
p1255
g4
sVcookies
p1256
(lp1257
sVurl
p1258
Vhttps://www.google.com/async/log_amp_item_set?vet=10ahUKEwjujOWkjKnTAhUL6IMKHemkCR0QooQBCAE..i&ei=cnPzWLb8POupjwTemYS4CA&yv=2&async=num_items:1,_fmt:jspb
p1259
sVqueryString
p1260
(lp1261
(dp1262
Vname
p1263
Vvet
p1264
sVvalue
p1265
V10ahUKEwjujOWkjKnTAhUL6IMKHemkCR0QooQBCAE..i
p1266
sa(dp1267
Vname
p1268
Vei
p1269
sVvalue
p1270
VcnPzWLb8POupjwTemYS4CA
p1271
sa(dp1272
Vname
p1273
Vyv
p1274
sVvalue
p1275
g64
sa(dp1276
Vname
p1277
Vasync
p1278
sVvalue
p1279
Vnum_items:1,_fmt:jspb
p1280
sasVheaders
p1281
(lp1282
sVheadersSize
p1283
I670
sVbodySize
p1284
I0
sVmethod
p1285
VGET
p1286
sVhttpVersion
p1287
VHTTP/1.1
p1288
ssVtimings
p1289
(dp1290
Vcomment
p1291
g4
sVreceive
p1292
I0
sVsend
p1293
I0
sVssl
p1294
I45
sVconnect
p1295
I57
sVdns
p1296
I0
sVwait
p1297
I129
sVblocked
p1298
I0
ssVtime
p1299
I187
sVresponse
p1300
(dp1301
Vstatus
p1302
I200
sVcomment
p1303
g4
sVcookies
p1304
(lp1305
sVstatusText
p1306
VOK
p1307
sVcontent
p1308
(dp1309
VmimeType
p1310
Vapplication/json; charset=UTF-8
p1311
sVcomment
p1312
g4
sVsize
p1313
I0
ssVheaders
p1314
(lp1315
sVheadersSize
p1316
I417
sVredirectURL
p1317
g4
sVbodySize
p1318
I132
sVhttpVersion
p1319
VHTTP/1.1
p1320
ssa(dp1321
Vcomment
p1322
g4
sVserverIPAddress
p1323
V216.58.216.193
p1324
sVpageref
p1325
VDetroit Pistons
p1326
sVstartedDateTime
p1327
V2017-04-16T08:36:56.923-05:00
p1328
sVcache
p1329
(dp1330
sVrequest
p1331
(dp1332
Vcomment
p1333
g4
sVcookies
p1334
(lp1335
sVurl
p1336
Vhttps://pistonpowered-com.cdn.ampproject.org/v/s/pistonpowered.com/2017/04/15/detroit-pistons-stan-van-gundy-tweaks/amp/?amp_js_v=9
p1337
sVqueryString
p1338
(lp1339
(dp1340
Vname
p1341
Vamp_js_v
p1342
sVvalue
p1343
V9
p1344
sasVheaders
p1345
(lp1346
sVheadersSize
p1347
I536
sVbodySize
p1348
I0
sVmethod
p1349
VGET
p1350
sVhttpVersion
p1351
VHTTP/1.1
p1352
ssVtimings
p1353
(dp1354
Vcomment
p1355
g4
sVreceive
p1356
I6
sVsend
p1357
I0
sVssl
p1358
I491
sVconnect
p1359
I567
sVdns
p1360
I41
sVwait
p1361
I59
sVblocked
p1362
I0
ssVtime
p1363
I674
sVresponse
p1364
(dp1365
Vstatus
p1366
I200
sVcomment
p1367
g4
sVcookies
p1368
(lp1369
sVstatusText
p1370
VOK
p1371
sVcontent
p1372
(dp1373
VmimeType
p1374
Vtext/html
p1375
sVcomment
p1376
g4
sVsize
p1377
I0
ssVheaders
p1378
(lp1379
sVheadersSize
p1380
I861
sVredirectURL
p1381
g4
sVbodySize
p1382
I9085
sVhttpVersion
p1383
VHTTP/1.1
p1384
ssa(dp1385
Vcomment
p1386
g4
sVserverIPAddress
p1387
V216.58.216.193
p1388
sVpageref
p1389
VDetroit Pistons
p1390
sVstartedDateTime
p1391
V2017-04-16T08:36:57.377-05:00
p1392
sVcache
p1393
(dp1394
sVrequest
p1395
(dp1396
Vcomment
p1397
g4
sVcookies
p1398
(lp1399
sVurl
p1400
Vhttps://cdn-fansided-com.cdn.ampproject.org/i/s/cdn.fansided.com/wp-content/themes/fansided-v5/assets/images/fansided-logo.svg
p1401
sVqueryString
p1402
(lp1403
sVheaders
p1404
(lp1405
sVheadersSize
p1406
I549
sVbodySize
p1407
I0
sVmethod
p1408
VGET
p1409
sVhttpVersion
p1410
VHTTP/1.1
p1411
ssVtimings
p1412
(dp1413
Vcomment
p1414
g4
sVreceive
p1415
I0
sVsend
p1416
I0
sVssl
p1417
I304
sVconnect
p1418
I316
sVdns
p1419
I38
sVwait
p1420
I37
sVblocked
p1421
I0
ssVtime
p1422
I392
sVresponse
p1423
(dp1424
Vstatus
p1425
I200
sVcomment
p1426
g4
sVcookies
p1427
(lp1428
sVstatusText
p1429
VOK
p1430
sVcontent
p1431
(dp1432
VmimeType
p1433
Vimage/svg+xml
p1434
sVcomment
p1435
g4
sVsize
p1436
I0
ssVheaders
p1437
(lp1438
sVheadersSize
p1439
I880
sVredirectURL
p1440
g4
sVbodySize
p1441
I3004
sVhttpVersion
p1442
VHTTP/1.1
p1443
ssa(dp1444
Vcomment
p1445
g4
sVserverIPAddress
p1446
V216.58.216.193
p1447
sVpageref
p1448
VDetroit Pistons
p1449
sVstartedDateTime
p1450
V2017-04-16T08:36:57.410-05:00
p1451
sVcache
p1452
(dp1453
sVrequest
p1454
(dp1455
Vcomment
p1456
g4
sVcookies
p1457
(lp1458
sVurl
p1459
Vhttps://pistonpowered-com.cdn.ampproject.org/ii/w1200/s/pistonpowered.com/wp-content/uploads/usat-images/2017/04/10005549-nba-washington-wizards-at-detroit-pistons-850x560.jpeg
p1460
sVqueryString
p1461
(lp1462
sVheaders
p1463
(lp1464
sVheadersSize
p1465
I599
sVbodySize
p1466
I0
sVmethod
p1467
VGET
p1468
sVhttpVersion
p1469
VHTTP/1.1
p1470
ssVtimings
p1471
(dp1472
Vcomment
p1473
g4
sVreceive
p1474
I31
sVsend
p1475
I4
sVssl
p1476
I-1
sVconnect
p1477
I-1
sVdns
p1478
I-1
sVwait
p1479
I84
sVblocked
p1480
I-1
ssVtime
p1481
I121
sVresponse
p1482
(dp1483
Vstatus
p1484
I200
sVcomment
p1485
g4
sVcookies
p1486
(lp1487
sVstatusText
p1488
VOK
p1489
sVcontent
p1490
(dp1491
VmimeType
p1492
Vimage/jpeg
p1493
sVcomment
p1494
g4
sVsize
p1495
I0
ssVheaders
p1496
(lp1497
sVheadersSize
p1498
I849
sVredirectURL
p1499
g4
sVbodySize
p1500
I45097
sVhttpVersion
p1501
VHTTP/1.1
p1502
ssa(dp1503
Vcomment
p1504
g4
sVserverIPAddress
p1505
V216.58.216.193
p1506
sVpageref
p1507
VDetroit Pistons
p1508
sVstartedDateTime
p1509
V2017-04-16T08:36:57.418-05:00
p1510
sVcache
p1511
(dp1512
sVrequest
p1513
(dp1514
Vcomment
p1515
g4
sVcookies
p1516
(lp1517
sVurl
p1518
Vhttps://cdn.ampproject.org/rtv/011492014732688/v0/amp-ad-network-triplelift-impl-0.1.js
p1519
sVqueryString
p1520
(lp1521
sVheaders
p1522
(lp1523
sVheadersSize
p1524
I510
sVbodySize
p1525
I0
sVmethod
p1526
VGET
p1527
sVhttpVersion
p1528
VHTTP/1.1
p1529
ssVtimings
p1530
(dp1531
Vcomment
p1532
g4
sVreceive
p1533
I11
sVsend
p1534
I1
sVssl
p1535
I-1
sVconnect
p1536
I-1
sVdns
p1537
I-1
sVwait
p1538
I17
sVblocked
p1539
I-1
ssVtime
p1540
I30
sVresponse
p1541
(dp1542
Vstatus
p1543
I200
sVcomment
p1544
g4
sVcookies
p1545
(lp1546
sVstatusText
p1547
VOK
p1548
sVcontent
p1549
(dp1550
VmimeType
p1551
Vtext/javascript
p1552
sVcomment
p1553
g4
sVsize
p1554
I0
ssVheaders
p1555
(lp1556
sVheadersSize
p1557
I1166
sVredirectURL
p1558
g4
sVbodySize
p1559
I17271
sVhttpVersion
p1560
VHTTP/1.1
p1561
ssa(dp1562
Vcomment
p1563
g4
sVserverIPAddress
p1564
V216.58.216.193
p1565
sVpageref
p1566
VDetroit Pistons
p1567
sVstartedDateTime
p1568
V2017-04-16T08:36:57.453-05:00
p1569
sVcache
p1570
(dp1571
sVrequest
p1572
(dp1573
Vcomment
p1574
g4
sVcookies
p1575
(lp1576
sVurl
p1577
Vhttps://fonts-gstatic-com.cdn.ampproject.org/r/s/fonts.gstatic.com/s/titilliumweb/v4/anMUvcNT0H1YN4FII8wpr0bathaSTBR2c4i13_wzlb0.woff
p1578
sVqueryString
p1579
(lp1580
sVheaders
p1581
(lp1582
sVheadersSize
p1583
I664
sVbodySize
p1584
I0
sVmethod
p1585
VGET
p1586
sVhttpVersion
p1587
VHTTP/1.1
p1588
ssVtimings
p1589
(dp1590
Vcomment
p1591
g4
sVreceive
p1592
I19
sVsend
p1593
I0
sVssl
p1594
I315
sVconnect
p1595
I350
sVdns
p1596
I33
sVwait
p1597
I26
sVblocked
p1598
I0
ssVtime
p1599
I429
sVresponse
p1600
(dp1601
Vstatus
p1602
I200
sVcomment
p1603
g4
sVcookies
p1604
(lp1605
sVstatusText
p1606
VOK
p1607
sVcontent
p1608
(dp1609
VmimeType
p1610
Vfont/woff
p1611
sVcomment
p1612
g4
sVsize
p1613
I0
ssVheaders
p1614
(lp1615
sVheadersSize
p1616
I857
sVredirectURL
p1617
g4
sVbodySize
p1618
I14692
sVhttpVersion
p1619
VHTTP/1.1
p1620
ssa(dp1621
Vcomment
p1622
g4
sVserverIPAddress
p1623
V216.58.216.193
p1624
sVpageref
p1625
VDetroit Pistons
p1626
sVstartedDateTime
p1627
V2017-04-16T08:36:57.458-05:00
p1628
sVcache
p1629
(dp1630
sVrequest
p1631
(dp1632
Vcomment
p1633
g4
sVcookies
p1634
(lp1635
sVurl
p1636
Vhttps://fonts-gstatic-com.cdn.ampproject.org/r/s/fonts.gstatic.com/s/oswald/v10/Y_TKV6o8WovbUd3m_X9aAA.ttf
p1637
sVqueryString
p1638
(lp1639
sVheaders
p1640
(lp1641
sVheadersSize
p1642
I646
sVbodySize
p1643
I0
sVmethod
p1644
VGET
p1645
sVhttpVersion
p1646
VHTTP/1.1
p1647
ssVtimings
p1648
(dp1649
Vcomment
p1650
g4
sVreceive
p1651
I29
sVsend
p1652
I0
sVssl
p1653
I325
sVconnect
p1654
I354
sVdns
p1655
I38
sVwait
p1656
I30
sVblocked
p1657
I0
ssVtime
p1658
I453
sVresponse
p1659
(dp1660
Vstatus
p1661
I200
sVcomment
p1662
g4
sVcookies
p1663
(lp1664
sVstatusText
p1665
VOK
p1666
sVcontent
p1667
(dp1668
VmimeType
p1669
Vfont/ttf
p1670
sVcomment
p1671
g4
sVsize
p1672
I0
ssVheaders
p1673
(lp1674
sVheadersSize
p1675
I908
sVredirectURL
p1676
g4
sVbodySize
p1677
I19914
sVhttpVersion
p1678
VHTTP/1.1
p1679
ssa(dp1680
Vcomment
p1681
g4
sVserverIPAddress
p1682
V216.58.216.193
p1683
sVpageref
p1684
VDetroit Pistons
p1685
sVstartedDateTime
p1686
V2017-04-16T08:36:57.472-05:00
p1687
sVcache
p1688
(dp1689
sVrequest
p1690
(dp1691
Vcomment
p1692
g4
sVcookies
p1693
(lp1694
sVurl
p1695
Vhttps://fonts-gstatic-com.cdn.ampproject.org/r/s/fonts.gstatic.com/s/titilliumweb/v4/anMUvcNT0H1YN4FII8wpr24bNCNEoFTpS2BTjF6FB5E.woff
p1696
sVqueryString
p1697
(lp1698
sVheaders
p1699
(lp1700
sVheadersSize
p1701
I664
sVbodySize
p1702
I0
sVmethod
p1703
VGET
p1704
sVhttpVersion
p1705
VHTTP/1.1
p1706
ssVtimings
p1707
(dp1708
Vcomment
p1709
g4
sVreceive
p1710
I26
sVsend
p1711
I0
sVssl
p1712
I327
sVconnect
p1713
I363
sVdns
p1714
I37
sVwait
p1715
I32
sVblocked
p1716
I0
ssVtime
p1717
I460
sVresponse
p1718
(dp1719
Vstatus
p1720
I200
sVcomment
p1721
g4
sVcookies
p1722
(lp1723
sVstatusText
p1724
VOK
p1725
sVcontent
p1726
(dp1727
VmimeType
p1728
Vfont/woff
p1729
sVcomment
p1730
g4
sVsize
p1731
I0
ssVheaders
p1732
(lp1733
sVheadersSize
p1734
I857
sVredirectURL
p1735
g4
sVbodySize
p1736
I15568
sVhttpVersion
p1737
VHTTP/1.1
p1738
ssa(dp1739
Vcomment
p1740
g4
sVserverIPAddress
p1741
V216.58.216.193
p1742
sVpageref
p1743
VDetroit Pistons
p1744
sVstartedDateTime
p1745
V2017-04-16T08:36:57.472-05:00
p1746
sVcache
p1747
(dp1748
sVrequest
p1749
(dp1750
Vcomment
p1751
g4
sVcookies
p1752
(lp1753
sVurl
p1754
Vhttps://fonts-gstatic-com.cdn.ampproject.org/r/s/fonts.gstatic.com/s/oswald/v10/bH7276GfdCjMjApa_dkG6aCWcynf_cDxXwCLxiixG1c.ttf
p1755
sVqueryString
p1756
(lp1757
sVheaders
p1758
(lp1759
sVheadersSize
p1760
I667
sVbodySize
p1761
I0
sVmethod
p1762
VGET
p1763
sVhttpVersion
p1764
VHTTP/1.1
p1765
ssVtimings
p1766
(dp1767
Vcomment
p1768
g4
sVreceive
p1769
I32
sVsend
p1770
I0
sVssl
p1771
I341
sVconnect
p1772
I375
sVdns
p1773
I33
sVwait
p1774
I32
sVblocked
p1775
I0
ssVtime
p1776
I473
sVresponse
p1777
(dp1778
Vstatus
p1779
I200
sVcomment
p1780
g4
sVcookies
p1781
(lp1782
sVstatusText
p1783
VOK
p1784
sVcontent
p1785
(dp1786
VmimeType
p1787
Vfont/ttf
p1788
sVcomment
p1789
g4
sVsize
p1790
I0
ssVheaders
p1791
(lp1792
sVheadersSize
p1793
I908
sVredirectURL
p1794
g4
sVbodySize
p1795
I21968
sVhttpVersion
p1796
VHTTP/1.1
p1797
ssa(dp1798
Vcomment
p1799
g4
sVserverIPAddress
p1800
V216.58.216.193
p1801
sVpageref
p1802
VDetroit Pistons
p1803
sVstartedDateTime
p1804
V2017-04-16T08:36:57.473-05:00
p1805
sVcache
p1806
(dp1807
sVrequest
p1808
(dp1809
Vcomment
p1810
g4
sVcookies
p1811
(lp1812
sVurl
p1813
Vhttps://fonts-gstatic-com.cdn.ampproject.org/r/s/fonts.gstatic.com/s/oswald/v10/HqHm7BVC_nzzTui2lzQTDaCWcynf_cDxXwCLxiixG1c.ttf
p1814
sVqueryString
p1815
(lp1816
sVheaders
p1817
(lp1818
sVheadersSize
p1819
I667
sVbodySize
p1820
I0
sVmethod
p1821
VGET
p1822
sVhttpVersion
p1823
VHTTP/1.1
p1824
ssVtimings
p1825
(dp1826
Vcomment
p1827
g4
sVreceive
p1828
I22
sVsend
p1829
I0
sVssl
p1830
I343
sVconnect
p1831
I375
sVdns
p1832
I30
sVwait
p1833
I42
sVblocked
p1834
I0
ssVtime
p1835
I470
sVresponse
p1836
(dp1837
Vstatus
p1838
I200
sVcomment
p1839
g4
sVcookies
p1840
(lp1841
sVstatusText
p1842
VOK
p1843
sVcontent
p1844
(dp1845
VmimeType
p1846
Vfont/ttf
p1847
sVcomment
p1848
g4
sVsize
p1849
I0
ssVheaders
p1850
(lp1851
sVheadersSize
p1852
I908
sVredirectURL
p1853
g4
sVbodySize
p1854
I18784
sVhttpVersion
p1855
VHTTP/1.1
p1856
ssa(dp1857
Vcomment
p1858
g4
sVserverIPAddress
p1859
V216.58.216.193
p1860
sVpageref
p1861
VDetroit Pistons
p1862
sVstartedDateTime
p1863
V2017-04-16T08:36:57.524-05:00
p1864
sVcache
p1865
(dp1866
sVrequest
p1867
(dp1868
Vcomment
p1869
g4
sVcookies
p1870
(lp1871
sVurl
p1872
Vhttps://fonts-gstatic-com.cdn.ampproject.org/r/s/fonts.gstatic.com/s/titilliumweb/v4/7XUFZ5tgS-tD6QamInJTcdGU7DQ8I6RFMlK0vgclk7w.woff
p1873
sVqueryString
p1874
(lp1875
sVheaders
p1876
(lp1877
sVheadersSize
p1878
I664
sVbodySize
p1879
I0
sVmethod
p1880
VGET
p1881
sVhttpVersion
p1882
VHTTP/1.1
p1883
ssVtimings
p1884
(dp1885
Vcomment
p1886
g4
sVreceive
p1887
I15
sVsend
p1888
I0
sVssl
p1889
I398
sVconnect
p1890
I427
sVdns
p1891
I33
sVwait
p1892
I28
sVblocked
p1893
I0
ssVtime
p1894
I504
sVresponse
p1895
(dp1896
Vstatus
p1897
I200
sVcomment
p1898
g4
sVcookies
p1899
(lp1900
sVstatusText
p1901
VOK
p1902
sVcontent
p1903
(dp1904
VmimeType
p1905
Vfont/woff
p1906
sVcomment
p1907
g4
sVsize
p1908
I0
ssVheaders
p1909
(lp1910
sVheadersSize
p1911
I857
sVredirectURL
p1912
g4
sVbodySize
p1913
I15504
sVhttpVersion
p1914
VHTTP/1.1
p1915
ssa(dp1916
Vcomment
p1917
g4
sVserverIPAddress
p1918
V216.58.216.196
p1919
sVpageref
p1920
VDetroit Pistons
p1921
sVstartedDateTime
p1922
V2017-04-16T08:36:57.896-05:00
p1923
sVcache
p1924
(dp1925
sVrequest
p1926
(dp1927
Vcomment
p1928
g4
sVcookies
p1929
(lp1930
sVurl
p1931
Vhttps://www.google.com/gen_204?atyp=i&ct=slh&cad=&ei=WnPzWN3AO8GLjwSchougBQ&m=V&t=C&s=1&v=2&pv=0.9769904341871493&me=1:1492349790824,x:3,V,0,0,1280,944:0,N,1,WnPzWN3AO8GLjwSchougBQ:0,R,1,24,0,155,1197,589:0,R,1,25,0,155,1197,587:0,R,1,78,8,752,1264,545:0,R,1,79,8,796,1264,315:0,R,1,80,0,796,1280,335:3,B,4070:19615,e,U&zx=1492349817887
p1932
sVqueryString
p1933
(lp1934
(dp1935
Vname
p1936
Vatyp
p1937
sVvalue
p1938
g30
sa(dp1939
Vname
p1940
Vct
p1941
sVvalue
p1942
Vslh
p1943
sa(dp1944
Vname
p1945
Vcad
p1946
sVvalue
p1947
g4
sa(dp1948
Vname
p1949
Vei
p1950
sVvalue
p1951
VWnPzWN3AO8GLjwSchougBQ
p1952
sa(dp1953
Vname
p1954
g47
sVvalue
p1955
g49
sa(dp1956
Vname
p1957
g52
sVvalue
p1958
g54
sa(dp1959
Vname
p1960
g57
sVvalue
p1961
g59
sa(dp1962
Vname
p1963
g62
sVvalue
p1964
g64
sa(dp1965
Vname
p1966
Vpv
p1967
sVvalue
p1968
V0.9769904341871493
p1969
sa(dp1970
Vname
p1971
Vme
p1972
sVvalue
p1973
V1:1492349790824,x:3,V,0,0,1280,944:0,N,1,WnPzWN3AO8GLjwSchougBQ:0,R,1,24,0,155,1197,589:0,R,1,25,0,155,1197,587:0,R,1,78,8,752,1264,545:0,R,1,79,8,796,1264,315:0,R,1,80,0,796,1280,335:3,B,4070:19615,e,U
p1974
sa(dp1975
Vname
p1976
Vzx
p1977
sVvalue
p1978
V1492349817887
p1979
sasVheaders
p1980
(lp1981
sVheadersSize
p1982
I853
sVbodySize
p1983
I0
sVmethod
p1984
VGET
p1985
sVhttpVersion
p1986
VHTTP/1.1
p1987
ssVtimings
p1988
(dp1989
Vcomment
p1990
g4
sVreceive
p1991
I0
sVsend
p1992
I0
sVssl
p1993
I-1
sVconnect
p1994
I-1
sVdns
p1995
I-1
sVwait
p1996
I32
sVblocked
p1997
I-1
ssVtime
p1998
I32
sVresponse
p1999
(dp2000
Vstatus
p2001
I204
sVcomment
p2002
g4
sVcookies
p2003
(lp2004
sVstatusText
p2005
VNo Content
p2006
sVcontent
p2007
(dp2008
VmimeType
p2009
Vtext/html; charset=UTF-8
p2010
sVcomment
p2011
g4
sVsize
p2012
I0
ssVheaders
p2013
(lp2014
sVheadersSize
p2015
I248
sVredirectURL
p2016
g4
sVbodySize
p2017
I0
sVhttpVersion
p2018
VHTTP/1.1
p2019
ssa(dp2020
Vcomment
p2021
g4
sVserverIPAddress
p2022
V104.19.204.29
p2023
sVpageref
p2024
VDetroit Pistons
p2025
sVstartedDateTime
p2026
V2017-04-16T08:36:58.808-05:00
p2027
sVcache
p2028
(dp2029
sVrequest
p2030
(dp2031
Vcomment
p2032
g4
sVcookies
p2033
(lp2034
sVurl
p2035
Vhttps://amp.cloudflare.com/amp-ad-verifying-keyset.json
p2036
sVqueryString
p2037
(lp2038
sVheaders
p2039
(lp2040
sVheadersSize
p2041
I545
sVbodySize
p2042
I0
sVmethod
p2043
VGET
p2044
sVhttpVersion
p2045
VHTTP/1.1
p2046
ssVtimings
p2047
(dp2048
Vcomment
p2049
g4
sVreceive
p2050
I0
sVsend
p2051
I0
sVssl
p2052
I1061
sVconnect
p2053
I1075
sVdns
p2054
I52
sVwait
p2055
I20
sVblocked
p2056
I0
ssVtime
p2057
I1148
sVresponse
p2058
(dp2059
Vstatus
p2060
I200
sVcomment
p2061
g4
sVcookies
p2062
(lp2063
sVstatusText
p2064
VOK
p2065
sVcontent
p2066
(dp2067
VmimeType
p2068
Vapplication/jwk-set+json
p2069
sVcomment
p2070
g4
sVsize
p2071
I0
ssVheaders
p2072
(lp2073
sVheadersSize
p2074
I588
sVredirectURL
p2075
g4
sVbodySize
p2076
I451
sVhttpVersion
p2077
VHTTP/1.1
p2078
ssasVversion
p2079
V1.2
p2080
sVpages
p2081
(lp2082
(dp2083
VpageTimings
p2084
(dp2085
Vcomment
p2086
g4
ssVcomment
p2087
g4
sVtitle
p2088
VDetroit Pistons
p2089
sVid
p2090
VDetroit Pistons
p2091
sVstartedDateTime
p2092
V2017-04-16T08:36:50.437-05:00
p2093
sasVcreator
p2094
(dp2095
Vcomment
p2096
g4
sVversion
p2097
V2.1.4
p2098
sVname
p2099
VBrowserMob Proxy
p2100
sss.