(dp0
Vlog
p1
(dp2
Vcomment
p3
V
p4
sVentries
p5
(lp6
(dp7
Vcomment
p8
g4
sVserverIPAddress
p9
V216.58.216.196
p10
sVpageref
p11
VCam Newton
p12
sVstartedDateTime
p13
V2017-04-16T08:03:35.590-05:00
p14
sVcache
p15
(dp16
sVrequest
p17
(dp18
Vcomment
p19
g4
sVcookies
p20
(lp21
sVurl
p22
Vhttps://www.google.com/gen_204?atyp=i&ct=slh&cad=&ei=j2vzWKicPKbUjwTI3aaACQ&m=V&t=C&s=1&v=2&pv=0.8407823720126577&me=1:1492347794319,x:1,V,0,0,1280,944:0,N,1,j2vzWKicPKbUjwTI3aaACQ:0,R,1,24,8,155,1249,251:0,R,1,34,8,416,1249,437:0,R,1,35,8,416,1249,437:0,R,1,38,8,429,1249,40:0,R,1,51,8,481,1249,178:0,R,1,54,0,497,1265,197:0,R,1,94,8,676,1249,40:0,R,1,95,24,676,1217,40:0,R,1,101,8,732,1249,20:0,R,1,108,8,760,1249,20:0,R,1,149,24,863,1217,135:2,B,3408:21267,e,U&zx=1492347815589
p23
sVqueryString
p24
(lp25
(dp26
Vname
p27
Vatyp
p28
sVvalue
p29
Vi
p30
sa(dp31
Vname
p32
Vct
p33
sVvalue
p34
Vslh
p35
sa(dp36
Vname
p37
Vcad
p38
sVvalue
p39
g4
sa(dp40
Vname
p41
Vei
p42
sVvalue
p43
Vj2vzWKicPKbUjwTI3aaACQ
p44
sa(dp45
Vname
p46
Vm
p47
sVvalue
p48
VV
p49
sa(dp50
Vname
p51
Vt
p52
sVvalue
p53
VC
p54
sa(dp55
Vname
p56
Vs
p57
sVvalue
p58
V1
p59
sa(dp60
Vname
p61
Vv
p62
sVvalue
p63
V2
p64
sa(dp65
Vname
p66
Vpv
p67
sVvalue
p68
V0.8407823720126577
p69
sa(dp70
Vname
p71
Vme
p72
sVvalue
p73
V1:1492347794319,x:1,V,0,0,1280,944:0,N,1,j2vzWKicPKbUjwTI3aaACQ:0,R,1,24,8,155,1249,251:0,R,1,34,8,416,1249,437:0,R,1,35,8,416,1249,437:0,R,1,38,8,429,1249,40:0,R,1,51,8,481,1249,178:0,R,1,54,0,497,1265,197:0,R,1,94,8,676,1249,40:0,R,1,95,24,676,1217,40:0,R,1,101,8,732,1249,20:0,R,1,108,8,760,1249,20:0,R,1,149,24,863,1217,135:2,B,3408:21267,e,U
p74
sa(dp75
Vname
p76
Vzx
p77
sVvalue
p78
V1492347815589
p79
sasVheaders
p80
(lp81
sVheadersSize
p82
I997
sVbodySize
p83
I0
sVmethod
p84
VGET
p85
sVhttpVersion
p86
VHTTP/1.1
p87
ssVtimings
p88
(dp89
Vcomment
p90
g4
sVreceive
p91
I0
sVsend
p92
I0
sVssl
p93
I-1
sVconnect
p94
I-1
sVdns
p95
I-1
sVwait
p96
I0
sVblocked
p97
I-1
ssVtime
p98
I0
sVresponse
p99
(dp100
Vstatus
p101
I0
sVcomment
p102
g4
sVcookies
p103
(lp104
sV_error
p105
VNo response received
p106
sVstatusText
p107
g4
sVcontent
p108
(dp109
VmimeType
p110
g4
sVcomment
p111
g4
sVsize
p112
I0
ssVheaders
p113
(lp114
sVheadersSize
p115
I-1
sVredirectURL
p116
g4
sVbodySize
p117
I-1
sVhttpVersion
p118
Vunknown
p119
ssa(dp120
Vcomment
p121
g4
sVserverIPAddress
p122
V216.58.216.196
p123
sVpageref
p124
VCam Newton
p125
sVstartedDateTime
p126
V2017-04-16T08:03:35.594-05:00
p127
sVcache
p128
(dp129
sVrequest
p130
(dp131
Vcomment
p132
g4
sVcookies
p133
(lp134
sVurl
p135
Vhttp://www.google.com/
p136
sVqueryString
p137
(lp138
sVheaders
p139
(lp140
sVheadersSize
p141
I613
sVbodySize
p142
I0
sVmethod
p143
VGET
p144
sVhttpVersion
p145
VHTTP/1.1
p146
ssVtimings
p147
(dp148
Vcomment
p149
g4
sVreceive
p150
I0
sVsend
p151
I0
sVssl
p152
I-1
sVconnect
p153
I-1
sVdns
p154
I-1
sVwait
p155
I40
sVblocked
p156
I-1
ssVtime
p157
I40
sVresponse
p158
(dp159
Vstatus
p160
I302
sVcomment
p161
g4
sVcookies
p162
(lp163
sVstatusText
p164
VFound
p165
sVcontent
p166
(dp167
VmimeType
p168
Vtext/html; charset=UTF-8
p169
sVcomment
p170
g4
sVsize
p171
I0
ssVheaders
p172
(lp173
sVheadersSize
p174
I609
sVredirectURL
p175
Vhttps://www.google.com/?gws_rd=ssl
p176
sVbodySize
p177
I231
sVhttpVersion
p178
VHTTP/1.1
p179
ssa(dp180
Vcomment
p181
g4
sVserverIPAddress
p182
V216.58.216.196
p183
sVpageref
p184
VCam Newton
p185
sVstartedDateTime
p186
V2017-04-16T08:03:35.636-05:00
p187
sVcache
p188
(dp189
sVrequest
p190
(dp191
Vcomment
p192
g4
sVcookies
p193
(lp194
sVurl
p195
Vhttps://www.google.com/?gws_rd=ssl
p196
sVqueryString
p197
(lp198
(dp199
Vname
p200
Vgws_rd
p201
sVvalue
p202
Vssl
p203
sasVheaders
p204
(lp205
sVheadersSize
p206
I607
sVbodySize
p207
I0
sVmethod
p208
VGET
p209
sVhttpVersion
p210
VHTTP/1.1
p211
ssVtimings
p212
(dp213
Vcomment
p214
g4
sVreceive
p215
I21
sVsend
p216
I0
sVssl
p217
I-1
sVconnect
p218
I-1
sVdns
p219
I-1
sVwait
p220
I74
sVblocked
p221
I-1
ssVtime
p222
I95
sVresponse
p223
(dp224
Vstatus
p225
I200
sVcomment
p226
g4
sVcookies
p227
(lp228
sVstatusText
p229
VOK
p230
sVcontent
p231
(dp232
VmimeType
p233
Vtext/html; charset=UTF-8
p234
sVcomment
p235
g4
sVsize
p236
I0
ssVheaders
p237
(lp238
sVheadersSize
p239
I721
sVredirectURL
p240
g4
sVbodySize
p241
I34293
sVhttpVersion
p242
VHTTP/1.1
p243
ssa(dp244
Vcomment
p245
g4
sVserverIPAddress
p246
V216.58.216.196
p247
sVpageref
p248
VCam Newton
p249
sVstartedDateTime
p250
V2017-04-16T08:03:35.892-05:00
p251
sVcache
p252
(dp253
sVrequest
p254
(dp255
Vcomment
p256
g4
sVcookies
p257
(lp258
sVurl
p259
Vhttps://www.google.com/gen_204?s=mobilewebhp&atyp=csi&ei=pmvzWNTeJ6a3jwTUzor4DQ&imc=1&imn=1&imp=0&adh=&xjs=init.21.12.sb_mob.15.dvl.3.c.1.mbsf.1.foot.1&ima=1&rt=xjsls.12,prt.12,iml.12,dcl.27,xjses.66,xjsee.133,xjs.134,ol.161,aft.12,wsrt.138,cst.0,dnst.0,rqst.96,rspt.21,rqstt.47,unt.46,cstt.46,dit.161
p260
sVqueryString
p261
(lp262
(dp263
Vname
p264
g57
sVvalue
p265
Vmobilewebhp
p266
sa(dp267
Vname
p268
Vatyp
p269
sVvalue
p270
Vcsi
p271
sa(dp272
Vname
p273
Vei
p274
sVvalue
p275
VpmvzWNTeJ6a3jwTUzor4DQ
p276
sa(dp277
Vname
p278
Vimc
p279
sVvalue
p280
g59
sa(dp281
Vname
p282
Vimn
p283
sVvalue
p284
g59
sa(dp285
Vname
p286
Vimp
p287
sVvalue
p288
V0
p289
sa(dp290
Vname
p291
Vadh
p292
sVvalue
p293
g4
sa(dp294
Vname
p295
Vxjs
p296
sVvalue
p297
Vinit.21.12.sb_mob.15.dvl.3.c.1.mbsf.1.foot.1
p298
sa(dp299
Vname
p300
Vima
p301
sVvalue
p302
g59
sa(dp303
Vname
p304
Vrt
p305
sVvalue
p306
Vxjsls.12,prt.12,iml.12,dcl.27,xjses.66,xjsee.133,xjs.134,ol.161,aft.12,wsrt.138,cst.0,dnst.0,rqst.96,rspt.21,rqstt.47,unt.46,cstt.46,dit.161
p307
sasVheaders
p308
(lp309
sVheadersSize
p310
I829
sVbodySize
p311
I0
sVmethod
p312
VGET
p313
sVhttpVersion
p314
VHTTP/1.1
p315
ssVtimings
p316
(dp317
Vcomment
p318
g4
sVreceive
p319
I0
sVsend
p320
I0
sVssl
p321
I-1
sVconnect
p322
I-1
sVdns
p323
I-1
sVwait
p324
I26
sVblocked
p325
I-1
ssVtime
p326
I26
sVresponse
p327
(dp328
Vstatus
p329
I204
sVcomment
p330
g4
sVcookies
p331
(lp332
sVstatusText
p333
VNo Content
p334
sVcontent
p335
(dp336
VmimeType
p337
Vtext/html; charset=UTF-8
p338
sVcomment
p339
g4
sVsize
p340
I0
ssVheaders
p341
(lp342
sVheadersSize
p343
I248
sVredirectURL
p344
g4
sVbodySize
p345
I0
sVhttpVersion
p346
VHTTP/1.1
p347
ssa(dp348
Vcomment
p349
g4
sVserverIPAddress
p350
V216.58.216.196
p351
sVpageref
p352
VCam Newton
p353
sVstartedDateTime
p354
V2017-04-16T08:03:36.016-05:00
p355
sVcache
p356
(dp357
sVrequest
p358
(dp359
Vcomment
p360
g4
sVcookies
p361
(lp362
sVurl
p363
Vhttps://www.google.com/complete/search?client=mobile-gws-hp&hl=en&gs_rn=64&gs_ri=mobile-gws-hp&sla=1&gm=602&cp=0&gs_id=1&xhr=t&q=C&tch=1&ech=1&psi=pmvzWNTeJ6a3jwTUzor4DQ.1492347815840.1
p364
sVqueryString
p365
(lp366
(dp367
Vname
p368
Vclient
p369
sVvalue
p370
Vmobile-gws-hp
p371
sa(dp372
Vname
p373
Vhl
p374
sVvalue
p375
Ven
p376
sa(dp377
Vname
p378
Vgs_rn
p379
sVvalue
p380
V64
p381
sa(dp382
Vname
p383
Vgs_ri
p384
sVvalue
p385
Vmobile-gws-hp
p386
sa(dp387
Vname
p388
Vsla
p389
sVvalue
p390
g59
sa(dp391
Vname
p392
Vgm
p393
sVvalue
p394
V602
p395
sa(dp396
Vname
p397
Vcp
p398
sVvalue
p399
g289
sa(dp400
Vname
p401
Vgs_id
p402
sVvalue
p403
g59
sa(dp404
Vname
p405
Vxhr
p406
sVvalue
p407
g52
sa(dp408
Vname
p409
Vq
p410
sVvalue
p411
g54
sa(dp412
Vname
p413
Vtch
p414
sVvalue
p415
g59
sa(dp416
Vname
p417
Vech
p418
sVvalue
p419
g59
sa(dp420
Vname
p421
Vpsi
p422
sVvalue
p423
VpmvzWNTeJ6a3jwTUzor4DQ.1492347815840.1
p424
sasVheaders
p425
(lp426
sVheadersSize
p427
I713
sVbodySize
p428
I0
sVmethod
p429
VGET
p430
sVhttpVersion
p431
VHTTP/1.1
p432
ssVtimings
p433
(dp434
Vcomment
p435
g4
sVreceive
p436
I0
sVsend
p437
I0
sVssl
p438
I-1
sVconnect
p439
I-1
sVdns
p440
I-1
sVwait
p441
I0
sVblocked
p442
I-1
ssVtime
p443
I0
sVresponse
p444
(dp445
Vstatus
p446
I0
sVcomment
p447
g4
sVcookies
p448
(lp449
sV_error
p450
VNo response received
p451
sVstatusText
p452
g4
sVcontent
p453
(dp454
VmimeType
p455
g4
sVcomment
p456
g4
sVsize
p457
I0
ssVheaders
p458
(lp459
sVheadersSize
p460
I-1
sVredirectURL
p461
g4
sVbodySize
p462
I-1
sVhttpVersion
p463
Vunknown
p464
ssa(dp465
Vcomment
p466
g4
sVserverIPAddress
p467
V216.58.216.196
p468
sVpageref
p469
VCam Newton
p470
sVstartedDateTime
p471
V2017-04-16T08:03:36.064-05:00
p472
sVcache
p473
(dp474
sVrequest
p475
(dp476
Vcomment
p477
g4
sVcookies
p478
(lp479
sVurl
p480
Vhttps://www.google.com/search?site=&source=hp&ei=pmvzWNTeJ6a3jwTUzor4DQ&q=Cam+Newton&oq=Cam+Newton&gs_l=mobile-gws-hp.3...158.182.0.204.10.1.0.0.0.0.0.0..0.0....0...1c.1.64.mobile-gws-hp..10.0.0.UGnSO10pGao
p481
sVqueryString
p482
(lp483
(dp484
Vname
p485
Vsite
p486
sVvalue
p487
g4
sa(dp488
Vname
p489
Vsource
p490
sVvalue
p491
Vhp
p492
sa(dp493
Vname
p494
Vei
p495
sVvalue
p496
VpmvzWNTeJ6a3jwTUzor4DQ
p497
sa(dp498
Vname
p499
g410
sVvalue
p500
VCam Newton
p501
sa(dp502
Vname
p503
Voq
p504
sVvalue
p505
VCam Newton
p506
sa(dp507
Vname
p508
Vgs_l
p509
sVvalue
p510
Vmobile-gws-hp.3...158.182.0.204.10.1.0.0.0.0.0.0..0.0....0...1c.1.64.mobile-gws-hp..10.0.0.UGnSO10pGao
p511
sasVheaders
p512
(lp513
sVheadersSize
p514
I824
sVbodySize
p515
I0
sVmethod
p516
VGET
p517
sVhttpVersion
p518
VHTTP/1.1
p519
ssVtimings
p520
(dp521
Vcomment
p522
g4
sVreceive
p523
I767
sVsend
p524
I0
sVssl
p525
I-1
sVconnect
p526
I-1
sVdns
p527
I-1
sVwait
p528
I82
sVblocked
p529
I-1
ssVtime
p530
I850
sVresponse
p531
(dp532
Vstatus
p533
I200
sVcomment
p534
g4
sVcookies
p535
(lp536
sVstatusText
p537
VOK
p538
sVcontent
p539
(dp540
VmimeType
p541
Vtext/html; charset=UTF-8
p542
sVcomment
p543
g4
sVsize
p544
I0
ssVheaders
p545
(lp546
sVheadersSize
p547
I363
sVredirectURL
p548
g4
sVbodySize
p549
I154235
sVhttpVersion
p550
VHTTP/1.1
p551
ssa(dp552
Vcomment
p553
g4
sVserverIPAddress
p554
V216.58.216.196
p555
sVpageref
p556
VCam Newton
p557
sVstartedDateTime
p558
V2017-04-16T08:03:37.262-05:00
p559
sVcache
p560
(dp561
sVrequest
p562
(dp563
Vcomment
p564
g4
sVcookies
p565
(lp566
sVurl
p567
Vhttps://www.google.com/xjs/_/js/k=xjs.qs.en_US.pCBXVCvTH3s.O/m=syl,syj,syn,em3,em8,em6,em7,sym,aa,abd,sy2g,sy2k,sy29,sy2j,sy2d,sy2a,sy2c,sy2f,sy2l,sy2m,sy2n,emd,async,sybn,sybi,sybo,sy1f,sy45,sy46,sy9w,sybk,sybj,sybp,sy1g,sy30,sy47,sybm,sybl,sybq,sy1h,sybh,dvl,syep,foot,ipv6,sy5g,sy5j,sy5h,sy6u,sy7d,sy7j,sy2x,sy5i,sy89,sy7e,sy23,sy2y,sy5k,sy6c,sy91,sy9b,sy9l,syhi,syhj,lrli,sy32,emj,shm,sykh,tl,sy2t,sy38,em12,vs,sy66,sy67,sy4u,sy69,sykk,sykl,tnv,bct,sy9m,syac,sy24,sy4g,sy9n,syhz,syl6,ssc,sy1y,sya3,sy22,sy6i,sy25,sya2,sy6j,sy72,emb,sy26,em9,ema,sy31,sya4,sykr,strm,sy2u,sy34,sy6l,sy6k,sy6h,sy6m,qkx,sy4d,sy4f,sy4c,sy4e,sy4b,sy6w,shrb,syd7,dgm,syf5,syf6,syf8,sygb,syg9,kptm,sy99,syf4,syfc,syfn,syf7,syff,sy1i,sy68,sy8d,syfl,syfr,syfq,syfg,sy1j,sy4q,sy5o,sy5r,sy6n,sy6p,sy8h,syc7,syc8,syfb,syfj,syfs,syft,syg3,syg5,syg7,emn,emo,syg4,syg6,ivg,iuci,img,sy41,tcc,sygq,kpc,kpci,sy4h,vrml,sy6y,sycu,d3l,syj7,syj8,syj2,syjc,syj6,syj3,syjg,syjh,syje,syjd,syjk,syji,syjf,syj0,emr,ems,emt,emu,emv,emx,emy,emz,em10,em11,udlg,sy5z,atn,sy4i,sya1,ampfp/am=gCP4LtMEBXQA2RUaq_oFBISzAFA/rt=j/d=0/t=zcms/rs=ACT90oFwm4NZCwIcuuiqmthdlECdBzkhRA
p568
sVqueryString
p569
(lp570
sVheaders
p571
(lp572
sVheadersSize
p573
I1643
sVbodySize
p574
I0
sVmethod
p575
VGET
p576
sVhttpVersion
p577
VHTTP/1.1
p578
ssVtimings
p579
(dp580
Vcomment
p581
g4
sVreceive
p582
I45
sVsend
p583
I0
sVssl
p584
I-1
sVconnect
p585
I-1
sVdns
p586
I-1
sVwait
p587
I13
sVblocked
p588
I-1
ssVtime
p589
I59
sVresponse
p590
(dp591
Vstatus
p592
I200
sVcomment
p593
g4
sVcookies
p594
(lp595
sVstatusText
p596
VOK
p597
sVcontent
p598
(dp599
VmimeType
p600
Vtext/javascript; charset=UTF-8
p601
sVcomment
p602
g4
sVsize
p603
I0
ssVheaders
p604
(lp605
sVheadersSize
p606
I465
sVredirectURL
p607
g4
sVbodySize
p608
I117833
sVhttpVersion
p609
VHTTP/1.1
p610
ssa(dp611
Vcomment
p612
g4
sVserverIPAddress
p613
V216.58.216.196
p614
sVpageref
p615
VCam Newton
p616
sVstartedDateTime
p617
V2017-04-16T08:03:37.428-05:00
p618
sVcache
p619
(dp620
sVrequest
p621
(dp622
Vcomment
p623
g4
sVcookies
p624
(lp625
sVurl
p626
Vhttps://www.google.com/async/irc?vet=10ahUKEwjZ6pjrhKnTAhVF_4MKHdvEDiYQo0EI7gE..i&ved=0ahUKEwjZ6pjrhKnTAhVF_4MKHdvEDiYQo0EI7gE&ei=p2vzWJn7BMX-jwTbibuwAg&yv=2&async=iu:1,ved:0ahUKEwjZ6pjrhKnTAhVF_4MKHdvEDiYQo0EI7gE,_id:irc_async,_pms:qs
p627
sVqueryString
p628
(lp629
(dp630
Vname
p631
Vvet
p632
sVvalue
p633
V10ahUKEwjZ6pjrhKnTAhVF_4MKHdvEDiYQo0EI7gE..i
p634
sa(dp635
Vname
p636
Vved
p637
sVvalue
p638
V0ahUKEwjZ6pjrhKnTAhVF_4MKHdvEDiYQo0EI7gE
p639
sa(dp640
Vname
p641
Vei
p642
sVvalue
p643
Vp2vzWJn7BMX-jwTbibuwAg
p644
sa(dp645
Vname
p646
Vyv
p647
sVvalue
p648
g64
sa(dp649
Vname
p650
Vasync
p651
sVvalue
p652
Viu:1,ved:0ahUKEwjZ6pjrhKnTAhVF_4MKHdvEDiYQo0EI7gE,_id:irc_async,_pms:qs
p653
sasVheaders
p654
(lp655
sVheadersSize
p656
I752
sVbodySize
p657
I0
sVmethod
p658
VGET
p659
sVhttpVersion
p660
VHTTP/1.1
p661
ssVtimings
p662
(dp663
Vcomment
p664
g4
sVreceive
p665
I1
sVsend
p666
I0
sVssl
p667
I-1
sVconnect
p668
I-1
sVdns
p669
I-1
sVwait
p670
I140
sVblocked
p671
I-1
ssVtime
p672
I142
sVresponse
p673
(dp674
Vstatus
p675
I200
sVcomment
p676
g4
sVcookies
p677
(lp678
sVstatusText
p679
VOK
p680
sVcontent
p681
(dp682
VmimeType
p683
Vtext/html; charset=UTF-8
p684
sVcomment
p685
g4
sVsize
p686
I0
ssVheaders
p687
(lp688
sVheadersSize
p689
I383
sVredirectURL
p690
g4
sVbodySize
p691
I7787
sVhttpVersion
p692
VHTTP/1.1
p693
ssa(dp694
Vcomment
p695
g4
sVserverIPAddress
p696
V216.58.216.196
p697
sVpageref
p698
VCam Newton
p699
sVstartedDateTime
p700
V2017-04-16T08:03:37.435-05:00
p701
sVcache
p702
(dp703
sVrequest
p704
(dp705
Vcomment
p706
g4
sVcookies
p707
(lp708
sVurl
p709
Vhttps://www.google.com/gen_204?atyp=i&ct=&cad=&vet=10ahUKEwjZ6pjrhKnTAhVF_4MKHdvEDiYQ5W0IUSgC..s&ei=p2vzWJn7BMX-jwTbibuwAg&zx=1492347817434
p710
sVqueryString
p711
(lp712
(dp713
Vname
p714
Vatyp
p715
sVvalue
p716
g30
sa(dp717
Vname
p718
Vct
p719
sVvalue
p720
g4
sa(dp721
Vname
p722
Vcad
p723
sVvalue
p724
g4
sa(dp725
Vname
p726
Vvet
p727
sVvalue
p728
V10ahUKEwjZ6pjrhKnTAhVF_4MKHdvEDiYQ5W0IUSgC..s
p729
sa(dp730
Vname
p731
Vei
p732
sVvalue
p733
Vp2vzWJn7BMX-jwTbibuwAg
p734
sa(dp735
Vname
p736
Vzx
p737
sVvalue
p738
V1492347817434
p739
sasVheaders
p740
(lp741
sVheadersSize
p742
I656
sVbodySize
p743
I0
sVmethod
p744
VGET
p745
sVhttpVersion
p746
VHTTP/1.1
p747
ssVtimings
p748
(dp749
Vcomment
p750
g4
sVreceive
p751
I0
sVsend
p752
I0
sVssl
p753
I-1
sVconnect
p754
I-1
sVdns
p755
I-1
sVwait
p756
I125
sVblocked
p757
I-1
ssVtime
p758
I126
sVresponse
p759
(dp760
Vstatus
p761
I204
sVcomment
p762
g4
sVcookies
p763
(lp764
sVstatusText
p765
VNo Content
p766
sVcontent
p767
(dp768
VmimeType
p769
Vtext/html; charset=UTF-8
p770
sVcomment
p771
g4
sVsize
p772
I0
ssVheaders
p773
(lp774
sVheadersSize
p775
I248
sVredirectURL
p776
g4
sVbodySize
p777
I0
sVhttpVersion
p778
VHTTP/1.1
p779
ssa(dp780
Vcomment
p781
g4
sVserverIPAddress
p782
V216.58.216.196
p783
sVpageref
p784
VCam Newton
p785
sVstartedDateTime
p786
V2017-04-16T08:03:37.437-05:00
p787
sVcache
p788
(dp789
sVrequest
p790
(dp791
Vcomment
p792
g4
sVcookies
p793
(lp794
sVurl
p795
Vhttps://www.google.com/gen_204?atyp=i&ct=&cad=&vet=10ahUKEwjZ6pjrhKnTAhVF_4MKHdvEDiYQ5W0IVCgD..s&ei=p2vzWJn7BMX-jwTbibuwAg&zx=1492347817436
p796
sVqueryString
p797
(lp798
(dp799
Vname
p800
Vatyp
p801
sVvalue
p802
g30
sa(dp803
Vname
p804
Vct
p805
sVvalue
p806
g4
sa(dp807
Vname
p808
Vcad
p809
sVvalue
p810
g4
sa(dp811
Vname
p812
Vvet
p813
sVvalue
p814
V10ahUKEwjZ6pjrhKnTAhVF_4MKHdvEDiYQ5W0IVCgD..s
p815
sa(dp816
Vname
p817
Vei
p818
sVvalue
p819
Vp2vzWJn7BMX-jwTbibuwAg
p820
sa(dp821
Vname
p822
Vzx
p823
sVvalue
p824
V1492347817436
p825
sasVheaders
p826
(lp827
sVheadersSize
p828
I656
sVbodySize
p829
I0
sVmethod
p830
VGET
p831
sVhttpVersion
p832
VHTTP/1.1
p833
ssVtimings
p834
(dp835
Vcomment
p836
g4
sVreceive
p837
I0
sVsend
p838
I0
sVssl
p839
I-1
sVconnect
p840
I-1
sVdns
p841
I-1
sVwait
p842
I126
sVblocked
p843
I-1
ssVtime
p844
I126
sVresponse
p845
(dp846
Vstatus
p847
I204
sVcomment
p848
g4
sVcookies
p849
(lp850
sVstatusText
p851
VNo Content
p852
sVcontent
p853
(dp854
VmimeType
p855
Vtext/html; charset=UTF-8
p856
sVcomment
p857
g4
sVsize
p858
I0
ssVheaders
p859
(lp860
sVheadersSize
p861
I248
sVredirectURL
p862
g4
sVbodySize
p863
I0
sVhttpVersion
p864
VHTTP/1.1
p865
ssa(dp866
Vcomment
p867
g4
sVserverIPAddress
p868
V216.58.216.196
p869
sVpageref
p870
VCam Newton
p871
sVstartedDateTime
p872
V2017-04-16T08:03:37.439-05:00
p873
sVcache
p874
(dp875
sVrequest
p876
(dp877
Vcomment
p878
g4
sVcookies
p879
(lp880
sVurl
p881
Vhttps://www.google.com/gen_204?atyp=i&ct=&cad=&vet=10ahUKEwjZ6pjrhKnTAhVF_4MKHdvEDiYQ5W0IVygE..s&ei=p2vzWJn7BMX-jwTbibuwAg&zx=1492347817438
p882
sVqueryString
p883
(lp884
(dp885
Vname
p886
Vatyp
p887
sVvalue
p888
g30
sa(dp889
Vname
p890
Vct
p891
sVvalue
p892
g4
sa(dp893
Vname
p894
Vcad
p895
sVvalue
p896
g4
sa(dp897
Vname
p898
Vvet
p899
sVvalue
p900
V10ahUKEwjZ6pjrhKnTAhVF_4MKHdvEDiYQ5W0IVygE..s
p901
sa(dp902
Vname
p903
Vei
p904
sVvalue
p905
Vp2vzWJn7BMX-jwTbibuwAg
p906
sa(dp907
Vname
p908
Vzx
p909
sVvalue
p910
V1492347817438
p911
sasVheaders
p912
(lp913
sVheadersSize
p914
I656
sVbodySize
p915
I0
sVmethod
p916
VGET
p917
sVhttpVersion
p918
VHTTP/1.1
p919
ssVtimings
p920
(dp921
Vcomment
p922
g4
sVreceive
p923
I0
sVsend
p924
I0
sVssl
p925
I-1
sVconnect
p926
I-1
sVdns
p927
I-1
sVwait
p928
I132
sVblocked
p929
I-1
ssVtime
p930
I132
sVresponse
p931
(dp932
Vstatus
p933
I204
sVcomment
p934
g4
sVcookies
p935
(lp936
sVstatusText
p937
VNo Content
p938
sVcontent
p939
(dp940
VmimeType
p941
Vtext/html; charset=UTF-8
p942
sVcomment
p943
g4
sVsize
p944
I0
ssVheaders
p945
(lp946
sVheadersSize
p947
I248
sVredirectURL
p948
g4
sVbodySize
p949
I0
sVhttpVersion
p950
VHTTP/1.1
p951
ssa(dp952
Vcomment
p953
g4
sVserverIPAddress
p954
V216.58.216.193
p955
sVpageref
p956
VCam Newton
p957
sVstartedDateTime
p958
V2017-04-16T08:03:37.513-05:00
p959
sVcache
p960
(dp961
sVrequest
p962
(dp963
Vcomment
p964
g4
sVcookies
p965
(lp966
sVurl
p967
Vhttps://cdn.ampproject.org/preconnect.gif?0.42393718413806847
p968
sVqueryString
p969
(lp970
(dp971
Vname
p972
V0.42393718413806847
p973
sVvalue
p974
g4
sasVheaders
p975
(lp976
sVheadersSize
p977
I376
sVbodySize
p978
I0
sVmethod
p979
VGET
p980
sVhttpVersion
p981
VHTTP/1.1
p982
ssVtimings
p983
(dp984
Vcomment
p985
g4
sVreceive
p986
I0
sVsend
p987
I0
sVssl
p988
I-1
sVconnect
p989
I-1
sVdns
p990
I-1
sVwait
p991
I55
sVblocked
p992
I-1
ssVtime
p993
I55
sVresponse
p994
(dp995
Vstatus
p996
I200
sVcomment
p997
g4
sVcookies
p998
(lp999
sVstatusText
p1000
VOK
p1001
sVcontent
p1002
(dp1003
VmimeType
p1004
Vimage/gif
p1005
sVcomment
p1006
g4
sVsize
p1007
I0
ssVheaders
p1008
(lp1009
sVheadersSize
p1010
I826
sVredirectURL
p1011
g4
sVbodySize
p1012
I37
sVhttpVersion
p1013
VHTTP/1.1
p1014
ssa(dp1015
Vcomment
p1016
g4
sVserverIPAddress
p1017
V216.58.216.206
p1018
sVpageref
p1019
VCam Newton
p1020
sVstartedDateTime
p1021
V2017-04-16T08:03:37.528-05:00
p1022
sVcache
p1023
(dp1024
sVrequest
p1025
(dp1026
Vcomment
p1027
g4
sVcookies
p1028
(lp1029
sVurl
p1030
Vhttps://encrypted-tbn3.gstatic.com/images?q=tbn:ANd9GcQBDFFvmm7ZApzN-S7jPhRiUy7xLoYOZ-LYAk2HzxIKdaH2yyv_7g8hmUQ
p1031
sVqueryString
p1032
(lp1033
(dp1034
Vname
p1035
g410
sVvalue
p1036
Vtbn:ANd9GcQBDFFvmm7ZApzN-S7jPhRiUy7xLoYOZ-LYAk2HzxIKdaH2yyv_7g8hmUQ
p1037
sasVheaders
p1038
(lp1039
sVheadersSize
p1040
I426
sVbodySize
p1041
I0
sVmethod
p1042
VGET
p1043
sVhttpVersion
p1044
VHTTP/1.1
p1045
ssVtimings
p1046
(dp1047
Vcomment
p1048
g4
sVreceive
p1049
I2
sVsend
p1050
I0
sVssl
p1051
I-1
sVconnect
p1052
I-1
sVdns
p1053
I-1
sVwait
p1054
I31
sVblocked
p1055
I-1
ssVtime
p1056
I33
sVresponse
p1057
(dp1058
Vstatus
p1059
I200
sVcomment
p1060
g4
sVcookies
p1061
(lp1062
sVstatusText
p1063
VOK
p1064
sVcontent
p1065
(dp1066
VmimeType
p1067
Vimage/jpeg
p1068
sVcomment
p1069
g4
sVsize
p1070
I0
ssVheaders
p1071
(lp1072
sVheadersSize
p1073
I428
sVredirectURL
p1074
g4
sVbodySize
p1075
I5166
sVhttpVersion
p1076
VHTTP/1.1
p1077
ssa(dp1078
Vcomment
p1079
g4
sVserverIPAddress
p1080
V216.58.216.206
p1081
sVpageref
p1082
VCam Newton
p1083
sVstartedDateTime
p1084
V2017-04-16T08:03:37.528-05:00
p1085
sVcache
p1086
(dp1087
sVrequest
p1088
(dp1089
Vcomment
p1090
g4
sVcookies
p1091
(lp1092
sVurl
p1093
Vhttps://encrypted-tbn0.gstatic.com/images?q=tbn:ANd9GcRW6UoHz4hs5VtMJntST3I4dziKsADl0921PZgh6bhsYcQO1t-fjxKeTd4
p1094
sVqueryString
p1095
(lp1096
(dp1097
Vname
p1098
g410
sVvalue
p1099
Vtbn:ANd9GcRW6UoHz4hs5VtMJntST3I4dziKsADl0921PZgh6bhsYcQO1t-fjxKeTd4
p1100
sasVheaders
p1101
(lp1102
sVheadersSize
p1103
I426
sVbodySize
p1104
I0
sVmethod
p1105
VGET
p1106
sVhttpVersion
p1107
VHTTP/1.1
p1108
ssVtimings
p1109
(dp1110
Vcomment
p1111
g4
sVreceive
p1112
I1
sVsend
p1113
I0
sVssl
p1114
I-1
sVconnect
p1115
I-1
sVdns
p1116
I-1
sVwait
p1117
I31
sVblocked
p1118
I-1
ssVtime
p1119
I33
sVresponse
p1120
(dp1121
Vstatus
p1122
I200
sVcomment
p1123
g4
sVcookies
p1124
(lp1125
sVstatusText
p1126
VOK
p1127
sVcontent
p1128
(dp1129
VmimeType
p1130
Vimage/jpeg
p1131
sVcomment
p1132
g4
sVsize
p1133
I0
ssVheaders
p1134
(lp1135
sVheadersSize
p1136
I427
sVredirectURL
p1137
g4
sVbodySize
p1138
I5707
sVhttpVersion
p1139
VHTTP/1.1
p1140
ssa(dp1141
Vcomment
p1142
g4
sVserverIPAddress
p1143
V216.58.216.196
p1144
sVpageref
p1145
VCam Newton
p1146
sVstartedDateTime
p1147
V2017-04-16T08:03:37.564-05:00
p1148
sVcache
p1149
(dp1150
sVrequest
p1151
(dp1152
Vcomment
p1153
g4
sVcookies
p1154
(lp1155
sVurl
p1156
Vhttps://www.google.com/gen_204?atyp=i&ct=&cad=&vet=10ahUKEwjZ6pjrhKnTAhVF_4MKHdvEDiYQ5W0IYCgH..s&ei=p2vzWJn7BMX-jwTbibuwAg&zx=1492347817442
p1157
sVqueryString
p1158
(lp1159
(dp1160
Vname
p1161
Vatyp
p1162
sVvalue
p1163
g30
sa(dp1164
Vname
p1165
Vct
p1166
sVvalue
p1167
g4
sa(dp1168
Vname
p1169
Vcad
p1170
sVvalue
p1171
g4
sa(dp1172
Vname
p1173
Vvet
p1174
sVvalue
p1175
V10ahUKEwjZ6pjrhKnTAhVF_4MKHdvEDiYQ5W0IYCgH..s
p1176
sa(dp1177
Vname
p1178
Vei
p1179
sVvalue
p1180
Vp2vzWJn7BMX-jwTbibuwAg
p1181
sa(dp1182
Vname
p1183
Vzx
p1184
sVvalue
p1185
V1492347817442
p1186
sasVheaders
p1187
(lp1188
sVheadersSize
p1189
I656
sVbodySize
p1190
I0
sVmethod
p1191
VGET
p1192
sVhttpVersion
p1193
VHTTP/1.1
p1194
ssVtimings
p1195
(dp1196
Vcomment
p1197
g4
sVreceive
p1198
I0
sVsend
p1199
I0
sVssl
p1200
I-1
sVconnect
p1201
I-1
sVdns
p1202
I-1
sVwait
p1203
I36
sVblocked
p1204
I-1
ssVtime
p1205
I36
sVresponse
p1206
(dp1207
Vstatus
p1208
I204
sVcomment
p1209
g4
sVcookies
p1210
(lp1211
sVstatusText
p1212
VNo Content
p1213
sVcontent
p1214
(dp1215
VmimeType
p1216
Vtext/html; charset=UTF-8
p1217
sVcomment
p1218
g4
sVsize
p1219
I0
ssVheaders
p1220
(lp1221
sVheadersSize
p1222
I248
sVredirectURL
p1223
g4
sVbodySize
p1224
I0
sVhttpVersion
p1225
VHTTP/1.1
p1226
ssa(dp1227
Vcomment
p1228
g4
sVserverIPAddress
p1229
V216.58.216.196
p1230
sVpageref
p1231
VCam Newton
p1232
sVstartedDateTime
p1233
V2017-04-16T08:03:37.564-05:00
p1234
sVcache
p1235
(dp1236
sVrequest
p1237
(dp1238
Vcomment
p1239
g4
sVcookies
p1240
(lp1241
sVurl
p1242
Vhttps://www.google.com/async/ampfp?vet=10ahUKEwjZ6pjrhKnTAhVF_4MKHdvEDiYQtZoBCOwB..i&ei=p2vzWJn7BMX-jwTbibuwAg&yv=2&async=_id:ampfp-async,_pms:qs
p1243
sVqueryString
p1244
(lp1245
(dp1246
Vname
p1247
Vvet
p1248
sVvalue
p1249
V10ahUKEwjZ6pjrhKnTAhVF_4MKHdvEDiYQtZoBCOwB..i
p1250
sa(dp1251
Vname
p1252
Vei
p1253
sVvalue
p1254
Vp2vzWJn7BMX-jwTbibuwAg
p1255
sa(dp1256
Vname
p1257
Vyv
p1258
sVvalue
p1259
g64
sa(dp1260
Vname
p1261
Vasync
p1262
sVvalue
p1263
V_id:ampfp-async,_pms:qs
p1264
sasVheaders
p1265
(lp1266
sVheadersSize
p1267
I662
sVbodySize
p1268
I0
sVmethod
p1269
VGET
p1270
sVhttpVersion
p1271
VHTTP/1.1
p1272
ssVtimings
p1273
(dp1274
Vcomment
p1275
g4
sVreceive
p1276
I0
sVsend
p1277
I0
sVssl
p1278
I-1
sVconnect
p1279
I-1
sVdns
p1280
I-1
sVwait
p1281
I44
sVblocked
p1282
I-1
ssVtime
p1283
I44
sVresponse
p1284
(dp1285
Vstatus
p1286
I200
sVcomment
p1287
g4
sVcookies
p1288
(lp1289
sVstatusText
p1290
VOK
p1291
sVcontent
p1292
(dp1293
VmimeType
p1294
Vtext/html; charset=UTF-8
p1295
sVcomment
p1296
g4
sVsize
p1297
I0
ssVheaders
p1298
(lp1299
sVheadersSize
p1300
I383
sVredirectURL
p1301
g4
sVbodySize
p1302
I4527
sVhttpVersion
p1303
VHTTP/1.1
p1304
ssa(dp1305
Vcomment
p1306
g4
sVserverIPAddress
p1307
V216.58.216.196
p1308
sVpageref
p1309
VCam Newton
p1310
sVstartedDateTime
p1311
V2017-04-16T08:03:37.580-05:00
p1312
sVcache
p1313
(dp1314
sVrequest
p1315
(dp1316
Vcomment
p1317
g4
sVcookies
p1318
(lp1319
sVurl
p1320
Vhttps://www.google.com/gen_204?atyp=i&ct=&cad=&vet=10ahUKEwjZ6pjrhKnTAhVF_4MKHdvEDiYQ5W0IWigF..s&ei=p2vzWJn7BMX-jwTbibuwAg&zx=1492347817440
p1321
sVqueryString
p1322
(lp1323
(dp1324
Vname
p1325
Vatyp
p1326
sVvalue
p1327
g30
sa(dp1328
Vname
p1329
Vct
p1330
sVvalue
p1331
g4
sa(dp1332
Vname
p1333
Vcad
p1334
sVvalue
p1335
g4
sa(dp1336
Vname
p1337
Vvet
p1338
sVvalue
p1339
V10ahUKEwjZ6pjrhKnTAhVF_4MKHdvEDiYQ5W0IWigF..s
p1340
sa(dp1341
Vname
p1342
Vei
p1343
sVvalue
p1344
Vp2vzWJn7BMX-jwTbibuwAg
p1345
sa(dp1346
Vname
p1347
Vzx
p1348
sVvalue
p1349
V1492347817440
p1350
sasVheaders
p1351
(lp1352
sVheadersSize
p1353
I656
sVbodySize
p1354
I0
sVmethod
p1355
VGET
p1356
sVhttpVersion
p1357
VHTTP/1.1
p1358
ssVtimings
p1359
(dp1360
Vcomment
p1361
g4
sVreceive
p1362
I0
sVsend
p1363
I0
sVssl
p1364
I24
sVconnect
p1365
I138
sVdns
p1366
I0
sVwait
p1367
I31
sVblocked
p1368
I0
ssVtime
p1369
I170
sVresponse
p1370
(dp1371
Vstatus
p1372
I204
sVcomment
p1373
g4
sVcookies
p1374
(lp1375
sVstatusText
p1376
VNo Content
p1377
sVcontent
p1378
(dp1379
VmimeType
p1380
Vtext/html; charset=UTF-8
p1381
sVcomment
p1382
g4
sVsize
p1383
I0
ssVheaders
p1384
(lp1385
sVheadersSize
p1386
I248
sVredirectURL
p1387
g4
sVbodySize
p1388
I0
sVhttpVersion
p1389
VHTTP/1.1
p1390
ssa(dp1391
Vcomment
p1392
g4
sVserverIPAddress
p1393
V216.58.216.196
p1394
sVpageref
p1395
VCam Newton
p1396
sVstartedDateTime
p1397
V2017-04-16T08:03:37.582-05:00
p1398
sVcache
p1399
(dp1400
sVrequest
p1401
(dp1402
Vcomment
p1403
g4
sVcookies
p1404
(lp1405
sVurl
p1406
Vhttps://www.google.com/gen_204?atyp=i&ct=&cad=&vet=10ahUKEwjZ6pjrhKnTAhVF_4MKHdvEDiYQ5W0IXSgG..s&ei=p2vzWJn7BMX-jwTbibuwAg&zx=1492347817441
p1407
sVqueryString
p1408
(lp1409
(dp1410
Vname
p1411
Vatyp
p1412
sVvalue
p1413
g30
sa(dp1414
Vname
p1415
Vct
p1416
sVvalue
p1417
g4
sa(dp1418
Vname
p1419
Vcad
p1420
sVvalue
p1421
g4
sa(dp1422
Vname
p1423
Vvet
p1424
sVvalue
p1425
V10ahUKEwjZ6pjrhKnTAhVF_4MKHdvEDiYQ5W0IXSgG..s
p1426
sa(dp1427
Vname
p1428
Vei
p1429
sVvalue
p1430
Vp2vzWJn7BMX-jwTbibuwAg
p1431
sa(dp1432
Vname
p1433
Vzx
p1434
sVvalue
p1435
V1492347817441
p1436
sasVheaders
p1437
(lp1438
sVheadersSize
p1439
I656
sVbodySize
p1440
I0
sVmethod
p1441
VGET
p1442
sVhttpVersion
p1443
VHTTP/1.1
p1444
ssVtimings
p1445
(dp1446
Vcomment
p1447
g4
sVreceive
p1448
I0
sVsend
p1449
I0
sVssl
p1450
I22
sVconnect
p1451
I138
sVdns
p1452
I0
sVwait
p1453
I26
sVblocked
p1454
I0
ssVtime
p1455
I165
sVresponse
p1456
(dp1457
Vstatus
p1458
I204
sVcomment
p1459
g4
sVcookies
p1460
(lp1461
sVstatusText
p1462
VNo Content
p1463
sVcontent
p1464
(dp1465
VmimeType
p1466
Vtext/html; charset=UTF-8
p1467
sVcomment
p1468
g4
sVsize
p1469
I0
ssVheaders
p1470
(lp1471
sVheadersSize
p1472
I248
sVredirectURL
p1473
g4
sVbodySize
p1474
I0
sVhttpVersion
p1475
VHTTP/1.1
p1476
ssa(dp1477
Vcomment
p1478
g4
sVserverIPAddress
p1479
V216.58.216.196
p1480
sVpageref
p1481
VCam Newton
p1482
sVstartedDateTime
p1483
V2017-04-16T08:03:37.678-05:00
p1484
sVcache
p1485
(dp1486
sVrequest
p1487
(dp1488
Vcomment
p1489
g4
sVcookies
p1490
(lp1491
sVurl
p1492
Vhttps://www.google.com/async/log_amp_item_set?vet=10ahUKEwjM1_TrhKnTAhUDzIMKHSxZATMQooQBCAE..i&ei=p2vzWJn7BMX-jwTbibuwAg&yv=2&async=num_items:1,_fmt:jspb
p1493
sVqueryString
p1494
(lp1495
(dp1496
Vname
p1497
Vvet
p1498
sVvalue
p1499
V10ahUKEwjM1_TrhKnTAhUDzIMKHSxZATMQooQBCAE..i
p1500
sa(dp1501
Vname
p1502
Vei
p1503
sVvalue
p1504
Vp2vzWJn7BMX-jwTbibuwAg
p1505
sa(dp1506
Vname
p1507
Vyv
p1508
sVvalue
p1509
g64
sa(dp1510
Vname
p1511
Vasync
p1512
sVvalue
p1513
Vnum_items:1,_fmt:jspb
p1514
sasVheaders
p1515
(lp1516
sVheadersSize
p1517
I670
sVbodySize
p1518
I0
sVmethod
p1519
VGET
p1520
sVhttpVersion
p1521
VHTTP/1.1
p1522
ssVtimings
p1523
(dp1524
Vcomment
p1525
g4
sVreceive
p1526
I0
sVsend
p1527
I0
sVssl
p1528
I-1
sVconnect
p1529
I-1
sVdns
p1530
I-1
sVwait
p1531
I39
sVblocked
p1532
I-1
ssVtime
p1533
I40
sVresponse
p1534
(dp1535
Vstatus
p1536
I200
sVcomment
p1537
g4
sVcookies
p1538
(lp1539
sVstatusText
p1540
VOK
p1541
sVcontent
p1542
(dp1543
VmimeType
p1544
Vapplication/json; charset=UTF-8
p1545
sVcomment
p1546
g4
sVsize
p1547
I0
ssVheaders
p1548
(lp1549
sVheadersSize
p1550
I417
sVredirectURL
p1551
g4
sVbodySize
p1552
I132
sVhttpVersion
p1553
VHTTP/1.1
p1554
ssa(dp1555
Vcomment
p1556
g4
sVserverIPAddress
p1557
V216.58.216.193
p1558
sVpageref
p1559
VCam Newton
p1560
sVstartedDateTime
p1561
V2017-04-16T08:03:38.179-05:00
p1562
sVcache
p1563
(dp1564
sVrequest
p1565
(dp1566
Vcomment
p1567
g4
sVcookies
p1568
(lp1569
sVurl
p1570
Vhttps://www-foxsports-com.cdn.ampproject.org/v/www.foxsports.com/nfl/story/cam-newton-carolina-panthers-outfit-coachella-floral-desert-flower-041517?amp=true&amp_js_v=9
p1571
sVqueryString
p1572
(lp1573
(dp1574
Vname
p1575
Vamp
p1576
sVvalue
p1577
Vtrue
p1578
sa(dp1579
Vname
p1580
Vamp_js_v
p1581
sVvalue
p1582
V9
p1583
sasVheaders
p1584
(lp1585
sVheadersSize
p1586
I573
sVbodySize
p1587
I0
sVmethod
p1588
VGET
p1589
sVhttpVersion
p1590
VHTTP/1.1
p1591
ssVtimings
p1592
(dp1593
Vcomment
p1594
g4
sVreceive
p1595
I0
sVsend
p1596
I0
sVssl
p1597
I448
sVconnect
p1598
I462
sVdns
p1599
I33
sVwait
p1600
I50
sVblocked
p1601
I0
ssVtime
p1602
I547
sVresponse
p1603
(dp1604
Vstatus
p1605
I200
sVcomment
p1606
g4
sVcookies
p1607
(lp1608
sVstatusText
p1609
VOK
p1610
sVcontent
p1611
(dp1612
VmimeType
p1613
Vtext/html
p1614
sVcomment
p1615
g4
sVsize
p1616
I0
ssVheaders
p1617
(lp1618
sVheadersSize
p1619
I860
sVredirectURL
p1620
g4
sVbodySize
p1621
I5832
sVhttpVersion
p1622
VHTTP/1.1
p1623
ssa(dp1624
Vcomment
p1625
g4
sVserverIPAddress
p1626
V216.58.216.193
p1627
sVpageref
p1628
VCam Newton
p1629
sVstartedDateTime
p1630
V2017-04-16T08:03:38.271-05:00
p1631
sVcache
p1632
(dp1633
sVrequest
p1634
(dp1635
Vcomment
p1636
g4
sVcookies
p1637
(lp1638
sVurl
p1639
Vhttps://www-foxsports-com.cdn.ampproject.org/r/www.foxsports.com/wp-content/themes/foxsports/assets/dist/fonts/917ebc26-70c2-413f-ae09-709f01918831-3.woff
p1640
sVqueryString
p1641
(lp1642
sVheaders
p1643
(lp1644
sVheadersSize
p1645
I668
sVbodySize
p1646
I0
sVmethod
p1647
VGET
p1648
sVhttpVersion
p1649
VHTTP/1.1
p1650
ssVtimings
p1651
(dp1652
Vcomment
p1653
g4
sVreceive
p1654
I25
sVsend
p1655
I0
sVssl
p1656
I-1
sVconnect
p1657
I-1
sVdns
p1658
I-1
sVwait
p1659
I23
sVblocked
p1660
I-1
ssVtime
p1661
I48
sVresponse
p1662
(dp1663
Vstatus
p1664
I200
sVcomment
p1665
g4
sVcookies
p1666
(lp1667
sVstatusText
p1668
VOK
p1669
sVcontent
p1670
(dp1671
VmimeType
p1672
Vapplication/font-woff
p1673
sVcomment
p1674
g4
sVsize
p1675
I0
ssVheaders
p1676
(lp1677
sVheadersSize
p1678
I869
sVredirectURL
p1679
g4
sVbodySize
p1680
I47496
sVhttpVersion
p1681
VHTTP/1.1
p1682
ssa(dp1683
Vcomment
p1684
g4
sVserverIPAddress
p1685
V216.58.216.193
p1686
sVpageref
p1687
VCam Newton
p1688
sVstartedDateTime
p1689
V2017-04-16T08:03:38.322-05:00
p1690
sVcache
p1691
(dp1692
sVrequest
p1693
(dp1694
Vcomment
p1695
g4
sVcookies
p1696
(lp1697
sVurl
p1698
Vhttps://www-foxsports-com.cdn.ampproject.org/r/www.foxsports.com/wp-content/themes/foxsports/assets/dist/fonts/031f39a3-3234-4656-bde4-a2b1939510ff-3.woff
p1699
sVqueryString
p1700
(lp1701
sVheaders
p1702
(lp1703
sVheadersSize
p1704
I668
sVbodySize
p1705
I0
sVmethod
p1706
VGET
p1707
sVhttpVersion
p1708
VHTTP/1.1
p1709
ssVtimings
p1710
(dp1711
Vcomment
p1712
g4
sVreceive
p1713
I27
sVsend
p1714
I0
sVssl
p1715
I32
sVconnect
p1716
I47
sVdns
p1717
I0
sVwait
p1718
I28
sVblocked
p1719
I0
ssVtime
p1720
I104
sVresponse
p1721
(dp1722
Vstatus
p1723
I200
sVcomment
p1724
g4
sVcookies
p1725
(lp1726
sVstatusText
p1727
VOK
p1728
sVcontent
p1729
(dp1730
VmimeType
p1731
Vapplication/font-woff
p1732
sVcomment
p1733
g4
sVsize
p1734
I0
ssVheaders
p1735
(lp1736
sVheadersSize
p1737
I869
sVredirectURL
p1738
g4
sVbodySize
p1739
I47713
sVhttpVersion
p1740
VHTTP/1.1
p1741
ssa(dp1742
Vcomment
p1743
g4
sVserverIPAddress
p1744
V216.58.216.193
p1745
sVpageref
p1746
VCam Newton
p1747
sVstartedDateTime
p1748
V2017-04-16T08:03:38.322-05:00
p1749
sVcache
p1750
(dp1751
sVrequest
p1752
(dp1753
Vcomment
p1754
g4
sVcookies
p1755
(lp1756
sVurl
p1757
Vhttps://www-foxsports-com.cdn.ampproject.org/r/www.foxsports.com/wp-content/themes/foxsports/assets/dist/fonts/3f394e84-2940-4425-9a52-22a92e107262-3.woff
p1758
sVqueryString
p1759
(lp1760
sVheaders
p1761
(lp1762
sVheadersSize
p1763
I668
sVbodySize
p1764
I0
sVmethod
p1765
VGET
p1766
sVhttpVersion
p1767
VHTTP/1.1
p1768
ssVtimings
p1769
(dp1770
Vcomment
p1771
g4
sVreceive
p1772
I33
sVsend
p1773
I0
sVssl
p1774
I32
sVconnect
p1775
I46
sVdns
p1776
I0
sVwait
p1777
I30
sVblocked
p1778
I0
ssVtime
p1779
I111
sVresponse
p1780
(dp1781
Vstatus
p1782
I200
sVcomment
p1783
g4
sVcookies
p1784
(lp1785
sVstatusText
p1786
VOK
p1787
sVcontent
p1788
(dp1789
VmimeType
p1790
Vapplication/font-woff
p1791
sVcomment
p1792
g4
sVsize
p1793
I0
ssVheaders
p1794
(lp1795
sVheadersSize
p1796
I869
sVredirectURL
p1797
g4
sVbodySize
p1798
I47724
sVhttpVersion
p1799
VHTTP/1.1
p1800
ssa(dp1801
Vcomment
p1802
g4
sVserverIPAddress
p1803
V216.58.216.193
p1804
sVpageref
p1805
VCam Newton
p1806
sVstartedDateTime
p1807
V2017-04-16T08:03:38.333-05:00
p1808
sVcache
p1809
(dp1810
sVrequest
p1811
(dp1812
Vcomment
p1813
g4
sVcookies
p1814
(lp1815
sVurl
p1816
Vhttps://www-foxsports-com.cdn.ampproject.org/ii/w150/www.foxsports.com/wp-content/themes/foxsports/assets/components/navGlobal/images/site-logo.svg
p1817
sVqueryString
p1818
(lp1819
sVheaders
p1820
(lp1821
sVheadersSize
p1822
I607
sVbodySize
p1823
I0
sVmethod
p1824
VGET
p1825
sVhttpVersion
p1826
VHTTP/1.1
p1827
ssVtimings
p1828
(dp1829
Vcomment
p1830
g4
sVreceive
p1831
I0
sVsend
p1832
I0
sVssl
p1833
I-1
sVconnect
p1834
I-1
sVdns
p1835
I-1
sVwait
p1836
I24
sVblocked
p1837
I-1
ssVtime
p1838
I24
sVresponse
p1839
(dp1840
Vstatus
p1841
I200
sVcomment
p1842
g4
sVcookies
p1843
(lp1844
sVstatusText
p1845
VOK
p1846
sVcontent
p1847
(dp1848
VmimeType
p1849
Vimage/svg+xml
p1850
sVcomment
p1851
g4
sVsize
p1852
I0
ssVheaders
p1853
(lp1854
sVheadersSize
p1855
I881
sVredirectURL
p1856
g4
sVbodySize
p1857
I1147
sVhttpVersion
p1858
VHTTP/1.1
p1859
ssa(dp1860
Vcomment
p1861
g4
sVserverIPAddress
p1862
V216.58.216.193
p1863
sVpageref
p1864
VCam Newton
p1865
sVstartedDateTime
p1866
V2017-04-16T08:03:38.828-05:00
p1867
sVcache
p1868
(dp1869
sVrequest
p1870
(dp1871
Vcomment
p1872
g4
sVcookies
p1873
(lp1874
sVurl
p1875
Vhttps://b-fssta-com.cdn.ampproject.org/i/b.fssta.com/uploads/2017/04/041517-nfl-cam-newton-coachella.vresize.1024.576.high.0.jpg
p1876
sVqueryString
p1877
(lp1878
sVheaders
p1879
(lp1880
sVheadersSize
p1881
I588
sVbodySize
p1882
I0
sVmethod
p1883
VGET
p1884
sVhttpVersion
p1885
VHTTP/1.1
p1886
ssVtimings
p1887
(dp1888
Vcomment
p1889
g4
sVreceive
p1890
I32
sVsend
p1891
I0
sVssl
p1892
I446
sVconnect
p1893
I463
sVdns
p1894
I27
sVwait
p1895
I25
sVblocked
p1896
I0
ssVtime
p1897
I549
sVresponse
p1898
(dp1899
Vstatus
p1900
I200
sVcomment
p1901
g4
sVcookies
p1902
(lp1903
sVstatusText
p1904
VOK
p1905
sVcontent
p1906
(dp1907
VmimeType
p1908
Vimage/jpeg
p1909
sVcomment
p1910
g4
sVsize
p1911
I0
ssVheaders
p1912
(lp1913
sVheadersSize
p1914
I849
sVredirectURL
p1915
g4
sVbodySize
p1916
I85199
sVhttpVersion
p1917
VHTTP/1.1
p1918
ssa(dp1919
Vcomment
p1920
g4
sVserverIPAddress
p1921
V216.58.216.196
p1922
sVpageref
p1923
VCam Newton
p1924
sVstartedDateTime
p1925
V2017-04-16T08:03:38.900-05:00
p1926
sVcache
p1927
(dp1928
sVrequest
p1929
(dp1930
Vcomment
p1931
g4
sVcookies
p1932
(lp1933
sVurl
p1934
Vhttps://www.google.com/gen_204?s=web&atyp=csi&ei=p2vzWJn7BMX-jwTbibuwAg&imc=46&imn=46&imp=26&adh=&xjs=init.28.15.sb_mob.21.dvl.3.c.1.mbsf.1.foot.1&ima=21&rt=prt.831,iml.956,xjsls.831,dcl.870,qiml.1156,xjses.981,xjsee.1098,xjs.1098,ol.2732,aft.956,wsrt.95,cst.0,dnst.0,rqst.851,rspt.768,rqstt.2,unt.1,cstt.1,dit.945
p1935
sVqueryString
p1936
(lp1937
(dp1938
Vname
p1939
g57
sVvalue
p1940
Vweb
p1941
sa(dp1942
Vname
p1943
Vatyp
p1944
sVvalue
p1945
Vcsi
p1946
sa(dp1947
Vname
p1948
Vei
p1949
sVvalue
p1950
Vp2vzWJn7BMX-jwTbibuwAg
p1951
sa(dp1952
Vname
p1953
Vimc
p1954
sVvalue
p1955
V46
p1956
sa(dp1957
Vname
p1958
Vimn
p1959
sVvalue
p1960
V46
p1961
sa(dp1962
Vname
p1963
Vimp
p1964
sVvalue
p1965
V26
p1966
sa(dp1967
Vname
p1968
Vadh
p1969
sVvalue
p1970
g4
sa(dp1971
Vname
p1972
Vxjs
p1973
sVvalue
p1974
Vinit.28.15.sb_mob.21.dvl.3.c.1.mbsf.1.foot.1
p1975
sa(dp1976
Vname
p1977
Vima
p1978
sVvalue
p1979
V21
p1980
sa(dp1981
Vname
p1982
Vrt
p1983
sVvalue
p1984
Vprt.831,iml.956,xjsls.831,dcl.870,qiml.1156,xjses.981,xjsee.1098,xjs.1098,ol.2732,aft.956,wsrt.95,cst.0,dnst.0,rqst.851,rspt.768,rqstt.2,unt.1,cstt.1,dit.945
p1985
sasVheaders
p1986
(lp1987
sVheadersSize
p1988
I831
sVbodySize
p1989
I0
sVmethod
p1990
VGET
p1991
sVhttpVersion
p1992
VHTTP/1.1
p1993
ssVtimings
p1994
(dp1995
Vcomment
p1996
g4
sVreceive
p1997
I0
sVsend
p1998
I0
sVssl
p1999
I-1
sVconnect
p2000
I-1
sVdns
p2001
I-1
sVwait
p2002
I31
sVblocked
p2003
I-1
ssVtime
p2004
I31
sVresponse
p2005
(dp2006
Vstatus
p2007
I204
sVcomment
p2008
g4
sVcookies
p2009
(lp2010
sVstatusText
p2011
VNo Content
p2012
sVcontent
p2013
(dp2014
VmimeType
p2015
Vtext/html; charset=UTF-8
p2016
sVcomment
p2017
g4
sVsize
p2018
I0
ssVheaders
p2019
(lp2020
sVheadersSize
p2021
I248
sVredirectURL
p2022
g4
sVbodySize
p2023
I0
sVhttpVersion
p2024
VHTTP/1.1
p2025
ssa(dp2026
Vcomment
p2027
g4
sVserverIPAddress
p2028
V216.58.216.196
p2029
sVpageref
p2030
VCam Newton
p2031
sVstartedDateTime
p2032
V2017-04-16T08:03:39.484-05:00
p2033
sVcache
p2034
(dp2035
sVrequest
p2036
(dp2037
Vcomment
p2038
g4
sVcookies
p2039
(lp2040
sVurl
p2041
Vhttps://www.google.com/gen_204?atyp=i&ct=slh&cad=&ei=j2vzWKicPKbUjwTI3aaACQ&m=V&t=C&s=1&v=2&pv=0.8407823720126577&me=1:1492347794319,x:1,V,0,0,1280,944:0,N,1,j2vzWKicPKbUjwTI3aaACQ:0,R,1,24,8,155,1249,251:0,R,1,34,8,416,1249,437:0,R,1,35,8,416,1249,437:0,R,1,38,8,429,1249,40:0,R,1,51,8,481,1249,178:0,R,1,54,0,497,1265,197:0,R,1,94,8,676,1249,40:0,R,1,95,24,676,1217,40:0,R,1,101,8,732,1249,20:0,R,1,108,8,760,1249,20:0,R,1,149,24,863,1217,135:2,B,3408:21267,e,U&zx=1492347819483
p2042
sVqueryString
p2043
(lp2044
(dp2045
Vname
p2046
Vatyp
p2047
sVvalue
p2048
g30
sa(dp2049
Vname
p2050
Vct
p2051
sVvalue
p2052
Vslh
p2053
sa(dp2054
Vname
p2055
Vcad
p2056
sVvalue
p2057
g4
sa(dp2058
Vname
p2059
Vei
p2060
sVvalue
p2061
Vj2vzWKicPKbUjwTI3aaACQ
p2062
sa(dp2063
Vname
p2064
g47
sVvalue
p2065
g49
sa(dp2066
Vname
p2067
g52
sVvalue
p2068
g54
sa(dp2069
Vname
p2070
g57
sVvalue
p2071
g59
sa(dp2072
Vname
p2073
g62
sVvalue
p2074
g64
sa(dp2075
Vname
p2076
Vpv
p2077
sVvalue
p2078
V0.8407823720126577
p2079
sa(dp2080
Vname
p2081
Vme
p2082
sVvalue
p2083
V1:1492347794319,x:1,V,0,0,1280,944:0,N,1,j2vzWKicPKbUjwTI3aaACQ:0,R,1,24,8,155,1249,251:0,R,1,34,8,416,1249,437:0,R,1,35,8,416,1249,437:0,R,1,38,8,429,1249,40:0,R,1,51,8,481,1249,178:0,R,1,54,0,497,1265,197:0,R,1,94,8,676,1249,40:0,R,1,95,24,676,1217,40:0,R,1,101,8,732,1249,20:0,R,1,108,8,760,1249,20:0,R,1,149,24,863,1217,135:2,B,3408:21267,e,U
p2084
sa(dp2085
Vname
p2086
Vzx
p2087
sVvalue
p2088
V1492347819483
p2089
sasVheaders
p2090
(lp2091
sVheadersSize
p2092
I997
sVbodySize
p2093
I0
sVmethod
p2094
VGET
p2095
sVhttpVersion
p2096
VHTTP/1.1
p2097
ssVtimings
p2098
(dp2099
Vcomment
p2100
g4
sVreceive
p2101
I0
sVsend
p2102
I0
sVssl
p2103
I-1
sVconnect
p2104
I-1
sVdns
p2105
I-1
sVwait
p2106
I32
sVblocked
p2107
I-1
ssVtime
p2108
I33
sVresponse
p2109
(dp2110
Vstatus
p2111
I204
sVcomment
p2112
g4
sVcookies
p2113
(lp2114
sVstatusText
p2115
VNo Content
p2116
sVcontent
p2117
(dp2118
VmimeType
p2119
Vtext/html; charset=UTF-8
p2120
sVcomment
p2121
g4
sVsize
p2122
I0
ssVheaders
p2123
(lp2124
sVheadersSize
p2125
I248
sVredirectURL
p2126
g4
sVbodySize
p2127
I0
sVhttpVersion
p2128
VHTTP/1.1
p2129
ssasVversion
p2130
V1.2
p2131
sVpages
p2132
(lp2133
(dp2134
VpageTimings
p2135
(dp2136
Vcomment
p2137
g4
ssVcomment
p2138
g4
sVtitle
p2139
VCam Newton
p2140
sVid
p2141
VCam Newton
p2142
sVstartedDateTime
p2143
V2017-04-16T08:03:35.582-05:00
p2144
sasVcreator
p2145
(dp2146
Vcomment
p2147
g4
sVversion
p2148
V2.1.4
p2149
sVname
p2150
VBrowserMob Proxy
p2151
sss.