(dp0
Vlog
p1
(dp2
Vcomment
p3
V
p4
sVentries
p5
(lp6
(dp7
Vcomment
p8
g4
sVserverIPAddress
p9
V216.58.216.196
p10
sVpageref
p11
VHurricane Matthew
p12
sVstartedDateTime
p13
V2017-04-16T07:57:42.557-05:00
p14
sVcache
p15
(dp16
sVrequest
p17
(dp18
Vcomment
p19
g4
sVcookies
p20
(lp21
sVurl
p22
Vhttps://www.google.com/gen_204?atyp=i&ct=slh&cad=&ei=OWrzWO-wC6zqjwSk65agBw&m=V&t=C&s=1&v=2&pv=0.7499807975481056&me=1:1492347451894,x:1,V,0,0,1280,944:0,N,1,OWrzWO-wC6zqjwSk65agBw:0,R,1,22,8,155,1249,194:0,R,1,34,8,359,1249,631:0,R,1,38,8,472,1249,332:0,R,1,39,0,473,1265,351:0,R,1,70,8,804,1249,186:2,B,3542:10659,e,U&zx=1492347462556
p23
sVqueryString
p24
(lp25
(dp26
Vname
p27
Vatyp
p28
sVvalue
p29
Vi
p30
sa(dp31
Vname
p32
Vct
p33
sVvalue
p34
Vslh
p35
sa(dp36
Vname
p37
Vcad
p38
sVvalue
p39
g4
sa(dp40
Vname
p41
Vei
p42
sVvalue
p43
VOWrzWO-wC6zqjwSk65agBw
p44
sa(dp45
Vname
p46
Vm
p47
sVvalue
p48
VV
p49
sa(dp50
Vname
p51
Vt
p52
sVvalue
p53
VC
p54
sa(dp55
Vname
p56
Vs
p57
sVvalue
p58
V1
p59
sa(dp60
Vname
p61
Vv
p62
sVvalue
p63
V2
p64
sa(dp65
Vname
p66
Vpv
p67
sVvalue
p68
V0.7499807975481056
p69
sa(dp70
Vname
p71
Vme
p72
sVvalue
p73
V1:1492347451894,x:1,V,0,0,1280,944:0,N,1,OWrzWO-wC6zqjwSk65agBw:0,R,1,22,8,155,1249,194:0,R,1,34,8,359,1249,631:0,R,1,38,8,472,1249,332:0,R,1,39,0,473,1265,351:0,R,1,70,8,804,1249,186:2,B,3542:10659,e,U
p74
sa(dp75
Vname
p76
Vzx
p77
sVvalue
p78
V1492347462556
p79
sasVheaders
p80
(lp81
sVheadersSize
p82
I853
sVbodySize
p83
I0
sVmethod
p84
VGET
p85
sVhttpVersion
p86
VHTTP/1.1
p87
ssVtimings
p88
(dp89
Vcomment
p90
g4
sVreceive
p91
I0
sVsend
p92
I0
sVssl
p93
I-1
sVconnect
p94
I-1
sVdns
p95
I-1
sVwait
p96
I0
sVblocked
p97
I-1
ssVtime
p98
I0
sVresponse
p99
(dp100
Vstatus
p101
I0
sVcomment
p102
g4
sVcookies
p103
(lp104
sV_error
p105
VNo response received
p106
sVstatusText
p107
g4
sVcontent
p108
(dp109
VmimeType
p110
g4
sVcomment
p111
g4
sVsize
p112
I0
ssVheaders
p113
(lp114
sVheadersSize
p115
I-1
sVredirectURL
p116
g4
sVbodySize
p117
I-1
sVhttpVersion
p118
Vunknown
p119
ssa(dp120
Vcomment
p121
g4
sVserverIPAddress
p122
V216.58.216.196
p123
sVpageref
p124
VHurricane Matthew
p125
sVstartedDateTime
p126
V2017-04-16T07:57:42.560-05:00
p127
sVcache
p128
(dp129
sVrequest
p130
(dp131
Vcomment
p132
g4
sVcookies
p133
(lp134
sVurl
p135
Vhttp://www.google.com/
p136
sVqueryString
p137
(lp138
sVheaders
p139
(lp140
sVheadersSize
p141
I613
sVbodySize
p142
I0
sVmethod
p143
VGET
p144
sVhttpVersion
p145
VHTTP/1.1
p146
ssVtimings
p147
(dp148
Vcomment
p149
g4
sVreceive
p150
I0
sVsend
p151
I0
sVssl
p152
I-1
sVconnect
p153
I-1
sVdns
p154
I-1
sVwait
p155
I55
sVblocked
p156
I-1
ssVtime
p157
I55
sVresponse
p158
(dp159
Vstatus
p160
I302
sVcomment
p161
g4
sVcookies
p162
(lp163
sVstatusText
p164
VFound
p165
sVcontent
p166
(dp167
VmimeType
p168
Vtext/html; charset=UTF-8
p169
sVcomment
p170
g4
sVsize
p171
I0
ssVheaders
p172
(lp173
sVheadersSize
p174
I609
sVredirectURL
p175
Vhttps://www.google.com/?gws_rd=ssl
p176
sVbodySize
p177
I231
sVhttpVersion
p178
VHTTP/1.1
p179
ssa(dp180
Vcomment
p181
g4
sVserverIPAddress
p182
V216.58.216.196
p183
sVpageref
p184
VHurricane Matthew
p185
sVstartedDateTime
p186
V2017-04-16T07:57:42.619-05:00
p187
sVcache
p188
(dp189
sVrequest
p190
(dp191
Vcomment
p192
g4
sVcookies
p193
(lp194
sVurl
p195
Vhttps://www.google.com/?gws_rd=ssl
p196
sVqueryString
p197
(lp198
(dp199
Vname
p200
Vgws_rd
p201
sVvalue
p202
Vssl
p203
sasVheaders
p204
(lp205
sVheadersSize
p206
I607
sVbodySize
p207
I0
sVmethod
p208
VGET
p209
sVhttpVersion
p210
VHTTP/1.1
p211
ssVtimings
p212
(dp213
Vcomment
p214
g4
sVreceive
p215
I32
sVsend
p216
I0
sVssl
p217
I-1
sVconnect
p218
I-1
sVdns
p219
I-1
sVwait
p220
I72
sVblocked
p221
I-1
ssVtime
p222
I105
sVresponse
p223
(dp224
Vstatus
p225
I200
sVcomment
p226
g4
sVcookies
p227
(lp228
sVstatusText
p229
VOK
p230
sVcontent
p231
(dp232
VmimeType
p233
Vtext/html; charset=UTF-8
p234
sVcomment
p235
g4
sVsize
p236
I0
ssVheaders
p237
(lp238
sVheadersSize
p239
I721
sVredirectURL
p240
g4
sVbodySize
p241
I34291
sVhttpVersion
p242
VHTTP/1.1
p243
ssa(dp244
Vcomment
p245
g4
sVserverIPAddress
p246
V216.58.216.196
p247
sVpageref
p248
VHurricane Matthew
p249
sVstartedDateTime
p250
V2017-04-16T07:57:42.865-05:00
p251
sVcache
p252
(dp253
sVrequest
p254
(dp255
Vcomment
p256
g4
sVcookies
p257
(lp258
sVurl
p259
Vhttps://www.google.com/gen_204?s=mobilewebhp&atyp=csi&ei=RWrzWO_6JpejjwTw8Ie4Dw&imc=1&imn=1&imp=0&adh=&xjs=init.21.12.sb_mob.16.dvl.2.c.1.mbsf.1.foot.1&ima=1&rt=xjsls.7,prt.8,iml.8,dcl.32,xjses.59,xjsee.126,xjs.126,ol.153,aft.8,wsrt.152,cst.0,dnst.0,rqst.106,rspt.33,rqstt.63,unt.62,cstt.62,dit.181
p260
sVqueryString
p261
(lp262
(dp263
Vname
p264
g57
sVvalue
p265
Vmobilewebhp
p266
sa(dp267
Vname
p268
Vatyp
p269
sVvalue
p270
Vcsi
p271
sa(dp272
Vname
p273
Vei
p274
sVvalue
p275
VRWrzWO_6JpejjwTw8Ie4Dw
p276
sa(dp277
Vname
p278
Vimc
p279
sVvalue
p280
g59
sa(dp281
Vname
p282
Vimn
p283
sVvalue
p284
g59
sa(dp285
Vname
p286
Vimp
p287
sVvalue
p288
V0
p289
sa(dp290
Vname
p291
Vadh
p292
sVvalue
p293
g4
sa(dp294
Vname
p295
Vxjs
p296
sVvalue
p297
Vinit.21.12.sb_mob.16.dvl.2.c.1.mbsf.1.foot.1
p298
sa(dp299
Vname
p300
Vima
p301
sVvalue
p302
g59
sa(dp303
Vname
p304
Vrt
p305
sVvalue
p306
Vxjsls.7,prt.8,iml.8,dcl.32,xjses.59,xjsee.126,xjs.126,ol.153,aft.8,wsrt.152,cst.0,dnst.0,rqst.106,rspt.33,rqstt.63,unt.62,cstt.62,dit.181
p307
sasVheaders
p308
(lp309
sVheadersSize
p310
I826
sVbodySize
p311
I0
sVmethod
p312
VGET
p313
sVhttpVersion
p314
VHTTP/1.1
p315
ssVtimings
p316
(dp317
Vcomment
p318
g4
sVreceive
p319
I0
sVsend
p320
I0
sVssl
p321
I-1
sVconnect
p322
I-1
sVdns
p323
I-1
sVwait
p324
I25
sVblocked
p325
I-1
ssVtime
p326
I25
sVresponse
p327
(dp328
Vstatus
p329
I204
sVcomment
p330
g4
sVcookies
p331
(lp332
sVstatusText
p333
VNo Content
p334
sVcontent
p335
(dp336
VmimeType
p337
Vtext/html; charset=UTF-8
p338
sVcomment
p339
g4
sVsize
p340
I0
ssVheaders
p341
(lp342
sVheadersSize
p343
I248
sVredirectURL
p344
g4
sVbodySize
p345
I0
sVhttpVersion
p346
VHTTP/1.1
p347
ssa(dp348
Vcomment
p349
g4
sVserverIPAddress
p350
V216.58.216.196
p351
sVpageref
p352
VHurricane Matthew
p353
sVstartedDateTime
p354
V2017-04-16T07:57:42.991-05:00
p355
sVcache
p356
(dp357
sVrequest
p358
(dp359
Vcomment
p360
g4
sVcookies
p361
(lp362
sVurl
p363
Vhttps://www.google.com/complete/search?client=mobile-gws-hp&hl=en&gs_rn=64&gs_ri=mobile-gws-hp&sla=1&gm=602&cp=0&gs_id=1&xhr=t&q=H&tch=1&ech=1&psi=RWrzWO_6JpejjwTw8Ie4Dw.1492347462814.1
p364
sVqueryString
p365
(lp366
(dp367
Vname
p368
Vclient
p369
sVvalue
p370
Vmobile-gws-hp
p371
sa(dp372
Vname
p373
Vhl
p374
sVvalue
p375
Ven
p376
sa(dp377
Vname
p378
Vgs_rn
p379
sVvalue
p380
V64
p381
sa(dp382
Vname
p383
Vgs_ri
p384
sVvalue
p385
Vmobile-gws-hp
p386
sa(dp387
Vname
p388
Vsla
p389
sVvalue
p390
g59
sa(dp391
Vname
p392
Vgm
p393
sVvalue
p394
V602
p395
sa(dp396
Vname
p397
Vcp
p398
sVvalue
p399
g289
sa(dp400
Vname
p401
Vgs_id
p402
sVvalue
p403
g59
sa(dp404
Vname
p405
Vxhr
p406
sVvalue
p407
g52
sa(dp408
Vname
p409
Vq
p410
sVvalue
p411
VH
p412
sa(dp413
Vname
p414
Vtch
p415
sVvalue
p416
g59
sa(dp417
Vname
p418
Vech
p419
sVvalue
p420
g59
sa(dp421
Vname
p422
Vpsi
p423
sVvalue
p424
VRWrzWO_6JpejjwTw8Ie4Dw.1492347462814.1
p425
sasVheaders
p426
(lp427
sVheadersSize
p428
I713
sVbodySize
p429
I0
sVmethod
p430
VGET
p431
sVhttpVersion
p432
VHTTP/1.1
p433
ssVtimings
p434
(dp435
Vcomment
p436
g4
sVreceive
p437
I0
sVsend
p438
I0
sVssl
p439
I-1
sVconnect
p440
I-1
sVdns
p441
I-1
sVwait
p442
I0
sVblocked
p443
I-1
ssVtime
p444
I0
sVresponse
p445
(dp446
Vstatus
p447
I0
sVcomment
p448
g4
sVcookies
p449
(lp450
sV_error
p451
VNo response received
p452
sVstatusText
p453
g4
sVcontent
p454
(dp455
VmimeType
p456
g4
sVcomment
p457
g4
sVsize
p458
I0
ssVheaders
p459
(lp460
sVheadersSize
p461
I-1
sVredirectURL
p462
g4
sVbodySize
p463
I-1
sVhttpVersion
p464
Vunknown
p465
ssa(dp466
Vcomment
p467
g4
sVserverIPAddress
p468
V216.58.216.196
p469
sVpageref
p470
VHurricane Matthew
p471
sVstartedDateTime
p472
V2017-04-16T07:57:43.055-05:00
p473
sVcache
p474
(dp475
sVrequest
p476
(dp477
Vcomment
p478
g4
sVcookies
p479
(lp480
sVurl
p481
Vhttps://www.google.com/search?site=&source=hp&ei=RWrzWO_6JpejjwTw8Ie4Dw&q=Hurricane+Matthew&oq=Hurricane+Matthew&gs_l=mobile-gws-hp.3...159.195.0.220.17.1.0.0.0.0.0.0..0.0....0...1c.1.64.mobile-gws-hp..17.0.0.cdYOXOtQu70
p482
sVqueryString
p483
(lp484
(dp485
Vname
p486
Vsite
p487
sVvalue
p488
g4
sa(dp489
Vname
p490
Vsource
p491
sVvalue
p492
Vhp
p493
sa(dp494
Vname
p495
Vei
p496
sVvalue
p497
VRWrzWO_6JpejjwTw8Ie4Dw
p498
sa(dp499
Vname
p500
g410
sVvalue
p501
VHurricane Matthew
p502
sa(dp503
Vname
p504
Voq
p505
sVvalue
p506
VHurricane Matthew
p507
sa(dp508
Vname
p509
Vgs_l
p510
sVvalue
p511
Vmobile-gws-hp.3...159.195.0.220.17.1.0.0.0.0.0.0..0.0....0...1c.1.64.mobile-gws-hp..17.0.0.cdYOXOtQu70
p512
sasVheaders
p513
(lp514
sVheadersSize
p515
I838
sVbodySize
p516
I0
sVmethod
p517
VGET
p518
sVhttpVersion
p519
VHTTP/1.1
p520
ssVtimings
p521
(dp522
Vcomment
p523
g4
sVreceive
p524
I801
sVsend
p525
I0
sVssl
p526
I-1
sVconnect
p527
I-1
sVdns
p528
I-1
sVwait
p529
I83
sVblocked
p530
I-1
ssVtime
p531
I885
sVresponse
p532
(dp533
Vstatus
p534
I200
sVcomment
p535
g4
sVcookies
p536
(lp537
sVstatusText
p538
VOK
p539
sVcontent
p540
(dp541
VmimeType
p542
Vtext/html; charset=UTF-8
p543
sVcomment
p544
g4
sVsize
p545
I0
ssVheaders
p546
(lp547
sVheadersSize
p548
I363
sVredirectURL
p549
g4
sVbodySize
p550
I150873
sVhttpVersion
p551
VHTTP/1.1
p552
ssa(dp553
Vcomment
p554
g4
sVserverIPAddress
p555
V216.58.216.196
p556
sVpageref
p557
VHurricane Matthew
p558
sVstartedDateTime
p559
V2017-04-16T07:57:44.237-05:00
p560
sVcache
p561
(dp562
sVrequest
p563
(dp564
Vcomment
p565
g4
sVcookies
p566
(lp567
sVurl
p568
Vhttps://www.google.com/xjs/_/js/k=xjs.qs.en_US.pCBXVCvTH3s.O/m=syl,syj,syn,em3,em8,em6,em7,sym,aa,abd,sy2g,sy2k,sy29,sy2j,sy2d,sy2a,sy2c,sy2f,sy2l,sy2m,sy2n,emd,async,sybn,sybi,sybo,sy1f,sy45,sy46,sy9w,sybk,sybj,sybp,sy1g,sy30,sy47,sybm,sybl,sybq,sy1h,sybh,dvl,syep,foot,ipv6,sy32,emj,shm,sy5g,sy5i,sy5k,sykh,tl,sy2x,sy2y,sy2t,sy38,em12,vs,sy5j,sy5h,sy6u,sy66,sy67,sy7d,sy7j,sy4u,sy69,sy89,sy7e,sykk,sykl,tnv,bct,sy1y,sy23,sy2u,sy22,sy6i,sy34,sy31,sy6j,sy25,sy6l,sy6k,sy6h,emb,em9,ema,sy6m,qkx,sy4d,sy4f,sy4c,sy4e,sy24,sy4b,sy6w,shrb,sy4g,syd7,dgm,syf5,syf6,syf8,sygb,syg9,kptm,sy99,syf4,sy26,syfc,syfn,syf7,syff,sy1i,sy68,sy8d,sy9b,syfl,syfr,syfq,syfg,sy1j,sy4q,sy5o,sy5r,sy6n,sy6p,sy8h,syc7,syc8,syfb,syfj,syfs,syft,syg3,syg5,syg7,emn,emo,syg4,syg6,ivg,sy9m,syac,sy9n,syhz,syl6,ssc,iuci,img,sy41,tcc,sya3,sya2,sy72,sya4,sykr,strm,sygq,kpc,kpci,sy4h,vrml,sy6y,sycu,d3l,syj7,syj8,syj2,syjc,syj6,syj3,syjg,syjh,syje,syjd,syjk,syji,syjf,syj0,emr,ems,emt,emu,emv,emx,emy,emz,em10,em11,udlg,sy5z,atn,sy4i,sya1,ampfp/am=gCP4LtMEBXQA2RUaq_oFBISzAFA/rt=j/d=0/t=zcms/rs=ACT90oFwm4NZCwIcuuiqmthdlECdBzkhRA
p569
sVqueryString
p570
(lp571
sVheaders
p572
(lp573
sVheadersSize
p574
I1613
sVbodySize
p575
I0
sVmethod
p576
VGET
p577
sVhttpVersion
p578
VHTTP/1.1
p579
ssVtimings
p580
(dp581
Vcomment
p582
g4
sVreceive
p583
I27
sVsend
p584
I0
sVssl
p585
I-1
sVconnect
p586
I-1
sVdns
p587
I-1
sVwait
p588
I20
sVblocked
p589
I-1
ssVtime
p590
I48
sVresponse
p591
(dp592
Vstatus
p593
I200
sVcomment
p594
g4
sVcookies
p595
(lp596
sVstatusText
p597
VOK
p598
sVcontent
p599
(dp600
VmimeType
p601
Vtext/javascript; charset=UTF-8
p602
sVcomment
p603
g4
sVsize
p604
I0
ssVheaders
p605
(lp606
sVheadersSize
p607
I465
sVredirectURL
p608
g4
sVbodySize
p609
I114288
sVhttpVersion
p610
VHTTP/1.1
p611
ssa(dp612
Vcomment
p613
g4
sVserverIPAddress
p614
V216.58.216.196
p615
sVpageref
p616
VHurricane Matthew
p617
sVstartedDateTime
p618
V2017-04-16T07:57:44.903-05:00
p619
sVcache
p620
(dp621
sVrequest
p622
(dp623
Vcomment
p624
g4
sVcookies
p625
(lp626
sVurl
p627
Vhttps://www.google.com/async/irc?vet=10ahUKEwi8ku_Cg6nTAhWlzIMKHVP6Cl0Qo0EI9QE..i&ved=0ahUKEwi8ku_Cg6nTAhWlzIMKHVP6Cl0Qo0EI9QE&ei=RmrzWLzXBKWZjwTT9KvoBQ&yv=2&async=iu:1,ved:0ahUKEwi8ku_Cg6nTAhWlzIMKHVP6Cl0Qo0EI9QE,_id:irc_async,_pms:qs
p628
sVqueryString
p629
(lp630
(dp631
Vname
p632
Vvet
p633
sVvalue
p634
V10ahUKEwi8ku_Cg6nTAhWlzIMKHVP6Cl0Qo0EI9QE..i
p635
sa(dp636
Vname
p637
Vved
p638
sVvalue
p639
V0ahUKEwi8ku_Cg6nTAhWlzIMKHVP6Cl0Qo0EI9QE
p640
sa(dp641
Vname
p642
Vei
p643
sVvalue
p644
VRmrzWLzXBKWZjwTT9KvoBQ
p645
sa(dp646
Vname
p647
Vyv
p648
sVvalue
p649
g64
sa(dp650
Vname
p651
Vasync
p652
sVvalue
p653
Viu:1,ved:0ahUKEwi8ku_Cg6nTAhWlzIMKHVP6Cl0Qo0EI9QE,_id:irc_async,_pms:qs
p654
sasVheaders
p655
(lp656
sVheadersSize
p657
I752
sVbodySize
p658
I0
sVmethod
p659
VGET
p660
sVhttpVersion
p661
VHTTP/1.1
p662
ssVtimings
p663
(dp664
Vcomment
p665
g4
sVreceive
p666
I1
sVsend
p667
I0
sVssl
p668
I-1
sVconnect
p669
I-1
sVdns
p670
I-1
sVwait
p671
I36
sVblocked
p672
I-1
ssVtime
p673
I38
sVresponse
p674
(dp675
Vstatus
p676
I200
sVcomment
p677
g4
sVcookies
p678
(lp679
sVstatusText
p680
VOK
p681
sVcontent
p682
(dp683
VmimeType
p684
Vtext/html; charset=UTF-8
p685
sVcomment
p686
g4
sVsize
p687
I0
ssVheaders
p688
(lp689
sVheadersSize
p690
I383
sVredirectURL
p691
g4
sVbodySize
p692
I7791
sVhttpVersion
p693
VHTTP/1.1
p694
ssa(dp695
Vcomment
p696
g4
sVserverIPAddress
p697
V216.58.216.196
p698
sVpageref
p699
VHurricane Matthew
p700
sVstartedDateTime
p701
V2017-04-16T07:57:44.960-05:00
p702
sVcache
p703
(dp704
sVrequest
p705
(dp706
Vcomment
p707
g4
sVcookies
p708
(lp709
sVurl
p710
Vhttps://www.google.com/gen_204?atyp=i&ct=&cad=&vet=10ahUKEwi8ku_Cg6nTAhWlzIMKHVP6Cl0Q5W0IMygC..s&ei=RmrzWLzXBKWZjwTT9KvoBQ&zx=1492347464913
p711
sVqueryString
p712
(lp713
(dp714
Vname
p715
Vatyp
p716
sVvalue
p717
g30
sa(dp718
Vname
p719
Vct
p720
sVvalue
p721
g4
sa(dp722
Vname
p723
Vcad
p724
sVvalue
p725
g4
sa(dp726
Vname
p727
Vvet
p728
sVvalue
p729
V10ahUKEwi8ku_Cg6nTAhWlzIMKHVP6Cl0Q5W0IMygC..s
p730
sa(dp731
Vname
p732
Vei
p733
sVvalue
p734
VRmrzWLzXBKWZjwTT9KvoBQ
p735
sa(dp736
Vname
p737
Vzx
p738
sVvalue
p739
V1492347464913
p740
sasVheaders
p741
(lp742
sVheadersSize
p743
I656
sVbodySize
p744
I0
sVmethod
p745
VGET
p746
sVhttpVersion
p747
VHTTP/1.1
p748
ssVtimings
p749
(dp750
Vcomment
p751
g4
sVreceive
p752
I0
sVsend
p753
I0
sVssl
p754
I16
sVconnect
p755
I43
sVdns
p756
I1
sVwait
p757
I27
sVblocked
p758
I0
ssVtime
p759
I72
sVresponse
p760
(dp761
Vstatus
p762
I204
sVcomment
p763
g4
sVcookies
p764
(lp765
sVstatusText
p766
VNo Content
p767
sVcontent
p768
(dp769
VmimeType
p770
Vtext/html; charset=UTF-8
p771
sVcomment
p772
g4
sVsize
p773
I0
ssVheaders
p774
(lp775
sVheadersSize
p776
I248
sVredirectURL
p777
g4
sVbodySize
p778
I0
sVhttpVersion
p779
VHTTP/1.1
p780
ssa(dp781
Vcomment
p782
g4
sVserverIPAddress
p783
V216.58.216.196
p784
sVpageref
p785
VHurricane Matthew
p786
sVstartedDateTime
p787
V2017-04-16T07:57:44.966-05:00
p788
sVcache
p789
(dp790
sVrequest
p791
(dp792
Vcomment
p793
g4
sVcookies
p794
(lp795
sVurl
p796
Vhttps://www.google.com/gen_204?atyp=i&ct=&cad=&vet=10ahUKEwi8ku_Cg6nTAhWlzIMKHVP6Cl0Q5W0INigD..s&ei=RmrzWLzXBKWZjwTT9KvoBQ&zx=1492347464916
p797
sVqueryString
p798
(lp799
(dp800
Vname
p801
Vatyp
p802
sVvalue
p803
g30
sa(dp804
Vname
p805
Vct
p806
sVvalue
p807
g4
sa(dp808
Vname
p809
Vcad
p810
sVvalue
p811
g4
sa(dp812
Vname
p813
Vvet
p814
sVvalue
p815
V10ahUKEwi8ku_Cg6nTAhWlzIMKHVP6Cl0Q5W0INigD..s
p816
sa(dp817
Vname
p818
Vei
p819
sVvalue
p820
VRmrzWLzXBKWZjwTT9KvoBQ
p821
sa(dp822
Vname
p823
Vzx
p824
sVvalue
p825
V1492347464916
p826
sasVheaders
p827
(lp828
sVheadersSize
p829
I656
sVbodySize
p830
I0
sVmethod
p831
VGET
p832
sVhttpVersion
p833
VHTTP/1.1
p834
ssVtimings
p835
(dp836
Vcomment
p837
g4
sVreceive
p838
I0
sVsend
p839
I0
sVssl
p840
I21
sVconnect
p841
I46
sVdns
p842
I0
sVwait
p843
I31
sVblocked
p844
I0
ssVtime
p845
I78
sVresponse
p846
(dp847
Vstatus
p848
I204
sVcomment
p849
g4
sVcookies
p850
(lp851
sVstatusText
p852
VNo Content
p853
sVcontent
p854
(dp855
VmimeType
p856
Vtext/html; charset=UTF-8
p857
sVcomment
p858
g4
sVsize
p859
I0
ssVheaders
p860
(lp861
sVheadersSize
p862
I248
sVredirectURL
p863
g4
sVbodySize
p864
I0
sVhttpVersion
p865
VHTTP/1.1
p866
ssa(dp867
Vcomment
p868
g4
sVserverIPAddress
p869
V216.58.216.196
p870
sVpageref
p871
VHurricane Matthew
p872
sVstartedDateTime
p873
V2017-04-16T07:57:44.966-05:00
p874
sVcache
p875
(dp876
sVrequest
p877
(dp878
Vcomment
p879
g4
sVcookies
p880
(lp881
sVurl
p882
Vhttps://www.google.com/gen_204?atyp=i&ct=&cad=&vet=10ahUKEwi8ku_Cg6nTAhWlzIMKHVP6Cl0Q5W0IOSgE..s&ei=RmrzWLzXBKWZjwTT9KvoBQ&zx=1492347464919
p883
sVqueryString
p884
(lp885
(dp886
Vname
p887
Vatyp
p888
sVvalue
p889
g30
sa(dp890
Vname
p891
Vct
p892
sVvalue
p893
g4
sa(dp894
Vname
p895
Vcad
p896
sVvalue
p897
g4
sa(dp898
Vname
p899
Vvet
p900
sVvalue
p901
V10ahUKEwi8ku_Cg6nTAhWlzIMKHVP6Cl0Q5W0IOSgE..s
p902
sa(dp903
Vname
p904
Vei
p905
sVvalue
p906
VRmrzWLzXBKWZjwTT9KvoBQ
p907
sa(dp908
Vname
p909
Vzx
p910
sVvalue
p911
V1492347464919
p912
sasVheaders
p913
(lp914
sVheadersSize
p915
I656
sVbodySize
p916
I0
sVmethod
p917
VGET
p918
sVhttpVersion
p919
VHTTP/1.1
p920
ssVtimings
p921
(dp922
Vcomment
p923
g4
sVreceive
p924
I0
sVsend
p925
I0
sVssl
p926
I20
sVconnect
p927
I44
sVdns
p928
I0
sVwait
p929
I32
sVblocked
p930
I0
ssVtime
p931
I77
sVresponse
p932
(dp933
Vstatus
p934
I204
sVcomment
p935
g4
sVcookies
p936
(lp937
sVstatusText
p938
VNo Content
p939
sVcontent
p940
(dp941
VmimeType
p942
Vtext/html; charset=UTF-8
p943
sVcomment
p944
g4
sVsize
p945
I0
ssVheaders
p946
(lp947
sVheadersSize
p948
I248
sVredirectURL
p949
g4
sVbodySize
p950
I0
sVhttpVersion
p951
VHTTP/1.1
p952
ssa(dp953
Vcomment
p954
g4
sVserverIPAddress
p955
V216.58.216.196
p956
sVpageref
p957
VHurricane Matthew
p958
sVstartedDateTime
p959
V2017-04-16T07:57:44.966-05:00
p960
sVcache
p961
(dp962
sVrequest
p963
(dp964
Vcomment
p965
g4
sVcookies
p966
(lp967
sVurl
p968
Vhttps://www.google.com/gen_204?atyp=i&ct=&cad=&vet=10ahUKEwi8ku_Cg6nTAhWlzIMKHVP6Cl0Q5W0IPCgF..s&ei=RmrzWLzXBKWZjwTT9KvoBQ&zx=1492347464922
p969
sVqueryString
p970
(lp971
(dp972
Vname
p973
Vatyp
p974
sVvalue
p975
g30
sa(dp976
Vname
p977
Vct
p978
sVvalue
p979
g4
sa(dp980
Vname
p981
Vcad
p982
sVvalue
p983
g4
sa(dp984
Vname
p985
Vvet
p986
sVvalue
p987
V10ahUKEwi8ku_Cg6nTAhWlzIMKHVP6Cl0Q5W0IPCgF..s
p988
sa(dp989
Vname
p990
Vei
p991
sVvalue
p992
VRmrzWLzXBKWZjwTT9KvoBQ
p993
sa(dp994
Vname
p995
Vzx
p996
sVvalue
p997
V1492347464922
p998
sasVheaders
p999
(lp1000
sVheadersSize
p1001
I656
sVbodySize
p1002
I0
sVmethod
p1003
VGET
p1004
sVhttpVersion
p1005
VHTTP/1.1
p1006
ssVtimings
p1007
(dp1008
Vcomment
p1009
g4
sVreceive
p1010
I0
sVsend
p1011
I0
sVssl
p1012
I20
sVconnect
p1013
I42
sVdns
p1014
I0
sVwait
p1015
I32
sVblocked
p1016
I0
ssVtime
p1017
I75
sVresponse
p1018
(dp1019
Vstatus
p1020
I204
sVcomment
p1021
g4
sVcookies
p1022
(lp1023
sVstatusText
p1024
VNo Content
p1025
sVcontent
p1026
(dp1027
VmimeType
p1028
Vtext/html; charset=UTF-8
p1029
sVcomment
p1030
g4
sVsize
p1031
I0
ssVheaders
p1032
(lp1033
sVheadersSize
p1034
I248
sVredirectURL
p1035
g4
sVbodySize
p1036
I0
sVhttpVersion
p1037
VHTTP/1.1
p1038
ssa(dp1039
Vcomment
p1040
g4
sVserverIPAddress
p1041
V216.58.216.196
p1042
sVpageref
p1043
VHurricane Matthew
p1044
sVstartedDateTime
p1045
V2017-04-16T07:57:44.968-05:00
p1046
sVcache
p1047
(dp1048
sVrequest
p1049
(dp1050
Vcomment
p1051
g4
sVcookies
p1052
(lp1053
sVurl
p1054
Vhttps://www.google.com/gen_204?atyp=i&ct=&cad=&vet=10ahUKEwi8ku_Cg6nTAhWlzIMKHVP6Cl0Q5W0IPygG..s&ei=RmrzWLzXBKWZjwTT9KvoBQ&zx=1492347464923
p1055
sVqueryString
p1056
(lp1057
(dp1058
Vname
p1059
Vatyp
p1060
sVvalue
p1061
g30
sa(dp1062
Vname
p1063
Vct
p1064
sVvalue
p1065
g4
sa(dp1066
Vname
p1067
Vcad
p1068
sVvalue
p1069
g4
sa(dp1070
Vname
p1071
Vvet
p1072
sVvalue
p1073
V10ahUKEwi8ku_Cg6nTAhWlzIMKHVP6Cl0Q5W0IPygG..s
p1074
sa(dp1075
Vname
p1076
Vei
p1077
sVvalue
p1078
VRmrzWLzXBKWZjwTT9KvoBQ
p1079
sa(dp1080
Vname
p1081
Vzx
p1082
sVvalue
p1083
V1492347464923
p1084
sasVheaders
p1085
(lp1086
sVheadersSize
p1087
I656
sVbodySize
p1088
I0
sVmethod
p1089
VGET
p1090
sVhttpVersion
p1091
VHTTP/1.1
p1092
ssVtimings
p1093
(dp1094
Vcomment
p1095
g4
sVreceive
p1096
I0
sVsend
p1097
I0
sVssl
p1098
I21
sVconnect
p1099
I42
sVdns
p1100
I0
sVwait
p1101
I31
sVblocked
p1102
I0
ssVtime
p1103
I73
sVresponse
p1104
(dp1105
Vstatus
p1106
I204
sVcomment
p1107
g4
sVcookies
p1108
(lp1109
sVstatusText
p1110
VNo Content
p1111
sVcontent
p1112
(dp1113
VmimeType
p1114
Vtext/html; charset=UTF-8
p1115
sVcomment
p1116
g4
sVsize
p1117
I0
ssVheaders
p1118
(lp1119
sVheadersSize
p1120
I248
sVredirectURL
p1121
g4
sVbodySize
p1122
I0
sVhttpVersion
p1123
VHTTP/1.1
p1124
ssa(dp1125
Vcomment
p1126
g4
sVserverIPAddress
p1127
V216.58.216.196
p1128
sVpageref
p1129
VHurricane Matthew
p1130
sVstartedDateTime
p1131
V2017-04-16T07:57:45.006-05:00
p1132
sVcache
p1133
(dp1134
sVrequest
p1135
(dp1136
Vcomment
p1137
g4
sVcookies
p1138
(lp1139
sVurl
p1140
Vhttps://www.google.com/async/ampfp?vet=10ahUKEwi8ku_Cg6nTAhWlzIMKHVP6Cl0QtZoBCPMB..i&ei=RmrzWLzXBKWZjwTT9KvoBQ&yv=2&async=_id:ampfp-async,_pms:qs
p1141
sVqueryString
p1142
(lp1143
(dp1144
Vname
p1145
Vvet
p1146
sVvalue
p1147
V10ahUKEwi8ku_Cg6nTAhWlzIMKHVP6Cl0QtZoBCPMB..i
p1148
sa(dp1149
Vname
p1150
Vei
p1151
sVvalue
p1152
VRmrzWLzXBKWZjwTT9KvoBQ
p1153
sa(dp1154
Vname
p1155
Vyv
p1156
sVvalue
p1157
g64
sa(dp1158
Vname
p1159
Vasync
p1160
sVvalue
p1161
V_id:ampfp-async,_pms:qs
p1162
sasVheaders
p1163
(lp1164
sVheadersSize
p1165
I662
sVbodySize
p1166
I0
sVmethod
p1167
VGET
p1168
sVhttpVersion
p1169
VHTTP/1.1
p1170
ssVtimings
p1171
(dp1172
Vcomment
p1173
g4
sVreceive
p1174
I0
sVsend
p1175
I0
sVssl
p1176
I-1
sVconnect
p1177
I-1
sVdns
p1178
I-1
sVwait
p1179
I34
sVblocked
p1180
I-1
ssVtime
p1181
I35
sVresponse
p1182
(dp1183
Vstatus
p1184
I200
sVcomment
p1185
g4
sVcookies
p1186
(lp1187
sVstatusText
p1188
VOK
p1189
sVcontent
p1190
(dp1191
VmimeType
p1192
Vtext/html; charset=UTF-8
p1193
sVcomment
p1194
g4
sVsize
p1195
I0
ssVheaders
p1196
(lp1197
sVheadersSize
p1198
I383
sVredirectURL
p1199
g4
sVbodySize
p1200
I4526
sVhttpVersion
p1201
VHTTP/1.1
p1202
ssa(dp1203
Vcomment
p1204
g4
sVserverIPAddress
p1205
V216.58.216.193
p1206
sVpageref
p1207
VHurricane Matthew
p1208
sVstartedDateTime
p1209
V2017-04-16T07:57:45.007-05:00
p1210
sVcache
p1211
(dp1212
sVrequest
p1213
(dp1214
Vcomment
p1215
g4
sVcookies
p1216
(lp1217
sVurl
p1218
Vhttps://cdn.ampproject.org/preconnect.gif?0.850328076053087
p1219
sVqueryString
p1220
(lp1221
(dp1222
Vname
p1223
V0.850328076053087
p1224
sVvalue
p1225
g4
sasVheaders
p1226
(lp1227
sVheadersSize
p1228
I374
sVbodySize
p1229
I0
sVmethod
p1230
VGET
p1231
sVhttpVersion
p1232
VHTTP/1.1
p1233
ssVtimings
p1234
(dp1235
Vcomment
p1236
g4
sVreceive
p1237
I0
sVsend
p1238
I0
sVssl
p1239
I-1
sVconnect
p1240
I-1
sVdns
p1241
I-1
sVwait
p1242
I33
sVblocked
p1243
I-1
ssVtime
p1244
I33
sVresponse
p1245
(dp1246
Vstatus
p1247
I200
sVcomment
p1248
g4
sVcookies
p1249
(lp1250
sVstatusText
p1251
VOK
p1252
sVcontent
p1253
(dp1254
VmimeType
p1255
Vimage/gif
p1256
sVcomment
p1257
g4
sVsize
p1258
I0
ssVheaders
p1259
(lp1260
sVheadersSize
p1261
I826
sVredirectURL
p1262
g4
sVbodySize
p1263
I37
sVhttpVersion
p1264
VHTTP/1.1
p1265
ssa(dp1266
Vcomment
p1267
g4
sVserverIPAddress
p1268
V216.58.216.206
p1269
sVpageref
p1270
VHurricane Matthew
p1271
sVstartedDateTime
p1272
V2017-04-16T07:57:45.022-05:00
p1273
sVcache
p1274
(dp1275
sVrequest
p1276
(dp1277
Vcomment
p1278
g4
sVcookies
p1279
(lp1280
sVurl
p1281
Vhttps://encrypted-tbn2.gstatic.com/images?q=tbn:ANd9GcQnlC8QyxYPBKj8Q1KBKjnEXZti9ANVAHTiqdc6sahGxitefhwnL-IyOunEdw
p1282
sVqueryString
p1283
(lp1284
(dp1285
Vname
p1286
g410
sVvalue
p1287
Vtbn:ANd9GcQnlC8QyxYPBKj8Q1KBKjnEXZti9ANVAHTiqdc6sahGxitefhwnL-IyOunEdw
p1288
sasVheaders
p1289
(lp1290
sVheadersSize
p1291
I429
sVbodySize
p1292
I0
sVmethod
p1293
VGET
p1294
sVhttpVersion
p1295
VHTTP/1.1
p1296
ssVtimings
p1297
(dp1298
Vcomment
p1299
g4
sVreceive
p1300
I2
sVsend
p1301
I0
sVssl
p1302
I-1
sVconnect
p1303
I-1
sVdns
p1304
I-1
sVwait
p1305
I21
sVblocked
p1306
I-1
ssVtime
p1307
I23
sVresponse
p1308
(dp1309
Vstatus
p1310
I200
sVcomment
p1311
g4
sVcookies
p1312
(lp1313
sVstatusText
p1314
VOK
p1315
sVcontent
p1316
(dp1317
VmimeType
p1318
Vimage/jpeg
p1319
sVcomment
p1320
g4
sVsize
p1321
I0
ssVheaders
p1322
(lp1323
sVheadersSize
p1324
I424
sVredirectURL
p1325
g4
sVbodySize
p1326
I8436
sVhttpVersion
p1327
VHTTP/1.1
p1328
ssa(dp1329
Vcomment
p1330
g4
sVserverIPAddress
p1331
V216.58.216.206
p1332
sVpageref
p1333
VHurricane Matthew
p1334
sVstartedDateTime
p1335
V2017-04-16T07:57:45.022-05:00
p1336
sVcache
p1337
(dp1338
sVrequest
p1339
(dp1340
Vcomment
p1341
g4
sVcookies
p1342
(lp1343
sVurl
p1344
Vhttps://encrypted-tbn1.gstatic.com/images?q=tbn:ANd9GcRjqgOFfHEpYhN8EnhiTRqfRKE55PGO9HhvFOYYC2OuWNhv_D44I6CEJD3G
p1345
sVqueryString
p1346
(lp1347
(dp1348
Vname
p1349
g410
sVvalue
p1350
Vtbn:ANd9GcRjqgOFfHEpYhN8EnhiTRqfRKE55PGO9HhvFOYYC2OuWNhv_D44I6CEJD3G
p1351
sasVheaders
p1352
(lp1353
sVheadersSize
p1354
I427
sVbodySize
p1355
I0
sVmethod
p1356
VGET
p1357
sVhttpVersion
p1358
VHTTP/1.1
p1359
ssVtimings
p1360
(dp1361
Vcomment
p1362
g4
sVreceive
p1363
I3
sVsend
p1364
I0
sVssl
p1365
I-1
sVconnect
p1366
I-1
sVdns
p1367
I-1
sVwait
p1368
I26
sVblocked
p1369
I-1
ssVtime
p1370
I30
sVresponse
p1371
(dp1372
Vstatus
p1373
I200
sVcomment
p1374
g4
sVcookies
p1375
(lp1376
sVstatusText
p1377
VOK
p1378
sVcontent
p1379
(dp1380
VmimeType
p1381
Vimage/jpeg
p1382
sVcomment
p1383
g4
sVsize
p1384
I0
ssVheaders
p1385
(lp1386
sVheadersSize
p1387
I428
sVredirectURL
p1388
g4
sVbodySize
p1389
I10083
sVhttpVersion
p1390
VHTTP/1.1
p1391
ssa(dp1392
Vcomment
p1393
g4
sVserverIPAddress
p1394
V216.58.216.206
p1395
sVpageref
p1396
VHurricane Matthew
p1397
sVstartedDateTime
p1398
V2017-04-16T07:57:45.069-05:00
p1399
sVcache
p1400
(dp1401
sVrequest
p1402
(dp1403
Vcomment
p1404
g4
sVcookies
p1405
(lp1406
sVurl
p1407
Vhttps://encrypted-tbn1.gstatic.com/images?q=tbn:ANd9GcQ48aWi6e-vNHolxxvuxmkcsKixkX0FHYDnYDCsYldp9xhETScBrPK4_ccY
p1408
sVqueryString
p1409
(lp1410
(dp1411
Vname
p1412
g410
sVvalue
p1413
Vtbn:ANd9GcQ48aWi6e-vNHolxxvuxmkcsKixkX0FHYDnYDCsYldp9xhETScBrPK4_ccY
p1414
sasVheaders
p1415
(lp1416
sVheadersSize
p1417
I427
sVbodySize
p1418
I0
sVmethod
p1419
VGET
p1420
sVhttpVersion
p1421
VHTTP/1.1
p1422
ssVtimings
p1423
(dp1424
Vcomment
p1425
g4
sVreceive
p1426
I0
sVsend
p1427
I0
sVssl
p1428
I19
sVconnect
p1429
I43
sVdns
p1430
I0
sVwait
p1431
I16
sVblocked
p1432
I0
ssVtime
p1433
I61
sVresponse
p1434
(dp1435
Vstatus
p1436
I200
sVcomment
p1437
g4
sVcookies
p1438
(lp1439
sVstatusText
p1440
VOK
p1441
sVcontent
p1442
(dp1443
VmimeType
p1444
Vimage/jpeg
p1445
sVcomment
p1446
g4
sVsize
p1447
I0
ssVheaders
p1448
(lp1449
sVheadersSize
p1450
I427
sVredirectURL
p1451
g4
sVbodySize
p1452
I8759
sVhttpVersion
p1453
VHTTP/1.1
p1454
ssa(dp1455
Vcomment
p1456
g4
sVserverIPAddress
p1457
V216.58.216.206
p1458
sVpageref
p1459
VHurricane Matthew
p1460
sVstartedDateTime
p1461
V2017-04-16T07:57:45.070-05:00
p1462
sVcache
p1463
(dp1464
sVrequest
p1465
(dp1466
Vcomment
p1467
g4
sVcookies
p1468
(lp1469
sVurl
p1470
Vhttps://encrypted-tbn1.gstatic.com/images?q=tbn:ANd9GcR32We_IJoF0P2Z8uVE2fHdpt1rEjjgsecbnQkfKMEiKUPZyrpTg8pk9G4K
p1471
sVqueryString
p1472
(lp1473
(dp1474
Vname
p1475
g410
sVvalue
p1476
Vtbn:ANd9GcR32We_IJoF0P2Z8uVE2fHdpt1rEjjgsecbnQkfKMEiKUPZyrpTg8pk9G4K
p1477
sasVheaders
p1478
(lp1479
sVheadersSize
p1480
I427
sVbodySize
p1481
I0
sVmethod
p1482
VGET
p1483
sVhttpVersion
p1484
VHTTP/1.1
p1485
ssVtimings
p1486
(dp1487
Vcomment
p1488
g4
sVreceive
p1489
I2
sVsend
p1490
I0
sVssl
p1491
I21
sVconnect
p1492
I44
sVdns
p1493
I0
sVwait
p1494
I17
sVblocked
p1495
I0
ssVtime
p1496
I64
sVresponse
p1497
(dp1498
Vstatus
p1499
I200
sVcomment
p1500
g4
sVcookies
p1501
(lp1502
sVstatusText
p1503
VOK
p1504
sVcontent
p1505
(dp1506
VmimeType
p1507
Vimage/jpeg
p1508
sVcomment
p1509
g4
sVsize
p1510
I0
ssVheaders
p1511
(lp1512
sVheadersSize
p1513
I424
sVredirectURL
p1514
g4
sVbodySize
p1515
I9311
sVhttpVersion
p1516
VHTTP/1.1
p1517
ssa(dp1518
Vcomment
p1519
g4
sVserverIPAddress
p1520
V216.58.216.196
p1521
sVpageref
p1522
VHurricane Matthew
p1523
sVstartedDateTime
p1524
V2017-04-16T07:57:45.070-05:00
p1525
sVcache
p1526
(dp1527
sVrequest
p1528
(dp1529
Vcomment
p1530
g4
sVcookies
p1531
(lp1532
sVurl
p1533
Vhttps://www.google.com/xjs/_/js/k=xjs.qs.en_US.pCBXVCvTH3s.O/m=idg,syfu,ish,ivw,syi2,syi5,syi4,fpv,sy48,sy3a,sy3c,sy5b,sy4x,sy4z,sy56,sy4y,sy5d,sy8e,sya8,sy5e,sy91,sya6,sya7,sya9,amp,sp/am=gCP4LtMEBXQA2RUaq_oFBISzAFA/rt=j/d=0/t=zcms/rs=ACT90oFwm4NZCwIcuuiqmthdlECdBzkhRA
p1534
sVqueryString
p1535
(lp1536
sVheaders
p1537
(lp1538
sVheadersSize
p1539
I787
sVbodySize
p1540
I0
sVmethod
p1541
VGET
p1542
sVhttpVersion
p1543
VHTTP/1.1
p1544
ssVtimings
p1545
(dp1546
Vcomment
p1547
g4
sVreceive
p1548
I3
sVsend
p1549
I0
sVssl
p1550
I-1
sVconnect
p1551
I-1
sVdns
p1552
I-1
sVwait
p1553
I20
sVblocked
p1554
I-1
ssVtime
p1555
I24
sVresponse
p1556
(dp1557
Vstatus
p1558
I200
sVcomment
p1559
g4
sVcookies
p1560
(lp1561
sVstatusText
p1562
VOK
p1563
sVcontent
p1564
(dp1565
VmimeType
p1566
Vtext/javascript; charset=UTF-8
p1567
sVcomment
p1568
g4
sVsize
p1569
I0
ssVheaders
p1570
(lp1571
sVheadersSize
p1572
I464
sVredirectURL
p1573
g4
sVbodySize
p1574
I54561
sVhttpVersion
p1575
VHTTP/1.1
p1576
ssa(dp1577
Vcomment
p1578
g4
sVserverIPAddress
p1579
V216.58.216.196
p1580
sVpageref
p1581
VHurricane Matthew
p1582
sVstartedDateTime
p1583
V2017-04-16T07:57:45.142-05:00
p1584
sVcache
p1585
(dp1586
sVrequest
p1587
(dp1588
Vcomment
p1589
g4
sVcookies
p1590
(lp1591
sVurl
p1592
Vhttps://www.google.com/async/log_amp_item_set?vet=10ahUKEwjx_uXDg6nTAhXl6YMKHXGhCsMQooQBCAE..i&ei=RmrzWLzXBKWZjwTT9KvoBQ&yv=2&async=num_items:2,_fmt:jspb
p1593
sVqueryString
p1594
(lp1595
(dp1596
Vname
p1597
Vvet
p1598
sVvalue
p1599
V10ahUKEwjx_uXDg6nTAhXl6YMKHXGhCsMQooQBCAE..i
p1600
sa(dp1601
Vname
p1602
Vei
p1603
sVvalue
p1604
VRmrzWLzXBKWZjwTT9KvoBQ
p1605
sa(dp1606
Vname
p1607
Vyv
p1608
sVvalue
p1609
g64
sa(dp1610
Vname
p1611
Vasync
p1612
sVvalue
p1613
Vnum_items:2,_fmt:jspb
p1614
sasVheaders
p1615
(lp1616
sVheadersSize
p1617
I670
sVbodySize
p1618
I0
sVmethod
p1619
VGET
p1620
sVhttpVersion
p1621
VHTTP/1.1
p1622
ssVtimings
p1623
(dp1624
Vcomment
p1625
g4
sVreceive
p1626
I0
sVsend
p1627
I0
sVssl
p1628
I-1
sVconnect
p1629
I-1
sVdns
p1630
I-1
sVwait
p1631
I33
sVblocked
p1632
I-1
ssVtime
p1633
I33
sVresponse
p1634
(dp1635
Vstatus
p1636
I200
sVcomment
p1637
g4
sVcookies
p1638
(lp1639
sVstatusText
p1640
VOK
p1641
sVcontent
p1642
(dp1643
VmimeType
p1644
Vapplication/json; charset=UTF-8
p1645
sVcomment
p1646
g4
sVsize
p1647
I0
ssVheaders
p1648
(lp1649
sVheadersSize
p1650
I417
sVredirectURL
p1651
g4
sVbodySize
p1652
I141
sVhttpVersion
p1653
VHTTP/1.1
p1654
ssa(dp1655
Vcomment
p1656
g4
sVserverIPAddress
p1657
V216.58.216.196
p1658
sVpageref
p1659
VHurricane Matthew
p1660
sVstartedDateTime
p1661
V2017-04-16T07:57:45.154-05:00
p1662
sVcache
p1663
(dp1664
sVrequest
p1665
(dp1666
Vcomment
p1667
g4
sVcookies
p1668
(lp1669
sVurl
p1670
Vhttps://www.google.com/xjs/_/js/k=xjs.qs.en_US.pCBXVCvTH3s.O/m=pz/am=gCP4LtMEBXQA2RUaq_oFBISzAFA/rt=j/d=0/t=zcms/rs=ACT90oFwm4NZCwIcuuiqmthdlECdBzkhRA
p1671
sVqueryString
p1672
(lp1673
sVheaders
p1674
(lp1675
sVheadersSize
p1676
I667
sVbodySize
p1677
I0
sVmethod
p1678
VGET
p1679
sVhttpVersion
p1680
VHTTP/1.1
p1681
ssVtimings
p1682
(dp1683
Vcomment
p1684
g4
sVreceive
p1685
I0
sVsend
p1686
I0
sVssl
p1687
I-1
sVconnect
p1688
I-1
sVdns
p1689
I-1
sVwait
p1690
I12
sVblocked
p1691
I-1
ssVtime
p1692
I13
sVresponse
p1693
(dp1694
Vstatus
p1695
I200
sVcomment
p1696
g4
sVcookies
p1697
(lp1698
sVstatusText
p1699
VOK
p1700
sVcontent
p1701
(dp1702
VmimeType
p1703
Vtext/javascript; charset=UTF-8
p1704
sVcomment
p1705
g4
sVsize
p1706
I0
ssVheaders
p1707
(lp1708
sVheadersSize
p1709
I463
sVredirectURL
p1710
g4
sVbodySize
p1711
I3959
sVhttpVersion
p1712
VHTTP/1.1
p1713
ssa(dp1714
Vcomment
p1715
g4
sVserverIPAddress
p1716
V216.58.216.196
p1717
sVpageref
p1718
VHurricane Matthew
p1719
sVstartedDateTime
p1720
V2017-04-16T07:57:45.185-05:00
p1721
sVcache
p1722
(dp1723
sVrequest
p1724
(dp1725
Vcomment
p1726
g4
sVcookies
p1727
(lp1728
sVurl
p1729
Vhttps://www.google.com/gen_204?s=web&atyp=csi&ei=RmrzWLzXBKWZjwTT9KvoBQ&imc=40&imn=40&imp=18&adh=&xjs=init.27.14.sb_mob.20.dvl.3.c.1.jsa.1.async.1&ima=13&rt=prt.813,iml.824,xjsls.813,dcl.901,xjses.979,xjsee.1080,xjs.1081,qiml.2061,ol.2024,aft.824,wsrt.97,cst.0,dnst.0,rqst.885,rspt.801,rqstt.2,unt.1,cstt.1,dit.950
p1730
sVqueryString
p1731
(lp1732
(dp1733
Vname
p1734
g57
sVvalue
p1735
Vweb
p1736
sa(dp1737
Vname
p1738
Vatyp
p1739
sVvalue
p1740
Vcsi
p1741
sa(dp1742
Vname
p1743
Vei
p1744
sVvalue
p1745
VRmrzWLzXBKWZjwTT9KvoBQ
p1746
sa(dp1747
Vname
p1748
Vimc
p1749
sVvalue
p1750
V40
p1751
sa(dp1752
Vname
p1753
Vimn
p1754
sVvalue
p1755
V40
p1756
sa(dp1757
Vname
p1758
Vimp
p1759
sVvalue
p1760
V18
p1761
sa(dp1762
Vname
p1763
Vadh
p1764
sVvalue
p1765
g4
sa(dp1766
Vname
p1767
Vxjs
p1768
sVvalue
p1769
Vinit.27.14.sb_mob.20.dvl.3.c.1.jsa.1.async.1
p1770
sa(dp1771
Vname
p1772
Vima
p1773
sVvalue
p1774
V13
p1775
sa(dp1776
Vname
p1777
Vrt
p1778
sVvalue
p1779
Vprt.813,iml.824,xjsls.813,dcl.901,xjses.979,xjsee.1080,xjs.1081,qiml.2061,ol.2024,aft.824,wsrt.97,cst.0,dnst.0,rqst.885,rspt.801,rqstt.2,unt.1,cstt.1,dit.950
p1780
sasVheaders
p1781
(lp1782
sVheadersSize
p1783
I831
sVbodySize
p1784
I0
sVmethod
p1785
VGET
p1786
sVhttpVersion
p1787
VHTTP/1.1
p1788
ssVtimings
p1789
(dp1790
Vcomment
p1791
g4
sVreceive
p1792
I0
sVsend
p1793
I0
sVssl
p1794
I-1
sVconnect
p1795
I-1
sVdns
p1796
I-1
sVwait
p1797
I34
sVblocked
p1798
I-1
ssVtime
p1799
I34
sVresponse
p1800
(dp1801
Vstatus
p1802
I204
sVcomment
p1803
g4
sVcookies
p1804
(lp1805
sVstatusText
p1806
VNo Content
p1807
sVcontent
p1808
(dp1809
VmimeType
p1810
Vtext/html; charset=UTF-8
p1811
sVcomment
p1812
g4
sVsize
p1813
I0
ssVheaders
p1814
(lp1815
sVheadersSize
p1816
I248
sVredirectURL
p1817
g4
sVbodySize
p1818
I0
sVhttpVersion
p1819
VHTTP/1.1
p1820
ssa(dp1821
Vcomment
p1822
g4
sVserverIPAddress
p1823
V216.58.216.196
p1824
sVpageref
p1825
VHurricane Matthew
p1826
sVstartedDateTime
p1827
V2017-04-16T07:57:46.977-05:00
p1828
sVcache
p1829
(dp1830
sVrequest
p1831
(dp1832
Vcomment
p1833
g4
sVcookies
p1834
(lp1835
sVurl
p1836
Vhttps://www.google.com/gen_204?atyp=i&ct=slh&cad=&ei=OWrzWO-wC6zqjwSk65agBw&m=V&t=C&s=1&v=2&pv=0.7499807975481056&me=1:1492347451894,x:1,V,0,0,1280,944:0,N,1,OWrzWO-wC6zqjwSk65agBw:0,R,1,22,8,155,1249,194:0,R,1,34,8,359,1249,631:0,R,1,38,8,472,1249,332:0,R,1,39,0,473,1265,351:0,R,1,70,8,804,1249,186:2,B,3542:10659,e,U&zx=1492347466976
p1837
sVqueryString
p1838
(lp1839
(dp1840
Vname
p1841
Vatyp
p1842
sVvalue
p1843
g30
sa(dp1844
Vname
p1845
Vct
p1846
sVvalue
p1847
Vslh
p1848
sa(dp1849
Vname
p1850
Vcad
p1851
sVvalue
p1852
g4
sa(dp1853
Vname
p1854
Vei
p1855
sVvalue
p1856
VOWrzWO-wC6zqjwSk65agBw
p1857
sa(dp1858
Vname
p1859
g47
sVvalue
p1860
g49
sa(dp1861
Vname
p1862
g52
sVvalue
p1863
g54
sa(dp1864
Vname
p1865
g57
sVvalue
p1866
g59
sa(dp1867
Vname
p1868
g62
sVvalue
p1869
g64
sa(dp1870
Vname
p1871
Vpv
p1872
sVvalue
p1873
V0.7499807975481056
p1874
sa(dp1875
Vname
p1876
Vme
p1877
sVvalue
p1878
V1:1492347451894,x:1,V,0,0,1280,944:0,N,1,OWrzWO-wC6zqjwSk65agBw:0,R,1,22,8,155,1249,194:0,R,1,34,8,359,1249,631:0,R,1,38,8,472,1249,332:0,R,1,39,0,473,1265,351:0,R,1,70,8,804,1249,186:2,B,3542:10659,e,U
p1879
sa(dp1880
Vname
p1881
Vzx
p1882
sVvalue
p1883
V1492347466976
p1884
sasVheaders
p1885
(lp1886
sVheadersSize
p1887
I853
sVbodySize
p1888
I0
sVmethod
p1889
VGET
p1890
sVhttpVersion
p1891
VHTTP/1.1
p1892
ssVtimings
p1893
(dp1894
Vcomment
p1895
g4
sVreceive
p1896
I0
sVsend
p1897
I0
sVssl
p1898
I-1
sVconnect
p1899
I-1
sVdns
p1900
I-1
sVwait
p1901
I28
sVblocked
p1902
I-1
ssVtime
p1903
I28
sVresponse
p1904
(dp1905
Vstatus
p1906
I204
sVcomment
p1907
g4
sVcookies
p1908
(lp1909
sVstatusText
p1910
VNo Content
p1911
sVcontent
p1912
(dp1913
VmimeType
p1914
Vtext/html; charset=UTF-8
p1915
sVcomment
p1916
g4
sVsize
p1917
I0
ssVheaders
p1918
(lp1919
sVheadersSize
p1920
I248
sVredirectURL
p1921
g4
sVbodySize
p1922
I0
sVhttpVersion
p1923
VHTTP/1.1
p1924
ssasVversion
p1925
V1.2
p1926
sVpages
p1927
(lp1928
(dp1929
VpageTimings
p1930
(dp1931
Vcomment
p1932
g4
ssVcomment
p1933
g4
sVtitle
p1934
VHurricane Matthew
p1935
sVid
p1936
VHurricane Matthew
p1937
sVstartedDateTime
p1938
V2017-04-16T07:57:42.548-05:00
p1939
sasVcreator
p1940
(dp1941
Vcomment
p1942
g4
sVversion
p1943
V2.1.4
p1944
sVname
p1945
VBrowserMob Proxy
p1946
sss.