(dp0
Vlog
p1
(dp2
Vcomment
p3
V
p4
sVentries
p5
(lp6
(dp7
Vcomment
p8
g4
sVserverIPAddress
p9
V216.58.216.196
p10
sVpageref
p11
VBrexit
p12
sVstartedDateTime
p13
V2017-04-16T08:00:01.303-05:00
p14
sVcache
p15
(dp16
sVrequest
p17
(dp18
Vcomment
p19
g4
sVcookies
p20
(lp21
sVurl
p22
Vhttps://www.google.com/gen_204?atyp=i&ct=slh&cad=&ei=vWrzWLnmHuemjwTdn5iYBw&m=V&t=C&s=1&v=2&pv=0.09133232971236183&me=1:1492347583937,x:3,V,0,0,1280,944:0,N,1,vWrzWLnmHuemjwTdn5iYBw:0,R,1,24,8,155,1249,251:0,R,1,34,8,416,1249,715:0,R,1,35,8,416,1249,715:0,R,1,38,8,429,1249,40:0,R,1,51,8,481,1249,146:0,R,1,54,0,497,1265,165:0,R,1,94,8,644,1249,40:0,R,1,95,24,644,1217,40:0,R,1,98,8,700,1249,20:0,R,1,100,8,728,1249,20:0,R,1,114,8,768,1249,310:0,R,1,115,0,813,1265,285:2,B,3253:17360,e,U&zx=1492347601302
p23
sVqueryString
p24
(lp25
(dp26
Vname
p27
Vatyp
p28
sVvalue
p29
Vi
p30
sa(dp31
Vname
p32
Vct
p33
sVvalue
p34
Vslh
p35
sa(dp36
Vname
p37
Vcad
p38
sVvalue
p39
g4
sa(dp40
Vname
p41
Vei
p42
sVvalue
p43
VvWrzWLnmHuemjwTdn5iYBw
p44
sa(dp45
Vname
p46
Vm
p47
sVvalue
p48
VV
p49
sa(dp50
Vname
p51
Vt
p52
sVvalue
p53
VC
p54
sa(dp55
Vname
p56
Vs
p57
sVvalue
p58
V1
p59
sa(dp60
Vname
p61
Vv
p62
sVvalue
p63
V2
p64
sa(dp65
Vname
p66
Vpv
p67
sVvalue
p68
V0.09133232971236183
p69
sa(dp70
Vname
p71
Vme
p72
sVvalue
p73
V1:1492347583937,x:3,V,0,0,1280,944:0,N,1,vWrzWLnmHuemjwTdn5iYBw:0,R,1,24,8,155,1249,251:0,R,1,34,8,416,1249,715:0,R,1,35,8,416,1249,715:0,R,1,38,8,429,1249,40:0,R,1,51,8,481,1249,146:0,R,1,54,0,497,1265,165:0,R,1,94,8,644,1249,40:0,R,1,95,24,644,1217,40:0,R,1,98,8,700,1249,20:0,R,1,100,8,728,1249,20:0,R,1,114,8,768,1249,310:0,R,1,115,0,813,1265,285:2,B,3253:17360,e,U
p74
sa(dp75
Vname
p76
Vzx
p77
sVvalue
p78
V1492347601302
p79
sasVheaders
p80
(lp81
sVheadersSize
p82
I1021
sVbodySize
p83
I0
sVmethod
p84
VGET
p85
sVhttpVersion
p86
VHTTP/1.1
p87
ssVtimings
p88
(dp89
Vcomment
p90
g4
sVreceive
p91
I0
sVsend
p92
I0
sVssl
p93
I-1
sVconnect
p94
I-1
sVdns
p95
I-1
sVwait
p96
I0
sVblocked
p97
I-1
ssVtime
p98
I0
sVresponse
p99
(dp100
Vstatus
p101
I0
sVcomment
p102
g4
sVcookies
p103
(lp104
sV_error
p105
VNo response received
p106
sVstatusText
p107
g4
sVcontent
p108
(dp109
VmimeType
p110
g4
sVcomment
p111
g4
sVsize
p112
I0
ssVheaders
p113
(lp114
sVheadersSize
p115
I-1
sVredirectURL
p116
g4
sVbodySize
p117
I-1
sVhttpVersion
p118
Vunknown
p119
ssa(dp120
Vcomment
p121
g4
sVserverIPAddress
p122
V216.58.216.196
p123
sVpageref
p124
VBrexit
p125
sVstartedDateTime
p126
V2017-04-16T08:00:01.306-05:00
p127
sVcache
p128
(dp129
sVrequest
p130
(dp131
Vcomment
p132
g4
sVcookies
p133
(lp134
sVurl
p135
Vhttp://www.google.com/
p136
sVqueryString
p137
(lp138
sVheaders
p139
(lp140
sVheadersSize
p141
I613
sVbodySize
p142
I0
sVmethod
p143
VGET
p144
sVhttpVersion
p145
VHTTP/1.1
p146
ssVtimings
p147
(dp148
Vcomment
p149
g4
sVreceive
p150
I0
sVsend
p151
I0
sVssl
p152
I-1
sVconnect
p153
I-1
sVdns
p154
I-1
sVwait
p155
I58
sVblocked
p156
I-1
ssVtime
p157
I59
sVresponse
p158
(dp159
Vstatus
p160
I302
sVcomment
p161
g4
sVcookies
p162
(lp163
sVstatusText
p164
VFound
p165
sVcontent
p166
(dp167
VmimeType
p168
Vtext/html; charset=UTF-8
p169
sVcomment
p170
g4
sVsize
p171
I0
ssVheaders
p172
(lp173
sVheadersSize
p174
I609
sVredirectURL
p175
Vhttps://www.google.com/?gws_rd=ssl
p176
sVbodySize
p177
I231
sVhttpVersion
p178
VHTTP/1.1
p179
ssa(dp180
Vcomment
p181
g4
sVserverIPAddress
p182
V216.58.216.196
p183
sVpageref
p184
VBrexit
p185
sVstartedDateTime
p186
V2017-04-16T08:00:01.368-05:00
p187
sVcache
p188
(dp189
sVrequest
p190
(dp191
Vcomment
p192
g4
sVcookies
p193
(lp194
sVurl
p195
Vhttps://www.google.com/?gws_rd=ssl
p196
sVqueryString
p197
(lp198
(dp199
Vname
p200
Vgws_rd
p201
sVvalue
p202
Vssl
p203
sasVheaders
p204
(lp205
sVheadersSize
p206
I607
sVbodySize
p207
I0
sVmethod
p208
VGET
p209
sVhttpVersion
p210
VHTTP/1.1
p211
ssVtimings
p212
(dp213
Vcomment
p214
g4
sVreceive
p215
I25
sVsend
p216
I0
sVssl
p217
I-1
sVconnect
p218
I-1
sVdns
p219
I-1
sVwait
p220
I114
sVblocked
p221
I-1
ssVtime
p222
I140
sVresponse
p223
(dp224
Vstatus
p225
I200
sVcomment
p226
g4
sVcookies
p227
(lp228
sVstatusText
p229
VOK
p230
sVcontent
p231
(dp232
VmimeType
p233
Vtext/html; charset=UTF-8
p234
sVcomment
p235
g4
sVsize
p236
I0
ssVheaders
p237
(lp238
sVheadersSize
p239
I721
sVredirectURL
p240
g4
sVbodySize
p241
I34292
sVhttpVersion
p242
VHTTP/1.1
p243
ssa(dp244
Vcomment
p245
g4
sVserverIPAddress
p246
V216.58.216.196
p247
sVpageref
p248
VBrexit
p249
sVstartedDateTime
p250
V2017-04-16T08:00:01.652-05:00
p251
sVcache
p252
(dp253
sVrequest
p254
(dp255
Vcomment
p256
g4
sVcookies
p257
(lp258
sVurl
p259
Vhttps://www.google.com/gen_204?s=mobilewebhp&atyp=csi&ei=0GrzWKy3GMGPjwT4_bVQ&imc=1&imn=1&imp=0&adh=&xjs=init.20.12.sb_mob.14.dvl.2.c.1.jsa.1.r.1&ima=1&rt=xjsls.13,prt.13,iml.13,dcl.30,xjses.62,xjsee.127,xjs.127,ol.150,aft.13,wsrt.198,cst.0,dnst.0,rqst.142,rspt.26,rqstt.66,unt.65,cstt.65,dit.225
p260
sVqueryString
p261
(lp262
(dp263
Vname
p264
g57
sVvalue
p265
Vmobilewebhp
p266
sa(dp267
Vname
p268
Vatyp
p269
sVvalue
p270
Vcsi
p271
sa(dp272
Vname
p273
Vei
p274
sVvalue
p275
V0GrzWKy3GMGPjwT4_bVQ
p276
sa(dp277
Vname
p278
Vimc
p279
sVvalue
p280
g59
sa(dp281
Vname
p282
Vimn
p283
sVvalue
p284
g59
sa(dp285
Vname
p286
Vimp
p287
sVvalue
p288
V0
p289
sa(dp290
Vname
p291
Vadh
p292
sVvalue
p293
g4
sa(dp294
Vname
p295
Vxjs
p296
sVvalue
p297
Vinit.20.12.sb_mob.14.dvl.2.c.1.jsa.1.r.1
p298
sa(dp299
Vname
p300
Vima
p301
sVvalue
p302
g59
sa(dp303
Vname
p304
Vrt
p305
sVvalue
p306
Vxjsls.13,prt.13,iml.13,dcl.30,xjses.62,xjsee.127,xjs.127,ol.150,aft.13,wsrt.198,cst.0,dnst.0,rqst.142,rspt.26,rqstt.66,unt.65,cstt.65,dit.225
p307
sasVheaders
p308
(lp309
sVheadersSize
p310
I824
sVbodySize
p311
I0
sVmethod
p312
VGET
p313
sVhttpVersion
p314
VHTTP/1.1
p315
ssVtimings
p316
(dp317
Vcomment
p318
g4
sVreceive
p319
I0
sVsend
p320
I0
sVssl
p321
I-1
sVconnect
p322
I-1
sVdns
p323
I-1
sVwait
p324
I25
sVblocked
p325
I-1
ssVtime
p326
I25
sVresponse
p327
(dp328
Vstatus
p329
I204
sVcomment
p330
g4
sVcookies
p331
(lp332
sVstatusText
p333
VNo Content
p334
sVcontent
p335
(dp336
VmimeType
p337
Vtext/html; charset=UTF-8
p338
sVcomment
p339
g4
sVsize
p340
I0
ssVheaders
p341
(lp342
sVheadersSize
p343
I248
sVredirectURL
p344
g4
sVbodySize
p345
I0
sVhttpVersion
p346
VHTTP/1.1
p347
ssa(dp348
Vcomment
p349
g4
sVserverIPAddress
p350
V216.58.216.196
p351
sVpageref
p352
VBrexit
p353
sVstartedDateTime
p354
V2017-04-16T08:00:01.778-05:00
p355
sVcache
p356
(dp357
sVrequest
p358
(dp359
Vcomment
p360
g4
sVcookies
p361
(lp362
sVurl
p363
Vhttps://www.google.com/complete/search?client=mobile-gws-hp&hl=en&gs_rn=64&gs_ri=mobile-gws-hp&sla=1&gm=602&cp=0&gs_id=1&xhr=t&q=B&tch=1&ech=1&psi=0GrzWKy3GMGPjwT4_bVQ.1492347601607.1
p364
sVqueryString
p365
(lp366
(dp367
Vname
p368
Vclient
p369
sVvalue
p370
Vmobile-gws-hp
p371
sa(dp372
Vname
p373
Vhl
p374
sVvalue
p375
Ven
p376
sa(dp377
Vname
p378
Vgs_rn
p379
sVvalue
p380
V64
p381
sa(dp382
Vname
p383
Vgs_ri
p384
sVvalue
p385
Vmobile-gws-hp
p386
sa(dp387
Vname
p388
Vsla
p389
sVvalue
p390
g59
sa(dp391
Vname
p392
Vgm
p393
sVvalue
p394
V602
p395
sa(dp396
Vname
p397
Vcp
p398
sVvalue
p399
g289
sa(dp400
Vname
p401
Vgs_id
p402
sVvalue
p403
g59
sa(dp404
Vname
p405
Vxhr
p406
sVvalue
p407
g52
sa(dp408
Vname
p409
Vq
p410
sVvalue
p411
VB
p412
sa(dp413
Vname
p414
Vtch
p415
sVvalue
p416
g59
sa(dp417
Vname
p418
Vech
p419
sVvalue
p420
g59
sa(dp421
Vname
p422
Vpsi
p423
sVvalue
p424
V0GrzWKy3GMGPjwT4_bVQ.1492347601607.1
p425
sasVheaders
p426
(lp427
sVheadersSize
p428
I711
sVbodySize
p429
I0
sVmethod
p430
VGET
p431
sVhttpVersion
p432
VHTTP/1.1
p433
ssVtimings
p434
(dp435
Vcomment
p436
g4
sVreceive
p437
I0
sVsend
p438
I0
sVssl
p439
I-1
sVconnect
p440
I-1
sVdns
p441
I-1
sVwait
p442
I0
sVblocked
p443
I-1
ssVtime
p444
I0
sVresponse
p445
(dp446
Vstatus
p447
I0
sVcomment
p448
g4
sVcookies
p449
(lp450
sV_error
p451
VNo response received
p452
sVstatusText
p453
g4
sVcontent
p454
(dp455
VmimeType
p456
g4
sVcomment
p457
g4
sVsize
p458
I0
ssVheaders
p459
(lp460
sVheadersSize
p461
I-1
sVredirectURL
p462
g4
sVbodySize
p463
I-1
sVhttpVersion
p464
Vunknown
p465
ssa(dp466
Vcomment
p467
g4
sVserverIPAddress
p468
V216.58.216.196
p469
sVpageref
p470
VBrexit
p471
sVstartedDateTime
p472
V2017-04-16T08:00:01.815-05:00
p473
sVcache
p474
(dp475
sVrequest
p476
(dp477
Vcomment
p478
g4
sVcookies
p479
(lp480
sVurl
p481
Vhttps://www.google.com/search?site=&source=hp&ei=0GrzWKy3GMGPjwT4_bVQ&q=Brexit&oq=Brexit&gs_l=mobile-gws-hp.3...155.169.0.188.6.1.0.0.0.0.0.0..0.0....0...1c.1.64.mobile-gws-hp..6.0.0.hKgogAdfmSk
p482
sVqueryString
p483
(lp484
(dp485
Vname
p486
Vsite
p487
sVvalue
p488
g4
sa(dp489
Vname
p490
Vsource
p491
sVvalue
p492
Vhp
p493
sa(dp494
Vname
p495
Vei
p496
sVvalue
p497
V0GrzWKy3GMGPjwT4_bVQ
p498
sa(dp499
Vname
p500
g410
sVvalue
p501
VBrexit
p502
sa(dp503
Vname
p504
Voq
p505
sVvalue
p506
VBrexit
p507
sa(dp508
Vname
p509
Vgs_l
p510
sVvalue
p511
Vmobile-gws-hp.3...155.169.0.188.6.1.0.0.0.0.0.0..0.0....0...1c.1.64.mobile-gws-hp..6.0.0.hKgogAdfmSk
p512
sasVheaders
p513
(lp514
sVheadersSize
p515
I812
sVbodySize
p516
I0
sVmethod
p517
VGET
p518
sVhttpVersion
p519
VHTTP/1.1
p520
ssVtimings
p521
(dp522
Vcomment
p523
g4
sVreceive
p524
I999
sVsend
p525
I0
sVssl
p526
I-1
sVconnect
p527
I-1
sVdns
p528
I-1
sVwait
p529
I150
sVblocked
p530
I-1
ssVtime
p531
I1149
sVresponse
p532
(dp533
Vstatus
p534
I200
sVcomment
p535
g4
sVcookies
p536
(lp537
sVstatusText
p538
VOK
p539
sVcontent
p540
(dp541
VmimeType
p542
Vtext/html; charset=UTF-8
p543
sVcomment
p544
g4
sVsize
p545
I0
ssVheaders
p546
(lp547
sVheadersSize
p548
I363
sVredirectURL
p549
g4
sVbodySize
p550
I159936
sVhttpVersion
p551
VHTTP/1.1
p552
ssa(dp553
Vcomment
p554
g4
sVserverIPAddress
p555
V216.58.216.196
p556
sVpageref
p557
VBrexit
p558
sVstartedDateTime
p559
V2017-04-16T08:00:03.269-05:00
p560
sVcache
p561
(dp562
sVrequest
p563
(dp564
Vcomment
p565
g4
sVcookies
p566
(lp567
sVurl
p568
Vhttps://www.google.com/xjs/_/js/k=xjs.qs.en_US.pCBXVCvTH3s.O/m=syl,syj,syn,em3,em8,em6,em7,sym,aa,abd,sy2g,sy2k,sy29,sy2j,sy2d,sy2a,sy2c,sy2f,sy2l,sy2m,sy2n,emd,async,sybn,sybi,sybo,sy1f,sy45,sy46,sy9w,sybk,sybj,sybp,sy1g,sy30,sy47,sybm,sybl,sybq,sy1h,sybh,dvl,syep,foot,ipv6,sy32,emj,shm,sy5g,sy5i,sy5k,sykh,tl,sy2x,sy2y,sy2t,sy38,em12,vs,sy5j,sy5h,sy6u,sy66,sy67,sy7d,sy7j,sy4u,sy69,sy89,sy7e,sykk,sykl,tnv,bct,sy23,sy9m,syac,sy24,sy4g,sy9b,sy9n,syhz,syl6,ssc,sy1y,sya3,sy22,sy6i,sy25,sya2,sy6j,sy72,emb,sy26,em9,ema,sy31,sya4,sykr,strm,syh6,syl5,kac,kae,strx,sy6y,sycu,d3l,twt,syf5,sy99,syf4,syfc,syfn,syf7,syff,sy1i,sy68,sy8d,syf6,syfl,syfr,syfq,syfg,sy1j,sy4q,sy5o,sy5r,sy6n,sy6p,sy8h,syc7,syc8,syfb,syfj,syfs,syft,syg3,syg5,syg7,emn,emo,syg4,syg6,ivg,iuci,img,sy4d,sy2u,sy4f,sy4c,sy4e,sy4b,sy6w,shrb,syd7,dgm,sy41,tcc,syj7,syj8,syj2,syjc,syj6,syj3,syjg,syjh,syje,syjd,syjk,syji,syjf,syj0,emr,ems,emt,emu,emv,emx,emy,emz,em10,em11,udlg,sy5z,atn,sy4h,sy4i,sya1,ampfp/am=gCP4LtMEBXQA2RUaq_oFBISzAFA/rt=j/d=0/t=zcms/rs=ACT90oFwm4NZCwIcuuiqmthdlECdBzkhRA
p569
sVqueryString
p570
(lp571
sVheaders
p572
(lp573
sVheadersSize
p574
I1572
sVbodySize
p575
I0
sVmethod
p576
VGET
p577
sVhttpVersion
p578
VHTTP/1.1
p579
ssVtimings
p580
(dp581
Vcomment
p582
g4
sVreceive
p583
I24
sVsend
p584
I0
sVssl
p585
I-1
sVconnect
p586
I-1
sVdns
p587
I-1
sVwait
p588
I17
sVblocked
p589
I-1
ssVtime
p590
I42
sVresponse
p591
(dp592
Vstatus
p593
I200
sVcomment
p594
g4
sVcookies
p595
(lp596
sVstatusText
p597
VOK
p598
sVcontent
p599
(dp600
VmimeType
p601
Vtext/javascript; charset=UTF-8
p602
sVcomment
p603
g4
sVsize
p604
I0
ssVheaders
p605
(lp606
sVheadersSize
p607
I464
sVredirectURL
p608
g4
sVbodySize
p609
I109277
sVhttpVersion
p610
VHTTP/1.1
p611
ssa(dp612
Vcomment
p613
g4
sVserverIPAddress
p614
V216.58.216.196
p615
sVpageref
p616
VBrexit
p617
sVstartedDateTime
p618
V2017-04-16T08:00:03.435-05:00
p619
sVcache
p620
(dp621
sVrequest
p622
(dp623
Vcomment
p624
g4
sVcookies
p625
(lp626
sVurl
p627
Vhttps://www.google.com/async/irc?vet=10ahUKEwjc6oeFhKnTAhWq7IMKHcTWADoQo0EIsgI..i&ved=0ahUKEwjc6oeFhKnTAhWq7IMKHcTWADoQo0EIsgI&ei=0GrzWNzCNqrZjwTErYPQAw&yv=2&async=iu:1,ved:0ahUKEwjc6oeFhKnTAhWq7IMKHcTWADoQo0EIsgI,_id:irc_async,_pms:qs
p628
sVqueryString
p629
(lp630
(dp631
Vname
p632
Vvet
p633
sVvalue
p634
V10ahUKEwjc6oeFhKnTAhWq7IMKHcTWADoQo0EIsgI..i
p635
sa(dp636
Vname
p637
Vved
p638
sVvalue
p639
V0ahUKEwjc6oeFhKnTAhWq7IMKHcTWADoQo0EIsgI
p640
sa(dp641
Vname
p642
Vei
p643
sVvalue
p644
V0GrzWNzCNqrZjwTErYPQAw
p645
sa(dp646
Vname
p647
Vyv
p648
sVvalue
p649
g64
sa(dp650
Vname
p651
Vasync
p652
sVvalue
p653
Viu:1,ved:0ahUKEwjc6oeFhKnTAhWq7IMKHcTWADoQo0EIsgI,_id:irc_async,_pms:qs
p654
sasVheaders
p655
(lp656
sVheadersSize
p657
I752
sVbodySize
p658
I0
sVmethod
p659
VGET
p660
sVhttpVersion
p661
VHTTP/1.1
p662
ssVtimings
p663
(dp664
Vcomment
p665
g4
sVreceive
p666
I0
sVsend
p667
I0
sVssl
p668
I-1
sVconnect
p669
I-1
sVdns
p670
I-1
sVwait
p671
I42
sVblocked
p672
I-1
ssVtime
p673
I42
sVresponse
p674
(dp675
Vstatus
p676
I200
sVcomment
p677
g4
sVcookies
p678
(lp679
sVstatusText
p680
VOK
p681
sVcontent
p682
(dp683
VmimeType
p684
Vtext/html; charset=UTF-8
p685
sVcomment
p686
g4
sVsize
p687
I0
ssVheaders
p688
(lp689
sVheadersSize
p690
I383
sVredirectURL
p691
g4
sVbodySize
p692
I7791
sVhttpVersion
p693
VHTTP/1.1
p694
ssa(dp695
Vcomment
p696
g4
sVserverIPAddress
p697
V216.58.216.196
p698
sVpageref
p699
VBrexit
p700
sVstartedDateTime
p701
V2017-04-16T08:00:03.503-05:00
p702
sVcache
p703
(dp704
sVrequest
p705
(dp706
Vcomment
p707
g4
sVcookies
p708
(lp709
sVurl
p710
Vhttps://www.google.com/async/ampfp?vet=10ahUKEwjc6oeFhKnTAhWq7IMKHcTWADoQtZoBCLAC..i&ei=0GrzWNzCNqrZjwTErYPQAw&yv=2&async=_id:ampfp-async,_pms:qs
p711
sVqueryString
p712
(lp713
(dp714
Vname
p715
Vvet
p716
sVvalue
p717
V10ahUKEwjc6oeFhKnTAhWq7IMKHcTWADoQtZoBCLAC..i
p718
sa(dp719
Vname
p720
Vei
p721
sVvalue
p722
V0GrzWNzCNqrZjwTErYPQAw
p723
sa(dp724
Vname
p725
Vyv
p726
sVvalue
p727
g64
sa(dp728
Vname
p729
Vasync
p730
sVvalue
p731
V_id:ampfp-async,_pms:qs
p732
sasVheaders
p733
(lp734
sVheadersSize
p735
I662
sVbodySize
p736
I0
sVmethod
p737
VGET
p738
sVhttpVersion
p739
VHTTP/1.1
p740
ssVtimings
p741
(dp742
Vcomment
p743
g4
sVreceive
p744
I0
sVsend
p745
I0
sVssl
p746
I-1
sVconnect
p747
I-1
sVdns
p748
I-1
sVwait
p749
I35
sVblocked
p750
I-1
ssVtime
p751
I36
sVresponse
p752
(dp753
Vstatus
p754
I200
sVcomment
p755
g4
sVcookies
p756
(lp757
sVstatusText
p758
VOK
p759
sVcontent
p760
(dp761
VmimeType
p762
Vtext/html; charset=UTF-8
p763
sVcomment
p764
g4
sVsize
p765
I0
ssVheaders
p766
(lp767
sVheadersSize
p768
I383
sVredirectURL
p769
g4
sVbodySize
p770
I4525
sVhttpVersion
p771
VHTTP/1.1
p772
ssa(dp773
Vcomment
p774
g4
sVserverIPAddress
p775
V216.58.216.193
p776
sVpageref
p777
VBrexit
p778
sVstartedDateTime
p779
V2017-04-16T08:00:03.503-05:00
p780
sVcache
p781
(dp782
sVrequest
p783
(dp784
Vcomment
p785
g4
sVcookies
p786
(lp787
sVurl
p788
Vhttps://cdn.ampproject.org/preconnect.gif?0.37534342161860457
p789
sVqueryString
p790
(lp791
(dp792
Vname
p793
V0.37534342161860457
p794
sVvalue
p795
g4
sasVheaders
p796
(lp797
sVheadersSize
p798
I376
sVbodySize
p799
I0
sVmethod
p800
VGET
p801
sVhttpVersion
p802
VHTTP/1.1
p803
ssVtimings
p804
(dp805
Vcomment
p806
g4
sVreceive
p807
I0
sVsend
p808
I0
sVssl
p809
I-1
sVconnect
p810
I-1
sVdns
p811
I-1
sVwait
p812
I31
sVblocked
p813
I-1
ssVtime
p814
I32
sVresponse
p815
(dp816
Vstatus
p817
I200
sVcomment
p818
g4
sVcookies
p819
(lp820
sVstatusText
p821
VOK
p822
sVcontent
p823
(dp824
VmimeType
p825
Vimage/gif
p826
sVcomment
p827
g4
sVsize
p828
I0
ssVheaders
p829
(lp830
sVheadersSize
p831
I826
sVredirectURL
p832
g4
sVbodySize
p833
I37
sVhttpVersion
p834
VHTTP/1.1
p835
ssa(dp836
Vcomment
p837
g4
sVserverIPAddress
p838
V216.58.216.196
p839
sVpageref
p840
VBrexit
p841
sVstartedDateTime
p842
V2017-04-16T08:00:03.610-05:00
p843
sVcache
p844
(dp845
sVrequest
p846
(dp847
Vcomment
p848
g4
sVcookies
p849
(lp850
sVurl
p851
Vhttps://www.google.com/async/log_amp_item_set?vet=10ahUKEwjZgeuFhKnTAhUDzoMKHaNjCisQooQBCAE..i&ei=0GrzWNzCNqrZjwTErYPQAw&yv=2&async=num_items:1,_fmt:jspb
p852
sVqueryString
p853
(lp854
(dp855
Vname
p856
Vvet
p857
sVvalue
p858
V10ahUKEwjZgeuFhKnTAhUDzoMKHaNjCisQooQBCAE..i
p859
sa(dp860
Vname
p861
Vei
p862
sVvalue
p863
V0GrzWNzCNqrZjwTErYPQAw
p864
sa(dp865
Vname
p866
Vyv
p867
sVvalue
p868
g64
sa(dp869
Vname
p870
Vasync
p871
sVvalue
p872
Vnum_items:1,_fmt:jspb
p873
sasVheaders
p874
(lp875
sVheadersSize
p876
I670
sVbodySize
p877
I0
sVmethod
p878
VGET
p879
sVhttpVersion
p880
VHTTP/1.1
p881
ssVtimings
p882
(dp883
Vcomment
p884
g4
sVreceive
p885
I0
sVsend
p886
I0
sVssl
p887
I-1
sVconnect
p888
I-1
sVdns
p889
I-1
sVwait
p890
I33
sVblocked
p891
I-1
ssVtime
p892
I33
sVresponse
p893
(dp894
Vstatus
p895
I200
sVcomment
p896
g4
sVcookies
p897
(lp898
sVstatusText
p899
VOK
p900
sVcontent
p901
(dp902
VmimeType
p903
Vapplication/json; charset=UTF-8
p904
sVcomment
p905
g4
sVsize
p906
I0
ssVheaders
p907
(lp908
sVheadersSize
p909
I417
sVredirectURL
p910
g4
sVbodySize
p911
I132
sVhttpVersion
p912
VHTTP/1.1
p913
ssa(dp914
Vcomment
p915
g4
sVserverIPAddress
p916
V74.125.70.132
p917
sVpageref
p918
VBrexit
p919
sVstartedDateTime
p920
V2017-04-16T08:00:03.614-05:00
p921
sVcache
p922
(dp923
sVrequest
p924
(dp925
Vcomment
p926
g4
sVcookies
p927
(lp928
sVurl
p929
Vhttps://www-bbc-co-uk.cdn.ampproject.org/v/www.bbc.co.uk/news/amp/39607056?amp_js_v=9
p930
sVqueryString
p931
(lp932
(dp933
Vname
p934
Vamp_js_v
p935
sVvalue
p936
V9
p937
sasVheaders
p938
(lp939
sVheadersSize
p940
I490
sVbodySize
p941
I0
sVmethod
p942
VGET
p943
sVhttpVersion
p944
VHTTP/1.1
p945
ssVtimings
p946
(dp947
Vcomment
p948
g4
sVreceive
p949
I1
sVsend
p950
I0
sVssl
p951
I-1
sVconnect
p952
I-1
sVdns
p953
I-1
sVwait
p954
I53
sVblocked
p955
I-1
ssVtime
p956
I54
sVresponse
p957
(dp958
Vstatus
p959
I200
sVcomment
p960
g4
sVcookies
p961
(lp962
sVstatusText
p963
VOK
p964
sVcontent
p965
(dp966
VmimeType
p967
Vtext/html
p968
sVcomment
p969
g4
sVsize
p970
I0
ssVheaders
p971
(lp972
sVheadersSize
p973
I860
sVredirectURL
p974
g4
sVbodySize
p975
I5662
sVhttpVersion
p976
VHTTP/1.1
p977
ssa(dp978
Vcomment
p979
g4
sVserverIPAddress
p980
V216.58.216.193
p981
sVpageref
p982
VBrexit
p983
sVstartedDateTime
p984
V2017-04-16T08:00:03.756-05:00
p985
sVcache
p986
(dp987
sVrequest
p988
(dp989
Vcomment
p990
g4
sVcookies
p991
(lp992
sVurl
p993
Vhttps://ichef-bbci-co-uk.cdn.ampproject.org/i/ichef.bbci.co.uk/images/ic/1024x576/p0506sbs.jpg
p994
sVqueryString
p995
(lp996
sVheaders
p997
(lp998
sVheadersSize
p999
I471
sVbodySize
p1000
I0
sVmethod
p1001
VGET
p1002
sVhttpVersion
p1003
VHTTP/1.1
p1004
ssVtimings
p1005
(dp1006
Vcomment
p1007
g4
sVreceive
p1008
I5
sVsend
p1009
I0
sVssl
p1010
I-1
sVconnect
p1011
I-1
sVdns
p1012
I-1
sVwait
p1013
I27
sVblocked
p1014
I-1
ssVtime
p1015
I32
sVresponse
p1016
(dp1017
Vstatus
p1018
I200
sVcomment
p1019
g4
sVcookies
p1020
(lp1021
sVstatusText
p1022
VOK
p1023
sVcontent
p1024
(dp1025
VmimeType
p1026
Vimage/jpeg
p1027
sVcomment
p1028
g4
sVsize
p1029
I0
ssVheaders
p1030
(lp1031
sVheadersSize
p1032
I847
sVredirectURL
p1033
g4
sVbodySize
p1034
I38653
sVhttpVersion
p1035
VHTTP/1.1
p1036
ssa(dp1037
Vcomment
p1038
g4
sVserverIPAddress
p1039
V216.58.216.196
p1040
sVpageref
p1041
VBrexit
p1042
sVstartedDateTime
p1043
V2017-04-16T08:00:03.812-05:00
p1044
sVcache
p1045
(dp1046
sVrequest
p1047
(dp1048
Vcomment
p1049
g4
sVcookies
p1050
(lp1051
sVurl
p1052
Vhttps://www.google.com/gen_204?s=web&atyp=csi&ei=0GrzWNzCNqrZjwTErYPQAw&imc=88&imn=88&imp=34&adh=&xjs=init.30.14.sb_mob.23.dvl.3.TG8rFw.1.mbsf.1.jsa.1&ima=18&rt=prt.955,iml.1105,xjsls.955,qiml.1206,dcl.1051,xjses.1113,xjsee.1231,xjs.1231,ol.1761,aft.1105,wsrt.219,cst.0,dnst.0,rqst.1150,rspt.999,rqstt.2,unt.1,cstt.1,dit.1220
p1053
sVqueryString
p1054
(lp1055
(dp1056
Vname
p1057
g57
sVvalue
p1058
Vweb
p1059
sa(dp1060
Vname
p1061
Vatyp
p1062
sVvalue
p1063
Vcsi
p1064
sa(dp1065
Vname
p1066
Vei
p1067
sVvalue
p1068
V0GrzWNzCNqrZjwTErYPQAw
p1069
sa(dp1070
Vname
p1071
Vimc
p1072
sVvalue
p1073
V88
p1074
sa(dp1075
Vname
p1076
Vimn
p1077
sVvalue
p1078
V88
p1079
sa(dp1080
Vname
p1081
Vimp
p1082
sVvalue
p1083
V34
p1084
sa(dp1085
Vname
p1086
Vadh
p1087
sVvalue
p1088
g4
sa(dp1089
Vname
p1090
Vxjs
p1091
sVvalue
p1092
Vinit.30.14.sb_mob.23.dvl.3.TG8rFw.1.mbsf.1.jsa.1
p1093
sa(dp1094
Vname
p1095
Vima
p1096
sVvalue
p1097
V18
p1098
sa(dp1099
Vname
p1100
Vrt
p1101
sVvalue
p1102
Vprt.955,iml.1105,xjsls.955,qiml.1206,dcl.1051,xjses.1113,xjsee.1231,xjs.1231,ol.1761,aft.1105,wsrt.219,cst.0,dnst.0,rqst.1150,rspt.999,rqstt.2,unt.1,cstt.1,dit.1220
p1103
sasVheaders
p1104
(lp1105
sVheadersSize
p1106
I842
sVbodySize
p1107
I0
sVmethod
p1108
VGET
p1109
sVhttpVersion
p1110
VHTTP/1.1
p1111
ssVtimings
p1112
(dp1113
Vcomment
p1114
g4
sVreceive
p1115
I0
sVsend
p1116
I0
sVssl
p1117
I-1
sVconnect
p1118
I-1
sVdns
p1119
I-1
sVwait
p1120
I27
sVblocked
p1121
I-1
ssVtime
p1122
I27
sVresponse
p1123
(dp1124
Vstatus
p1125
I204
sVcomment
p1126
g4
sVcookies
p1127
(lp1128
sVstatusText
p1129
VNo Content
p1130
sVcontent
p1131
(dp1132
VmimeType
p1133
Vtext/html; charset=UTF-8
p1134
sVcomment
p1135
g4
sVsize
p1136
I0
ssVheaders
p1137
(lp1138
sVheadersSize
p1139
I248
sVredirectURL
p1140
g4
sVbodySize
p1141
I0
sVhttpVersion
p1142
VHTTP/1.1
p1143
ssa(dp1144
Vcomment
p1145
g4
sVserverIPAddress
p1146
V216.58.216.196
p1147
sVpageref
p1148
VBrexit
p1149
sVstartedDateTime
p1150
V2017-04-16T08:00:05.460-05:00
p1151
sVcache
p1152
(dp1153
sVrequest
p1154
(dp1155
Vcomment
p1156
g4
sVcookies
p1157
(lp1158
sVurl
p1159
Vhttps://www.google.com/gen_204?atyp=i&ct=slh&cad=&ei=vWrzWLnmHuemjwTdn5iYBw&m=V&t=C&s=1&v=2&pv=0.09133232971236183&me=1:1492347583937,x:3,V,0,0,1280,944:0,N,1,vWrzWLnmHuemjwTdn5iYBw:0,R,1,24,8,155,1249,251:0,R,1,34,8,416,1249,715:0,R,1,35,8,416,1249,715:0,R,1,38,8,429,1249,40:0,R,1,51,8,481,1249,146:0,R,1,54,0,497,1265,165:0,R,1,94,8,644,1249,40:0,R,1,95,24,644,1217,40:0,R,1,98,8,700,1249,20:0,R,1,100,8,728,1249,20:0,R,1,114,8,768,1249,310:0,R,1,115,0,813,1265,285:2,B,3253:17360,e,U&zx=1492347605458
p1160
sVqueryString
p1161
(lp1162
(dp1163
Vname
p1164
Vatyp
p1165
sVvalue
p1166
g30
sa(dp1167
Vname
p1168
Vct
p1169
sVvalue
p1170
Vslh
p1171
sa(dp1172
Vname
p1173
Vcad
p1174
sVvalue
p1175
g4
sa(dp1176
Vname
p1177
Vei
p1178
sVvalue
p1179
VvWrzWLnmHuemjwTdn5iYBw
p1180
sa(dp1181
Vname
p1182
g47
sVvalue
p1183
g49
sa(dp1184
Vname
p1185
g52
sVvalue
p1186
g54
sa(dp1187
Vname
p1188
g57
sVvalue
p1189
g59
sa(dp1190
Vname
p1191
g62
sVvalue
p1192
g64
sa(dp1193
Vname
p1194
Vpv
p1195
sVvalue
p1196
V0.09133232971236183
p1197
sa(dp1198
Vname
p1199
Vme
p1200
sVvalue
p1201
V1:1492347583937,x:3,V,0,0,1280,944:0,N,1,vWrzWLnmHuemjwTdn5iYBw:0,R,1,24,8,155,1249,251:0,R,1,34,8,416,1249,715:0,R,1,35,8,416,1249,715:0,R,1,38,8,429,1249,40:0,R,1,51,8,481,1249,146:0,R,1,54,0,497,1265,165:0,R,1,94,8,644,1249,40:0,R,1,95,24,644,1217,40:0,R,1,98,8,700,1249,20:0,R,1,100,8,728,1249,20:0,R,1,114,8,768,1249,310:0,R,1,115,0,813,1265,285:2,B,3253:17360,e,U
p1202
sa(dp1203
Vname
p1204
Vzx
p1205
sVvalue
p1206
V1492347605458
p1207
sasVheaders
p1208
(lp1209
sVheadersSize
p1210
I1021
sVbodySize
p1211
I0
sVmethod
p1212
VGET
p1213
sVhttpVersion
p1214
VHTTP/1.1
p1215
ssVtimings
p1216
(dp1217
Vcomment
p1218
g4
sVreceive
p1219
I0
sVsend
p1220
I0
sVssl
p1221
I-1
sVconnect
p1222
I-1
sVdns
p1223
I-1
sVwait
p1224
I41
sVblocked
p1225
I-1
ssVtime
p1226
I41
sVresponse
p1227
(dp1228
Vstatus
p1229
I204
sVcomment
p1230
g4
sVcookies
p1231
(lp1232
sVstatusText
p1233
VNo Content
p1234
sVcontent
p1235
(dp1236
VmimeType
p1237
Vtext/html; charset=UTF-8
p1238
sVcomment
p1239
g4
sVsize
p1240
I0
ssVheaders
p1241
(lp1242
sVheadersSize
p1243
I248
sVredirectURL
p1244
g4
sVbodySize
p1245
I0
sVhttpVersion
p1246
VHTTP/1.1
p1247
ssasVversion
p1248
V1.2
p1249
sVpages
p1250
(lp1251
(dp1252
VpageTimings
p1253
(dp1254
Vcomment
p1255
g4
ssVcomment
p1256
g4
sVtitle
p1257
VBrexit
p1258
sVid
p1259
VBrexit
p1260
sVstartedDateTime
p1261
V2017-04-16T08:00:01.295-05:00
p1262
sasVcreator
p1263
(dp1264
Vcomment
p1265
g4
sVversion
p1266
V2.1.4
p1267
sVname
p1268
VBrowserMob Proxy
p1269
sss.