(dp0
Vlog
p1
(dp2
Vcomment
p3
V
p4
sVentries
p5
(lp6
(dp7
Vcomment
p8
g4
sVserverIPAddress
p9
V216.58.216.196
p10
sVpageref
p11
VGolden State Warriors
p12
sVstartedDateTime
p13
V2017-04-16T08:31:12.887-05:00
p14
sVcache
p15
(dp16
sVrequest
p17
(dp18
Vcomment
p19
g4
sVcookies
p20
(lp21
sVurl
p22
Vhttps://www.google.com/gen_204?atyp=i&ct=slh&cad=&ei=DHLzWIXOC6vRjwTOoKbQBg&m=V&t=C&s=1&v=2&pv=0.4607663915141357&me=1:1492349456778,x:1,V,0,0,1280,944:0,N,1,DHLzWIXOC6vRjwTOoKbQBg:0,R,1,24,8,155,1249,647:0,R,1,25,8,155,1249,647:0,R,1,28,8,168,1249,40:0,R,1,41,8,220,1249,178:0,R,1,44,0,236,1265,197:0,R,1,84,8,415,1249,20:0,R,1,85,24,415,1217,20:0,R,1,91,8,451,1249,20:0,R,1,93,8,479,1249,20:0,R,1,151,8,812,1249,201:0,R,1,152,24,812,1217,190:3,B,3827:16103,e,U&zx=1492349472886
p23
sVqueryString
p24
(lp25
(dp26
Vname
p27
Vatyp
p28
sVvalue
p29
Vi
p30
sa(dp31
Vname
p32
Vct
p33
sVvalue
p34
Vslh
p35
sa(dp36
Vname
p37
Vcad
p38
sVvalue
p39
g4
sa(dp40
Vname
p41
Vei
p42
sVvalue
p43
VDHLzWIXOC6vRjwTOoKbQBg
p44
sa(dp45
Vname
p46
Vm
p47
sVvalue
p48
VV
p49
sa(dp50
Vname
p51
Vt
p52
sVvalue
p53
VC
p54
sa(dp55
Vname
p56
Vs
p57
sVvalue
p58
V1
p59
sa(dp60
Vname
p61
Vv
p62
sVvalue
p63
V2
p64
sa(dp65
Vname
p66
Vpv
p67
sVvalue
p68
V0.4607663915141357
p69
sa(dp70
Vname
p71
Vme
p72
sVvalue
p73
V1:1492349456778,x:1,V,0,0,1280,944:0,N,1,DHLzWIXOC6vRjwTOoKbQBg:0,R,1,24,8,155,1249,647:0,R,1,25,8,155,1249,647:0,R,1,28,8,168,1249,40:0,R,1,41,8,220,1249,178:0,R,1,44,0,236,1265,197:0,R,1,84,8,415,1249,20:0,R,1,85,24,415,1217,20:0,R,1,91,8,451,1249,20:0,R,1,93,8,479,1249,20:0,R,1,151,8,812,1249,201:0,R,1,152,24,812,1217,190:3,B,3827:16103,e,U
p74
sa(dp75
Vname
p76
Vzx
p77
sVvalue
p78
V1492349472886
p79
sasVheaders
p80
(lp81
sVheadersSize
p82
I996
sVbodySize
p83
I0
sVmethod
p84
VGET
p85
sVhttpVersion
p86
VHTTP/1.1
p87
ssVtimings
p88
(dp89
Vcomment
p90
g4
sVreceive
p91
I0
sVsend
p92
I0
sVssl
p93
I-1
sVconnect
p94
I-1
sVdns
p95
I-1
sVwait
p96
I0
sVblocked
p97
I-1
ssVtime
p98
I0
sVresponse
p99
(dp100
Vstatus
p101
I0
sVcomment
p102
g4
sVcookies
p103
(lp104
sV_error
p105
VNo response received
p106
sVstatusText
p107
g4
sVcontent
p108
(dp109
VmimeType
p110
g4
sVcomment
p111
g4
sVsize
p112
I0
ssVheaders
p113
(lp114
sVheadersSize
p115
I-1
sVredirectURL
p116
g4
sVbodySize
p117
I-1
sVhttpVersion
p118
Vunknown
p119
ssa(dp120
Vcomment
p121
g4
sVserverIPAddress
p122
V216.58.216.196
p123
sVpageref
p124
VGolden State Warriors
p125
sVstartedDateTime
p126
V2017-04-16T08:31:12.888-05:00
p127
sVcache
p128
(dp129
sVrequest
p130
(dp131
Vcomment
p132
g4
sVcookies
p133
(lp134
sVurl
p135
Vhttps://www.google.com/gen_204?atyp=i&ct=slh&cad=&ei=BXHzWIP8Meq-jwTI64z4DQ&m=V&t=C&s=1&v=2&pv=0.8802857241403822&me=1:1492349192964,x:2,V,0,0,1280,944:0,N,1,BXHzWIP8Meq-jwTI64z4DQ:0,R,1,24,8,155,1249,281:0,R,1,25,8,155,1249,261:0,R,1,26,8,155,1249,261:0,R,1,27,8,155,1249,110:0,R,1,42,8,446,1249,251:0,R,1,52,8,707,1249,301:0,R,1,53,8,707,1249,301:0,R,1,57,1142,707,115,107:0,R,1,66,8,741,1134,40:0,R,1,78,8,831,1249,40:0,R,1,79,24,831,1217,40:0,R,1,82,8,887,1249,20:0,R,1,84,8,915,1249,20:1,B,3492:19394,e,U&zx=1492349472887
p136
sVqueryString
p137
(lp138
(dp139
Vname
p140
Vatyp
p141
sVvalue
p142
g30
sa(dp143
Vname
p144
Vct
p145
sVvalue
p146
Vslh
p147
sa(dp148
Vname
p149
Vcad
p150
sVvalue
p151
g4
sa(dp152
Vname
p153
Vei
p154
sVvalue
p155
VBXHzWIP8Meq-jwTI64z4DQ
p156
sa(dp157
Vname
p158
g47
sVvalue
p159
g49
sa(dp160
Vname
p161
g52
sVvalue
p162
g54
sa(dp163
Vname
p164
g57
sVvalue
p165
g59
sa(dp166
Vname
p167
g62
sVvalue
p168
g64
sa(dp169
Vname
p170
Vpv
p171
sVvalue
p172
V0.8802857241403822
p173
sa(dp174
Vname
p175
Vme
p176
sVvalue
p177
V1:1492349192964,x:2,V,0,0,1280,944:0,N,1,BXHzWIP8Meq-jwTI64z4DQ:0,R,1,24,8,155,1249,281:0,R,1,25,8,155,1249,261:0,R,1,26,8,155,1249,261:0,R,1,27,8,155,1249,110:0,R,1,42,8,446,1249,251:0,R,1,52,8,707,1249,301:0,R,1,53,8,707,1249,301:0,R,1,57,1142,707,115,107:0,R,1,66,8,741,1134,40:0,R,1,78,8,831,1249,40:0,R,1,79,24,831,1217,40:0,R,1,82,8,887,1249,20:0,R,1,84,8,915,1249,20:1,B,3492:19394,e,U
p178
sa(dp179
Vname
p180
Vzx
p181
sVvalue
p182
V1492349472887
p183
sasVheaders
p184
(lp185
sVheadersSize
p186
I1043
sVbodySize
p187
I0
sVmethod
p188
VGET
p189
sVhttpVersion
p190
VHTTP/1.1
p191
ssVtimings
p192
(dp193
Vcomment
p194
g4
sVreceive
p195
I0
sVsend
p196
I0
sVssl
p197
I-1
sVconnect
p198
I-1
sVdns
p199
I-1
sVwait
p200
I0
sVblocked
p201
I-1
ssVtime
p202
I0
sVresponse
p203
(dp204
Vstatus
p205
I0
sVcomment
p206
g4
sVcookies
p207
(lp208
sV_error
p209
VNo response received
p210
sVstatusText
p211
g4
sVcontent
p212
(dp213
VmimeType
p214
g4
sVcomment
p215
g4
sVsize
p216
I0
ssVheaders
p217
(lp218
sVheadersSize
p219
I-1
sVredirectURL
p220
g4
sVbodySize
p221
I-1
sVhttpVersion
p222
Vunknown
p223
ssa(dp224
Vcomment
p225
g4
sVserverIPAddress
p226
V216.58.216.196
p227
sVpageref
p228
VGolden State Warriors
p229
sVstartedDateTime
p230
V2017-04-16T08:31:12.888-05:00
p231
sVcache
p232
(dp233
sVrequest
p234
(dp235
Vcomment
p236
g4
sVcookies
p237
(lp238
sVurl
p239
Vhttps://www.google.com/gen_204?atyp=i&ct=slh&cad=&ei=w3HzWJjRH4uijwSyorDABA&m=V&t=C&s=1&v=2&pv=0.24343099472914476&me=1:1492349382301,x:1,V,0,0,1280,944:0,N,1,w3HzWJjRH4uijwSyorDABA:0,R,1,24,8,155,1249,647:0,R,1,25,8,155,1249,647:0,R,1,28,8,168,1249,40:0,R,1,41,8,220,1249,178:0,R,1,44,0,236,1265,197:0,R,1,84,8,415,1249,20:0,R,1,85,24,415,1217,20:0,R,1,91,8,451,1249,20:0,R,1,98,8,479,1249,20:0,R,1,150,8,812,1249,359:0,R,1,151,8,856,1249,315:0,R,1,152,0,856,1265,335:2,B,3809:15094,e,U&zx=1492349472887
p240
sVqueryString
p241
(lp242
(dp243
Vname
p244
Vatyp
p245
sVvalue
p246
g30
sa(dp247
Vname
p248
Vct
p249
sVvalue
p250
Vslh
p251
sa(dp252
Vname
p253
Vcad
p254
sVvalue
p255
g4
sa(dp256
Vname
p257
Vei
p258
sVvalue
p259
Vw3HzWJjRH4uijwSyorDABA
p260
sa(dp261
Vname
p262
g47
sVvalue
p263
g49
sa(dp264
Vname
p265
g52
sVvalue
p266
g54
sa(dp267
Vname
p268
g57
sVvalue
p269
g59
sa(dp270
Vname
p271
g62
sVvalue
p272
g64
sa(dp273
Vname
p274
Vpv
p275
sVvalue
p276
V0.24343099472914476
p277
sa(dp278
Vname
p279
Vme
p280
sVvalue
p281
V1:1492349382301,x:1,V,0,0,1280,944:0,N,1,w3HzWJjRH4uijwSyorDABA:0,R,1,24,8,155,1249,647:0,R,1,25,8,155,1249,647:0,R,1,28,8,168,1249,40:0,R,1,41,8,220,1249,178:0,R,1,44,0,236,1265,197:0,R,1,84,8,415,1249,20:0,R,1,85,24,415,1217,20:0,R,1,91,8,451,1249,20:0,R,1,98,8,479,1249,20:0,R,1,150,8,812,1249,359:0,R,1,151,8,856,1249,315:0,R,1,152,0,856,1265,335:2,B,3809:15094,e,U
p282
sa(dp283
Vname
p284
Vzx
p285
sVvalue
p286
V1492349472887
p287
sasVheaders
p288
(lp289
sVheadersSize
p290
I1021
sVbodySize
p291
I0
sVmethod
p292
VGET
p293
sVhttpVersion
p294
VHTTP/1.1
p295
ssVtimings
p296
(dp297
Vcomment
p298
g4
sVreceive
p299
I0
sVsend
p300
I0
sVssl
p301
I-1
sVconnect
p302
I-1
sVdns
p303
I-1
sVwait
p304
I0
sVblocked
p305
I-1
ssVtime
p306
I0
sVresponse
p307
(dp308
Vstatus
p309
I0
sVcomment
p310
g4
sVcookies
p311
(lp312
sV_error
p313
VNo response received
p314
sVstatusText
p315
g4
sVcontent
p316
(dp317
VmimeType
p318
g4
sVcomment
p319
g4
sVsize
p320
I0
ssVheaders
p321
(lp322
sVheadersSize
p323
I-1
sVredirectURL
p324
g4
sVbodySize
p325
I-1
sVhttpVersion
p326
Vunknown
p327
ssa(dp328
Vcomment
p329
g4
sVserverIPAddress
p330
V216.58.216.196
p331
sVpageref
p332
VGolden State Warriors
p333
sVstartedDateTime
p334
V2017-04-16T08:31:12.889-05:00
p335
sVcache
p336
(dp337
sVrequest
p338
(dp339
Vcomment
p340
g4
sVcookies
p341
(lp342
sVurl
p343
Vhttps://www.google.com/gen_204?atyp=i&ct=slh&cad=&ei=1XHzWJdqrPiPBOX5hfAG&m=V&t=C&s=1&v=2&pv=0.2572702787736092&me=1:1492349399742,x:4,V,0,0,1280,944:0,N,1,1XHzWJdqrPiPBOX5hfAG:0,R,1,24,8,155,1249,251:0,R,1,34,8,416,1249,667:0,R,1,35,8,416,1249,667:0,R,1,38,8,429,1249,40:0,R,1,51,8,481,1249,178:0,R,1,54,0,497,1265,197:0,R,1,94,8,676,1249,40:0,R,1,95,24,676,1217,40:0,R,1,101,8,732,1249,20:0,R,1,103,8,760,1249,20:3,B,3246:16612,e,U&zx=1492349472887
p344
sVqueryString
p345
(lp346
(dp347
Vname
p348
Vatyp
p349
sVvalue
p350
g30
sa(dp351
Vname
p352
Vct
p353
sVvalue
p354
Vslh
p355
sa(dp356
Vname
p357
Vcad
p358
sVvalue
p359
g4
sa(dp360
Vname
p361
Vei
p362
sVvalue
p363
V1XHzWJdqrPiPBOX5hfAG
p364
sa(dp365
Vname
p366
g47
sVvalue
p367
g49
sa(dp368
Vname
p369
g52
sVvalue
p370
g54
sa(dp371
Vname
p372
g57
sVvalue
p373
g59
sa(dp374
Vname
p375
g62
sVvalue
p376
g64
sa(dp377
Vname
p378
Vpv
p379
sVvalue
p380
V0.2572702787736092
p381
sa(dp382
Vname
p383
Vme
p384
sVvalue
p385
V1:1492349399742,x:4,V,0,0,1280,944:0,N,1,1XHzWJdqrPiPBOX5hfAG:0,R,1,24,8,155,1249,251:0,R,1,34,8,416,1249,667:0,R,1,35,8,416,1249,667:0,R,1,38,8,429,1249,40:0,R,1,51,8,481,1249,178:0,R,1,54,0,497,1265,197:0,R,1,94,8,676,1249,40:0,R,1,95,24,676,1217,40:0,R,1,101,8,732,1249,20:0,R,1,103,8,760,1249,20:3,B,3246:16612,e,U
p386
sa(dp387
Vname
p388
Vzx
p389
sVvalue
p390
V1492349472887
p391
sasVheaders
p392
(lp393
sVheadersSize
p394
I967
sVbodySize
p395
I0
sVmethod
p396
VGET
p397
sVhttpVersion
p398
VHTTP/1.1
p399
ssVtimings
p400
(dp401
Vcomment
p402
g4
sVreceive
p403
I0
sVsend
p404
I0
sVssl
p405
I-1
sVconnect
p406
I-1
sVdns
p407
I-1
sVwait
p408
I0
sVblocked
p409
I-1
ssVtime
p410
I0
sVresponse
p411
(dp412
Vstatus
p413
I0
sVcomment
p414
g4
sVcookies
p415
(lp416
sV_error
p417
VNo response received
p418
sVstatusText
p419
g4
sVcontent
p420
(dp421
VmimeType
p422
g4
sVcomment
p423
g4
sVsize
p424
I0
ssVheaders
p425
(lp426
sVheadersSize
p427
I-1
sVredirectURL
p428
g4
sVbodySize
p429
I-1
sVhttpVersion
p430
Vunknown
p431
ssa(dp432
Vcomment
p433
g4
sVserverIPAddress
p434
V216.58.216.196
p435
sVpageref
p436
VGolden State Warriors
p437
sVstartedDateTime
p438
V2017-04-16T08:31:12.893-05:00
p439
sVcache
p440
(dp441
sVrequest
p442
(dp443
Vcomment
p444
g4
sVcookies
p445
(lp446
sVurl
p447
Vhttp://www.google.com/
p448
sVqueryString
p449
(lp450
sVheaders
p451
(lp452
sVheadersSize
p453
I613
sVbodySize
p454
I0
sVmethod
p455
VGET
p456
sVhttpVersion
p457
VHTTP/1.1
p458
ssVtimings
p459
(dp460
Vcomment
p461
g4
sVreceive
p462
I0
sVsend
p463
I0
sVssl
p464
I-1
sVconnect
p465
I-1
sVdns
p466
I-1
sVwait
p467
I40
sVblocked
p468
I-1
ssVtime
p469
I41
sVresponse
p470
(dp471
Vstatus
p472
I302
sVcomment
p473
g4
sVcookies
p474
(lp475
sVstatusText
p476
VFound
p477
sVcontent
p478
(dp479
VmimeType
p480
Vtext/html; charset=UTF-8
p481
sVcomment
p482
g4
sVsize
p483
I0
ssVheaders
p484
(lp485
sVheadersSize
p486
I609
sVredirectURL
p487
Vhttps://www.google.com/?gws_rd=ssl
p488
sVbodySize
p489
I231
sVhttpVersion
p490
VHTTP/1.1
p491
ssa(dp492
Vcomment
p493
g4
sVserverIPAddress
p494
V216.58.216.196
p495
sVpageref
p496
VGolden State Warriors
p497
sVstartedDateTime
p498
V2017-04-16T08:31:12.938-05:00
p499
sVcache
p500
(dp501
sVrequest
p502
(dp503
Vcomment
p504
g4
sVcookies
p505
(lp506
sVurl
p507
Vhttps://www.google.com/?gws_rd=ssl
p508
sVqueryString
p509
(lp510
(dp511
Vname
p512
Vgws_rd
p513
sVvalue
p514
Vssl
p515
sasVheaders
p516
(lp517
sVheadersSize
p518
I607
sVbodySize
p519
I0
sVmethod
p520
VGET
p521
sVhttpVersion
p522
VHTTP/1.1
p523
ssVtimings
p524
(dp525
Vcomment
p526
g4
sVreceive
p527
I73
sVsend
p528
I0
sVssl
p529
I-1
sVconnect
p530
I-1
sVdns
p531
I-1
sVwait
p532
I68
sVblocked
p533
I-1
ssVtime
p534
I142
sVresponse
p535
(dp536
Vstatus
p537
I200
sVcomment
p538
g4
sVcookies
p539
(lp540
sVstatusText
p541
VOK
p542
sVcontent
p543
(dp544
VmimeType
p545
Vtext/html; charset=UTF-8
p546
sVcomment
p547
g4
sVsize
p548
I0
ssVheaders
p549
(lp550
sVheadersSize
p551
I721
sVredirectURL
p552
g4
sVbodySize
p553
I34289
sVhttpVersion
p554
VHTTP/1.1
p555
ssa(dp556
Vcomment
p557
g4
sVserverIPAddress
p558
V216.58.216.196
p559
sVpageref
p560
VGolden State Warriors
p561
sVstartedDateTime
p562
V2017-04-16T08:31:13.251-05:00
p563
sVcache
p564
(dp565
sVrequest
p566
(dp567
Vcomment
p568
g4
sVcookies
p569
(lp570
sVurl
p571
Vhttps://www.google.com/gen_204?s=mobilewebhp&atyp=csi&ei=H3LzWPvtOMzgjwS7-pToDA&imc=1&imn=1&imp=0&adh=&xjs=init.26.12.sb_mob.18.dvl.3.c.2.jsa.1.mbsf.1&ima=1&rt=xjsls.9,prt.10,iml.10,xjses.74,xjsee.165,xjs.165,dcl.191,ol.220,aft.10,wsrt.140,cst.0,dnst.0,rqst.151,rspt.81,rqstt.52,unt.50,cstt.50,dit.320
p572
sVqueryString
p573
(lp574
(dp575
Vname
p576
g57
sVvalue
p577
Vmobilewebhp
p578
sa(dp579
Vname
p580
Vatyp
p581
sVvalue
p582
Vcsi
p583
sa(dp584
Vname
p585
Vei
p586
sVvalue
p587
VH3LzWPvtOMzgjwS7-pToDA
p588
sa(dp589
Vname
p590
Vimc
p591
sVvalue
p592
g59
sa(dp593
Vname
p594
Vimn
p595
sVvalue
p596
g59
sa(dp597
Vname
p598
Vimp
p599
sVvalue
p600
V0
p601
sa(dp602
Vname
p603
Vadh
p604
sVvalue
p605
g4
sa(dp606
Vname
p607
Vxjs
p608
sVvalue
p609
Vinit.26.12.sb_mob.18.dvl.3.c.2.jsa.1.mbsf.1
p610
sa(dp611
Vname
p612
Vima
p613
sVvalue
p614
g59
sa(dp615
Vname
p616
Vrt
p617
sVvalue
p618
Vxjsls.9,prt.10,iml.10,xjses.74,xjsee.165,xjs.165,dcl.191,ol.220,aft.10,wsrt.140,cst.0,dnst.0,rqst.151,rspt.81,rqstt.52,unt.50,cstt.50,dit.320
p619
sasVheaders
p620
(lp621
sVheadersSize
p622
I829
sVbodySize
p623
I0
sVmethod
p624
VGET
p625
sVhttpVersion
p626
VHTTP/1.1
p627
ssVtimings
p628
(dp629
Vcomment
p630
g4
sVreceive
p631
I0
sVsend
p632
I0
sVssl
p633
I-1
sVconnect
p634
I-1
sVdns
p635
I-1
sVwait
p636
I32
sVblocked
p637
I-1
ssVtime
p638
I32
sVresponse
p639
(dp640
Vstatus
p641
I204
sVcomment
p642
g4
sVcookies
p643
(lp644
sVstatusText
p645
VNo Content
p646
sVcontent
p647
(dp648
VmimeType
p649
Vtext/html; charset=UTF-8
p650
sVcomment
p651
g4
sVsize
p652
I0
ssVheaders
p653
(lp654
sVheadersSize
p655
I248
sVredirectURL
p656
g4
sVbodySize
p657
I0
sVhttpVersion
p658
VHTTP/1.1
p659
ssa(dp660
Vcomment
p661
g4
sVserverIPAddress
p662
V216.58.216.196
p663
sVpageref
p664
VGolden State Warriors
p665
sVstartedDateTime
p666
V2017-04-16T08:31:13.404-05:00
p667
sVcache
p668
(dp669
sVrequest
p670
(dp671
Vcomment
p672
g4
sVcookies
p673
(lp674
sVurl
p675
Vhttps://www.google.com/complete/search?client=mobile-gws-hp&hl=en&gs_rn=64&gs_ri=mobile-gws-hp&sla=1&pfq=grayson%20allen&gm=602&cp=0&gs_id=1&xhr=t&q=G&tch=1&ech=1&psi=H3LzWPvtOMzgjwS7-pToDA.1492349473164.1
p676
sVqueryString
p677
(lp678
(dp679
Vname
p680
Vclient
p681
sVvalue
p682
Vmobile-gws-hp
p683
sa(dp684
Vname
p685
Vhl
p686
sVvalue
p687
Ven
p688
sa(dp689
Vname
p690
Vgs_rn
p691
sVvalue
p692
V64
p693
sa(dp694
Vname
p695
Vgs_ri
p696
sVvalue
p697
Vmobile-gws-hp
p698
sa(dp699
Vname
p700
Vsla
p701
sVvalue
p702
g59
sa(dp703
Vname
p704
Vpfq
p705
sVvalue
p706
Vgrayson allen
p707
sa(dp708
Vname
p709
Vgm
p710
sVvalue
p711
V602
p712
sa(dp713
Vname
p714
Vcp
p715
sVvalue
p716
g601
sa(dp717
Vname
p718
Vgs_id
p719
sVvalue
p720
g59
sa(dp721
Vname
p722
Vxhr
p723
sVvalue
p724
g52
sa(dp725
Vname
p726
Vq
p727
sVvalue
p728
VG
p729
sa(dp730
Vname
p731
Vtch
p732
sVvalue
p733
g59
sa(dp734
Vname
p735
Vech
p736
sVvalue
p737
g59
sa(dp738
Vname
p739
Vpsi
p740
sVvalue
p741
VH3LzWPvtOMzgjwS7-pToDA.1492349473164.1
p742
sasVheaders
p743
(lp744
sVheadersSize
p745
I733
sVbodySize
p746
I0
sVmethod
p747
VGET
p748
sVhttpVersion
p749
VHTTP/1.1
p750
ssVtimings
p751
(dp752
Vcomment
p753
g4
sVreceive
p754
I0
sVsend
p755
I0
sVssl
p756
I-1
sVconnect
p757
I-1
sVdns
p758
I-1
sVwait
p759
I0
sVblocked
p760
I-1
ssVtime
p761
I0
sVresponse
p762
(dp763
Vstatus
p764
I0
sVcomment
p765
g4
sVcookies
p766
(lp767
sV_error
p768
VNo response received
p769
sVstatusText
p770
g4
sVcontent
p771
(dp772
VmimeType
p773
g4
sVcomment
p774
g4
sVsize
p775
I0
ssVheaders
p776
(lp777
sVheadersSize
p778
I-1
sVredirectURL
p779
g4
sVbodySize
p780
I-1
sVhttpVersion
p781
Vunknown
p782
ssa(dp783
Vcomment
p784
g4
sVserverIPAddress
p785
V216.58.216.196
p786
sVpageref
p787
VGolden State Warriors
p788
sVstartedDateTime
p789
V2017-04-16T08:31:13.504-05:00
p790
sVcache
p791
(dp792
sVrequest
p793
(dp794
Vcomment
p795
g4
sVcookies
p796
(lp797
sVurl
p798
Vhttps://www.google.com/search?site=&source=hp&ei=H3LzWPvtOMzgjwS7-pToDA&q=Golden+State+Warriors&oq=Golden+State+Warriors&gs_l=mobile-gws-hp.3...220.279.0.316.21.1.0.0.0.0.0.0..0.0....0...1c.1.64.mobile-gws-hp..21.0.0.KGDfoGYwPrk
p799
sVqueryString
p800
(lp801
(dp802
Vname
p803
Vsite
p804
sVvalue
p805
g4
sa(dp806
Vname
p807
Vsource
p808
sVvalue
p809
Vhp
p810
sa(dp811
Vname
p812
Vei
p813
sVvalue
p814
VH3LzWPvtOMzgjwS7-pToDA
p815
sa(dp816
Vname
p817
g727
sVvalue
p818
VGolden State Warriors
p819
sa(dp820
Vname
p821
Voq
p822
sVvalue
p823
VGolden State Warriors
p824
sa(dp825
Vname
p826
Vgs_l
p827
sVvalue
p828
Vmobile-gws-hp.3...220.279.0.316.21.1.0.0.0.0.0.0..0.0....0...1c.1.64.mobile-gws-hp..21.0.0.KGDfoGYwPrk
p829
sasVheaders
p830
(lp831
sVheadersSize
p832
I846
sVbodySize
p833
I0
sVmethod
p834
VGET
p835
sVhttpVersion
p836
VHTTP/1.1
p837
ssVtimings
p838
(dp839
Vcomment
p840
g4
sVreceive
p841
I1049
sVsend
p842
I0
sVssl
p843
I-1
sVconnect
p844
I-1
sVdns
p845
I-1
sVwait
p846
I101
sVblocked
p847
I-1
ssVtime
p848
I1151
sVresponse
p849
(dp850
Vstatus
p851
I200
sVcomment
p852
g4
sVcookies
p853
(lp854
sVstatusText
p855
VOK
p856
sVcontent
p857
(dp858
VmimeType
p859
Vtext/html; charset=UTF-8
p860
sVcomment
p861
g4
sVsize
p862
I0
ssVheaders
p863
(lp864
sVheadersSize
p865
I363
sVredirectURL
p866
g4
sVbodySize
p867
I165594
sVhttpVersion
p868
VHTTP/1.1
p869
ssa(dp870
Vcomment
p871
g4
sVserverIPAddress
p872
V216.58.216.195
p873
sVpageref
p874
VGolden State Warriors
p875
sVstartedDateTime
p876
V2017-04-16T08:31:14.863-05:00
p877
sVcache
p878
(dp879
sVrequest
p880
(dp881
Vcomment
p882
g4
sVcookies
p883
(lp884
sVurl
p885
Vhttps://ssl.gstatic.com/onebox/media/sports/logos/_bgagBCd6ieOIt3INWRN_w_96x96.png
p886
sVqueryString
p887
(lp888
sVheaders
p889
(lp890
sVheadersSize
p891
I397
sVbodySize
p892
I0
sVmethod
p893
VGET
p894
sVhttpVersion
p895
VHTTP/1.1
p896
ssVtimings
p897
(dp898
Vcomment
p899
g4
sVreceive
p900
I1
sVsend
p901
I0
sVssl
p902
I170
sVconnect
p903
I201
sVdns
p904
I43
sVwait
p905
I15
sVblocked
p906
I0
ssVtime
p907
I262
sVresponse
p908
(dp909
Vstatus
p910
I200
sVcomment
p911
g4
sVcookies
p912
(lp913
sVstatusText
p914
VOK
p915
sVcontent
p916
(dp917
VmimeType
p918
Vimage/png
p919
sVcomment
p920
g4
sVsize
p921
I0
ssVheaders
p922
(lp923
sVheadersSize
p924
I424
sVredirectURL
p925
g4
sVbodySize
p926
I8608
sVhttpVersion
p927
VHTTP/1.1
p928
ssa(dp929
Vcomment
p930
g4
sVserverIPAddress
p931
V216.58.216.195
p932
sVpageref
p933
VGolden State Warriors
p934
sVstartedDateTime
p935
V2017-04-16T08:31:14.869-05:00
p936
sVcache
p937
(dp938
sVrequest
p939
(dp940
Vcomment
p941
g4
sVcookies
p942
(lp943
sVurl
p944
Vhttps://ssl.gstatic.com/onebox/media/sports/logos/XD2v321N_-vk7paF53TkAg_96x96.png
p945
sVqueryString
p946
(lp947
sVheaders
p948
(lp949
sVheadersSize
p950
I397
sVbodySize
p951
I0
sVmethod
p952
VGET
p953
sVhttpVersion
p954
VHTTP/1.1
p955
ssVtimings
p956
(dp957
Vcomment
p958
g4
sVreceive
p959
I0
sVsend
p960
I0
sVssl
p961
I176
sVconnect
p962
I205
sVdns
p963
I38
sVwait
p964
I23
sVblocked
p965
I0
ssVtime
p966
I268
sVresponse
p967
(dp968
Vstatus
p969
I200
sVcomment
p970
g4
sVcookies
p971
(lp972
sVstatusText
p973
VOK
p974
sVcontent
p975
(dp976
VmimeType
p977
Vimage/png
p978
sVcomment
p979
g4
sVsize
p980
I0
ssVheaders
p981
(lp982
sVheadersSize
p983
I424
sVredirectURL
p984
g4
sVbodySize
p985
I9648
sVhttpVersion
p986
VHTTP/1.1
p987
ssa(dp988
Vcomment
p989
g4
sVserverIPAddress
p990
V216.58.216.195
p991
sVpageref
p992
VGolden State Warriors
p993
sVstartedDateTime
p994
V2017-04-16T08:31:14.869-05:00
p995
sVcache
p996
(dp997
sVrequest
p998
(dp999
Vcomment
p1000
g4
sVcookies
p1001
(lp1002
sVurl
p1003
Vhttps://ssl.gstatic.com/onebox/media/sports/logos/_bgagBCd6ieOIt3INWRN_w_48x48.png
p1004
sVqueryString
p1005
(lp1006
sVheaders
p1007
(lp1008
sVheadersSize
p1009
I397
sVbodySize
p1010
I0
sVmethod
p1011
VGET
p1012
sVhttpVersion
p1013
VHTTP/1.1
p1014
ssVtimings
p1015
(dp1016
Vcomment
p1017
g4
sVreceive
p1018
I0
sVsend
p1019
I0
sVssl
p1020
I176
sVconnect
p1021
I207
sVdns
p1022
I37
sVwait
p1023
I23
sVblocked
p1024
I0
ssVtime
p1025
I269
sVresponse
p1026
(dp1027
Vstatus
p1028
I200
sVcomment
p1029
g4
sVcookies
p1030
(lp1031
sVstatusText
p1032
VOK
p1033
sVcontent
p1034
(dp1035
VmimeType
p1036
Vimage/png
p1037
sVcomment
p1038
g4
sVsize
p1039
I0
ssVheaders
p1040
(lp1041
sVheadersSize
p1042
I424
sVredirectURL
p1043
g4
sVbodySize
p1044
I3172
sVhttpVersion
p1045
VHTTP/1.1
p1046
ssa(dp1047
Vcomment
p1048
g4
sVserverIPAddress
p1049
V216.58.216.195
p1050
sVpageref
p1051
VGolden State Warriors
p1052
sVstartedDateTime
p1053
V2017-04-16T08:31:14.871-05:00
p1054
sVcache
p1055
(dp1056
sVrequest
p1057
(dp1058
Vcomment
p1059
g4
sVcookies
p1060
(lp1061
sVurl
p1062
Vhttps://ssl.gstatic.com/onebox/media/sports/logos/XD2v321N_-vk7paF53TkAg_48x48.png
p1063
sVqueryString
p1064
(lp1065
sVheaders
p1066
(lp1067
sVheadersSize
p1068
I397
sVbodySize
p1069
I0
sVmethod
p1070
VGET
p1071
sVhttpVersion
p1072
VHTTP/1.1
p1073
ssVtimings
p1074
(dp1075
Vcomment
p1076
g4
sVreceive
p1077
I1
sVsend
p1078
I0
sVssl
p1079
I195
sVconnect
p1080
I213
sVdns
p1081
I42
sVwait
p1082
I24
sVblocked
p1083
I0
ssVtime
p1084
I281
sVresponse
p1085
(dp1086
Vstatus
p1087
I200
sVcomment
p1088
g4
sVcookies
p1089
(lp1090
sVstatusText
p1091
VOK
p1092
sVcontent
p1093
(dp1094
VmimeType
p1095
Vimage/png
p1096
sVcomment
p1097
g4
sVsize
p1098
I0
ssVheaders
p1099
(lp1100
sVheadersSize
p1101
I424
sVredirectURL
p1102
g4
sVbodySize
p1103
I3921
sVhttpVersion
p1104
VHTTP/1.1
p1105
ssa(dp1106
Vcomment
p1107
g4
sVserverIPAddress
p1108
V172.217.6.3
p1109
sVpageref
p1110
VGolden State Warriors
p1111
sVstartedDateTime
p1112
V2017-04-16T08:31:15.717-05:00
p1113
sVcache
p1114
(dp1115
sVrequest
p1116
(dp1117
Vcomment
p1118
g4
sVcookies
p1119
(lp1120
sVurl
p1121
Vhttps://www.gstatic.com/kpui/social/linkedin_32x32.png
p1122
sVqueryString
p1123
(lp1124
sVheaders
p1125
(lp1126
sVheadersSize
p1127
I369
sVbodySize
p1128
I0
sVmethod
p1129
VGET
p1130
sVhttpVersion
p1131
VHTTP/1.1
p1132
ssVtimings
p1133
(dp1134
Vcomment
p1135
g4
sVreceive
p1136
I0
sVsend
p1137
I0
sVssl
p1138
I428
sVconnect
p1139
I450
sVdns
p1140
I36
sVwait
p1141
I16
sVblocked
p1142
I0
ssVtime
p1143
I502
sVresponse
p1144
(dp1145
Vstatus
p1146
I200
sVcomment
p1147
g4
sVcookies
p1148
(lp1149
sVstatusText
p1150
VOK
p1151
sVcontent
p1152
(dp1153
VmimeType
p1154
Vimage/png
p1155
sVcomment
p1156
g4
sVsize
p1157
I0
ssVheaders
p1158
(lp1159
sVheadersSize
p1160
I394
sVredirectURL
p1161
g4
sVbodySize
p1162
I751
sVhttpVersion
p1163
VHTTP/1.1
p1164
ssa(dp1165
Vcomment
p1166
g4
sVserverIPAddress
p1167
V216.58.216.196
p1168
sVpageref
p1169
VGolden State Warriors
p1170
sVstartedDateTime
p1171
V2017-04-16T08:31:15.806-05:00
p1172
sVcache
p1173
(dp1174
sVrequest
p1175
(dp1176
Vcomment
p1177
g4
sVcookies
p1178
(lp1179
sVurl
p1180
Vhttps://www.google.com/async/irc?vet=10ahUKEwj0s8GBi6nTAhVp4oMKHRGwBigQo0EIhwM..i&ved=0ahUKEwj0s8GBi6nTAhVp4oMKHRGwBigQo0EIhwM&ei=IHLzWPSjHunEjwSR4JrAAg&yv=2&async=iu:1,ved:0ahUKEwj0s8GBi6nTAhVp4oMKHRGwBigQo0EIhwM,_id:irc_async,_pms:qs
p1181
sVqueryString
p1182
(lp1183
(dp1184
Vname
p1185
Vvet
p1186
sVvalue
p1187
V10ahUKEwj0s8GBi6nTAhVp4oMKHRGwBigQo0EIhwM..i
p1188
sa(dp1189
Vname
p1190
Vved
p1191
sVvalue
p1192
V0ahUKEwj0s8GBi6nTAhVp4oMKHRGwBigQo0EIhwM
p1193
sa(dp1194
Vname
p1195
Vei
p1196
sVvalue
p1197
VIHLzWPSjHunEjwSR4JrAAg
p1198
sa(dp1199
Vname
p1200
Vyv
p1201
sVvalue
p1202
g64
sa(dp1203
Vname
p1204
Vasync
p1205
sVvalue
p1206
Viu:1,ved:0ahUKEwj0s8GBi6nTAhVp4oMKHRGwBigQo0EIhwM,_id:irc_async,_pms:qs
p1207
sasVheaders
p1208
(lp1209
sVheadersSize
p1210
I752
sVbodySize
p1211
I0
sVmethod
p1212
VGET
p1213
sVhttpVersion
p1214
VHTTP/1.1
p1215
ssVtimings
p1216
(dp1217
Vcomment
p1218
g4
sVreceive
p1219
I5
sVsend
p1220
I0
sVssl
p1221
I-1
sVconnect
p1222
I-1
sVdns
p1223
I-1
sVwait
p1224
I47
sVblocked
p1225
I-1
ssVtime
p1226
I53
sVresponse
p1227
(dp1228
Vstatus
p1229
I200
sVcomment
p1230
g4
sVcookies
p1231
(lp1232
sVstatusText
p1233
VOK
p1234
sVcontent
p1235
(dp1236
VmimeType
p1237
Vtext/html; charset=UTF-8
p1238
sVcomment
p1239
g4
sVsize
p1240
I0
ssVheaders
p1241
(lp1242
sVheadersSize
p1243
I383
sVredirectURL
p1244
g4
sVbodySize
p1245
I7790
sVhttpVersion
p1246
VHTTP/1.1
p1247
ssa(dp1248
Vcomment
p1249
g4
sVserverIPAddress
p1250
V216.58.216.196
p1251
sVpageref
p1252
VGolden State Warriors
p1253
sVstartedDateTime
p1254
V2017-04-16T08:31:15.917-05:00
p1255
sVcache
p1256
(dp1257
sVrequest
p1258
(dp1259
Vcomment
p1260
g4
sVcookies
p1261
(lp1262
sVurl
p1263
Vhttps://www.google.com/async/ampfp?vet=10ahUKEwj0s8GBi6nTAhVp4oMKHRGwBigQtZoBCIUD..i&ei=IHLzWPSjHunEjwSR4JrAAg&yv=2&async=_id:ampfp-async,_pms:qs
p1264
sVqueryString
p1265
(lp1266
(dp1267
Vname
p1268
Vvet
p1269
sVvalue
p1270
V10ahUKEwj0s8GBi6nTAhVp4oMKHRGwBigQtZoBCIUD..i
p1271
sa(dp1272
Vname
p1273
Vei
p1274
sVvalue
p1275
VIHLzWPSjHunEjwSR4JrAAg
p1276
sa(dp1277
Vname
p1278
Vyv
p1279
sVvalue
p1280
g64
sa(dp1281
Vname
p1282
Vasync
p1283
sVvalue
p1284
V_id:ampfp-async,_pms:qs
p1285
sasVheaders
p1286
(lp1287
sVheadersSize
p1288
I662
sVbodySize
p1289
I0
sVmethod
p1290
VGET
p1291
sVhttpVersion
p1292
VHTTP/1.1
p1293
ssVtimings
p1294
(dp1295
Vcomment
p1296
g4
sVreceive
p1297
I1
sVsend
p1298
I0
sVssl
p1299
I-1
sVconnect
p1300
I-1
sVdns
p1301
I-1
sVwait
p1302
I86
sVblocked
p1303
I-1
ssVtime
p1304
I88
sVresponse
p1305
(dp1306
Vstatus
p1307
I200
sVcomment
p1308
g4
sVcookies
p1309
(lp1310
sVstatusText
p1311
VOK
p1312
sVcontent
p1313
(dp1314
VmimeType
p1315
Vtext/html; charset=UTF-8
p1316
sVcomment
p1317
g4
sVsize
p1318
I0
ssVheaders
p1319
(lp1320
sVheadersSize
p1321
I383
sVredirectURL
p1322
g4
sVbodySize
p1323
I4526
sVhttpVersion
p1324
VHTTP/1.1
p1325
ssa(dp1326
Vcomment
p1327
g4
sVserverIPAddress
p1328
V216.58.216.193
p1329
sVpageref
p1330
VGolden State Warriors
p1331
sVstartedDateTime
p1332
V2017-04-16T08:31:15.918-05:00
p1333
sVcache
p1334
(dp1335
sVrequest
p1336
(dp1337
Vcomment
p1338
g4
sVcookies
p1339
(lp1340
sVurl
p1341
Vhttps://cdn.ampproject.org/preconnect.gif?0.9752935105228723
p1342
sVqueryString
p1343
(lp1344
(dp1345
Vname
p1346
V0.9752935105228723
p1347
sVvalue
p1348
g4
sasVheaders
p1349
(lp1350
sVheadersSize
p1351
I375
sVbodySize
p1352
I0
sVmethod
p1353
VGET
p1354
sVhttpVersion
p1355
VHTTP/1.1
p1356
ssVtimings
p1357
(dp1358
Vcomment
p1359
g4
sVreceive
p1360
I0
sVsend
p1361
I0
sVssl
p1362
I-1
sVconnect
p1363
I-1
sVdns
p1364
I-1
sVwait
p1365
I87
sVblocked
p1366
I-1
ssVtime
p1367
I87
sVresponse
p1368
(dp1369
Vstatus
p1370
I200
sVcomment
p1371
g4
sVcookies
p1372
(lp1373
sVstatusText
p1374
VOK
p1375
sVcontent
p1376
(dp1377
VmimeType
p1378
Vimage/gif
p1379
sVcomment
p1380
g4
sVsize
p1381
I0
ssVheaders
p1382
(lp1383
sVheadersSize
p1384
I826
sVredirectURL
p1385
g4
sVbodySize
p1386
I37
sVhttpVersion
p1387
VHTTP/1.1
p1388
ssa(dp1389
Vcomment
p1390
g4
sVserverIPAddress
p1391
V216.58.216.196
p1392
sVpageref
p1393
VGolden State Warriors
p1394
sVstartedDateTime
p1395
V2017-04-16T08:31:16.194-05:00
p1396
sVcache
p1397
(dp1398
sVrequest
p1399
(dp1400
Vcomment
p1401
g4
sVcookies
p1402
(lp1403
sVurl
p1404
Vhttps://www.google.com/async/log_amp_item_set?vet=10ahUKEwiUuteCi6nTAhUI04MKHQYYDWsQooQBCAE..i&ei=IHLzWPSjHunEjwSR4JrAAg&yv=2&async=num_items:10,_fmt:jspb
p1405
sVqueryString
p1406
(lp1407
(dp1408
Vname
p1409
Vvet
p1410
sVvalue
p1411
V10ahUKEwiUuteCi6nTAhUI04MKHQYYDWsQooQBCAE..i
p1412
sa(dp1413
Vname
p1414
Vei
p1415
sVvalue
p1416
VIHLzWPSjHunEjwSR4JrAAg
p1417
sa(dp1418
Vname
p1419
Vyv
p1420
sVvalue
p1421
g64
sa(dp1422
Vname
p1423
Vasync
p1424
sVvalue
p1425
Vnum_items:10,_fmt:jspb
p1426
sasVheaders
p1427
(lp1428
sVheadersSize
p1429
I671
sVbodySize
p1430
I0
sVmethod
p1431
VGET
p1432
sVhttpVersion
p1433
VHTTP/1.1
p1434
ssVtimings
p1435
(dp1436
Vcomment
p1437
g4
sVreceive
p1438
I0
sVsend
p1439
I0
sVssl
p1440
I-1
sVconnect
p1441
I-1
sVdns
p1442
I-1
sVwait
p1443
I37
sVblocked
p1444
I-1
ssVtime
p1445
I37
sVresponse
p1446
(dp1447
Vstatus
p1448
I200
sVcomment
p1449
g4
sVcookies
p1450
(lp1451
sVstatusText
p1452
VOK
p1453
sVcontent
p1454
(dp1455
VmimeType
p1456
Vapplication/json; charset=UTF-8
p1457
sVcomment
p1458
g4
sVsize
p1459
I0
ssVheaders
p1460
(lp1461
sVheadersSize
p1462
I417
sVredirectURL
p1463
g4
sVbodySize
p1464
I183
sVhttpVersion
p1465
VHTTP/1.1
p1466
ssa(dp1467
Vcomment
p1468
g4
sVserverIPAddress
p1469
V216.58.216.193
p1470
sVpageref
p1471
VGolden State Warriors
p1472
sVstartedDateTime
p1473
V2017-04-16T08:31:16.390-05:00
p1474
sVcache
p1475
(dp1476
sVrequest
p1477
(dp1478
Vcomment
p1479
g4
sVcookies
p1480
(lp1481
sVurl
p1482
Vhttps://www-mercurynews-com.cdn.ampproject.org/v/www.mercurynews.com/2017/04/16/warriors-today-game-1-vs-the-portland-trail-blazers/amp/?amp_js_v=9
p1483
sVqueryString
p1484
(lp1485
(dp1486
Vname
p1487
Vamp_js_v
p1488
sVvalue
p1489
V9
p1490
sasVheaders
p1491
(lp1492
sVheadersSize
p1493
I552
sVbodySize
p1494
I0
sVmethod
p1495
VGET
p1496
sVhttpVersion
p1497
VHTTP/1.1
p1498
ssVtimings
p1499
(dp1500
Vcomment
p1501
g4
sVreceive
p1502
I1
sVsend
p1503
I0
sVssl
p1504
I133
sVconnect
p1505
I147
sVdns
p1506
I37
sVwait
p1507
I42
sVblocked
p1508
I0
ssVtime
p1509
I228
sVresponse
p1510
(dp1511
Vstatus
p1512
I200
sVcomment
p1513
g4
sVcookies
p1514
(lp1515
sVstatusText
p1516
VOK
p1517
sVcontent
p1518
(dp1519
VmimeType
p1520
Vtext/html
p1521
sVcomment
p1522
g4
sVsize
p1523
I0
ssVheaders
p1524
(lp1525
sVheadersSize
p1526
I859
sVredirectURL
p1527
g4
sVbodySize
p1528
I6150
sVhttpVersion
p1529
VHTTP/1.1
p1530
ssa(dp1531
Vcomment
p1532
g4
sVserverIPAddress
p1533
V172.217.0.10
p1534
sVpageref
p1535
VGolden State Warriors
p1536
sVstartedDateTime
p1537
V2017-04-16T08:31:16.487-05:00
p1538
sVcache
p1539
(dp1540
sVrequest
p1541
(dp1542
Vcomment
p1543
g4
sVcookies
p1544
(lp1545
sVurl
p1546
Vhttps://fonts.googleapis.com/css?family=PT+Serif%3A400%2C400italic%2C700%2C700italic%7CPT+Sans%3A400%2C400italic%2C700%2C700italic&ver=4.7
p1547
sVqueryString
p1548
(lp1549
(dp1550
Vname
p1551
Vfamily
p1552
sVvalue
p1553
VPT Serif:400,400italic,700,700italic|PT Sans:400,400italic,700,700italic
p1554
sa(dp1555
Vname
p1556
Vver
p1557
sVvalue
p1558
V4.7
p1559
sasVheaders
p1560
(lp1561
sVheadersSize
p1562
I592
sVbodySize
p1563
I0
sVmethod
p1564
VGET
p1565
sVhttpVersion
p1566
VHTTP/1.1
p1567
ssVtimings
p1568
(dp1569
Vcomment
p1570
g4
sVreceive
p1571
I0
sVsend
p1572
I0
sVssl
p1573
I22
sVconnect
p1574
I38
sVdns
p1575
I4
sVwait
p1576
I31
sVblocked
p1577
I0
ssVtime
p1578
I74
sVresponse
p1579
(dp1580
Vstatus
p1581
I200
sVcomment
p1582
g4
sVcookies
p1583
(lp1584
sVstatusText
p1585
VOK
p1586
sVcontent
p1587
(dp1588
VmimeType
p1589
Vtext/css; charset=utf-8
p1590
sVcomment
p1591
g4
sVsize
p1592
I0
ssVheaders
p1593
(lp1594
sVheadersSize
p1595
I405
sVredirectURL
p1596
g4
sVbodySize
p1597
I1320
sVhttpVersion
p1598
VHTTP/1.1
p1599
ssa(dp1600
Vcomment
p1601
g4
sVserverIPAddress
p1602
V216.58.216.193
p1603
sVpageref
p1604
VGolden State Warriors
p1605
sVstartedDateTime
p1606
V2017-04-16T08:31:16.520-05:00
p1607
sVcache
p1608
(dp1609
sVrequest
p1610
(dp1611
Vcomment
p1612
g4
sVcookies
p1613
(lp1614
sVurl
p1615
Vhttps://www-mercurynews-com.cdn.ampproject.org/i/www.mercurynews.com/wp-content/plugins/amp-wp/assets/images/placeholder-icon.png
p1616
sVqueryString
p1617
(lp1618
sVheaders
p1619
(lp1620
sVheadersSize
p1621
I568
sVbodySize
p1622
I0
sVmethod
p1623
VGET
p1624
sVhttpVersion
p1625
VHTTP/1.1
p1626
ssVtimings
p1627
(dp1628
Vcomment
p1629
g4
sVreceive
p1630
I0
sVsend
p1631
I0
sVssl
p1632
I-1
sVconnect
p1633
I-1
sVdns
p1634
I-1
sVwait
p1635
I25
sVblocked
p1636
I-1
ssVtime
p1637
I25
sVresponse
p1638
(dp1639
Vstatus
p1640
I200
sVcomment
p1641
g4
sVcookies
p1642
(lp1643
sVstatusText
p1644
VOK
p1645
sVcontent
p1646
(dp1647
VmimeType
p1648
Vimage/png
p1649
sVcomment
p1650
g4
sVsize
p1651
I0
ssVheaders
p1652
(lp1653
sVheadersSize
p1654
I823
sVredirectURL
p1655
g4
sVbodySize
p1656
I243
sVhttpVersion
p1657
VHTTP/1.1
p1658
ssa(dp1659
Vcomment
p1660
g4
sVserverIPAddress
p1661
V216.58.216.193
p1662
sVpageref
p1663
VGolden State Warriors
p1664
sVstartedDateTime
p1665
V2017-04-16T08:31:16.561-05:00
p1666
sVcache
p1667
(dp1668
sVrequest
p1669
(dp1670
Vcomment
p1671
g4
sVcookies
p1672
(lp1673
sVurl
p1674
Vhttps://www-mercurynews-com.cdn.ampproject.org/ii/w68/www.mercurynews.com/wp-content/uploads/2016/10/32x32-mercury-news-white.png?w=32
p1675
sVqueryString
p1676
(lp1677
(dp1678
Vname
p1679
Vw
p1680
sVvalue
p1681
V32
p1682
sasVheaders
p1683
(lp1684
sVheadersSize
p1685
I573
sVbodySize
p1686
I0
sVmethod
p1687
VGET
p1688
sVhttpVersion
p1689
VHTTP/1.1
p1690
ssVtimings
p1691
(dp1692
Vcomment
p1693
g4
sVreceive
p1694
I0
sVsend
p1695
I0
sVssl
p1696
I-1
sVconnect
p1697
I-1
sVdns
p1698
I-1
sVwait
p1699
I23
sVblocked
p1700
I-1
ssVtime
p1701
I23
sVresponse
p1702
(dp1703
Vstatus
p1704
I200
sVcomment
p1705
g4
sVcookies
p1706
(lp1707
sVstatusText
p1708
VOK
p1709
sVcontent
p1710
(dp1711
VmimeType
p1712
Vimage/png
p1713
sVcomment
p1714
g4
sVsize
p1715
I0
ssVheaders
p1716
(lp1717
sVheadersSize
p1718
I822
sVredirectURL
p1719
g4
sVbodySize
p1720
I341
sVhttpVersion
p1721
VHTTP/1.1
p1722
ssa(dp1723
Vcomment
p1724
g4
sVserverIPAddress
p1725
V216.58.216.193
p1726
sVpageref
p1727
VGolden State Warriors
p1728
sVstartedDateTime
p1729
V2017-04-16T08:31:16.607-05:00
p1730
sVcache
p1731
(dp1732
sVrequest
p1733
(dp1734
Vcomment
p1735
g4
sVcookies
p1736
(lp1737
sVurl
p1738
Vhttps://www-mercurynews-com.cdn.ampproject.org/ii/w1200/www.mercurynews.com/wp-content/uploads/2016/12/sjm-warriors-1218-15.jpg?w=978
p1739
sVqueryString
p1740
(lp1741
(dp1742
Vname
p1743
g1680
sVvalue
p1744
V978
p1745
sasVheaders
p1746
(lp1747
sVheadersSize
p1748
I572
sVbodySize
p1749
I0
sVmethod
p1750
VGET
p1751
sVhttpVersion
p1752
VHTTP/1.1
p1753
ssVtimings
p1754
(dp1755
Vcomment
p1756
g4
sVreceive
p1757
I37
sVsend
p1758
I0
sVssl
p1759
I22
sVconnect
p1760
I39
sVdns
p1761
I0
sVwait
p1762
I43
sVblocked
p1763
I0
ssVtime
p1764
I119
sVresponse
p1765
(dp1766
Vstatus
p1767
I200
sVcomment
p1768
g4
sVcookies
p1769
(lp1770
sVstatusText
p1771
VOK
p1772
sVcontent
p1773
(dp1774
VmimeType
p1775
Vimage/jpeg
p1776
sVcomment
p1777
g4
sVsize
p1778
I0
ssVheaders
p1779
(lp1780
sVheadersSize
p1781
I849
sVredirectURL
p1782
g4
sVbodySize
p1783
I87943
sVhttpVersion
p1784
VHTTP/1.1
p1785
ssa(dp1786
Vcomment
p1787
g4
sVserverIPAddress
p1788
V216.58.216.196
p1789
sVpageref
p1790
VGolden State Warriors
p1791
sVstartedDateTime
p1792
V2017-04-16T08:31:16.723-05:00
p1793
sVcache
p1794
(dp1795
sVrequest
p1796
(dp1797
Vcomment
p1798
g4
sVcookies
p1799
(lp1800
sVurl
p1801
Vhttps://www.google.com/gen_204?s=web&atyp=csi&ei=IHLzWPSjHunEjwSR4JrAAg&imc=92&imn=92&imp=26&adh=&xjs=init.50.16.sb_mob.38.async.3.dvl.3.mbsf.2.lr.2&ima=17&rt=prt.1204,iml.1383,xjsls.1205,dcl.1339,qiml.1542,xjses.1435,xjsee.1619,xjs.1619,ol.3073,aft.1383,wsrt.117,cst.0,dnst.0,rqst.1174,rspt.1072,rqstt.2,unt.2,cstt.2,dit.1345
p1802
sVqueryString
p1803
(lp1804
(dp1805
Vname
p1806
g57
sVvalue
p1807
Vweb
p1808
sa(dp1809
Vname
p1810
Vatyp
p1811
sVvalue
p1812
Vcsi
p1813
sa(dp1814
Vname
p1815
Vei
p1816
sVvalue
p1817
VIHLzWPSjHunEjwSR4JrAAg
p1818
sa(dp1819
Vname
p1820
Vimc
p1821
sVvalue
p1822
V92
p1823
sa(dp1824
Vname
p1825
Vimn
p1826
sVvalue
p1827
V92
p1828
sa(dp1829
Vname
p1830
Vimp
p1831
sVvalue
p1832
V26
p1833
sa(dp1834
Vname
p1835
Vadh
p1836
sVvalue
p1837
g4
sa(dp1838
Vname
p1839
Vxjs
p1840
sVvalue
p1841
Vinit.50.16.sb_mob.38.async.3.dvl.3.mbsf.2.lr.2
p1842
sa(dp1843
Vname
p1844
Vima
p1845
sVvalue
p1846
V17
p1847
sa(dp1848
Vname
p1849
Vrt
p1850
sVvalue
p1851
Vprt.1204,iml.1383,xjsls.1205,dcl.1339,qiml.1542,xjses.1435,xjsee.1619,xjs.1619,ol.3073,aft.1383,wsrt.117,cst.0,dnst.0,rqst.1174,rspt.1072,rqstt.2,unt.2,cstt.2,dit.1345
p1852
sasVheaders
p1853
(lp1854
sVheadersSize
p1855
I843
sVbodySize
p1856
I0
sVmethod
p1857
VGET
p1858
sVhttpVersion
p1859
VHTTP/1.1
p1860
ssVtimings
p1861
(dp1862
Vcomment
p1863
g4
sVreceive
p1864
I0
sVsend
p1865
I0
sVssl
p1866
I-1
sVconnect
p1867
I-1
sVdns
p1868
I-1
sVwait
p1869
I32
sVblocked
p1870
I-1
ssVtime
p1871
I32
sVresponse
p1872
(dp1873
Vstatus
p1874
I204
sVcomment
p1875
g4
sVcookies
p1876
(lp1877
sVstatusText
p1878
VNo Content
p1879
sVcontent
p1880
(dp1881
VmimeType
p1882
Vtext/html; charset=UTF-8
p1883
sVcomment
p1884
g4
sVsize
p1885
I0
ssVheaders
p1886
(lp1887
sVheadersSize
p1888
I248
sVredirectURL
p1889
g4
sVbodySize
p1890
I0
sVhttpVersion
p1891
VHTTP/1.1
p1892
ssa(dp1893
Vcomment
p1894
g4
sVserverIPAddress
p1895
V216.58.216.196
p1896
sVpageref
p1897
VGolden State Warriors
p1898
sVstartedDateTime
p1899
V2017-04-16T08:31:17.866-05:00
p1900
sVcache
p1901
(dp1902
sVrequest
p1903
(dp1904
Vcomment
p1905
g4
sVcookies
p1906
(lp1907
sVurl
p1908
Vhttps://www.google.com/gen_204?atyp=i&ct=slh&cad=&ei=DHLzWIXOC6vRjwTOoKbQBg&m=V&t=C&s=1&v=2&pv=0.4607663915141357&me=1:1492349456778,x:1,V,0,0,1280,944:0,N,1,DHLzWIXOC6vRjwTOoKbQBg:0,R,1,24,8,155,1249,647:0,R,1,25,8,155,1249,647:0,R,1,28,8,168,1249,40:0,R,1,41,8,220,1249,178:0,R,1,44,0,236,1265,197:0,R,1,84,8,415,1249,20:0,R,1,85,24,415,1217,20:0,R,1,91,8,451,1249,20:0,R,1,93,8,479,1249,20:0,R,1,151,8,812,1249,201:0,R,1,152,24,812,1217,190:3,B,3827:16103,e,U&zx=1492349477864
p1909
sVqueryString
p1910
(lp1911
(dp1912
Vname
p1913
Vatyp
p1914
sVvalue
p1915
g30
sa(dp1916
Vname
p1917
Vct
p1918
sVvalue
p1919
Vslh
p1920
sa(dp1921
Vname
p1922
Vcad
p1923
sVvalue
p1924
g4
sa(dp1925
Vname
p1926
Vei
p1927
sVvalue
p1928
VDHLzWIXOC6vRjwTOoKbQBg
p1929
sa(dp1930
Vname
p1931
g47
sVvalue
p1932
g49
sa(dp1933
Vname
p1934
g52
sVvalue
p1935
g54
sa(dp1936
Vname
p1937
g57
sVvalue
p1938
g59
sa(dp1939
Vname
p1940
g62
sVvalue
p1941
g64
sa(dp1942
Vname
p1943
Vpv
p1944
sVvalue
p1945
V0.4607663915141357
p1946
sa(dp1947
Vname
p1948
Vme
p1949
sVvalue
p1950
V1:1492349456778,x:1,V,0,0,1280,944:0,N,1,DHLzWIXOC6vRjwTOoKbQBg:0,R,1,24,8,155,1249,647:0,R,1,25,8,155,1249,647:0,R,1,28,8,168,1249,40:0,R,1,41,8,220,1249,178:0,R,1,44,0,236,1265,197:0,R,1,84,8,415,1249,20:0,R,1,85,24,415,1217,20:0,R,1,91,8,451,1249,20:0,R,1,93,8,479,1249,20:0,R,1,151,8,812,1249,201:0,R,1,152,24,812,1217,190:3,B,3827:16103,e,U
p1951
sa(dp1952
Vname
p1953
Vzx
p1954
sVvalue
p1955
V1492349477864
p1956
sasVheaders
p1957
(lp1958
sVheadersSize
p1959
I996
sVbodySize
p1960
I0
sVmethod
p1961
VGET
p1962
sVhttpVersion
p1963
VHTTP/1.1
p1964
ssVtimings
p1965
(dp1966
Vcomment
p1967
g4
sVreceive
p1968
I0
sVsend
p1969
I0
sVssl
p1970
I-1
sVconnect
p1971
I-1
sVdns
p1972
I-1
sVwait
p1973
I28
sVblocked
p1974
I-1
ssVtime
p1975
I28
sVresponse
p1976
(dp1977
Vstatus
p1978
I204
sVcomment
p1979
g4
sVcookies
p1980
(lp1981
sVstatusText
p1982
VNo Content
p1983
sVcontent
p1984
(dp1985
VmimeType
p1986
Vtext/html; charset=UTF-8
p1987
sVcomment
p1988
g4
sVsize
p1989
I0
ssVheaders
p1990
(lp1991
sVheadersSize
p1992
I248
sVredirectURL
p1993
g4
sVbodySize
p1994
I0
sVhttpVersion
p1995
VHTTP/1.1
p1996
ssasVversion
p1997
V1.2
p1998
sVpages
p1999
(lp2000
(dp2001
VpageTimings
p2002
(dp2003
Vcomment
p2004
g4
ssVcomment
p2005
g4
sVtitle
p2006
VGolden State Warriors
p2007
sVid
p2008
VGolden State Warriors
p2009
sVstartedDateTime
p2010
V2017-04-16T08:31:12.879-05:00
p2011
sasVcreator
p2012
(dp2013
Vcomment
p2014
g4
sVversion
p2015
V2.1.4
p2016
sVname
p2017
VBrowserMob Proxy
p2018
sss.