(dp0
Vlog
p1
(dp2
Vcomment
p3
V
p4
sVentries
p5
(lp6
(dp7
Vcomment
p8
g4
sVserverIPAddress
p9
V172.217.6.4
p10
sVpageref
p11
VMe Before You
p12
sVstartedDateTime
p13
V2017-04-16T08:41:11.908-05:00
p14
sVcache
p15
(dp16
sVrequest
p17
(dp18
Vcomment
p19
g4
sVcookies
p20
(lp21
sVurl
p22
Vhttps://www.google.com/gen_204?atyp=i&ct=slh&cad=&ei=ZXTzWNaAOqfPjwSm7q2QAw&m=V&t=C&s=1&v=2&pv=0.5761731472212153&me=1:1492350058133,x:2,V,0,0,1280,944:0,N,1,ZXTzWNaAOqfPjwSm7q2QAw:0,R,1,25,24,155,1217,189:0,R,1,33,24,365,1217,135:0,R,1,40,8,521,1249,251:0,R,1,51,24,782,1217,114:0,R,1,53,24,917,1217,94:3,B,3542:13769,e,U&zx=1492350071907
p23
sVqueryString
p24
(lp25
(dp26
Vname
p27
Vatyp
p28
sVvalue
p29
Vi
p30
sa(dp31
Vname
p32
Vct
p33
sVvalue
p34
Vslh
p35
sa(dp36
Vname
p37
Vcad
p38
sVvalue
p39
g4
sa(dp40
Vname
p41
Vei
p42
sVvalue
p43
VZXTzWNaAOqfPjwSm7q2QAw
p44
sa(dp45
Vname
p46
Vm
p47
sVvalue
p48
VV
p49
sa(dp50
Vname
p51
Vt
p52
sVvalue
p53
VC
p54
sa(dp55
Vname
p56
Vs
p57
sVvalue
p58
V1
p59
sa(dp60
Vname
p61
Vv
p62
sVvalue
p63
V2
p64
sa(dp65
Vname
p66
Vpv
p67
sVvalue
p68
V0.5761731472212153
p69
sa(dp70
Vname
p71
Vme
p72
sVvalue
p73
V1:1492350058133,x:2,V,0,0,1280,944:0,N,1,ZXTzWNaAOqfPjwSm7q2QAw:0,R,1,25,24,155,1217,189:0,R,1,33,24,365,1217,135:0,R,1,40,8,521,1249,251:0,R,1,51,24,782,1217,114:0,R,1,53,24,917,1217,94:3,B,3542:13769,e,U
p74
sa(dp75
Vname
p76
Vzx
p77
sVvalue
p78
V1492350071907
p79
sasVheaders
p80
(lp81
sVheadersSize
p82
I856
sVbodySize
p83
I0
sVmethod
p84
VGET
p85
sVhttpVersion
p86
VHTTP/1.1
p87
ssVtimings
p88
(dp89
Vcomment
p90
g4
sVreceive
p91
I0
sVsend
p92
I0
sVssl
p93
I-1
sVconnect
p94
I-1
sVdns
p95
I-1
sVwait
p96
I0
sVblocked
p97
I-1
ssVtime
p98
I0
sVresponse
p99
(dp100
Vstatus
p101
I0
sVcomment
p102
g4
sVcookies
p103
(lp104
sV_error
p105
VNo response received
p106
sVstatusText
p107
g4
sVcontent
p108
(dp109
VmimeType
p110
g4
sVcomment
p111
g4
sVsize
p112
I0
ssVheaders
p113
(lp114
sVheadersSize
p115
I-1
sVredirectURL
p116
g4
sVbodySize
p117
I-1
sVhttpVersion
p118
Vunknown
p119
ssa(dp120
Vcomment
p121
g4
sVserverIPAddress
p122
V172.217.6.4
p123
sVpageref
p124
VMe Before You
p125
sVstartedDateTime
p126
V2017-04-16T08:41:11.908-05:00
p127
sVcache
p128
(dp129
sVrequest
p130
(dp131
Vcomment
p132
g4
sVcookies
p133
(lp134
sVurl
p135
Vhttps://www.google.com/gen_204?atyp=i&ct=slh&cad=&ei=F3TzWP3lN4LXjwT88L3QAQ&m=V&t=C&s=1&v=2&pv=0.22630495153277785&me=1:1492349980349,x:1,V,0,0,1280,944:0,N,1,F3TzWP3lN4LXjwT88L3QAQ:0,R,1,25,8,155,1249,126:0,R,1,26,24,155,1217,115:0,R,1,32,0,291,1197,1482:0,R,1,33,0,291,1197,1480:0,R,1,53,0,291,1197,200:0,R,1,54,0,291,1197,200:0,R,1,75,0,504,1197,20:0,R,1,81,0,548,1197,20:0,R,1,95,0,648,1197,35:0,R,1,105,0,704,1197,36:0,R,1,108,0,757,1197,47:0,R,1,149,0,861,1197,86:4,B,4721:658,S,349:0,R,1,153,0,947,1197,192:0,R,1,157,24,1155,1149,161:8967,e,U&zx=1492350071907
p136
sVqueryString
p137
(lp138
(dp139
Vname
p140
Vatyp
p141
sVvalue
p142
g30
sa(dp143
Vname
p144
Vct
p145
sVvalue
p146
Vslh
p147
sa(dp148
Vname
p149
Vcad
p150
sVvalue
p151
g4
sa(dp152
Vname
p153
Vei
p154
sVvalue
p155
VF3TzWP3lN4LXjwT88L3QAQ
p156
sa(dp157
Vname
p158
g47
sVvalue
p159
g49
sa(dp160
Vname
p161
g52
sVvalue
p162
g54
sa(dp163
Vname
p164
g57
sVvalue
p165
g59
sa(dp166
Vname
p167
g62
sVvalue
p168
g64
sa(dp169
Vname
p170
Vpv
p171
sVvalue
p172
V0.22630495153277785
p173
sa(dp174
Vname
p175
Vme
p176
sVvalue
p177
V1:1492349980349,x:1,V,0,0,1280,944:0,N,1,F3TzWP3lN4LXjwT88L3QAQ:0,R,1,25,8,155,1249,126:0,R,1,26,24,155,1217,115:0,R,1,32,0,291,1197,1482:0,R,1,33,0,291,1197,1480:0,R,1,53,0,291,1197,200:0,R,1,54,0,291,1197,200:0,R,1,75,0,504,1197,20:0,R,1,81,0,548,1197,20:0,R,1,95,0,648,1197,35:0,R,1,105,0,704,1197,36:0,R,1,108,0,757,1197,47:0,R,1,149,0,861,1197,86:4,B,4721:658,S,349:0,R,1,153,0,947,1197,192:0,R,1,157,24,1155,1149,161:8967,e,U
p178
sa(dp179
Vname
p180
Vzx
p181
sVvalue
p182
V1492350071907
p183
sasVheaders
p184
(lp185
sVheadersSize
p186
I1083
sVbodySize
p187
I0
sVmethod
p188
VGET
p189
sVhttpVersion
p190
VHTTP/1.1
p191
ssVtimings
p192
(dp193
Vcomment
p194
g4
sVreceive
p195
I0
sVsend
p196
I0
sVssl
p197
I-1
sVconnect
p198
I-1
sVdns
p199
I-1
sVwait
p200
I0
sVblocked
p201
I-1
ssVtime
p202
I0
sVresponse
p203
(dp204
Vstatus
p205
I0
sVcomment
p206
g4
sVcookies
p207
(lp208
sV_error
p209
VNo response received
p210
sVstatusText
p211
g4
sVcontent
p212
(dp213
VmimeType
p214
g4
sVcomment
p215
g4
sVsize
p216
I0
ssVheaders
p217
(lp218
sVheadersSize
p219
I-1
sVredirectURL
p220
g4
sVbodySize
p221
I-1
sVhttpVersion
p222
Vunknown
p223
ssa(dp224
Vcomment
p225
g4
sVserverIPAddress
p226
V172.217.6.4
p227
sVpageref
p228
VMe Before You
p229
sVstartedDateTime
p230
V2017-04-16T08:41:11.912-05:00
p231
sVcache
p232
(dp233
sVrequest
p234
(dp235
Vcomment
p236
g4
sVcookies
p237
(lp238
sVurl
p239
Vhttp://www.google.com/
p240
sVqueryString
p241
(lp242
sVheaders
p243
(lp244
sVheadersSize
p245
I613
sVbodySize
p246
I0
sVmethod
p247
VGET
p248
sVhttpVersion
p249
VHTTP/1.1
p250
ssVtimings
p251
(dp252
Vcomment
p253
g4
sVreceive
p254
I0
sVsend
p255
I0
sVssl
p256
I-1
sVconnect
p257
I-1
sVdns
p258
I-1
sVwait
p259
I36
sVblocked
p260
I-1
ssVtime
p261
I37
sVresponse
p262
(dp263
Vstatus
p264
I302
sVcomment
p265
g4
sVcookies
p266
(lp267
sVstatusText
p268
VFound
p269
sVcontent
p270
(dp271
VmimeType
p272
Vtext/html; charset=UTF-8
p273
sVcomment
p274
g4
sVsize
p275
I0
ssVheaders
p276
(lp277
sVheadersSize
p278
I609
sVredirectURL
p279
Vhttps://www.google.com/?gws_rd=ssl
p280
sVbodySize
p281
I231
sVhttpVersion
p282
VHTTP/1.1
p283
ssa(dp284
Vcomment
p285
g4
sVserverIPAddress
p286
V172.217.6.4
p287
sVpageref
p288
VMe Before You
p289
sVstartedDateTime
p290
V2017-04-16T08:41:12.006-05:00
p291
sVcache
p292
(dp293
sVrequest
p294
(dp295
Vcomment
p296
g4
sVcookies
p297
(lp298
sVurl
p299
Vhttps://www.google.com/?gws_rd=ssl
p300
sVqueryString
p301
(lp302
(dp303
Vname
p304
Vgws_rd
p305
sVvalue
p306
Vssl
p307
sasVheaders
p308
(lp309
sVheadersSize
p310
I607
sVbodySize
p311
I0
sVmethod
p312
VGET
p313
sVhttpVersion
p314
VHTTP/1.1
p315
ssVtimings
p316
(dp317
Vcomment
p318
g4
sVreceive
p319
I20
sVsend
p320
I0
sVssl
p321
I21
sVconnect
p322
I51
sVdns
p323
I0
sVwait
p324
I106
sVblocked
p325
I0
ssVtime
p326
I179
sVresponse
p327
(dp328
Vstatus
p329
I200
sVcomment
p330
g4
sVcookies
p331
(lp332
sVstatusText
p333
VOK
p334
sVcontent
p335
(dp336
VmimeType
p337
Vtext/html; charset=UTF-8
p338
sVcomment
p339
g4
sVsize
p340
I0
ssVheaders
p341
(lp342
sVheadersSize
p343
I721
sVredirectURL
p344
g4
sVbodySize
p345
I34288
sVhttpVersion
p346
VHTTP/1.1
p347
ssa(dp348
Vcomment
p349
g4
sVserverIPAddress
p350
V172.217.6.4
p351
sVpageref
p352
VMe Before You
p353
sVstartedDateTime
p354
V2017-04-16T08:41:12.535-05:00
p355
sVcache
p356
(dp357
sVrequest
p358
(dp359
Vcomment
p360
g4
sVcookies
p361
(lp362
sVurl
p363
Vhttps://www.google.com/gen_204?s=mobilewebhp&atyp=csi&ei=d3TzWKFnyamPBJC5hMAF&imc=1&imn=1&imp=0&adh=&xjs=init.40.12.sb_mob.28.dvl.6.c.1.jsa.1.mbsf.1&ima=1&rt=xjsls.34,prt.35,iml.35,dcl.84,xjses.138,xjsee.234,xjs.234,ol.376,aft.35,wsrt.235,cst.0,dnst.0,rqst.128,rspt.130,rqstt.100,unt.45,cstt.45,dit.290
p364
sVqueryString
p365
(lp366
(dp367
Vname
p368
g57
sVvalue
p369
Vmobilewebhp
p370
sa(dp371
Vname
p372
Vatyp
p373
sVvalue
p374
Vcsi
p375
sa(dp376
Vname
p377
Vei
p378
sVvalue
p379
Vd3TzWKFnyamPBJC5hMAF
p380
sa(dp381
Vname
p382
Vimc
p383
sVvalue
p384
g59
sa(dp385
Vname
p386
Vimn
p387
sVvalue
p388
g59
sa(dp389
Vname
p390
Vimp
p391
sVvalue
p392
V0
p393
sa(dp394
Vname
p395
Vadh
p396
sVvalue
p397
g4
sa(dp398
Vname
p399
Vxjs
p400
sVvalue
p401
Vinit.40.12.sb_mob.28.dvl.6.c.1.jsa.1.mbsf.1
p402
sa(dp403
Vname
p404
Vima
p405
sVvalue
p406
g59
sa(dp407
Vname
p408
Vrt
p409
sVvalue
p410
Vxjsls.34,prt.35,iml.35,dcl.84,xjses.138,xjsee.234,xjs.234,ol.376,aft.35,wsrt.235,cst.0,dnst.0,rqst.128,rspt.130,rqstt.100,unt.45,cstt.45,dit.290
p411
sasVheaders
p412
(lp413
sVheadersSize
p414
I830
sVbodySize
p415
I0
sVmethod
p416
VGET
p417
sVhttpVersion
p418
VHTTP/1.1
p419
ssVtimings
p420
(dp421
Vcomment
p422
g4
sVreceive
p423
I0
sVsend
p424
I2
sVssl
p425
I-1
sVconnect
p426
I-1
sVdns
p427
I-1
sVwait
p428
I35
sVblocked
p429
I-1
ssVtime
p430
I38
sVresponse
p431
(dp432
Vstatus
p433
I204
sVcomment
p434
g4
sVcookies
p435
(lp436
sVstatusText
p437
VNo Content
p438
sVcontent
p439
(dp440
VmimeType
p441
Vtext/html; charset=UTF-8
p442
sVcomment
p443
g4
sVsize
p444
I0
ssVheaders
p445
(lp446
sVheadersSize
p447
I248
sVredirectURL
p448
g4
sVbodySize
p449
I0
sVhttpVersion
p450
VHTTP/1.1
p451
ssa(dp452
Vcomment
p453
g4
sVserverIPAddress
p454
V172.217.6.4
p455
sVpageref
p456
VMe Before You
p457
sVstartedDateTime
p458
V2017-04-16T08:41:12.678-05:00
p459
sVcache
p460
(dp461
sVrequest
p462
(dp463
Vcomment
p464
g4
sVcookies
p465
(lp466
sVurl
p467
Vhttps://www.google.com/complete/search?client=mobile-gws-hp&hl=en&gs_rn=64&gs_ri=mobile-gws-hp&sla=1&pfq=maui%20brewing%20company&gm=602&cp=0&gs_id=1&xhr=t&q=M&tch=1&ech=1&psi=d3TzWKFnyamPBJC5hMAF.1492350072341.1
p468
sVqueryString
p469
(lp470
(dp471
Vname
p472
Vclient
p473
sVvalue
p474
Vmobile-gws-hp
p475
sa(dp476
Vname
p477
Vhl
p478
sVvalue
p479
Ven
p480
sa(dp481
Vname
p482
Vgs_rn
p483
sVvalue
p484
V64
p485
sa(dp486
Vname
p487
Vgs_ri
p488
sVvalue
p489
Vmobile-gws-hp
p490
sa(dp491
Vname
p492
Vsla
p493
sVvalue
p494
g59
sa(dp495
Vname
p496
Vpfq
p497
sVvalue
p498
Vmaui brewing company
p499
sa(dp500
Vname
p501
Vgm
p502
sVvalue
p503
V602
p504
sa(dp505
Vname
p506
Vcp
p507
sVvalue
p508
g393
sa(dp509
Vname
p510
Vgs_id
p511
sVvalue
p512
g59
sa(dp513
Vname
p514
Vxhr
p515
sVvalue
p516
g52
sa(dp517
Vname
p518
Vq
p519
sVvalue
p520
VM
p521
sa(dp522
Vname
p523
Vtch
p524
sVvalue
p525
g59
sa(dp526
Vname
p527
Vech
p528
sVvalue
p529
g59
sa(dp530
Vname
p531
Vpsi
p532
sVvalue
p533
Vd3TzWKFnyamPBJC5hMAF.1492350072341.1
p534
sasVheaders
p535
(lp536
sVheadersSize
p537
I740
sVbodySize
p538
I0
sVmethod
p539
VGET
p540
sVhttpVersion
p541
VHTTP/1.1
p542
ssVtimings
p543
(dp544
Vcomment
p545
g4
sVreceive
p546
I0
sVsend
p547
I0
sVssl
p548
I-1
sVconnect
p549
I-1
sVdns
p550
I-1
sVwait
p551
I0
sVblocked
p552
I-1
ssVtime
p553
I0
sVresponse
p554
(dp555
Vstatus
p556
I0
sVcomment
p557
g4
sVcookies
p558
(lp559
sV_error
p560
VNo response received
p561
sVstatusText
p562
g4
sVcontent
p563
(dp564
VmimeType
p565
g4
sVcomment
p566
g4
sVsize
p567
I0
ssVheaders
p568
(lp569
sVheadersSize
p570
I-1
sVredirectURL
p571
g4
sVbodySize
p572
I-1
sVhttpVersion
p573
Vunknown
p574
ssa(dp575
Vcomment
p576
g4
sVserverIPAddress
p577
V172.217.6.4
p578
sVpageref
p579
VMe Before You
p580
sVstartedDateTime
p581
V2017-04-16T08:41:12.808-05:00
p582
sVcache
p583
(dp584
sVrequest
p585
(dp586
Vcomment
p587
g4
sVcookies
p588
(lp589
sVurl
p590
Vhttps://www.google.com/search?site=&source=hp&ei=d3TzWKFnyamPBJC5hMAF&q=Me+Before+You&oq=Me+Before+You&gs_l=mobile-gws-hp.3...307.348.0.393.13.1.0.0.0.0.0.0..0.0....0...1c.1.64.mobile-gws-hp..13.0.0.c8vOshFPqHg
p591
sVqueryString
p592
(lp593
(dp594
Vname
p595
Vsite
p596
sVvalue
p597
g4
sa(dp598
Vname
p599
Vsource
p600
sVvalue
p601
Vhp
p602
sa(dp603
Vname
p604
Vei
p605
sVvalue
p606
Vd3TzWKFnyamPBJC5hMAF
p607
sa(dp608
Vname
p609
g519
sVvalue
p610
VMe Before You
p611
sa(dp612
Vname
p613
Voq
p614
sVvalue
p615
VMe Before You
p616
sa(dp617
Vname
p618
Vgs_l
p619
sVvalue
p620
Vmobile-gws-hp.3...307.348.0.393.13.1.0.0.0.0.0.0..0.0....0...1c.1.64.mobile-gws-hp..13.0.0.c8vOshFPqHg
p621
sasVheaders
p622
(lp623
sVheadersSize
p624
I828
sVbodySize
p625
I0
sVmethod
p626
VGET
p627
sVhttpVersion
p628
VHTTP/1.1
p629
ssVtimings
p630
(dp631
Vcomment
p632
g4
sVreceive
p633
I965
sVsend
p634
I0
sVssl
p635
I22
sVconnect
p636
I38
sVdns
p637
I0
sVwait
p638
I84
sVblocked
p639
I0
ssVtime
p640
I1089
sVresponse
p641
(dp642
Vstatus
p643
I200
sVcomment
p644
g4
sVcookies
p645
(lp646
sVstatusText
p647
VOK
p648
sVcontent
p649
(dp650
VmimeType
p651
Vtext/html; charset=UTF-8
p652
sVcomment
p653
g4
sVsize
p654
I0
ssVheaders
p655
(lp656
sVheadersSize
p657
I363
sVredirectURL
p658
g4
sVbodySize
p659
I49434
sVhttpVersion
p660
VHTTP/1.1
p661
ssa(dp662
Vcomment
p663
g4
sVserverIPAddress
p664
V172.217.6.4
p665
sVpageref
p666
VMe Before You
p667
sVstartedDateTime
p668
V2017-04-16T08:41:15.163-05:00
p669
sVcache
p670
(dp671
sVrequest
p672
(dp673
Vcomment
p674
g4
sVcookies
p675
(lp676
sVurl
p677
Vhttps://www.google.com/async/ampfp?vet=10ahUKEwjux6OfjanTAhUm6oMKHciuCZAQtZoBCLAB..i&ei=d3TzWK6wMKbUjwTI3aaACQ&yv=2&async=_id:ampfp-async,_pms:qs
p678
sVqueryString
p679
(lp680
(dp681
Vname
p682
Vvet
p683
sVvalue
p684
V10ahUKEwjux6OfjanTAhUm6oMKHciuCZAQtZoBCLAB..i
p685
sa(dp686
Vname
p687
Vei
p688
sVvalue
p689
Vd3TzWK6wMKbUjwTI3aaACQ
p690
sa(dp691
Vname
p692
Vyv
p693
sVvalue
p694
g64
sa(dp695
Vname
p696
Vasync
p697
sVvalue
p698
V_id:ampfp-async,_pms:qs
p699
sasVheaders
p700
(lp701
sVheadersSize
p702
I662
sVbodySize
p703
I0
sVmethod
p704
VGET
p705
sVhttpVersion
p706
VHTTP/1.1
p707
ssVtimings
p708
(dp709
Vcomment
p710
g4
sVreceive
p711
I1
sVsend
p712
I0
sVssl
p713
I-1
sVconnect
p714
I-1
sVdns
p715
I-1
sVwait
p716
I40
sVblocked
p717
I-1
ssVtime
p718
I42
sVresponse
p719
(dp720
Vstatus
p721
I200
sVcomment
p722
g4
sVcookies
p723
(lp724
sVstatusText
p725
VOK
p726
sVcontent
p727
(dp728
VmimeType
p729
Vtext/html; charset=UTF-8
p730
sVcomment
p731
g4
sVsize
p732
I0
ssVheaders
p733
(lp734
sVheadersSize
p735
I383
sVredirectURL
p736
g4
sVbodySize
p737
I4525
sVhttpVersion
p738
VHTTP/1.1
p739
ssa(dp740
Vcomment
p741
g4
sVserverIPAddress
p742
V216.58.216.193
p743
sVpageref
p744
VMe Before You
p745
sVstartedDateTime
p746
V2017-04-16T08:41:15.164-05:00
p747
sVcache
p748
(dp749
sVrequest
p750
(dp751
Vcomment
p752
g4
sVcookies
p753
(lp754
sVurl
p755
Vhttps://cdn.ampproject.org/preconnect.gif?0.7893332398004878
p756
sVqueryString
p757
(lp758
(dp759
Vname
p760
V0.7893332398004878
p761
sVvalue
p762
g4
sasVheaders
p763
(lp764
sVheadersSize
p765
I375
sVbodySize
p766
I0
sVmethod
p767
VGET
p768
sVhttpVersion
p769
VHTTP/1.1
p770
ssVtimings
p771
(dp772
Vcomment
p773
g4
sVreceive
p774
I0
sVsend
p775
I0
sVssl
p776
I-1
sVconnect
p777
I-1
sVdns
p778
I-1
sVwait
p779
I27
sVblocked
p780
I-1
ssVtime
p781
I27
sVresponse
p782
(dp783
Vstatus
p784
I200
sVcomment
p785
g4
sVcookies
p786
(lp787
sVstatusText
p788
VOK
p789
sVcontent
p790
(dp791
VmimeType
p792
Vimage/gif
p793
sVcomment
p794
g4
sVsize
p795
I0
ssVheaders
p796
(lp797
sVheadersSize
p798
I826
sVredirectURL
p799
g4
sVbodySize
p800
I37
sVhttpVersion
p801
VHTTP/1.1
p802
ssa(dp803
Vcomment
p804
g4
sVserverIPAddress
p805
V172.217.6.4
p806
sVpageref
p807
VMe Before You
p808
sVstartedDateTime
p809
V2017-04-16T08:41:15.244-05:00
p810
sVcache
p811
(dp812
sVrequest
p813
(dp814
Vcomment
p815
g4
sVcookies
p816
(lp817
sVurl
p818
Vhttps://www.google.com/gen_204?s=web&atyp=csi&ei=d3TzWK6wMKbUjwTI3aaACQ&imc=18&imn=18&imp=2&adh=&xjs=init.36.14.sb_mob.27.dvl.3.async.2.c.1.mbsf.1&ima=2&rt=prt.1728,iml.1774,xjsls.1728,dcl.1769,xjses.1888,xjsee.2056,xjs.2057,ol.2274,aft.1774,wsrt.155,cst.0,dnst.0,rqst.1051,rspt.1054,rqstt.43,unt.2,cstt.2,dit.1886
p819
sVqueryString
p820
(lp821
(dp822
Vname
p823
g57
sVvalue
p824
Vweb
p825
sa(dp826
Vname
p827
Vatyp
p828
sVvalue
p829
Vcsi
p830
sa(dp831
Vname
p832
Vei
p833
sVvalue
p834
Vd3TzWK6wMKbUjwTI3aaACQ
p835
sa(dp836
Vname
p837
Vimc
p838
sVvalue
p839
V18
p840
sa(dp841
Vname
p842
Vimn
p843
sVvalue
p844
V18
p845
sa(dp846
Vname
p847
Vimp
p848
sVvalue
p849
g64
sa(dp850
Vname
p851
Vadh
p852
sVvalue
p853
g4
sa(dp854
Vname
p855
Vxjs
p856
sVvalue
p857
Vinit.36.14.sb_mob.27.dvl.3.async.2.c.1.mbsf.1
p858
sa(dp859
Vname
p860
Vima
p861
sVvalue
p862
g64
sa(dp863
Vname
p864
Vrt
p865
sVvalue
p866
Vprt.1728,iml.1774,xjsls.1728,dcl.1769,xjses.1888,xjsee.2056,xjs.2057,ol.2274,aft.1774,wsrt.155,cst.0,dnst.0,rqst.1051,rspt.1054,rqstt.43,unt.2,cstt.2,dit.1886
p867
sasVheaders
p868
(lp869
sVheadersSize
p870
I831
sVbodySize
p871
I0
sVmethod
p872
VGET
p873
sVhttpVersion
p874
VHTTP/1.1
p875
ssVtimings
p876
(dp877
Vcomment
p878
g4
sVreceive
p879
I0
sVsend
p880
I0
sVssl
p881
I23
sVconnect
p882
I41
sVdns
p883
I0
sVwait
p884
I44
sVblocked
p885
I0
ssVtime
p886
I85
sVresponse
p887
(dp888
Vstatus
p889
I204
sVcomment
p890
g4
sVcookies
p891
(lp892
sVstatusText
p893
VNo Content
p894
sVcontent
p895
(dp896
VmimeType
p897
Vtext/html; charset=UTF-8
p898
sVcomment
p899
g4
sVsize
p900
I0
ssVheaders
p901
(lp902
sVheadersSize
p903
I248
sVredirectURL
p904
g4
sVbodySize
p905
I0
sVhttpVersion
p906
VHTTP/1.1
p907
ssa(dp908
Vcomment
p909
g4
sVserverIPAddress
p910
V172.217.6.4
p911
sVpageref
p912
VMe Before You
p913
sVstartedDateTime
p914
V2017-04-16T08:41:15.306-05:00
p915
sVcache
p916
(dp917
sVrequest
p918
(dp919
Vcomment
p920
g4
sVcookies
p921
(lp922
sVurl
p923
Vhttps://www.google.com/async/log_amp_item_set?vet=10ahUKEwiLq7OgjanTAhWmxYMKHY-5C_cQooQBCAE..i&ei=d3TzWK6wMKbUjwTI3aaACQ&yv=2&async=num_items:1,_fmt:jspb
p924
sVqueryString
p925
(lp926
(dp927
Vname
p928
Vvet
p929
sVvalue
p930
V10ahUKEwiLq7OgjanTAhWmxYMKHY-5C_cQooQBCAE..i
p931
sa(dp932
Vname
p933
Vei
p934
sVvalue
p935
Vd3TzWK6wMKbUjwTI3aaACQ
p936
sa(dp937
Vname
p938
Vyv
p939
sVvalue
p940
g64
sa(dp941
Vname
p942
Vasync
p943
sVvalue
p944
Vnum_items:1,_fmt:jspb
p945
sasVheaders
p946
(lp947
sVheadersSize
p948
I670
sVbodySize
p949
I0
sVmethod
p950
VGET
p951
sVhttpVersion
p952
VHTTP/1.1
p953
ssVtimings
p954
(dp955
Vcomment
p956
g4
sVreceive
p957
I0
sVsend
p958
I0
sVssl
p959
I-1
sVconnect
p960
I-1
sVdns
p961
I-1
sVwait
p962
I34
sVblocked
p963
I-1
ssVtime
p964
I34
sVresponse
p965
(dp966
Vstatus
p967
I200
sVcomment
p968
g4
sVcookies
p969
(lp970
sVstatusText
p971
VOK
p972
sVcontent
p973
(dp974
VmimeType
p975
Vapplication/json; charset=UTF-8
p976
sVcomment
p977
g4
sVsize
p978
I0
ssVheaders
p979
(lp980
sVheadersSize
p981
I417
sVredirectURL
p982
g4
sVbodySize
p983
I132
sVhttpVersion
p984
VHTTP/1.1
p985
ssa(dp986
Vcomment
p987
g4
sVserverIPAddress
p988
V216.58.216.193
p989
sVpageref
p990
VMe Before You
p991
sVstartedDateTime
p992
V2017-04-16T08:41:15.675-05:00
p993
sVcache
p994
(dp995
sVrequest
p996
(dp997
Vcomment
p998
g4
sVcookies
p999
(lp1000
sVurl
p1001
Vhttps://amp-theguardian-com.cdn.ampproject.org/v/s/amp.theguardian.com/film/2016/jun/02/me-before-you-disabled-backlash-not-pitied?amp_js_v=9
p1002
sVqueryString
p1003
(lp1004
(dp1005
Vname
p1006
Vamp_js_v
p1007
sVvalue
p1008
V9
p1009
sasVheaders
p1010
(lp1011
sVheadersSize
p1012
I546
sVbodySize
p1013
I0
sVmethod
p1014
VGET
p1015
sVhttpVersion
p1016
VHTTP/1.1
p1017
ssVtimings
p1018
(dp1019
Vcomment
p1020
g4
sVreceive
p1021
I20
sVsend
p1022
I0
sVssl
p1023
I294
sVconnect
p1024
I322
sVdns
p1025
I34
sVwait
p1026
I137
sVblocked
p1027
I0
ssVtime
p1028
I515
sVresponse
p1029
(dp1030
Vstatus
p1031
I200
sVcomment
p1032
g4
sVcookies
p1033
(lp1034
sVstatusText
p1035
VOK
p1036
sVcontent
p1037
(dp1038
VmimeType
p1039
Vtext/html
p1040
sVcomment
p1041
g4
sVsize
p1042
I0
ssVheaders
p1043
(lp1044
sVheadersSize
p1045
I861
sVredirectURL
p1046
g4
sVbodySize
p1047
I21756
sVhttpVersion
p1048
VHTTP/1.1
p1049
ssa(dp1050
Vcomment
p1051
g4
sVserverIPAddress
p1052
V216.58.216.193
p1053
sVpageref
p1054
VMe Before You
p1055
sVstartedDateTime
p1056
V2017-04-16T08:41:16.717-05:00
p1057
sVcache
p1058
(dp1059
sVrequest
p1060
(dp1061
Vcomment
p1062
g4
sVcookies
p1063
(lp1064
sVurl
p1065
Vhttps://i-guim-co-uk.cdn.ampproject.org/i/s/i.guim.co.uk/img/media/7c76e3d23617e008adb14fee16783bfd49f3c662/0_114_3000_1800/3000.jpg?w=620&q=55&auto=format&usm=12&fit=max&s=061bbf1facc918d7a14674967e4af5f1
p1066
sVqueryString
p1067
(lp1068
(dp1069
Vname
p1070
Vw
p1071
sVvalue
p1072
V620
p1073
sa(dp1074
Vname
p1075
g519
sVvalue
p1076
V55
p1077
sa(dp1078
Vname
p1079
Vauto
p1080
sVvalue
p1081
Vformat
p1082
sa(dp1083
Vname
p1084
Vusm
p1085
sVvalue
p1086
V12
p1087
sa(dp1088
Vname
p1089
Vfit
p1090
sVvalue
p1091
Vmax
p1092
sa(dp1093
Vname
p1094
g57
sVvalue
p1095
V061bbf1facc918d7a14674967e4af5f1
p1096
sasVheaders
p1097
(lp1098
sVheadersSize
p1099
I638
sVbodySize
p1100
I0
sVmethod
p1101
VGET
p1102
sVhttpVersion
p1103
VHTTP/1.1
p1104
ssVtimings
p1105
(dp1106
Vcomment
p1107
g4
sVreceive
p1108
I20
sVsend
p1109
I0
sVssl
p1110
I312
sVconnect
p1111
I339
sVdns
p1112
I42
sVwait
p1113
I23
sVblocked
p1114
I0
ssVtime
p1115
I425
sVresponse
p1116
(dp1117
Vstatus
p1118
I200
sVcomment
p1119
g4
sVcookies
p1120
(lp1121
sVstatusText
p1122
VOK
p1123
sVcontent
p1124
(dp1125
VmimeType
p1126
Vimage/jpeg
p1127
sVcomment
p1128
g4
sVsize
p1129
I0
ssVheaders
p1130
(lp1131
sVheadersSize
p1132
I850
sVredirectURL
p1133
g4
sVbodySize
p1134
I28922
sVhttpVersion
p1135
VHTTP/1.1
p1136
ssa(dp1137
Vcomment
p1138
g4
sVserverIPAddress
p1139
V172.217.6.4
p1140
sVpageref
p1141
VMe Before You
p1142
sVstartedDateTime
p1143
V2017-04-16T08:41:17.130-05:00
p1144
sVcache
p1145
(dp1146
sVrequest
p1147
(dp1148
Vcomment
p1149
g4
sVcookies
p1150
(lp1151
sVurl
p1152
Vhttps://www.google.com/gen_204?atyp=i&ct=slh&cad=&ei=F3TzWP3lN4LXjwT88L3QAQ&m=V&t=C&s=1&v=2&pv=0.22630495153277785&me=1:1492349980349,x:1,V,0,0,1280,944:0,N,1,F3TzWP3lN4LXjwT88L3QAQ:0,R,1,25,8,155,1249,126:0,R,1,26,24,155,1217,115:0,R,1,32,0,291,1197,1482:0,R,1,33,0,291,1197,1480:0,R,1,53,0,291,1197,200:0,R,1,54,0,291,1197,200:0,R,1,75,0,504,1197,20:0,R,1,81,0,548,1197,20:0,R,1,95,0,648,1197,35:0,R,1,105,0,704,1197,36:0,R,1,108,0,757,1197,47:0,R,1,149,0,861,1197,86:4,B,4721:658,S,349:0,R,1,153,0,947,1197,192:0,R,1,157,24,1155,1149,161:8967,e,U&zx=1492350077129
p1153
sVqueryString
p1154
(lp1155
(dp1156
Vname
p1157
Vatyp
p1158
sVvalue
p1159
g30
sa(dp1160
Vname
p1161
Vct
p1162
sVvalue
p1163
Vslh
p1164
sa(dp1165
Vname
p1166
Vcad
p1167
sVvalue
p1168
g4
sa(dp1169
Vname
p1170
Vei
p1171
sVvalue
p1172
VF3TzWP3lN4LXjwT88L3QAQ
p1173
sa(dp1174
Vname
p1175
g47
sVvalue
p1176
g49
sa(dp1177
Vname
p1178
g52
sVvalue
p1179
g54
sa(dp1180
Vname
p1181
g57
sVvalue
p1182
g59
sa(dp1183
Vname
p1184
g62
sVvalue
p1185
g64
sa(dp1186
Vname
p1187
Vpv
p1188
sVvalue
p1189
V0.22630495153277785
p1190
sa(dp1191
Vname
p1192
Vme
p1193
sVvalue
p1194
V1:1492349980349,x:1,V,0,0,1280,944:0,N,1,F3TzWP3lN4LXjwT88L3QAQ:0,R,1,25,8,155,1249,126:0,R,1,26,24,155,1217,115:0,R,1,32,0,291,1197,1482:0,R,1,33,0,291,1197,1480:0,R,1,53,0,291,1197,200:0,R,1,54,0,291,1197,200:0,R,1,75,0,504,1197,20:0,R,1,81,0,548,1197,20:0,R,1,95,0,648,1197,35:0,R,1,105,0,704,1197,36:0,R,1,108,0,757,1197,47:0,R,1,149,0,861,1197,86:4,B,4721:658,S,349:0,R,1,153,0,947,1197,192:0,R,1,157,24,1155,1149,161:8967,e,U
p1195
sa(dp1196
Vname
p1197
Vzx
p1198
sVvalue
p1199
V1492350077129
p1200
sasVheaders
p1201
(lp1202
sVheadersSize
p1203
I1083
sVbodySize
p1204
I0
sVmethod
p1205
VGET
p1206
sVhttpVersion
p1207
VHTTP/1.1
p1208
ssVtimings
p1209
(dp1210
Vcomment
p1211
g4
sVreceive
p1212
I0
sVsend
p1213
I0
sVssl
p1214
I-1
sVconnect
p1215
I-1
sVdns
p1216
I-1
sVwait
p1217
I29
sVblocked
p1218
I-1
ssVtime
p1219
I29
sVresponse
p1220
(dp1221
Vstatus
p1222
I204
sVcomment
p1223
g4
sVcookies
p1224
(lp1225
sVstatusText
p1226
VNo Content
p1227
sVcontent
p1228
(dp1229
VmimeType
p1230
Vtext/html; charset=UTF-8
p1231
sVcomment
p1232
g4
sVsize
p1233
I0
ssVheaders
p1234
(lp1235
sVheadersSize
p1236
I248
sVredirectURL
p1237
g4
sVbodySize
p1238
I0
sVhttpVersion
p1239
VHTTP/1.1
p1240
ssasVversion
p1241
V1.2
p1242
sVpages
p1243
(lp1244
(dp1245
VpageTimings
p1246
(dp1247
Vcomment
p1248
g4
ssVcomment
p1249
g4
sVtitle
p1250
VMe Before You
p1251
sVid
p1252
VMe Before You
p1253
sVstartedDateTime
p1254
V2017-04-16T08:41:11.901-05:00
p1255
sasVcreator
p1256
(dp1257
Vcomment
p1258
g4
sVversion
p1259
V2.1.4
p1260
sVname
p1261
VBrowserMob Proxy
p1262
sss.