(dp0
Vlog
p1
(dp2
Vcomment
p3
V
p4
sVentries
p5
(lp6
(dp7
Vcomment
p8
g4
sVserverIPAddress
p9
V216.58.216.196
p10
sVpageref
p11
VOlympics 
p12
sVstartedDateTime
p13
V2017-04-16T07:58:22.394-05:00
p14
sVcache
p15
(dp16
sVrequest
p17
(dp18
Vcomment
p19
g4
sVcookies
p20
(lp21
sVurl
p22
Vhttps://www.google.com/gen_204?atyp=i&ct=slh&cad=&ei=XWrzWI7HI6qXjwSz5o74Bw&m=V&t=C&s=1&v=2&pv=0.5130128684734346&me=1:1492347487936,x:1,V,0,0,1280,944:0,N,1,XWrzWI7HI6qXjwSz5o74Bw:0,R,1,25,24,155,1217,94:0,R,1,27,8,270,1249,178:0,R,1,28,8,270,1249,178:0,R,1,31,8,458,1249,691:0,R,1,32,8,458,1249,691:0,R,1,36,1141,458,116,116:0,R,1,45,8,496,1133,40:0,R,1,57,8,574,1249,71:0,R,1,65,8,662,1249,40:0,R,1,66,24,662,1217,40:0,R,1,69,8,718,1249,20:0,R,1,71,8,746,1249,20:0,R,1,79,8,786,1249,310:0,R,1,80,0,831,1265,285:2,B,3014:14454,e,U&zx=1492347502393
p23
sVqueryString
p24
(lp25
(dp26
Vname
p27
Vatyp
p28
sVvalue
p29
Vi
p30
sa(dp31
Vname
p32
Vct
p33
sVvalue
p34
Vslh
p35
sa(dp36
Vname
p37
Vcad
p38
sVvalue
p39
g4
sa(dp40
Vname
p41
Vei
p42
sVvalue
p43
VXWrzWI7HI6qXjwSz5o74Bw
p44
sa(dp45
Vname
p46
Vm
p47
sVvalue
p48
VV
p49
sa(dp50
Vname
p51
Vt
p52
sVvalue
p53
VC
p54
sa(dp55
Vname
p56
Vs
p57
sVvalue
p58
V1
p59
sa(dp60
Vname
p61
Vv
p62
sVvalue
p63
V2
p64
sa(dp65
Vname
p66
Vpv
p67
sVvalue
p68
V0.5130128684734346
p69
sa(dp70
Vname
p71
Vme
p72
sVvalue
p73
V1:1492347487936,x:1,V,0,0,1280,944:0,N,1,XWrzWI7HI6qXjwSz5o74Bw:0,R,1,25,24,155,1217,94:0,R,1,27,8,270,1249,178:0,R,1,28,8,270,1249,178:0,R,1,31,8,458,1249,691:0,R,1,32,8,458,1249,691:0,R,1,36,1141,458,116,116:0,R,1,45,8,496,1133,40:0,R,1,57,8,574,1249,71:0,R,1,65,8,662,1249,40:0,R,1,66,24,662,1217,40:0,R,1,69,8,718,1249,20:0,R,1,71,8,746,1249,20:0,R,1,79,8,786,1249,310:0,R,1,80,0,831,1265,285:2,B,3014:14454,e,U
p74
sa(dp75
Vname
p76
Vzx
p77
sVvalue
p78
V1492347502393
p79
sasVheaders
p80
(lp81
sVheadersSize
p82
I1066
sVbodySize
p83
I0
sVmethod
p84
VGET
p85
sVhttpVersion
p86
VHTTP/1.1
p87
ssVtimings
p88
(dp89
Vcomment
p90
g4
sVreceive
p91
I0
sVsend
p92
I0
sVssl
p93
I-1
sVconnect
p94
I-1
sVdns
p95
I-1
sVwait
p96
I0
sVblocked
p97
I-1
ssVtime
p98
I0
sVresponse
p99
(dp100
Vstatus
p101
I0
sVcomment
p102
g4
sVcookies
p103
(lp104
sV_error
p105
VNo response received
p106
sVstatusText
p107
g4
sVcontent
p108
(dp109
VmimeType
p110
g4
sVcomment
p111
g4
sVsize
p112
I0
ssVheaders
p113
(lp114
sVheadersSize
p115
I-1
sVredirectURL
p116
g4
sVbodySize
p117
I-1
sVhttpVersion
p118
Vunknown
p119
ssa(dp120
Vcomment
p121
g4
sVserverIPAddress
p122
V216.58.216.196
p123
sVpageref
p124
VOlympics 
p125
sVstartedDateTime
p126
V2017-04-16T07:58:22.395-05:00
p127
sVcache
p128
(dp129
sVrequest
p130
(dp131
Vcomment
p132
g4
sVcookies
p133
(lp134
sVurl
p135
Vhttps://www.google.com/gen_204?atyp=i&ct=slh&cad=&ei=UWrzWL2FBcK-jwTKlLWIAw&s=2&v=2&pv=0.3306635850388674&me=19:1492347486129,e,H&zx=1492347502394
p136
sVqueryString
p137
(lp138
(dp139
Vname
p140
Vatyp
p141
sVvalue
p142
g30
sa(dp143
Vname
p144
Vct
p145
sVvalue
p146
Vslh
p147
sa(dp148
Vname
p149
Vcad
p150
sVvalue
p151
g4
sa(dp152
Vname
p153
Vei
p154
sVvalue
p155
VUWrzWL2FBcK-jwTKlLWIAw
p156
sa(dp157
Vname
p158
g57
sVvalue
p159
g64
sa(dp160
Vname
p161
g62
sVvalue
p162
g64
sa(dp163
Vname
p164
Vpv
p165
sVvalue
p166
V0.3306635850388674
p167
sa(dp168
Vname
p169
Vme
p170
sVvalue
p171
V19:1492347486129,e,H
p172
sa(dp173
Vname
p174
Vzx
p175
sVvalue
p176
V1492347502394
p177
sasVheaders
p178
(lp179
sVheadersSize
p180
I663
sVbodySize
p181
I0
sVmethod
p182
VGET
p183
sVhttpVersion
p184
VHTTP/1.1
p185
ssVtimings
p186
(dp187
Vcomment
p188
g4
sVreceive
p189
I0
sVsend
p190
I0
sVssl
p191
I-1
sVconnect
p192
I-1
sVdns
p193
I-1
sVwait
p194
I0
sVblocked
p195
I-1
ssVtime
p196
I0
sVresponse
p197
(dp198
Vstatus
p199
I0
sVcomment
p200
g4
sVcookies
p201
(lp202
sV_error
p203
VNo response received
p204
sVstatusText
p205
g4
sVcontent
p206
(dp207
VmimeType
p208
g4
sVcomment
p209
g4
sVsize
p210
I0
ssVheaders
p211
(lp212
sVheadersSize
p213
I-1
sVredirectURL
p214
g4
sVbodySize
p215
I-1
sVhttpVersion
p216
Vunknown
p217
ssa(dp218
Vcomment
p219
g4
sVserverIPAddress
p220
V216.58.216.196
p221
sVpageref
p222
VOlympics 
p223
sVstartedDateTime
p224
V2017-04-16T07:58:22.397-05:00
p225
sVcache
p226
(dp227
sVrequest
p228
(dp229
Vcomment
p230
g4
sVcookies
p231
(lp232
sVurl
p233
Vhttp://www.google.com/
p234
sVqueryString
p235
(lp236
sVheaders
p237
(lp238
sVheadersSize
p239
I613
sVbodySize
p240
I0
sVmethod
p241
VGET
p242
sVhttpVersion
p243
VHTTP/1.1
p244
ssVtimings
p245
(dp246
Vcomment
p247
g4
sVreceive
p248
I0
sVsend
p249
I0
sVssl
p250
I-1
sVconnect
p251
I-1
sVdns
p252
I-1
sVwait
p253
I51
sVblocked
p254
I-1
ssVtime
p255
I51
sVresponse
p256
(dp257
Vstatus
p258
I302
sVcomment
p259
g4
sVcookies
p260
(lp261
sVstatusText
p262
VFound
p263
sVcontent
p264
(dp265
VmimeType
p266
Vtext/html; charset=UTF-8
p267
sVcomment
p268
g4
sVsize
p269
I0
ssVheaders
p270
(lp271
sVheadersSize
p272
I609
sVredirectURL
p273
Vhttps://www.google.com/?gws_rd=ssl
p274
sVbodySize
p275
I231
sVhttpVersion
p276
VHTTP/1.1
p277
ssa(dp278
Vcomment
p279
g4
sVserverIPAddress
p280
V216.58.216.196
p281
sVpageref
p282
VOlympics 
p283
sVstartedDateTime
p284
V2017-04-16T07:58:22.489-05:00
p285
sVcache
p286
(dp287
sVrequest
p288
(dp289
Vcomment
p290
g4
sVcookies
p291
(lp292
sVurl
p293
Vhttps://www.google.com/?gws_rd=ssl
p294
sVqueryString
p295
(lp296
(dp297
Vname
p298
Vgws_rd
p299
sVvalue
p300
Vssl
p301
sasVheaders
p302
(lp303
sVheadersSize
p304
I607
sVbodySize
p305
I0
sVmethod
p306
VGET
p307
sVhttpVersion
p308
VHTTP/1.1
p309
ssVtimings
p310
(dp311
Vcomment
p312
g4
sVreceive
p313
I19
sVsend
p314
I0
sVssl
p315
I19
sVconnect
p316
I32
sVdns
p317
I0
sVwait
p318
I71
sVblocked
p319
I0
ssVtime
p320
I124
sVresponse
p321
(dp322
Vstatus
p323
I200
sVcomment
p324
g4
sVcookies
p325
(lp326
sVstatusText
p327
VOK
p328
sVcontent
p329
(dp330
VmimeType
p331
Vtext/html; charset=UTF-8
p332
sVcomment
p333
g4
sVsize
p334
I0
ssVheaders
p335
(lp336
sVheadersSize
p337
I721
sVredirectURL
p338
g4
sVbodySize
p339
I34296
sVhttpVersion
p340
VHTTP/1.1
p341
ssa(dp342
Vcomment
p343
g4
sVserverIPAddress
p344
V216.58.216.196
p345
sVpageref
p346
VOlympics 
p347
sVstartedDateTime
p348
V2017-04-16T07:58:22.735-05:00
p349
sVcache
p350
(dp351
sVrequest
p352
(dp353
Vcomment
p354
g4
sVcookies
p355
(lp356
sVurl
p357
Vhttps://www.google.com/gen_204?s=mobilewebhp&atyp=csi&ei=bWrzWPWAH4uwjwT4noqgAQ&imc=1&imn=1&imp=0&adh=&xjs=init.20.12.sb_mob.14.dvl.2.c.1.jsa.1.mbsf.1&ima=1&rt=xjsls.14,prt.15,iml.15,dcl.32,xjses.65,xjsee.131,xjs.131,ol.156,aft.15,wsrt.183,cst.0,dnst.0,rqst.92,rspt.94,rqstt.96,unt.60,cstt.60,dit.209
p358
sVqueryString
p359
(lp360
(dp361
Vname
p362
g57
sVvalue
p363
Vmobilewebhp
p364
sa(dp365
Vname
p366
Vatyp
p367
sVvalue
p368
Vcsi
p369
sa(dp370
Vname
p371
Vei
p372
sVvalue
p373
VbWrzWPWAH4uwjwT4noqgAQ
p374
sa(dp375
Vname
p376
Vimc
p377
sVvalue
p378
g59
sa(dp379
Vname
p380
Vimn
p381
sVvalue
p382
g59
sa(dp383
Vname
p384
Vimp
p385
sVvalue
p386
V0
p387
sa(dp388
Vname
p389
Vadh
p390
sVvalue
p391
g4
sa(dp392
Vname
p393
Vxjs
p394
sVvalue
p395
Vinit.20.12.sb_mob.14.dvl.2.c.1.jsa.1.mbsf.1
p396
sa(dp397
Vname
p398
Vima
p399
sVvalue
p400
g59
sa(dp401
Vname
p402
Vrt
p403
sVvalue
p404
Vxjsls.14,prt.15,iml.15,dcl.32,xjses.65,xjsee.131,xjs.131,ol.156,aft.15,wsrt.183,cst.0,dnst.0,rqst.92,rspt.94,rqstt.96,unt.60,cstt.60,dit.209
p405
sasVheaders
p406
(lp407
sVheadersSize
p408
I828
sVbodySize
p409
I0
sVmethod
p410
VGET
p411
sVhttpVersion
p412
VHTTP/1.1
p413
ssVtimings
p414
(dp415
Vcomment
p416
g4
sVreceive
p417
I0
sVsend
p418
I0
sVssl
p419
I-1
sVconnect
p420
I-1
sVdns
p421
I-1
sVwait
p422
I25
sVblocked
p423
I-1
ssVtime
p424
I25
sVresponse
p425
(dp426
Vstatus
p427
I204
sVcomment
p428
g4
sVcookies
p429
(lp430
sVstatusText
p431
VNo Content
p432
sVcontent
p433
(dp434
VmimeType
p435
Vtext/html; charset=UTF-8
p436
sVcomment
p437
g4
sVsize
p438
I0
ssVheaders
p439
(lp440
sVheadersSize
p441
I248
sVredirectURL
p442
g4
sVbodySize
p443
I0
sVhttpVersion
p444
VHTTP/1.1
p445
ssa(dp446
Vcomment
p447
g4
sVserverIPAddress
p448
V216.58.216.196
p449
sVpageref
p450
VOlympics 
p451
sVstartedDateTime
p452
V2017-04-16T07:58:22.858-05:00
p453
sVcache
p454
(dp455
sVrequest
p456
(dp457
Vcomment
p458
g4
sVcookies
p459
(lp460
sVurl
p461
Vhttps://www.google.com/complete/search?client=mobile-gws-hp&hl=en&gs_rn=64&gs_ri=mobile-gws-hp&sla=1&gm=602&cp=0&gs_id=1&xhr=t&q=O&tch=1&ech=1&psi=bWrzWPWAH4uwjwT4noqgAQ.1492347502688.1
p462
sVqueryString
p463
(lp464
(dp465
Vname
p466
Vclient
p467
sVvalue
p468
Vmobile-gws-hp
p469
sa(dp470
Vname
p471
Vhl
p472
sVvalue
p473
Ven
p474
sa(dp475
Vname
p476
Vgs_rn
p477
sVvalue
p478
V64
p479
sa(dp480
Vname
p481
Vgs_ri
p482
sVvalue
p483
Vmobile-gws-hp
p484
sa(dp485
Vname
p486
Vsla
p487
sVvalue
p488
g59
sa(dp489
Vname
p490
Vgm
p491
sVvalue
p492
V602
p493
sa(dp494
Vname
p495
Vcp
p496
sVvalue
p497
g387
sa(dp498
Vname
p499
Vgs_id
p500
sVvalue
p501
g59
sa(dp502
Vname
p503
Vxhr
p504
sVvalue
p505
g52
sa(dp506
Vname
p507
Vq
p508
sVvalue
p509
VO
p510
sa(dp511
Vname
p512
Vtch
p513
sVvalue
p514
g59
sa(dp515
Vname
p516
Vech
p517
sVvalue
p518
g59
sa(dp519
Vname
p520
Vpsi
p521
sVvalue
p522
VbWrzWPWAH4uwjwT4noqgAQ.1492347502688.1
p523
sasVheaders
p524
(lp525
sVheadersSize
p526
I713
sVbodySize
p527
I0
sVmethod
p528
VGET
p529
sVhttpVersion
p530
VHTTP/1.1
p531
ssVtimings
p532
(dp533
Vcomment
p534
g4
sVreceive
p535
I0
sVsend
p536
I0
sVssl
p537
I-1
sVconnect
p538
I-1
sVdns
p539
I-1
sVwait
p540
I0
sVblocked
p541
I-1
ssVtime
p542
I0
sVresponse
p543
(dp544
Vstatus
p545
I0
sVcomment
p546
g4
sVcookies
p547
(lp548
sV_error
p549
VNo response received
p550
sVstatusText
p551
g4
sVcontent
p552
(dp553
VmimeType
p554
g4
sVcomment
p555
g4
sVsize
p556
I0
ssVheaders
p557
(lp558
sVheadersSize
p559
I-1
sVredirectURL
p560
g4
sVbodySize
p561
I-1
sVhttpVersion
p562
Vunknown
p563
ssa(dp564
Vcomment
p565
g4
sVserverIPAddress
p566
V216.58.216.196
p567
sVpageref
p568
VOlympics 
p569
sVstartedDateTime
p570
V2017-04-16T07:58:22.957-05:00
p571
sVcache
p572
(dp573
sVrequest
p574
(dp575
Vcomment
p576
g4
sVcookies
p577
(lp578
sVurl
p579
Vhttps://www.google.com/search?site=&source=hp&ei=bWrzWPWAH4uwjwT4noqgAQ&q=Olympics+&oq=Olympics+&gs_l=mobile-gws-hp.3...154.173.0.194.9.1.0.0.0.0.0.0..0.0....0...1c.1.64.mobile-gws-hp..9.0.0._Ew6hbQLMDg
p580
sVqueryString
p581
(lp582
(dp583
Vname
p584
Vsite
p585
sVvalue
p586
g4
sa(dp587
Vname
p588
Vsource
p589
sVvalue
p590
Vhp
p591
sa(dp592
Vname
p593
Vei
p594
sVvalue
p595
VbWrzWPWAH4uwjwT4noqgAQ
p596
sa(dp597
Vname
p598
g508
sVvalue
p599
VOlympics 
p600
sa(dp601
Vname
p602
Voq
p603
sVvalue
p604
VOlympics 
p605
sa(dp606
Vname
p607
Vgs_l
p608
sVvalue
p609
Vmobile-gws-hp.3...154.173.0.194.9.1.0.0.0.0.0.0..0.0....0...1c.1.64.mobile-gws-hp..9.0.0._Ew6hbQLMDg
p610
sasVheaders
p611
(lp612
sVheadersSize
p613
I820
sVbodySize
p614
I0
sVmethod
p615
VGET
p616
sVhttpVersion
p617
VHTTP/1.1
p618
ssVtimings
p619
(dp620
Vcomment
p621
g4
sVreceive
p622
I763
sVsend
p623
I0
sVssl
p624
I22
sVconnect
p625
I51
sVdns
p626
I0
sVwait
p627
I81
sVblocked
p628
I0
ssVtime
p629
I897
sVresponse
p630
(dp631
Vstatus
p632
I200
sVcomment
p633
g4
sVcookies
p634
(lp635
sVstatusText
p636
VOK
p637
sVcontent
p638
(dp639
VmimeType
p640
Vtext/html; charset=UTF-8
p641
sVcomment
p642
g4
sVsize
p643
I0
ssVheaders
p644
(lp645
sVheadersSize
p646
I363
sVredirectURL
p647
g4
sVbodySize
p648
I149058
sVhttpVersion
p649
VHTTP/1.1
p650
ssa(dp651
Vcomment
p652
g4
sVserverIPAddress
p653
V216.58.216.196
p654
sVpageref
p655
VOlympics 
p656
sVstartedDateTime
p657
V2017-04-16T07:58:24.166-05:00
p658
sVcache
p659
(dp660
sVrequest
p661
(dp662
Vcomment
p663
g4
sVcookies
p664
(lp665
sVurl
p666
Vhttps://www.google.com/xjs/_/js/k=xjs.qs.en_US.pCBXVCvTH3s.O/m=syl,syj,syn,em3,em8,em6,em7,sym,aa,abd,sy2g,sy2k,sy29,sy2j,sy2d,sy2a,sy2c,sy2f,sy2l,sy2m,sy2n,emd,async,sybn,sybi,sybo,sy1f,sy45,sy46,sy9w,sybk,sybj,sybp,sy1g,sy30,sy47,sybm,sybl,sybq,sy1h,sybh,dvl,syep,foot,ipv6,sy32,emj,shm,sy5g,sy5i,sy5k,sykh,tl,sy2x,sy2y,sy2t,sy38,em12,vs,sy5j,sy5h,sy6u,sy66,sy67,sy7d,sy7j,sy4u,sy69,sy89,sy7e,sykk,sykl,tnv,bct,sy23,sy9m,syac,sy24,sy4g,sy9b,sy9n,syhz,syl6,ssc,twt,sy4d,sy2u,sy4f,sy4c,sy4e,sy4b,sy6w,shrb,syd7,dgm,syf5,syf6,syf8,sygb,syg9,kptm,sy1y,sy99,syf4,sy26,syfc,syfn,syf7,syff,sy1i,sy22,sy6i,sy68,sy8d,syfl,syfr,syfq,sy25,syfg,sy1j,sy4q,sy5o,sy5r,sy6j,sy6n,sy6p,sy8h,syc7,syc8,syfb,syfj,syfs,syft,syg3,syg5,syg7,emb,em9,ema,emn,emo,syg4,syg6,ivg,iuci,img,sy41,tcc,sy6y,sycu,d3l,sya3,sya2,sy72,sy31,sya4,sykr,strm,syj7,syj8,syj2,syjc,syj6,syj3,syjg,syjh,syje,syjd,syjk,syji,syjf,syj0,emr,ems,emt,emu,emv,emx,emy,emz,em10,em11,udlg,sy5z,atn,sy4h,sy4i,sya1,ampfp/am=gCP4LtMEBXQA2RUaq_oFBISzAFA/rt=j/d=0/t=zcms/rs=ACT90oFwm4NZCwIcuuiqmthdlECdBzkhRA
p667
sVqueryString
p668
(lp669
sVheaders
p670
(lp671
sVheadersSize
p672
I1569
sVbodySize
p673
I0
sVmethod
p674
VGET
p675
sVhttpVersion
p676
VHTTP/1.1
p677
ssVtimings
p678
(dp679
Vcomment
p680
g4
sVreceive
p681
I24
sVsend
p682
I0
sVssl
p683
I-1
sVconnect
p684
I-1
sVdns
p685
I-1
sVwait
p686
I86
sVblocked
p687
I-1
ssVtime
p688
I110
sVresponse
p689
(dp690
Vstatus
p691
I200
sVcomment
p692
g4
sVcookies
p693
(lp694
sVstatusText
p695
VOK
p696
sVcontent
p697
(dp698
VmimeType
p699
Vtext/javascript; charset=UTF-8
p700
sVcomment
p701
g4
sVsize
p702
I0
ssVheaders
p703
(lp704
sVheadersSize
p705
I452
sVredirectURL
p706
g4
sVbodySize
p707
I109916
sVhttpVersion
p708
VHTTP/1.1
p709
ssa(dp710
Vcomment
p711
g4
sVserverIPAddress
p712
V216.58.216.196
p713
sVpageref
p714
VOlympics 
p715
sVstartedDateTime
p716
V2017-04-16T07:58:24.382-05:00
p717
sVcache
p718
(dp719
sVrequest
p720
(dp721
Vcomment
p722
g4
sVcookies
p723
(lp724
sVurl
p725
Vhttps://www.google.com/async/irc?vet=10ahUKEwilufLVg6nTAhUB5oMKHTxLD-MQo0EIzQE..i&ved=0ahUKEwilufLVg6nTAhUB5oMKHTxLD-MQo0EIzQE&ei=bWrzWOXOO4HMjwS8lr2YDg&yv=2&async=iu:1,ved:0ahUKEwilufLVg6nTAhUB5oMKHTxLD-MQo0EIzQE,_id:irc_async,_pms:qs
p726
sVqueryString
p727
(lp728
(dp729
Vname
p730
Vvet
p731
sVvalue
p732
V10ahUKEwilufLVg6nTAhUB5oMKHTxLD-MQo0EIzQE..i
p733
sa(dp734
Vname
p735
Vved
p736
sVvalue
p737
V0ahUKEwilufLVg6nTAhUB5oMKHTxLD-MQo0EIzQE
p738
sa(dp739
Vname
p740
Vei
p741
sVvalue
p742
VbWrzWOXOO4HMjwS8lr2YDg
p743
sa(dp744
Vname
p745
Vyv
p746
sVvalue
p747
g64
sa(dp748
Vname
p749
Vasync
p750
sVvalue
p751
Viu:1,ved:0ahUKEwilufLVg6nTAhUB5oMKHTxLD-MQo0EIzQE,_id:irc_async,_pms:qs
p752
sasVheaders
p753
(lp754
sVheadersSize
p755
I752
sVbodySize
p756
I0
sVmethod
p757
VGET
p758
sVhttpVersion
p759
VHTTP/1.1
p760
ssVtimings
p761
(dp762
Vcomment
p763
g4
sVreceive
p764
I1
sVsend
p765
I0
sVssl
p766
I-1
sVconnect
p767
I-1
sVdns
p768
I-1
sVwait
p769
I40
sVblocked
p770
I-1
ssVtime
p771
I41
sVresponse
p772
(dp773
Vstatus
p774
I200
sVcomment
p775
g4
sVcookies
p776
(lp777
sVstatusText
p778
VOK
p779
sVcontent
p780
(dp781
VmimeType
p782
Vtext/html; charset=UTF-8
p783
sVcomment
p784
g4
sVsize
p785
I0
ssVheaders
p786
(lp787
sVheadersSize
p788
I383
sVredirectURL
p789
g4
sVbodySize
p790
I7789
sVhttpVersion
p791
VHTTP/1.1
p792
ssa(dp793
Vcomment
p794
g4
sVserverIPAddress
p795
V216.58.216.196
p796
sVpageref
p797
VOlympics 
p798
sVstartedDateTime
p799
V2017-04-16T07:58:24.425-05:00
p800
sVcache
p801
(dp802
sVrequest
p803
(dp804
Vcomment
p805
g4
sVcookies
p806
(lp807
sVurl
p808
Vhttps://www.google.com/gen_204?atyp=i&ct=&cad=&vet=10ahUKEwilufLVg6nTAhUB5oMKHTxLD-MQ5W0IaigH..s&ei=bWrzWOXOO4HMjwS8lr2YDg&zx=1492347504397
p809
sVqueryString
p810
(lp811
(dp812
Vname
p813
Vatyp
p814
sVvalue
p815
g30
sa(dp816
Vname
p817
Vct
p818
sVvalue
p819
g4
sa(dp820
Vname
p821
Vcad
p822
sVvalue
p823
g4
sa(dp824
Vname
p825
Vvet
p826
sVvalue
p827
V10ahUKEwilufLVg6nTAhUB5oMKHTxLD-MQ5W0IaigH..s
p828
sa(dp829
Vname
p830
Vei
p831
sVvalue
p832
VbWrzWOXOO4HMjwS8lr2YDg
p833
sa(dp834
Vname
p835
Vzx
p836
sVvalue
p837
V1492347504397
p838
sasVheaders
p839
(lp840
sVheadersSize
p841
I656
sVbodySize
p842
I0
sVmethod
p843
VGET
p844
sVhttpVersion
p845
VHTTP/1.1
p846
ssVtimings
p847
(dp848
Vcomment
p849
g4
sVreceive
p850
I0
sVsend
p851
I0
sVssl
p852
I-1
sVconnect
p853
I-1
sVdns
p854
I-1
sVwait
p855
I28
sVblocked
p856
I-1
ssVtime
p857
I28
sVresponse
p858
(dp859
Vstatus
p860
I204
sVcomment
p861
g4
sVcookies
p862
(lp863
sVstatusText
p864
VNo Content
p865
sVcontent
p866
(dp867
VmimeType
p868
Vtext/html; charset=UTF-8
p869
sVcomment
p870
g4
sVsize
p871
I0
ssVheaders
p872
(lp873
sVheadersSize
p874
I248
sVredirectURL
p875
g4
sVbodySize
p876
I0
sVhttpVersion
p877
VHTTP/1.1
p878
ssa(dp879
Vcomment
p880
g4
sVserverIPAddress
p881
V216.58.216.196
p882
sVpageref
p883
VOlympics 
p884
sVstartedDateTime
p885
V2017-04-16T07:58:24.425-05:00
p886
sVcache
p887
(dp888
sVrequest
p889
(dp890
Vcomment
p891
g4
sVcookies
p892
(lp893
sVurl
p894
Vhttps://www.google.com/gen_204?atyp=i&ct=&cad=&vet=10ahUKEwilufLVg6nTAhUB5oMKHTxLD-MQ5W0IWygC..s&ei=bWrzWOXOO4HMjwS8lr2YDg&zx=1492347504388
p895
sVqueryString
p896
(lp897
(dp898
Vname
p899
Vatyp
p900
sVvalue
p901
g30
sa(dp902
Vname
p903
Vct
p904
sVvalue
p905
g4
sa(dp906
Vname
p907
Vcad
p908
sVvalue
p909
g4
sa(dp910
Vname
p911
Vvet
p912
sVvalue
p913
V10ahUKEwilufLVg6nTAhUB5oMKHTxLD-MQ5W0IWygC..s
p914
sa(dp915
Vname
p916
Vei
p917
sVvalue
p918
VbWrzWOXOO4HMjwS8lr2YDg
p919
sa(dp920
Vname
p921
Vzx
p922
sVvalue
p923
V1492347504388
p924
sasVheaders
p925
(lp926
sVheadersSize
p927
I656
sVbodySize
p928
I0
sVmethod
p929
VGET
p930
sVhttpVersion
p931
VHTTP/1.1
p932
ssVtimings
p933
(dp934
Vcomment
p935
g4
sVreceive
p936
I0
sVsend
p937
I0
sVssl
p938
I21
sVconnect
p939
I34
sVdns
p940
I0
sVwait
p941
I28
sVblocked
p942
I0
ssVtime
p943
I63
sVresponse
p944
(dp945
Vstatus
p946
I204
sVcomment
p947
g4
sVcookies
p948
(lp949
sVstatusText
p950
VNo Content
p951
sVcontent
p952
(dp953
VmimeType
p954
Vtext/html; charset=UTF-8
p955
sVcomment
p956
g4
sVsize
p957
I0
ssVheaders
p958
(lp959
sVheadersSize
p960
I248
sVredirectURL
p961
g4
sVbodySize
p962
I0
sVhttpVersion
p963
VHTTP/1.1
p964
ssa(dp965
Vcomment
p966
g4
sVserverIPAddress
p967
V216.58.216.196
p968
sVpageref
p969
VOlympics 
p970
sVstartedDateTime
p971
V2017-04-16T07:58:24.429-05:00
p972
sVcache
p973
(dp974
sVrequest
p975
(dp976
Vcomment
p977
g4
sVcookies
p978
(lp979
sVurl
p980
Vhttps://www.google.com/gen_204?atyp=i&ct=&cad=&vet=10ahUKEwilufLVg6nTAhUB5oMKHTxLD-MQ5W0IYSgE..s&ei=bWrzWOXOO4HMjwS8lr2YDg&zx=1492347504391
p981
sVqueryString
p982
(lp983
(dp984
Vname
p985
Vatyp
p986
sVvalue
p987
g30
sa(dp988
Vname
p989
Vct
p990
sVvalue
p991
g4
sa(dp992
Vname
p993
Vcad
p994
sVvalue
p995
g4
sa(dp996
Vname
p997
Vvet
p998
sVvalue
p999
V10ahUKEwilufLVg6nTAhUB5oMKHTxLD-MQ5W0IYSgE..s
p1000
sa(dp1001
Vname
p1002
Vei
p1003
sVvalue
p1004
VbWrzWOXOO4HMjwS8lr2YDg
p1005
sa(dp1006
Vname
p1007
Vzx
p1008
sVvalue
p1009
V1492347504391
p1010
sasVheaders
p1011
(lp1012
sVheadersSize
p1013
I656
sVbodySize
p1014
I0
sVmethod
p1015
VGET
p1016
sVhttpVersion
p1017
VHTTP/1.1
p1018
ssVtimings
p1019
(dp1020
Vcomment
p1021
g4
sVreceive
p1022
I0
sVsend
p1023
I0
sVssl
p1024
I20
sVconnect
p1025
I35
sVdns
p1026
I0
sVwait
p1027
I30
sVblocked
p1028
I0
ssVtime
p1029
I66
sVresponse
p1030
(dp1031
Vstatus
p1032
I204
sVcomment
p1033
g4
sVcookies
p1034
(lp1035
sVstatusText
p1036
VNo Content
p1037
sVcontent
p1038
(dp1039
VmimeType
p1040
Vtext/html; charset=UTF-8
p1041
sVcomment
p1042
g4
sVsize
p1043
I0
ssVheaders
p1044
(lp1045
sVheadersSize
p1046
I248
sVredirectURL
p1047
g4
sVbodySize
p1048
I0
sVhttpVersion
p1049
VHTTP/1.1
p1050
ssa(dp1051
Vcomment
p1052
g4
sVserverIPAddress
p1053
V216.58.216.196
p1054
sVpageref
p1055
VOlympics 
p1056
sVstartedDateTime
p1057
V2017-04-16T07:58:24.430-05:00
p1058
sVcache
p1059
(dp1060
sVrequest
p1061
(dp1062
Vcomment
p1063
g4
sVcookies
p1064
(lp1065
sVurl
p1066
Vhttps://www.google.com/gen_204?atyp=i&ct=&cad=&vet=10ahUKEwilufLVg6nTAhUB5oMKHTxLD-MQ5W0IXigD..s&ei=bWrzWOXOO4HMjwS8lr2YDg&zx=1492347504390
p1067
sVqueryString
p1068
(lp1069
(dp1070
Vname
p1071
Vatyp
p1072
sVvalue
p1073
g30
sa(dp1074
Vname
p1075
Vct
p1076
sVvalue
p1077
g4
sa(dp1078
Vname
p1079
Vcad
p1080
sVvalue
p1081
g4
sa(dp1082
Vname
p1083
Vvet
p1084
sVvalue
p1085
V10ahUKEwilufLVg6nTAhUB5oMKHTxLD-MQ5W0IXigD..s
p1086
sa(dp1087
Vname
p1088
Vei
p1089
sVvalue
p1090
VbWrzWOXOO4HMjwS8lr2YDg
p1091
sa(dp1092
Vname
p1093
Vzx
p1094
sVvalue
p1095
V1492347504390
p1096
sasVheaders
p1097
(lp1098
sVheadersSize
p1099
I656
sVbodySize
p1100
I0
sVmethod
p1101
VGET
p1102
sVhttpVersion
p1103
VHTTP/1.1
p1104
ssVtimings
p1105
(dp1106
Vcomment
p1107
g4
sVreceive
p1108
I0
sVsend
p1109
I0
sVssl
p1110
I21
sVconnect
p1111
I37
sVdns
p1112
I0
sVwait
p1113
I29
sVblocked
p1114
I0
ssVtime
p1115
I67
sVresponse
p1116
(dp1117
Vstatus
p1118
I204
sVcomment
p1119
g4
sVcookies
p1120
(lp1121
sVstatusText
p1122
VNo Content
p1123
sVcontent
p1124
(dp1125
VmimeType
p1126
Vtext/html; charset=UTF-8
p1127
sVcomment
p1128
g4
sVsize
p1129
I0
ssVheaders
p1130
(lp1131
sVheadersSize
p1132
I248
sVredirectURL
p1133
g4
sVbodySize
p1134
I0
sVhttpVersion
p1135
VHTTP/1.1
p1136
ssa(dp1137
Vcomment
p1138
g4
sVserverIPAddress
p1139
V216.58.216.196
p1140
sVpageref
p1141
VOlympics 
p1142
sVstartedDateTime
p1143
V2017-04-16T07:58:24.430-05:00
p1144
sVcache
p1145
(dp1146
sVrequest
p1147
(dp1148
Vcomment
p1149
g4
sVcookies
p1150
(lp1151
sVurl
p1152
Vhttps://www.google.com/gen_204?atyp=i&ct=&cad=&vet=10ahUKEwilufLVg6nTAhUB5oMKHTxLD-MQ5W0IZCgF..s&ei=bWrzWOXOO4HMjwS8lr2YDg&zx=1492347504393
p1153
sVqueryString
p1154
(lp1155
(dp1156
Vname
p1157
Vatyp
p1158
sVvalue
p1159
g30
sa(dp1160
Vname
p1161
Vct
p1162
sVvalue
p1163
g4
sa(dp1164
Vname
p1165
Vcad
p1166
sVvalue
p1167
g4
sa(dp1168
Vname
p1169
Vvet
p1170
sVvalue
p1171
V10ahUKEwilufLVg6nTAhUB5oMKHTxLD-MQ5W0IZCgF..s
p1172
sa(dp1173
Vname
p1174
Vei
p1175
sVvalue
p1176
VbWrzWOXOO4HMjwS8lr2YDg
p1177
sa(dp1178
Vname
p1179
Vzx
p1180
sVvalue
p1181
V1492347504393
p1182
sasVheaders
p1183
(lp1184
sVheadersSize
p1185
I656
sVbodySize
p1186
I0
sVmethod
p1187
VGET
p1188
sVhttpVersion
p1189
VHTTP/1.1
p1190
ssVtimings
p1191
(dp1192
Vcomment
p1193
g4
sVreceive
p1194
I0
sVsend
p1195
I0
sVssl
p1196
I20
sVconnect
p1197
I33
sVdns
p1198
I0
sVwait
p1199
I29
sVblocked
p1200
I0
ssVtime
p1201
I63
sVresponse
p1202
(dp1203
Vstatus
p1204
I204
sVcomment
p1205
g4
sVcookies
p1206
(lp1207
sVstatusText
p1208
VNo Content
p1209
sVcontent
p1210
(dp1211
VmimeType
p1212
Vtext/html; charset=UTF-8
p1213
sVcomment
p1214
g4
sVsize
p1215
I0
ssVheaders
p1216
(lp1217
sVheadersSize
p1218
I248
sVredirectURL
p1219
g4
sVbodySize
p1220
I0
sVhttpVersion
p1221
VHTTP/1.1
p1222
ssa(dp1223
Vcomment
p1224
g4
sVserverIPAddress
p1225
V216.58.216.196
p1226
sVpageref
p1227
VOlympics 
p1228
sVstartedDateTime
p1229
V2017-04-16T07:58:24.432-05:00
p1230
sVcache
p1231
(dp1232
sVrequest
p1233
(dp1234
Vcomment
p1235
g4
sVcookies
p1236
(lp1237
sVurl
p1238
Vhttps://www.google.com/gen_204?atyp=i&ct=&cad=&vet=10ahUKEwilufLVg6nTAhUB5oMKHTxLD-MQ5W0IZygG..s&ei=bWrzWOXOO4HMjwS8lr2YDg&zx=1492347504395
p1239
sVqueryString
p1240
(lp1241
(dp1242
Vname
p1243
Vatyp
p1244
sVvalue
p1245
g30
sa(dp1246
Vname
p1247
Vct
p1248
sVvalue
p1249
g4
sa(dp1250
Vname
p1251
Vcad
p1252
sVvalue
p1253
g4
sa(dp1254
Vname
p1255
Vvet
p1256
sVvalue
p1257
V10ahUKEwilufLVg6nTAhUB5oMKHTxLD-MQ5W0IZygG..s
p1258
sa(dp1259
Vname
p1260
Vei
p1261
sVvalue
p1262
VbWrzWOXOO4HMjwS8lr2YDg
p1263
sa(dp1264
Vname
p1265
Vzx
p1266
sVvalue
p1267
V1492347504395
p1268
sasVheaders
p1269
(lp1270
sVheadersSize
p1271
I656
sVbodySize
p1272
I0
sVmethod
p1273
VGET
p1274
sVhttpVersion
p1275
VHTTP/1.1
p1276
ssVtimings
p1277
(dp1278
Vcomment
p1279
g4
sVreceive
p1280
I0
sVsend
p1281
I0
sVssl
p1282
I19
sVconnect
p1283
I34
sVdns
p1284
I0
sVwait
p1285
I33
sVblocked
p1286
I0
ssVtime
p1287
I68
sVresponse
p1288
(dp1289
Vstatus
p1290
I204
sVcomment
p1291
g4
sVcookies
p1292
(lp1293
sVstatusText
p1294
VNo Content
p1295
sVcontent
p1296
(dp1297
VmimeType
p1298
Vtext/html; charset=UTF-8
p1299
sVcomment
p1300
g4
sVsize
p1301
I0
ssVheaders
p1302
(lp1303
sVheadersSize
p1304
I248
sVredirectURL
p1305
g4
sVbodySize
p1306
I0
sVhttpVersion
p1307
VHTTP/1.1
p1308
ssa(dp1309
Vcomment
p1310
g4
sVserverIPAddress
p1311
V216.58.216.193
p1312
sVpageref
p1313
VOlympics 
p1314
sVstartedDateTime
p1315
V2017-04-16T07:58:24.436-05:00
p1316
sVcache
p1317
(dp1318
sVrequest
p1319
(dp1320
Vcomment
p1321
g4
sVcookies
p1322
(lp1323
sVurl
p1324
Vhttps://cdn.ampproject.org/preconnect.gif?0.9138864755621552
p1325
sVqueryString
p1326
(lp1327
(dp1328
Vname
p1329
V0.9138864755621552
p1330
sVvalue
p1331
g4
sasVheaders
p1332
(lp1333
sVheadersSize
p1334
I375
sVbodySize
p1335
I0
sVmethod
p1336
VGET
p1337
sVhttpVersion
p1338
VHTTP/1.1
p1339
ssVtimings
p1340
(dp1341
Vcomment
p1342
g4
sVreceive
p1343
I0
sVsend
p1344
I0
sVssl
p1345
I-1
sVconnect
p1346
I-1
sVdns
p1347
I-1
sVwait
p1348
I29
sVblocked
p1349
I-1
ssVtime
p1350
I29
sVresponse
p1351
(dp1352
Vstatus
p1353
I200
sVcomment
p1354
g4
sVcookies
p1355
(lp1356
sVstatusText
p1357
VOK
p1358
sVcontent
p1359
(dp1360
VmimeType
p1361
Vimage/gif
p1362
sVcomment
p1363
g4
sVsize
p1364
I0
ssVheaders
p1365
(lp1366
sVheadersSize
p1367
I826
sVredirectURL
p1368
g4
sVbodySize
p1369
I37
sVhttpVersion
p1370
VHTTP/1.1
p1371
ssa(dp1372
Vcomment
p1373
g4
sVserverIPAddress
p1374
V216.58.216.206
p1375
sVpageref
p1376
VOlympics 
p1377
sVstartedDateTime
p1378
V2017-04-16T07:58:24.444-05:00
p1379
sVcache
p1380
(dp1381
sVrequest
p1382
(dp1383
Vcomment
p1384
g4
sVcookies
p1385
(lp1386
sVurl
p1387
Vhttps://encrypted-tbn2.gstatic.com/images?q=tbn:ANd9GcTOWHdWMkDizrgY0_Af1455zCbsWM3wZMWgNmH-7oxFu_vEGbCBx5hXVPvZ
p1388
sVqueryString
p1389
(lp1390
(dp1391
Vname
p1392
g508
sVvalue
p1393
Vtbn:ANd9GcTOWHdWMkDizrgY0_Af1455zCbsWM3wZMWgNmH-7oxFu_vEGbCBx5hXVPvZ
p1394
sasVheaders
p1395
(lp1396
sVheadersSize
p1397
I427
sVbodySize
p1398
I0
sVmethod
p1399
VGET
p1400
sVhttpVersion
p1401
VHTTP/1.1
p1402
ssVtimings
p1403
(dp1404
Vcomment
p1405
g4
sVreceive
p1406
I1
sVsend
p1407
I0
sVssl
p1408
I-1
sVconnect
p1409
I-1
sVdns
p1410
I-1
sVwait
p1411
I22
sVblocked
p1412
I-1
ssVtime
p1413
I24
sVresponse
p1414
(dp1415
Vstatus
p1416
I200
sVcomment
p1417
g4
sVcookies
p1418
(lp1419
sVstatusText
p1420
VOK
p1421
sVcontent
p1422
(dp1423
VmimeType
p1424
Vimage/png
p1425
sVcomment
p1426
g4
sVsize
p1427
I0
ssVheaders
p1428
(lp1429
sVheadersSize
p1430
I407
sVredirectURL
p1431
g4
sVbodySize
p1432
I11717
sVhttpVersion
p1433
VHTTP/1.1
p1434
ssa(dp1435
Vcomment
p1436
g4
sVserverIPAddress
p1437
V216.58.216.206
p1438
sVpageref
p1439
VOlympics 
p1440
sVstartedDateTime
p1441
V2017-04-16T07:58:24.445-05:00
p1442
sVcache
p1443
(dp1444
sVrequest
p1445
(dp1446
Vcomment
p1447
g4
sVcookies
p1448
(lp1449
sVurl
p1450
Vhttps://encrypted-tbn1.gstatic.com/images?q=tbn:ANd9GcQBntQGdk9anIENfVu5T1EMibVGKpVQJKl2tF46miw9CeGbFo_RmuIZHdfu6A
p1451
sVqueryString
p1452
(lp1453
(dp1454
Vname
p1455
g508
sVvalue
p1456
Vtbn:ANd9GcQBntQGdk9anIENfVu5T1EMibVGKpVQJKl2tF46miw9CeGbFo_RmuIZHdfu6A
p1457
sasVheaders
p1458
(lp1459
sVheadersSize
p1460
I429
sVbodySize
p1461
I0
sVmethod
p1462
VGET
p1463
sVhttpVersion
p1464
VHTTP/1.1
p1465
ssVtimings
p1466
(dp1467
Vcomment
p1468
g4
sVreceive
p1469
I3
sVsend
p1470
I0
sVssl
p1471
I-1
sVconnect
p1472
I-1
sVdns
p1473
I-1
sVwait
p1474
I37
sVblocked
p1475
I-1
ssVtime
p1476
I40
sVresponse
p1477
(dp1478
Vstatus
p1479
I200
sVcomment
p1480
g4
sVcookies
p1481
(lp1482
sVstatusText
p1483
VOK
p1484
sVcontent
p1485
(dp1486
VmimeType
p1487
Vimage/png
p1488
sVcomment
p1489
g4
sVsize
p1490
I0
ssVheaders
p1491
(lp1492
sVheadersSize
p1493
I414
sVredirectURL
p1494
g4
sVbodySize
p1495
I4385
sVhttpVersion
p1496
VHTTP/1.1
p1497
ssa(dp1498
Vcomment
p1499
g4
sVserverIPAddress
p1500
V216.58.216.206
p1501
sVpageref
p1502
VOlympics 
p1503
sVstartedDateTime
p1504
V2017-04-16T07:58:24.445-05:00
p1505
sVcache
p1506
(dp1507
sVrequest
p1508
(dp1509
Vcomment
p1510
g4
sVcookies
p1511
(lp1512
sVurl
p1513
Vhttps://encrypted-tbn1.gstatic.com/images?q=tbn:ANd9GcQvIE-aXXraS5KanzqQ0QHmcnsWXhLo4lYRaV81Q5eaSoz7vzo1TJvxMURIww
p1514
sVqueryString
p1515
(lp1516
(dp1517
Vname
p1518
g508
sVvalue
p1519
Vtbn:ANd9GcQvIE-aXXraS5KanzqQ0QHmcnsWXhLo4lYRaV81Q5eaSoz7vzo1TJvxMURIww
p1520
sasVheaders
p1521
(lp1522
sVheadersSize
p1523
I429
sVbodySize
p1524
I0
sVmethod
p1525
VGET
p1526
sVhttpVersion
p1527
VHTTP/1.1
p1528
ssVtimings
p1529
(dp1530
Vcomment
p1531
g4
sVreceive
p1532
I4
sVsend
p1533
I0
sVssl
p1534
I-1
sVconnect
p1535
I-1
sVdns
p1536
I-1
sVwait
p1537
I26
sVblocked
p1538
I-1
ssVtime
p1539
I31
sVresponse
p1540
(dp1541
Vstatus
p1542
I200
sVcomment
p1543
g4
sVcookies
p1544
(lp1545
sVstatusText
p1546
VOK
p1547
sVcontent
p1548
(dp1549
VmimeType
p1550
Vimage/jpeg
p1551
sVcomment
p1552
g4
sVsize
p1553
I0
ssVheaders
p1554
(lp1555
sVheadersSize
p1556
I428
sVredirectURL
p1557
g4
sVbodySize
p1558
I9424
sVhttpVersion
p1559
VHTTP/1.1
p1560
ssa(dp1561
Vcomment
p1562
g4
sVserverIPAddress
p1563
V216.58.216.196
p1564
sVpageref
p1565
VOlympics 
p1566
sVstartedDateTime
p1567
V2017-04-16T07:58:24.454-05:00
p1568
sVcache
p1569
(dp1570
sVrequest
p1571
(dp1572
Vcomment
p1573
g4
sVcookies
p1574
(lp1575
sVurl
p1576
Vhttps://www.google.com/async/ampfp?vet=10ahUKEwilufLVg6nTAhUB5oMKHTxLD-MQtZoBCMsB..i&ei=bWrzWOXOO4HMjwS8lr2YDg&yv=2&async=_id:ampfp-async,_pms:qs
p1577
sVqueryString
p1578
(lp1579
(dp1580
Vname
p1581
Vvet
p1582
sVvalue
p1583
V10ahUKEwilufLVg6nTAhUB5oMKHTxLD-MQtZoBCMsB..i
p1584
sa(dp1585
Vname
p1586
Vei
p1587
sVvalue
p1588
VbWrzWOXOO4HMjwS8lr2YDg
p1589
sa(dp1590
Vname
p1591
Vyv
p1592
sVvalue
p1593
g64
sa(dp1594
Vname
p1595
Vasync
p1596
sVvalue
p1597
V_id:ampfp-async,_pms:qs
p1598
sasVheaders
p1599
(lp1600
sVheadersSize
p1601
I662
sVbodySize
p1602
I0
sVmethod
p1603
VGET
p1604
sVhttpVersion
p1605
VHTTP/1.1
p1606
ssVtimings
p1607
(dp1608
Vcomment
p1609
g4
sVreceive
p1610
I0
sVsend
p1611
I0
sVssl
p1612
I-1
sVconnect
p1613
I-1
sVdns
p1614
I-1
sVwait
p1615
I153
sVblocked
p1616
I-1
ssVtime
p1617
I154
sVresponse
p1618
(dp1619
Vstatus
p1620
I200
sVcomment
p1621
g4
sVcookies
p1622
(lp1623
sVstatusText
p1624
VOK
p1625
sVcontent
p1626
(dp1627
VmimeType
p1628
Vtext/html; charset=UTF-8
p1629
sVcomment
p1630
g4
sVsize
p1631
I0
ssVheaders
p1632
(lp1633
sVheadersSize
p1634
I383
sVredirectURL
p1635
g4
sVbodySize
p1636
I4527
sVhttpVersion
p1637
VHTTP/1.1
p1638
ssa(dp1639
Vcomment
p1640
g4
sVserverIPAddress
p1641
V216.58.216.196
p1642
sVpageref
p1643
VOlympics 
p1644
sVstartedDateTime
p1645
V2017-04-16T07:58:24.508-05:00
p1646
sVcache
p1647
(dp1648
sVrequest
p1649
(dp1650
Vcomment
p1651
g4
sVcookies
p1652
(lp1653
sVurl
p1654
Vhttps://www.google.com/gen_204?s=web&atyp=csi&ei=bWrzWOXOO4HMjwS8lr2YDg&imc=35&imn=35&imp=22&adh=&xjs=init.28.14.sb_mob.20.dvl.3.c.1.mbsf.1.jsa.1&ima=14&rt=prt.795,iml.913,xjsls.795,dcl.905,qiml.1108,xjses.1014,xjsee.1110,xjs.1111,ol.1452,aft.908,wsrt.148,cst.0,dnst.0,rqst.846,rspt.848,rqstt.55,unt.2,cstt.2,dit.1015
p1655
sVqueryString
p1656
(lp1657
(dp1658
Vname
p1659
g57
sVvalue
p1660
Vweb
p1661
sa(dp1662
Vname
p1663
Vatyp
p1664
sVvalue
p1665
Vcsi
p1666
sa(dp1667
Vname
p1668
Vei
p1669
sVvalue
p1670
VbWrzWOXOO4HMjwS8lr2YDg
p1671
sa(dp1672
Vname
p1673
Vimc
p1674
sVvalue
p1675
V35
p1676
sa(dp1677
Vname
p1678
Vimn
p1679
sVvalue
p1680
V35
p1681
sa(dp1682
Vname
p1683
Vimp
p1684
sVvalue
p1685
V22
p1686
sa(dp1687
Vname
p1688
Vadh
p1689
sVvalue
p1690
g4
sa(dp1691
Vname
p1692
Vxjs
p1693
sVvalue
p1694
Vinit.28.14.sb_mob.20.dvl.3.c.1.mbsf.1.jsa.1
p1695
sa(dp1696
Vname
p1697
Vima
p1698
sVvalue
p1699
V14
p1700
sa(dp1701
Vname
p1702
Vrt
p1703
sVvalue
p1704
Vprt.795,iml.913,xjsls.795,dcl.905,qiml.1108,xjses.1014,xjsee.1110,xjs.1111,ol.1452,aft.908,wsrt.148,cst.0,dnst.0,rqst.846,rspt.848,rqstt.55,unt.2,cstt.2,dit.1015
p1705
sasVheaders
p1706
(lp1707
sVheadersSize
p1708
I834
sVbodySize
p1709
I0
sVmethod
p1710
VGET
p1711
sVhttpVersion
p1712
VHTTP/1.1
p1713
ssVtimings
p1714
(dp1715
Vcomment
p1716
g4
sVreceive
p1717
I0
sVsend
p1718
I0
sVssl
p1719
I-1
sVconnect
p1720
I-1
sVdns
p1721
I-1
sVwait
p1722
I26
sVblocked
p1723
I-1
ssVtime
p1724
I26
sVresponse
p1725
(dp1726
Vstatus
p1727
I204
sVcomment
p1728
g4
sVcookies
p1729
(lp1730
sVstatusText
p1731
VNo Content
p1732
sVcontent
p1733
(dp1734
VmimeType
p1735
Vtext/html; charset=UTF-8
p1736
sVcomment
p1737
g4
sVsize
p1738
I0
ssVheaders
p1739
(lp1740
sVheadersSize
p1741
I248
sVredirectURL
p1742
g4
sVbodySize
p1743
I0
sVhttpVersion
p1744
VHTTP/1.1
p1745
ssa(dp1746
Vcomment
p1747
g4
sVserverIPAddress
p1748
V216.58.216.196
p1749
sVpageref
p1750
VOlympics 
p1751
sVstartedDateTime
p1752
V2017-04-16T07:58:24.622-05:00
p1753
sVcache
p1754
(dp1755
sVrequest
p1756
(dp1757
Vcomment
p1758
g4
sVcookies
p1759
(lp1760
sVurl
p1761
Vhttps://www.google.com/xjs/_/js/k=xjs.qs.en_US.pCBXVCvTH3s.O/m=sy6k,syi2,syi5,syi4,fpv,sy48,sy3a,sy3c,sy5b,sy4x,sy4z,sy56,sy4y,sy5d,sy8e,sya8,sy5e,sy91,sya6,sya7,sya9,amp,sp/am=gCP4LtMEBXQA2RUaq_oFBISzAFA/rt=j/d=0/t=zcms/rs=ACT90oFwm4NZCwIcuuiqmthdlECdBzkhRA
p1762
sVqueryString
p1763
(lp1764
sVheaders
p1765
(lp1766
sVheadersSize
p1767
I775
sVbodySize
p1768
I0
sVmethod
p1769
VGET
p1770
sVhttpVersion
p1771
VHTTP/1.1
p1772
ssVtimings
p1773
(dp1774
Vcomment
p1775
g4
sVreceive
p1776
I21
sVsend
p1777
I0
sVssl
p1778
I-1
sVconnect
p1779
I-1
sVdns
p1780
I-1
sVwait
p1781
I16
sVblocked
p1782
I-1
ssVtime
p1783
I37
sVresponse
p1784
(dp1785
Vstatus
p1786
I200
sVcomment
p1787
g4
sVcookies
p1788
(lp1789
sVstatusText
p1790
VOK
p1791
sVcontent
p1792
(dp1793
VmimeType
p1794
Vtext/javascript; charset=UTF-8
p1795
sVcomment
p1796
g4
sVsize
p1797
I0
ssVheaders
p1798
(lp1799
sVheadersSize
p1800
I464
sVredirectURL
p1801
g4
sVbodySize
p1802
I52832
sVhttpVersion
p1803
VHTTP/1.1
p1804
ssa(dp1805
Vcomment
p1806
g4
sVserverIPAddress
p1807
V216.58.216.196
p1808
sVpageref
p1809
VOlympics 
p1810
sVstartedDateTime
p1811
V2017-04-16T07:58:24.693-05:00
p1812
sVcache
p1813
(dp1814
sVrequest
p1815
(dp1816
Vcomment
p1817
g4
sVcookies
p1818
(lp1819
sVurl
p1820
Vhttps://www.google.com/async/log_amp_item_set?vet=10ahUKEwiItdTWg6nTAhVs6oMKHSqlCj8QooQBCAE..i&ei=bWrzWOXOO4HMjwS8lr2YDg&yv=2&async=num_items:1,_fmt:jspb
p1821
sVqueryString
p1822
(lp1823
(dp1824
Vname
p1825
Vvet
p1826
sVvalue
p1827
V10ahUKEwiItdTWg6nTAhVs6oMKHSqlCj8QooQBCAE..i
p1828
sa(dp1829
Vname
p1830
Vei
p1831
sVvalue
p1832
VbWrzWOXOO4HMjwS8lr2YDg
p1833
sa(dp1834
Vname
p1835
Vyv
p1836
sVvalue
p1837
g64
sa(dp1838
Vname
p1839
Vasync
p1840
sVvalue
p1841
Vnum_items:1,_fmt:jspb
p1842
sasVheaders
p1843
(lp1844
sVheadersSize
p1845
I670
sVbodySize
p1846
I0
sVmethod
p1847
VGET
p1848
sVhttpVersion
p1849
VHTTP/1.1
p1850
ssVtimings
p1851
(dp1852
Vcomment
p1853
g4
sVreceive
p1854
I0
sVsend
p1855
I0
sVssl
p1856
I-1
sVconnect
p1857
I-1
sVdns
p1858
I-1
sVwait
p1859
I30
sVblocked
p1860
I-1
ssVtime
p1861
I31
sVresponse
p1862
(dp1863
Vstatus
p1864
I200
sVcomment
p1865
g4
sVcookies
p1866
(lp1867
sVstatusText
p1868
VOK
p1869
sVcontent
p1870
(dp1871
VmimeType
p1872
Vapplication/json; charset=UTF-8
p1873
sVcomment
p1874
g4
sVsize
p1875
I0
ssVheaders
p1876
(lp1877
sVheadersSize
p1878
I417
sVredirectURL
p1879
g4
sVbodySize
p1880
I132
sVhttpVersion
p1881
VHTTP/1.1
p1882
ssa(dp1883
Vcomment
p1884
g4
sVserverIPAddress
p1885
V216.58.216.196
p1886
sVpageref
p1887
VOlympics 
p1888
sVstartedDateTime
p1889
V2017-04-16T07:58:26.418-05:00
p1890
sVcache
p1891
(dp1892
sVrequest
p1893
(dp1894
Vcomment
p1895
g4
sVcookies
p1896
(lp1897
sVurl
p1898
Vhttps://www.google.com/gen_204?atyp=i&ct=slh&cad=&ei=UWrzWL2FBcK-jwTKlLWIAw&s=2&v=2&pv=0.3306635850388674&me=19:1492347486129,e,H&zx=1492347506417
p1899
sVqueryString
p1900
(lp1901
(dp1902
Vname
p1903
Vatyp
p1904
sVvalue
p1905
g30
sa(dp1906
Vname
p1907
Vct
p1908
sVvalue
p1909
Vslh
p1910
sa(dp1911
Vname
p1912
Vcad
p1913
sVvalue
p1914
g4
sa(dp1915
Vname
p1916
Vei
p1917
sVvalue
p1918
VUWrzWL2FBcK-jwTKlLWIAw
p1919
sa(dp1920
Vname
p1921
g57
sVvalue
p1922
g64
sa(dp1923
Vname
p1924
g62
sVvalue
p1925
g64
sa(dp1926
Vname
p1927
Vpv
p1928
sVvalue
p1929
V0.3306635850388674
p1930
sa(dp1931
Vname
p1932
Vme
p1933
sVvalue
p1934
V19:1492347486129,e,H
p1935
sa(dp1936
Vname
p1937
Vzx
p1938
sVvalue
p1939
V1492347506417
p1940
sasVheaders
p1941
(lp1942
sVheadersSize
p1943
I663
sVbodySize
p1944
I0
sVmethod
p1945
VGET
p1946
sVhttpVersion
p1947
VHTTP/1.1
p1948
ssVtimings
p1949
(dp1950
Vcomment
p1951
g4
sVreceive
p1952
I0
sVsend
p1953
I0
sVssl
p1954
I-1
sVconnect
p1955
I-1
sVdns
p1956
I-1
sVwait
p1957
I30
sVblocked
p1958
I-1
ssVtime
p1959
I30
sVresponse
p1960
(dp1961
Vstatus
p1962
I204
sVcomment
p1963
g4
sVcookies
p1964
(lp1965
sVstatusText
p1966
VNo Content
p1967
sVcontent
p1968
(dp1969
VmimeType
p1970
Vtext/html; charset=UTF-8
p1971
sVcomment
p1972
g4
sVsize
p1973
I0
ssVheaders
p1974
(lp1975
sVheadersSize
p1976
I248
sVredirectURL
p1977
g4
sVbodySize
p1978
I0
sVhttpVersion
p1979
VHTTP/1.1
p1980
ssasVversion
p1981
V1.2
p1982
sVpages
p1983
(lp1984
(dp1985
VpageTimings
p1986
(dp1987
Vcomment
p1988
g4
ssVcomment
p1989
g4
sVtitle
p1990
VOlympics 
p1991
sVid
p1992
VOlympics 
p1993
sVstartedDateTime
p1994
V2017-04-16T07:58:22.387-05:00
p1995
sasVcreator
p1996
(dp1997
Vcomment
p1998
g4
sVversion
p1999
V2.1.4
p2000
sVname
p2001
VBrowserMob Proxy
p2002
sss.