(dp0
Vlog
p1
(dp2
Vcomment
p3
V
p4
sVentries
p5
(lp6
(dp7
Vcomment
p8
g4
sVserverIPAddress
p9
V216.58.216.196
p10
sVpageref
p11
VAlan Rickman
p12
sVstartedDateTime
p13
V2017-04-16T08:08:44.187-05:00
p14
sVcache
p15
(dp16
sVrequest
p17
(dp18
Vcomment
p19
g4
sVcookies
p20
(lp21
sVurl
p22
Vhttps://www.google.com/gen_204?atyp=i&ct=slh&cad=&ei=ymzzWPQc5qyPBNylvtgB&m=V&t=C&s=1&v=2&pv=0.43580510932020944&me=1:1492348108727,x:2,V,0,0,1280,944:0,N,1,ymzzWPQc5qyPBNylvtgB:0,R,1,24,8,155,1249,778:0,R,1,25,8,155,1249,778:0,R,1,29,8,168,1249,40:0,R,1,46,8,267,1249,178:0,R,1,49,0,283,1265,197:0,R,1,89,8,462,1249,20:0,R,1,90,24,462,1217,20:0,R,1,96,8,498,1249,20:0,R,1,112,8,583,1249,283:0,R,1,113,0,583,1265,303:0,R,1,170,8,943,1249,201:0,R,1,171,24,943,1217,190:3,B,3596:15453,e,U&zx=1492348124186
p23
sVqueryString
p24
(lp25
(dp26
Vname
p27
Vatyp
p28
sVvalue
p29
Vi
p30
sa(dp31
Vname
p32
Vct
p33
sVvalue
p34
Vslh
p35
sa(dp36
Vname
p37
Vcad
p38
sVvalue
p39
g4
sa(dp40
Vname
p41
Vei
p42
sVvalue
p43
VymzzWPQc5qyPBNylvtgB
p44
sa(dp45
Vname
p46
Vm
p47
sVvalue
p48
VV
p49
sa(dp50
Vname
p51
Vt
p52
sVvalue
p53
VC
p54
sa(dp55
Vname
p56
Vs
p57
sVvalue
p58
V1
p59
sa(dp60
Vname
p61
Vv
p62
sVvalue
p63
V2
p64
sa(dp65
Vname
p66
Vpv
p67
sVvalue
p68
V0.43580510932020944
p69
sa(dp70
Vname
p71
Vme
p72
sVvalue
p73
V1:1492348108727,x:2,V,0,0,1280,944:0,N,1,ymzzWPQc5qyPBNylvtgB:0,R,1,24,8,155,1249,778:0,R,1,25,8,155,1249,778:0,R,1,29,8,168,1249,40:0,R,1,46,8,267,1249,178:0,R,1,49,0,283,1265,197:0,R,1,89,8,462,1249,20:0,R,1,90,24,462,1217,20:0,R,1,96,8,498,1249,20:0,R,1,112,8,583,1249,283:0,R,1,113,0,583,1265,303:0,R,1,170,8,943,1249,201:0,R,1,171,24,943,1217,190:3,B,3596:15453,e,U
p74
sa(dp75
Vname
p76
Vzx
p77
sVvalue
p78
V1492348124186
p79
sasVheaders
p80
(lp81
sVheadersSize
p82
I1020
sVbodySize
p83
I0
sVmethod
p84
VGET
p85
sVhttpVersion
p86
VHTTP/1.1
p87
ssVtimings
p88
(dp89
Vcomment
p90
g4
sVreceive
p91
I0
sVsend
p92
I0
sVssl
p93
I-1
sVconnect
p94
I-1
sVdns
p95
I-1
sVwait
p96
I0
sVblocked
p97
I-1
ssVtime
p98
I0
sVresponse
p99
(dp100
Vstatus
p101
I0
sVcomment
p102
g4
sVcookies
p103
(lp104
sV_error
p105
VNo response received
p106
sVstatusText
p107
g4
sVcontent
p108
(dp109
VmimeType
p110
g4
sVcomment
p111
g4
sVsize
p112
I0
ssVheaders
p113
(lp114
sVheadersSize
p115
I-1
sVredirectURL
p116
g4
sVbodySize
p117
I-1
sVhttpVersion
p118
Vunknown
p119
ssa(dp120
Vcomment
p121
g4
sVserverIPAddress
p122
V216.58.216.196
p123
sVpageref
p124
VAlan Rickman
p125
sVstartedDateTime
p126
V2017-04-16T08:08:44.191-05:00
p127
sVcache
p128
(dp129
sVrequest
p130
(dp131
Vcomment
p132
g4
sVcookies
p133
(lp134
sVurl
p135
Vhttp://www.google.com/
p136
sVqueryString
p137
(lp138
sVheaders
p139
(lp140
sVheadersSize
p141
I613
sVbodySize
p142
I0
sVmethod
p143
VGET
p144
sVhttpVersion
p145
VHTTP/1.1
p146
ssVtimings
p147
(dp148
Vcomment
p149
g4
sVreceive
p150
I0
sVsend
p151
I0
sVssl
p152
I-1
sVconnect
p153
I-1
sVdns
p154
I-1
sVwait
p155
I173
sVblocked
p156
I-1
ssVtime
p157
I173
sVresponse
p158
(dp159
Vstatus
p160
I302
sVcomment
p161
g4
sVcookies
p162
(lp163
sVstatusText
p164
VFound
p165
sVcontent
p166
(dp167
VmimeType
p168
Vtext/html; charset=UTF-8
p169
sVcomment
p170
g4
sVsize
p171
I0
ssVheaders
p172
(lp173
sVheadersSize
p174
I609
sVredirectURL
p175
Vhttps://www.google.com/?gws_rd=ssl
p176
sVbodySize
p177
I231
sVhttpVersion
p178
VHTTP/1.1
p179
ssa(dp180
Vcomment
p181
g4
sVserverIPAddress
p182
V216.58.216.196
p183
sVpageref
p184
VAlan Rickman
p185
sVstartedDateTime
p186
V2017-04-16T08:08:44.369-05:00
p187
sVcache
p188
(dp189
sVrequest
p190
(dp191
Vcomment
p192
g4
sVcookies
p193
(lp194
sVurl
p195
Vhttps://www.google.com/?gws_rd=ssl
p196
sVqueryString
p197
(lp198
(dp199
Vname
p200
Vgws_rd
p201
sVvalue
p202
Vssl
p203
sasVheaders
p204
(lp205
sVheadersSize
p206
I607
sVbodySize
p207
I0
sVmethod
p208
VGET
p209
sVhttpVersion
p210
VHTTP/1.1
p211
ssVtimings
p212
(dp213
Vcomment
p214
g4
sVreceive
p215
I30
sVsend
p216
I0
sVssl
p217
I-1
sVconnect
p218
I-1
sVdns
p219
I-1
sVwait
p220
I425
sVblocked
p221
I-1
ssVtime
p222
I455
sVresponse
p223
(dp224
Vstatus
p225
I200
sVcomment
p226
g4
sVcookies
p227
(lp228
sVstatusText
p229
VOK
p230
sVcontent
p231
(dp232
VmimeType
p233
Vtext/html; charset=UTF-8
p234
sVcomment
p235
g4
sVsize
p236
I0
ssVheaders
p237
(lp238
sVheadersSize
p239
I721
sVredirectURL
p240
g4
sVbodySize
p241
I34292
sVhttpVersion
p242
VHTTP/1.1
p243
ssa(dp244
Vcomment
p245
g4
sVserverIPAddress
p246
V216.58.216.196
p247
sVpageref
p248
VAlan Rickman
p249
sVstartedDateTime
p250
V2017-04-16T08:08:44.799-05:00
p251
sVcache
p252
(dp253
sVrequest
p254
(dp255
Vcomment
p256
g4
sVcookies
p257
(lp258
sVurl
p259
Vhttps://www.google.com/gen_204?atyp=i&ct=slh&cad=&ei=ymzzWPQc5qyPBNylvtgB&s=2&v=2&pv=0.43580510932020944&me=18:1492348124797,e,H&zx=1492348124798
p260
sVqueryString
p261
(lp262
(dp263
Vname
p264
Vatyp
p265
sVvalue
p266
g30
sa(dp267
Vname
p268
Vct
p269
sVvalue
p270
Vslh
p271
sa(dp272
Vname
p273
Vcad
p274
sVvalue
p275
g4
sa(dp276
Vname
p277
Vei
p278
sVvalue
p279
VymzzWPQc5qyPBNylvtgB
p280
sa(dp281
Vname
p282
g57
sVvalue
p283
g64
sa(dp284
Vname
p285
g62
sVvalue
p286
g64
sa(dp287
Vname
p288
Vpv
p289
sVvalue
p290
V0.43580510932020944
p291
sa(dp292
Vname
p293
Vme
p294
sVvalue
p295
V18:1492348124797,e,H
p296
sa(dp297
Vname
p298
Vzx
p299
sVvalue
p300
V1492348124798
p301
sasVheaders
p302
(lp303
sVheadersSize
p304
I662
sVbodySize
p305
I0
sVmethod
p306
VGET
p307
sVhttpVersion
p308
VHTTP/1.1
p309
ssVtimings
p310
(dp311
Vcomment
p312
g4
sVreceive
p313
I0
sVsend
p314
I0
sVssl
p315
I-1
sVconnect
p316
I-1
sVdns
p317
I-1
sVwait
p318
I44
sVblocked
p319
I-1
ssVtime
p320
I44
sVresponse
p321
(dp322
Vstatus
p323
I204
sVcomment
p324
g4
sVcookies
p325
(lp326
sVstatusText
p327
VNo Content
p328
sVcontent
p329
(dp330
VmimeType
p331
Vtext/html; charset=UTF-8
p332
sVcomment
p333
g4
sVsize
p334
I0
ssVheaders
p335
(lp336
sVheadersSize
p337
I248
sVredirectURL
p338
g4
sVbodySize
p339
I0
sVhttpVersion
p340
VHTTP/1.1
p341
ssa(dp342
Vcomment
p343
g4
sVserverIPAddress
p344
V216.58.216.196
p345
sVpageref
p346
VAlan Rickman
p347
sVstartedDateTime
p348
V2017-04-16T08:08:45.011-05:00
p349
sVcache
p350
(dp351
sVrequest
p352
(dp353
Vcomment
p354
g4
sVcookies
p355
(lp356
sVurl
p357
Vhttps://www.google.com/gen_204?s=mobilewebhp&atyp=csi&ei=22zzWJzZGpW9jwSYxLToCQ&imc=1&imn=1&imp=0&adh=&xjs=init.23.12.sb_mob.17.dvl.3.c.1.jsa.1.foot.1&ima=1&rt=xjsls.9,prt.9,iml.9,dcl.35,xjses.76,xjsee.154,xjs.155,ol.185,aft.9,wsrt.636,cst.0,dnst.0,rqst.457,rspt.31,rqstt.183,unt.182,cstt.182,dit.662
p358
sVqueryString
p359
(lp360
(dp361
Vname
p362
g57
sVvalue
p363
Vmobilewebhp
p364
sa(dp365
Vname
p366
Vatyp
p367
sVvalue
p368
Vcsi
p369
sa(dp370
Vname
p371
Vei
p372
sVvalue
p373
V22zzWJzZGpW9jwSYxLToCQ
p374
sa(dp375
Vname
p376
Vimc
p377
sVvalue
p378
g59
sa(dp379
Vname
p380
Vimn
p381
sVvalue
p382
g59
sa(dp383
Vname
p384
Vimp
p385
sVvalue
p386
V0
p387
sa(dp388
Vname
p389
Vadh
p390
sVvalue
p391
g4
sa(dp392
Vname
p393
Vxjs
p394
sVvalue
p395
Vinit.23.12.sb_mob.17.dvl.3.c.1.jsa.1.foot.1
p396
sa(dp397
Vname
p398
Vima
p399
sVvalue
p400
g59
sa(dp401
Vname
p402
Vrt
p403
sVvalue
p404
Vxjsls.9,prt.9,iml.9,dcl.35,xjses.76,xjsee.154,xjs.155,ol.185,aft.9,wsrt.636,cst.0,dnst.0,rqst.457,rspt.31,rqstt.183,unt.182,cstt.182,dit.662
p405
sasVheaders
p406
(lp407
sVheadersSize
p408
I828
sVbodySize
p409
I0
sVmethod
p410
VGET
p411
sVhttpVersion
p412
VHTTP/1.1
p413
ssVtimings
p414
(dp415
Vcomment
p416
g4
sVreceive
p417
I0
sVsend
p418
I0
sVssl
p419
I-1
sVconnect
p420
I-1
sVdns
p421
I-1
sVwait
p422
I28
sVblocked
p423
I-1
ssVtime
p424
I28
sVresponse
p425
(dp426
Vstatus
p427
I204
sVcomment
p428
g4
sVcookies
p429
(lp430
sVstatusText
p431
VNo Content
p432
sVcontent
p433
(dp434
VmimeType
p435
Vtext/html; charset=UTF-8
p436
sVcomment
p437
g4
sVsize
p438
I0
ssVheaders
p439
(lp440
sVheadersSize
p441
I248
sVredirectURL
p442
g4
sVbodySize
p443
I0
sVhttpVersion
p444
VHTTP/1.1
p445
ssa(dp446
Vcomment
p447
g4
sVserverIPAddress
p448
V216.58.216.196
p449
sVpageref
p450
VAlan Rickman
p451
sVstartedDateTime
p452
V2017-04-16T08:08:45.157-05:00
p453
sVcache
p454
(dp455
sVrequest
p456
(dp457
Vcomment
p458
g4
sVcookies
p459
(lp460
sVurl
p461
Vhttps://www.google.com/complete/search?client=mobile-gws-hp&hl=en&gs_rn=64&gs_ri=mobile-gws-hp&sla=1&pfq=adam%20driver&gm=602&cp=0&gs_id=1&xhr=t&q=A&tch=1&ech=1&psi=22zzWJzZGpW9jwSYxLToCQ.1492348124953.1
p462
sVqueryString
p463
(lp464
(dp465
Vname
p466
Vclient
p467
sVvalue
p468
Vmobile-gws-hp
p469
sa(dp470
Vname
p471
Vhl
p472
sVvalue
p473
Ven
p474
sa(dp475
Vname
p476
Vgs_rn
p477
sVvalue
p478
V64
p479
sa(dp480
Vname
p481
Vgs_ri
p482
sVvalue
p483
Vmobile-gws-hp
p484
sa(dp485
Vname
p486
Vsla
p487
sVvalue
p488
g59
sa(dp489
Vname
p490
Vpfq
p491
sVvalue
p492
Vadam driver
p493
sa(dp494
Vname
p495
Vgm
p496
sVvalue
p497
V602
p498
sa(dp499
Vname
p500
Vcp
p501
sVvalue
p502
g387
sa(dp503
Vname
p504
Vgs_id
p505
sVvalue
p506
g59
sa(dp507
Vname
p508
Vxhr
p509
sVvalue
p510
g52
sa(dp511
Vname
p512
Vq
p513
sVvalue
p514
VA
p515
sa(dp516
Vname
p517
Vtch
p518
sVvalue
p519
g59
sa(dp520
Vname
p521
Vech
p522
sVvalue
p523
g59
sa(dp524
Vname
p525
Vpsi
p526
sVvalue
p527
V22zzWJzZGpW9jwSYxLToCQ.1492348124953.1
p528
sasVheaders
p529
(lp530
sVheadersSize
p531
I731
sVbodySize
p532
I0
sVmethod
p533
VGET
p534
sVhttpVersion
p535
VHTTP/1.1
p536
ssVtimings
p537
(dp538
Vcomment
p539
g4
sVreceive
p540
I0
sVsend
p541
I0
sVssl
p542
I-1
sVconnect
p543
I-1
sVdns
p544
I-1
sVwait
p545
I0
sVblocked
p546
I-1
ssVtime
p547
I0
sVresponse
p548
(dp549
Vstatus
p550
I0
sVcomment
p551
g4
sVcookies
p552
(lp553
sV_error
p554
VNo response received
p555
sVstatusText
p556
g4
sVcontent
p557
(dp558
VmimeType
p559
g4
sVcomment
p560
g4
sVsize
p561
I0
ssVheaders
p562
(lp563
sVheadersSize
p564
I-1
sVredirectURL
p565
g4
sVbodySize
p566
I-1
sVhttpVersion
p567
Vunknown
p568
ssa(dp569
Vcomment
p570
g4
sVserverIPAddress
p571
V216.58.216.196
p572
sVpageref
p573
VAlan Rickman
p574
sVstartedDateTime
p575
V2017-04-16T08:08:45.331-05:00
p576
sVcache
p577
(dp578
sVrequest
p579
(dp580
Vcomment
p581
g4
sVcookies
p582
(lp583
sVurl
p584
Vhttps://www.google.com/search?site=&source=hp&ei=22zzWJzZGpW9jwSYxLToCQ&q=Alan+Rickman&oq=Alan+Rickman&gs_l=mobile-gws-hp.3...186.219.0.355.12.1.0.0.0.0.0.0..0.0....0...1c.1.64.mobile-gws-hp..12.0.0.35odpX34hik
p585
sVqueryString
p586
(lp587
(dp588
Vname
p589
Vsite
p590
sVvalue
p591
g4
sa(dp592
Vname
p593
Vsource
p594
sVvalue
p595
Vhp
p596
sa(dp597
Vname
p598
Vei
p599
sVvalue
p600
V22zzWJzZGpW9jwSYxLToCQ
p601
sa(dp602
Vname
p603
g513
sVvalue
p604
VAlan Rickman
p605
sa(dp606
Vname
p607
Voq
p608
sVvalue
p609
VAlan Rickman
p610
sa(dp611
Vname
p612
Vgs_l
p613
sVvalue
p614
Vmobile-gws-hp.3...186.219.0.355.12.1.0.0.0.0.0.0..0.0....0...1c.1.64.mobile-gws-hp..12.0.0.35odpX34hik
p615
sasVheaders
p616
(lp617
sVheadersSize
p618
I828
sVbodySize
p619
I0
sVmethod
p620
VGET
p621
sVhttpVersion
p622
VHTTP/1.1
p623
ssVtimings
p624
(dp625
Vcomment
p626
g4
sVreceive
p627
I683
sVsend
p628
I0
sVssl
p629
I-1
sVconnect
p630
I-1
sVdns
p631
I-1
sVwait
p632
I94
sVblocked
p633
I-1
ssVtime
p634
I777
sVresponse
p635
(dp636
Vstatus
p637
I200
sVcomment
p638
g4
sVcookies
p639
(lp640
sVstatusText
p641
VOK
p642
sVcontent
p643
(dp644
VmimeType
p645
Vtext/html; charset=UTF-8
p646
sVcomment
p647
g4
sVsize
p648
I0
ssVheaders
p649
(lp650
sVheadersSize
p651
I363
sVredirectURL
p652
g4
sVbodySize
p653
I100778
sVhttpVersion
p654
VHTTP/1.1
p655
ssa(dp656
Vcomment
p657
g4
sVserverIPAddress
p658
V216.58.216.196
p659
sVpageref
p660
VAlan Rickman
p661
sVstartedDateTime
p662
V2017-04-16T08:08:47.040-05:00
p663
sVcache
p664
(dp665
sVrequest
p666
(dp667
Vcomment
p668
g4
sVcookies
p669
(lp670
sVurl
p671
Vhttps://www.google.com/gen_204?atyp=i&ct=&cad=&uact=1&vet=10ahUKEwih5tT-hanTAhXp4IMKHX_wCgkQ9V8IKigA..s&ei=3GzzWKGIFenBjwT_4KtI&zx=1492348127039
p672
sVqueryString
p673
(lp674
(dp675
Vname
p676
Vatyp
p677
sVvalue
p678
g30
sa(dp679
Vname
p680
Vct
p681
sVvalue
p682
g4
sa(dp683
Vname
p684
Vcad
p685
sVvalue
p686
g4
sa(dp687
Vname
p688
Vuact
p689
sVvalue
p690
g59
sa(dp691
Vname
p692
Vvet
p693
sVvalue
p694
V10ahUKEwih5tT-hanTAhXp4IMKHX_wCgkQ9V8IKigA..s
p695
sa(dp696
Vname
p697
Vei
p698
sVvalue
p699
V3GzzWKGIFenBjwT_4KtI
p700
sa(dp701
Vname
p702
Vzx
p703
sVvalue
p704
V1492348127039
p705
sasVheaders
p706
(lp707
sVheadersSize
p708
I661
sVbodySize
p709
I0
sVmethod
p710
VGET
p711
sVhttpVersion
p712
VHTTP/1.1
p713
ssVtimings
p714
(dp715
Vcomment
p716
g4
sVreceive
p717
I0
sVsend
p718
I0
sVssl
p719
I-1
sVconnect
p720
I-1
sVdns
p721
I-1
sVwait
p722
I25
sVblocked
p723
I-1
ssVtime
p724
I26
sVresponse
p725
(dp726
Vstatus
p727
I204
sVcomment
p728
g4
sVcookies
p729
(lp730
sVstatusText
p731
VNo Content
p732
sVcontent
p733
(dp734
VmimeType
p735
Vtext/html; charset=UTF-8
p736
sVcomment
p737
g4
sVsize
p738
I0
ssVheaders
p739
(lp740
sVheadersSize
p741
I248
sVredirectURL
p742
g4
sVbodySize
p743
I0
sVhttpVersion
p744
VHTTP/1.1
p745
ssa(dp746
Vcomment
p747
g4
sVserverIPAddress
p748
V216.58.216.196
p749
sVpageref
p750
VAlan Rickman
p751
sVstartedDateTime
p752
V2017-04-16T08:08:47.042-05:00
p753
sVcache
p754
(dp755
sVrequest
p756
(dp757
Vcomment
p758
g4
sVcookies
p759
(lp760
sVurl
p761
Vhttps://www.google.com/gen_204?atyp=i&ct=&cad=&uact=1&vet=10ahUKEwih5tT-hanTAhXp4IMKHX_wCgkQ9V8IKygB..s&ei=3GzzWKGIFenBjwT_4KtI&zx=1492348127041
p762
sVqueryString
p763
(lp764
(dp765
Vname
p766
Vatyp
p767
sVvalue
p768
g30
sa(dp769
Vname
p770
Vct
p771
sVvalue
p772
g4
sa(dp773
Vname
p774
Vcad
p775
sVvalue
p776
g4
sa(dp777
Vname
p778
Vuact
p779
sVvalue
p780
g59
sa(dp781
Vname
p782
Vvet
p783
sVvalue
p784
V10ahUKEwih5tT-hanTAhXp4IMKHX_wCgkQ9V8IKygB..s
p785
sa(dp786
Vname
p787
Vei
p788
sVvalue
p789
V3GzzWKGIFenBjwT_4KtI
p790
sa(dp791
Vname
p792
Vzx
p793
sVvalue
p794
V1492348127041
p795
sasVheaders
p796
(lp797
sVheadersSize
p798
I661
sVbodySize
p799
I0
sVmethod
p800
VGET
p801
sVhttpVersion
p802
VHTTP/1.1
p803
ssVtimings
p804
(dp805
Vcomment
p806
g4
sVreceive
p807
I0
sVsend
p808
I0
sVssl
p809
I-1
sVconnect
p810
I-1
sVdns
p811
I-1
sVwait
p812
I30
sVblocked
p813
I-1
ssVtime
p814
I30
sVresponse
p815
(dp816
Vstatus
p817
I204
sVcomment
p818
g4
sVcookies
p819
(lp820
sVstatusText
p821
VNo Content
p822
sVcontent
p823
(dp824
VmimeType
p825
Vtext/html; charset=UTF-8
p826
sVcomment
p827
g4
sVsize
p828
I0
ssVheaders
p829
(lp830
sVheadersSize
p831
I248
sVredirectURL
p832
g4
sVbodySize
p833
I0
sVhttpVersion
p834
VHTTP/1.1
p835
ssa(dp836
Vcomment
p837
g4
sVserverIPAddress
p838
V216.58.216.196
p839
sVpageref
p840
VAlan Rickman
p841
sVstartedDateTime
p842
V2017-04-16T08:08:47.044-05:00
p843
sVcache
p844
(dp845
sVrequest
p846
(dp847
Vcomment
p848
g4
sVcookies
p849
(lp850
sVurl
p851
Vhttps://www.google.com/gen_204?atyp=i&ct=&cad=&uact=1&vet=10ahUKEwih5tT-hanTAhXp4IMKHX_wCgkQ9V8ILCgC..s&ei=3GzzWKGIFenBjwT_4KtI&zx=1492348127043
p852
sVqueryString
p853
(lp854
(dp855
Vname
p856
Vatyp
p857
sVvalue
p858
g30
sa(dp859
Vname
p860
Vct
p861
sVvalue
p862
g4
sa(dp863
Vname
p864
Vcad
p865
sVvalue
p866
g4
sa(dp867
Vname
p868
Vuact
p869
sVvalue
p870
g59
sa(dp871
Vname
p872
Vvet
p873
sVvalue
p874
V10ahUKEwih5tT-hanTAhXp4IMKHX_wCgkQ9V8ILCgC..s
p875
sa(dp876
Vname
p877
Vei
p878
sVvalue
p879
V3GzzWKGIFenBjwT_4KtI
p880
sa(dp881
Vname
p882
Vzx
p883
sVvalue
p884
V1492348127043
p885
sasVheaders
p886
(lp887
sVheadersSize
p888
I661
sVbodySize
p889
I0
sVmethod
p890
VGET
p891
sVhttpVersion
p892
VHTTP/1.1
p893
ssVtimings
p894
(dp895
Vcomment
p896
g4
sVreceive
p897
I0
sVsend
p898
I0
sVssl
p899
I-1
sVconnect
p900
I-1
sVdns
p901
I-1
sVwait
p902
I32
sVblocked
p903
I-1
ssVtime
p904
I32
sVresponse
p905
(dp906
Vstatus
p907
I204
sVcomment
p908
g4
sVcookies
p909
(lp910
sVstatusText
p911
VNo Content
p912
sVcontent
p913
(dp914
VmimeType
p915
Vtext/html; charset=UTF-8
p916
sVcomment
p917
g4
sVsize
p918
I0
ssVheaders
p919
(lp920
sVheadersSize
p921
I248
sVredirectURL
p922
g4
sVbodySize
p923
I0
sVhttpVersion
p924
VHTTP/1.1
p925
ssa(dp926
Vcomment
p927
g4
sVserverIPAddress
p928
V216.58.216.196
p929
sVpageref
p930
VAlan Rickman
p931
sVstartedDateTime
p932
V2017-04-16T08:08:47.060-05:00
p933
sVcache
p934
(dp935
sVrequest
p936
(dp937
Vcomment
p938
g4
sVcookies
p939
(lp940
sVurl
p941
Vhttps://www.google.com/async/irc?vet=10ahUKEwih5tT-hanTAhXp4IMKHX_wCgkQo0EIiwI..i&ved=0ahUKEwih5tT-hanTAhXp4IMKHX_wCgkQo0EIiwI&ei=3GzzWKGIFenBjwT_4KtI&yv=2&async=iu:1,ved:0ahUKEwih5tT-hanTAhXp4IMKHX_wCgkQo0EIiwI,_id:irc_async,_pms:qs
p942
sVqueryString
p943
(lp944
(dp945
Vname
p946
Vvet
p947
sVvalue
p948
V10ahUKEwih5tT-hanTAhXp4IMKHX_wCgkQo0EIiwI..i
p949
sa(dp950
Vname
p951
Vved
p952
sVvalue
p953
V0ahUKEwih5tT-hanTAhXp4IMKHX_wCgkQo0EIiwI
p954
sa(dp955
Vname
p956
Vei
p957
sVvalue
p958
V3GzzWKGIFenBjwT_4KtI
p959
sa(dp960
Vname
p961
Vyv
p962
sVvalue
p963
g64
sa(dp964
Vname
p965
Vasync
p966
sVvalue
p967
Viu:1,ved:0ahUKEwih5tT-hanTAhXp4IMKHX_wCgkQo0EIiwI,_id:irc_async,_pms:qs
p968
sasVheaders
p969
(lp970
sVheadersSize
p971
I750
sVbodySize
p972
I0
sVmethod
p973
VGET
p974
sVhttpVersion
p975
VHTTP/1.1
p976
ssVtimings
p977
(dp978
Vcomment
p979
g4
sVreceive
p980
I2
sVsend
p981
I0
sVssl
p982
I-1
sVconnect
p983
I-1
sVdns
p984
I-1
sVwait
p985
I44
sVblocked
p986
I-1
ssVtime
p987
I46
sVresponse
p988
(dp989
Vstatus
p990
I200
sVcomment
p991
g4
sVcookies
p992
(lp993
sVstatusText
p994
VOK
p995
sVcontent
p996
(dp997
VmimeType
p998
Vtext/html; charset=UTF-8
p999
sVcomment
p1000
g4
sVsize
p1001
I0
ssVheaders
p1002
(lp1003
sVheadersSize
p1004
I383
sVredirectURL
p1005
g4
sVbodySize
p1006
I7787
sVhttpVersion
p1007
VHTTP/1.1
p1008
ssa(dp1009
Vcomment
p1010
g4
sVserverIPAddress
p1011
V216.58.216.196
p1012
sVpageref
p1013
VAlan Rickman
p1014
sVstartedDateTime
p1015
V2017-04-16T08:08:47.069-05:00
p1016
sVcache
p1017
(dp1018
sVrequest
p1019
(dp1020
Vcomment
p1021
g4
sVcookies
p1022
(lp1023
sVurl
p1024
Vhttps://www.google.com/gen_204?atyp=i&ct=&cad=&vet=10ahUKEwih5tT-hanTAhXp4IMKHX_wCgkQ5W0IOSgC..s&ei=3GzzWKGIFenBjwT_4KtI&zx=1492348127068
p1025
sVqueryString
p1026
(lp1027
(dp1028
Vname
p1029
Vatyp
p1030
sVvalue
p1031
g30
sa(dp1032
Vname
p1033
Vct
p1034
sVvalue
p1035
g4
sa(dp1036
Vname
p1037
Vcad
p1038
sVvalue
p1039
g4
sa(dp1040
Vname
p1041
Vvet
p1042
sVvalue
p1043
V10ahUKEwih5tT-hanTAhXp4IMKHX_wCgkQ5W0IOSgC..s
p1044
sa(dp1045
Vname
p1046
Vei
p1047
sVvalue
p1048
V3GzzWKGIFenBjwT_4KtI
p1049
sa(dp1050
Vname
p1051
Vzx
p1052
sVvalue
p1053
V1492348127068
p1054
sasVheaders
p1055
(lp1056
sVheadersSize
p1057
I654
sVbodySize
p1058
I0
sVmethod
p1059
VGET
p1060
sVhttpVersion
p1061
VHTTP/1.1
p1062
ssVtimings
p1063
(dp1064
Vcomment
p1065
g4
sVreceive
p1066
I0
sVsend
p1067
I0
sVssl
p1068
I-1
sVconnect
p1069
I-1
sVdns
p1070
I-1
sVwait
p1071
I28
sVblocked
p1072
I-1
ssVtime
p1073
I28
sVresponse
p1074
(dp1075
Vstatus
p1076
I204
sVcomment
p1077
g4
sVcookies
p1078
(lp1079
sVstatusText
p1080
VNo Content
p1081
sVcontent
p1082
(dp1083
VmimeType
p1084
Vtext/html; charset=UTF-8
p1085
sVcomment
p1086
g4
sVsize
p1087
I0
ssVheaders
p1088
(lp1089
sVheadersSize
p1090
I248
sVredirectURL
p1091
g4
sVbodySize
p1092
I0
sVhttpVersion
p1093
VHTTP/1.1
p1094
ssa(dp1095
Vcomment
p1096
g4
sVserverIPAddress
p1097
V216.58.216.196
p1098
sVpageref
p1099
VAlan Rickman
p1100
sVstartedDateTime
p1101
V2017-04-16T08:08:47.075-05:00
p1102
sVcache
p1103
(dp1104
sVrequest
p1105
(dp1106
Vcomment
p1107
g4
sVcookies
p1108
(lp1109
sVurl
p1110
Vhttps://www.google.com/gen_204?atyp=i&ct=&cad=&vet=10ahUKEwih5tT-hanTAhXp4IMKHX_wCgkQ5W0IQigF..s&ei=3GzzWKGIFenBjwT_4KtI&zx=1492348127074
p1111
sVqueryString
p1112
(lp1113
(dp1114
Vname
p1115
Vatyp
p1116
sVvalue
p1117
g30
sa(dp1118
Vname
p1119
Vct
p1120
sVvalue
p1121
g4
sa(dp1122
Vname
p1123
Vcad
p1124
sVvalue
p1125
g4
sa(dp1126
Vname
p1127
Vvet
p1128
sVvalue
p1129
V10ahUKEwih5tT-hanTAhXp4IMKHX_wCgkQ5W0IQigF..s
p1130
sa(dp1131
Vname
p1132
Vei
p1133
sVvalue
p1134
V3GzzWKGIFenBjwT_4KtI
p1135
sa(dp1136
Vname
p1137
Vzx
p1138
sVvalue
p1139
V1492348127074
p1140
sasVheaders
p1141
(lp1142
sVheadersSize
p1143
I654
sVbodySize
p1144
I0
sVmethod
p1145
VGET
p1146
sVhttpVersion
p1147
VHTTP/1.1
p1148
ssVtimings
p1149
(dp1150
Vcomment
p1151
g4
sVreceive
p1152
I0
sVsend
p1153
I0
sVssl
p1154
I-1
sVconnect
p1155
I-1
sVdns
p1156
I-1
sVwait
p1157
I29
sVblocked
p1158
I-1
ssVtime
p1159
I29
sVresponse
p1160
(dp1161
Vstatus
p1162
I204
sVcomment
p1163
g4
sVcookies
p1164
(lp1165
sVstatusText
p1166
VNo Content
p1167
sVcontent
p1168
(dp1169
VmimeType
p1170
Vtext/html; charset=UTF-8
p1171
sVcomment
p1172
g4
sVsize
p1173
I0
ssVheaders
p1174
(lp1175
sVheadersSize
p1176
I248
sVredirectURL
p1177
g4
sVbodySize
p1178
I0
sVhttpVersion
p1179
VHTTP/1.1
p1180
ssa(dp1181
Vcomment
p1182
g4
sVserverIPAddress
p1183
V216.58.216.196
p1184
sVpageref
p1185
VAlan Rickman
p1186
sVstartedDateTime
p1187
V2017-04-16T08:08:47.078-05:00
p1188
sVcache
p1189
(dp1190
sVrequest
p1191
(dp1192
Vcomment
p1193
g4
sVcookies
p1194
(lp1195
sVurl
p1196
Vhttps://www.google.com/gen_204?atyp=i&ct=&cad=&vet=10ahUKEwih5tT-hanTAhXp4IMKHX_wCgkQ5W0IRSgG..s&ei=3GzzWKGIFenBjwT_4KtI&zx=1492348127077
p1197
sVqueryString
p1198
(lp1199
(dp1200
Vname
p1201
Vatyp
p1202
sVvalue
p1203
g30
sa(dp1204
Vname
p1205
Vct
p1206
sVvalue
p1207
g4
sa(dp1208
Vname
p1209
Vcad
p1210
sVvalue
p1211
g4
sa(dp1212
Vname
p1213
Vvet
p1214
sVvalue
p1215
V10ahUKEwih5tT-hanTAhXp4IMKHX_wCgkQ5W0IRSgG..s
p1216
sa(dp1217
Vname
p1218
Vei
p1219
sVvalue
p1220
V3GzzWKGIFenBjwT_4KtI
p1221
sa(dp1222
Vname
p1223
Vzx
p1224
sVvalue
p1225
V1492348127077
p1226
sasVheaders
p1227
(lp1228
sVheadersSize
p1229
I654
sVbodySize
p1230
I0
sVmethod
p1231
VGET
p1232
sVhttpVersion
p1233
VHTTP/1.1
p1234
ssVtimings
p1235
(dp1236
Vcomment
p1237
g4
sVreceive
p1238
I0
sVsend
p1239
I0
sVssl
p1240
I-1
sVconnect
p1241
I-1
sVdns
p1242
I-1
sVwait
p1243
I28
sVblocked
p1244
I-1
ssVtime
p1245
I28
sVresponse
p1246
(dp1247
Vstatus
p1248
I204
sVcomment
p1249
g4
sVcookies
p1250
(lp1251
sVstatusText
p1252
VNo Content
p1253
sVcontent
p1254
(dp1255
VmimeType
p1256
Vtext/html; charset=UTF-8
p1257
sVcomment
p1258
g4
sVsize
p1259
I0
ssVheaders
p1260
(lp1261
sVheadersSize
p1262
I248
sVredirectURL
p1263
g4
sVbodySize
p1264
I0
sVhttpVersion
p1265
VHTTP/1.1
p1266
ssa(dp1267
Vcomment
p1268
g4
sVserverIPAddress
p1269
V216.58.216.196
p1270
sVpageref
p1271
VAlan Rickman
p1272
sVstartedDateTime
p1273
V2017-04-16T08:08:47.099-05:00
p1274
sVcache
p1275
(dp1276
sVrequest
p1277
(dp1278
Vcomment
p1279
g4
sVcookies
p1280
(lp1281
sVurl
p1282
Vhttps://www.google.com/gen_204?atyp=i&ct=&cad=&vet=10ahUKEwih5tT-hanTAhXp4IMKHX_wCgkQ5W0ISCgH..s&ei=3GzzWKGIFenBjwT_4KtI&zx=1492348127079
p1283
sVqueryString
p1284
(lp1285
(dp1286
Vname
p1287
Vatyp
p1288
sVvalue
p1289
g30
sa(dp1290
Vname
p1291
Vct
p1292
sVvalue
p1293
g4
sa(dp1294
Vname
p1295
Vcad
p1296
sVvalue
p1297
g4
sa(dp1298
Vname
p1299
Vvet
p1300
sVvalue
p1301
V10ahUKEwih5tT-hanTAhXp4IMKHX_wCgkQ5W0ISCgH..s
p1302
sa(dp1303
Vname
p1304
Vei
p1305
sVvalue
p1306
V3GzzWKGIFenBjwT_4KtI
p1307
sa(dp1308
Vname
p1309
Vzx
p1310
sVvalue
p1311
V1492348127079
p1312
sasVheaders
p1313
(lp1314
sVheadersSize
p1315
I654
sVbodySize
p1316
I0
sVmethod
p1317
VGET
p1318
sVhttpVersion
p1319
VHTTP/1.1
p1320
ssVtimings
p1321
(dp1322
Vcomment
p1323
g4
sVreceive
p1324
I0
sVsend
p1325
I0
sVssl
p1326
I-1
sVconnect
p1327
I-1
sVdns
p1328
I-1
sVwait
p1329
I22
sVblocked
p1330
I-1
ssVtime
p1331
I22
sVresponse
p1332
(dp1333
Vstatus
p1334
I204
sVcomment
p1335
g4
sVcookies
p1336
(lp1337
sVstatusText
p1338
VNo Content
p1339
sVcontent
p1340
(dp1341
VmimeType
p1342
Vtext/html; charset=UTF-8
p1343
sVcomment
p1344
g4
sVsize
p1345
I0
ssVheaders
p1346
(lp1347
sVheadersSize
p1348
I248
sVredirectURL
p1349
g4
sVbodySize
p1350
I0
sVhttpVersion
p1351
VHTTP/1.1
p1352
ssa(dp1353
Vcomment
p1354
g4
sVserverIPAddress
p1355
V216.58.216.206
p1356
sVpageref
p1357
VAlan Rickman
p1358
sVstartedDateTime
p1359
V2017-04-16T08:08:47.106-05:00
p1360
sVcache
p1361
(dp1362
sVrequest
p1363
(dp1364
Vcomment
p1365
g4
sVcookies
p1366
(lp1367
sVurl
p1368
Vhttps://encrypted-tbn3.gstatic.com/images?q=tbn:ANd9GcRusTvyvMc5SjUKoyKWN4IP0iKb5X609X5t_7BXhni9H1FM7jGHt2ykMp1Z8JNinLcGnqvm
p1369
sVqueryString
p1370
(lp1371
(dp1372
Vname
p1373
g513
sVvalue
p1374
Vtbn:ANd9GcRusTvyvMc5SjUKoyKWN4IP0iKb5X609X5t_7BXhni9H1FM7jGHt2ykMp1Z8JNinLcGnqvm
p1375
sasVheaders
p1376
(lp1377
sVheadersSize
p1378
I439
sVbodySize
p1379
I0
sVmethod
p1380
VGET
p1381
sVhttpVersion
p1382
VHTTP/1.1
p1383
ssVtimings
p1384
(dp1385
Vcomment
p1386
g4
sVreceive
p1387
I0
sVsend
p1388
I0
sVssl
p1389
I-1
sVconnect
p1390
I-1
sVdns
p1391
I-1
sVwait
p1392
I25
sVblocked
p1393
I-1
ssVtime
p1394
I25
sVresponse
p1395
(dp1396
Vstatus
p1397
I200
sVcomment
p1398
g4
sVcookies
p1399
(lp1400
sVstatusText
p1401
VOK
p1402
sVcontent
p1403
(dp1404
VmimeType
p1405
Vimage/jpeg
p1406
sVcomment
p1407
g4
sVsize
p1408
I0
ssVheaders
p1409
(lp1410
sVheadersSize
p1411
I429
sVredirectURL
p1412
g4
sVbodySize
p1413
I5437
sVhttpVersion
p1414
VHTTP/1.1
p1415
ssa(dp1416
Vcomment
p1417
g4
sVserverIPAddress
p1418
V216.58.216.196
p1419
sVpageref
p1420
VAlan Rickman
p1421
sVstartedDateTime
p1422
V2017-04-16T08:08:47.108-05:00
p1423
sVcache
p1424
(dp1425
sVrequest
p1426
(dp1427
Vcomment
p1428
g4
sVcookies
p1429
(lp1430
sVurl
p1431
Vhttps://www.google.com/gen_204?atyp=i&ct=&cad=&vet=10ahUKEwih5tT-hanTAhXp4IMKHX_wCgkQlEsIeSgDMBM..s&ei=3GzzWKGIFenBjwT_4KtI&zx=1492348127105
p1432
sVqueryString
p1433
(lp1434
(dp1435
Vname
p1436
Vatyp
p1437
sVvalue
p1438
g30
sa(dp1439
Vname
p1440
Vct
p1441
sVvalue
p1442
g4
sa(dp1443
Vname
p1444
Vcad
p1445
sVvalue
p1446
g4
sa(dp1447
Vname
p1448
Vvet
p1449
sVvalue
p1450
V10ahUKEwih5tT-hanTAhXp4IMKHX_wCgkQlEsIeSgDMBM..s
p1451
sa(dp1452
Vname
p1453
Vei
p1454
sVvalue
p1455
V3GzzWKGIFenBjwT_4KtI
p1456
sa(dp1457
Vname
p1458
Vzx
p1459
sVvalue
p1460
V1492348127105
p1461
sasVheaders
p1462
(lp1463
sVheadersSize
p1464
I657
sVbodySize
p1465
I0
sVmethod
p1466
VGET
p1467
sVhttpVersion
p1468
VHTTP/1.1
p1469
ssVtimings
p1470
(dp1471
Vcomment
p1472
g4
sVreceive
p1473
I0
sVsend
p1474
I0
sVssl
p1475
I-1
sVconnect
p1476
I-1
sVdns
p1477
I-1
sVwait
p1478
I34
sVblocked
p1479
I-1
ssVtime
p1480
I34
sVresponse
p1481
(dp1482
Vstatus
p1483
I204
sVcomment
p1484
g4
sVcookies
p1485
(lp1486
sVstatusText
p1487
VNo Content
p1488
sVcontent
p1489
(dp1490
VmimeType
p1491
Vtext/html; charset=UTF-8
p1492
sVcomment
p1493
g4
sVsize
p1494
I0
ssVheaders
p1495
(lp1496
sVheadersSize
p1497
I248
sVredirectURL
p1498
g4
sVbodySize
p1499
I0
sVhttpVersion
p1500
VHTTP/1.1
p1501
ssa(dp1502
Vcomment
p1503
g4
sVserverIPAddress
p1504
V216.58.216.196
p1505
sVpageref
p1506
VAlan Rickman
p1507
sVstartedDateTime
p1508
V2017-04-16T08:08:47.111-05:00
p1509
sVcache
p1510
(dp1511
sVrequest
p1512
(dp1513
Vcomment
p1514
g4
sVcookies
p1515
(lp1516
sVurl
p1517
Vhttps://www.google.com/gen_204?atyp=i&ct=&cad=&vet=10ahUKEwih5tT-hanTAhXp4IMKHX_wCgkQ5W0IPCgD..s&ei=3GzzWKGIFenBjwT_4KtI&zx=1492348127070
p1518
sVqueryString
p1519
(lp1520
(dp1521
Vname
p1522
Vatyp
p1523
sVvalue
p1524
g30
sa(dp1525
Vname
p1526
Vct
p1527
sVvalue
p1528
g4
sa(dp1529
Vname
p1530
Vcad
p1531
sVvalue
p1532
g4
sa(dp1533
Vname
p1534
Vvet
p1535
sVvalue
p1536
V10ahUKEwih5tT-hanTAhXp4IMKHX_wCgkQ5W0IPCgD..s
p1537
sa(dp1538
Vname
p1539
Vei
p1540
sVvalue
p1541
V3GzzWKGIFenBjwT_4KtI
p1542
sa(dp1543
Vname
p1544
Vzx
p1545
sVvalue
p1546
V1492348127070
p1547
sasVheaders
p1548
(lp1549
sVheadersSize
p1550
I654
sVbodySize
p1551
I0
sVmethod
p1552
VGET
p1553
sVhttpVersion
p1554
VHTTP/1.1
p1555
ssVtimings
p1556
(dp1557
Vcomment
p1558
g4
sVreceive
p1559
I0
sVsend
p1560
I0
sVssl
p1561
I25
sVconnect
p1562
I38
sVdns
p1563
I0
sVwait
p1564
I31
sVblocked
p1565
I0
ssVtime
p1566
I69
sVresponse
p1567
(dp1568
Vstatus
p1569
I204
sVcomment
p1570
g4
sVcookies
p1571
(lp1572
sVstatusText
p1573
VNo Content
p1574
sVcontent
p1575
(dp1576
VmimeType
p1577
Vtext/html; charset=UTF-8
p1578
sVcomment
p1579
g4
sVsize
p1580
I0
ssVheaders
p1581
(lp1582
sVheadersSize
p1583
I248
sVredirectURL
p1584
g4
sVbodySize
p1585
I0
sVhttpVersion
p1586
VHTTP/1.1
p1587
ssa(dp1588
Vcomment
p1589
g4
sVserverIPAddress
p1590
V216.58.216.206
p1591
sVpageref
p1592
VAlan Rickman
p1593
sVstartedDateTime
p1594
V2017-04-16T08:08:47.111-05:00
p1595
sVcache
p1596
(dp1597
sVrequest
p1598
(dp1599
Vcomment
p1600
g4
sVcookies
p1601
(lp1602
sVurl
p1603
Vhttps://encrypted-tbn0.gstatic.com/images?q=tbn:ANd9GcTdjXrK5bmJWY_9lSL9UGIqdjwY03atKcphkxJBqcX53d8-GD2Lp9yHoNmewfZHBMVgHlZL
p1604
sVqueryString
p1605
(lp1606
(dp1607
Vname
p1608
g513
sVvalue
p1609
Vtbn:ANd9GcTdjXrK5bmJWY_9lSL9UGIqdjwY03atKcphkxJBqcX53d8-GD2Lp9yHoNmewfZHBMVgHlZL
p1610
sasVheaders
p1611
(lp1612
sVheadersSize
p1613
I439
sVbodySize
p1614
I0
sVmethod
p1615
VGET
p1616
sVhttpVersion
p1617
VHTTP/1.1
p1618
ssVtimings
p1619
(dp1620
Vcomment
p1621
g4
sVreceive
p1622
I4
sVsend
p1623
I0
sVssl
p1624
I-1
sVconnect
p1625
I-1
sVdns
p1626
I-1
sVwait
p1627
I19
sVblocked
p1628
I-1
ssVtime
p1629
I24
sVresponse
p1630
(dp1631
Vstatus
p1632
I200
sVcomment
p1633
g4
sVcookies
p1634
(lp1635
sVstatusText
p1636
VOK
p1637
sVcontent
p1638
(dp1639
VmimeType
p1640
Vimage/jpeg
p1641
sVcomment
p1642
g4
sVsize
p1643
I0
ssVheaders
p1644
(lp1645
sVheadersSize
p1646
I429
sVredirectURL
p1647
g4
sVbodySize
p1648
I3401
sVhttpVersion
p1649
VHTTP/1.1
p1650
ssa(dp1651
Vcomment
p1652
g4
sVserverIPAddress
p1653
V216.58.216.196
p1654
sVpageref
p1655
VAlan Rickman
p1656
sVstartedDateTime
p1657
V2017-04-16T08:08:47.113-05:00
p1658
sVcache
p1659
(dp1660
sVrequest
p1661
(dp1662
Vcomment
p1663
g4
sVcookies
p1664
(lp1665
sVurl
p1666
Vhttps://www.google.com/gen_204?atyp=i&ct=&cad=&vet=10ahUKEwih5tT-hanTAhXp4IMKHX_wCgkQlEsIeygEMBM..s&ei=3GzzWKGIFenBjwT_4KtI&zx=1492348127111
p1667
sVqueryString
p1668
(lp1669
(dp1670
Vname
p1671
Vatyp
p1672
sVvalue
p1673
g30
sa(dp1674
Vname
p1675
Vct
p1676
sVvalue
p1677
g4
sa(dp1678
Vname
p1679
Vcad
p1680
sVvalue
p1681
g4
sa(dp1682
Vname
p1683
Vvet
p1684
sVvalue
p1685
V10ahUKEwih5tT-hanTAhXp4IMKHX_wCgkQlEsIeygEMBM..s
p1686
sa(dp1687
Vname
p1688
Vei
p1689
sVvalue
p1690
V3GzzWKGIFenBjwT_4KtI
p1691
sa(dp1692
Vname
p1693
Vzx
p1694
sVvalue
p1695
V1492348127111
p1696
sasVheaders
p1697
(lp1698
sVheadersSize
p1699
I657
sVbodySize
p1700
I0
sVmethod
p1701
VGET
p1702
sVhttpVersion
p1703
VHTTP/1.1
p1704
ssVtimings
p1705
(dp1706
Vcomment
p1707
g4
sVreceive
p1708
I0
sVsend
p1709
I0
sVssl
p1710
I-1
sVconnect
p1711
I-1
sVdns
p1712
I-1
sVwait
p1713
I32
sVblocked
p1714
I-1
ssVtime
p1715
I32
sVresponse
p1716
(dp1717
Vstatus
p1718
I204
sVcomment
p1719
g4
sVcookies
p1720
(lp1721
sVstatusText
p1722
VNo Content
p1723
sVcontent
p1724
(dp1725
VmimeType
p1726
Vtext/html; charset=UTF-8
p1727
sVcomment
p1728
g4
sVsize
p1729
I0
ssVheaders
p1730
(lp1731
sVheadersSize
p1732
I248
sVredirectURL
p1733
g4
sVbodySize
p1734
I0
sVhttpVersion
p1735
VHTTP/1.1
p1736
ssa(dp1737
Vcomment
p1738
g4
sVserverIPAddress
p1739
V216.58.216.196
p1740
sVpageref
p1741
VAlan Rickman
p1742
sVstartedDateTime
p1743
V2017-04-16T08:08:47.116-05:00
p1744
sVcache
p1745
(dp1746
sVrequest
p1747
(dp1748
Vcomment
p1749
g4
sVcookies
p1750
(lp1751
sVurl
p1752
Vhttps://www.google.com/gen_204?atyp=i&ct=&cad=&vet=10ahUKEwih5tT-hanTAhXp4IMKHX_wCgkQlEsIfSgFMBM..s&ei=3GzzWKGIFenBjwT_4KtI&zx=1492348127115
p1753
sVqueryString
p1754
(lp1755
(dp1756
Vname
p1757
Vatyp
p1758
sVvalue
p1759
g30
sa(dp1760
Vname
p1761
Vct
p1762
sVvalue
p1763
g4
sa(dp1764
Vname
p1765
Vcad
p1766
sVvalue
p1767
g4
sa(dp1768
Vname
p1769
Vvet
p1770
sVvalue
p1771
V10ahUKEwih5tT-hanTAhXp4IMKHX_wCgkQlEsIfSgFMBM..s
p1772
sa(dp1773
Vname
p1774
Vei
p1775
sVvalue
p1776
V3GzzWKGIFenBjwT_4KtI
p1777
sa(dp1778
Vname
p1779
Vzx
p1780
sVvalue
p1781
V1492348127115
p1782
sasVheaders
p1783
(lp1784
sVheadersSize
p1785
I657
sVbodySize
p1786
I0
sVmethod
p1787
VGET
p1788
sVhttpVersion
p1789
VHTTP/1.1
p1790
ssVtimings
p1791
(dp1792
Vcomment
p1793
g4
sVreceive
p1794
I0
sVsend
p1795
I0
sVssl
p1796
I-1
sVconnect
p1797
I-1
sVdns
p1798
I-1
sVwait
p1799
I30
sVblocked
p1800
I-1
ssVtime
p1801
I30
sVresponse
p1802
(dp1803
Vstatus
p1804
I204
sVcomment
p1805
g4
sVcookies
p1806
(lp1807
sVstatusText
p1808
VNo Content
p1809
sVcontent
p1810
(dp1811
VmimeType
p1812
Vtext/html; charset=UTF-8
p1813
sVcomment
p1814
g4
sVsize
p1815
I0
ssVheaders
p1816
(lp1817
sVheadersSize
p1818
I248
sVredirectURL
p1819
g4
sVbodySize
p1820
I0
sVhttpVersion
p1821
VHTTP/1.1
p1822
ssa(dp1823
Vcomment
p1824
g4
sVserverIPAddress
p1825
V216.58.216.196
p1826
sVpageref
p1827
VAlan Rickman
p1828
sVstartedDateTime
p1829
V2017-04-16T08:08:47.116-05:00
p1830
sVcache
p1831
(dp1832
sVrequest
p1833
(dp1834
Vcomment
p1835
g4
sVcookies
p1836
(lp1837
sVurl
p1838
Vhttps://www.google.com/gen_204?atyp=i&ct=&cad=&vet=10ahUKEwih5tT-hanTAhXp4IMKHX_wCgkQ5W0IPygE..s&ei=3GzzWKGIFenBjwT_4KtI&zx=1492348127072
p1839
sVqueryString
p1840
(lp1841
(dp1842
Vname
p1843
Vatyp
p1844
sVvalue
p1845
g30
sa(dp1846
Vname
p1847
Vct
p1848
sVvalue
p1849
g4
sa(dp1850
Vname
p1851
Vcad
p1852
sVvalue
p1853
g4
sa(dp1854
Vname
p1855
Vvet
p1856
sVvalue
p1857
V10ahUKEwih5tT-hanTAhXp4IMKHX_wCgkQ5W0IPygE..s
p1858
sa(dp1859
Vname
p1860
Vei
p1861
sVvalue
p1862
V3GzzWKGIFenBjwT_4KtI
p1863
sa(dp1864
Vname
p1865
Vzx
p1866
sVvalue
p1867
V1492348127072
p1868
sasVheaders
p1869
(lp1870
sVheadersSize
p1871
I654
sVbodySize
p1872
I0
sVmethod
p1873
VGET
p1874
sVhttpVersion
p1875
VHTTP/1.1
p1876
ssVtimings
p1877
(dp1878
Vcomment
p1879
g4
sVreceive
p1880
I0
sVsend
p1881
I0
sVssl
p1882
I28
sVconnect
p1883
I42
sVdns
p1884
I0
sVwait
p1885
I29
sVblocked
p1886
I0
ssVtime
p1887
I71
sVresponse
p1888
(dp1889
Vstatus
p1890
I204
sVcomment
p1891
g4
sVcookies
p1892
(lp1893
sVstatusText
p1894
VNo Content
p1895
sVcontent
p1896
(dp1897
VmimeType
p1898
Vtext/html; charset=UTF-8
p1899
sVcomment
p1900
g4
sVsize
p1901
I0
ssVheaders
p1902
(lp1903
sVheadersSize
p1904
I248
sVredirectURL
p1905
g4
sVbodySize
p1906
I0
sVhttpVersion
p1907
VHTTP/1.1
p1908
ssa(dp1909
Vcomment
p1910
g4
sVserverIPAddress
p1911
V216.58.216.206
p1912
sVpageref
p1913
VAlan Rickman
p1914
sVstartedDateTime
p1915
V2017-04-16T08:08:47.132-05:00
p1916
sVcache
p1917
(dp1918
sVrequest
p1919
(dp1920
Vcomment
p1921
g4
sVcookies
p1922
(lp1923
sVurl
p1924
Vhttps://encrypted-tbn1.gstatic.com/images?q=tbn:ANd9GcT2UZEsn-bUXhh3qRwyig65EVEJiq8Bz-34TpVlxba4FRTSSQiUkz8HaLH_PZIDW8PczpRy
p1925
sVqueryString
p1926
(lp1927
(dp1928
Vname
p1929
g513
sVvalue
p1930
Vtbn:ANd9GcT2UZEsn-bUXhh3qRwyig65EVEJiq8Bz-34TpVlxba4FRTSSQiUkz8HaLH_PZIDW8PczpRy
p1931
sasVheaders
p1932
(lp1933
sVheadersSize
p1934
I439
sVbodySize
p1935
I0
sVmethod
p1936
VGET
p1937
sVhttpVersion
p1938
VHTTP/1.1
p1939
ssVtimings
p1940
(dp1941
Vcomment
p1942
g4
sVreceive
p1943
I0
sVsend
p1944
I0
sVssl
p1945
I-1
sVconnect
p1946
I-1
sVdns
p1947
I-1
sVwait
p1948
I30
sVblocked
p1949
I-1
ssVtime
p1950
I31
sVresponse
p1951
(dp1952
Vstatus
p1953
I200
sVcomment
p1954
g4
sVcookies
p1955
(lp1956
sVstatusText
p1957
VOK
p1958
sVcontent
p1959
(dp1960
VmimeType
p1961
Vimage/jpeg
p1962
sVcomment
p1963
g4
sVsize
p1964
I0
ssVheaders
p1965
(lp1966
sVheadersSize
p1967
I429
sVredirectURL
p1968
g4
sVbodySize
p1969
I5648
sVhttpVersion
p1970
VHTTP/1.1
p1971
ssa(dp1972
Vcomment
p1973
g4
sVserverIPAddress
p1974
V216.58.216.196
p1975
sVpageref
p1976
VAlan Rickman
p1977
sVstartedDateTime
p1978
V2017-04-16T08:08:47.142-05:00
p1979
sVcache
p1980
(dp1981
sVrequest
p1982
(dp1983
Vcomment
p1984
g4
sVcookies
p1985
(lp1986
sVurl
p1987
Vhttps://www.google.com/gen_204?atyp=i&ct=&cad=&vet=10ahUKEwih5tT-hanTAhXp4IMKHX_wCgkQlEsIfygGMBM..s&ei=3GzzWKGIFenBjwT_4KtI&zx=1492348127118
p1988
sVqueryString
p1989
(lp1990
(dp1991
Vname
p1992
Vatyp
p1993
sVvalue
p1994
g30
sa(dp1995
Vname
p1996
Vct
p1997
sVvalue
p1998
g4
sa(dp1999
Vname
p2000
Vcad
p2001
sVvalue
p2002
g4
sa(dp2003
Vname
p2004
Vvet
p2005
sVvalue
p2006
V10ahUKEwih5tT-hanTAhXp4IMKHX_wCgkQlEsIfygGMBM..s
p2007
sa(dp2008
Vname
p2009
Vei
p2010
sVvalue
p2011
V3GzzWKGIFenBjwT_4KtI
p2012
sa(dp2013
Vname
p2014
Vzx
p2015
sVvalue
p2016
V1492348127118
p2017
sasVheaders
p2018
(lp2019
sVheadersSize
p2020
I657
sVbodySize
p2021
I0
sVmethod
p2022
VGET
p2023
sVhttpVersion
p2024
VHTTP/1.1
p2025
ssVtimings
p2026
(dp2027
Vcomment
p2028
g4
sVreceive
p2029
I0
sVsend
p2030
I0
sVssl
p2031
I-1
sVconnect
p2032
I-1
sVdns
p2033
I-1
sVwait
p2034
I32
sVblocked
p2035
I-1
ssVtime
p2036
I32
sVresponse
p2037
(dp2038
Vstatus
p2039
I204
sVcomment
p2040
g4
sVcookies
p2041
(lp2042
sVstatusText
p2043
VNo Content
p2044
sVcontent
p2045
(dp2046
VmimeType
p2047
Vtext/html; charset=UTF-8
p2048
sVcomment
p2049
g4
sVsize
p2050
I0
ssVheaders
p2051
(lp2052
sVheadersSize
p2053
I248
sVredirectURL
p2054
g4
sVbodySize
p2055
I0
sVhttpVersion
p2056
VHTTP/1.1
p2057
ssa(dp2058
Vcomment
p2059
g4
sVserverIPAddress
p2060
V216.58.216.196
p2061
sVpageref
p2062
VAlan Rickman
p2063
sVstartedDateTime
p2064
V2017-04-16T08:08:47.143-05:00
p2065
sVcache
p2066
(dp2067
sVrequest
p2068
(dp2069
Vcomment
p2070
g4
sVcookies
p2071
(lp2072
sVurl
p2073
Vhttps://www.google.com/gen_204?atyp=i&ct=&cad=&vet=10ahUKEwih5tT-hanTAhXp4IMKHX_wCgkQlEsIgQEoBzAT..s&ei=3GzzWKGIFenBjwT_4KtI&zx=1492348127121
p2074
sVqueryString
p2075
(lp2076
(dp2077
Vname
p2078
Vatyp
p2079
sVvalue
p2080
g30
sa(dp2081
Vname
p2082
Vct
p2083
sVvalue
p2084
g4
sa(dp2085
Vname
p2086
Vcad
p2087
sVvalue
p2088
g4
sa(dp2089
Vname
p2090
Vvet
p2091
sVvalue
p2092
V10ahUKEwih5tT-hanTAhXp4IMKHX_wCgkQlEsIgQEoBzAT..s
p2093
sa(dp2094
Vname
p2095
Vei
p2096
sVvalue
p2097
V3GzzWKGIFenBjwT_4KtI
p2098
sa(dp2099
Vname
p2100
Vzx
p2101
sVvalue
p2102
V1492348127121
p2103
sasVheaders
p2104
(lp2105
sVheadersSize
p2106
I658
sVbodySize
p2107
I0
sVmethod
p2108
VGET
p2109
sVhttpVersion
p2110
VHTTP/1.1
p2111
ssVtimings
p2112
(dp2113
Vcomment
p2114
g4
sVreceive
p2115
I0
sVsend
p2116
I0
sVssl
p2117
I-1
sVconnect
p2118
I-1
sVdns
p2119
I-1
sVwait
p2120
I30
sVblocked
p2121
I-1
ssVtime
p2122
I30
sVresponse
p2123
(dp2124
Vstatus
p2125
I204
sVcomment
p2126
g4
sVcookies
p2127
(lp2128
sVstatusText
p2129
VNo Content
p2130
sVcontent
p2131
(dp2132
VmimeType
p2133
Vtext/html; charset=UTF-8
p2134
sVcomment
p2135
g4
sVsize
p2136
I0
ssVheaders
p2137
(lp2138
sVheadersSize
p2139
I248
sVredirectURL
p2140
g4
sVbodySize
p2141
I0
sVhttpVersion
p2142
VHTTP/1.1
p2143
ssa(dp2144
Vcomment
p2145
g4
sVserverIPAddress
p2146
V216.58.216.196
p2147
sVpageref
p2148
VAlan Rickman
p2149
sVstartedDateTime
p2150
V2017-04-16T08:08:47.148-05:00
p2151
sVcache
p2152
(dp2153
sVrequest
p2154
(dp2155
Vcomment
p2156
g4
sVcookies
p2157
(lp2158
sVurl
p2159
Vhttps://www.google.com/gen_204?atyp=i&ct=&cad=&vet=10ahUKEwih5tT-hanTAhXp4IMKHX_wCgkQvW4IgwEoCDAT..s&ei=3GzzWKGIFenBjwT_4KtI&zx=1492348127123
p2160
sVqueryString
p2161
(lp2162
(dp2163
Vname
p2164
Vatyp
p2165
sVvalue
p2166
g30
sa(dp2167
Vname
p2168
Vct
p2169
sVvalue
p2170
g4
sa(dp2171
Vname
p2172
Vcad
p2173
sVvalue
p2174
g4
sa(dp2175
Vname
p2176
Vvet
p2177
sVvalue
p2178
V10ahUKEwih5tT-hanTAhXp4IMKHX_wCgkQvW4IgwEoCDAT..s
p2179
sa(dp2180
Vname
p2181
Vei
p2182
sVvalue
p2183
V3GzzWKGIFenBjwT_4KtI
p2184
sa(dp2185
Vname
p2186
Vzx
p2187
sVvalue
p2188
V1492348127123
p2189
sasVheaders
p2190
(lp2191
sVheadersSize
p2192
I658
sVbodySize
p2193
I0
sVmethod
p2194
VGET
p2195
sVhttpVersion
p2196
VHTTP/1.1
p2197
ssVtimings
p2198
(dp2199
Vcomment
p2200
g4
sVreceive
p2201
I0
sVsend
p2202
I0
sVssl
p2203
I-1
sVconnect
p2204
I-1
sVdns
p2205
I-1
sVwait
p2206
I48
sVblocked
p2207
I-1
ssVtime
p2208
I48
sVresponse
p2209
(dp2210
Vstatus
p2211
I204
sVcomment
p2212
g4
sVcookies
p2213
(lp2214
sVstatusText
p2215
VNo Content
p2216
sVcontent
p2217
(dp2218
VmimeType
p2219
Vtext/html; charset=UTF-8
p2220
sVcomment
p2221
g4
sVsize
p2222
I0
ssVheaders
p2223
(lp2224
sVheadersSize
p2225
I248
sVredirectURL
p2226
g4
sVbodySize
p2227
I0
sVhttpVersion
p2228
VHTTP/1.1
p2229
ssa(dp2230
Vcomment
p2231
g4
sVserverIPAddress
p2232
V216.58.216.206
p2233
sVpageref
p2234
VAlan Rickman
p2235
sVstartedDateTime
p2236
V2017-04-16T08:08:47.148-05:00
p2237
sVcache
p2238
(dp2239
sVrequest
p2240
(dp2241
Vcomment
p2242
g4
sVcookies
p2243
(lp2244
sVurl
p2245
Vhttps://encrypted-tbn1.gstatic.com/images?q=tbn:ANd9GcQuKpy6AylTIy3f1kWq0Qw13dw7aIVqfZLJFbIN4-Fdg8-zz9ksErT3vv7c34lMouJ219pu
p2246
sVqueryString
p2247
(lp2248
(dp2249
Vname
p2250
g513
sVvalue
p2251
Vtbn:ANd9GcQuKpy6AylTIy3f1kWq0Qw13dw7aIVqfZLJFbIN4-Fdg8-zz9ksErT3vv7c34lMouJ219pu
p2252
sasVheaders
p2253
(lp2254
sVheadersSize
p2255
I439
sVbodySize
p2256
I0
sVmethod
p2257
VGET
p2258
sVhttpVersion
p2259
VHTTP/1.1
p2260
ssVtimings
p2261
(dp2262
Vcomment
p2263
g4
sVreceive
p2264
I3
sVsend
p2265
I0
sVssl
p2266
I-1
sVconnect
p2267
I-1
sVdns
p2268
I-1
sVwait
p2269
I36
sVblocked
p2270
I-1
ssVtime
p2271
I40
sVresponse
p2272
(dp2273
Vstatus
p2274
I200
sVcomment
p2275
g4
sVcookies
p2276
(lp2277
sVstatusText
p2278
VOK
p2279
sVcontent
p2280
(dp2281
VmimeType
p2282
Vimage/jpeg
p2283
sVcomment
p2284
g4
sVsize
p2285
I0
ssVheaders
p2286
(lp2287
sVheadersSize
p2288
I429
sVredirectURL
p2289
g4
sVbodySize
p2290
I7300
sVhttpVersion
p2291
VHTTP/1.1
p2292
ssa(dp2293
Vcomment
p2294
g4
sVserverIPAddress
p2295
V216.58.216.206
p2296
sVpageref
p2297
VAlan Rickman
p2298
sVstartedDateTime
p2299
V2017-04-16T08:08:47.169-05:00
p2300
sVcache
p2301
(dp2302
sVrequest
p2303
(dp2304
Vcomment
p2305
g4
sVcookies
p2306
(lp2307
sVurl
p2308
Vhttps://encrypted-tbn0.gstatic.com/images?q=tbn:ANd9GcTbx_ZCRAxhMI49d5qZ1f5dqYWDtsDvw2bejvSDSSY5BOpXujzHCmxbI3tXX9VC04wEnIic
p2309
sVqueryString
p2310
(lp2311
(dp2312
Vname
p2313
g513
sVvalue
p2314
Vtbn:ANd9GcTbx_ZCRAxhMI49d5qZ1f5dqYWDtsDvw2bejvSDSSY5BOpXujzHCmxbI3tXX9VC04wEnIic
p2315
sasVheaders
p2316
(lp2317
sVheadersSize
p2318
I439
sVbodySize
p2319
I0
sVmethod
p2320
VGET
p2321
sVhttpVersion
p2322
VHTTP/1.1
p2323
ssVtimings
p2324
(dp2325
Vcomment
p2326
g4
sVreceive
p2327
I0
sVsend
p2328
I0
sVssl
p2329
I36
sVconnect
p2330
I49
sVdns
p2331
I1
sVwait
p2332
I21
sVblocked
p2333
I0
ssVtime
p2334
I72
sVresponse
p2335
(dp2336
Vstatus
p2337
I200
sVcomment
p2338
g4
sVcookies
p2339
(lp2340
sVstatusText
p2341
VOK
p2342
sVcontent
p2343
(dp2344
VmimeType
p2345
Vimage/jpeg
p2346
sVcomment
p2347
g4
sVsize
p2348
I0
ssVheaders
p2349
(lp2350
sVheadersSize
p2351
I428
sVredirectURL
p2352
g4
sVbodySize
p2353
I5752
sVhttpVersion
p2354
VHTTP/1.1
p2355
ssa(dp2356
Vcomment
p2357
g4
sVserverIPAddress
p2358
V216.58.216.196
p2359
sVpageref
p2360
VAlan Rickman
p2361
sVstartedDateTime
p2362
V2017-04-16T08:08:47.197-05:00
p2363
sVcache
p2364
(dp2365
sVrequest
p2366
(dp2367
Vcomment
p2368
g4
sVcookies
p2369
(lp2370
sVurl
p2371
Vhttps://www.google.com/async/ampfp?vet=10ahUKEwih5tT-hanTAhXp4IMKHX_wCgkQtZoBCIkC..i&ei=3GzzWKGIFenBjwT_4KtI&yv=2&async=_id:ampfp-async,_pms:qs
p2372
sVqueryString
p2373
(lp2374
(dp2375
Vname
p2376
Vvet
p2377
sVvalue
p2378
V10ahUKEwih5tT-hanTAhXp4IMKHX_wCgkQtZoBCIkC..i
p2379
sa(dp2380
Vname
p2381
Vei
p2382
sVvalue
p2383
V3GzzWKGIFenBjwT_4KtI
p2384
sa(dp2385
Vname
p2386
Vyv
p2387
sVvalue
p2388
g64
sa(dp2389
Vname
p2390
Vasync
p2391
sVvalue
p2392
V_id:ampfp-async,_pms:qs
p2393
sasVheaders
p2394
(lp2395
sVheadersSize
p2396
I660
sVbodySize
p2397
I0
sVmethod
p2398
VGET
p2399
sVhttpVersion
p2400
VHTTP/1.1
p2401
ssVtimings
p2402
(dp2403
Vcomment
p2404
g4
sVreceive
p2405
I1
sVsend
p2406
I0
sVssl
p2407
I-1
sVconnect
p2408
I-1
sVdns
p2409
I-1
sVwait
p2410
I38
sVblocked
p2411
I-1
ssVtime
p2412
I40
sVresponse
p2413
(dp2414
Vstatus
p2415
I200
sVcomment
p2416
g4
sVcookies
p2417
(lp2418
sVstatusText
p2419
VOK
p2420
sVcontent
p2421
(dp2422
VmimeType
p2423
Vtext/html; charset=UTF-8
p2424
sVcomment
p2425
g4
sVsize
p2426
I0
ssVheaders
p2427
(lp2428
sVheadersSize
p2429
I383
sVredirectURL
p2430
g4
sVbodySize
p2431
I4524
sVhttpVersion
p2432
VHTTP/1.1
p2433
ssa(dp2434
Vcomment
p2435
g4
sVserverIPAddress
p2436
V216.58.216.193
p2437
sVpageref
p2438
VAlan Rickman
p2439
sVstartedDateTime
p2440
V2017-04-16T08:08:47.200-05:00
p2441
sVcache
p2442
(dp2443
sVrequest
p2444
(dp2445
Vcomment
p2446
g4
sVcookies
p2447
(lp2448
sVurl
p2449
Vhttps://cdn.ampproject.org/preconnect.gif?0.27978084788733903
p2450
sVqueryString
p2451
(lp2452
(dp2453
Vname
p2454
V0.27978084788733903
p2455
sVvalue
p2456
g4
sasVheaders
p2457
(lp2458
sVheadersSize
p2459
I376
sVbodySize
p2460
I0
sVmethod
p2461
VGET
p2462
sVhttpVersion
p2463
VHTTP/1.1
p2464
ssVtimings
p2465
(dp2466
Vcomment
p2467
g4
sVreceive
p2468
I0
sVsend
p2469
I0
sVssl
p2470
I-1
sVconnect
p2471
I-1
sVdns
p2472
I-1
sVwait
p2473
I31
sVblocked
p2474
I-1
ssVtime
p2475
I31
sVresponse
p2476
(dp2477
Vstatus
p2478
I200
sVcomment
p2479
g4
sVcookies
p2480
(lp2481
sVstatusText
p2482
VOK
p2483
sVcontent
p2484
(dp2485
VmimeType
p2486
Vimage/gif
p2487
sVcomment
p2488
g4
sVsize
p2489
I0
ssVheaders
p2490
(lp2491
sVheadersSize
p2492
I826
sVredirectURL
p2493
g4
sVbodySize
p2494
I37
sVhttpVersion
p2495
VHTTP/1.1
p2496
ssa(dp2497
Vcomment
p2498
g4
sVserverIPAddress
p2499
V216.58.216.206
p2500
sVpageref
p2501
VAlan Rickman
p2502
sVstartedDateTime
p2503
V2017-04-16T08:08:47.212-05:00
p2504
sVcache
p2505
(dp2506
sVrequest
p2507
(dp2508
Vcomment
p2509
g4
sVcookies
p2510
(lp2511
sVurl
p2512
Vhttps://encrypted-tbn3.gstatic.com/images?q=tbn:ANd9GcRaVc1qf-nOltClFCpYqowhD2e0epxnRzwKIiMqOMT68i_Kg-ggjSfOKXzR
p2513
sVqueryString
p2514
(lp2515
(dp2516
Vname
p2517
g513
sVvalue
p2518
Vtbn:ANd9GcRaVc1qf-nOltClFCpYqowhD2e0epxnRzwKIiMqOMT68i_Kg-ggjSfOKXzR
p2519
sasVheaders
p2520
(lp2521
sVheadersSize
p2522
I427
sVbodySize
p2523
I0
sVmethod
p2524
VGET
p2525
sVhttpVersion
p2526
VHTTP/1.1
p2527
ssVtimings
p2528
(dp2529
Vcomment
p2530
g4
sVreceive
p2531
I1
sVsend
p2532
I0
sVssl
p2533
I-1
sVconnect
p2534
I-1
sVdns
p2535
I-1
sVwait
p2536
I20
sVblocked
p2537
I-1
ssVtime
p2538
I21
sVresponse
p2539
(dp2540
Vstatus
p2541
I200
sVcomment
p2542
g4
sVcookies
p2543
(lp2544
sVstatusText
p2545
VOK
p2546
sVcontent
p2547
(dp2548
VmimeType
p2549
Vimage/jpeg
p2550
sVcomment
p2551
g4
sVsize
p2552
I0
ssVheaders
p2553
(lp2554
sVheadersSize
p2555
I428
sVredirectURL
p2556
g4
sVbodySize
p2557
I6244
sVhttpVersion
p2558
VHTTP/1.1
p2559
ssa(dp2560
Vcomment
p2561
g4
sVserverIPAddress
p2562
V216.58.216.206
p2563
sVpageref
p2564
VAlan Rickman
p2565
sVstartedDateTime
p2566
V2017-04-16T08:08:47.212-05:00
p2567
sVcache
p2568
(dp2569
sVrequest
p2570
(dp2571
Vcomment
p2572
g4
sVcookies
p2573
(lp2574
sVurl
p2575
Vhttps://encrypted-tbn0.gstatic.com/images?q=tbn:ANd9GcSCHKkzhFE9PEIz_VB7Ve8PWYkwHZCq8IjZFJBwl8qmeuerAD1EGZ1lwPGd
p2576
sVqueryString
p2577
(lp2578
(dp2579
Vname
p2580
g513
sVvalue
p2581
Vtbn:ANd9GcSCHKkzhFE9PEIz_VB7Ve8PWYkwHZCq8IjZFJBwl8qmeuerAD1EGZ1lwPGd
p2582
sasVheaders
p2583
(lp2584
sVheadersSize
p2585
I427
sVbodySize
p2586
I0
sVmethod
p2587
VGET
p2588
sVhttpVersion
p2589
VHTTP/1.1
p2590
ssVtimings
p2591
(dp2592
Vcomment
p2593
g4
sVreceive
p2594
I0
sVsend
p2595
I0
sVssl
p2596
I-1
sVconnect
p2597
I-1
sVdns
p2598
I-1
sVwait
p2599
I19
sVblocked
p2600
I-1
ssVtime
p2601
I20
sVresponse
p2602
(dp2603
Vstatus
p2604
I200
sVcomment
p2605
g4
sVcookies
p2606
(lp2607
sVstatusText
p2608
VOK
p2609
sVcontent
p2610
(dp2611
VmimeType
p2612
Vimage/jpeg
p2613
sVcomment
p2614
g4
sVsize
p2615
I0
ssVheaders
p2616
(lp2617
sVheadersSize
p2618
I428
sVredirectURL
p2619
g4
sVbodySize
p2620
I3932
sVhttpVersion
p2621
VHTTP/1.1
p2622
ssa(dp2623
Vcomment
p2624
g4
sVserverIPAddress
p2625
V216.58.216.206
p2626
sVpageref
p2627
VAlan Rickman
p2628
sVstartedDateTime
p2629
V2017-04-16T08:08:47.213-05:00
p2630
sVcache
p2631
(dp2632
sVrequest
p2633
(dp2634
Vcomment
p2635
g4
sVcookies
p2636
(lp2637
sVurl
p2638
Vhttps://encrypted-tbn1.gstatic.com/images?q=tbn:ANd9GcQ0HvbS6nPvXcJ14KxwoDDQcOmIels81lUyI_gZIGOhQlUUcVNSeTJaQV5_
p2639
sVqueryString
p2640
(lp2641
(dp2642
Vname
p2643
g513
sVvalue
p2644
Vtbn:ANd9GcQ0HvbS6nPvXcJ14KxwoDDQcOmIels81lUyI_gZIGOhQlUUcVNSeTJaQV5_
p2645
sasVheaders
p2646
(lp2647
sVheadersSize
p2648
I427
sVbodySize
p2649
I0
sVmethod
p2650
VGET
p2651
sVhttpVersion
p2652
VHTTP/1.1
p2653
ssVtimings
p2654
(dp2655
Vcomment
p2656
g4
sVreceive
p2657
I1
sVsend
p2658
I0
sVssl
p2659
I-1
sVconnect
p2660
I-1
sVdns
p2661
I-1
sVwait
p2662
I19
sVblocked
p2663
I-1
ssVtime
p2664
I20
sVresponse
p2665
(dp2666
Vstatus
p2667
I200
sVcomment
p2668
g4
sVcookies
p2669
(lp2670
sVstatusText
p2671
VOK
p2672
sVcontent
p2673
(dp2674
VmimeType
p2675
Vimage/jpeg
p2676
sVcomment
p2677
g4
sVsize
p2678
I0
ssVheaders
p2679
(lp2680
sVheadersSize
p2681
I428
sVredirectURL
p2682
g4
sVbodySize
p2683
I7100
sVhttpVersion
p2684
VHTTP/1.1
p2685
ssa(dp2686
Vcomment
p2687
g4
sVserverIPAddress
p2688
V216.58.216.196
p2689
sVpageref
p2690
VAlan Rickman
p2691
sVstartedDateTime
p2692
V2017-04-16T08:08:47.425-05:00
p2693
sVcache
p2694
(dp2695
sVrequest
p2696
(dp2697
Vcomment
p2698
g4
sVcookies
p2699
(lp2700
sVurl
p2701
Vhttps://www.google.com/async/log_amp_item_set?vet=10ahUKEwjLycb_hanTAhWB7YMKHQT0B8EQooQBCAE..i&ei=3GzzWKGIFenBjwT_4KtI&yv=2&async=num_items:1,_fmt:jspb
p2702
sVqueryString
p2703
(lp2704
(dp2705
Vname
p2706
Vvet
p2707
sVvalue
p2708
V10ahUKEwjLycb_hanTAhWB7YMKHQT0B8EQooQBCAE..i
p2709
sa(dp2710
Vname
p2711
Vei
p2712
sVvalue
p2713
V3GzzWKGIFenBjwT_4KtI
p2714
sa(dp2715
Vname
p2716
Vyv
p2717
sVvalue
p2718
g64
sa(dp2719
Vname
p2720
Vasync
p2721
sVvalue
p2722
Vnum_items:1,_fmt:jspb
p2723
sasVheaders
p2724
(lp2725
sVheadersSize
p2726
I668
sVbodySize
p2727
I0
sVmethod
p2728
VGET
p2729
sVhttpVersion
p2730
VHTTP/1.1
p2731
ssVtimings
p2732
(dp2733
Vcomment
p2734
g4
sVreceive
p2735
I0
sVsend
p2736
I0
sVssl
p2737
I-1
sVconnect
p2738
I-1
sVdns
p2739
I-1
sVwait
p2740
I45
sVblocked
p2741
I-1
ssVtime
p2742
I46
sVresponse
p2743
(dp2744
Vstatus
p2745
I200
sVcomment
p2746
g4
sVcookies
p2747
(lp2748
sVstatusText
p2749
VOK
p2750
sVcontent
p2751
(dp2752
VmimeType
p2753
Vapplication/json; charset=UTF-8
p2754
sVcomment
p2755
g4
sVsize
p2756
I0
ssVheaders
p2757
(lp2758
sVheadersSize
p2759
I417
sVredirectURL
p2760
g4
sVbodySize
p2761
I132
sVhttpVersion
p2762
VHTTP/1.1
p2763
ssa(dp2764
Vcomment
p2765
g4
sVserverIPAddress
p2766
V216.58.216.193
p2767
sVpageref
p2768
VAlan Rickman
p2769
sVstartedDateTime
p2770
V2017-04-16T08:08:47.638-05:00
p2771
sVcache
p2772
(dp2773
sVrequest
p2774
(dp2775
Vcomment
p2776
g4
sVcookies
p2777
(lp2778
sVurl
p2779
Vhttps://amp-theguardian-com.cdn.ampproject.org/v/s/amp.theguardian.com/film/2016/jan/14/alan-rickman-giant-of-british-film-and-theatre-dies-at-69?amp_js_v=9
p2780
sVqueryString
p2781
(lp2782
(dp2783
Vname
p2784
Vamp_js_v
p2785
sVvalue
p2786
V9
p2787
sasVheaders
p2788
(lp2789
sVheadersSize
p2790
I561
sVbodySize
p2791
I0
sVmethod
p2792
VGET
p2793
sVhttpVersion
p2794
VHTTP/1.1
p2795
ssVtimings
p2796
(dp2797
Vcomment
p2798
g4
sVreceive
p2799
I15
sVsend
p2800
I0
sVssl
p2801
I145
sVconnect
p2802
I163
sVdns
p2803
I37
sVwait
p2804
I185
sVblocked
p2805
I0
ssVtime
p2806
I401
sVresponse
p2807
(dp2808
Vstatus
p2809
I200
sVcomment
p2810
g4
sVcookies
p2811
(lp2812
sVstatusText
p2813
VOK
p2814
sVcontent
p2815
(dp2816
VmimeType
p2817
Vtext/html
p2818
sVcomment
p2819
g4
sVsize
p2820
I0
ssVheaders
p2821
(lp2822
sVheadersSize
p2823
I861
sVredirectURL
p2824
g4
sVbodySize
p2825
I23348
sVhttpVersion
p2826
VHTTP/1.1
p2827
ssa(dp2828
Vcomment
p2829
g4
sVserverIPAddress
p2830
V216.58.216.206
p2831
sVpageref
p2832
VAlan Rickman
p2833
sVstartedDateTime
p2834
V2017-04-16T08:08:48.294-05:00
p2835
sVcache
p2836
(dp2837
sVrequest
p2838
(dp2839
Vcomment
p2840
g4
sVcookies
p2841
(lp2842
sVurl
p2843
Vhttps://i.ytimg.com/vi/31SHaFJfxhI/sddefault.jpg
p2844
sVqueryString
p2845
(lp2846
sVheaders
p2847
(lp2848
sVheadersSize
p2849
I496
sVbodySize
p2850
I0
sVmethod
p2851
VGET
p2852
sVhttpVersion
p2853
VHTTP/1.1
p2854
ssVtimings
p2855
(dp2856
Vcomment
p2857
g4
sVreceive
p2858
I0
sVsend
p2859
I0
sVssl
p2860
I-1
sVconnect
p2861
I-1
sVdns
p2862
I-1
sVwait
p2863
I0
sVblocked
p2864
I-1
ssVtime
p2865
I0
sVresponse
p2866
(dp2867
Vstatus
p2868
I0
sVcomment
p2869
g4
sVcookies
p2870
(lp2871
sV_error
p2872
VNo response received
p2873
sVstatusText
p2874
g4
sVcontent
p2875
(dp2876
VmimeType
p2877
g4
sVcomment
p2878
g4
sVsize
p2879
I0
ssVheaders
p2880
(lp2881
sVheadersSize
p2882
I-1
sVredirectURL
p2883
g4
sVbodySize
p2884
I-1
sVhttpVersion
p2885
Vunknown
p2886
ssa(dp2887
Vcomment
p2888
g4
sVserverIPAddress
p2889
V216.58.216.206
p2890
sVpageref
p2891
VAlan Rickman
p2892
sVstartedDateTime
p2893
V2017-04-16T08:08:48.354-05:00
p2894
sVcache
p2895
(dp2896
sVrequest
p2897
(dp2898
Vcomment
p2899
g4
sVcookies
p2900
(lp2901
sVurl
p2902
Vhttps://i.ytimg.com/vi/31SHaFJfxhI/sddefault.jpg
p2903
sVqueryString
p2904
(lp2905
sVheaders
p2906
(lp2907
sVheadersSize
p2908
I413
sVbodySize
p2909
I0
sVmethod
p2910
VGET
p2911
sVhttpVersion
p2912
VHTTP/1.1
p2913
ssVtimings
p2914
(dp2915
Vcomment
p2916
g4
sVreceive
p2917
I31
sVsend
p2918
I0
sVssl
p2919
I38
sVconnect
p2920
I48
sVdns
p2921
I0
sVwait
p2922
I19
sVblocked
p2923
I0
ssVtime
p2924
I99
sVresponse
p2925
(dp2926
Vstatus
p2927
I200
sVcomment
p2928
g4
sVcookies
p2929
(lp2930
sVstatusText
p2931
VOK
p2932
sVcontent
p2933
(dp2934
VmimeType
p2935
Vimage/jpeg
p2936
sVcomment
p2937
g4
sVsize
p2938
I0
ssVheaders
p2939
(lp2940
sVheadersSize
p2941
I362
sVredirectURL
p2942
g4
sVbodySize
p2943
I44303
sVhttpVersion
p2944
VHTTP/1.1
p2945
ssa(dp2946
Vcomment
p2947
g4
sVserverIPAddress
p2948
V216.58.216.206
p2949
sVpageref
p2950
VAlan Rickman
p2951
sVstartedDateTime
p2952
V2017-04-16T08:08:48.297-05:00
p2953
sVcache
p2954
(dp2955
sVrequest
p2956
(dp2957
Vcomment
p2958
g4
sVcookies
p2959
(lp2960
sVurl
p2961
Vhttps://i.ytimg.com
p2962
sVqueryString
p2963
(lp2964
sVheaders
p2965
(lp2966
sVheadersSize
p2967
I0
sVbodySize
p2968
I0
sVmethod
p2969
VCONNECT
p2970
sVhttpVersion
p2971
VHTTP/1.1
p2972
ssVtimings
p2973
(dp2974
Vcomment
p2975
g4
sVreceive
p2976
I0
sVsend
p2977
I0
sVssl
p2978
I-1
sVconnect
p2979
I60
sVdns
p2980
I2
sVwait
p2981
I0
sVblocked
p2982
I0
ssVtime
p2983
I62
sVresponse
p2984
(dp2985
Vstatus
p2986
I0
sVcomment
p2987
g4
sVcookies
p2988
(lp2989
sV_error
p2990
VUnable to connect to host
p2991
sVstatusText
p2992
g4
sVcontent
p2993
(dp2994
VmimeType
p2995
g4
sVcomment
p2996
g4
sVsize
p2997
I0
ssVheaders
p2998
(lp2999
sVheadersSize
p3000
I-1
sVredirectURL
p3001
g4
sVbodySize
p3002
I-1
sVhttpVersion
p3003
Vunknown
p3004
ssa(dp3005
Vcomment
p3006
g4
sVserverIPAddress
p3007
V216.58.216.206
p3008
sVpageref
p3009
VAlan Rickman
p3010
sVstartedDateTime
p3011
V2017-04-16T08:08:48.367-05:00
p3012
sVcache
p3013
(dp3014
sVrequest
p3015
(dp3016
Vcomment
p3017
g4
sVcookies
p3018
(lp3019
sVurl
p3020
Vhttps://i.ytimg.com/vi/HkiMz-e2ZcE/sddefault.jpg
p3021
sVqueryString
p3022
(lp3023
sVheaders
p3024
(lp3025
sVheadersSize
p3026
I413
sVbodySize
p3027
I0
sVmethod
p3028
VGET
p3029
sVhttpVersion
p3030
VHTTP/1.1
p3031
ssVtimings
p3032
(dp3033
Vcomment
p3034
g4
sVreceive
p3035
I1
sVsend
p3036
I0
sVssl
p3037
I38
sVconnect
p3038
I60
sVdns
p3039
I0
sVwait
p3040
I24
sVblocked
p3041
I0
ssVtime
p3042
I85
sVresponse
p3043
(dp3044
Vstatus
p3045
I200
sVcomment
p3046
g4
sVcookies
p3047
(lp3048
sVstatusText
p3049
VOK
p3050
sVcontent
p3051
(dp3052
VmimeType
p3053
Vimage/jpeg
p3054
sVcomment
p3055
g4
sVsize
p3056
I0
ssVheaders
p3057
(lp3058
sVheadersSize
p3059
I362
sVredirectURL
p3060
g4
sVbodySize
p3061
I10751
sVhttpVersion
p3062
VHTTP/1.1
p3063
ssa(dp3064
Vcomment
p3065
g4
sVserverIPAddress
p3066
V216.58.216.206
p3067
sVpageref
p3068
VAlan Rickman
p3069
sVstartedDateTime
p3070
V2017-04-16T08:08:48.374-05:00
p3071
sVcache
p3072
(dp3073
sVrequest
p3074
(dp3075
Vcomment
p3076
g4
sVcookies
p3077
(lp3078
sVurl
p3079
Vhttps://i.ytimg.com/vi/SJIaRnsyaIc/sddefault.jpg
p3080
sVqueryString
p3081
(lp3082
sVheaders
p3083
(lp3084
sVheadersSize
p3085
I413
sVbodySize
p3086
I0
sVmethod
p3087
VGET
p3088
sVhttpVersion
p3089
VHTTP/1.1
p3090
ssVtimings
p3091
(dp3092
Vcomment
p3093
g4
sVreceive
p3094
I20
sVsend
p3095
I0
sVssl
p3096
I38
sVconnect
p3097
I66
sVdns
p3098
I0
sVwait
p3099
I31
sVblocked
p3100
I0
ssVtime
p3101
I118
sVresponse
p3102
(dp3103
Vstatus
p3104
I200
sVcomment
p3105
g4
sVcookies
p3106
(lp3107
sVstatusText
p3108
VOK
p3109
sVcontent
p3110
(dp3111
VmimeType
p3112
Vimage/jpeg
p3113
sVcomment
p3114
g4
sVsize
p3115
I0
ssVheaders
p3116
(lp3117
sVheadersSize
p3118
I362
sVredirectURL
p3119
g4
sVbodySize
p3120
I20081
sVhttpVersion
p3121
VHTTP/1.1
p3122
ssa(dp3123
Vcomment
p3124
g4
sVserverIPAddress
p3125
V216.58.216.196
p3126
sVpageref
p3127
VAlan Rickman
p3128
sVstartedDateTime
p3129
V2017-04-16T08:08:48.440-05:00
p3130
sVcache
p3131
(dp3132
sVrequest
p3133
(dp3134
Vcomment
p3135
g4
sVcookies
p3136
(lp3137
sVurl
p3138
Vhttps://www.google.com/gen_204?s=web&atyp=csi&ei=3GzzWKGIFenBjwT_4KtI&imc=38&imn=38&imp=16&adh=&xjs=init.34.14.sb_mob.26.dvl.3.c.1.mbsf.1.jsa.1&ima=16&rt=prt.742,iml.1006,xjsls.743,dcl.814,xjses.1047,xjsee.1209,xjs.1210,qiml.1958,ol.2990,aft.1006,wsrt.116,cst.0,dnst.0,rqst.785,rspt.690,rqstt.3,unt.3,cstt.3,dit.874
p3139
sVqueryString
p3140
(lp3141
(dp3142
Vname
p3143
g57
sVvalue
p3144
Vweb
p3145
sa(dp3146
Vname
p3147
Vatyp
p3148
sVvalue
p3149
Vcsi
p3150
sa(dp3151
Vname
p3152
Vei
p3153
sVvalue
p3154
V3GzzWKGIFenBjwT_4KtI
p3155
sa(dp3156
Vname
p3157
Vimc
p3158
sVvalue
p3159
V38
p3160
sa(dp3161
Vname
p3162
Vimn
p3163
sVvalue
p3164
V38
p3165
sa(dp3166
Vname
p3167
Vimp
p3168
sVvalue
p3169
V16
p3170
sa(dp3171
Vname
p3172
Vadh
p3173
sVvalue
p3174
g4
sa(dp3175
Vname
p3176
Vxjs
p3177
sVvalue
p3178
Vinit.34.14.sb_mob.26.dvl.3.c.1.mbsf.1.jsa.1
p3179
sa(dp3180
Vname
p3181
Vima
p3182
sVvalue
p3183
V16
p3184
sa(dp3185
Vname
p3186
Vrt
p3187
sVvalue
p3188
Vprt.742,iml.1006,xjsls.743,dcl.814,xjses.1047,xjsee.1209,xjs.1210,qiml.1958,ol.2990,aft.1006,wsrt.116,cst.0,dnst.0,rqst.785,rspt.690,rqstt.3,unt.3,cstt.3,dit.874
p3189
sasVheaders
p3190
(lp3191
sVheadersSize
p3192
I832
sVbodySize
p3193
I0
sVmethod
p3194
VGET
p3195
sVhttpVersion
p3196
VHTTP/1.1
p3197
ssVtimings
p3198
(dp3199
Vcomment
p3200
g4
sVreceive
p3201
I0
sVsend
p3202
I0
sVssl
p3203
I-1
sVconnect
p3204
I-1
sVdns
p3205
I-1
sVwait
p3206
I28
sVblocked
p3207
I-1
ssVtime
p3208
I28
sVresponse
p3209
(dp3210
Vstatus
p3211
I204
sVcomment
p3212
g4
sVcookies
p3213
(lp3214
sVstatusText
p3215
VNo Content
p3216
sVcontent
p3217
(dp3218
VmimeType
p3219
Vtext/html; charset=UTF-8
p3220
sVcomment
p3221
g4
sVsize
p3222
I0
ssVheaders
p3223
(lp3224
sVheadersSize
p3225
I248
sVredirectURL
p3226
g4
sVbodySize
p3227
I0
sVhttpVersion
p3228
VHTTP/1.1
p3229
ssa(dp3230
Vcomment
p3231
g4
sVserverIPAddress
p3232
V216.58.216.196
p3233
sVpageref
p3234
VAlan Rickman
p3235
sVstartedDateTime
p3236
V2017-04-16T08:08:49.162-05:00
p3237
sVcache
p3238
(dp3239
sVrequest
p3240
(dp3241
Vcomment
p3242
g4
sVcookies
p3243
(lp3244
sVurl
p3245
Vhttps://www.google.com/gen_204?atyp=i&ct=slh&cad=&ei=ymzzWPQc5qyPBNylvtgB&s=2&v=2&pv=0.43580510932020944&me=18:1492348124797,e,H&zx=1492348129160
p3246
sVqueryString
p3247
(lp3248
(dp3249
Vname
p3250
Vatyp
p3251
sVvalue
p3252
g30
sa(dp3253
Vname
p3254
Vct
p3255
sVvalue
p3256
Vslh
p3257
sa(dp3258
Vname
p3259
Vcad
p3260
sVvalue
p3261
g4
sa(dp3262
Vname
p3263
Vei
p3264
sVvalue
p3265
VymzzWPQc5qyPBNylvtgB
p3266
sa(dp3267
Vname
p3268
g57
sVvalue
p3269
g64
sa(dp3270
Vname
p3271
g62
sVvalue
p3272
g64
sa(dp3273
Vname
p3274
Vpv
p3275
sVvalue
p3276
V0.43580510932020944
p3277
sa(dp3278
Vname
p3279
Vme
p3280
sVvalue
p3281
V18:1492348124797,e,H
p3282
sa(dp3283
Vname
p3284
Vzx
p3285
sVvalue
p3286
V1492348129160
p3287
sasVheaders
p3288
(lp3289
sVheadersSize
p3290
I662
sVbodySize
p3291
I0
sVmethod
p3292
VGET
p3293
sVhttpVersion
p3294
VHTTP/1.1
p3295
ssVtimings
p3296
(dp3297
Vcomment
p3298
g4
sVreceive
p3299
I0
sVsend
p3300
I0
sVssl
p3301
I-1
sVconnect
p3302
I-1
sVdns
p3303
I-1
sVwait
p3304
I31
sVblocked
p3305
I-1
ssVtime
p3306
I31
sVresponse
p3307
(dp3308
Vstatus
p3309
I204
sVcomment
p3310
g4
sVcookies
p3311
(lp3312
sVstatusText
p3313
VNo Content
p3314
sVcontent
p3315
(dp3316
VmimeType
p3317
Vtext/html; charset=UTF-8
p3318
sVcomment
p3319
g4
sVsize
p3320
I0
ssVheaders
p3321
(lp3322
sVheadersSize
p3323
I248
sVredirectURL
p3324
g4
sVbodySize
p3325
I0
sVhttpVersion
p3326
VHTTP/1.1
p3327
ssasVversion
p3328
V1.2
p3329
sVpages
p3330
(lp3331
(dp3332
VpageTimings
p3333
(dp3334
Vcomment
p3335
g4
ssVcomment
p3336
g4
sVtitle
p3337
VAlan Rickman
p3338
sVid
p3339
VAlan Rickman
p3340
sVstartedDateTime
p3341
V2017-04-16T08:08:44.175-05:00
p3342
sasVcreator
p3343
(dp3344
Vcomment
p3345
g4
sVversion
p3346
V2.1.4
p3347
sVname
p3348
VBrowserMob Proxy
p3349
sss.