(dp0
Vlog
p1
(dp2
Vcomment
p3
V
p4
sVentries
p5
(lp6
(dp7
Vcomment
p8
g4
sVserverIPAddress
p9
V216.58.216.196
p10
sVpageref
p11
VSloth
p12
sVstartedDateTime
p13
V2017-04-16T08:15:30.934-05:00
p14
sVcache
p15
(dp16
sVrequest
p17
(dp18
Vcomment
p19
g4
sVcookies
p20
(lp21
sVurl
p22
Vhttps://www.google.com/gen_204?atyp=i&ct=slh&cad=&ei=W27zWOmQAsHPjwTX2qfwAQ&m=V&t=C&s=1&v=2&pv=0.42959610775638746&me=1:1492348510309,x:1,V,0,0,1280,944:0,N,1,W27zWOmQAsHPjwTX2qfwAQ:0,R,1,24,8,155,1249,666:0,R,1,25,8,155,1249,666:0,R,1,28,8,168,1249,40:0,R,1,41,8,219,1249,178:0,R,1,44,0,235,1265,197:0,R,1,84,8,414,1249,20:0,R,1,85,24,414,1217,20:0,R,1,90,8,450,1249,20:0,R,1,98,8,478,1249,21:0,R,1,102,8,564,1249,184:0,R,1,103,0,564,1265,204:0,R,1,126,8,831,1249,201:0,R,1,127,24,831,1217,190:3,B,4204:20620,e,U&zx=1492348530933
p23
sVqueryString
p24
(lp25
(dp26
Vname
p27
Vatyp
p28
sVvalue
p29
Vi
p30
sa(dp31
Vname
p32
Vct
p33
sVvalue
p34
Vslh
p35
sa(dp36
Vname
p37
Vcad
p38
sVvalue
p39
g4
sa(dp40
Vname
p41
Vei
p42
sVvalue
p43
VW27zWOmQAsHPjwTX2qfwAQ
p44
sa(dp45
Vname
p46
Vm
p47
sVvalue
p48
VV
p49
sa(dp50
Vname
p51
Vt
p52
sVvalue
p53
VC
p54
sa(dp55
Vname
p56
Vs
p57
sVvalue
p58
V1
p59
sa(dp60
Vname
p61
Vv
p62
sVvalue
p63
V2
p64
sa(dp65
Vname
p66
Vpv
p67
sVvalue
p68
V0.42959610775638746
p69
sa(dp70
Vname
p71
Vme
p72
sVvalue
p73
V1:1492348510309,x:1,V,0,0,1280,944:0,N,1,W27zWOmQAsHPjwTX2qfwAQ:0,R,1,24,8,155,1249,666:0,R,1,25,8,155,1249,666:0,R,1,28,8,168,1249,40:0,R,1,41,8,219,1249,178:0,R,1,44,0,235,1265,197:0,R,1,84,8,414,1249,20:0,R,1,85,24,414,1217,20:0,R,1,90,8,450,1249,20:0,R,1,98,8,478,1249,21:0,R,1,102,8,564,1249,184:0,R,1,103,0,564,1265,204:0,R,1,126,8,831,1249,201:0,R,1,127,24,831,1217,190:3,B,4204:20620,e,U
p74
sa(dp75
Vname
p76
Vzx
p77
sVvalue
p78
V1492348530933
p79
sasVheaders
p80
(lp81
sVheadersSize
p82
I1047
sVbodySize
p83
I0
sVmethod
p84
VGET
p85
sVhttpVersion
p86
VHTTP/1.1
p87
ssVtimings
p88
(dp89
Vcomment
p90
g4
sVreceive
p91
I0
sVsend
p92
I0
sVssl
p93
I-1
sVconnect
p94
I-1
sVdns
p95
I-1
sVwait
p96
I0
sVblocked
p97
I-1
ssVtime
p98
I0
sVresponse
p99
(dp100
Vstatus
p101
I0
sVcomment
p102
g4
sVcookies
p103
(lp104
sV_error
p105
VNo response received
p106
sVstatusText
p107
g4
sVcontent
p108
(dp109
VmimeType
p110
g4
sVcomment
p111
g4
sVsize
p112
I0
ssVheaders
p113
(lp114
sVheadersSize
p115
I-1
sVredirectURL
p116
g4
sVbodySize
p117
I-1
sVhttpVersion
p118
Vunknown
p119
ssa(dp120
Vcomment
p121
g4
sVserverIPAddress
p122
V216.58.216.196
p123
sVpageref
p124
VSloth
p125
sVstartedDateTime
p126
V2017-04-16T08:15:30.938-05:00
p127
sVcache
p128
(dp129
sVrequest
p130
(dp131
Vcomment
p132
g4
sVcookies
p133
(lp134
sVurl
p135
Vhttp://www.google.com/
p136
sVqueryString
p137
(lp138
sVheaders
p139
(lp140
sVheadersSize
p141
I613
sVbodySize
p142
I0
sVmethod
p143
VGET
p144
sVhttpVersion
p145
VHTTP/1.1
p146
ssVtimings
p147
(dp148
Vcomment
p149
g4
sVreceive
p150
I0
sVsend
p151
I0
sVssl
p152
I-1
sVconnect
p153
I-1
sVdns
p154
I-1
sVwait
p155
I76
sVblocked
p156
I-1
ssVtime
p157
I76
sVresponse
p158
(dp159
Vstatus
p160
I302
sVcomment
p161
g4
sVcookies
p162
(lp163
sVstatusText
p164
VFound
p165
sVcontent
p166
(dp167
VmimeType
p168
Vtext/html; charset=UTF-8
p169
sVcomment
p170
g4
sVsize
p171
I0
ssVheaders
p172
(lp173
sVheadersSize
p174
I609
sVredirectURL
p175
Vhttps://www.google.com/?gws_rd=ssl
p176
sVbodySize
p177
I231
sVhttpVersion
p178
VHTTP/1.1
p179
ssa(dp180
Vcomment
p181
g4
sVserverIPAddress
p182
V216.58.216.196
p183
sVpageref
p184
VSloth
p185
sVstartedDateTime
p186
V2017-04-16T08:15:31.020-05:00
p187
sVcache
p188
(dp189
sVrequest
p190
(dp191
Vcomment
p192
g4
sVcookies
p193
(lp194
sVurl
p195
Vhttps://www.google.com/?gws_rd=ssl
p196
sVqueryString
p197
(lp198
(dp199
Vname
p200
Vgws_rd
p201
sVvalue
p202
Vssl
p203
sasVheaders
p204
(lp205
sVheadersSize
p206
I607
sVbodySize
p207
I0
sVmethod
p208
VGET
p209
sVhttpVersion
p210
VHTTP/1.1
p211
ssVtimings
p212
(dp213
Vcomment
p214
g4
sVreceive
p215
I25
sVsend
p216
I0
sVssl
p217
I-1
sVconnect
p218
I-1
sVdns
p219
I-1
sVwait
p220
I99
sVblocked
p221
I-1
ssVtime
p222
I125
sVresponse
p223
(dp224
Vstatus
p225
I200
sVcomment
p226
g4
sVcookies
p227
(lp228
sVstatusText
p229
VOK
p230
sVcontent
p231
(dp232
VmimeType
p233
Vtext/html; charset=UTF-8
p234
sVcomment
p235
g4
sVsize
p236
I0
ssVheaders
p237
(lp238
sVheadersSize
p239
I721
sVredirectURL
p240
g4
sVbodySize
p241
I34289
sVhttpVersion
p242
VHTTP/1.1
p243
ssa(dp244
Vcomment
p245
g4
sVserverIPAddress
p246
V216.58.216.196
p247
sVpageref
p248
VSloth
p249
sVstartedDateTime
p250
V2017-04-16T08:15:31.424-05:00
p251
sVcache
p252
(dp253
sVrequest
p254
(dp255
Vcomment
p256
g4
sVcookies
p257
(lp258
sVurl
p259
Vhttps://www.google.com/gen_204?s=mobilewebhp&atyp=csi&ei=cm7zWKzxAsHajwTuq7OAAg&imc=1&imn=1&imp=0&adh=&xjs=init.30.12.sb_mob.24.dvl.3.c.1.jsa.1.ipv6.1&ima=1&rt=xjsls.22,prt.23,iml.23,dcl.46,xjses.100,xjsee.224,xjs.225,ol.267,aft.23,wsrt.218,cst.0,dnst.0,rqst.128,rspt.27,rqstt.87,unt.85,cstt.85,dit.250
p260
sVqueryString
p261
(lp262
(dp263
Vname
p264
g57
sVvalue
p265
Vmobilewebhp
p266
sa(dp267
Vname
p268
Vatyp
p269
sVvalue
p270
Vcsi
p271
sa(dp272
Vname
p273
Vei
p274
sVvalue
p275
Vcm7zWKzxAsHajwTuq7OAAg
p276
sa(dp277
Vname
p278
Vimc
p279
sVvalue
p280
g59
sa(dp281
Vname
p282
Vimn
p283
sVvalue
p284
g59
sa(dp285
Vname
p286
Vimp
p287
sVvalue
p288
V0
p289
sa(dp290
Vname
p291
Vadh
p292
sVvalue
p293
g4
sa(dp294
Vname
p295
Vxjs
p296
sVvalue
p297
Vinit.30.12.sb_mob.24.dvl.3.c.1.jsa.1.ipv6.1
p298
sa(dp299
Vname
p300
Vima
p301
sVvalue
p302
g59
sa(dp303
Vname
p304
Vrt
p305
sVvalue
p306
Vxjsls.22,prt.23,iml.23,dcl.46,xjses.100,xjsee.224,xjs.225,ol.267,aft.23,wsrt.218,cst.0,dnst.0,rqst.128,rspt.27,rqstt.87,unt.85,cstt.85,dit.250
p307
sasVheaders
p308
(lp309
sVheadersSize
p310
I830
sVbodySize
p311
I0
sVmethod
p312
VGET
p313
sVhttpVersion
p314
VHTTP/1.1
p315
ssVtimings
p316
(dp317
Vcomment
p318
g4
sVreceive
p319
I0
sVsend
p320
I0
sVssl
p321
I-1
sVconnect
p322
I-1
sVdns
p323
I-1
sVwait
p324
I32
sVblocked
p325
I-1
ssVtime
p326
I32
sVresponse
p327
(dp328
Vstatus
p329
I204
sVcomment
p330
g4
sVcookies
p331
(lp332
sVstatusText
p333
VNo Content
p334
sVcontent
p335
(dp336
VmimeType
p337
Vtext/html; charset=UTF-8
p338
sVcomment
p339
g4
sVsize
p340
I0
ssVheaders
p341
(lp342
sVheadersSize
p343
I248
sVredirectURL
p344
g4
sVbodySize
p345
I0
sVhttpVersion
p346
VHTTP/1.1
p347
ssa(dp348
Vcomment
p349
g4
sVserverIPAddress
p350
V216.58.216.196
p351
sVpageref
p352
VSloth
p353
sVstartedDateTime
p354
V2017-04-16T08:15:31.603-05:00
p355
sVcache
p356
(dp357
sVrequest
p358
(dp359
Vcomment
p360
g4
sVcookies
p361
(lp362
sVurl
p363
Vhttps://www.google.com/complete/search?client=mobile-gws-hp&hl=en&gs_rn=64&gs_ri=mobile-gws-hp&sla=1&pfq=sebastian%20stan&gm=602&cp=0&gs_id=1&xhr=t&q=S&tch=1&ech=1&psi=cm7zWKzxAsHajwTuq7OAAg.1492348531343.1
p364
sVqueryString
p365
(lp366
(dp367
Vname
p368
Vclient
p369
sVvalue
p370
Vmobile-gws-hp
p371
sa(dp372
Vname
p373
Vhl
p374
sVvalue
p375
Ven
p376
sa(dp377
Vname
p378
Vgs_rn
p379
sVvalue
p380
V64
p381
sa(dp382
Vname
p383
Vgs_ri
p384
sVvalue
p385
Vmobile-gws-hp
p386
sa(dp387
Vname
p388
Vsla
p389
sVvalue
p390
g59
sa(dp391
Vname
p392
Vpfq
p393
sVvalue
p394
Vsebastian stan
p395
sa(dp396
Vname
p397
Vgm
p398
sVvalue
p399
V602
p400
sa(dp401
Vname
p402
Vcp
p403
sVvalue
p404
g289
sa(dp405
Vname
p406
Vgs_id
p407
sVvalue
p408
g59
sa(dp409
Vname
p410
Vxhr
p411
sVvalue
p412
g52
sa(dp413
Vname
p414
Vq
p415
sVvalue
p416
VS
p417
sa(dp418
Vname
p419
Vtch
p420
sVvalue
p421
g59
sa(dp422
Vname
p423
Vech
p424
sVvalue
p425
g59
sa(dp426
Vname
p427
Vpsi
p428
sVvalue
p429
Vcm7zWKzxAsHajwTuq7OAAg.1492348531343.1
p430
sasVheaders
p431
(lp432
sVheadersSize
p433
I734
sVbodySize
p434
I0
sVmethod
p435
VGET
p436
sVhttpVersion
p437
VHTTP/1.1
p438
ssVtimings
p439
(dp440
Vcomment
p441
g4
sVreceive
p442
I0
sVsend
p443
I0
sVssl
p444
I-1
sVconnect
p445
I-1
sVdns
p446
I-1
sVwait
p447
I0
sVblocked
p448
I-1
ssVtime
p449
I0
sVresponse
p450
(dp451
Vstatus
p452
I0
sVcomment
p453
g4
sVcookies
p454
(lp455
sV_error
p456
VNo response received
p457
sVstatusText
p458
g4
sVcontent
p459
(dp460
VmimeType
p461
g4
sVcomment
p462
g4
sVsize
p463
I0
ssVheaders
p464
(lp465
sVheadersSize
p466
I-1
sVredirectURL
p467
g4
sVbodySize
p468
I-1
sVhttpVersion
p469
Vunknown
p470
ssa(dp471
Vcomment
p472
g4
sVserverIPAddress
p473
V216.58.216.196
p474
sVpageref
p475
VSloth
p476
sVstartedDateTime
p477
V2017-04-16T08:15:31.659-05:00
p478
sVcache
p479
(dp480
sVrequest
p481
(dp482
Vcomment
p483
g4
sVcookies
p484
(lp485
sVurl
p486
Vhttps://www.google.com/search?site=&source=hp&ei=cm7zWKzxAsHajwTuq7OAAg&q=Sloth&oq=Sloth&gs_l=mobile-gws-hp.3...231.247.0.277.5.1.0.0.0.0.0.0..0.0....0...1c.1.64.mobile-gws-hp..5.0.0.cO1gK2VnpJQ
p487
sVqueryString
p488
(lp489
(dp490
Vname
p491
Vsite
p492
sVvalue
p493
g4
sa(dp494
Vname
p495
Vsource
p496
sVvalue
p497
Vhp
p498
sa(dp499
Vname
p500
Vei
p501
sVvalue
p502
Vcm7zWKzxAsHajwTuq7OAAg
p503
sa(dp504
Vname
p505
g415
sVvalue
p506
VSloth
p507
sa(dp508
Vname
p509
Voq
p510
sVvalue
p511
VSloth
p512
sa(dp513
Vname
p514
Vgs_l
p515
sVvalue
p516
Vmobile-gws-hp.3...231.247.0.277.5.1.0.0.0.0.0.0..0.0....0...1c.1.64.mobile-gws-hp..5.0.0.cO1gK2VnpJQ
p517
sasVheaders
p518
(lp519
sVheadersSize
p520
I812
sVbodySize
p521
I0
sVmethod
p522
VGET
p523
sVhttpVersion
p524
VHTTP/1.1
p525
ssVtimings
p526
(dp527
Vcomment
p528
g4
sVreceive
p529
I765
sVsend
p530
I0
sVssl
p531
I-1
sVconnect
p532
I-1
sVdns
p533
I-1
sVwait
p534
I97
sVblocked
p535
I-1
ssVtime
p536
I863
sVresponse
p537
(dp538
Vstatus
p539
I200
sVcomment
p540
g4
sVcookies
p541
(lp542
sVstatusText
p543
VOK
p544
sVcontent
p545
(dp546
VmimeType
p547
Vtext/html; charset=UTF-8
p548
sVcomment
p549
g4
sVsize
p550
I0
ssVheaders
p551
(lp552
sVheadersSize
p553
I363
sVredirectURL
p554
g4
sVbodySize
p555
I170439
sVhttpVersion
p556
VHTTP/1.1
p557
ssa(dp558
Vcomment
p559
g4
sVserverIPAddress
p560
V216.58.216.196
p561
sVpageref
p562
VSloth
p563
sVstartedDateTime
p564
V2017-04-16T08:15:33.540-05:00
p565
sVcache
p566
(dp567
sVrequest
p568
(dp569
Vcomment
p570
g4
sVcookies
p571
(lp572
sVurl
p573
Vhttps://www.google.com/async/irc?vet=10ahUKEwiL47TAh6nTAhWh14MKHat3Aw4Qo0EI1AE..i&ved=0ahUKEwiL47TAh6nTAhWh14MKHat3Aw4Qo0EI1AE&ei=cm7zWIviKKGvjwSr741w&yv=2&async=iu:1,ved:0ahUKEwiL47TAh6nTAhWh14MKHat3Aw4Qo0EI1AE,_id:irc_async,_pms:qs
p574
sVqueryString
p575
(lp576
(dp577
Vname
p578
Vvet
p579
sVvalue
p580
V10ahUKEwiL47TAh6nTAhWh14MKHat3Aw4Qo0EI1AE..i
p581
sa(dp582
Vname
p583
Vved
p584
sVvalue
p585
V0ahUKEwiL47TAh6nTAhWh14MKHat3Aw4Qo0EI1AE
p586
sa(dp587
Vname
p588
Vei
p589
sVvalue
p590
Vcm7zWIviKKGvjwSr741w
p591
sa(dp592
Vname
p593
Vyv
p594
sVvalue
p595
g64
sa(dp596
Vname
p597
Vasync
p598
sVvalue
p599
Viu:1,ved:0ahUKEwiL47TAh6nTAhWh14MKHat3Aw4Qo0EI1AE,_id:irc_async,_pms:qs
p600
sasVheaders
p601
(lp602
sVheadersSize
p603
I750
sVbodySize
p604
I0
sVmethod
p605
VGET
p606
sVhttpVersion
p607
VHTTP/1.1
p608
ssVtimings
p609
(dp610
Vcomment
p611
g4
sVreceive
p612
I1
sVsend
p613
I0
sVssl
p614
I-1
sVconnect
p615
I-1
sVdns
p616
I-1
sVwait
p617
I128
sVblocked
p618
I-1
ssVtime
p619
I130
sVresponse
p620
(dp621
Vstatus
p622
I200
sVcomment
p623
g4
sVcookies
p624
(lp625
sVstatusText
p626
VOK
p627
sVcontent
p628
(dp629
VmimeType
p630
Vtext/html; charset=UTF-8
p631
sVcomment
p632
g4
sVsize
p633
I0
ssVheaders
p634
(lp635
sVheadersSize
p636
I383
sVredirectURL
p637
g4
sVbodySize
p638
I7791
sVhttpVersion
p639
VHTTP/1.1
p640
ssa(dp641
Vcomment
p642
g4
sVserverIPAddress
p643
V216.58.216.196
p644
sVpageref
p645
VSloth
p646
sVstartedDateTime
p647
V2017-04-16T08:15:33.556-05:00
p648
sVcache
p649
(dp650
sVrequest
p651
(dp652
Vcomment
p653
g4
sVcookies
p654
(lp655
sVurl
p656
Vhttps://www.google.com/gen_204?atyp=i&ct=&cad=&vet=10ahUKEwiL47TAh6nTAhWh14MKHat3Aw4Q5W0IMygC..s&ei=cm7zWIviKKGvjwSr741w&zx=1492348533554
p657
sVqueryString
p658
(lp659
(dp660
Vname
p661
Vatyp
p662
sVvalue
p663
g30
sa(dp664
Vname
p665
Vct
p666
sVvalue
p667
g4
sa(dp668
Vname
p669
Vcad
p670
sVvalue
p671
g4
sa(dp672
Vname
p673
Vvet
p674
sVvalue
p675
V10ahUKEwiL47TAh6nTAhWh14MKHat3Aw4Q5W0IMygC..s
p676
sa(dp677
Vname
p678
Vei
p679
sVvalue
p680
Vcm7zWIviKKGvjwSr741w
p681
sa(dp682
Vname
p683
Vzx
p684
sVvalue
p685
V1492348533554
p686
sasVheaders
p687
(lp688
sVheadersSize
p689
I654
sVbodySize
p690
I0
sVmethod
p691
VGET
p692
sVhttpVersion
p693
VHTTP/1.1
p694
ssVtimings
p695
(dp696
Vcomment
p697
g4
sVreceive
p698
I0
sVsend
p699
I0
sVssl
p700
I-1
sVconnect
p701
I-1
sVdns
p702
I-1
sVwait
p703
I43
sVblocked
p704
I-1
ssVtime
p705
I43
sVresponse
p706
(dp707
Vstatus
p708
I204
sVcomment
p709
g4
sVcookies
p710
(lp711
sVstatusText
p712
VNo Content
p713
sVcontent
p714
(dp715
VmimeType
p716
Vtext/html; charset=UTF-8
p717
sVcomment
p718
g4
sVsize
p719
I0
ssVheaders
p720
(lp721
sVheadersSize
p722
I248
sVredirectURL
p723
g4
sVbodySize
p724
I0
sVhttpVersion
p725
VHTTP/1.1
p726
ssa(dp727
Vcomment
p728
g4
sVserverIPAddress
p729
V216.58.216.196
p730
sVpageref
p731
VSloth
p732
sVstartedDateTime
p733
V2017-04-16T08:15:33.559-05:00
p734
sVcache
p735
(dp736
sVrequest
p737
(dp738
Vcomment
p739
g4
sVcookies
p740
(lp741
sVurl
p742
Vhttps://www.google.com/gen_204?atyp=i&ct=&cad=&vet=10ahUKEwiL47TAh6nTAhWh14MKHat3Aw4Q5W0INigD..s&ei=cm7zWIviKKGvjwSr741w&zx=1492348533558
p743
sVqueryString
p744
(lp745
(dp746
Vname
p747
Vatyp
p748
sVvalue
p749
g30
sa(dp750
Vname
p751
Vct
p752
sVvalue
p753
g4
sa(dp754
Vname
p755
Vcad
p756
sVvalue
p757
g4
sa(dp758
Vname
p759
Vvet
p760
sVvalue
p761
V10ahUKEwiL47TAh6nTAhWh14MKHat3Aw4Q5W0INigD..s
p762
sa(dp763
Vname
p764
Vei
p765
sVvalue
p766
Vcm7zWIviKKGvjwSr741w
p767
sa(dp768
Vname
p769
Vzx
p770
sVvalue
p771
V1492348533558
p772
sasVheaders
p773
(lp774
sVheadersSize
p775
I654
sVbodySize
p776
I0
sVmethod
p777
VGET
p778
sVhttpVersion
p779
VHTTP/1.1
p780
ssVtimings
p781
(dp782
Vcomment
p783
g4
sVreceive
p784
I0
sVsend
p785
I0
sVssl
p786
I-1
sVconnect
p787
I-1
sVdns
p788
I-1
sVwait
p789
I39
sVblocked
p790
I-1
ssVtime
p791
I39
sVresponse
p792
(dp793
Vstatus
p794
I204
sVcomment
p795
g4
sVcookies
p796
(lp797
sVstatusText
p798
VNo Content
p799
sVcontent
p800
(dp801
VmimeType
p802
Vtext/html; charset=UTF-8
p803
sVcomment
p804
g4
sVsize
p805
I0
ssVheaders
p806
(lp807
sVheadersSize
p808
I248
sVredirectURL
p809
g4
sVbodySize
p810
I0
sVhttpVersion
p811
VHTTP/1.1
p812
ssa(dp813
Vcomment
p814
g4
sVserverIPAddress
p815
V216.58.216.196
p816
sVpageref
p817
VSloth
p818
sVstartedDateTime
p819
V2017-04-16T08:15:33.562-05:00
p820
sVcache
p821
(dp822
sVrequest
p823
(dp824
Vcomment
p825
g4
sVcookies
p826
(lp827
sVurl
p828
Vhttps://www.google.com/gen_204?atyp=i&ct=&cad=&vet=10ahUKEwiL47TAh6nTAhWh14MKHat3Aw4Q5W0IOSgE..s&ei=cm7zWIviKKGvjwSr741w&zx=1492348533561
p829
sVqueryString
p830
(lp831
(dp832
Vname
p833
Vatyp
p834
sVvalue
p835
g30
sa(dp836
Vname
p837
Vct
p838
sVvalue
p839
g4
sa(dp840
Vname
p841
Vcad
p842
sVvalue
p843
g4
sa(dp844
Vname
p845
Vvet
p846
sVvalue
p847
V10ahUKEwiL47TAh6nTAhWh14MKHat3Aw4Q5W0IOSgE..s
p848
sa(dp849
Vname
p850
Vei
p851
sVvalue
p852
Vcm7zWIviKKGvjwSr741w
p853
sa(dp854
Vname
p855
Vzx
p856
sVvalue
p857
V1492348533561
p858
sasVheaders
p859
(lp860
sVheadersSize
p861
I654
sVbodySize
p862
I0
sVmethod
p863
VGET
p864
sVhttpVersion
p865
VHTTP/1.1
p866
ssVtimings
p867
(dp868
Vcomment
p869
g4
sVreceive
p870
I0
sVsend
p871
I0
sVssl
p872
I-1
sVconnect
p873
I-1
sVdns
p874
I-1
sVwait
p875
I36
sVblocked
p876
I-1
ssVtime
p877
I37
sVresponse
p878
(dp879
Vstatus
p880
I204
sVcomment
p881
g4
sVcookies
p882
(lp883
sVstatusText
p884
VNo Content
p885
sVcontent
p886
(dp887
VmimeType
p888
Vtext/html; charset=UTF-8
p889
sVcomment
p890
g4
sVsize
p891
I0
ssVheaders
p892
(lp893
sVheadersSize
p894
I248
sVredirectURL
p895
g4
sVbodySize
p896
I0
sVhttpVersion
p897
VHTTP/1.1
p898
ssa(dp899
Vcomment
p900
g4
sVserverIPAddress
p901
V216.58.216.206
p902
sVpageref
p903
VSloth
p904
sVstartedDateTime
p905
V2017-04-16T08:15:33.637-05:00
p906
sVcache
p907
(dp908
sVrequest
p909
(dp910
Vcomment
p911
g4
sVcookies
p912
(lp913
sVurl
p914
Vhttps://encrypted-tbn1.gstatic.com/images?q=tbn:ANd9GcSGTVjPo4RIo682PV9nInP6OK63qpkyXRIoYuBjkx_66qUgv8A8g5NAzuhDvWbt9JHcJko
p915
sVqueryString
p916
(lp917
(dp918
Vname
p919
g415
sVvalue
p920
Vtbn:ANd9GcSGTVjPo4RIo682PV9nInP6OK63qpkyXRIoYuBjkx_66qUgv8A8g5NAzuhDvWbt9JHcJko
p921
sasVheaders
p922
(lp923
sVheadersSize
p924
I438
sVbodySize
p925
I0
sVmethod
p926
VGET
p927
sVhttpVersion
p928
VHTTP/1.1
p929
ssVtimings
p930
(dp931
Vcomment
p932
g4
sVreceive
p933
I0
sVsend
p934
I0
sVssl
p935
I-1
sVconnect
p936
I-1
sVdns
p937
I-1
sVwait
p938
I17
sVblocked
p939
I-1
ssVtime
p940
I18
sVresponse
p941
(dp942
Vstatus
p943
I200
sVcomment
p944
g4
sVcookies
p945
(lp946
sVstatusText
p947
VOK
p948
sVcontent
p949
(dp950
VmimeType
p951
Vimage/jpeg
p952
sVcomment
p953
g4
sVsize
p954
I0
ssVheaders
p955
(lp956
sVheadersSize
p957
I429
sVredirectURL
p958
g4
sVbodySize
p959
I4558
sVhttpVersion
p960
VHTTP/1.1
p961
ssa(dp962
Vcomment
p963
g4
sVserverIPAddress
p964
V172.217.6.4
p965
sVpageref
p966
VSloth
p967
sVstartedDateTime
p968
V2017-04-16T08:15:33.638-05:00
p969
sVcache
p970
(dp971
sVrequest
p972
(dp973
Vcomment
p974
g4
sVcookies
p975
(lp976
sVurl
p977
Vhttps://www.google.com/gen_204?atyp=i&ct=&cad=&vet=10ahUKEwiL47TAh6nTAhWh14MKHat3Aw4QtxAIlgEoAzAe..s&ei=cm7zWIviKKGvjwSr741w&zx=1492348533637
p978
sVqueryString
p979
(lp980
(dp981
Vname
p982
Vatyp
p983
sVvalue
p984
g30
sa(dp985
Vname
p986
Vct
p987
sVvalue
p988
g4
sa(dp989
Vname
p990
Vcad
p991
sVvalue
p992
g4
sa(dp993
Vname
p994
Vvet
p995
sVvalue
p996
V10ahUKEwiL47TAh6nTAhWh14MKHat3Aw4QtxAIlgEoAzAe..s
p997
sa(dp998
Vname
p999
Vei
p1000
sVvalue
p1001
Vcm7zWIviKKGvjwSr741w
p1002
sa(dp1003
Vname
p1004
Vzx
p1005
sVvalue
p1006
V1492348533637
p1007
sasVheaders
p1008
(lp1009
sVheadersSize
p1010
I658
sVbodySize
p1011
I0
sVmethod
p1012
VGET
p1013
sVhttpVersion
p1014
VHTTP/1.1
p1015
ssVtimings
p1016
(dp1017
Vcomment
p1018
g4
sVreceive
p1019
I0
sVsend
p1020
I0
sVssl
p1021
I-1
sVconnect
p1022
I-1
sVdns
p1023
I-1
sVwait
p1024
I32
sVblocked
p1025
I-1
ssVtime
p1026
I32
sVresponse
p1027
(dp1028
Vstatus
p1029
I204
sVcomment
p1030
g4
sVcookies
p1031
(lp1032
sVstatusText
p1033
VNo Content
p1034
sVcontent
p1035
(dp1036
VmimeType
p1037
Vtext/html; charset=UTF-8
p1038
sVcomment
p1039
g4
sVsize
p1040
I0
ssVheaders
p1041
(lp1042
sVheadersSize
p1043
I248
sVredirectURL
p1044
g4
sVbodySize
p1045
I0
sVhttpVersion
p1046
VHTTP/1.1
p1047
ssa(dp1048
Vcomment
p1049
g4
sVserverIPAddress
p1050
V216.58.216.206
p1051
sVpageref
p1052
VSloth
p1053
sVstartedDateTime
p1054
V2017-04-16T08:15:33.640-05:00
p1055
sVcache
p1056
(dp1057
sVrequest
p1058
(dp1059
Vcomment
p1060
g4
sVcookies
p1061
(lp1062
sVurl
p1063
Vhttps://encrypted-tbn0.gstatic.com/images?q=tbn:ANd9GcTR5ONlx9_8leN-BRkzlRoLtsBmZ1_jDorTjTakjumI8FuMeeOgZGQOPYnfn0om9ZR7VQw
p1064
sVqueryString
p1065
(lp1066
(dp1067
Vname
p1068
g415
sVvalue
p1069
Vtbn:ANd9GcTR5ONlx9_8leN-BRkzlRoLtsBmZ1_jDorTjTakjumI8FuMeeOgZGQOPYnfn0om9ZR7VQw
p1070
sasVheaders
p1071
(lp1072
sVheadersSize
p1073
I438
sVbodySize
p1074
I0
sVmethod
p1075
VGET
p1076
sVhttpVersion
p1077
VHTTP/1.1
p1078
ssVtimings
p1079
(dp1080
Vcomment
p1081
g4
sVreceive
p1082
I0
sVsend
p1083
I0
sVssl
p1084
I-1
sVconnect
p1085
I-1
sVdns
p1086
I-1
sVwait
p1087
I16
sVblocked
p1088
I-1
ssVtime
p1089
I17
sVresponse
p1090
(dp1091
Vstatus
p1092
I200
sVcomment
p1093
g4
sVcookies
p1094
(lp1095
sVstatusText
p1096
VOK
p1097
sVcontent
p1098
(dp1099
VmimeType
p1100
Vimage/jpeg
p1101
sVcomment
p1102
g4
sVsize
p1103
I0
ssVheaders
p1104
(lp1105
sVheadersSize
p1106
I407
sVredirectURL
p1107
g4
sVbodySize
p1108
I2426
sVhttpVersion
p1109
VHTTP/1.1
p1110
ssa(dp1111
Vcomment
p1112
g4
sVserverIPAddress
p1113
V172.217.6.4
p1114
sVpageref
p1115
VSloth
p1116
sVstartedDateTime
p1117
V2017-04-16T08:15:33.642-05:00
p1118
sVcache
p1119
(dp1120
sVrequest
p1121
(dp1122
Vcomment
p1123
g4
sVcookies
p1124
(lp1125
sVurl
p1126
Vhttps://www.google.com/gen_204?atyp=i&ct=&cad=&vet=10ahUKEwiL47TAh6nTAhWh14MKHat3Aw4QtxAImAEoBDAe..s&ei=cm7zWIviKKGvjwSr741w&zx=1492348533640
p1127
sVqueryString
p1128
(lp1129
(dp1130
Vname
p1131
Vatyp
p1132
sVvalue
p1133
g30
sa(dp1134
Vname
p1135
Vct
p1136
sVvalue
p1137
g4
sa(dp1138
Vname
p1139
Vcad
p1140
sVvalue
p1141
g4
sa(dp1142
Vname
p1143
Vvet
p1144
sVvalue
p1145
V10ahUKEwiL47TAh6nTAhWh14MKHat3Aw4QtxAImAEoBDAe..s
p1146
sa(dp1147
Vname
p1148
Vei
p1149
sVvalue
p1150
Vcm7zWIviKKGvjwSr741w
p1151
sa(dp1152
Vname
p1153
Vzx
p1154
sVvalue
p1155
V1492348533640
p1156
sasVheaders
p1157
(lp1158
sVheadersSize
p1159
I658
sVbodySize
p1160
I0
sVmethod
p1161
VGET
p1162
sVhttpVersion
p1163
VHTTP/1.1
p1164
ssVtimings
p1165
(dp1166
Vcomment
p1167
g4
sVreceive
p1168
I0
sVsend
p1169
I0
sVssl
p1170
I-1
sVconnect
p1171
I-1
sVdns
p1172
I-1
sVwait
p1173
I28
sVblocked
p1174
I-1
ssVtime
p1175
I28
sVresponse
p1176
(dp1177
Vstatus
p1178
I204
sVcomment
p1179
g4
sVcookies
p1180
(lp1181
sVstatusText
p1182
VNo Content
p1183
sVcontent
p1184
(dp1185
VmimeType
p1186
Vtext/html; charset=UTF-8
p1187
sVcomment
p1188
g4
sVsize
p1189
I0
ssVheaders
p1190
(lp1191
sVheadersSize
p1192
I248
sVredirectURL
p1193
g4
sVbodySize
p1194
I0
sVhttpVersion
p1195
VHTTP/1.1
p1196
ssa(dp1197
Vcomment
p1198
g4
sVserverIPAddress
p1199
V216.58.216.206
p1200
sVpageref
p1201
VSloth
p1202
sVstartedDateTime
p1203
V2017-04-16T08:15:33.647-05:00
p1204
sVcache
p1205
(dp1206
sVrequest
p1207
(dp1208
Vcomment
p1209
g4
sVcookies
p1210
(lp1211
sVurl
p1212
Vhttps://encrypted-tbn0.gstatic.com/images?q=tbn:ANd9GcTD2-mcU8n0dskjFo8OZawI59oBdS38tMHgcNBY1GyENUJhkckzQvG5CmhqtHEMr_HvLA
p1213
sVqueryString
p1214
(lp1215
(dp1216
Vname
p1217
g415
sVvalue
p1218
Vtbn:ANd9GcTD2-mcU8n0dskjFo8OZawI59oBdS38tMHgcNBY1GyENUJhkckzQvG5CmhqtHEMr_HvLA
p1219
sasVheaders
p1220
(lp1221
sVheadersSize
p1222
I437
sVbodySize
p1223
I0
sVmethod
p1224
VGET
p1225
sVhttpVersion
p1226
VHTTP/1.1
p1227
ssVtimings
p1228
(dp1229
Vcomment
p1230
g4
sVreceive
p1231
I1
sVsend
p1232
I0
sVssl
p1233
I-1
sVconnect
p1234
I-1
sVdns
p1235
I-1
sVwait
p1236
I18
sVblocked
p1237
I-1
ssVtime
p1238
I20
sVresponse
p1239
(dp1240
Vstatus
p1241
I200
sVcomment
p1242
g4
sVcookies
p1243
(lp1244
sVstatusText
p1245
VOK
p1246
sVcontent
p1247
(dp1248
VmimeType
p1249
Vimage/jpeg
p1250
sVcomment
p1251
g4
sVsize
p1252
I0
ssVheaders
p1253
(lp1254
sVheadersSize
p1255
I407
sVredirectURL
p1256
g4
sVbodySize
p1257
I3326
sVhttpVersion
p1258
VHTTP/1.1
p1259
ssa(dp1260
Vcomment
p1261
g4
sVserverIPAddress
p1262
V172.217.6.4
p1263
sVpageref
p1264
VSloth
p1265
sVstartedDateTime
p1266
V2017-04-16T08:15:33.656-05:00
p1267
sVcache
p1268
(dp1269
sVrequest
p1270
(dp1271
Vcomment
p1272
g4
sVcookies
p1273
(lp1274
sVurl
p1275
Vhttps://www.google.com/gen_204?atyp=i&ct=&cad=&vet=10ahUKEwiL47TAh6nTAhWh14MKHat3Aw4QtxAImgEoBTAe..s&ei=cm7zWIviKKGvjwSr741w&zx=1492348533645
p1276
sVqueryString
p1277
(lp1278
(dp1279
Vname
p1280
Vatyp
p1281
sVvalue
p1282
g30
sa(dp1283
Vname
p1284
Vct
p1285
sVvalue
p1286
g4
sa(dp1287
Vname
p1288
Vcad
p1289
sVvalue
p1290
g4
sa(dp1291
Vname
p1292
Vvet
p1293
sVvalue
p1294
V10ahUKEwiL47TAh6nTAhWh14MKHat3Aw4QtxAImgEoBTAe..s
p1295
sa(dp1296
Vname
p1297
Vei
p1298
sVvalue
p1299
Vcm7zWIviKKGvjwSr741w
p1300
sa(dp1301
Vname
p1302
Vzx
p1303
sVvalue
p1304
V1492348533645
p1305
sasVheaders
p1306
(lp1307
sVheadersSize
p1308
I658
sVbodySize
p1309
I0
sVmethod
p1310
VGET
p1311
sVhttpVersion
p1312
VHTTP/1.1
p1313
ssVtimings
p1314
(dp1315
Vcomment
p1316
g4
sVreceive
p1317
I0
sVsend
p1318
I0
sVssl
p1319
I-1
sVconnect
p1320
I-1
sVdns
p1321
I-1
sVwait
p1322
I44
sVblocked
p1323
I-1
ssVtime
p1324
I44
sVresponse
p1325
(dp1326
Vstatus
p1327
I204
sVcomment
p1328
g4
sVcookies
p1329
(lp1330
sVstatusText
p1331
VNo Content
p1332
sVcontent
p1333
(dp1334
VmimeType
p1335
Vtext/html; charset=UTF-8
p1336
sVcomment
p1337
g4
sVsize
p1338
I0
ssVheaders
p1339
(lp1340
sVheadersSize
p1341
I248
sVredirectURL
p1342
g4
sVbodySize
p1343
I0
sVhttpVersion
p1344
VHTTP/1.1
p1345
ssa(dp1346
Vcomment
p1347
g4
sVserverIPAddress
p1348
V172.217.6.4
p1349
sVpageref
p1350
VSloth
p1351
sVstartedDateTime
p1352
V2017-04-16T08:15:33.672-05:00
p1353
sVcache
p1354
(dp1355
sVrequest
p1356
(dp1357
Vcomment
p1358
g4
sVcookies
p1359
(lp1360
sVurl
p1361
Vhttps://www.google.com/gen_204?atyp=i&ct=&cad=&vet=10ahUKEwiL47TAh6nTAhWh14MKHat3Aw4QtxAInAEoBjAe..s&ei=cm7zWIviKKGvjwSr741w&zx=1492348533655
p1362
sVqueryString
p1363
(lp1364
(dp1365
Vname
p1366
Vatyp
p1367
sVvalue
p1368
g30
sa(dp1369
Vname
p1370
Vct
p1371
sVvalue
p1372
g4
sa(dp1373
Vname
p1374
Vcad
p1375
sVvalue
p1376
g4
sa(dp1377
Vname
p1378
Vvet
p1379
sVvalue
p1380
V10ahUKEwiL47TAh6nTAhWh14MKHat3Aw4QtxAInAEoBjAe..s
p1381
sa(dp1382
Vname
p1383
Vei
p1384
sVvalue
p1385
Vcm7zWIviKKGvjwSr741w
p1386
sa(dp1387
Vname
p1388
Vzx
p1389
sVvalue
p1390
V1492348533655
p1391
sasVheaders
p1392
(lp1393
sVheadersSize
p1394
I658
sVbodySize
p1395
I0
sVmethod
p1396
VGET
p1397
sVhttpVersion
p1398
VHTTP/1.1
p1399
ssVtimings
p1400
(dp1401
Vcomment
p1402
g4
sVreceive
p1403
I0
sVsend
p1404
I0
sVssl
p1405
I-1
sVconnect
p1406
I-1
sVdns
p1407
I-1
sVwait
p1408
I30
sVblocked
p1409
I-1
ssVtime
p1410
I30
sVresponse
p1411
(dp1412
Vstatus
p1413
I204
sVcomment
p1414
g4
sVcookies
p1415
(lp1416
sVstatusText
p1417
VNo Content
p1418
sVcontent
p1419
(dp1420
VmimeType
p1421
Vtext/html; charset=UTF-8
p1422
sVcomment
p1423
g4
sVsize
p1424
I0
ssVheaders
p1425
(lp1426
sVheadersSize
p1427
I248
sVredirectURL
p1428
g4
sVbodySize
p1429
I0
sVhttpVersion
p1430
VHTTP/1.1
p1431
ssa(dp1432
Vcomment
p1433
g4
sVserverIPAddress
p1434
V172.217.6.4
p1435
sVpageref
p1436
VSloth
p1437
sVstartedDateTime
p1438
V2017-04-16T08:15:33.672-05:00
p1439
sVcache
p1440
(dp1441
sVrequest
p1442
(dp1443
Vcomment
p1444
g4
sVcookies
p1445
(lp1446
sVurl
p1447
Vhttps://www.google.com/gen_204?atyp=i&ct=&cad=&vet=10ahUKEwiL47TAh6nTAhWh14MKHat3Aw4QtxAIngEoBzAe..s&ei=cm7zWIviKKGvjwSr741w&zx=1492348533662
p1448
sVqueryString
p1449
(lp1450
(dp1451
Vname
p1452
Vatyp
p1453
sVvalue
p1454
g30
sa(dp1455
Vname
p1456
Vct
p1457
sVvalue
p1458
g4
sa(dp1459
Vname
p1460
Vcad
p1461
sVvalue
p1462
g4
sa(dp1463
Vname
p1464
Vvet
p1465
sVvalue
p1466
V10ahUKEwiL47TAh6nTAhWh14MKHat3Aw4QtxAIngEoBzAe..s
p1467
sa(dp1468
Vname
p1469
Vei
p1470
sVvalue
p1471
Vcm7zWIviKKGvjwSr741w
p1472
sa(dp1473
Vname
p1474
Vzx
p1475
sVvalue
p1476
V1492348533662
p1477
sasVheaders
p1478
(lp1479
sVheadersSize
p1480
I658
sVbodySize
p1481
I0
sVmethod
p1482
VGET
p1483
sVhttpVersion
p1484
VHTTP/1.1
p1485
ssVtimings
p1486
(dp1487
Vcomment
p1488
g4
sVreceive
p1489
I0
sVsend
p1490
I0
sVssl
p1491
I-1
sVconnect
p1492
I-1
sVdns
p1493
I-1
sVwait
p1494
I29
sVblocked
p1495
I-1
ssVtime
p1496
I30
sVresponse
p1497
(dp1498
Vstatus
p1499
I204
sVcomment
p1500
g4
sVcookies
p1501
(lp1502
sVstatusText
p1503
VNo Content
p1504
sVcontent
p1505
(dp1506
VmimeType
p1507
Vtext/html; charset=UTF-8
p1508
sVcomment
p1509
g4
sVsize
p1510
I0
ssVheaders
p1511
(lp1512
sVheadersSize
p1513
I248
sVredirectURL
p1514
g4
sVbodySize
p1515
I0
sVhttpVersion
p1516
VHTTP/1.1
p1517
ssa(dp1518
Vcomment
p1519
g4
sVserverIPAddress
p1520
V172.217.6.4
p1521
sVpageref
p1522
VSloth
p1523
sVstartedDateTime
p1524
V2017-04-16T08:15:33.673-05:00
p1525
sVcache
p1526
(dp1527
sVrequest
p1528
(dp1529
Vcomment
p1530
g4
sVcookies
p1531
(lp1532
sVurl
p1533
Vhttps://www.google.com/gen_204?atyp=i&ct=&cad=&vet=10ahUKEwiL47TAh6nTAhWh14MKHat3Aw4Q5W0IPCgF..s&ei=cm7zWIviKKGvjwSr741w&zx=1492348533564
p1534
sVqueryString
p1535
(lp1536
(dp1537
Vname
p1538
Vatyp
p1539
sVvalue
p1540
g30
sa(dp1541
Vname
p1542
Vct
p1543
sVvalue
p1544
g4
sa(dp1545
Vname
p1546
Vcad
p1547
sVvalue
p1548
g4
sa(dp1549
Vname
p1550
Vvet
p1551
sVvalue
p1552
V10ahUKEwiL47TAh6nTAhWh14MKHat3Aw4Q5W0IPCgF..s
p1553
sa(dp1554
Vname
p1555
Vei
p1556
sVvalue
p1557
Vcm7zWIviKKGvjwSr741w
p1558
sa(dp1559
Vname
p1560
Vzx
p1561
sVvalue
p1562
V1492348533564
p1563
sasVheaders
p1564
(lp1565
sVheadersSize
p1566
I654
sVbodySize
p1567
I0
sVmethod
p1568
VGET
p1569
sVhttpVersion
p1570
VHTTP/1.1
p1571
ssVtimings
p1572
(dp1573
Vcomment
p1574
g4
sVreceive
p1575
I0
sVsend
p1576
I0
sVssl
p1577
I48
sVconnect
p1578
I70
sVdns
p1579
I33
sVwait
p1580
I28
sVblocked
p1581
I0
ssVtime
p1582
I133
sVresponse
p1583
(dp1584
Vstatus
p1585
I204
sVcomment
p1586
g4
sVcookies
p1587
(lp1588
sVstatusText
p1589
VNo Content
p1590
sVcontent
p1591
(dp1592
VmimeType
p1593
Vtext/html; charset=UTF-8
p1594
sVcomment
p1595
g4
sVsize
p1596
I0
ssVheaders
p1597
(lp1598
sVheadersSize
p1599
I248
sVredirectURL
p1600
g4
sVbodySize
p1601
I0
sVhttpVersion
p1602
VHTTP/1.1
p1603
ssa(dp1604
Vcomment
p1605
g4
sVserverIPAddress
p1606
V172.217.6.4
p1607
sVpageref
p1608
VSloth
p1609
sVstartedDateTime
p1610
V2017-04-16T08:15:33.683-05:00
p1611
sVcache
p1612
(dp1613
sVrequest
p1614
(dp1615
Vcomment
p1616
g4
sVcookies
p1617
(lp1618
sVurl
p1619
Vhttps://www.google.com/gen_204?atyp=i&ct=&cad=&vet=10ahUKEwiL47TAh6nTAhWh14MKHat3Aw4Q5W0IPygG..s&ei=cm7zWIviKKGvjwSr741w&zx=1492348533567
p1620
sVqueryString
p1621
(lp1622
(dp1623
Vname
p1624
Vatyp
p1625
sVvalue
p1626
g30
sa(dp1627
Vname
p1628
Vct
p1629
sVvalue
p1630
g4
sa(dp1631
Vname
p1632
Vcad
p1633
sVvalue
p1634
g4
sa(dp1635
Vname
p1636
Vvet
p1637
sVvalue
p1638
V10ahUKEwiL47TAh6nTAhWh14MKHat3Aw4Q5W0IPygG..s
p1639
sa(dp1640
Vname
p1641
Vei
p1642
sVvalue
p1643
Vcm7zWIviKKGvjwSr741w
p1644
sa(dp1645
Vname
p1646
Vzx
p1647
sVvalue
p1648
V1492348533567
p1649
sasVheaders
p1650
(lp1651
sVheadersSize
p1652
I654
sVbodySize
p1653
I0
sVmethod
p1654
VGET
p1655
sVhttpVersion
p1656
VHTTP/1.1
p1657
ssVtimings
p1658
(dp1659
Vcomment
p1660
g4
sVreceive
p1661
I0
sVsend
p1662
I0
sVssl
p1663
I59
sVconnect
p1664
I81
sVdns
p1665
I29
sVwait
p1666
I29
sVblocked
p1667
I0
ssVtime
p1668
I140
sVresponse
p1669
(dp1670
Vstatus
p1671
I204
sVcomment
p1672
g4
sVcookies
p1673
(lp1674
sVstatusText
p1675
VNo Content
p1676
sVcontent
p1677
(dp1678
VmimeType
p1679
Vtext/html; charset=UTF-8
p1680
sVcomment
p1681
g4
sVsize
p1682
I0
ssVheaders
p1683
(lp1684
sVheadersSize
p1685
I248
sVredirectURL
p1686
g4
sVbodySize
p1687
I0
sVhttpVersion
p1688
VHTTP/1.1
p1689
ssa(dp1690
Vcomment
p1691
g4
sVserverIPAddress
p1692
V172.217.6.4
p1693
sVpageref
p1694
VSloth
p1695
sVstartedDateTime
p1696
V2017-04-16T08:15:33.708-05:00
p1697
sVcache
p1698
(dp1699
sVrequest
p1700
(dp1701
Vcomment
p1702
g4
sVcookies
p1703
(lp1704
sVurl
p1705
Vhttps://www.google.com/async/ampfp?vet=10ahUKEwiL47TAh6nTAhWh14MKHat3Aw4QtZoBCNIB..i&ei=cm7zWIviKKGvjwSr741w&yv=2&async=_id:ampfp-async,_pms:qs
p1706
sVqueryString
p1707
(lp1708
(dp1709
Vname
p1710
Vvet
p1711
sVvalue
p1712
V10ahUKEwiL47TAh6nTAhWh14MKHat3Aw4QtZoBCNIB..i
p1713
sa(dp1714
Vname
p1715
Vei
p1716
sVvalue
p1717
Vcm7zWIviKKGvjwSr741w
p1718
sa(dp1719
Vname
p1720
Vyv
p1721
sVvalue
p1722
g64
sa(dp1723
Vname
p1724
Vasync
p1725
sVvalue
p1726
V_id:ampfp-async,_pms:qs
p1727
sasVheaders
p1728
(lp1729
sVheadersSize
p1730
I660
sVbodySize
p1731
I0
sVmethod
p1732
VGET
p1733
sVhttpVersion
p1734
VHTTP/1.1
p1735
ssVtimings
p1736
(dp1737
Vcomment
p1738
g4
sVreceive
p1739
I0
sVsend
p1740
I0
sVssl
p1741
I-1
sVconnect
p1742
I-1
sVdns
p1743
I-1
sVwait
p1744
I40
sVblocked
p1745
I-1
ssVtime
p1746
I41
sVresponse
p1747
(dp1748
Vstatus
p1749
I200
sVcomment
p1750
g4
sVcookies
p1751
(lp1752
sVstatusText
p1753
VOK
p1754
sVcontent
p1755
(dp1756
VmimeType
p1757
Vtext/html; charset=UTF-8
p1758
sVcomment
p1759
g4
sVsize
p1760
I0
ssVheaders
p1761
(lp1762
sVheadersSize
p1763
I383
sVredirectURL
p1764
g4
sVbodySize
p1765
I4525
sVhttpVersion
p1766
VHTTP/1.1
p1767
ssa(dp1768
Vcomment
p1769
g4
sVserverIPAddress
p1770
V216.58.216.193
p1771
sVpageref
p1772
VSloth
p1773
sVstartedDateTime
p1774
V2017-04-16T08:15:33.709-05:00
p1775
sVcache
p1776
(dp1777
sVrequest
p1778
(dp1779
Vcomment
p1780
g4
sVcookies
p1781
(lp1782
sVurl
p1783
Vhttps://cdn.ampproject.org/preconnect.gif?0.2607944576431612
p1784
sVqueryString
p1785
(lp1786
(dp1787
Vname
p1788
V0.2607944576431612
p1789
sVvalue
p1790
g4
sasVheaders
p1791
(lp1792
sVheadersSize
p1793
I375
sVbodySize
p1794
I0
sVmethod
p1795
VGET
p1796
sVhttpVersion
p1797
VHTTP/1.1
p1798
ssVtimings
p1799
(dp1800
Vcomment
p1801
g4
sVreceive
p1802
I0
sVsend
p1803
I0
sVssl
p1804
I-1
sVconnect
p1805
I-1
sVdns
p1806
I-1
sVwait
p1807
I28
sVblocked
p1808
I-1
ssVtime
p1809
I28
sVresponse
p1810
(dp1811
Vstatus
p1812
I200
sVcomment
p1813
g4
sVcookies
p1814
(lp1815
sVstatusText
p1816
VOK
p1817
sVcontent
p1818
(dp1819
VmimeType
p1820
Vimage/gif
p1821
sVcomment
p1822
g4
sVsize
p1823
I0
ssVheaders
p1824
(lp1825
sVheadersSize
p1826
I826
sVredirectURL
p1827
g4
sVbodySize
p1828
I37
sVhttpVersion
p1829
VHTTP/1.1
p1830
ssa(dp1831
Vcomment
p1832
g4
sVserverIPAddress
p1833
V216.58.217.14
p1834
sVpageref
p1835
VSloth
p1836
sVstartedDateTime
p1837
V2017-04-16T08:15:33.726-05:00
p1838
sVcache
p1839
(dp1840
sVrequest
p1841
(dp1842
Vcomment
p1843
g4
sVcookies
p1844
(lp1845
sVurl
p1846
Vhttps://encrypted-tbn3.gstatic.com/images?q=tbn:ANd9GcTkRdQejHPCjU7QnesMp2BVwHXwsNcftMT5lB_d8XA-t4QALI3W7TqUzExurQ
p1847
sVqueryString
p1848
(lp1849
(dp1850
Vname
p1851
g415
sVvalue
p1852
Vtbn:ANd9GcTkRdQejHPCjU7QnesMp2BVwHXwsNcftMT5lB_d8XA-t4QALI3W7TqUzExurQ
p1853
sasVheaders
p1854
(lp1855
sVheadersSize
p1856
I429
sVbodySize
p1857
I0
sVmethod
p1858
VGET
p1859
sVhttpVersion
p1860
VHTTP/1.1
p1861
ssVtimings
p1862
(dp1863
Vcomment
p1864
g4
sVreceive
p1865
I2
sVsend
p1866
I0
sVssl
p1867
I-1
sVconnect
p1868
I-1
sVdns
p1869
I-1
sVwait
p1870
I26
sVblocked
p1871
I-1
ssVtime
p1872
I28
sVresponse
p1873
(dp1874
Vstatus
p1875
I200
sVcomment
p1876
g4
sVcookies
p1877
(lp1878
sVstatusText
p1879
VOK
p1880
sVcontent
p1881
(dp1882
VmimeType
p1883
Vimage/jpeg
p1884
sVcomment
p1885
g4
sVsize
p1886
I0
ssVheaders
p1887
(lp1888
sVheadersSize
p1889
I428
sVredirectURL
p1890
g4
sVbodySize
p1891
I7008
sVhttpVersion
p1892
VHTTP/1.1
p1893
ssa(dp1894
Vcomment
p1895
g4
sVserverIPAddress
p1896
V216.58.216.206
p1897
sVpageref
p1898
VSloth
p1899
sVstartedDateTime
p1900
V2017-04-16T08:15:33.727-05:00
p1901
sVcache
p1902
(dp1903
sVrequest
p1904
(dp1905
Vcomment
p1906
g4
sVcookies
p1907
(lp1908
sVurl
p1909
Vhttps://encrypted-tbn1.gstatic.com/images?q=tbn:ANd9GcTVOnWGv_loFsi67QRwdnkpYC_aDqnjTky1-PIZeaKc39sSNYyHnb5xlAEvQg
p1910
sVqueryString
p1911
(lp1912
(dp1913
Vname
p1914
g415
sVvalue
p1915
Vtbn:ANd9GcTVOnWGv_loFsi67QRwdnkpYC_aDqnjTky1-PIZeaKc39sSNYyHnb5xlAEvQg
p1916
sasVheaders
p1917
(lp1918
sVheadersSize
p1919
I429
sVbodySize
p1920
I0
sVmethod
p1921
VGET
p1922
sVhttpVersion
p1923
VHTTP/1.1
p1924
ssVtimings
p1925
(dp1926
Vcomment
p1927
g4
sVreceive
p1928
I0
sVsend
p1929
I0
sVssl
p1930
I-1
sVconnect
p1931
I-1
sVdns
p1932
I-1
sVwait
p1933
I17
sVblocked
p1934
I-1
ssVtime
p1935
I18
sVresponse
p1936
(dp1937
Vstatus
p1938
I200
sVcomment
p1939
g4
sVcookies
p1940
(lp1941
sVstatusText
p1942
VOK
p1943
sVcontent
p1944
(dp1945
VmimeType
p1946
Vimage/jpeg
p1947
sVcomment
p1948
g4
sVsize
p1949
I0
ssVheaders
p1950
(lp1951
sVheadersSize
p1952
I426
sVredirectURL
p1953
g4
sVbodySize
p1954
I7174
sVhttpVersion
p1955
VHTTP/1.1
p1956
ssa(dp1957
Vcomment
p1958
g4
sVserverIPAddress
p1959
V216.58.216.206
p1960
sVpageref
p1961
VSloth
p1962
sVstartedDateTime
p1963
V2017-04-16T08:15:33.727-05:00
p1964
sVcache
p1965
(dp1966
sVrequest
p1967
(dp1968
Vcomment
p1969
g4
sVcookies
p1970
(lp1971
sVurl
p1972
Vhttps://encrypted-tbn2.gstatic.com/images?q=tbn:ANd9GcRjySNop4SuDsiKNEbpinnwYkNE3dbrvpzhMeWbJLZKcK__nZQWfG1-ZMaQvg
p1973
sVqueryString
p1974
(lp1975
(dp1976
Vname
p1977
g415
sVvalue
p1978
Vtbn:ANd9GcRjySNop4SuDsiKNEbpinnwYkNE3dbrvpzhMeWbJLZKcK__nZQWfG1-ZMaQvg
p1979
sasVheaders
p1980
(lp1981
sVheadersSize
p1982
I429
sVbodySize
p1983
I0
sVmethod
p1984
VGET
p1985
sVhttpVersion
p1986
VHTTP/1.1
p1987
ssVtimings
p1988
(dp1989
Vcomment
p1990
g4
sVreceive
p1991
I1
sVsend
p1992
I0
sVssl
p1993
I-1
sVconnect
p1994
I-1
sVdns
p1995
I-1
sVwait
p1996
I21
sVblocked
p1997
I-1
ssVtime
p1998
I23
sVresponse
p1999
(dp2000
Vstatus
p2001
I200
sVcomment
p2002
g4
sVcookies
p2003
(lp2004
sVstatusText
p2005
VOK
p2006
sVcontent
p2007
(dp2008
VmimeType
p2009
Vimage/jpeg
p2010
sVcomment
p2011
g4
sVsize
p2012
I0
ssVheaders
p2013
(lp2014
sVheadersSize
p2015
I427
sVredirectURL
p2016
g4
sVbodySize
p2017
I6587
sVhttpVersion
p2018
VHTTP/1.1
p2019
ssa(dp2020
Vcomment
p2021
g4
sVserverIPAddress
p2022
V172.217.6.4
p2023
sVpageref
p2024
VSloth
p2025
sVstartedDateTime
p2026
V2017-04-16T08:15:33.947-05:00
p2027
sVcache
p2028
(dp2029
sVrequest
p2030
(dp2031
Vcomment
p2032
g4
sVcookies
p2033
(lp2034
sVurl
p2035
Vhttps://www.google.com/async/log_amp_item_set?vet=10ahUKEwizxrHBh6nTAhUB5YMKHTTECmsQooQBCAE..i&ei=cm7zWIviKKGvjwSr741w&yv=2&async=num_items:1,_fmt:jspb
p2036
sVqueryString
p2037
(lp2038
(dp2039
Vname
p2040
Vvet
p2041
sVvalue
p2042
V10ahUKEwizxrHBh6nTAhUB5YMKHTTECmsQooQBCAE..i
p2043
sa(dp2044
Vname
p2045
Vei
p2046
sVvalue
p2047
Vcm7zWIviKKGvjwSr741w
p2048
sa(dp2049
Vname
p2050
Vyv
p2051
sVvalue
p2052
g64
sa(dp2053
Vname
p2054
Vasync
p2055
sVvalue
p2056
Vnum_items:1,_fmt:jspb
p2057
sasVheaders
p2058
(lp2059
sVheadersSize
p2060
I668
sVbodySize
p2061
I0
sVmethod
p2062
VGET
p2063
sVhttpVersion
p2064
VHTTP/1.1
p2065
ssVtimings
p2066
(dp2067
Vcomment
p2068
g4
sVreceive
p2069
I0
sVsend
p2070
I0
sVssl
p2071
I-1
sVconnect
p2072
I-1
sVdns
p2073
I-1
sVwait
p2074
I138
sVblocked
p2075
I-1
ssVtime
p2076
I139
sVresponse
p2077
(dp2078
Vstatus
p2079
I200
sVcomment
p2080
g4
sVcookies
p2081
(lp2082
sVstatusText
p2083
VOK
p2084
sVcontent
p2085
(dp2086
VmimeType
p2087
Vapplication/json; charset=UTF-8
p2088
sVcomment
p2089
g4
sVsize
p2090
I0
ssVheaders
p2091
(lp2092
sVheadersSize
p2093
I417
sVredirectURL
p2094
g4
sVbodySize
p2095
I130
sVhttpVersion
p2096
VHTTP/1.1
p2097
ssa(dp2098
Vcomment
p2099
g4
sVserverIPAddress
p2100
V172.217.6.3
p2101
sVpageref
p2102
VSloth
p2103
sVstartedDateTime
p2104
V2017-04-16T08:15:34.205-05:00
p2105
sVcache
p2106
(dp2107
sVrequest
p2108
(dp2109
Vcomment
p2110
g4
sVcookies
p2111
(lp2112
sVurl
p2113
Vhttps://www.gstatic.com/knowledgecard/default-72.png
p2114
sVqueryString
p2115
(lp2116
sVheaders
p2117
(lp2118
sVheadersSize
p2119
I367
sVbodySize
p2120
I0
sVmethod
p2121
VGET
p2122
sVhttpVersion
p2123
VHTTP/1.1
p2124
ssVtimings
p2125
(dp2126
Vcomment
p2127
g4
sVreceive
p2128
I1
sVsend
p2129
I0
sVssl
p2130
I469
sVconnect
p2131
I501
sVdns
p2132
I45
sVwait
p2133
I24
sVblocked
p2134
I0
ssVtime
p2135
I573
sVresponse
p2136
(dp2137
Vstatus
p2138
I200
sVcomment
p2139
g4
sVcookies
p2140
(lp2141
sVstatusText
p2142
VOK
p2143
sVcontent
p2144
(dp2145
VmimeType
p2146
Vimage/png
p2147
sVcomment
p2148
g4
sVsize
p2149
I0
ssVheaders
p2150
(lp2151
sVheadersSize
p2152
I373
sVredirectURL
p2153
g4
sVbodySize
p2154
I732
sVhttpVersion
p2155
VHTTP/1.1
p2156
ssa(dp2157
Vcomment
p2158
g4
sVserverIPAddress
p2159
V216.58.216.193
p2160
sVpageref
p2161
VSloth
p2162
sVstartedDateTime
p2163
V2017-04-16T08:15:34.770-05:00
p2164
sVcache
p2165
(dp2166
sVrequest
p2167
(dp2168
Vcomment
p2169
g4
sVcookies
p2170
(lp2171
sVurl
p2172
Vhttps://amp-livescience-com.cdn.ampproject.org/v/amp.livescience.com/27612-sloths.html?amp_js_v=9
p2173
sVqueryString
p2174
(lp2175
(dp2176
Vname
p2177
Vamp_js_v
p2178
sVvalue
p2179
V9
p2180
sasVheaders
p2181
(lp2182
sVheadersSize
p2183
I502
sVbodySize
p2184
I0
sVmethod
p2185
VGET
p2186
sVhttpVersion
p2187
VHTTP/1.1
p2188
ssVtimings
p2189
(dp2190
Vcomment
p2191
g4
sVreceive
p2192
I1
sVsend
p2193
I0
sVssl
p2194
I690
sVconnect
p2195
I717
sVdns
p2196
I91
sVwait
p2197
I70
sVblocked
p2198
I0
ssVtime
p2199
I880
sVresponse
p2200
(dp2201
Vstatus
p2202
I200
sVcomment
p2203
g4
sVcookies
p2204
(lp2205
sVstatusText
p2206
VOK
p2207
sVcontent
p2208
(dp2209
VmimeType
p2210
Vtext/html
p2211
sVcomment
p2212
g4
sVsize
p2213
I0
ssVheaders
p2214
(lp2215
sVheadersSize
p2216
I861
sVredirectURL
p2217
g4
sVbodySize
p2218
I9497
sVhttpVersion
p2219
VHTTP/1.1
p2220
ssa(dp2221
Vcomment
p2222
g4
sVserverIPAddress
p2223
V216.58.216.202
p2224
sVpageref
p2225
VSloth
p2226
sVstartedDateTime
p2227
V2017-04-16T08:15:34.875-05:00
p2228
sVcache
p2229
(dp2230
sVrequest
p2231
(dp2232
Vcomment
p2233
g4
sVcookies
p2234
(lp2235
sVurl
p2236
Vhttps://fonts.googleapis.com/css?family=Open+Sans
p2237
sVqueryString
p2238
(lp2239
(dp2240
Vname
p2241
Vfamily
p2242
sVvalue
p2243
VOpen Sans
p2244
sasVheaders
p2245
(lp2246
sVheadersSize
p2247
I453
sVbodySize
p2248
I0
sVmethod
p2249
VGET
p2250
sVhttpVersion
p2251
VHTTP/1.1
p2252
ssVtimings
p2253
(dp2254
Vcomment
p2255
g4
sVreceive
p2256
I1
sVsend
p2257
I0
sVssl
p2258
I-1
sVconnect
p2259
I-1
sVdns
p2260
I-1
sVwait
p2261
I26
sVblocked
p2262
I-1
ssVtime
p2263
I27
sVresponse
p2264
(dp2265
Vstatus
p2266
I200
sVcomment
p2267
g4
sVcookies
p2268
(lp2269
sVstatusText
p2270
VOK
p2271
sVcontent
p2272
(dp2273
VmimeType
p2274
Vtext/css; charset=utf-8
p2275
sVcomment
p2276
g4
sVsize
p2277
I0
ssVheaders
p2278
(lp2279
sVheadersSize
p2280
I405
sVredirectURL
p2281
g4
sVbodySize
p2282
I537
sVhttpVersion
p2283
VHTTP/1.1
p2284
ssa(dp2285
Vcomment
p2286
g4
sVserverIPAddress
p2287
V172.217.6.4
p2288
sVpageref
p2289
VSloth
p2290
sVstartedDateTime
p2291
V2017-04-16T08:15:35.214-05:00
p2292
sVcache
p2293
(dp2294
sVrequest
p2295
(dp2296
Vcomment
p2297
g4
sVcookies
p2298
(lp2299
sVurl
p2300
Vhttps://www.google.com/gen_204?s=web&atyp=csi&ei=cm7zWIviKKGvjwSr741w&imc=44&imn=44&imp=26&adh=&xjs=init.52.14.sb_mob.39.c.3.dvl.3.mbsf.2.foot.2&ima=21&rt=prt.825,iml.946,xjsls.826,qiml.1141,dcl.1036,xjses.1169,xjsee.1452,xjs.1453,ol.3430,aft.945,wsrt.118,cst.0,dnst.0,rqst.868,rspt.769,rqstt.8,unt.6,cstt.6,dit.1047
p2301
sVqueryString
p2302
(lp2303
(dp2304
Vname
p2305
g57
sVvalue
p2306
Vweb
p2307
sa(dp2308
Vname
p2309
Vatyp
p2310
sVvalue
p2311
Vcsi
p2312
sa(dp2313
Vname
p2314
Vei
p2315
sVvalue
p2316
Vcm7zWIviKKGvjwSr741w
p2317
sa(dp2318
Vname
p2319
Vimc
p2320
sVvalue
p2321
V44
p2322
sa(dp2323
Vname
p2324
Vimn
p2325
sVvalue
p2326
V44
p2327
sa(dp2328
Vname
p2329
Vimp
p2330
sVvalue
p2331
V26
p2332
sa(dp2333
Vname
p2334
Vadh
p2335
sVvalue
p2336
g4
sa(dp2337
Vname
p2338
Vxjs
p2339
sVvalue
p2340
Vinit.52.14.sb_mob.39.c.3.dvl.3.mbsf.2.foot.2
p2341
sa(dp2342
Vname
p2343
Vima
p2344
sVvalue
p2345
V21
p2346
sa(dp2347
Vname
p2348
Vrt
p2349
sVvalue
p2350
Vprt.825,iml.946,xjsls.826,qiml.1141,dcl.1036,xjses.1169,xjsee.1452,xjs.1453,ol.3430,aft.945,wsrt.118,cst.0,dnst.0,rqst.868,rspt.769,rqstt.8,unt.6,cstt.6,dit.1047
p2351
sasVheaders
p2352
(lp2353
sVheadersSize
p2354
I833
sVbodySize
p2355
I0
sVmethod
p2356
VGET
p2357
sVhttpVersion
p2358
VHTTP/1.1
p2359
ssVtimings
p2360
(dp2361
Vcomment
p2362
g4
sVreceive
p2363
I0
sVsend
p2364
I0
sVssl
p2365
I-1
sVconnect
p2366
I-1
sVdns
p2367
I-1
sVwait
p2368
I29
sVblocked
p2369
I-1
ssVtime
p2370
I29
sVresponse
p2371
(dp2372
Vstatus
p2373
I204
sVcomment
p2374
g4
sVcookies
p2375
(lp2376
sVstatusText
p2377
VNo Content
p2378
sVcontent
p2379
(dp2380
VmimeType
p2381
Vtext/html; charset=UTF-8
p2382
sVcomment
p2383
g4
sVsize
p2384
I0
ssVheaders
p2385
(lp2386
sVheadersSize
p2387
I248
sVredirectURL
p2388
g4
sVbodySize
p2389
I0
sVhttpVersion
p2390
VHTTP/1.1
p2391
ssa(dp2392
Vcomment
p2393
g4
sVserverIPAddress
p2394
V172.217.6.4
p2395
sVpageref
p2396
VSloth
p2397
sVstartedDateTime
p2398
V2017-04-16T08:15:35.673-05:00
p2399
sVcache
p2400
(dp2401
sVrequest
p2402
(dp2403
Vcomment
p2404
g4
sVcookies
p2405
(lp2406
sVurl
p2407
Vhttps://www.google.com/gen_204?atyp=i&ct=slh&cad=&ei=W27zWOmQAsHPjwTX2qfwAQ&m=V&t=C&s=1&v=2&pv=0.42959610775638746&me=1:1492348510309,x:1,V,0,0,1280,944:0,N,1,W27zWOmQAsHPjwTX2qfwAQ:0,R,1,24,8,155,1249,666:0,R,1,25,8,155,1249,666:0,R,1,28,8,168,1249,40:0,R,1,41,8,219,1249,178:0,R,1,44,0,235,1265,197:0,R,1,84,8,414,1249,20:0,R,1,85,24,414,1217,20:0,R,1,90,8,450,1249,20:0,R,1,98,8,478,1249,21:0,R,1,102,8,564,1249,184:0,R,1,103,0,564,1265,204:0,R,1,126,8,831,1249,201:0,R,1,127,24,831,1217,190:3,B,4204:20620,e,U&zx=1492348535672
p2408
sVqueryString
p2409
(lp2410
(dp2411
Vname
p2412
Vatyp
p2413
sVvalue
p2414
g30
sa(dp2415
Vname
p2416
Vct
p2417
sVvalue
p2418
Vslh
p2419
sa(dp2420
Vname
p2421
Vcad
p2422
sVvalue
p2423
g4
sa(dp2424
Vname
p2425
Vei
p2426
sVvalue
p2427
VW27zWOmQAsHPjwTX2qfwAQ
p2428
sa(dp2429
Vname
p2430
g47
sVvalue
p2431
g49
sa(dp2432
Vname
p2433
g52
sVvalue
p2434
g54
sa(dp2435
Vname
p2436
g57
sVvalue
p2437
g59
sa(dp2438
Vname
p2439
g62
sVvalue
p2440
g64
sa(dp2441
Vname
p2442
Vpv
p2443
sVvalue
p2444
V0.42959610775638746
p2445
sa(dp2446
Vname
p2447
Vme
p2448
sVvalue
p2449
V1:1492348510309,x:1,V,0,0,1280,944:0,N,1,W27zWOmQAsHPjwTX2qfwAQ:0,R,1,24,8,155,1249,666:0,R,1,25,8,155,1249,666:0,R,1,28,8,168,1249,40:0,R,1,41,8,219,1249,178:0,R,1,44,0,235,1265,197:0,R,1,84,8,414,1249,20:0,R,1,85,24,414,1217,20:0,R,1,90,8,450,1249,20:0,R,1,98,8,478,1249,21:0,R,1,102,8,564,1249,184:0,R,1,103,0,564,1265,204:0,R,1,126,8,831,1249,201:0,R,1,127,24,831,1217,190:3,B,4204:20620,e,U
p2450
sa(dp2451
Vname
p2452
Vzx
p2453
sVvalue
p2454
V1492348535672
p2455
sasVheaders
p2456
(lp2457
sVheadersSize
p2458
I1047
sVbodySize
p2459
I0
sVmethod
p2460
VGET
p2461
sVhttpVersion
p2462
VHTTP/1.1
p2463
ssVtimings
p2464
(dp2465
Vcomment
p2466
g4
sVreceive
p2467
I0
sVsend
p2468
I0
sVssl
p2469
I-1
sVconnect
p2470
I-1
sVdns
p2471
I-1
sVwait
p2472
I41
sVblocked
p2473
I-1
ssVtime
p2474
I41
sVresponse
p2475
(dp2476
Vstatus
p2477
I204
sVcomment
p2478
g4
sVcookies
p2479
(lp2480
sVstatusText
p2481
VNo Content
p2482
sVcontent
p2483
(dp2484
VmimeType
p2485
Vtext/html; charset=UTF-8
p2486
sVcomment
p2487
g4
sVsize
p2488
I0
ssVheaders
p2489
(lp2490
sVheadersSize
p2491
I248
sVredirectURL
p2492
g4
sVbodySize
p2493
I0
sVhttpVersion
p2494
VHTTP/1.1
p2495
ssasVversion
p2496
V1.2
p2497
sVpages
p2498
(lp2499
(dp2500
VpageTimings
p2501
(dp2502
Vcomment
p2503
g4
ssVcomment
p2504
g4
sVtitle
p2505
VSloth
p2506
sVid
p2507
VSloth
p2508
sVstartedDateTime
p2509
V2017-04-16T08:15:30.925-05:00
p2510
sasVcreator
p2511
(dp2512
Vcomment
p2513
g4
sVversion
p2514
V2.1.4
p2515
sVname
p2516
VBrowserMob Proxy
p2517
sss.