(dp0
Vlog
p1
(dp2
Vcomment
p3
V
p4
sVentries
p5
(lp6
(dp7
Vcomment
p8
g4
sVserverIPAddress
p9
V74.125.70.104
p10
sVpageref
p11
VDodge
p12
sVstartedDateTime
p13
V2017-04-16T08:49:54.604-05:00
p14
sVcache
p15
(dp16
sVrequest
p17
(dp18
Vcomment
p19
g4
sVcookies
p20
(lp21
sVurl
p22
Vhttps://www.google.com/gen_204?atyp=i&ct=slh&cad=&ei=dnbzWL2THurcjwT7rqygBA&m=V&t=C&s=1&v=2&pv=0.7355533824036778&me=1:1492350586089,x:3,V,0,0,1280,944:0,N,1,dnbzWL2THurcjwT7rqygBA:0,R,1,25,8,228,1249,224:0,R,1,35,8,462,1249,501:0,R,1,37,8,462,1197,501:0,R,1,39,95,462,1024,120:0,R,1,70,16,658,1189,83:0,R,1,79,16,741,1189,83:0,R,1,88,16,824,1189,93:3,B,3931:8506,e,U&zx=1492350594602
p23
sVqueryString
p24
(lp25
(dp26
Vname
p27
Vatyp
p28
sVvalue
p29
Vi
p30
sa(dp31
Vname
p32
Vct
p33
sVvalue
p34
Vslh
p35
sa(dp36
Vname
p37
Vcad
p38
sVvalue
p39
g4
sa(dp40
Vname
p41
Vei
p42
sVvalue
p43
VdnbzWL2THurcjwT7rqygBA
p44
sa(dp45
Vname
p46
Vm
p47
sVvalue
p48
VV
p49
sa(dp50
Vname
p51
Vt
p52
sVvalue
p53
VC
p54
sa(dp55
Vname
p56
Vs
p57
sVvalue
p58
V1
p59
sa(dp60
Vname
p61
Vv
p62
sVvalue
p63
V2
p64
sa(dp65
Vname
p66
Vpv
p67
sVvalue
p68
V0.7355533824036778
p69
sa(dp70
Vname
p71
Vme
p72
sVvalue
p73
V1:1492350586089,x:3,V,0,0,1280,944:0,N,1,dnbzWL2THurcjwT7rqygBA:0,R,1,25,8,228,1249,224:0,R,1,35,8,462,1249,501:0,R,1,37,8,462,1197,501:0,R,1,39,95,462,1024,120:0,R,1,70,16,658,1189,83:0,R,1,79,16,741,1189,83:0,R,1,88,16,824,1189,93:3,B,3931:8506,e,U
p74
sa(dp75
Vname
p76
Vzx
p77
sVvalue
p78
V1492350594602
p79
sasVheaders
p80
(lp81
sVheadersSize
p82
I901
sVbodySize
p83
I0
sVmethod
p84
VGET
p85
sVhttpVersion
p86
VHTTP/1.1
p87
ssVtimings
p88
(dp89
Vcomment
p90
g4
sVreceive
p91
I0
sVsend
p92
I0
sVssl
p93
I-1
sVconnect
p94
I-1
sVdns
p95
I-1
sVwait
p96
I0
sVblocked
p97
I-1
ssVtime
p98
I0
sVresponse
p99
(dp100
Vstatus
p101
I0
sVcomment
p102
g4
sVcookies
p103
(lp104
sV_error
p105
VNo response received
p106
sVstatusText
p107
g4
sVcontent
p108
(dp109
VmimeType
p110
g4
sVcomment
p111
g4
sVsize
p112
I0
ssVheaders
p113
(lp114
sVheadersSize
p115
I-1
sVredirectURL
p116
g4
sVbodySize
p117
I-1
sVhttpVersion
p118
Vunknown
p119
ssa(dp120
Vcomment
p121
g4
sVserverIPAddress
p122
V74.125.70.104
p123
sVpageref
p124
VDodge
p125
sVstartedDateTime
p126
V2017-04-16T08:49:54.604-05:00
p127
sVcache
p128
(dp129
sVrequest
p130
(dp131
Vcomment
p132
g4
sVcookies
p133
(lp134
sVurl
p135
Vhttps://www.google.com/gen_204?atyp=i&ct=slh&cad=&ei=SHbzWJ3KIuzZjwTZ-LvQDA&m=V&t=C&s=1&v=2&pv=0.7970961535757144&me=1:1492350540310,x:2,V,0,0,1280,944:0,N,1,SHbzWJ3KIuzZjwTZ-LvQDA:0,R,1,24,8,155,1249,337:0,R,1,25,8,155,1249,317:0,R,1,26,8,155,1249,90:0,R,1,47,8,502,1249,445:0,R,1,51,8,615,1249,332:0,R,1,52,0,616,1265,351:2,B,4086:13813,e,U&zx=1492350594602
p136
sVqueryString
p137
(lp138
(dp139
Vname
p140
Vatyp
p141
sVvalue
p142
g30
sa(dp143
Vname
p144
Vct
p145
sVvalue
p146
Vslh
p147
sa(dp148
Vname
p149
Vcad
p150
sVvalue
p151
g4
sa(dp152
Vname
p153
Vei
p154
sVvalue
p155
VSHbzWJ3KIuzZjwTZ-LvQDA
p156
sa(dp157
Vname
p158
g47
sVvalue
p159
g49
sa(dp160
Vname
p161
g52
sVvalue
p162
g54
sa(dp163
Vname
p164
g57
sVvalue
p165
g59
sa(dp166
Vname
p167
g62
sVvalue
p168
g64
sa(dp169
Vname
p170
Vpv
p171
sVvalue
p172
V0.7970961535757144
p173
sa(dp174
Vname
p175
Vme
p176
sVvalue
p177
V1:1492350540310,x:2,V,0,0,1280,944:0,N,1,SHbzWJ3KIuzZjwTZ-LvQDA:0,R,1,24,8,155,1249,337:0,R,1,25,8,155,1249,317:0,R,1,26,8,155,1249,90:0,R,1,47,8,502,1249,445:0,R,1,51,8,615,1249,332:0,R,1,52,0,616,1265,351:2,B,4086:13813,e,U
p178
sa(dp179
Vname
p180
Vzx
p181
sVvalue
p182
V1492350594602
p183
sasVheaders
p184
(lp185
sVheadersSize
p186
I876
sVbodySize
p187
I0
sVmethod
p188
VGET
p189
sVhttpVersion
p190
VHTTP/1.1
p191
ssVtimings
p192
(dp193
Vcomment
p194
g4
sVreceive
p195
I0
sVsend
p196
I0
sVssl
p197
I-1
sVconnect
p198
I-1
sVdns
p199
I-1
sVwait
p200
I0
sVblocked
p201
I-1
ssVtime
p202
I0
sVresponse
p203
(dp204
Vstatus
p205
I0
sVcomment
p206
g4
sVcookies
p207
(lp208
sV_error
p209
VNo response received
p210
sVstatusText
p211
g4
sVcontent
p212
(dp213
VmimeType
p214
g4
sVcomment
p215
g4
sVsize
p216
I0
ssVheaders
p217
(lp218
sVheadersSize
p219
I-1
sVredirectURL
p220
g4
sVbodySize
p221
I-1
sVhttpVersion
p222
Vunknown
p223
ssa(dp224
Vcomment
p225
g4
sVserverIPAddress
p226
V74.125.70.104
p227
sVpageref
p228
VDodge
p229
sVstartedDateTime
p230
V2017-04-16T08:49:54.606-05:00
p231
sVcache
p232
(dp233
sVrequest
p234
(dp235
Vcomment
p236
g4
sVcookies
p237
(lp238
sVurl
p239
Vhttps://www.google.com/gen_204?atyp=i&ct=slh&cad=&ei=ZnbzWMP4JOSLjwS7mLOoAQ&m=V&t=C&s=1&v=2&pv=0.4345735250984689&me=1:1492350571511,x:2,V,0,0,1280,944:0,N,1,ZnbzWMP4JOSLjwS7mLOoAQ:0,R,1,24,8,155,1249,261:0,R,1,25,8,155,1249,241:0,R,1,26,8,155,1249,90:0,R,1,41,8,426,1249,393:0,R,1,42,8,426,1249,393:0,R,1,45,0,490,1265,349:0,R,1,68,24,829,1217,114:1,B,3713:11324,e,U&zx=1492350594603
p240
sVqueryString
p241
(lp242
(dp243
Vname
p244
Vatyp
p245
sVvalue
p246
g30
sa(dp247
Vname
p248
Vct
p249
sVvalue
p250
Vslh
p251
sa(dp252
Vname
p253
Vcad
p254
sVvalue
p255
g4
sa(dp256
Vname
p257
Vei
p258
sVvalue
p259
VZnbzWMP4JOSLjwS7mLOoAQ
p260
sa(dp261
Vname
p262
g47
sVvalue
p263
g49
sa(dp264
Vname
p265
g52
sVvalue
p266
g54
sa(dp267
Vname
p268
g57
sVvalue
p269
g59
sa(dp270
Vname
p271
g62
sVvalue
p272
g64
sa(dp273
Vname
p274
Vpv
p275
sVvalue
p276
V0.4345735250984689
p277
sa(dp278
Vname
p279
Vme
p280
sVvalue
p281
V1:1492350571511,x:2,V,0,0,1280,944:0,N,1,ZnbzWMP4JOSLjwS7mLOoAQ:0,R,1,24,8,155,1249,261:0,R,1,25,8,155,1249,241:0,R,1,26,8,155,1249,90:0,R,1,41,8,426,1249,393:0,R,1,42,8,426,1249,393:0,R,1,45,0,490,1265,349:0,R,1,68,24,829,1217,114:1,B,3713:11324,e,U
p282
sa(dp283
Vname
p284
Vzx
p285
sVvalue
p286
V1492350594603
p287
sasVheaders
p288
(lp289
sVheadersSize
p290
I901
sVbodySize
p291
I0
sVmethod
p292
VGET
p293
sVhttpVersion
p294
VHTTP/1.1
p295
ssVtimings
p296
(dp297
Vcomment
p298
g4
sVreceive
p299
I0
sVsend
p300
I0
sVssl
p301
I-1
sVconnect
p302
I-1
sVdns
p303
I-1
sVwait
p304
I0
sVblocked
p305
I-1
ssVtime
p306
I0
sVresponse
p307
(dp308
Vstatus
p309
I0
sVcomment
p310
g4
sVcookies
p311
(lp312
sV_error
p313
VNo response received
p314
sVstatusText
p315
g4
sVcontent
p316
(dp317
VmimeType
p318
g4
sVcomment
p319
g4
sVsize
p320
I0
ssVheaders
p321
(lp322
sVheadersSize
p323
I-1
sVredirectURL
p324
g4
sVbodySize
p325
I-1
sVhttpVersion
p326
Vunknown
p327
ssa(dp328
Vcomment
p329
g4
sVserverIPAddress
p330
V74.125.70.104
p331
sVpageref
p332
VDodge
p333
sVstartedDateTime
p334
V2017-04-16T08:49:54.608-05:00
p335
sVcache
p336
(dp337
sVrequest
p338
(dp339
Vcomment
p340
g4
sVcookies
p341
(lp342
sVurl
p343
Vhttp://www.google.com/
p344
sVqueryString
p345
(lp346
sVheaders
p347
(lp348
sVheadersSize
p349
I613
sVbodySize
p350
I0
sVmethod
p351
VGET
p352
sVhttpVersion
p353
VHTTP/1.1
p354
ssVtimings
p355
(dp356
Vcomment
p357
g4
sVreceive
p358
I0
sVsend
p359
I0
sVssl
p360
I-1
sVconnect
p361
I-1
sVdns
p362
I-1
sVwait
p363
I37
sVblocked
p364
I-1
ssVtime
p365
I38
sVresponse
p366
(dp367
Vstatus
p368
I302
sVcomment
p369
g4
sVcookies
p370
(lp371
sVstatusText
p372
VFound
p373
sVcontent
p374
(dp375
VmimeType
p376
Vtext/html; charset=UTF-8
p377
sVcomment
p378
g4
sVsize
p379
I0
ssVheaders
p380
(lp381
sVheadersSize
p382
I609
sVredirectURL
p383
Vhttps://www.google.com/?gws_rd=ssl
p384
sVbodySize
p385
I231
sVhttpVersion
p386
VHTTP/1.1
p387
ssa(dp388
Vcomment
p389
g4
sVserverIPAddress
p390
V74.125.70.104
p391
sVpageref
p392
VDodge
p393
sVstartedDateTime
p394
V2017-04-16T08:49:54.652-05:00
p395
sVcache
p396
(dp397
sVrequest
p398
(dp399
Vcomment
p400
g4
sVcookies
p401
(lp402
sVurl
p403
Vhttps://www.google.com/?gws_rd=ssl
p404
sVqueryString
p405
(lp406
(dp407
Vname
p408
Vgws_rd
p409
sVvalue
p410
Vssl
p411
sasVheaders
p412
(lp413
sVheadersSize
p414
I607
sVbodySize
p415
I0
sVmethod
p416
VGET
p417
sVhttpVersion
p418
VHTTP/1.1
p419
ssVtimings
p420
(dp421
Vcomment
p422
g4
sVreceive
p423
I10
sVsend
p424
I0
sVssl
p425
I-1
sVconnect
p426
I-1
sVdns
p427
I-1
sVwait
p428
I70
sVblocked
p429
I-1
ssVtime
p430
I81
sVresponse
p431
(dp432
Vstatus
p433
I200
sVcomment
p434
g4
sVcookies
p435
(lp436
sVstatusText
p437
VOK
p438
sVcontent
p439
(dp440
VmimeType
p441
Vtext/html; charset=UTF-8
p442
sVcomment
p443
g4
sVsize
p444
I0
ssVheaders
p445
(lp446
sVheadersSize
p447
I721
sVredirectURL
p448
g4
sVbodySize
p449
I34290
sVhttpVersion
p450
VHTTP/1.1
p451
ssa(dp452
Vcomment
p453
g4
sVserverIPAddress
p454
V74.125.70.104
p455
sVpageref
p456
VDodge
p457
sVstartedDateTime
p458
V2017-04-16T08:49:55.130-05:00
p459
sVcache
p460
(dp461
sVrequest
p462
(dp463
Vcomment
p464
g4
sVcookies
p465
(lp466
sVurl
p467
Vhttps://www.google.com/gen_204?s=mobilewebhp&atyp=csi&ei=gXbzWPCmJo2gjwSanoXQAQ&imc=1&imn=1&imp=0&adh=&xjs=init.28.12.sb_mob.21.dvl.2.c.1.jsa.1.mbsf.1&ima=1&rt=xjsls.13,prt.14,iml.14,dcl.81,xjses.154,xjsee.245,xjs.245,ol.373,aft.14,wsrt.151,cst.0,dnst.0,rqst.90,rspt.18,rqstt.50,unt.48,cstt.48,dit.180
p468
sVqueryString
p469
(lp470
(dp471
Vname
p472
g57
sVvalue
p473
Vmobilewebhp
p474
sa(dp475
Vname
p476
Vatyp
p477
sVvalue
p478
Vcsi
p479
sa(dp480
Vname
p481
Vei
p482
sVvalue
p483
VgXbzWPCmJo2gjwSanoXQAQ
p484
sa(dp485
Vname
p486
Vimc
p487
sVvalue
p488
g59
sa(dp489
Vname
p490
Vimn
p491
sVvalue
p492
g59
sa(dp493
Vname
p494
Vimp
p495
sVvalue
p496
V0
p497
sa(dp498
Vname
p499
Vadh
p500
sVvalue
p501
g4
sa(dp502
Vname
p503
Vxjs
p504
sVvalue
p505
Vinit.28.12.sb_mob.21.dvl.2.c.1.jsa.1.mbsf.1
p506
sa(dp507
Vname
p508
Vima
p509
sVvalue
p510
g59
sa(dp511
Vname
p512
Vrt
p513
sVvalue
p514
Vxjsls.13,prt.14,iml.14,dcl.81,xjses.154,xjsee.245,xjs.245,ol.373,aft.14,wsrt.151,cst.0,dnst.0,rqst.90,rspt.18,rqstt.50,unt.48,cstt.48,dit.180
p515
sasVheaders
p516
(lp517
sVheadersSize
p518
I829
sVbodySize
p519
I0
sVmethod
p520
VGET
p521
sVhttpVersion
p522
VHTTP/1.1
p523
ssVtimings
p524
(dp525
Vcomment
p526
g4
sVreceive
p527
I0
sVsend
p528
I0
sVssl
p529
I-1
sVconnect
p530
I-1
sVdns
p531
I-1
sVwait
p532
I33
sVblocked
p533
I-1
ssVtime
p534
I33
sVresponse
p535
(dp536
Vstatus
p537
I204
sVcomment
p538
g4
sVcookies
p539
(lp540
sVstatusText
p541
VNo Content
p542
sVcontent
p543
(dp544
VmimeType
p545
Vtext/html; charset=UTF-8
p546
sVcomment
p547
g4
sVsize
p548
I0
ssVheaders
p549
(lp550
sVheadersSize
p551
I248
sVredirectURL
p552
g4
sVbodySize
p553
I0
sVhttpVersion
p554
VHTTP/1.1
p555
ssa(dp556
Vcomment
p557
g4
sVserverIPAddress
p558
V74.125.70.104
p559
sVpageref
p560
VDodge
p561
sVstartedDateTime
p562
V2017-04-16T08:49:55.239-05:00
p563
sVcache
p564
(dp565
sVrequest
p566
(dp567
Vcomment
p568
g4
sVcookies
p569
(lp570
sVurl
p571
Vhttps://www.google.com/complete/search?client=mobile-gws-hp&hl=en&gs_rn=64&gs_ri=mobile-gws-hp&sla=1&pfq=delirium%20tremens%20beer&gm=602&cp=0&gs_id=1&xhr=t&q=D&tch=1&ech=1&psi=gXbzWPCmJo2gjwSanoXQAQ.1492350594969.1
p572
sVqueryString
p573
(lp574
(dp575
Vname
p576
Vclient
p577
sVvalue
p578
Vmobile-gws-hp
p579
sa(dp580
Vname
p581
Vhl
p582
sVvalue
p583
Ven
p584
sa(dp585
Vname
p586
Vgs_rn
p587
sVvalue
p588
V64
p589
sa(dp590
Vname
p591
Vgs_ri
p592
sVvalue
p593
Vmobile-gws-hp
p594
sa(dp595
Vname
p596
Vsla
p597
sVvalue
p598
g59
sa(dp599
Vname
p600
Vpfq
p601
sVvalue
p602
Vdelirium tremens beer
p603
sa(dp604
Vname
p605
Vgm
p606
sVvalue
p607
V602
p608
sa(dp609
Vname
p610
Vcp
p611
sVvalue
p612
g497
sa(dp613
Vname
p614
Vgs_id
p615
sVvalue
p616
g59
sa(dp617
Vname
p618
Vxhr
p619
sVvalue
p620
g52
sa(dp621
Vname
p622
Vq
p623
sVvalue
p624
VD
p625
sa(dp626
Vname
p627
Vtch
p628
sVvalue
p629
g59
sa(dp630
Vname
p631
Vech
p632
sVvalue
p633
g59
sa(dp634
Vname
p635
Vpsi
p636
sVvalue
p637
VgXbzWPCmJo2gjwSanoXQAQ.1492350594969.1
p638
sasVheaders
p639
(lp640
sVheadersSize
p641
I743
sVbodySize
p642
I0
sVmethod
p643
VGET
p644
sVhttpVersion
p645
VHTTP/1.1
p646
ssVtimings
p647
(dp648
Vcomment
p649
g4
sVreceive
p650
I0
sVsend
p651
I0
sVssl
p652
I-1
sVconnect
p653
I-1
sVdns
p654
I-1
sVwait
p655
I0
sVblocked
p656
I-1
ssVtime
p657
I0
sVresponse
p658
(dp659
Vstatus
p660
I0
sVcomment
p661
g4
sVcookies
p662
(lp663
sV_error
p664
VNo response received
p665
sVstatusText
p666
g4
sVcontent
p667
(dp668
VmimeType
p669
g4
sVcomment
p670
g4
sVsize
p671
I0
ssVheaders
p672
(lp673
sVheadersSize
p674
I-1
sVredirectURL
p675
g4
sVbodySize
p676
I-1
sVhttpVersion
p677
Vunknown
p678
ssa(dp679
Vcomment
p680
g4
sVserverIPAddress
p681
V74.125.70.104
p682
sVpageref
p683
VDodge
p684
sVstartedDateTime
p685
V2017-04-16T08:49:55.290-05:00
p686
sVcache
p687
(dp688
sVrequest
p689
(dp690
Vcomment
p691
g4
sVcookies
p692
(lp693
sVurl
p694
Vhttps://www.google.com/search?site=&source=hp&ei=gXbzWPCmJo2gjwSanoXQAQ&q=Dodge&oq=Dodge&gs_l=mobile-gws-hp.3...246.259.0.292.5.1.0.0.0.0.0.0..0.0....0...1c.1.64.mobile-gws-hp..5.0.0.vDr96PvVrrE
p695
sVqueryString
p696
(lp697
(dp698
Vname
p699
Vsite
p700
sVvalue
p701
g4
sa(dp702
Vname
p703
Vsource
p704
sVvalue
p705
Vhp
p706
sa(dp707
Vname
p708
Vei
p709
sVvalue
p710
VgXbzWPCmJo2gjwSanoXQAQ
p711
sa(dp712
Vname
p713
g623
sVvalue
p714
VDodge
p715
sa(dp716
Vname
p717
Voq
p718
sVvalue
p719
VDodge
p720
sa(dp721
Vname
p722
Vgs_l
p723
sVvalue
p724
Vmobile-gws-hp.3...246.259.0.292.5.1.0.0.0.0.0.0..0.0....0...1c.1.64.mobile-gws-hp..5.0.0.vDr96PvVrrE
p725
sasVheaders
p726
(lp727
sVheadersSize
p728
I812
sVbodySize
p729
I0
sVmethod
p730
VGET
p731
sVhttpVersion
p732
VHTTP/1.1
p733
ssVtimings
p734
(dp735
Vcomment
p736
g4
sVreceive
p737
I1297
sVsend
p738
I0
sVssl
p739
I-1
sVconnect
p740
I-1
sVdns
p741
I-1
sVwait
p742
I106
sVblocked
p743
I-1
ssVtime
p744
I1404
sVresponse
p745
(dp746
Vstatus
p747
I200
sVcomment
p748
g4
sVcookies
p749
(lp750
sVstatusText
p751
VOK
p752
sVcontent
p753
(dp754
VmimeType
p755
Vtext/html; charset=UTF-8
p756
sVcomment
p757
g4
sVsize
p758
I0
ssVheaders
p759
(lp760
sVheadersSize
p761
I363
sVredirectURL
p762
g4
sVbodySize
p763
I209697
sVhttpVersion
p764
VHTTP/1.1
p765
ssa(dp766
Vcomment
p767
g4
sVserverIPAddress
p768
V74.125.70.104
p769
sVpageref
p770
VDodge
p771
sVstartedDateTime
p772
V2017-04-16T08:49:58.115-05:00
p773
sVcache
p774
(dp775
sVrequest
p776
(dp777
Vcomment
p778
g4
sVcookies
p779
(lp780
sVurl
p781
Vhttps://www.google.com/gen_204?atyp=i&ct=&cad=udla=1&ei=gnbzWP3JEMHSjwSaz6n4Dw&b=0&act=p&ps=0&zx=1492350598112
p782
sVqueryString
p783
(lp784
(dp785
Vname
p786
Vatyp
p787
sVvalue
p788
g30
sa(dp789
Vname
p790
Vct
p791
sVvalue
p792
g4
sa(dp793
Vname
p794
Vcad
p795
sVvalue
p796
Vudla=1
p797
sa(dp798
Vname
p799
Vei
p800
sVvalue
p801
VgnbzWP3JEMHSjwSaz6n4Dw
p802
sa(dp803
Vname
p804
Vb
p805
sVvalue
p806
g497
sa(dp807
Vname
p808
Vact
p809
sVvalue
p810
Vp
p811
sa(dp812
Vname
p813
Vps
p814
sVvalue
p815
g497
sa(dp816
Vname
p817
Vzx
p818
sVvalue
p819
V1492350598112
p820
sasVheaders
p821
(lp822
sVheadersSize
p823
I627
sVbodySize
p824
I0
sVmethod
p825
VGET
p826
sVhttpVersion
p827
VHTTP/1.1
p828
ssVtimings
p829
(dp830
Vcomment
p831
g4
sVreceive
p832
I0
sVsend
p833
I0
sVssl
p834
I-1
sVconnect
p835
I-1
sVdns
p836
I-1
sVwait
p837
I216
sVblocked
p838
I-1
ssVtime
p839
I216
sVresponse
p840
(dp841
Vstatus
p842
I204
sVcomment
p843
g4
sVcookies
p844
(lp845
sVstatusText
p846
VNo Content
p847
sVcontent
p848
(dp849
VmimeType
p850
Vtext/html; charset=UTF-8
p851
sVcomment
p852
g4
sVsize
p853
I0
ssVheaders
p854
(lp855
sVheadersSize
p856
I248
sVredirectURL
p857
g4
sVbodySize
p858
I0
sVhttpVersion
p859
VHTTP/1.1
p860
ssa(dp861
Vcomment
p862
g4
sVserverIPAddress
p863
V74.125.70.104
p864
sVpageref
p865
VDodge
p866
sVstartedDateTime
p867
V2017-04-16T08:49:58.678-05:00
p868
sVcache
p869
(dp870
sVrequest
p871
(dp872
Vcomment
p873
g4
sVcookies
p874
(lp875
sVurl
p876
Vhttps://www.google.com/xjs/_/js/k=xjs.qs.en_US.pCBXVCvTH3s.O/m=syl,syj,syn,em3,em8,em6,em7,sym,aa,abd,sy2g,sy2k,sy29,sy2j,sy2d,sy2a,sy2c,sy2f,sy2l,sy2m,sy2n,emd,async,sybn,sybi,sybo,sy1f,sy45,sy46,sy9w,sybk,sybj,sybp,sy1g,sy30,sy47,sybm,sybl,sybq,sy1h,sybh,dvl,syep,foot,ipv6,sy32,emj,shm,sy5g,sy5i,sy5k,sykh,tl,sy2x,sy2y,sy2t,sy38,em12,vs,sy5j,sy5h,sy6u,sy66,sy67,sy7d,sy7j,sy4u,sy69,sy89,sy7e,sykk,sykl,tnv,bct,sy5o,sy5r,sy23,sy2u,sy5u,sy5t,sy33,sy34,sy2w,sy31,sy2z,sy7l,sy4v,sy6z,sy4l,sy37,sy2r,sy35,sy6q,sy7t,sy50,sy71,sy7f,sy7o,syah,syai,syak,syal,alc,sy1r,sy24,sy4g,syaj,flum,sy4d,sy4f,sy4c,sy4e,sy4b,syd7,dgm,sy1y,sy3x,sy22,sy6p,sy3w,sy6i,syav,syaw,syb0,sy2o,sy6j,syb1,syaz,sy25,syao,sy2v,sy36,sy3z,syau,syb2,syb3,syay,syax,sy8x,syag,syb7,emb,em9,ema,sy2i,sy6k,syam,syaq,syat,syb4,syb5,syb6,sybc,sybg,lrl,lcm,mexp,sy48,sy3a,sy3c,sy5b,sy4x,sybd,sybe,sybt,sy2p,sy56,sybf,sybr,sybs,mlm,sy4z,sy4y,sy5d,sy5e,llmr,akpc,sy9m,syac,sy9b,sy9n,syhz,syl6,ssc,gldm,sy6n,flpm,sy5a,syan,syap,flmm,sy7y,sy7u,sy7w,sy87,sy7p,sy81,sy7q,sy7s,sy7z,sy82,sy85,sy83,sy26,sy5n,syas,syb8,syba,sybb,inf,lcts,syi0,cpn,rliv,skp,llmu,sya3,sya2,sy72,sya4,sykr,strm,syh6,syl5,kac,kae,strx,sy6y,sycu,d3l,twt,sy6l,sy6h,sy6m,qkx,syf5,sy99,syf4,syfc,syfn,syf7,syff,sy1i,sy68,sy8d,syf6,syfl,syfr,syfq,syfg,sy1j,sy4q,sy8h,syc7,syc8,syfb,syfj,syfs,syft,syg3,syg5,syg7,emn,emo,syg4,syg6,ivg,iuci,img,sy6w,shrb,sy41,tcc,sy80,sy52,sy7m,sy8l,sycv,sy7r,sy8y,syd0,syda,syd5,sy8q,syd1,sydb,syel,syie,pe,sygq,kpc,kpci,sy4h,vrml,sy5z,atn,sy4i,sya1,ampfp/am=gCP4LtMEBXQA2RUaq_oFBISzAFA/rt=j/d=0/t=zcms/rs=ACT90oFwm4NZCwIcuuiqmthdlECdBzkhRA
p877
sVqueryString
p878
(lp879
sVheaders
p880
(lp881
sVheadersSize
p882
I2114
sVbodySize
p883
I0
sVmethod
p884
VGET
p885
sVhttpVersion
p886
VHTTP/1.1
p887
ssVtimings
p888
(dp889
Vcomment
p890
g4
sVreceive
p891
I49
sVsend
p892
I0
sVssl
p893
I-1
sVconnect
p894
I-1
sVdns
p895
I-1
sVwait
p896
I98
sVblocked
p897
I-1
ssVtime
p898
I149
sVresponse
p899
(dp900
Vstatus
p901
I200
sVcomment
p902
g4
sVcookies
p903
(lp904
sVstatusText
p905
VOK
p906
sVcontent
p907
(dp908
VmimeType
p909
Vtext/javascript; charset=UTF-8
p910
sVcomment
p911
g4
sVsize
p912
I0
ssVheaders
p913
(lp914
sVheadersSize
p915
I452
sVredirectURL
p916
g4
sVbodySize
p917
I213041
sVhttpVersion
p918
VHTTP/1.1
p919
ssa(dp920
Vcomment
p921
g4
sVserverIPAddress
p922
V74.125.70.104
p923
sVpageref
p924
VDodge
p925
sVstartedDateTime
p926
V2017-04-16T08:49:59.167-05:00
p927
sVcache
p928
(dp929
sVrequest
p930
(dp931
Vcomment
p932
g4
sVcookies
p933
(lp934
sVurl
p935
Vhttps://www.google.com/async/irc?vet=10ahUKEwj9krWYj6nTAhVB6YMKHZpnCv8Qo0EI4AI..i&ved=0ahUKEwj9krWYj6nTAhVB6YMKHZpnCv8Qo0EI4AI&ei=gnbzWP3JEMHSjwSaz6n4Dw&yv=2&async=iu:1,ved:0ahUKEwj9krWYj6nTAhVB6YMKHZpnCv8Qo0EI4AI,_id:irc_async,_pms:qs
p936
sVqueryString
p937
(lp938
(dp939
Vname
p940
Vvet
p941
sVvalue
p942
V10ahUKEwj9krWYj6nTAhVB6YMKHZpnCv8Qo0EI4AI..i
p943
sa(dp944
Vname
p945
Vved
p946
sVvalue
p947
V0ahUKEwj9krWYj6nTAhVB6YMKHZpnCv8Qo0EI4AI
p948
sa(dp949
Vname
p950
Vei
p951
sVvalue
p952
VgnbzWP3JEMHSjwSaz6n4Dw
p953
sa(dp954
Vname
p955
Vyv
p956
sVvalue
p957
g64
sa(dp958
Vname
p959
Vasync
p960
sVvalue
p961
Viu:1,ved:0ahUKEwj9krWYj6nTAhVB6YMKHZpnCv8Qo0EI4AI,_id:irc_async,_pms:qs
p962
sasVheaders
p963
(lp964
sVheadersSize
p965
I752
sVbodySize
p966
I0
sVmethod
p967
VGET
p968
sVhttpVersion
p969
VHTTP/1.1
p970
ssVtimings
p971
(dp972
Vcomment
p973
g4
sVreceive
p974
I0
sVsend
p975
I0
sVssl
p976
I-1
sVconnect
p977
I-1
sVdns
p978
I-1
sVwait
p979
I41
sVblocked
p980
I-1
ssVtime
p981
I42
sVresponse
p982
(dp983
Vstatus
p984
I200
sVcomment
p985
g4
sVcookies
p986
(lp987
sVstatusText
p988
VOK
p989
sVcontent
p990
(dp991
VmimeType
p992
Vtext/html; charset=UTF-8
p993
sVcomment
p994
g4
sVsize
p995
I0
ssVheaders
p996
(lp997
sVheadersSize
p998
I383
sVredirectURL
p999
g4
sVbodySize
p1000
I7789
sVhttpVersion
p1001
VHTTP/1.1
p1002
ssa(dp1003
Vcomment
p1004
g4
sVserverIPAddress
p1005
V74.125.70.104
p1006
sVpageref
p1007
VDodge
p1008
sVstartedDateTime
p1009
V2017-04-16T08:49:59.264-05:00
p1010
sVcache
p1011
(dp1012
sVrequest
p1013
(dp1014
Vcomment
p1015
g4
sVcookies
p1016
(lp1017
sVurl
p1018
Vhttps://www.google.com/async/ampfp?vet=10ahUKEwj9krWYj6nTAhVB6YMKHZpnCv8QtZoBCN4C..i&ei=gnbzWP3JEMHSjwSaz6n4Dw&yv=2&async=_id:ampfp-async,_pms:qs
p1019
sVqueryString
p1020
(lp1021
(dp1022
Vname
p1023
Vvet
p1024
sVvalue
p1025
V10ahUKEwj9krWYj6nTAhVB6YMKHZpnCv8QtZoBCN4C..i
p1026
sa(dp1027
Vname
p1028
Vei
p1029
sVvalue
p1030
VgnbzWP3JEMHSjwSaz6n4Dw
p1031
sa(dp1032
Vname
p1033
Vyv
p1034
sVvalue
p1035
g64
sa(dp1036
Vname
p1037
Vasync
p1038
sVvalue
p1039
V_id:ampfp-async,_pms:qs
p1040
sasVheaders
p1041
(lp1042
sVheadersSize
p1043
I662
sVbodySize
p1044
I0
sVmethod
p1045
VGET
p1046
sVhttpVersion
p1047
VHTTP/1.1
p1048
ssVtimings
p1049
(dp1050
Vcomment
p1051
g4
sVreceive
p1052
I0
sVsend
p1053
I0
sVssl
p1054
I-1
sVconnect
p1055
I-1
sVdns
p1056
I-1
sVwait
p1057
I67
sVblocked
p1058
I-1
ssVtime
p1059
I67
sVresponse
p1060
(dp1061
Vstatus
p1062
I200
sVcomment
p1063
g4
sVcookies
p1064
(lp1065
sVstatusText
p1066
VOK
p1067
sVcontent
p1068
(dp1069
VmimeType
p1070
Vtext/html; charset=UTF-8
p1071
sVcomment
p1072
g4
sVsize
p1073
I0
ssVheaders
p1074
(lp1075
sVheadersSize
p1076
I383
sVredirectURL
p1077
g4
sVbodySize
p1078
I4525
sVhttpVersion
p1079
VHTTP/1.1
p1080
ssa(dp1081
Vcomment
p1082
g4
sVserverIPAddress
p1083
V216.58.216.193
p1084
sVpageref
p1085
VDodge
p1086
sVstartedDateTime
p1087
V2017-04-16T08:49:59.265-05:00
p1088
sVcache
p1089
(dp1090
sVrequest
p1091
(dp1092
Vcomment
p1093
g4
sVcookies
p1094
(lp1095
sVurl
p1096
Vhttps://cdn.ampproject.org/preconnect.gif?0.10219986917097446
p1097
sVqueryString
p1098
(lp1099
(dp1100
Vname
p1101
V0.10219986917097446
p1102
sVvalue
p1103
g4
sasVheaders
p1104
(lp1105
sVheadersSize
p1106
I376
sVbodySize
p1107
I0
sVmethod
p1108
VGET
p1109
sVhttpVersion
p1110
VHTTP/1.1
p1111
ssVtimings
p1112
(dp1113
Vcomment
p1114
g4
sVreceive
p1115
I0
sVsend
p1116
I0
sVssl
p1117
I-1
sVconnect
p1118
I-1
sVdns
p1119
I-1
sVwait
p1120
I54
sVblocked
p1121
I-1
ssVtime
p1122
I54
sVresponse
p1123
(dp1124
Vstatus
p1125
I200
sVcomment
p1126
g4
sVcookies
p1127
(lp1128
sVstatusText
p1129
VOK
p1130
sVcontent
p1131
(dp1132
VmimeType
p1133
Vimage/gif
p1134
sVcomment
p1135
g4
sVsize
p1136
I0
ssVheaders
p1137
(lp1138
sVheadersSize
p1139
I826
sVredirectURL
p1140
g4
sVbodySize
p1141
I37
sVhttpVersion
p1142
VHTTP/1.1
p1143
ssa(dp1144
Vcomment
p1145
g4
sVserverIPAddress
p1146
V74.125.70.104
p1147
sVpageref
p1148
VDodge
p1149
sVstartedDateTime
p1150
V2017-04-16T08:49:59.388-05:00
p1151
sVcache
p1152
(dp1153
sVrequest
p1154
(dp1155
Vcomment
p1156
g4
sVcookies
p1157
(lp1158
sVurl
p1159
Vhttps://www.google.com/gen_204/local?ei=gnbzWP3JEMHSjwSaz6n4Dw&tm_n=lrl_init&tm=3
p1160
sVqueryString
p1161
(lp1162
(dp1163
Vname
p1164
Vei
p1165
sVvalue
p1166
VgnbzWP3JEMHSjwSaz6n4Dw
p1167
sa(dp1168
Vname
p1169
Vtm_n
p1170
sVvalue
p1171
Vlrl_init
p1172
sa(dp1173
Vname
p1174
Vtm
p1175
sVvalue
p1176
V3
p1177
sasVheaders
p1178
(lp1179
sVheadersSize
p1180
I849
sVbodySize
p1181
I0
sVmethod
p1182
VPOST
p1183
sVhttpVersion
p1184
VHTTP/1.1
p1185
ssVtimings
p1186
(dp1187
Vcomment
p1188
g4
sVreceive
p1189
I0
sVsend
p1190
I0
sVssl
p1191
I-1
sVconnect
p1192
I-1
sVdns
p1193
I-1
sVwait
p1194
I33
sVblocked
p1195
I-1
ssVtime
p1196
I33
sVresponse
p1197
(dp1198
Vstatus
p1199
I204
sVcomment
p1200
g4
sVcookies
p1201
(lp1202
sVstatusText
p1203
VNo Content
p1204
sVcontent
p1205
(dp1206
VmimeType
p1207
Vtext/html; charset=UTF-8
p1208
sVcomment
p1209
g4
sVsize
p1210
I0
ssVheaders
p1211
(lp1212
sVheadersSize
p1213
I290
sVredirectURL
p1214
g4
sVbodySize
p1215
I0
sVhttpVersion
p1216
VHTTP/1.1
p1217
ssa(dp1218
Vcomment
p1219
g4
sVserverIPAddress
p1220
V74.125.70.104
p1221
sVpageref
p1222
VDodge
p1223
sVstartedDateTime
p1224
V2017-04-16T08:49:59.403-05:00
p1225
sVcache
p1226
(dp1227
sVrequest
p1228
(dp1229
Vcomment
p1230
g4
sVcookies
p1231
(lp1232
sVurl
p1233
Vhttps://www.google.com/gen_204/local?ei=gnbzWP3JEMHSjwSaz6n4Dw&tm_n=pt&tm=890
p1234
sVqueryString
p1235
(lp1236
(dp1237
Vname
p1238
Vei
p1239
sVvalue
p1240
VgnbzWP3JEMHSjwSaz6n4Dw
p1241
sa(dp1242
Vname
p1243
Vtm_n
p1244
sVvalue
p1245
Vpt
p1246
sa(dp1247
Vname
p1248
Vtm
p1249
sVvalue
p1250
V890
p1251
sasVheaders
p1252
(lp1253
sVheadersSize
p1254
I845
sVbodySize
p1255
I0
sVmethod
p1256
VPOST
p1257
sVhttpVersion
p1258
VHTTP/1.1
p1259
ssVtimings
p1260
(dp1261
Vcomment
p1262
g4
sVreceive
p1263
I0
sVsend
p1264
I0
sVssl
p1265
I33
sVconnect
p1266
I70
sVdns
p1267
I0
sVwait
p1268
I40
sVblocked
p1269
I0
ssVtime
p1270
I110
sVresponse
p1271
(dp1272
Vstatus
p1273
I204
sVcomment
p1274
g4
sVcookies
p1275
(lp1276
sVstatusText
p1277
VNo Content
p1278
sVcontent
p1279
(dp1280
VmimeType
p1281
Vtext/html; charset=UTF-8
p1282
sVcomment
p1283
g4
sVsize
p1284
I0
ssVheaders
p1285
(lp1286
sVheadersSize
p1287
I290
sVredirectURL
p1288
g4
sVbodySize
p1289
I0
sVhttpVersion
p1290
VHTTP/1.1
p1291
ssa(dp1292
Vcomment
p1293
g4
sVserverIPAddress
p1294
V74.125.70.104
p1295
sVpageref
p1296
VDodge
p1297
sVstartedDateTime
p1298
V2017-04-16T08:49:59.462-05:00
p1299
sVcache
p1300
(dp1301
sVrequest
p1302
(dp1303
Vcomment
p1304
g4
sVcookies
p1305
(lp1306
sVurl
p1307
Vhttps://www.google.com/xjs/_/js/k=xjs.qs.en_US.pCBXVCvTH3s.O/m=syi2,syi5,syi4,fpv,sy8e,sya8,sy91,sya6,sya7,sya9,amp,sp/am=gCP4LtMEBXQA2RUaq_oFBISzAFA/rt=j/d=0/t=zcms/rs=ACT90oFwm4NZCwIcuuiqmthdlECdBzkhRA
p1308
sVqueryString
p1309
(lp1310
sVheaders
p1311
(lp1312
sVheadersSize
p1313
I720
sVbodySize
p1314
I0
sVmethod
p1315
VGET
p1316
sVhttpVersion
p1317
VHTTP/1.1
p1318
ssVtimings
p1319
(dp1320
Vcomment
p1321
g4
sVreceive
p1322
I43
sVsend
p1323
I0
sVssl
p1324
I40
sVconnect
p1325
I65
sVdns
p1326
I0
sVwait
p1327
I34
sVblocked
p1328
I0
ssVtime
p1329
I143
sVresponse
p1330
(dp1331
Vstatus
p1332
I200
sVcomment
p1333
g4
sVcookies
p1334
(lp1335
sVstatusText
p1336
VOK
p1337
sVcontent
p1338
(dp1339
VmimeType
p1340
Vtext/javascript; charset=UTF-8
p1341
sVcomment
p1342
g4
sVsize
p1343
I0
ssVheaders
p1344
(lp1345
sVheadersSize
p1346
I464
sVredirectURL
p1347
g4
sVbodySize
p1348
I27786
sVhttpVersion
p1349
VHTTP/1.1
p1350
ssa(dp1351
Vcomment
p1352
g4
sVserverIPAddress
p1353
V74.125.70.104
p1354
sVpageref
p1355
VDodge
p1356
sVstartedDateTime
p1357
V2017-04-16T08:49:59.467-05:00
p1358
sVcache
p1359
(dp1360
sVrequest
p1361
(dp1362
Vcomment
p1363
g4
sVcookies
p1364
(lp1365
sVurl
p1366
Vhttps://www.google.com/maps/vt/data=RfCSdfNZ0LFPrHSm0ublXdzhdrDFhtmHhN1u-gM,-3PRPHaILPsfA63nJdNINaPs62xDKVhXevG6iP_pEXB8LGsVcaLzmHRN62W4gRCKOkauJRWyrCfIYeRO8jgx_WlZy8pIJdUf3Sg2aSPesrucjFXX4C2LDFkoN9I2j4pNMpXnjqWCNsEdYgFnRXI2ZxBIcNrB1zSnCB_Tj58Ko1fbhW5NkXsxED-tsaDGHssk5hnyfQzoHE0AkorM5CqM16CAIHvizv8zGNRqZK7rJYqK79AHCz21o1ioT_gtwhzHfsc3qhoTDau_eNHnvYy4XhLadMiKfJhW-RB1Yenanb4tYxa-KCud5F6iGC2fX1Pt9tLoU5E7VZP63Ix9rfZs1rmHKMREQVHpfCvbTJMuqrUZFl0Pj0KOj4iGFjF0omRgCtzOAIfFGZc1uW_QW83TwdkHpjk9bizGpvudy-49naezdQD6NbqGAwYnjhFLDt6HCStqlK9AyoRSmVCY9UYvTZQBgx_5Tcs?h=120&w=1024&scale=2
p1367
sVqueryString
p1368
(lp1369
(dp1370
Vname
p1371
Vh
p1372
sVvalue
p1373
V120
p1374
sa(dp1375
Vname
p1376
Vw
p1377
sVvalue
p1378
V1024
p1379
sa(dp1380
Vname
p1381
Vscale
p1382
sVvalue
p1383
g64
sasVheaders
p1384
(lp1385
sVheadersSize
p1386
I1093
sVbodySize
p1387
I0
sVmethod
p1388
VGET
p1389
sVhttpVersion
p1390
VHTTP/1.1
p1391
ssVtimings
p1392
(dp1393
Vcomment
p1394
g4
sVreceive
p1395
I126
sVsend
p1396
I0
sVssl
p1397
I28
sVconnect
p1398
I57
sVdns
p1399
I0
sVwait
p1400
I93
sVblocked
p1401
I0
ssVtime
p1402
I278
sVresponse
p1403
(dp1404
Vstatus
p1405
I200
sVcomment
p1406
g4
sVcookies
p1407
(lp1408
sVstatusText
p1409
VOK
p1410
sVcontent
p1411
(dp1412
VmimeType
p1413
Vimage/png
p1414
sVcomment
p1415
g4
sVsize
p1416
I0
ssVheaders
p1417
(lp1418
sVheadersSize
p1419
I479
sVredirectURL
p1420
g4
sVbodySize
p1421
I57910
sVhttpVersion
p1422
VHTTP/1.1
p1423
ssa(dp1424
Vcomment
p1425
g4
sVserverIPAddress
p1426
V74.125.70.104
p1427
sVpageref
p1428
VDodge
p1429
sVstartedDateTime
p1430
V2017-04-16T08:49:59.467-05:00
p1431
sVcache
p1432
(dp1433
sVrequest
p1434
(dp1435
Vcomment
p1436
g4
sVcookies
p1437
(lp1438
sVurl
p1439
Vhttps://www.google.com/maps/vt/data=fyhx5vRTk6iZCJTK-4FW6WKsGg,gT4WyHy_Ph-cVLTSDQoAd150Zv6kjmWLrbaEu_8hCF9LVudCEtHHVRWOie7gcl8Q6YkuQCzlf6MzMlAF9HHB9pWW6RnNSd5J3IRqJjT5ANbuP6FRNYWqDH1xo8Y7gMhpGVziVGoLlaU0a1_8sHvme6oSDPB-G4VuA3m7rUPZMTCnbVOhJ8-RuUIob0IwFMOiqhBKYdtJuNtw2scjJ0kbY1nABM2dh5S41TG0sQSkDKfHQDbtN6MG6MZD-r4sdmr88MGkbFgTWgcLjjNXACNPgyBY9kfF-p7tXs_XKT51xGavdLfFcTyKFlT6d-09mOc?h=120&w=1024&scale=2
p1440
sVqueryString
p1441
(lp1442
(dp1443
Vname
p1444
g1372
sVvalue
p1445
V120
p1446
sa(dp1447
Vname
p1448
g1377
sVvalue
p1449
V1024
p1450
sa(dp1451
Vname
p1452
Vscale
p1453
sVvalue
p1454
g64
sasVheaders
p1455
(lp1456
sVheadersSize
p1457
I920
sVbodySize
p1458
I0
sVmethod
p1459
VGET
p1460
sVhttpVersion
p1461
VHTTP/1.1
p1462
ssVtimings
p1463
(dp1464
Vcomment
p1465
g4
sVreceive
p1466
I0
sVsend
p1467
I0
sVssl
p1468
I28
sVconnect
p1469
I57
sVdns
p1470
I0
sVwait
p1471
I46
sVblocked
p1472
I0
ssVtime
p1473
I103
sVresponse
p1474
(dp1475
Vstatus
p1476
I200
sVcomment
p1477
g4
sVcookies
p1478
(lp1479
sVstatusText
p1480
VOK
p1481
sVcontent
p1482
(dp1483
VmimeType
p1484
Vimage/png
p1485
sVcomment
p1486
g4
sVsize
p1487
I0
ssVheaders
p1488
(lp1489
sVheadersSize
p1490
I458
sVredirectURL
p1491
g4
sVbodySize
p1492
I1775
sVhttpVersion
p1493
VHTTP/1.1
p1494
ssa(dp1495
Vcomment
p1496
g4
sVserverIPAddress
p1497
V74.125.70.104
p1498
sVpageref
p1499
VDodge
p1500
sVstartedDateTime
p1501
V2017-04-16T08:49:59.582-05:00
p1502
sVcache
p1503
(dp1504
sVrequest
p1505
(dp1506
Vcomment
p1507
g4
sVcookies
p1508
(lp1509
sVurl
p1510
Vhttps://www.google.com/async/log_amp_item_set?vet=10ahUKEwjMtqiaj6nTAhWl54MKHcswCgsQooQBCAE..i&ei=gnbzWP3JEMHSjwSaz6n4Dw&yv=2&async=num_items:10,_fmt:jspb
p1511
sVqueryString
p1512
(lp1513
(dp1514
Vname
p1515
Vvet
p1516
sVvalue
p1517
V10ahUKEwjMtqiaj6nTAhWl54MKHcswCgsQooQBCAE..i
p1518
sa(dp1519
Vname
p1520
Vei
p1521
sVvalue
p1522
VgnbzWP3JEMHSjwSaz6n4Dw
p1523
sa(dp1524
Vname
p1525
Vyv
p1526
sVvalue
p1527
g64
sa(dp1528
Vname
p1529
Vasync
p1530
sVvalue
p1531
Vnum_items:10,_fmt:jspb
p1532
sasVheaders
p1533
(lp1534
sVheadersSize
p1535
I671
sVbodySize
p1536
I0
sVmethod
p1537
VGET
p1538
sVhttpVersion
p1539
VHTTP/1.1
p1540
ssVtimings
p1541
(dp1542
Vcomment
p1543
g4
sVreceive
p1544
I0
sVsend
p1545
I0
sVssl
p1546
I-1
sVconnect
p1547
I-1
sVdns
p1548
I-1
sVwait
p1549
I69
sVblocked
p1550
I-1
ssVtime
p1551
I70
sVresponse
p1552
(dp1553
Vstatus
p1554
I200
sVcomment
p1555
g4
sVcookies
p1556
(lp1557
sVstatusText
p1558
VOK
p1559
sVcontent
p1560
(dp1561
VmimeType
p1562
Vapplication/json; charset=UTF-8
p1563
sVcomment
p1564
g4
sVsize
p1565
I0
ssVheaders
p1566
(lp1567
sVheadersSize
p1568
I417
sVredirectURL
p1569
g4
sVbodySize
p1570
I183
sVhttpVersion
p1571
VHTTP/1.1
p1572
ssa(dp1573
Vcomment
p1574
g4
sVserverIPAddress
p1575
V74.125.70.104
p1576
sVpageref
p1577
VDodge
p1578
sVstartedDateTime
p1579
V2017-04-16T08:49:59.691-05:00
p1580
sVcache
p1581
(dp1582
sVrequest
p1583
(dp1584
Vcomment
p1585
g4
sVcookies
p1586
(lp1587
sVurl
p1588
Vhttps://www.google.com/gen_204/local?ei=gnbzWP3JEMHSjwSaz6n4Dw&tm_n=lcsm-ns&tm=286
p1589
sVqueryString
p1590
(lp1591
(dp1592
Vname
p1593
Vei
p1594
sVvalue
p1595
VgnbzWP3JEMHSjwSaz6n4Dw
p1596
sa(dp1597
Vname
p1598
Vtm_n
p1599
sVvalue
p1600
Vlcsm-ns
p1601
sa(dp1602
Vname
p1603
Vtm
p1604
sVvalue
p1605
V286
p1606
sasVheaders
p1607
(lp1608
sVheadersSize
p1609
I850
sVbodySize
p1610
I0
sVmethod
p1611
VPOST
p1612
sVhttpVersion
p1613
VHTTP/1.1
p1614
ssVtimings
p1615
(dp1616
Vcomment
p1617
g4
sVreceive
p1618
I0
sVsend
p1619
I0
sVssl
p1620
I-1
sVconnect
p1621
I-1
sVdns
p1622
I-1
sVwait
p1623
I39
sVblocked
p1624
I-1
ssVtime
p1625
I39
sVresponse
p1626
(dp1627
Vstatus
p1628
I204
sVcomment
p1629
g4
sVcookies
p1630
(lp1631
sVstatusText
p1632
VNo Content
p1633
sVcontent
p1634
(dp1635
VmimeType
p1636
Vtext/html; charset=UTF-8
p1637
sVcomment
p1638
g4
sVsize
p1639
I0
ssVheaders
p1640
(lp1641
sVheadersSize
p1642
I290
sVredirectURL
p1643
g4
sVbodySize
p1644
I0
sVhttpVersion
p1645
VHTTP/1.1
p1646
ssa(dp1647
Vcomment
p1648
g4
sVserverIPAddress
p1649
V216.58.216.193
p1650
sVpageref
p1651
VDodge
p1652
sVstartedDateTime
p1653
V2017-04-16T08:50:00.563-05:00
p1654
sVcache
p1655
(dp1656
sVrequest
p1657
(dp1658
Vcomment
p1659
g4
sVcookies
p1660
(lp1661
sVurl
p1662
Vhttps://jalopnik-com.cdn.ampproject.org/v/jalopnik.com/new-york-governor-rolls-up-to-talk-eco-friendly-cars-in-1794358279/amp?amp_js_v=9
p1663
sVqueryString
p1664
(lp1665
(dp1666
Vname
p1667
Vamp_js_v
p1668
sVvalue
p1669
V9
p1670
sasVheaders
p1671
(lp1672
sVheadersSize
p1673
I541
sVbodySize
p1674
I0
sVmethod
p1675
VGET
p1676
sVhttpVersion
p1677
VHTTP/1.1
p1678
ssVtimings
p1679
(dp1680
Vcomment
p1681
g4
sVreceive
p1682
I12
sVsend
p1683
I0
sVssl
p1684
I861
sVconnect
p1685
I895
sVdns
p1686
I72
sVwait
p1687
I111
sVblocked
p1688
I0
ssVtime
p1689
I1091
sVresponse
p1690
(dp1691
Vstatus
p1692
I200
sVcomment
p1693
g4
sVcookies
p1694
(lp1695
sVstatusText
p1696
VOK
p1697
sVcontent
p1698
(dp1699
VmimeType
p1700
Vtext/html
p1701
sVcomment
p1702
g4
sVsize
p1703
I0
ssVheaders
p1704
(lp1705
sVheadersSize
p1706
I862
sVredirectURL
p1707
g4
sVbodySize
p1708
I16511
sVhttpVersion
p1709
VHTTP/1.1
p1710
ssa(dp1711
Vcomment
p1712
g4
sVserverIPAddress
p1713
V74.125.70.104
p1714
sVpageref
p1715
VDodge
p1716
sVstartedDateTime
p1717
V2017-04-16T08:50:01.223-05:00
p1718
sVcache
p1719
(dp1720
sVrequest
p1721
(dp1722
Vcomment
p1723
g4
sVcookies
p1724
(lp1725
sVurl
p1726
Vhttps://www.google.com/gen_204?atyp=i&ct=slh&cad=&ei=ZnbzWMP4JOSLjwS7mLOoAQ&m=V&t=C&s=1&v=2&pv=0.4345735250984689&me=1:1492350571511,x:2,V,0,0,1280,944:0,N,1,ZnbzWMP4JOSLjwS7mLOoAQ:0,R,1,24,8,155,1249,261:0,R,1,25,8,155,1249,241:0,R,1,26,8,155,1249,90:0,R,1,41,8,426,1249,393:0,R,1,42,8,426,1249,393:0,R,1,45,0,490,1265,349:0,R,1,68,24,829,1217,114:1,B,3713:11324,e,U&zx=1492350601222
p1727
sVqueryString
p1728
(lp1729
(dp1730
Vname
p1731
Vatyp
p1732
sVvalue
p1733
g30
sa(dp1734
Vname
p1735
Vct
p1736
sVvalue
p1737
Vslh
p1738
sa(dp1739
Vname
p1740
Vcad
p1741
sVvalue
p1742
g4
sa(dp1743
Vname
p1744
Vei
p1745
sVvalue
p1746
VZnbzWMP4JOSLjwS7mLOoAQ
p1747
sa(dp1748
Vname
p1749
g47
sVvalue
p1750
g49
sa(dp1751
Vname
p1752
g52
sVvalue
p1753
g54
sa(dp1754
Vname
p1755
g57
sVvalue
p1756
g59
sa(dp1757
Vname
p1758
g62
sVvalue
p1759
g64
sa(dp1760
Vname
p1761
Vpv
p1762
sVvalue
p1763
V0.4345735250984689
p1764
sa(dp1765
Vname
p1766
Vme
p1767
sVvalue
p1768
V1:1492350571511,x:2,V,0,0,1280,944:0,N,1,ZnbzWMP4JOSLjwS7mLOoAQ:0,R,1,24,8,155,1249,261:0,R,1,25,8,155,1249,241:0,R,1,26,8,155,1249,90:0,R,1,41,8,426,1249,393:0,R,1,42,8,426,1249,393:0,R,1,45,0,490,1265,349:0,R,1,68,24,829,1217,114:1,B,3713:11324,e,U
p1769
sa(dp1770
Vname
p1771
Vzx
p1772
sVvalue
p1773
V1492350601222
p1774
sasVheaders
p1775
(lp1776
sVheadersSize
p1777
I901
sVbodySize
p1778
I0
sVmethod
p1779
VGET
p1780
sVhttpVersion
p1781
VHTTP/1.1
p1782
ssVtimings
p1783
(dp1784
Vcomment
p1785
g4
sVreceive
p1786
I0
sVsend
p1787
I0
sVssl
p1788
I-1
sVconnect
p1789
I-1
sVdns
p1790
I-1
sVwait
p1791
I23
sVblocked
p1792
I-1
ssVtime
p1793
I23
sVresponse
p1794
(dp1795
Vstatus
p1796
I204
sVcomment
p1797
g4
sVcookies
p1798
(lp1799
sVstatusText
p1800
VNo Content
p1801
sVcontent
p1802
(dp1803
VmimeType
p1804
Vtext/html; charset=UTF-8
p1805
sVcomment
p1806
g4
sVsize
p1807
I0
ssVheaders
p1808
(lp1809
sVheadersSize
p1810
I248
sVredirectURL
p1811
g4
sVbodySize
p1812
I0
sVhttpVersion
p1813
VHTTP/1.1
p1814
ssa(dp1815
Vcomment
p1816
g4
sVserverIPAddress
p1817
V74.125.70.104
p1818
sVpageref
p1819
VDodge
p1820
sVstartedDateTime
p1821
V2017-04-16T08:50:01.423-05:00
p1822
sVcache
p1823
(dp1824
sVrequest
p1825
(dp1826
Vcomment
p1827
g4
sVcookies
p1828
(lp1829
sVurl
p1830
Vhttps://www.google.com/gen_204?s=web&atyp=csi&ei=gnbzWP3JEMHSjwSaz6n4Dw&imc=71&imn=71&imp=31&adh=&xjs=init.39.14.sb_mob.28.dvl.4.c.1.mbsf.1.jsa.1&ima=3&rt=prt.2776,iml.2892,xjsls.2776,dcl.2854,qiml.3082,xjses.3058,xjsee.3244,xjs.3245,ol.5976,aft.2776,wsrt.130,cst.0,dnst.0,rqst.1409,rspt.1302,rqstt.4,unt.3,cstt.3,dit.2933
p1831
sVqueryString
p1832
(lp1833
(dp1834
Vname
p1835
g57
sVvalue
p1836
Vweb
p1837
sa(dp1838
Vname
p1839
Vatyp
p1840
sVvalue
p1841
Vcsi
p1842
sa(dp1843
Vname
p1844
Vei
p1845
sVvalue
p1846
VgnbzWP3JEMHSjwSaz6n4Dw
p1847
sa(dp1848
Vname
p1849
Vimc
p1850
sVvalue
p1851
V71
p1852
sa(dp1853
Vname
p1854
Vimn
p1855
sVvalue
p1856
V71
p1857
sa(dp1858
Vname
p1859
Vimp
p1860
sVvalue
p1861
V31
p1862
sa(dp1863
Vname
p1864
Vadh
p1865
sVvalue
p1866
g4
sa(dp1867
Vname
p1868
Vxjs
p1869
sVvalue
p1870
Vinit.39.14.sb_mob.28.dvl.4.c.1.mbsf.1.jsa.1
p1871
sa(dp1872
Vname
p1873
Vima
p1874
sVvalue
p1875
g1177
sa(dp1876
Vname
p1877
Vrt
p1878
sVvalue
p1879
Vprt.2776,iml.2892,xjsls.2776,dcl.2854,qiml.3082,xjses.3058,xjsee.3244,xjs.3245,ol.5976,aft.2776,wsrt.130,cst.0,dnst.0,rqst.1409,rspt.1302,rqstt.4,unt.3,cstt.3,dit.2933
p1880
sasVheaders
p1881
(lp1882
sVheadersSize
p1883
I839
sVbodySize
p1884
I0
sVmethod
p1885
VGET
p1886
sVhttpVersion
p1887
VHTTP/1.1
p1888
ssVtimings
p1889
(dp1890
Vcomment
p1891
g4
sVreceive
p1892
I0
sVsend
p1893
I0
sVssl
p1894
I-1
sVconnect
p1895
I-1
sVdns
p1896
I-1
sVwait
p1897
I27
sVblocked
p1898
I-1
ssVtime
p1899
I27
sVresponse
p1900
(dp1901
Vstatus
p1902
I204
sVcomment
p1903
g4
sVcookies
p1904
(lp1905
sVstatusText
p1906
VNo Content
p1907
sVcontent
p1908
(dp1909
VmimeType
p1910
Vtext/html; charset=UTF-8
p1911
sVcomment
p1912
g4
sVsize
p1913
I0
ssVheaders
p1914
(lp1915
sVheadersSize
p1916
I248
sVredirectURL
p1917
g4
sVbodySize
p1918
I0
sVhttpVersion
p1919
VHTTP/1.1
p1920
ssa(dp1921
Vcomment
p1922
g4
sVserverIPAddress
p1923
V74.125.70.104
p1924
sVpageref
p1925
VDodge
p1926
sVstartedDateTime
p1927
V2017-04-16T08:50:01.583-05:00
p1928
sVcache
p1929
(dp1930
sVrequest
p1931
(dp1932
Vcomment
p1933
g4
sVcookies
p1934
(lp1935
sVurl
p1936
Vhttps://www.google.com/gen_204?s=amp&atyp=csi&ei=gnbzWP3JEMHSjwSaz6n4Dw&ampexp=011492014732688&action=Prerender&rt=msr.145,is.1833,ol.1836,mbv.1931,e_is.1932
p1937
sVqueryString
p1938
(lp1939
(dp1940
Vname
p1941
g57
sVvalue
p1942
Vamp
p1943
sa(dp1944
Vname
p1945
Vatyp
p1946
sVvalue
p1947
Vcsi
p1948
sa(dp1949
Vname
p1950
Vei
p1951
sVvalue
p1952
VgnbzWP3JEMHSjwSaz6n4Dw
p1953
sa(dp1954
Vname
p1955
Vampexp
p1956
sVvalue
p1957
V011492014732688
p1958
sa(dp1959
Vname
p1960
Vaction
p1961
sVvalue
p1962
VPrerender
p1963
sa(dp1964
Vname
p1965
Vrt
p1966
sVvalue
p1967
Vmsr.145,is.1833,ol.1836,mbv.1931,e_is.1932
p1968
sasVheaders
p1969
(lp1970
sVheadersSize
p1971
I674
sVbodySize
p1972
I0
sVmethod
p1973
VGET
p1974
sVhttpVersion
p1975
VHTTP/1.1
p1976
ssVtimings
p1977
(dp1978
Vcomment
p1979
g4
sVreceive
p1980
I0
sVsend
p1981
I0
sVssl
p1982
I-1
sVconnect
p1983
I-1
sVdns
p1984
I-1
sVwait
p1985
I34
sVblocked
p1986
I-1
ssVtime
p1987
I34
sVresponse
p1988
(dp1989
Vstatus
p1990
I204
sVcomment
p1991
g4
sVcookies
p1992
(lp1993
sVstatusText
p1994
VNo Content
p1995
sVcontent
p1996
(dp1997
VmimeType
p1998
Vtext/html; charset=UTF-8
p1999
sVcomment
p2000
g4
sVsize
p2001
I0
ssVheaders
p2002
(lp2003
sVheadersSize
p2004
I248
sVredirectURL
p2005
g4
sVbodySize
p2006
I0
sVhttpVersion
p2007
VHTTP/1.1
p2008
ssa(dp2009
Vcomment
p2010
g4
sVserverIPAddress
p2011
V216.58.216.193
p2012
sVpageref
p2013
VDodge
p2014
sVstartedDateTime
p2015
V2017-04-16T08:50:03.190-05:00
p2016
sVcache
p2017
(dp2018
sVrequest
p2019
(dp2020
Vcomment
p2021
g4
sVcookies
p2022
(lp2023
sVurl
p2024
Vhttps://i-kinja--img-com.cdn.ampproject.org/ii/w1200/s/i.kinja-img.com/gawker-media/image/upload/s--0ZmISajy--/c_scale,fl_progressive,q_80,w_800/nrqxl3vwqjkectfhahtd.gif
p2025
sVqueryString
p2026
(lp2027
sVheaders
p2028
(lp2029
sVheadersSize
p2030
I597
sVbodySize
p2031
I0
sVmethod
p2032
VGET
p2033
sVhttpVersion
p2034
VHTTP/1.1
p2035
ssVtimings
p2036
(dp2037
Vcomment
p2038
g4
sVreceive
p2039
I0
sVsend
p2040
I0
sVssl
p2041
I1632
sVconnect
p2042
I1651
sVdns
p2043
I36
sVwait
p2044
I33
sVblocked
p2045
I0
ssVtime
p2046
I1721
sVresponse
p2047
(dp2048
Vstatus
p2049
I404
sVcomment
p2050
g4
sVcookies
p2051
(lp2052
sVstatusText
p2053
VNot Found
p2054
sVcontent
p2055
(dp2056
VmimeType
p2057
Vtext/html; charset=UTF-8
p2058
sVcomment
p2059
g4
sVsize
p2060
I0
ssVheaders
p2061
(lp2062
sVheadersSize
p2063
I255
sVredirectURL
p2064
g4
sVbodySize
p2065
I1686
sVhttpVersion
p2066
VHTTP/1.1
p2067
ssa(dp2068
Vcomment
p2069
g4
sVserverIPAddress
p2070
V216.58.216.193
p2071
sVpageref
p2072
VDodge
p2073
sVstartedDateTime
p2074
V2017-04-16T08:50:03.193-05:00
p2075
sVcache
p2076
(dp2077
sVrequest
p2078
(dp2079
Vcomment
p2080
g4
sVcookies
p2081
(lp2082
sVurl
p2083
Vhttps://i-kinja--img-com.cdn.ampproject.org/ii/w82/s/i.kinja-img.com/gawker-media/image/upload/s--abNrYoaR--/c_fill,fl_progressive,g_center,h_80,q_80,w_80/oki9emqyhe9t5qkfhq8x.jpg
p2084
sVqueryString
p2085
(lp2086
sVheaders
p2087
(lp2088
sVheadersSize
p2089
I607
sVbodySize
p2090
I0
sVmethod
p2091
VGET
p2092
sVhttpVersion
p2093
VHTTP/1.1
p2094
ssVtimings
p2095
(dp2096
Vcomment
p2097
g4
sVreceive
p2098
I0
sVsend
p2099
I0
sVssl
p2100
I1631
sVconnect
p2101
I1653
sVdns
p2102
I38
sVwait
p2103
I23
sVblocked
p2104
I0
ssVtime
p2105
I1716
sVresponse
p2106
(dp2107
Vstatus
p2108
I200
sVcomment
p2109
g4
sVcookies
p2110
(lp2111
sVstatusText
p2112
VOK
p2113
sVcontent
p2114
(dp2115
VmimeType
p2116
Vimage/jpeg
p2117
sVcomment
p2118
g4
sVsize
p2119
I0
ssVheaders
p2120
(lp2121
sVheadersSize
p2122
I848
sVredirectURL
p2123
g4
sVbodySize
p2124
I2052
sVhttpVersion
p2125
VHTTP/1.1
p2126
ssa(dp2127
Vcomment
p2128
g4
sVserverIPAddress
p2129
V216.58.216.193
p2130
sVpageref
p2131
VDodge
p2132
sVstartedDateTime
p2133
V2017-04-16T08:50:03.195-05:00
p2134
sVcache
p2135
(dp2136
sVrequest
p2137
(dp2138
Vcomment
p2139
g4
sVcookies
p2140
(lp2141
sVurl
p2142
Vhttps://i-kinja--img-com.cdn.ampproject.org/ii/w1200/s/i.kinja-img.com/gawker-media/image/upload/s--4tAY1yq5--/c_scale,fl_progressive,q_80,w_800/nrqxl3vwqjkectfhahtd.jpg
p2143
sVqueryString
p2144
(lp2145
sVheaders
p2146
(lp2147
sVheadersSize
p2148
I597
sVbodySize
p2149
I0
sVmethod
p2150
VGET
p2151
sVhttpVersion
p2152
VHTTP/1.1
p2153
ssVtimings
p2154
(dp2155
Vcomment
p2156
g4
sVreceive
p2157
I29
sVsend
p2158
I0
sVssl
p2159
I1642
sVconnect
p2160
I1656
sVdns
p2161
I34
sVwait
p2162
I24
sVblocked
p2163
I0
ssVtime
p2164
I1746
sVresponse
p2165
(dp2166
Vstatus
p2167
I200
sVcomment
p2168
g4
sVcookies
p2169
(lp2170
sVstatusText
p2171
VOK
p2172
sVcontent
p2173
(dp2174
VmimeType
p2175
Vimage/jpeg
p2176
sVcomment
p2177
g4
sVsize
p2178
I0
ssVheaders
p2179
(lp2180
sVheadersSize
p2181
I849
sVredirectURL
p2182
g4
sVbodySize
p2183
I52058
sVhttpVersion
p2184
VHTTP/1.1
p2185
ssa(dp2186
Vcomment
p2187
g4
sVserverIPAddress
p2188
V74.125.70.104
p2189
sVpageref
p2190
VDodge
p2191
sVstartedDateTime
p2192
V2017-04-16T08:50:03.254-05:00
p2193
sVcache
p2194
(dp2195
sVrequest
p2196
(dp2197
Vcomment
p2198
g4
sVcookies
p2199
(lp2200
sVurl
p2201
Vhttps://www.google.com/gen_204?s=amp&atyp=csi&ei=gnbzWP3JEMHSjwSaz6n4Dw&ampexp=011492014732688&action=Prerender&rt=pc.1
p2202
sVqueryString
p2203
(lp2204
(dp2205
Vname
p2206
g57
sVvalue
p2207
Vamp
p2208
sa(dp2209
Vname
p2210
Vatyp
p2211
sVvalue
p2212
Vcsi
p2213
sa(dp2214
Vname
p2215
Vei
p2216
sVvalue
p2217
VgnbzWP3JEMHSjwSaz6n4Dw
p2218
sa(dp2219
Vname
p2220
Vampexp
p2221
sVvalue
p2222
V011492014732688
p2223
sa(dp2224
Vname
p2225
Vaction
p2226
sVvalue
p2227
VPrerender
p2228
sa(dp2229
Vname
p2230
Vrt
p2231
sVvalue
p2232
Vpc.1
p2233
sasVheaders
p2234
(lp2235
sVheadersSize
p2236
I636
sVbodySize
p2237
I0
sVmethod
p2238
VGET
p2239
sVhttpVersion
p2240
VHTTP/1.1
p2241
ssVtimings
p2242
(dp2243
Vcomment
p2244
g4
sVreceive
p2245
I0
sVsend
p2246
I0
sVssl
p2247
I-1
sVconnect
p2248
I-1
sVdns
p2249
I-1
sVwait
p2250
I28
sVblocked
p2251
I-1
ssVtime
p2252
I28
sVresponse
p2253
(dp2254
Vstatus
p2255
I204
sVcomment
p2256
g4
sVcookies
p2257
(lp2258
sVstatusText
p2259
VNo Content
p2260
sVcontent
p2261
(dp2262
VmimeType
p2263
Vtext/html; charset=UTF-8
p2264
sVcomment
p2265
g4
sVsize
p2266
I0
ssVheaders
p2267
(lp2268
sVheadersSize
p2269
I248
sVredirectURL
p2270
g4
sVbodySize
p2271
I0
sVhttpVersion
p2272
VHTTP/1.1
p2273
ssasVversion
p2274
V1.2
p2275
sVpages
p2276
(lp2277
(dp2278
VpageTimings
p2279
(dp2280
Vcomment
p2281
g4
ssVcomment
p2282
g4
sVtitle
p2283
VDodge
p2284
sVid
p2285
VDodge
p2286
sVstartedDateTime
p2287
V2017-04-16T08:49:54.589-05:00
p2288
sasVcreator
p2289
(dp2290
Vcomment
p2291
g4
sVversion
p2292
V2.1.4
p2293
sVname
p2294
VBrowserMob Proxy
p2295
sss.