(dp0
Vlog
p1
(dp2
Vcomment
p3
V
p4
sVentries
p5
(lp6
(dp7
Vcomment
p8
g4
sVserverIPAddress
p9
V172.217.6.4
p10
sVpageref
p11
VBentley
p12
sVstartedDateTime
p13
V2017-04-16T08:48:55.808-05:00
p14
sVcache
p15
(dp16
sVrequest
p17
(dp18
Vcomment
p19
g4
sVcookies
p20
(lp21
sVurl
p22
Vhttps://www.google.com/gen_204?atyp=i&ct=slh&cad=&ei=NHbzWLDtDeXcjwTJz7qABg&m=V&t=C&s=1&v=2&pv=0.8438488909411787&me=1:1492350519255,x:1,V,0,0,1280,944:0,N,1,NHbzWLDtDeXcjwTJz7qABg:0,R,1,24,8,155,1249,398:0,R,1,26,8,155,1197,398:0,R,1,28,95,155,1024,120:0,R,1,66,8,351,1197,101:0,R,1,75,8,453,1197,100:0,R,1,85,8,563,1249,337:0,R,1,86,8,563,1249,317:0,R,1,87,8,563,1249,90:0,R,1,108,8,910,1249,445:2,B,3564:16548,e,U&zx=1492350535806
p23
sVqueryString
p24
(lp25
(dp26
Vname
p27
Vatyp
p28
sVvalue
p29
Vi
p30
sa(dp31
Vname
p32
Vct
p33
sVvalue
p34
Vslh
p35
sa(dp36
Vname
p37
Vcad
p38
sVvalue
p39
g4
sa(dp40
Vname
p41
Vei
p42
sVvalue
p43
VNHbzWLDtDeXcjwTJz7qABg
p44
sa(dp45
Vname
p46
Vm
p47
sVvalue
p48
VV
p49
sa(dp50
Vname
p51
Vt
p52
sVvalue
p53
VC
p54
sa(dp55
Vname
p56
Vs
p57
sVvalue
p58
V1
p59
sa(dp60
Vname
p61
Vv
p62
sVvalue
p63
V2
p64
sa(dp65
Vname
p66
Vpv
p67
sVvalue
p68
V0.8438488909411787
p69
sa(dp70
Vname
p71
Vme
p72
sVvalue
p73
V1:1492350519255,x:1,V,0,0,1280,944:0,N,1,NHbzWLDtDeXcjwTJz7qABg:0,R,1,24,8,155,1249,398:0,R,1,26,8,155,1197,398:0,R,1,28,95,155,1024,120:0,R,1,66,8,351,1197,101:0,R,1,75,8,453,1197,100:0,R,1,85,8,563,1249,337:0,R,1,86,8,563,1249,317:0,R,1,87,8,563,1249,90:0,R,1,108,8,910,1249,445:2,B,3564:16548,e,U
p74
sa(dp75
Vname
p76
Vzx
p77
sVvalue
p78
V1492350535806
p79
sasVheaders
p80
(lp81
sVheadersSize
p82
I950
sVbodySize
p83
I0
sVmethod
p84
VGET
p85
sVhttpVersion
p86
VHTTP/1.1
p87
ssVtimings
p88
(dp89
Vcomment
p90
g4
sVreceive
p91
I0
sVsend
p92
I0
sVssl
p93
I-1
sVconnect
p94
I-1
sVdns
p95
I-1
sVwait
p96
I0
sVblocked
p97
I-1
ssVtime
p98
I0
sVresponse
p99
(dp100
Vstatus
p101
I0
sVcomment
p102
g4
sVcookies
p103
(lp104
sV_error
p105
VNo response received
p106
sVstatusText
p107
g4
sVcontent
p108
(dp109
VmimeType
p110
g4
sVcomment
p111
g4
sVsize
p112
I0
ssVheaders
p113
(lp114
sVheadersSize
p115
I-1
sVredirectURL
p116
g4
sVbodySize
p117
I-1
sVhttpVersion
p118
Vunknown
p119
ssa(dp120
Vcomment
p121
g4
sVserverIPAddress
p122
V172.217.6.4
p123
sVpageref
p124
VBentley
p125
sVstartedDateTime
p126
V2017-04-16T08:48:55.812-05:00
p127
sVcache
p128
(dp129
sVrequest
p130
(dp131
Vcomment
p132
g4
sVcookies
p133
(lp134
sVurl
p135
Vhttp://www.google.com/
p136
sVqueryString
p137
(lp138
sVheaders
p139
(lp140
sVheadersSize
p141
I613
sVbodySize
p142
I0
sVmethod
p143
VGET
p144
sVhttpVersion
p145
VHTTP/1.1
p146
ssVtimings
p147
(dp148
Vcomment
p149
g4
sVreceive
p150
I0
sVsend
p151
I0
sVssl
p152
I-1
sVconnect
p153
I-1
sVdns
p154
I-1
sVwait
p155
I37
sVblocked
p156
I-1
ssVtime
p157
I37
sVresponse
p158
(dp159
Vstatus
p160
I302
sVcomment
p161
g4
sVcookies
p162
(lp163
sVstatusText
p164
VFound
p165
sVcontent
p166
(dp167
VmimeType
p168
Vtext/html; charset=UTF-8
p169
sVcomment
p170
g4
sVsize
p171
I0
ssVheaders
p172
(lp173
sVheadersSize
p174
I609
sVredirectURL
p175
Vhttps://www.google.com/?gws_rd=ssl
p176
sVbodySize
p177
I231
sVhttpVersion
p178
VHTTP/1.1
p179
ssa(dp180
Vcomment
p181
g4
sVserverIPAddress
p182
V172.217.6.4
p183
sVpageref
p184
VBentley
p185
sVstartedDateTime
p186
V2017-04-16T08:48:55.853-05:00
p187
sVcache
p188
(dp189
sVrequest
p190
(dp191
Vcomment
p192
g4
sVcookies
p193
(lp194
sVurl
p195
Vhttps://www.google.com/?gws_rd=ssl
p196
sVqueryString
p197
(lp198
(dp199
Vname
p200
Vgws_rd
p201
sVvalue
p202
Vssl
p203
sasVheaders
p204
(lp205
sVheadersSize
p206
I607
sVbodySize
p207
I0
sVmethod
p208
VGET
p209
sVhttpVersion
p210
VHTTP/1.1
p211
ssVtimings
p212
(dp213
Vcomment
p214
g4
sVreceive
p215
I9
sVsend
p216
I0
sVssl
p217
I-1
sVconnect
p218
I-1
sVdns
p219
I-1
sVwait
p220
I86
sVblocked
p221
I-1
ssVtime
p222
I95
sVresponse
p223
(dp224
Vstatus
p225
I200
sVcomment
p226
g4
sVcookies
p227
(lp228
sVstatusText
p229
VOK
p230
sVcontent
p231
(dp232
VmimeType
p233
Vtext/html; charset=UTF-8
p234
sVcomment
p235
g4
sVsize
p236
I0
ssVheaders
p237
(lp238
sVheadersSize
p239
I721
sVredirectURL
p240
g4
sVbodySize
p241
I34291
sVhttpVersion
p242
VHTTP/1.1
p243
ssa(dp244
Vcomment
p245
g4
sVserverIPAddress
p246
V172.217.6.4
p247
sVpageref
p248
VBentley
p249
sVstartedDateTime
p250
V2017-04-16T08:48:57.425-05:00
p251
sVcache
p252
(dp253
sVrequest
p254
(dp255
Vcomment
p256
g4
sVcookies
p257
(lp258
sVurl
p259
Vhttps://www.google.com/gen_204?s=mobilewebhp&atyp=csi&ei=RnbzWO_3MqTLjwTyrJHQAQ&imc=1&imn=1&imp=0&adh=&xjs=init.35.12.sb_mob.26.dvl.5.c.1.jsa.1.mbsf.1&ima=1&rt=xjsls.32,prt.33,iml.33,dcl.70,xjses.1311,xjsee.1423,xjs.1424,ol.1464,aft.33,wsrt.151,cst.0,dnst.0,rqst.97,rspt.10,rqstt.48,unt.46,cstt.46,dit.210
p260
sVqueryString
p261
(lp262
(dp263
Vname
p264
g57
sVvalue
p265
Vmobilewebhp
p266
sa(dp267
Vname
p268
Vatyp
p269
sVvalue
p270
Vcsi
p271
sa(dp272
Vname
p273
Vei
p274
sVvalue
p275
VRnbzWO_3MqTLjwTyrJHQAQ
p276
sa(dp277
Vname
p278
Vimc
p279
sVvalue
p280
g59
sa(dp281
Vname
p282
Vimn
p283
sVvalue
p284
g59
sa(dp285
Vname
p286
Vimp
p287
sVvalue
p288
V0
p289
sa(dp290
Vname
p291
Vadh
p292
sVvalue
p293
g4
sa(dp294
Vname
p295
Vxjs
p296
sVvalue
p297
Vinit.35.12.sb_mob.26.dvl.5.c.1.jsa.1.mbsf.1
p298
sa(dp299
Vname
p300
Vima
p301
sVvalue
p302
g59
sa(dp303
Vname
p304
Vrt
p305
sVvalue
p306
Vxjsls.32,prt.33,iml.33,dcl.70,xjses.1311,xjsee.1423,xjs.1424,ol.1464,aft.33,wsrt.151,cst.0,dnst.0,rqst.97,rspt.10,rqstt.48,unt.46,cstt.46,dit.210
p307
sasVheaders
p308
(lp309
sVheadersSize
p310
I833
sVbodySize
p311
I0
sVmethod
p312
VGET
p313
sVhttpVersion
p314
VHTTP/1.1
p315
ssVtimings
p316
(dp317
Vcomment
p318
g4
sVreceive
p319
I0
sVsend
p320
I0
sVssl
p321
I-1
sVconnect
p322
I-1
sVdns
p323
I-1
sVwait
p324
I37
sVblocked
p325
I-1
ssVtime
p326
I37
sVresponse
p327
(dp328
Vstatus
p329
I204
sVcomment
p330
g4
sVcookies
p331
(lp332
sVstatusText
p333
VNo Content
p334
sVcontent
p335
(dp336
VmimeType
p337
Vtext/html; charset=UTF-8
p338
sVcomment
p339
g4
sVsize
p340
I0
ssVheaders
p341
(lp342
sVheadersSize
p343
I248
sVredirectURL
p344
g4
sVbodySize
p345
I0
sVhttpVersion
p346
VHTTP/1.1
p347
ssa(dp348
Vcomment
p349
g4
sVserverIPAddress
p350
V172.217.6.4
p351
sVpageref
p352
VBentley
p353
sVstartedDateTime
p354
V2017-04-16T08:48:57.537-05:00
p355
sVcache
p356
(dp357
sVrequest
p358
(dp359
Vcomment
p360
g4
sVcookies
p361
(lp362
sVurl
p363
Vhttps://www.google.com/complete/search?client=mobile-gws-hp&hl=en&gs_rn=64&gs_ri=mobile-gws-hp&sla=1&pfq=boiled%20egg&gm=602&cp=0&gs_id=1&xhr=t&q=B&tch=1&ech=1&psi=RnbzWO_3MqTLjwTyrJHQAQ.1492350537347.1
p364
sVqueryString
p365
(lp366
(dp367
Vname
p368
Vclient
p369
sVvalue
p370
Vmobile-gws-hp
p371
sa(dp372
Vname
p373
Vhl
p374
sVvalue
p375
Ven
p376
sa(dp377
Vname
p378
Vgs_rn
p379
sVvalue
p380
V64
p381
sa(dp382
Vname
p383
Vgs_ri
p384
sVvalue
p385
Vmobile-gws-hp
p386
sa(dp387
Vname
p388
Vsla
p389
sVvalue
p390
g59
sa(dp391
Vname
p392
Vpfq
p393
sVvalue
p394
Vboiled egg
p395
sa(dp396
Vname
p397
Vgm
p398
sVvalue
p399
V602
p400
sa(dp401
Vname
p402
Vcp
p403
sVvalue
p404
g289
sa(dp405
Vname
p406
Vgs_id
p407
sVvalue
p408
g59
sa(dp409
Vname
p410
Vxhr
p411
sVvalue
p412
g52
sa(dp413
Vname
p414
Vq
p415
sVvalue
p416
VB
p417
sa(dp418
Vname
p419
Vtch
p420
sVvalue
p421
g59
sa(dp422
Vname
p423
Vech
p424
sVvalue
p425
g59
sa(dp426
Vname
p427
Vpsi
p428
sVvalue
p429
VRnbzWO_3MqTLjwTyrJHQAQ.1492350537347.1
p430
sasVheaders
p431
(lp432
sVheadersSize
p433
I730
sVbodySize
p434
I0
sVmethod
p435
VGET
p436
sVhttpVersion
p437
VHTTP/1.1
p438
ssVtimings
p439
(dp440
Vcomment
p441
g4
sVreceive
p442
I0
sVsend
p443
I0
sVssl
p444
I-1
sVconnect
p445
I-1
sVdns
p446
I-1
sVwait
p447
I0
sVblocked
p448
I-1
ssVtime
p449
I0
sVresponse
p450
(dp451
Vstatus
p452
I0
sVcomment
p453
g4
sVcookies
p454
(lp455
sV_error
p456
VNo response received
p457
sVstatusText
p458
g4
sVcontent
p459
(dp460
VmimeType
p461
g4
sVcomment
p462
g4
sVsize
p463
I0
ssVheaders
p464
(lp465
sVheadersSize
p466
I-1
sVredirectURL
p467
g4
sVbodySize
p468
I-1
sVhttpVersion
p469
Vunknown
p470
ssa(dp471
Vcomment
p472
g4
sVserverIPAddress
p473
V172.217.6.4
p474
sVpageref
p475
VBentley
p476
sVstartedDateTime
p477
V2017-04-16T08:48:57.584-05:00
p478
sVcache
p479
(dp480
sVrequest
p481
(dp482
Vcomment
p483
g4
sVcookies
p484
(lp485
sVurl
p486
Vhttps://www.google.com/search?site=&source=hp&ei=RnbzWO_3MqTLjwTyrJHQAQ&q=Bentley&oq=Bentley&gs_l=mobile-gws-hp.3...163.181.0.203.7.1.0.0.0.0.0.0..0.0....0...1c.1.64.mobile-gws-hp..7.0.0.40fImmcAhdo
p487
sVqueryString
p488
(lp489
(dp490
Vname
p491
Vsite
p492
sVvalue
p493
g4
sa(dp494
Vname
p495
Vsource
p496
sVvalue
p497
Vhp
p498
sa(dp499
Vname
p500
Vei
p501
sVvalue
p502
VRnbzWO_3MqTLjwTyrJHQAQ
p503
sa(dp504
Vname
p505
g415
sVvalue
p506
VBentley
p507
sa(dp508
Vname
p509
Voq
p510
sVvalue
p511
VBentley
p512
sa(dp513
Vname
p514
Vgs_l
p515
sVvalue
p516
Vmobile-gws-hp.3...163.181.0.203.7.1.0.0.0.0.0.0..0.0....0...1c.1.64.mobile-gws-hp..7.0.0.40fImmcAhdo
p517
sasVheaders
p518
(lp519
sVheadersSize
p520
I816
sVbodySize
p521
I0
sVmethod
p522
VGET
p523
sVhttpVersion
p524
VHTTP/1.1
p525
ssVtimings
p526
(dp527
Vcomment
p528
g4
sVreceive
p529
I1297
sVsend
p530
I0
sVssl
p531
I-1
sVconnect
p532
I-1
sVdns
p533
I-1
sVwait
p534
I110
sVblocked
p535
I-1
ssVtime
p536
I1408
sVresponse
p537
(dp538
Vstatus
p539
I200
sVcomment
p540
g4
sVcookies
p541
(lp542
sVstatusText
p543
VOK
p544
sVcontent
p545
(dp546
VmimeType
p547
Vtext/html; charset=UTF-8
p548
sVcomment
p549
g4
sVsize
p550
I0
ssVheaders
p551
(lp552
sVheadersSize
p553
I363
sVredirectURL
p554
g4
sVbodySize
p555
I277940
sVhttpVersion
p556
VHTTP/1.1
p557
ssa(dp558
Vcomment
p559
g4
sVserverIPAddress
p560
V172.217.6.4
p561
sVpageref
p562
VBentley
p563
sVstartedDateTime
p564
V2017-04-16T08:48:58.852-05:00
p565
sVcache
p566
(dp567
sVrequest
p568
(dp569
Vcomment
p570
g4
sVcookies
p571
(lp572
sVurl
p573
Vhttps://www.google.com/gen_204?atyp=i&ct=&cad=udla=1&ei=SHbzWJ3KIuzZjwTZ-LvQDA&b=0&act=p&ps=0&zx=1492350538851
p574
sVqueryString
p575
(lp576
(dp577
Vname
p578
Vatyp
p579
sVvalue
p580
g30
sa(dp581
Vname
p582
Vct
p583
sVvalue
p584
g4
sa(dp585
Vname
p586
Vcad
p587
sVvalue
p588
Vudla=1
p589
sa(dp590
Vname
p591
Vei
p592
sVvalue
p593
VSHbzWJ3KIuzZjwTZ-LvQDA
p594
sa(dp595
Vname
p596
Vb
p597
sVvalue
p598
g289
sa(dp599
Vname
p600
Vact
p601
sVvalue
p602
Vp
p603
sa(dp604
Vname
p605
Vps
p606
sVvalue
p607
g289
sa(dp608
Vname
p609
Vzx
p610
sVvalue
p611
V1492350538851
p612
sasVheaders
p613
(lp614
sVheadersSize
p615
I627
sVbodySize
p616
I0
sVmethod
p617
VGET
p618
sVhttpVersion
p619
VHTTP/1.1
p620
ssVtimings
p621
(dp622
Vcomment
p623
g4
sVreceive
p624
I0
sVsend
p625
I0
sVssl
p626
I-1
sVconnect
p627
I-1
sVdns
p628
I-1
sVwait
p629
I50
sVblocked
p630
I-1
ssVtime
p631
I50
sVresponse
p632
(dp633
Vstatus
p634
I204
sVcomment
p635
g4
sVcookies
p636
(lp637
sVstatusText
p638
VNo Content
p639
sVcontent
p640
(dp641
VmimeType
p642
Vtext/html; charset=UTF-8
p643
sVcomment
p644
g4
sVsize
p645
I0
ssVheaders
p646
(lp647
sVheadersSize
p648
I248
sVredirectURL
p649
g4
sVbodySize
p650
I0
sVhttpVersion
p651
VHTTP/1.1
p652
ssa(dp653
Vcomment
p654
g4
sVserverIPAddress
p655
V172.217.6.4
p656
sVpageref
p657
VBentley
p658
sVstartedDateTime
p659
V2017-04-16T08:48:59.703-05:00
p660
sVcache
p661
(dp662
sVrequest
p663
(dp664
Vcomment
p665
g4
sVcookies
p666
(lp667
sVurl
p668
Vhttps://www.google.com/xjs/_/js/k=xjs.qs.en_US.pCBXVCvTH3s.O/m=syl,syj,syn,em3,em8,em6,em7,sym,aa,abd,sy2g,sy2k,sy29,sy2j,sy2d,sy2a,sy2c,sy2f,sy2l,sy2m,sy2n,emd,async,sybn,sybi,sybo,sy1f,sy45,sy46,sy9w,sybk,sybj,sybp,sy1g,sy30,sy47,sybm,sybl,sybq,sy1h,sybh,dvl,syep,foot,ipv6,sy32,emj,shm,sy5g,sy5i,sy5k,sykh,tl,sy2x,sy2y,sy2t,sy38,em12,vs,sy5j,sy5h,sy6u,sy66,sy67,sy7d,sy7j,sy4u,sy69,sy89,sy7e,sykk,sykl,tnv,bct,sy23,sy6t,nvm,sy9m,syac,sy24,sy4g,sy9b,sy9n,syhz,syl6,ssc,sy1y,sya3,sy22,sy6i,sy25,sya2,sy6j,sy72,emb,sy26,em9,ema,sy31,sya4,sykr,strm,twt,sy2u,sy34,sy6l,sy6k,sy6h,sy6m,qkx,syf5,sy99,syf4,syfc,syfn,syf7,syff,sy1i,sy68,sy8d,syf6,syfl,syfr,syfq,syfg,sy1j,sy4q,sy5o,sy5r,sy6n,sy6p,sy8h,syc7,syc8,syfb,syfj,syfs,syft,syg3,syg5,syg7,emn,emo,syg4,syg6,ivg,iuci,img,sy4d,sy4f,sy4c,sy4e,sy4b,sy6w,shrb,syd7,dgm,sy41,tcc,sygq,kpc,kpci,sy6y,sycu,d3l,sy5u,sy5t,sy33,sy2w,sy2z,sy7l,sy4v,sy6z,sy4l,sy37,sy2r,sy35,sy6q,sy7t,sy50,sy71,sy7f,sy7o,syah,syai,syak,syal,alc,sy1r,syaj,flum,sy3x,sy3w,syav,syaw,syb0,sy2o,syb1,syaz,syao,sy2v,sy36,sy3z,syau,syb2,syb3,syay,syax,sy8x,syag,syb7,sy2i,syam,syaq,syat,syb4,syb5,syb6,sybc,sybg,lrl,lcm,mexp,sy48,sy3a,sy3c,sy5b,sy4x,sybd,sybe,sybt,sy2p,sy56,sybf,sybr,sybs,mlm,sy4z,sy4y,sy5d,sy5e,llmr,akpc,gldm,flpm,sy5a,syan,syap,flmm,rltl,sy7y,sy7u,sy7w,sy87,sy7p,sy81,sy7q,sy7s,sy7z,sy82,sy85,sy83,sy5n,syas,syb8,syba,sybb,inf,sy5x,qif,rliv,skp,llmu,iulc,sy5z,atn,sy4h,sy4i,sya1,ampfp/am=gCP4LtMEBXQA2RUaq_oFBISzAFA/rt=j/d=0/t=zcms/rs=ACT90oFwm4NZCwIcuuiqmthdlECdBzkhRA
p669
sVqueryString
p670
(lp671
sVheaders
p672
(lp673
sVheadersSize
p674
I2022
sVbodySize
p675
I0
sVmethod
p676
VGET
p677
sVhttpVersion
p678
VHTTP/1.1
p679
ssVtimings
p680
(dp681
Vcomment
p682
g4
sVreceive
p683
I41
sVsend
p684
I0
sVssl
p685
I-1
sVconnect
p686
I-1
sVdns
p687
I-1
sVwait
p688
I105
sVblocked
p689
I-1
ssVtime
p690
I146
sVresponse
p691
(dp692
Vstatus
p693
I200
sVcomment
p694
g4
sVcookies
p695
(lp696
sVstatusText
p697
VOK
p698
sVcontent
p699
(dp700
VmimeType
p701
Vtext/javascript; charset=UTF-8
p702
sVcomment
p703
g4
sVsize
p704
I0
ssVheaders
p705
(lp706
sVheadersSize
p707
I452
sVredirectURL
p708
g4
sVbodySize
p709
I199990
sVhttpVersion
p710
VHTTP/1.1
p711
ssa(dp712
Vcomment
p713
g4
sVserverIPAddress
p714
V172.217.6.4
p715
sVpageref
p716
VBentley
p717
sVstartedDateTime
p718
V2017-04-16T08:49:00.190-05:00
p719
sVcache
p720
(dp721
sVrequest
p722
(dp723
Vcomment
p724
g4
sVcookies
p725
(lp726
sVurl
p727
Vhttps://www.google.com/async/irc?vet=10ahUKEwidjvP8jqnTAhXs7IMKHVn8DsoQo0EI6AI..i&ved=0ahUKEwidjvP8jqnTAhXs7IMKHVn8DsoQo0EI6AI&ei=SHbzWJ3KIuzZjwTZ-LvQDA&yv=2&async=iu:1,ved:0ahUKEwidjvP8jqnTAhXs7IMKHVn8DsoQo0EI6AI,_id:irc_async,_pms:qs
p728
sVqueryString
p729
(lp730
(dp731
Vname
p732
Vvet
p733
sVvalue
p734
V10ahUKEwidjvP8jqnTAhXs7IMKHVn8DsoQo0EI6AI..i
p735
sa(dp736
Vname
p737
Vved
p738
sVvalue
p739
V0ahUKEwidjvP8jqnTAhXs7IMKHVn8DsoQo0EI6AI
p740
sa(dp741
Vname
p742
Vei
p743
sVvalue
p744
VSHbzWJ3KIuzZjwTZ-LvQDA
p745
sa(dp746
Vname
p747
Vyv
p748
sVvalue
p749
g64
sa(dp750
Vname
p751
Vasync
p752
sVvalue
p753
Viu:1,ved:0ahUKEwidjvP8jqnTAhXs7IMKHVn8DsoQo0EI6AI,_id:irc_async,_pms:qs
p754
sasVheaders
p755
(lp756
sVheadersSize
p757
I752
sVbodySize
p758
I0
sVmethod
p759
VGET
p760
sVhttpVersion
p761
VHTTP/1.1
p762
ssVtimings
p763
(dp764
Vcomment
p765
g4
sVreceive
p766
I0
sVsend
p767
I0
sVssl
p768
I-1
sVconnect
p769
I-1
sVdns
p770
I-1
sVwait
p771
I42
sVblocked
p772
I-1
ssVtime
p773
I43
sVresponse
p774
(dp775
Vstatus
p776
I200
sVcomment
p777
g4
sVcookies
p778
(lp779
sVstatusText
p780
VOK
p781
sVcontent
p782
(dp783
VmimeType
p784
Vtext/html; charset=UTF-8
p785
sVcomment
p786
g4
sVsize
p787
I0
ssVheaders
p788
(lp789
sVheadersSize
p790
I383
sVredirectURL
p791
g4
sVbodySize
p792
I7793
sVhttpVersion
p793
VHTTP/1.1
p794
ssa(dp795
Vcomment
p796
g4
sVserverIPAddress
p797
V172.217.6.4
p798
sVpageref
p799
VBentley
p800
sVstartedDateTime
p801
V2017-04-16T08:49:00.352-05:00
p802
sVcache
p803
(dp804
sVrequest
p805
(dp806
Vcomment
p807
g4
sVcookies
p808
(lp809
sVurl
p810
Vhttps://www.google.com/async/ampfp?vet=10ahUKEwidjvP8jqnTAhXs7IMKHVn8DsoQtZoBCOYC..i&ei=SHbzWJ3KIuzZjwTZ-LvQDA&yv=2&async=_id:ampfp-async,_pms:qs
p811
sVqueryString
p812
(lp813
(dp814
Vname
p815
Vvet
p816
sVvalue
p817
V10ahUKEwidjvP8jqnTAhXs7IMKHVn8DsoQtZoBCOYC..i
p818
sa(dp819
Vname
p820
Vei
p821
sVvalue
p822
VSHbzWJ3KIuzZjwTZ-LvQDA
p823
sa(dp824
Vname
p825
Vyv
p826
sVvalue
p827
g64
sa(dp828
Vname
p829
Vasync
p830
sVvalue
p831
V_id:ampfp-async,_pms:qs
p832
sasVheaders
p833
(lp834
sVheadersSize
p835
I662
sVbodySize
p836
I0
sVmethod
p837
VGET
p838
sVhttpVersion
p839
VHTTP/1.1
p840
ssVtimings
p841
(dp842
Vcomment
p843
g4
sVreceive
p844
I1
sVsend
p845
I0
sVssl
p846
I-1
sVconnect
p847
I-1
sVdns
p848
I-1
sVwait
p849
I57
sVblocked
p850
I-1
ssVtime
p851
I59
sVresponse
p852
(dp853
Vstatus
p854
I200
sVcomment
p855
g4
sVcookies
p856
(lp857
sVstatusText
p858
VOK
p859
sVcontent
p860
(dp861
VmimeType
p862
Vtext/html; charset=UTF-8
p863
sVcomment
p864
g4
sVsize
p865
I0
ssVheaders
p866
(lp867
sVheadersSize
p868
I383
sVredirectURL
p869
g4
sVbodySize
p870
I4527
sVhttpVersion
p871
VHTTP/1.1
p872
ssa(dp873
Vcomment
p874
g4
sVserverIPAddress
p875
V216.58.216.193
p876
sVpageref
p877
VBentley
p878
sVstartedDateTime
p879
V2017-04-16T08:49:00.352-05:00
p880
sVcache
p881
(dp882
sVrequest
p883
(dp884
Vcomment
p885
g4
sVcookies
p886
(lp887
sVurl
p888
Vhttps://cdn.ampproject.org/preconnect.gif?0.7646672786062317
p889
sVqueryString
p890
(lp891
(dp892
Vname
p893
V0.7646672786062317
p894
sVvalue
p895
g4
sasVheaders
p896
(lp897
sVheadersSize
p898
I375
sVbodySize
p899
I0
sVmethod
p900
VGET
p901
sVhttpVersion
p902
VHTTP/1.1
p903
ssVtimings
p904
(dp905
Vcomment
p906
g4
sVreceive
p907
I0
sVsend
p908
I0
sVssl
p909
I-1
sVconnect
p910
I-1
sVdns
p911
I-1
sVwait
p912
I50
sVblocked
p913
I-1
ssVtime
p914
I50
sVresponse
p915
(dp916
Vstatus
p917
I200
sVcomment
p918
g4
sVcookies
p919
(lp920
sVstatusText
p921
VOK
p922
sVcontent
p923
(dp924
VmimeType
p925
Vimage/gif
p926
sVcomment
p927
g4
sVsize
p928
I0
ssVheaders
p929
(lp930
sVheadersSize
p931
I826
sVredirectURL
p932
g4
sVbodySize
p933
I37
sVhttpVersion
p934
VHTTP/1.1
p935
ssa(dp936
Vcomment
p937
g4
sVserverIPAddress
p938
V216.58.216.206
p939
sVpageref
p940
VBentley
p941
sVstartedDateTime
p942
V2017-04-16T08:49:00.369-05:00
p943
sVcache
p944
(dp945
sVrequest
p946
(dp947
Vcomment
p948
g4
sVcookies
p949
(lp950
sVurl
p951
Vhttps://encrypted-tbn0.gstatic.com/images?q=tbn:ANd9GcSvmHLM5SpXvuQyUbGbJCU-maw6cy4qbuG1vRaFLnHkWIq_XJnzn9f83FDh
p952
sVqueryString
p953
(lp954
(dp955
Vname
p956
g415
sVvalue
p957
Vtbn:ANd9GcSvmHLM5SpXvuQyUbGbJCU-maw6cy4qbuG1vRaFLnHkWIq_XJnzn9f83FDh
p958
sasVheaders
p959
(lp960
sVheadersSize
p961
I427
sVbodySize
p962
I0
sVmethod
p963
VGET
p964
sVhttpVersion
p965
VHTTP/1.1
p966
ssVtimings
p967
(dp968
Vcomment
p969
g4
sVreceive
p970
I4
sVsend
p971
I0
sVssl
p972
I-1
sVconnect
p973
I-1
sVdns
p974
I-1
sVwait
p975
I23
sVblocked
p976
I-1
ssVtime
p977
I28
sVresponse
p978
(dp979
Vstatus
p980
I200
sVcomment
p981
g4
sVcookies
p982
(lp983
sVstatusText
p984
VOK
p985
sVcontent
p986
(dp987
VmimeType
p988
Vimage/jpeg
p989
sVcomment
p990
g4
sVsize
p991
I0
ssVheaders
p992
(lp993
sVheadersSize
p994
I429
sVredirectURL
p995
g4
sVbodySize
p996
I8406
sVhttpVersion
p997
VHTTP/1.1
p998
ssa(dp999
Vcomment
p1000
g4
sVserverIPAddress
p1001
V216.58.216.206
p1002
sVpageref
p1003
VBentley
p1004
sVstartedDateTime
p1005
V2017-04-16T08:49:00.417-05:00
p1006
sVcache
p1007
(dp1008
sVrequest
p1009
(dp1010
Vcomment
p1011
g4
sVcookies
p1012
(lp1013
sVurl
p1014
Vhttps://encrypted-tbn1.gstatic.com/images?q=tbn:ANd9GcTcOzfVOh3F4T5_01_U7JUfQkdgE7vrGxrXgO-0PXI4tsHbd7BMSDOVFrLO5w
p1015
sVqueryString
p1016
(lp1017
(dp1018
Vname
p1019
g415
sVvalue
p1020
Vtbn:ANd9GcTcOzfVOh3F4T5_01_U7JUfQkdgE7vrGxrXgO-0PXI4tsHbd7BMSDOVFrLO5w
p1021
sasVheaders
p1022
(lp1023
sVheadersSize
p1024
I429
sVbodySize
p1025
I0
sVmethod
p1026
VGET
p1027
sVhttpVersion
p1028
VHTTP/1.1
p1029
ssVtimings
p1030
(dp1031
Vcomment
p1032
g4
sVreceive
p1033
I0
sVsend
p1034
I0
sVssl
p1035
I25
sVconnect
p1036
I43
sVdns
p1037
I1
sVwait
p1038
I14
sVblocked
p1039
I0
ssVtime
p1040
I60
sVresponse
p1041
(dp1042
Vstatus
p1043
I200
sVcomment
p1044
g4
sVcookies
p1045
(lp1046
sVstatusText
p1047
VOK
p1048
sVcontent
p1049
(dp1050
VmimeType
p1051
Vimage/jpeg
p1052
sVcomment
p1053
g4
sVsize
p1054
I0
ssVheaders
p1055
(lp1056
sVheadersSize
p1057
I428
sVredirectURL
p1058
g4
sVbodySize
p1059
I7831
sVhttpVersion
p1060
VHTTP/1.1
p1061
ssa(dp1062
Vcomment
p1063
g4
sVserverIPAddress
p1064
V216.58.216.206
p1065
sVpageref
p1066
VBentley
p1067
sVstartedDateTime
p1068
V2017-04-16T08:49:00.418-05:00
p1069
sVcache
p1070
(dp1071
sVrequest
p1072
(dp1073
Vcomment
p1074
g4
sVcookies
p1075
(lp1076
sVurl
p1077
Vhttps://encrypted-tbn1.gstatic.com/images?q=tbn:ANd9GcT-mWheLWcSLzc9FjnyyK_a7fJ_rA-mPZMV5Ii7e31OTEBZplbEY4p9Kmfihw
p1078
sVqueryString
p1079
(lp1080
(dp1081
Vname
p1082
g415
sVvalue
p1083
Vtbn:ANd9GcT-mWheLWcSLzc9FjnyyK_a7fJ_rA-mPZMV5Ii7e31OTEBZplbEY4p9Kmfihw
p1084
sasVheaders
p1085
(lp1086
sVheadersSize
p1087
I429
sVbodySize
p1088
I0
sVmethod
p1089
VGET
p1090
sVhttpVersion
p1091
VHTTP/1.1
p1092
ssVtimings
p1093
(dp1094
Vcomment
p1095
g4
sVreceive
p1096
I1
sVsend
p1097
I0
sVssl
p1098
I26
sVconnect
p1099
I44
sVdns
p1100
I1
sVwait
p1101
I14
sVblocked
p1102
I0
ssVtime
p1103
I62
sVresponse
p1104
(dp1105
Vstatus
p1106
I200
sVcomment
p1107
g4
sVcookies
p1108
(lp1109
sVstatusText
p1110
VOK
p1111
sVcontent
p1112
(dp1113
VmimeType
p1114
Vimage/jpeg
p1115
sVcomment
p1116
g4
sVsize
p1117
I0
ssVheaders
p1118
(lp1119
sVheadersSize
p1120
I429
sVredirectURL
p1121
g4
sVbodySize
p1122
I7973
sVhttpVersion
p1123
VHTTP/1.1
p1124
ssa(dp1125
Vcomment
p1126
g4
sVserverIPAddress
p1127
V172.217.6.4
p1128
sVpageref
p1129
VBentley
p1130
sVstartedDateTime
p1131
V2017-04-16T08:49:00.490-05:00
p1132
sVcache
p1133
(dp1134
sVrequest
p1135
(dp1136
Vcomment
p1137
g4
sVcookies
p1138
(lp1139
sVurl
p1140
Vhttps://www.google.com/gen_204/local?ei=SHbzWJ3KIuzZjwTZ-LvQDA&tm_n=pt&tm=1227
p1141
sVqueryString
p1142
(lp1143
(dp1144
Vname
p1145
Vei
p1146
sVvalue
p1147
VSHbzWJ3KIuzZjwTZ-LvQDA
p1148
sa(dp1149
Vname
p1150
Vtm_n
p1151
sVvalue
p1152
Vpt
p1153
sa(dp1154
Vname
p1155
Vtm
p1156
sVvalue
p1157
V1227
p1158
sasVheaders
p1159
(lp1160
sVheadersSize
p1161
I850
sVbodySize
p1162
I0
sVmethod
p1163
VPOST
p1164
sVhttpVersion
p1165
VHTTP/1.1
p1166
ssVtimings
p1167
(dp1168
Vcomment
p1169
g4
sVreceive
p1170
I0
sVsend
p1171
I0
sVssl
p1172
I-1
sVconnect
p1173
I-1
sVdns
p1174
I-1
sVwait
p1175
I36
sVblocked
p1176
I-1
ssVtime
p1177
I36
sVresponse
p1178
(dp1179
Vstatus
p1180
I204
sVcomment
p1181
g4
sVcookies
p1182
(lp1183
sVstatusText
p1184
VNo Content
p1185
sVcontent
p1186
(dp1187
VmimeType
p1188
Vtext/html; charset=UTF-8
p1189
sVcomment
p1190
g4
sVsize
p1191
I0
ssVheaders
p1192
(lp1193
sVheadersSize
p1194
I290
sVredirectURL
p1195
g4
sVbodySize
p1196
I0
sVhttpVersion
p1197
VHTTP/1.1
p1198
ssa(dp1199
Vcomment
p1200
g4
sVserverIPAddress
p1201
V172.217.6.4
p1202
sVpageref
p1203
VBentley
p1204
sVstartedDateTime
p1205
V2017-04-16T08:49:00.566-05:00
p1206
sVcache
p1207
(dp1208
sVrequest
p1209
(dp1210
Vcomment
p1211
g4
sVcookies
p1212
(lp1213
sVurl
p1214
Vhttps://www.google.com/async/lcl_akp?vet=10ahUKEwidjvP8jqnTAhXs7IMKHVn8DsoQ30oI6gEwKA..i&ved=0ahUKEwidjvP8jqnTAhXs7IMKHVn8DsoQkW0I7AEwKA&ei=SHbzWJ3KIuzZjwTZ-LvQDA&yv=2&tbs=lf_msr:-1,lf_od:-1,lf_oh:-1,lf_oa:-1,lp:-D!32200!!1!!!0!2|-S!11!0!2|-S!15!0!2|-F!4!0!3|-F!3!0!3,lf_pqs:EAE,lf:1,lf_ui:10&async=id:akp_10793295233438505531,ludocids:10793295233438505531,f:rln,ui:10,_id:p0_uid_36_SHbzWJ3KIuzZjwTZ-LvQDA,_pms:qs
p1215
sVqueryString
p1216
(lp1217
(dp1218
Vname
p1219
Vvet
p1220
sVvalue
p1221
V10ahUKEwidjvP8jqnTAhXs7IMKHVn8DsoQ30oI6gEwKA..i
p1222
sa(dp1223
Vname
p1224
Vved
p1225
sVvalue
p1226
V0ahUKEwidjvP8jqnTAhXs7IMKHVn8DsoQkW0I7AEwKA
p1227
sa(dp1228
Vname
p1229
Vei
p1230
sVvalue
p1231
VSHbzWJ3KIuzZjwTZ-LvQDA
p1232
sa(dp1233
Vname
p1234
Vyv
p1235
sVvalue
p1236
g64
sa(dp1237
Vname
p1238
Vtbs
p1239
sVvalue
p1240
Vlf_msr:-1,lf_od:-1,lf_oh:-1,lf_oa:-1,lp:-D!32200!!1!!!0!2|-S!11!0!2|-S!15!0!2|-F!4!0!3|-F!3!0!3,lf_pqs:EAE,lf:1,lf_ui:10
p1241
sa(dp1242
Vname
p1243
Vasync
p1244
sVvalue
p1245
Vid:akp_10793295233438505531,ludocids:10793295233438505531,f:rln,ui:10,_id:p0_uid_36_SHbzWJ3KIuzZjwTZ-LvQDA,_pms:qs
p1246
sasVheaders
p1247
(lp1248
sVheadersSize
p1249
I930
sVbodySize
p1250
I0
sVmethod
p1251
VGET
p1252
sVhttpVersion
p1253
VHTTP/1.1
p1254
ssVtimings
p1255
(dp1256
Vcomment
p1257
g4
sVreceive
p1258
I7
sVsend
p1259
I0
sVssl
p1260
I-1
sVconnect
p1261
I-1
sVdns
p1262
I-1
sVwait
p1263
I347
sVblocked
p1264
I-1
ssVtime
p1265
I355
sVresponse
p1266
(dp1267
Vstatus
p1268
I200
sVcomment
p1269
g4
sVcookies
p1270
(lp1271
sVstatusText
p1272
VOK
p1273
sVcontent
p1274
(dp1275
VmimeType
p1276
Vtext/html; charset=UTF-8
p1277
sVcomment
p1278
g4
sVsize
p1279
I0
ssVheaders
p1280
(lp1281
sVheadersSize
p1282
I383
sVredirectURL
p1283
g4
sVbodySize
p1284
I37258
sVhttpVersion
p1285
VHTTP/1.1
p1286
ssa(dp1287
Vcomment
p1288
g4
sVserverIPAddress
p1289
V172.217.6.4
p1290
sVpageref
p1291
VBentley
p1292
sVstartedDateTime
p1293
V2017-04-16T08:49:00.569-05:00
p1294
sVcache
p1295
(dp1296
sVrequest
p1297
(dp1298
Vcomment
p1299
g4
sVcookies
p1300
(lp1301
sVurl
p1302
Vhttps://www.google.com/async/lcl_akp?vet=10ahUKEwidjvP8jqnTAhXs7IMKHVn8DsoQ30oI9QEwKQ..i&ved=0ahUKEwidjvP8jqnTAhXs7IMKHVn8DsoQkW0I9wEwKQ&ei=SHbzWJ3KIuzZjwTZ-LvQDA&yv=2&tbs=lf_msr:-1,lf_od:-1,lf_oh:-1,lf_oa:-1,lp:-D!32200!!1!!!0!2|-S!11!0!2|-S!15!0!2|-F!4!0!3|-F!3!0!3,lf_pqs:EAE,lf:1,lf_ui:10&async=id:akp_14545990012270114737,ludocids:14545990012270114737,f:rln,ui:10,_id:p0_uid_37_SHbzWJ3KIuzZjwTZ-LvQDA,_pms:qs
p1303
sVqueryString
p1304
(lp1305
(dp1306
Vname
p1307
Vvet
p1308
sVvalue
p1309
V10ahUKEwidjvP8jqnTAhXs7IMKHVn8DsoQ30oI9QEwKQ..i
p1310
sa(dp1311
Vname
p1312
Vved
p1313
sVvalue
p1314
V0ahUKEwidjvP8jqnTAhXs7IMKHVn8DsoQkW0I9wEwKQ
p1315
sa(dp1316
Vname
p1317
Vei
p1318
sVvalue
p1319
VSHbzWJ3KIuzZjwTZ-LvQDA
p1320
sa(dp1321
Vname
p1322
Vyv
p1323
sVvalue
p1324
g64
sa(dp1325
Vname
p1326
Vtbs
p1327
sVvalue
p1328
Vlf_msr:-1,lf_od:-1,lf_oh:-1,lf_oa:-1,lp:-D!32200!!1!!!0!2|-S!11!0!2|-S!15!0!2|-F!4!0!3|-F!3!0!3,lf_pqs:EAE,lf:1,lf_ui:10
p1329
sa(dp1330
Vname
p1331
Vasync
p1332
sVvalue
p1333
Vid:akp_14545990012270114737,ludocids:14545990012270114737,f:rln,ui:10,_id:p0_uid_37_SHbzWJ3KIuzZjwTZ-LvQDA,_pms:qs
p1334
sasVheaders
p1335
(lp1336
sVheadersSize
p1337
I930
sVbodySize
p1338
I0
sVmethod
p1339
VGET
p1340
sVhttpVersion
p1341
VHTTP/1.1
p1342
ssVtimings
p1343
(dp1344
Vcomment
p1345
g4
sVreceive
p1346
I100
sVsend
p1347
I0
sVssl
p1348
I-1
sVconnect
p1349
I-1
sVdns
p1350
I-1
sVwait
p1351
I271
sVblocked
p1352
I-1
ssVtime
p1353
I372
sVresponse
p1354
(dp1355
Vstatus
p1356
I200
sVcomment
p1357
g4
sVcookies
p1358
(lp1359
sVstatusText
p1360
VOK
p1361
sVcontent
p1362
(dp1363
VmimeType
p1364
Vtext/html; charset=UTF-8
p1365
sVcomment
p1366
g4
sVsize
p1367
I0
ssVheaders
p1368
(lp1369
sVheadersSize
p1370
I383
sVredirectURL
p1371
g4
sVbodySize
p1372
I40351
sVhttpVersion
p1373
VHTTP/1.1
p1374
ssa(dp1375
Vcomment
p1376
g4
sVserverIPAddress
p1377
V172.217.0.1
p1378
sVpageref
p1379
VBentley
p1380
sVstartedDateTime
p1381
V2017-04-16T08:49:01.093-05:00
p1382
sVcache
p1383
(dp1384
sVrequest
p1385
(dp1386
Vcomment
p1387
g4
sVcookies
p1388
(lp1389
sVurl
p1390
Vhttps://amp-al-com.cdn.ampproject.org/v/amp.al.com/v1/articles/20492488/donors_to_former_gov_bentleys.amp?amp_js_v=9
p1391
sVqueryString
p1392
(lp1393
(dp1394
Vname
p1395
Vamp_js_v
p1396
sVvalue
p1397
V9
p1398
sasVheaders
p1399
(lp1400
sVheadersSize
p1401
I521
sVbodySize
p1402
I0
sVmethod
p1403
VGET
p1404
sVhttpVersion
p1405
VHTTP/1.1
p1406
ssVtimings
p1407
(dp1408
Vcomment
p1409
g4
sVreceive
p1410
I3
sVsend
p1411
I0
sVssl
p1412
I378
sVconnect
p1413
I432
sVdns
p1414
I42
sVwait
p1415
I104
sVblocked
p1416
I0
ssVtime
p1417
I581
sVresponse
p1418
(dp1419
Vstatus
p1420
I200
sVcomment
p1421
g4
sVcookies
p1422
(lp1423
sVstatusText
p1424
VOK
p1425
sVcontent
p1426
(dp1427
VmimeType
p1428
Vtext/html
p1429
sVcomment
p1430
g4
sVsize
p1431
I0
ssVheaders
p1432
(lp1433
sVheadersSize
p1434
I862
sVredirectURL
p1435
g4
sVbodySize
p1436
I13571
sVhttpVersion
p1437
VHTTP/1.1
p1438
ssa(dp1439
Vcomment
p1440
g4
sVserverIPAddress
p1441
V74.125.70.106
p1442
sVpageref
p1443
VBentley
p1444
sVstartedDateTime
p1445
V2017-04-16T08:49:01.117-05:00
p1446
sVcache
p1447
(dp1448
sVrequest
p1449
(dp1450
Vcomment
p1451
g4
sVcookies
p1452
(lp1453
sVurl
p1454
Vhttps://www.google.com/async/lcl_akp?vet=10ahUKEwidjvP8jqnTAhXs7IMKHVn8DsoQ30oI_wEwKg..i&ved=0ahUKEwidjvP8jqnTAhXs7IMKHVn8DsoQkW0IgQIwKg&ei=SHbzWJ3KIuzZjwTZ-LvQDA&yv=2&tbs=lf_msr:-1,lf_od:-1,lf_oh:-1,lf_oa:-1,lp:-D!32200!!1!!!0!2|-S!11!0!2|-S!15!0!2|-F!4!0!3|-F!3!0!3,lf_pqs:EAE,lf:1,lf_ui:10&async=id:akp_7078567121896056331,ludocids:7078567121896056331,f:rln,ui:10,_id:p0_uid_38_SHbzWJ3KIuzZjwTZ-LvQDA,_pms:qs
p1455
sVqueryString
p1456
(lp1457
(dp1458
Vname
p1459
Vvet
p1460
sVvalue
p1461
V10ahUKEwidjvP8jqnTAhXs7IMKHVn8DsoQ30oI_wEwKg..i
p1462
sa(dp1463
Vname
p1464
Vved
p1465
sVvalue
p1466
V0ahUKEwidjvP8jqnTAhXs7IMKHVn8DsoQkW0IgQIwKg
p1467
sa(dp1468
Vname
p1469
Vei
p1470
sVvalue
p1471
VSHbzWJ3KIuzZjwTZ-LvQDA
p1472
sa(dp1473
Vname
p1474
Vyv
p1475
sVvalue
p1476
g64
sa(dp1477
Vname
p1478
Vtbs
p1479
sVvalue
p1480
Vlf_msr:-1,lf_od:-1,lf_oh:-1,lf_oa:-1,lp:-D!32200!!1!!!0!2|-S!11!0!2|-S!15!0!2|-F!4!0!3|-F!3!0!3,lf_pqs:EAE,lf:1,lf_ui:10
p1481
sa(dp1482
Vname
p1483
Vasync
p1484
sVvalue
p1485
Vid:akp_7078567121896056331,ludocids:7078567121896056331,f:rln,ui:10,_id:p0_uid_38_SHbzWJ3KIuzZjwTZ-LvQDA,_pms:qs
p1486
sasVheaders
p1487
(lp1488
sVheadersSize
p1489
I928
sVbodySize
p1490
I0
sVmethod
p1491
VGET
p1492
sVhttpVersion
p1493
VHTTP/1.1
p1494
ssVtimings
p1495
(dp1496
Vcomment
p1497
g4
sVreceive
p1498
I37
sVsend
p1499
I0
sVssl
p1500
I70
sVconnect
p1501
I98
sVdns
p1502
I442
sVwait
p1503
I164
sVblocked
p1504
I0
ssVtime
p1505
I743
sVresponse
p1506
(dp1507
Vstatus
p1508
I200
sVcomment
p1509
g4
sVcookies
p1510
(lp1511
sVstatusText
p1512
VOK
p1513
sVcontent
p1514
(dp1515
VmimeType
p1516
Vtext/html; charset=UTF-8
p1517
sVcomment
p1518
g4
sVsize
p1519
I0
ssVheaders
p1520
(lp1521
sVheadersSize
p1522
I383
sVredirectURL
p1523
g4
sVbodySize
p1524
I26660
sVhttpVersion
p1525
VHTTP/1.1
p1526
ssa(dp1527
Vcomment
p1528
g4
sVserverIPAddress
p1529
V74.125.70.106
p1530
sVpageref
p1531
VBentley
p1532
sVstartedDateTime
p1533
V2017-04-16T08:49:01.123-05:00
p1534
sVcache
p1535
(dp1536
sVrequest
p1537
(dp1538
Vcomment
p1539
g4
sVcookies
p1540
(lp1541
sVurl
p1542
Vhttps://www.google.com/gen_204/local?ei=SHbzWJ3KIuzZjwTZ-LvQDA&tm_n=lrl_init&tm=6
p1543
sVqueryString
p1544
(lp1545
(dp1546
Vname
p1547
Vei
p1548
sVvalue
p1549
VSHbzWJ3KIuzZjwTZ-LvQDA
p1550
sa(dp1551
Vname
p1552
Vtm_n
p1553
sVvalue
p1554
Vlrl_init
p1555
sa(dp1556
Vname
p1557
Vtm
p1558
sVvalue
p1559
V6
p1560
sasVheaders
p1561
(lp1562
sVheadersSize
p1563
I853
sVbodySize
p1564
I0
sVmethod
p1565
VPOST
p1566
sVhttpVersion
p1567
VHTTP/1.1
p1568
ssVtimings
p1569
(dp1570
Vcomment
p1571
g4
sVreceive
p1572
I0
sVsend
p1573
I0
sVssl
p1574
I76
sVconnect
p1575
I105
sVdns
p1576
I422
sVwait
p1577
I33
sVblocked
p1578
I0
ssVtime
p1579
I561
sVresponse
p1580
(dp1581
Vstatus
p1582
I204
sVcomment
p1583
g4
sVcookies
p1584
(lp1585
sVstatusText
p1586
VNo Content
p1587
sVcontent
p1588
(dp1589
VmimeType
p1590
Vtext/html; charset=UTF-8
p1591
sVcomment
p1592
g4
sVsize
p1593
I0
ssVheaders
p1594
(lp1595
sVheadersSize
p1596
I290
sVredirectURL
p1597
g4
sVbodySize
p1598
I0
sVhttpVersion
p1599
VHTTP/1.1
p1600
ssa(dp1601
Vcomment
p1602
g4
sVserverIPAddress
p1603
V74.125.70.106
p1604
sVpageref
p1605
VBentley
p1606
sVstartedDateTime
p1607
V2017-04-16T08:49:01.124-05:00
p1608
sVcache
p1609
(dp1610
sVrequest
p1611
(dp1612
Vcomment
p1613
g4
sVcookies
p1614
(lp1615
sVurl
p1616
Vhttps://www.google.com/async/log_amp_item_set?vet=10ahUKEwjE_pz-jqnTAhXk3YMKHWhXBSEQooQBCAE..i&ei=SHbzWJ3KIuzZjwTZ-LvQDA&yv=2&async=num_items:1,_fmt:jspb
p1617
sVqueryString
p1618
(lp1619
(dp1620
Vname
p1621
Vvet
p1622
sVvalue
p1623
V10ahUKEwjE_pz-jqnTAhXk3YMKHWhXBSEQooQBCAE..i
p1624
sa(dp1625
Vname
p1626
Vei
p1627
sVvalue
p1628
VSHbzWJ3KIuzZjwTZ-LvQDA
p1629
sa(dp1630
Vname
p1631
Vyv
p1632
sVvalue
p1633
g64
sa(dp1634
Vname
p1635
Vasync
p1636
sVvalue
p1637
Vnum_items:1,_fmt:jspb
p1638
sasVheaders
p1639
(lp1640
sVheadersSize
p1641
I670
sVbodySize
p1642
I0
sVmethod
p1643
VGET
p1644
sVhttpVersion
p1645
VHTTP/1.1
p1646
ssVtimings
p1647
(dp1648
Vcomment
p1649
g4
sVreceive
p1650
I0
sVsend
p1651
I0
sVssl
p1652
I77
sVconnect
p1653
I106
sVdns
p1654
I406
sVwait
p1655
I37
sVblocked
p1656
I0
ssVtime
p1657
I550
sVresponse
p1658
(dp1659
Vstatus
p1660
I200
sVcomment
p1661
g4
sVcookies
p1662
(lp1663
sVstatusText
p1664
VOK
p1665
sVcontent
p1666
(dp1667
VmimeType
p1668
Vapplication/json; charset=UTF-8
p1669
sVcomment
p1670
g4
sVsize
p1671
I0
ssVheaders
p1672
(lp1673
sVheadersSize
p1674
I417
sVredirectURL
p1675
g4
sVbodySize
p1676
I132
sVhttpVersion
p1677
VHTTP/1.1
p1678
ssa(dp1679
Vcomment
p1680
g4
sVserverIPAddress
p1681
V74.125.70.106
p1682
sVpageref
p1683
VBentley
p1684
sVstartedDateTime
p1685
V2017-04-16T08:49:03.063-05:00
p1686
sVcache
p1687
(dp1688
sVrequest
p1689
(dp1690
Vcomment
p1691
g4
sVcookies
p1692
(lp1693
sVurl
p1694
Vhttps://www.google.com/gen_204?atyp=i&ct=slh&cad=&ei=NHbzWLDtDeXcjwTJz7qABg&m=V&t=C&s=1&v=2&pv=0.8438488909411787&me=1:1492350519255,x:1,V,0,0,1280,944:0,N,1,NHbzWLDtDeXcjwTJz7qABg:0,R,1,24,8,155,1249,398:0,R,1,26,8,155,1197,398:0,R,1,28,95,155,1024,120:0,R,1,66,8,351,1197,101:0,R,1,75,8,453,1197,100:0,R,1,85,8,563,1249,337:0,R,1,86,8,563,1249,317:0,R,1,87,8,563,1249,90:0,R,1,108,8,910,1249,445:2,B,3564:16548,e,U&zx=1492350543062
p1695
sVqueryString
p1696
(lp1697
(dp1698
Vname
p1699
Vatyp
p1700
sVvalue
p1701
g30
sa(dp1702
Vname
p1703
Vct
p1704
sVvalue
p1705
Vslh
p1706
sa(dp1707
Vname
p1708
Vcad
p1709
sVvalue
p1710
g4
sa(dp1711
Vname
p1712
Vei
p1713
sVvalue
p1714
VNHbzWLDtDeXcjwTJz7qABg
p1715
sa(dp1716
Vname
p1717
g47
sVvalue
p1718
g49
sa(dp1719
Vname
p1720
g52
sVvalue
p1721
g54
sa(dp1722
Vname
p1723
g57
sVvalue
p1724
g59
sa(dp1725
Vname
p1726
g62
sVvalue
p1727
g64
sa(dp1728
Vname
p1729
Vpv
p1730
sVvalue
p1731
V0.8438488909411787
p1732
sa(dp1733
Vname
p1734
Vme
p1735
sVvalue
p1736
V1:1492350519255,x:1,V,0,0,1280,944:0,N,1,NHbzWLDtDeXcjwTJz7qABg:0,R,1,24,8,155,1249,398:0,R,1,26,8,155,1197,398:0,R,1,28,95,155,1024,120:0,R,1,66,8,351,1197,101:0,R,1,75,8,453,1197,100:0,R,1,85,8,563,1249,337:0,R,1,86,8,563,1249,317:0,R,1,87,8,563,1249,90:0,R,1,108,8,910,1249,445:2,B,3564:16548,e,U
p1737
sa(dp1738
Vname
p1739
Vzx
p1740
sVvalue
p1741
V1492350543062
p1742
sasVheaders
p1743
(lp1744
sVheadersSize
p1745
I950
sVbodySize
p1746
I0
sVmethod
p1747
VGET
p1748
sVhttpVersion
p1749
VHTTP/1.1
p1750
ssVtimings
p1751
(dp1752
Vcomment
p1753
g4
sVreceive
p1754
I0
sVsend
p1755
I0
sVssl
p1756
I-1
sVconnect
p1757
I-1
sVdns
p1758
I-1
sVwait
p1759
I29
sVblocked
p1760
I-1
ssVtime
p1761
I29
sVresponse
p1762
(dp1763
Vstatus
p1764
I204
sVcomment
p1765
g4
sVcookies
p1766
(lp1767
sVstatusText
p1768
VNo Content
p1769
sVcontent
p1770
(dp1771
VmimeType
p1772
Vtext/html; charset=UTF-8
p1773
sVcomment
p1774
g4
sVsize
p1775
I0
ssVheaders
p1776
(lp1777
sVheadersSize
p1778
I248
sVredirectURL
p1779
g4
sVbodySize
p1780
I0
sVhttpVersion
p1781
VHTTP/1.1
p1782
ssa(dp1783
Vcomment
p1784
g4
sVserverIPAddress
p1785
V74.125.70.106
p1786
sVpageref
p1787
VBentley
p1788
sVstartedDateTime
p1789
V2017-04-16T08:49:03.100-05:00
p1790
sVcache
p1791
(dp1792
sVrequest
p1793
(dp1794
Vcomment
p1795
g4
sVcookies
p1796
(lp1797
sVurl
p1798
Vhttps://www.google.com/maps/vt/data=RfCSdfNZ0LFPrHSm0ublXdzhdrDFhtmHhN1u-gM,XydToB0kPsk-VecHGtOYZ-9YHyuJNJvCCRxHaLOHXwdCYD57Rmp6eSiw-sMnEFj9rk00MnWmGw8kFump5pMZ-ocjcd7GmKZmpZ2TZqDQVKV-gMqT2txh0ie4xxMiwDTFyeg6HJmbXtiRmzVNDLnrhOHEgTi6pEAAyJcUNg0eMvIgX-I1MZ18lq1PE0yNnYvjgZyxc53zt2EAdhZeZ6RPNf1VqU4yXcUZH0U1k-3YPhOMTGLrUmSt2Bicw71Q91ivxWbgiGnr9UlD0mfeyvOIdINu_EbE639YSSlXkBdxAW1j5lxpm10RhCgw4HkMrOqCXnC-msKru0PvIiYFUa8sW54pOUHw9i2Zdvz_6Z71Z5GVy83dI_lf8Ag6fj3BCqzrrF_HucyL1mu_lzLGjJp30PGUYCG3AHSNUqib4YBMJ7gU-di9DRhP8cODqEHiDCt4_2j1tk5sz_jd6i0W_1dEgllW--T7Jmi4ogoIkQ,swES-JbB3NYka1H69BK05ngjxY8?h=120&w=1265&scale=1
p1799
sVqueryString
p1800
(lp1801
(dp1802
Vname
p1803
Vh
p1804
sVvalue
p1805
V120
p1806
sa(dp1807
Vname
p1808
Vw
p1809
sVvalue
p1810
V1265
p1811
sa(dp1812
Vname
p1813
Vscale
p1814
sVvalue
p1815
g59
sasVheaders
p1816
(lp1817
sVheadersSize
p1818
I1128
sVbodySize
p1819
I0
sVmethod
p1820
VGET
p1821
sVhttpVersion
p1822
VHTTP/1.1
p1823
ssVtimings
p1824
(dp1825
Vcomment
p1826
g4
sVreceive
p1827
I1
sVsend
p1828
I0
sVssl
p1829
I-1
sVconnect
p1830
I-1
sVdns
p1831
I-1
sVwait
p1832
I65
sVblocked
p1833
I-1
ssVtime
p1834
I67
sVresponse
p1835
(dp1836
Vstatus
p1837
I200
sVcomment
p1838
g4
sVcookies
p1839
(lp1840
sVstatusText
p1841
VOK
p1842
sVcontent
p1843
(dp1844
VmimeType
p1845
Vimage/png
p1846
sVcomment
p1847
g4
sVsize
p1848
I0
ssVheaders
p1849
(lp1850
sVheadersSize
p1851
I479
sVredirectURL
p1852
g4
sVbodySize
p1853
I24388
sVhttpVersion
p1854
VHTTP/1.1
p1855
ssa(dp1856
Vcomment
p1857
g4
sVserverIPAddress
p1858
V74.125.70.106
p1859
sVpageref
p1860
VBentley
p1861
sVstartedDateTime
p1862
V2017-04-16T08:49:03.102-05:00
p1863
sVcache
p1864
(dp1865
sVrequest
p1866
(dp1867
Vcomment
p1868
g4
sVcookies
p1869
(lp1870
sVurl
p1871
Vhttps://www.google.com/maps/vt/data=RfCSdfNZ0LFPrHSm0ublXdzhdrDFhtmHhN1u-gM,XydToB0kPsk-VecHGtOYZ-9YHyuJNJvCCRxHaLOHXwdCYD57Rmp6eSiw-sMnEFj9rk00MnWmGw8kFump5pMZ-ocjcd7GmKZmpZ2TZqDQVKV-gMqT2txh0ie4xxMiwDTFyeg6HJmbXtiRmzVNDLnrhOHEgTi6pEAAyJcUNg0eMvIgX-I1MZ18lq1PE0yNnYvjgZyxc53zt2EAdhZeZ6RPNf1VqU4yXcUZH0U1k-3YPhOMTGLrUmSt2Bicw71Q91ivxWbgiGnr9UlD0mfeyvOIdINu_EbE639YSSlXkBdxAW1j5lxpm10RhCgw4HkMrOqCXnC-msKru0PvIiYFUa8sW54pOUHw9i2Zdvz_6Z71Z5GVy83dI_lf8Ag6fj3BCqzrrF_HucyL1mu_lzLGjJp30PGUYCG3AHSNUqib4YBMJ7gU-di9DRhP8cODqEHiDCt4_2j1tk5sz_jd6i0W_1dEgllW--T7Jmi4ogoIkQ,spt0xCSy-wzxzCsmYH6q-6Xav2E?h=120&w=1024&scale=2
p1872
sVqueryString
p1873
(lp1874
(dp1875
Vname
p1876
g1804
sVvalue
p1877
V120
p1878
sa(dp1879
Vname
p1880
g1809
sVvalue
p1881
V1024
p1882
sa(dp1883
Vname
p1884
Vscale
p1885
sVvalue
p1886
g64
sasVheaders
p1887
(lp1888
sVheadersSize
p1889
I1128
sVbodySize
p1890
I0
sVmethod
p1891
VGET
p1892
sVhttpVersion
p1893
VHTTP/1.1
p1894
ssVtimings
p1895
(dp1896
Vcomment
p1897
g4
sVreceive
p1898
I11
sVsend
p1899
I0
sVssl
p1900
I-1
sVconnect
p1901
I-1
sVdns
p1902
I-1
sVwait
p1903
I74
sVblocked
p1904
I-1
ssVtime
p1905
I86
sVresponse
p1906
(dp1907
Vstatus
p1908
I200
sVcomment
p1909
g4
sVcookies
p1910
(lp1911
sVstatusText
p1912
VOK
p1913
sVcontent
p1914
(dp1915
VmimeType
p1916
Vimage/png
p1917
sVcomment
p1918
g4
sVsize
p1919
I0
ssVheaders
p1920
(lp1921
sVheadersSize
p1922
I479
sVredirectURL
p1923
g4
sVbodySize
p1924
I20435
sVhttpVersion
p1925
VHTTP/1.1
p1926
ssa(dp1927
Vcomment
p1928
g4
sVserverIPAddress
p1929
V74.125.70.106
p1930
sVpageref
p1931
VBentley
p1932
sVstartedDateTime
p1933
V2017-04-16T08:49:03.107-05:00
p1934
sVcache
p1935
(dp1936
sVrequest
p1937
(dp1938
Vcomment
p1939
g4
sVcookies
p1940
(lp1941
sVurl
p1942
Vhttps://www.google.com/xjs/_/js/k=xjs.qs.en_US.pCBXVCvTH3s.O/m=syi0,cpn,sy80,sy7m,sy8l,sy84,sy7r,sy7v,sy8q,sy7x,sy86,sy8k,sy8t,sy7g,sy9u,sy7n,sy3b,sycx,syew,syi6,syi9,syi7,syi8,syia,hcar,sy6a,sy6b,kch,sy6d,ltgt,syim,lubh,lurq,lusa,mmt,mpc,pv,sya0,syig,syif,syih,sttu,uvl/am=gCP4LtMEBXQA2RUaq_oFBISzAFA/rt=j/d=0/t=zcms/rs=ACT90oFwm4NZCwIcuuiqmthdlECdBzkhRA
p1943
sVqueryString
p1944
(lp1945
sVheaders
p1946
(lp1947
sVheadersSize
p1948
I872
sVbodySize
p1949
I0
sVmethod
p1950
VGET
p1951
sVhttpVersion
p1952
VHTTP/1.1
p1953
ssVtimings
p1954
(dp1955
Vcomment
p1956
g4
sVreceive
p1957
I18
sVsend
p1958
I0
sVssl
p1959
I-1
sVconnect
p1960
I-1
sVdns
p1961
I-1
sVwait
p1962
I54
sVblocked
p1963
I-1
ssVtime
p1964
I73
sVresponse
p1965
(dp1966
Vstatus
p1967
I200
sVcomment
p1968
g4
sVcookies
p1969
(lp1970
sVstatusText
p1971
VOK
p1972
sVcontent
p1973
(dp1974
VmimeType
p1975
Vtext/javascript; charset=UTF-8
p1976
sVcomment
p1977
g4
sVsize
p1978
I0
ssVheaders
p1979
(lp1980
sVheadersSize
p1981
I451
sVredirectURL
p1982
g4
sVbodySize
p1983
I34764
sVhttpVersion
p1984
VHTTP/1.1
p1985
ssa(dp1986
Vcomment
p1987
g4
sVserverIPAddress
p1988
V172.217.0.1
p1989
sVpageref
p1990
VBentley
p1991
sVstartedDateTime
p1992
V2017-04-16T08:49:03.616-05:00
p1993
sVcache
p1994
(dp1995
sVrequest
p1996
(dp1997
Vcomment
p1998
g4
sVcookies
p1999
(lp2000
sVurl
p2001
Vhttps://static-advance-net.cdn.ampproject.org/i/static.advance.net/static/bama/static/img/logos/logo_full.svg
p2002
sVqueryString
p2003
(lp2004
sVheaders
p2005
(lp2006
sVheadersSize
p2007
I517
sVbodySize
p2008
I0
sVmethod
p2009
VGET
p2010
sVhttpVersion
p2011
VHTTP/1.1
p2012
ssVtimings
p2013
(dp2014
Vcomment
p2015
g4
sVreceive
p2016
I0
sVsend
p2017
I0
sVssl
p2018
I439
sVconnect
p2019
I466
sVdns
p2020
I36
sVwait
p2021
I32
sVblocked
p2022
I0
ssVtime
p2023
I535
sVresponse
p2024
(dp2025
Vstatus
p2026
I200
sVcomment
p2027
g4
sVcookies
p2028
(lp2029
sVstatusText
p2030
VOK
p2031
sVcontent
p2032
(dp2033
VmimeType
p2034
Vimage/svg+xml
p2035
sVcomment
p2036
g4
sVsize
p2037
I0
ssVheaders
p2038
(lp2039
sVheadersSize
p2040
I878
sVredirectURL
p2041
g4
sVbodySize
p2042
I701
sVhttpVersion
p2043
VHTTP/1.1
p2044
ssa(dp2045
Vcomment
p2046
g4
sVserverIPAddress
p2047
V74.125.70.106
p2048
sVpageref
p2049
VBentley
p2050
sVstartedDateTime
p2051
V2017-04-16T08:49:03.799-05:00
p2052
sVcache
p2053
(dp2054
sVrequest
p2055
(dp2056
Vcomment
p2057
g4
sVcookies
p2058
(lp2059
sVurl
p2060
Vhttps://www.google.com/gen_204/local?ei=SHbzWJ3KIuzZjwTZ-LvQDA&tm_n=lcsm&tm=306
p2061
sVqueryString
p2062
(lp2063
(dp2064
Vname
p2065
Vei
p2066
sVvalue
p2067
VSHbzWJ3KIuzZjwTZ-LvQDA
p2068
sa(dp2069
Vname
p2070
Vtm_n
p2071
sVvalue
p2072
Vlcsm
p2073
sa(dp2074
Vname
p2075
Vtm
p2076
sVvalue
p2077
V306
p2078
sasVheaders
p2079
(lp2080
sVheadersSize
p2081
I851
sVbodySize
p2082
I0
sVmethod
p2083
VPOST
p2084
sVhttpVersion
p2085
VHTTP/1.1
p2086
ssVtimings
p2087
(dp2088
Vcomment
p2089
g4
sVreceive
p2090
I0
sVsend
p2091
I0
sVssl
p2092
I-1
sVconnect
p2093
I-1
sVdns
p2094
I-1
sVwait
p2095
I35
sVblocked
p2096
I-1
ssVtime
p2097
I35
sVresponse
p2098
(dp2099
Vstatus
p2100
I204
sVcomment
p2101
g4
sVcookies
p2102
(lp2103
sVstatusText
p2104
VNo Content
p2105
sVcontent
p2106
(dp2107
VmimeType
p2108
Vtext/html; charset=UTF-8
p2109
sVcomment
p2110
g4
sVsize
p2111
I0
ssVheaders
p2112
(lp2113
sVheadersSize
p2114
I290
sVredirectURL
p2115
g4
sVbodySize
p2116
I0
sVhttpVersion
p2117
VHTTP/1.1
p2118
ssa(dp2119
Vcomment
p2120
g4
sVserverIPAddress
p2121
V216.58.216.193
p2122
sVpageref
p2123
VBentley
p2124
sVstartedDateTime
p2125
V2017-04-16T08:49:03.804-05:00
p2126
sVcache
p2127
(dp2128
sVrequest
p2129
(dp2130
Vcomment
p2131
g4
sVcookies
p2132
(lp2133
sVurl
p2134
Vhttps://media-al-com.cdn.ampproject.org/i/media.al.com/alphotos/photo/2016/03/31/-e0d5132103f34093.JPG
p2135
sVqueryString
p2136
(lp2137
sVheaders
p2138
(lp2139
sVheadersSize
p2140
I510
sVbodySize
p2141
I0
sVmethod
p2142
VGET
p2143
sVhttpVersion
p2144
VHTTP/1.1
p2145
ssVtimings
p2146
(dp2147
Vcomment
p2148
g4
sVreceive
p2149
I87
sVsend
p2150
I0
sVssl
p2151
I395
sVconnect
p2152
I414
sVdns
p2153
I51
sVwait
p2154
I88
sVblocked
p2155
I0
ssVtime
p2156
I642
sVresponse
p2157
(dp2158
Vstatus
p2159
I200
sVcomment
p2160
g4
sVcookies
p2161
(lp2162
sVstatusText
p2163
VOK
p2164
sVcontent
p2165
(dp2166
VmimeType
p2167
Vimage/jpeg
p2168
sVcomment
p2169
g4
sVsize
p2170
I0
ssVheaders
p2171
(lp2172
sVheadersSize
p2173
I845
sVredirectURL
p2174
g4
sVbodySize
p2175
I89270
sVhttpVersion
p2176
VHTTP/1.1
p2177
ssa(dp2178
Vcomment
p2179
g4
sVserverIPAddress
p2180
V216.58.216.193
p2181
sVpageref
p2182
VBentley
p2183
sVstartedDateTime
p2184
V2017-04-16T08:49:03.804-05:00
p2185
sVcache
p2186
(dp2187
sVrequest
p2188
(dp2189
Vcomment
p2190
g4
sVcookies
p2191
(lp2192
sVurl
p2193
Vhttps://media-al-com.cdn.ampproject.org/ii/w1200/media.al.com/alphotos/photo/2016/03/29/-284a87f7f7f1708a.JPG
p2194
sVqueryString
p2195
(lp2196
sVheaders
p2197
(lp2198
sVheadersSize
p2199
I517
sVbodySize
p2200
I0
sVmethod
p2201
VGET
p2202
sVhttpVersion
p2203
VHTTP/1.1
p2204
ssVtimings
p2205
(dp2206
Vcomment
p2207
g4
sVreceive
p2208
I15
sVsend
p2209
I0
sVssl
p2210
I399
sVconnect
p2211
I417
sVdns
p2212
I45
sVwait
p2213
I48
sVblocked
p2214
I0
ssVtime
p2215
I527
sVresponse
p2216
(dp2217
Vstatus
p2218
I200
sVcomment
p2219
g4
sVcookies
p2220
(lp2221
sVstatusText
p2222
VOK
p2223
sVcontent
p2224
(dp2225
VmimeType
p2226
Vimage/jpeg
p2227
sVcomment
p2228
g4
sVsize
p2229
I0
ssVheaders
p2230
(lp2231
sVheadersSize
p2232
I845
sVredirectURL
p2233
g4
sVbodySize
p2234
I24270
sVhttpVersion
p2235
VHTTP/1.1
p2236
ssa(dp2237
Vcomment
p2238
g4
sVserverIPAddress
p2239
V216.58.216.193
p2240
sVpageref
p2241
VBentley
p2242
sVstartedDateTime
p2243
V2017-04-16T08:49:03.816-05:00
p2244
sVcache
p2245
(dp2246
sVrequest
p2247
(dp2248
Vcomment
p2249
g4
sVcookies
p2250
(lp2251
sVurl
p2252
Vhttps://media-al-com.cdn.ampproject.org/i/media.al.com/alphotos/photo/2016/03/23/-61c2b1f0f8eb7602.JPG
p2253
sVqueryString
p2254
(lp2255
sVheaders
p2256
(lp2257
sVheadersSize
p2258
I510
sVbodySize
p2259
I0
sVmethod
p2260
VGET
p2261
sVhttpVersion
p2262
VHTTP/1.1
p2263
ssVtimings
p2264
(dp2265
Vcomment
p2266
g4
sVreceive
p2267
I46
sVsend
p2268
I0
sVssl
p2269
I410
sVconnect
p2270
I425
sVdns
p2271
I51
sVwait
p2272
I89
sVblocked
p2273
I0
ssVtime
p2274
I613
sVresponse
p2275
(dp2276
Vstatus
p2277
I200
sVcomment
p2278
g4
sVcookies
p2279
(lp2280
sVstatusText
p2281
VOK
p2282
sVcontent
p2283
(dp2284
VmimeType
p2285
Vimage/jpeg
p2286
sVcomment
p2287
g4
sVsize
p2288
I0
ssVheaders
p2289
(lp2290
sVheadersSize
p2291
I845
sVredirectURL
p2292
g4
sVbodySize
p2293
I55205
sVhttpVersion
p2294
VHTTP/1.1
p2295
ssa(dp2296
Vcomment
p2297
g4
sVserverIPAddress
p2298
V216.58.216.193
p2299
sVpageref
p2300
VBentley
p2301
sVstartedDateTime
p2302
V2017-04-16T08:49:03.816-05:00
p2303
sVcache
p2304
(dp2305
sVrequest
p2306
(dp2307
Vcomment
p2308
g4
sVcookies
p2309
(lp2310
sVurl
p2311
Vhttps://media-al-com.cdn.ampproject.org/i/media.al.com/alphotos/photo/2016/03/23/-b66813ae9bb79968.JPG
p2312
sVqueryString
p2313
(lp2314
sVheaders
p2315
(lp2316
sVheadersSize
p2317
I510
sVbodySize
p2318
I0
sVmethod
p2319
VGET
p2320
sVhttpVersion
p2321
VHTTP/1.1
p2322
ssVtimings
p2323
(dp2324
Vcomment
p2325
g4
sVreceive
p2326
I69
sVsend
p2327
I0
sVssl
p2328
I402
sVconnect
p2329
I426
sVdns
p2330
I37
sVwait
p2331
I92
sVblocked
p2332
I0
ssVtime
p2333
I626
sVresponse
p2334
(dp2335
Vstatus
p2336
I200
sVcomment
p2337
g4
sVcookies
p2338
(lp2339
sVstatusText
p2340
VOK
p2341
sVcontent
p2342
(dp2343
VmimeType
p2344
Vimage/jpeg
p2345
sVcomment
p2346
g4
sVsize
p2347
I0
ssVheaders
p2348
(lp2349
sVheadersSize
p2350
I845
sVredirectURL
p2351
g4
sVbodySize
p2352
I61773
sVhttpVersion
p2353
VHTTP/1.1
p2354
ssa(dp2355
Vcomment
p2356
g4
sVserverIPAddress
p2357
V216.58.216.193
p2358
sVpageref
p2359
VBentley
p2360
sVstartedDateTime
p2361
V2017-04-16T08:49:03.816-05:00
p2362
sVcache
p2363
(dp2364
sVrequest
p2365
(dp2366
Vcomment
p2367
g4
sVcookies
p2368
(lp2369
sVurl
p2370
Vhttps://media-al-com.cdn.ampproject.org/i/media.al.com/alphotos/photo/2016/03/23/-28e3f63c06b091da.JPG
p2371
sVqueryString
p2372
(lp2373
sVheaders
p2374
(lp2375
sVheadersSize
p2376
I510
sVbodySize
p2377
I0
sVmethod
p2378
VGET
p2379
sVhttpVersion
p2380
VHTTP/1.1
p2381
ssVtimings
p2382
(dp2383
Vcomment
p2384
g4
sVreceive
p2385
I48
sVsend
p2386
I0
sVssl
p2387
I413
sVconnect
p2388
I431
sVdns
p2389
I35
sVwait
p2390
I87
sVblocked
p2391
I0
ssVtime
p2392
I602
sVresponse
p2393
(dp2394
Vstatus
p2395
I200
sVcomment
p2396
g4
sVcookies
p2397
(lp2398
sVstatusText
p2399
VOK
p2400
sVcontent
p2401
(dp2402
VmimeType
p2403
Vimage/jpeg
p2404
sVcomment
p2405
g4
sVsize
p2406
I0
ssVheaders
p2407
(lp2408
sVheadersSize
p2409
I845
sVredirectURL
p2410
g4
sVbodySize
p2411
I54991
sVhttpVersion
p2412
VHTTP/1.1
p2413
ssa(dp2414
Vcomment
p2415
g4
sVserverIPAddress
p2416
V216.58.216.193
p2417
sVpageref
p2418
VBentley
p2419
sVstartedDateTime
p2420
V2017-04-16T08:49:03.817-05:00
p2421
sVcache
p2422
(dp2423
sVrequest
p2424
(dp2425
Vcomment
p2426
g4
sVcookies
p2427
(lp2428
sVurl
p2429
Vhttps://media-al-com.cdn.ampproject.org/ii/w1200/media.al.com/alphotos/photo/2016/03/29/-1f239983ae5de202.JPG
p2430
sVqueryString
p2431
(lp2432
sVheaders
p2433
(lp2434
sVheadersSize
p2435
I517
sVbodySize
p2436
I0
sVmethod
p2437
VGET
p2438
sVhttpVersion
p2439
VHTTP/1.1
p2440
ssVtimings
p2441
(dp2442
Vcomment
p2443
g4
sVreceive
p2444
I27
sVsend
p2445
I0
sVssl
p2446
I177
sVconnect
p2447
I200
sVdns
p2448
I0
sVwait
p2449
I57
sVblocked
p2450
I0
ssVtime
p2451
I285
sVresponse
p2452
(dp2453
Vstatus
p2454
I200
sVcomment
p2455
g4
sVcookies
p2456
(lp2457
sVstatusText
p2458
VOK
p2459
sVcontent
p2460
(dp2461
VmimeType
p2462
Vimage/jpeg
p2463
sVcomment
p2464
g4
sVsize
p2465
I0
ssVheaders
p2466
(lp2467
sVheadersSize
p2468
I845
sVredirectURL
p2469
g4
sVbodySize
p2470
I40889
sVhttpVersion
p2471
VHTTP/1.1
p2472
ssa(dp2473
Vcomment
p2474
g4
sVserverIPAddress
p2475
V172.217.0.1
p2476
sVpageref
p2477
VBentley
p2478
sVstartedDateTime
p2479
V2017-04-16T08:49:03.822-05:00
p2480
sVcache
p2481
(dp2482
sVrequest
p2483
(dp2484
Vcomment
p2485
g4
sVcookies
p2486
(lp2487
sVurl
p2488
Vhttps://media-advance-net.cdn.ampproject.org/i/media.advance.net/avatars/39/28.png
p2489
sVqueryString
p2490
(lp2491
sVheaders
p2492
(lp2493
sVheadersSize
p2494
I490
sVbodySize
p2495
I0
sVmethod
p2496
VGET
p2497
sVhttpVersion
p2498
VHTTP/1.1
p2499
ssVtimings
p2500
(dp2501
Vcomment
p2502
g4
sVreceive
p2503
I0
sVsend
p2504
I0
sVssl
p2505
I645
sVconnect
p2506
I666
sVdns
p2507
I34
sVwait
p2508
I30
sVblocked
p2509
I0
ssVtime
p2510
I732
sVresponse
p2511
(dp2512
Vstatus
p2513
I200
sVcomment
p2514
g4
sVcookies
p2515
(lp2516
sVstatusText
p2517
VOK
p2518
sVcontent
p2519
(dp2520
VmimeType
p2521
Vimage/jpeg
p2522
sVcomment
p2523
g4
sVsize
p2524
I0
ssVheaders
p2525
(lp2526
sVheadersSize
p2527
I844
sVredirectURL
p2528
g4
sVbodySize
p2529
I6614
sVhttpVersion
p2530
VHTTP/1.1
p2531
ssa(dp2532
Vcomment
p2533
g4
sVserverIPAddress
p2534
V216.58.216.193
p2535
sVpageref
p2536
VBentley
p2537
sVstartedDateTime
p2538
V2017-04-16T08:49:03.870-05:00
p2539
sVcache
p2540
(dp2541
sVrequest
p2542
(dp2543
Vcomment
p2544
g4
sVcookies
p2545
(lp2546
sVurl
p2547
Vhttps://media-al-com.cdn.ampproject.org/ii/w1200/media.al.com/news_impact/photo/jon-mason-df86aa38fd38346e.jpg
p2548
sVqueryString
p2549
(lp2550
sVheaders
p2551
(lp2552
sVheadersSize
p2553
I518
sVbodySize
p2554
I0
sVmethod
p2555
VGET
p2556
sVhttpVersion
p2557
VHTTP/1.1
p2558
ssVtimings
p2559
(dp2560
Vcomment
p2561
g4
sVreceive
p2562
I43
sVsend
p2563
I0
sVssl
p2564
I-1
sVconnect
p2565
I-1
sVdns
p2566
I-1
sVwait
p2567
I68
sVblocked
p2568
I-1
ssVtime
p2569
I112
sVresponse
p2570
(dp2571
Vstatus
p2572
I200
sVcomment
p2573
g4
sVcookies
p2574
(lp2575
sVstatusText
p2576
VOK
p2577
sVcontent
p2578
(dp2579
VmimeType
p2580
Vimage/jpeg
p2581
sVcomment
p2582
g4
sVsize
p2583
I0
ssVheaders
p2584
(lp2585
sVheadersSize
p2586
I845
sVredirectURL
p2587
g4
sVbodySize
p2588
I59145
sVhttpVersion
p2589
VHTTP/1.1
p2590
ssa(dp2591
Vcomment
p2592
g4
sVserverIPAddress
p2593
V216.58.216.193
p2594
sVpageref
p2595
VBentley
p2596
sVstartedDateTime
p2597
V2017-04-16T08:49:03.904-05:00
p2598
sVcache
p2599
(dp2600
sVrequest
p2601
(dp2602
Vcomment
p2603
g4
sVcookies
p2604
(lp2605
sVurl
p2606
Vhttps://media-al-com.cdn.ampproject.org/ii/w1200/media.al.com/alphotos/photo/2016/03/31/rebekah-and-jon-mason-210cd163980a821d.jpg
p2607
sVqueryString
p2608
(lp2609
sVheaders
p2610
(lp2611
sVheadersSize
p2612
I538
sVbodySize
p2613
I0
sVmethod
p2614
VGET
p2615
sVhttpVersion
p2616
VHTTP/1.1
p2617
ssVtimings
p2618
(dp2619
Vcomment
p2620
g4
sVreceive
p2621
I4
sVsend
p2622
I0
sVssl
p2623
I-1
sVconnect
p2624
I-1
sVdns
p2625
I-1
sVwait
p2626
I56
sVblocked
p2627
I-1
ssVtime
p2628
I60
sVresponse
p2629
(dp2630
Vstatus
p2631
I200
sVcomment
p2632
g4
sVcookies
p2633
(lp2634
sVstatusText
p2635
VOK
p2636
sVcontent
p2637
(dp2638
VmimeType
p2639
Vimage/jpeg
p2640
sVcomment
p2641
g4
sVsize
p2642
I0
ssVheaders
p2643
(lp2644
sVheadersSize
p2645
I845
sVredirectURL
p2646
g4
sVbodySize
p2647
I27135
sVhttpVersion
p2648
VHTTP/1.1
p2649
ssa(dp2650
Vcomment
p2651
g4
sVserverIPAddress
p2652
V216.58.216.193
p2653
sVpageref
p2654
VBentley
p2655
sVstartedDateTime
p2656
V2017-04-16T08:49:03.954-05:00
p2657
sVcache
p2658
(dp2659
sVrequest
p2660
(dp2661
Vcomment
p2662
g4
sVcookies
p2663
(lp2664
sVurl
p2665
Vhttps://media-al-com.cdn.ampproject.org/i/media.al.com/alphotos/photo/2016/03/23/-ef39ed5578b54ec8.JPG
p2666
sVqueryString
p2667
(lp2668
sVheaders
p2669
(lp2670
sVheadersSize
p2671
I510
sVbodySize
p2672
I0
sVmethod
p2673
VGET
p2674
sVhttpVersion
p2675
VHTTP/1.1
p2676
ssVtimings
p2677
(dp2678
Vcomment
p2679
g4
sVreceive
p2680
I42
sVsend
p2681
I0
sVssl
p2682
I-1
sVconnect
p2683
I-1
sVdns
p2684
I-1
sVwait
p2685
I88
sVblocked
p2686
I-1
ssVtime
p2687
I131
sVresponse
p2688
(dp2689
Vstatus
p2690
I200
sVcomment
p2691
g4
sVcookies
p2692
(lp2693
sVstatusText
p2694
VOK
p2695
sVcontent
p2696
(dp2697
VmimeType
p2698
Vimage/jpeg
p2699
sVcomment
p2700
g4
sVsize
p2701
I0
ssVheaders
p2702
(lp2703
sVheadersSize
p2704
I845
sVredirectURL
p2705
g4
sVbodySize
p2706
I57744
sVhttpVersion
p2707
VHTTP/1.1
p2708
ssa(dp2709
Vcomment
p2710
g4
sVserverIPAddress
p2711
V216.58.216.193
p2712
sVpageref
p2713
VBentley
p2714
sVstartedDateTime
p2715
V2017-04-16T08:49:03.955-05:00
p2716
sVcache
p2717
(dp2718
sVrequest
p2719
(dp2720
Vcomment
p2721
g4
sVcookies
p2722
(lp2723
sVurl
p2724
Vhttps://media-al-com.cdn.ampproject.org/i/media.al.com/alphotos/photo/2016/03/23/-e5982dc1b2415b62.JPG
p2725
sVqueryString
p2726
(lp2727
sVheaders
p2728
(lp2729
sVheadersSize
p2730
I510
sVbodySize
p2731
I0
sVmethod
p2732
VGET
p2733
sVhttpVersion
p2734
VHTTP/1.1
p2735
ssVtimings
p2736
(dp2737
Vcomment
p2738
g4
sVreceive
p2739
I31
sVsend
p2740
I0
sVssl
p2741
I-1
sVconnect
p2742
I-1
sVdns
p2743
I-1
sVwait
p2744
I103
sVblocked
p2745
I-1
ssVtime
p2746
I135
sVresponse
p2747
(dp2748
Vstatus
p2749
I200
sVcomment
p2750
g4
sVcookies
p2751
(lp2752
sVstatusText
p2753
VOK
p2754
sVcontent
p2755
(dp2756
VmimeType
p2757
Vimage/jpeg
p2758
sVcomment
p2759
g4
sVsize
p2760
I0
ssVheaders
p2761
(lp2762
sVheadersSize
p2763
I845
sVredirectURL
p2764
g4
sVbodySize
p2765
I73283
sVhttpVersion
p2766
VHTTP/1.1
p2767
ssa(dp2768
Vcomment
p2769
g4
sVserverIPAddress
p2770
V216.58.216.193
p2771
sVpageref
p2772
VBentley
p2773
sVstartedDateTime
p2774
V2017-04-16T08:49:03.967-05:00
p2775
sVcache
p2776
(dp2777
sVrequest
p2778
(dp2779
Vcomment
p2780
g4
sVcookies
p2781
(lp2782
sVurl
p2783
Vhttps://media-al-com.cdn.ampproject.org/i/media.al.com/alphotos/photo/2016/01/05/-5eb0c5c458919d0c.JPG
p2784
sVqueryString
p2785
(lp2786
sVheaders
p2787
(lp2788
sVheadersSize
p2789
I510
sVbodySize
p2790
I0
sVmethod
p2791
VGET
p2792
sVhttpVersion
p2793
VHTTP/1.1
p2794
ssVtimings
p2795
(dp2796
Vcomment
p2797
g4
sVreceive
p2798
I37
sVsend
p2799
I0
sVssl
p2800
I-1
sVconnect
p2801
I-1
sVdns
p2802
I-1
sVwait
p2803
I106
sVblocked
p2804
I-1
ssVtime
p2805
I144
sVresponse
p2806
(dp2807
Vstatus
p2808
I200
sVcomment
p2809
g4
sVcookies
p2810
(lp2811
sVstatusText
p2812
VOK
p2813
sVcontent
p2814
(dp2815
VmimeType
p2816
Vimage/jpeg
p2817
sVcomment
p2818
g4
sVsize
p2819
I0
ssVheaders
p2820
(lp2821
sVheadersSize
p2822
I845
sVredirectURL
p2823
g4
sVbodySize
p2824
I93064
sVhttpVersion
p2825
VHTTP/1.1
p2826
ssa(dp2827
Vcomment
p2828
g4
sVserverIPAddress
p2829
V216.58.216.193
p2830
sVpageref
p2831
VBentley
p2832
sVstartedDateTime
p2833
V2017-04-16T08:49:03.982-05:00
p2834
sVcache
p2835
(dp2836
sVrequest
p2837
(dp2838
Vcomment
p2839
g4
sVcookies
p2840
(lp2841
sVurl
p2842
Vhttps://media-al-com.cdn.ampproject.org/i/media.al.com/alphotos/photo/2016/01/05/-bf28aa0a488649de.JPG
p2843
sVqueryString
p2844
(lp2845
sVheaders
p2846
(lp2847
sVheadersSize
p2848
I510
sVbodySize
p2849
I0
sVmethod
p2850
VGET
p2851
sVhttpVersion
p2852
VHTTP/1.1
p2853
ssVtimings
p2854
(dp2855
Vcomment
p2856
g4
sVreceive
p2857
I22
sVsend
p2858
I0
sVssl
p2859
I-1
sVconnect
p2860
I-1
sVdns
p2861
I-1
sVwait
p2862
I93
sVblocked
p2863
I-1
ssVtime
p2864
I116
sVresponse
p2865
(dp2866
Vstatus
p2867
I200
sVcomment
p2868
g4
sVcookies
p2869
(lp2870
sVstatusText
p2871
VOK
p2872
sVcontent
p2873
(dp2874
VmimeType
p2875
Vimage/jpeg
p2876
sVcomment
p2877
g4
sVsize
p2878
I0
ssVheaders
p2879
(lp2880
sVheadersSize
p2881
I845
sVredirectURL
p2882
g4
sVbodySize
p2883
I62978
sVhttpVersion
p2884
VHTTP/1.1
p2885
ssa(dp2886
Vcomment
p2887
g4
sVserverIPAddress
p2888
V216.58.216.193
p2889
sVpageref
p2890
VBentley
p2891
sVstartedDateTime
p2892
V2017-04-16T08:49:03.983-05:00
p2893
sVcache
p2894
(dp2895
sVrequest
p2896
(dp2897
Vcomment
p2898
g4
sVcookies
p2899
(lp2900
sVurl
p2901
Vhttps://media-al-com.cdn.ampproject.org/ii/w1200/media.al.com/alphotos/photo/2016/01/06/-5747588ed1cbfe03.JPG
p2902
sVqueryString
p2903
(lp2904
sVheaders
p2905
(lp2906
sVheadersSize
p2907
I517
sVbodySize
p2908
I0
sVmethod
p2909
VGET
p2910
sVhttpVersion
p2911
VHTTP/1.1
p2912
ssVtimings
p2913
(dp2914
Vcomment
p2915
g4
sVreceive
p2916
I31
sVsend
p2917
I0
sVssl
p2918
I-1
sVconnect
p2919
I-1
sVdns
p2920
I-1
sVwait
p2921
I96
sVblocked
p2922
I-1
ssVtime
p2923
I128
sVresponse
p2924
(dp2925
Vstatus
p2926
I200
sVcomment
p2927
g4
sVcookies
p2928
(lp2929
sVstatusText
p2930
VOK
p2931
sVcontent
p2932
(dp2933
VmimeType
p2934
Vimage/jpeg
p2935
sVcomment
p2936
g4
sVsize
p2937
I0
ssVheaders
p2938
(lp2939
sVheadersSize
p2940
I845
sVredirectURL
p2941
g4
sVbodySize
p2942
I92247
sVhttpVersion
p2943
VHTTP/1.1
p2944
ssa(dp2945
Vcomment
p2946
g4
sVserverIPAddress
p2947
V216.58.216.193
p2948
sVpageref
p2949
VBentley
p2950
sVstartedDateTime
p2951
V2017-04-16T08:49:03.984-05:00
p2952
sVcache
p2953
(dp2954
sVrequest
p2955
(dp2956
Vcomment
p2957
g4
sVcookies
p2958
(lp2959
sVurl
p2960
Vhttps://media-al-com.cdn.ampproject.org/i/media.al.com/alphotos/photo/2016/01/06/-627497d95ff10364.JPG
p2961
sVqueryString
p2962
(lp2963
sVheaders
p2964
(lp2965
sVheadersSize
p2966
I510
sVbodySize
p2967
I0
sVmethod
p2968
VGET
p2969
sVhttpVersion
p2970
VHTTP/1.1
p2971
ssVtimings
p2972
(dp2973
Vcomment
p2974
g4
sVreceive
p2975
I28
sVsend
p2976
I0
sVssl
p2977
I-1
sVconnect
p2978
I-1
sVdns
p2979
I-1
sVwait
p2980
I77
sVblocked
p2981
I-1
ssVtime
p2982
I106
sVresponse
p2983
(dp2984
Vstatus
p2985
I200
sVcomment
p2986
g4
sVcookies
p2987
(lp2988
sVstatusText
p2989
VOK
p2990
sVcontent
p2991
(dp2992
VmimeType
p2993
Vimage/jpeg
p2994
sVcomment
p2995
g4
sVsize
p2996
I0
ssVheaders
p2997
(lp2998
sVheadersSize
p2999
I845
sVredirectURL
p3000
g4
sVbodySize
p3001
I64653
sVhttpVersion
p3002
VHTTP/1.1
p3003
ssa(dp3004
Vcomment
p3005
g4
sVserverIPAddress
p3006
V216.58.216.193
p3007
sVpageref
p3008
VBentley
p3009
sVstartedDateTime
p3010
V2017-04-16T08:49:04.091-05:00
p3011
sVcache
p3012
(dp3013
sVrequest
p3014
(dp3015
Vcomment
p3016
g4
sVcookies
p3017
(lp3018
sVurl
p3019
Vhttps://media-al-com.cdn.ampproject.org/i/media.al.com/alphotos/photo/2016/03/23/-085e6895bba3eb42.JPG
p3020
sVqueryString
p3021
(lp3022
sVheaders
p3023
(lp3024
sVheadersSize
p3025
I510
sVbodySize
p3026
I0
sVmethod
p3027
VGET
p3028
sVhttpVersion
p3029
VHTTP/1.1
p3030
ssVtimings
p3031
(dp3032
Vcomment
p3033
g4
sVreceive
p3034
I34
sVsend
p3035
I0
sVssl
p3036
I-1
sVconnect
p3037
I-1
sVdns
p3038
I-1
sVwait
p3039
I98
sVblocked
p3040
I-1
ssVtime
p3041
I132
sVresponse
p3042
(dp3043
Vstatus
p3044
I200
sVcomment
p3045
g4
sVcookies
p3046
(lp3047
sVstatusText
p3048
VOK
p3049
sVcontent
p3050
(dp3051
VmimeType
p3052
Vimage/jpeg
p3053
sVcomment
p3054
g4
sVsize
p3055
I0
ssVheaders
p3056
(lp3057
sVheadersSize
p3058
I845
sVredirectURL
p3059
g4
sVbodySize
p3060
I86737
sVhttpVersion
p3061
VHTTP/1.1
p3062
ssa(dp3063
Vcomment
p3064
g4
sVserverIPAddress
p3065
V216.58.216.193
p3066
sVpageref
p3067
VBentley
p3068
sVstartedDateTime
p3069
V2017-04-16T08:49:04.093-05:00
p3070
sVcache
p3071
(dp3072
sVrequest
p3073
(dp3074
Vcomment
p3075
g4
sVcookies
p3076
(lp3077
sVurl
p3078
Vhttps://media-al-com.cdn.ampproject.org/ii/w1200/media.al.com/alphotos/photo/2016/03/23/-5d16f4bd532f0818.JPG
p3079
sVqueryString
p3080
(lp3081
sVheaders
p3082
(lp3083
sVheadersSize
p3084
I517
sVbodySize
p3085
I0
sVmethod
p3086
VGET
p3087
sVhttpVersion
p3088
VHTTP/1.1
p3089
ssVtimings
p3090
(dp3091
Vcomment
p3092
g4
sVreceive
p3093
I40
sVsend
p3094
I0
sVssl
p3095
I-1
sVconnect
p3096
I-1
sVdns
p3097
I-1
sVwait
p3098
I131
sVblocked
p3099
I-1
ssVtime
p3100
I171
sVresponse
p3101
(dp3102
Vstatus
p3103
I200
sVcomment
p3104
g4
sVcookies
p3105
(lp3106
sVstatusText
p3107
VOK
p3108
sVcontent
p3109
(dp3110
VmimeType
p3111
Vimage/jpeg
p3112
sVcomment
p3113
g4
sVsize
p3114
I0
ssVheaders
p3115
(lp3116
sVheadersSize
p3117
I845
sVredirectURL
p3118
g4
sVbodySize
p3119
I92935
sVhttpVersion
p3120
VHTTP/1.1
p3121
ssa(dp3122
Vcomment
p3123
g4
sVserverIPAddress
p3124
V216.58.216.193
p3125
sVpageref
p3126
VBentley
p3127
sVstartedDateTime
p3128
V2017-04-16T08:49:04.093-05:00
p3129
sVcache
p3130
(dp3131
sVrequest
p3132
(dp3133
Vcomment
p3134
g4
sVcookies
p3135
(lp3136
sVurl
p3137
Vhttps://media-al-com.cdn.ampproject.org/ii/w1200/media.al.com/news_impact/photo/jim-zeiglerjpg-e7a6e167f82965a2.jpg
p3138
sVqueryString
p3139
(lp3140
sVheaders
p3141
(lp3142
sVheadersSize
p3143
I523
sVbodySize
p3144
I0
sVmethod
p3145
VGET
p3146
sVhttpVersion
p3147
VHTTP/1.1
p3148
ssVtimings
p3149
(dp3150
Vcomment
p3151
g4
sVreceive
p3152
I14
sVsend
p3153
I0
sVssl
p3154
I-1
sVconnect
p3155
I-1
sVdns
p3156
I-1
sVwait
p3157
I53
sVblocked
p3158
I-1
ssVtime
p3159
I68
sVresponse
p3160
(dp3161
Vstatus
p3162
I200
sVcomment
p3163
g4
sVcookies
p3164
(lp3165
sVstatusText
p3166
VOK
p3167
sVcontent
p3168
(dp3169
VmimeType
p3170
Vimage/jpeg
p3171
sVcomment
p3172
g4
sVsize
p3173
I0
ssVheaders
p3174
(lp3175
sVheadersSize
p3176
I845
sVredirectURL
p3177
g4
sVbodySize
p3178
I13560
sVhttpVersion
p3179
VHTTP/1.1
p3180
ssa(dp3181
Vcomment
p3182
g4
sVserverIPAddress
p3183
V216.58.216.193
p3184
sVpageref
p3185
VBentley
p3186
sVstartedDateTime
p3187
V2017-04-16T08:49:04.101-05:00
p3188
sVcache
p3189
(dp3190
sVrequest
p3191
(dp3192
Vcomment
p3193
g4
sVcookies
p3194
(lp3195
sVurl
p3196
Vhttps://media-al-com.cdn.ampproject.org/i/media.al.com/alphotos/photo/2014/07/07/jim-zeiglerjpg-1d096961ca7e134c.jpg
p3197
sVqueryString
p3198
(lp3199
sVheaders
p3200
(lp3201
sVheadersSize
p3202
I524
sVbodySize
p3203
I0
sVmethod
p3204
VGET
p3205
sVhttpVersion
p3206
VHTTP/1.1
p3207
ssVtimings
p3208
(dp3209
Vcomment
p3210
g4
sVreceive
p3211
I27
sVsend
p3212
I0
sVssl
p3213
I-1
sVconnect
p3214
I-1
sVdns
p3215
I-1
sVwait
p3216
I171
sVblocked
p3217
I-1
ssVtime
p3218
I199
sVresponse
p3219
(dp3220
Vstatus
p3221
I200
sVcomment
p3222
g4
sVcookies
p3223
(lp3224
sVstatusText
p3225
VOK
p3226
sVcontent
p3227
(dp3228
VmimeType
p3229
Vimage/jpeg
p3230
sVcomment
p3231
g4
sVsize
p3232
I0
ssVheaders
p3233
(lp3234
sVheadersSize
p3235
I845
sVredirectURL
p3236
g4
sVbodySize
p3237
I91097
sVhttpVersion
p3238
VHTTP/1.1
p3239
ssa(dp3240
Vcomment
p3241
g4
sVserverIPAddress
p3242
V216.58.216.193
p3243
sVpageref
p3244
VBentley
p3245
sVstartedDateTime
p3246
V2017-04-16T08:49:04.112-05:00
p3247
sVcache
p3248
(dp3249
sVrequest
p3250
(dp3251
Vcomment
p3252
g4
sVcookies
p3253
(lp3254
sVurl
p3255
Vhttps://media-al-com.cdn.ampproject.org/i/media.al.com/alphotos/photo/2016/04/05/-2ce8d10e8ea57d85.JPG
p3256
sVqueryString
p3257
(lp3258
sVheaders
p3259
(lp3260
sVheadersSize
p3261
I510
sVbodySize
p3262
I0
sVmethod
p3263
VGET
p3264
sVhttpVersion
p3265
VHTTP/1.1
p3266
ssVtimings
p3267
(dp3268
Vcomment
p3269
g4
sVreceive
p3270
I30
sVsend
p3271
I0
sVssl
p3272
I-1
sVconnect
p3273
I-1
sVdns
p3274
I-1
sVwait
p3275
I86
sVblocked
p3276
I-1
ssVtime
p3277
I116
sVresponse
p3278
(dp3279
Vstatus
p3280
I200
sVcomment
p3281
g4
sVcookies
p3282
(lp3283
sVstatusText
p3284
VOK
p3285
sVcontent
p3286
(dp3287
VmimeType
p3288
Vimage/jpeg
p3289
sVcomment
p3290
g4
sVsize
p3291
I0
ssVheaders
p3292
(lp3293
sVheadersSize
p3294
I846
sVredirectURL
p3295
g4
sVbodySize
p3296
I102346
sVhttpVersion
p3297
VHTTP/1.1
p3298
ssa(dp3299
Vcomment
p3300
g4
sVserverIPAddress
p3301
V216.58.216.193
p3302
sVpageref
p3303
VBentley
p3304
sVstartedDateTime
p3305
V2017-04-16T08:49:04.113-05:00
p3306
sVcache
p3307
(dp3308
sVrequest
p3309
(dp3310
Vcomment
p3311
g4
sVcookies
p3312
(lp3313
sVurl
p3314
Vhttps://media-al-com.cdn.ampproject.org/ii/w1200/media.al.com/alphotos/photo/2016/04/03/cooper-shattuck-d4837f834d5d2a5e.jpg
p3315
sVqueryString
p3316
(lp3317
sVheaders
p3318
(lp3319
sVheadersSize
p3320
I532
sVbodySize
p3321
I0
sVmethod
p3322
VGET
p3323
sVhttpVersion
p3324
VHTTP/1.1
p3325
ssVtimings
p3326
(dp3327
Vcomment
p3328
g4
sVreceive
p3329
I18
sVsend
p3330
I0
sVssl
p3331
I-1
sVconnect
p3332
I-1
sVdns
p3333
I-1
sVwait
p3334
I89
sVblocked
p3335
I-1
ssVtime
p3336
I107
sVresponse
p3337
(dp3338
Vstatus
p3339
I200
sVcomment
p3340
g4
sVcookies
p3341
(lp3342
sVstatusText
p3343
VOK
p3344
sVcontent
p3345
(dp3346
VmimeType
p3347
Vimage/jpeg
p3348
sVcomment
p3349
g4
sVsize
p3350
I0
ssVheaders
p3351
(lp3352
sVheadersSize
p3353
I845
sVredirectURL
p3354
g4
sVbodySize
p3355
I53547
sVhttpVersion
p3356
VHTTP/1.1
p3357
ssa(dp3358
Vcomment
p3359
g4
sVserverIPAddress
p3360
V74.125.70.106
p3361
sVpageref
p3362
VBentley
p3363
sVstartedDateTime
p3364
V2017-04-16T08:49:04.317-05:00
p3365
sVcache
p3366
(dp3367
sVrequest
p3368
(dp3369
Vcomment
p3370
g4
sVcookies
p3371
(lp3372
sVurl
p3373
Vhttps://www.google.com/gen_204?s=web&atyp=csi&ei=SHbzWJ3KIuzZjwTZ-LvQDA&imc=59&imn=59&imp=35&adh=&xjs=init.51.14.sb_mob.37.dvl.7.async.2.c.1.mbsf.1&ima=12&rt=prt.1274,iml.1486,xjsls.1276,dcl.1569,xjses.1767,xjsee.1962,xjs.1963,qiml.2193,ol.6581,aft.1357,wsrt.142,cst.0,dnst.0,rqst.1410,rspt.1298,rqstt.3,unt.3,cstt.3,dit.1541
p3374
sVqueryString
p3375
(lp3376
(dp3377
Vname
p3378
g57
sVvalue
p3379
Vweb
p3380
sa(dp3381
Vname
p3382
Vatyp
p3383
sVvalue
p3384
Vcsi
p3385
sa(dp3386
Vname
p3387
Vei
p3388
sVvalue
p3389
VSHbzWJ3KIuzZjwTZ-LvQDA
p3390
sa(dp3391
Vname
p3392
Vimc
p3393
sVvalue
p3394
V59
p3395
sa(dp3396
Vname
p3397
Vimn
p3398
sVvalue
p3399
V59
p3400
sa(dp3401
Vname
p3402
Vimp
p3403
sVvalue
p3404
V35
p3405
sa(dp3406
Vname
p3407
Vadh
p3408
sVvalue
p3409
g4
sa(dp3410
Vname
p3411
Vxjs
p3412
sVvalue
p3413
Vinit.51.14.sb_mob.37.dvl.7.async.2.c.1.mbsf.1
p3414
sa(dp3415
Vname
p3416
Vima
p3417
sVvalue
p3418
V12
p3419
sa(dp3420
Vname
p3421
Vrt
p3422
sVvalue
p3423
Vprt.1274,iml.1486,xjsls.1276,dcl.1569,xjses.1767,xjsee.1962,xjs.1963,qiml.2193,ol.6581,aft.1357,wsrt.142,cst.0,dnst.0,rqst.1410,rspt.1298,rqstt.3,unt.3,cstt.3,dit.1541
p3424
sasVheaders
p3425
(lp3426
sVheadersSize
p3427
I842
sVbodySize
p3428
I0
sVmethod
p3429
VGET
p3430
sVhttpVersion
p3431
VHTTP/1.1
p3432
ssVtimings
p3433
(dp3434
Vcomment
p3435
g4
sVreceive
p3436
I0
sVsend
p3437
I0
sVssl
p3438
I-1
sVconnect
p3439
I-1
sVdns
p3440
I-1
sVwait
p3441
I26
sVblocked
p3442
I-1
ssVtime
p3443
I26
sVresponse
p3444
(dp3445
Vstatus
p3446
I204
sVcomment
p3447
g4
sVcookies
p3448
(lp3449
sVstatusText
p3450
VNo Content
p3451
sVcontent
p3452
(dp3453
VmimeType
p3454
Vtext/html; charset=UTF-8
p3455
sVcomment
p3456
g4
sVsize
p3457
I0
ssVheaders
p3458
(lp3459
sVheadersSize
p3460
I248
sVredirectURL
p3461
g4
sVbodySize
p3462
I0
sVhttpVersion
p3463
VHTTP/1.1
p3464
ssasVversion
p3465
V1.2
p3466
sVpages
p3467
(lp3468
(dp3469
VpageTimings
p3470
(dp3471
Vcomment
p3472
g4
ssVcomment
p3473
g4
sVtitle
p3474
VBentley
p3475
sVid
p3476
VBentley
p3477
sVstartedDateTime
p3478
V2017-04-16T08:48:55.795-05:00
p3479
sasVcreator
p3480
(dp3481
Vcomment
p3482
g4
sVversion
p3483
V2.1.4
p3484
sVname
p3485
VBrowserMob Proxy
p3486
sss.