(dp0
Vlog
p1
(dp2
Vcomment
p3
V
p4
sVentries
p5
(lp6
(dp7
Vcomment
p8
g4
sVserverIPAddress
p9
V216.58.216.196
p10
sVpageref
p11
VSaul Alinsky
p12
sVstartedDateTime
p13
V2017-04-16T08:21:38.398-05:00
p14
sVcache
p15
(dp16
sVrequest
p17
(dp18
Vcomment
p19
g4
sVcookies
p20
(lp21
sVurl
p22
Vhttps://www.google.com/gen_204?atyp=i&ct=slh&cad=&ei=1G_zWIC5F8rCjwTxz4f4Dw&m=V&t=C&s=1&v=2&pv=0.2625418620610255&me=1:1492348887452,x:4,V,0,0,1280,944:0,N,1,1G_zWIC5F8rCjwTxz4f4Dw:0,R,1,24,8,155,1249,731:0,R,1,25,8,155,1249,731:0,R,1,28,8,168,1249,40:0,R,1,41,8,219,1249,178:0,R,1,44,0,235,1265,197:0,R,1,84,8,414,1249,40:0,R,1,85,24,414,1217,40:0,R,1,88,8,470,1249,20:0,R,1,91,8,498,1249,20:0,R,1,119,8,538,1249,295:0,R,1,120,0,583,1265,270:0,R,1,161,8,896,1249,201:0,R,1,162,24,896,1217,190:4,B,3645:10936,e,U&zx=1492348898397
p23
sVqueryString
p24
(lp25
(dp26
Vname
p27
Vatyp
p28
sVvalue
p29
Vi
p30
sa(dp31
Vname
p32
Vct
p33
sVvalue
p34
Vslh
p35
sa(dp36
Vname
p37
Vcad
p38
sVvalue
p39
g4
sa(dp40
Vname
p41
Vei
p42
sVvalue
p43
V1G_zWIC5F8rCjwTxz4f4Dw
p44
sa(dp45
Vname
p46
Vm
p47
sVvalue
p48
VV
p49
sa(dp50
Vname
p51
Vt
p52
sVvalue
p53
VC
p54
sa(dp55
Vname
p56
Vs
p57
sVvalue
p58
V1
p59
sa(dp60
Vname
p61
Vv
p62
sVvalue
p63
V2
p64
sa(dp65
Vname
p66
Vpv
p67
sVvalue
p68
V0.2625418620610255
p69
sa(dp70
Vname
p71
Vme
p72
sVvalue
p73
V1:1492348887452,x:4,V,0,0,1280,944:0,N,1,1G_zWIC5F8rCjwTxz4f4Dw:0,R,1,24,8,155,1249,731:0,R,1,25,8,155,1249,731:0,R,1,28,8,168,1249,40:0,R,1,41,8,219,1249,178:0,R,1,44,0,235,1265,197:0,R,1,84,8,414,1249,40:0,R,1,85,24,414,1217,40:0,R,1,88,8,470,1249,20:0,R,1,91,8,498,1249,20:0,R,1,119,8,538,1249,295:0,R,1,120,0,583,1265,270:0,R,1,161,8,896,1249,201:0,R,1,162,24,896,1217,190:4,B,3645:10936,e,U
p74
sa(dp75
Vname
p76
Vzx
p77
sVvalue
p78
V1492348898397
p79
sasVheaders
p80
(lp81
sVheadersSize
p82
I1046
sVbodySize
p83
I0
sVmethod
p84
VGET
p85
sVhttpVersion
p86
VHTTP/1.1
p87
ssVtimings
p88
(dp89
Vcomment
p90
g4
sVreceive
p91
I0
sVsend
p92
I0
sVssl
p93
I-1
sVconnect
p94
I-1
sVdns
p95
I-1
sVwait
p96
I0
sVblocked
p97
I-1
ssVtime
p98
I0
sVresponse
p99
(dp100
Vstatus
p101
I0
sVcomment
p102
g4
sVcookies
p103
(lp104
sV_error
p105
VNo response received
p106
sVstatusText
p107
g4
sVcontent
p108
(dp109
VmimeType
p110
g4
sVcomment
p111
g4
sVsize
p112
I0
ssVheaders
p113
(lp114
sVheadersSize
p115
I-1
sVredirectURL
p116
g4
sVbodySize
p117
I-1
sVhttpVersion
p118
Vunknown
p119
ssa(dp120
Vcomment
p121
g4
sVserverIPAddress
p122
V216.58.216.196
p123
sVpageref
p124
VSaul Alinsky
p125
sVstartedDateTime
p126
V2017-04-16T08:21:38.403-05:00
p127
sVcache
p128
(dp129
sVrequest
p130
(dp131
Vcomment
p132
g4
sVcookies
p133
(lp134
sVurl
p135
Vhttp://www.google.com/
p136
sVqueryString
p137
(lp138
sVheaders
p139
(lp140
sVheadersSize
p141
I613
sVbodySize
p142
I0
sVmethod
p143
VGET
p144
sVhttpVersion
p145
VHTTP/1.1
p146
ssVtimings
p147
(dp148
Vcomment
p149
g4
sVreceive
p150
I0
sVsend
p151
I0
sVssl
p152
I-1
sVconnect
p153
I-1
sVdns
p154
I-1
sVwait
p155
I35
sVblocked
p156
I-1
ssVtime
p157
I36
sVresponse
p158
(dp159
Vstatus
p160
I302
sVcomment
p161
g4
sVcookies
p162
(lp163
sVstatusText
p164
VFound
p165
sVcontent
p166
(dp167
VmimeType
p168
Vtext/html; charset=UTF-8
p169
sVcomment
p170
g4
sVsize
p171
I0
ssVheaders
p172
(lp173
sVheadersSize
p174
I609
sVredirectURL
p175
Vhttps://www.google.com/?gws_rd=ssl
p176
sVbodySize
p177
I231
sVhttpVersion
p178
VHTTP/1.1
p179
ssa(dp180
Vcomment
p181
g4
sVserverIPAddress
p182
V216.58.216.196
p183
sVpageref
p184
VSaul Alinsky
p185
sVstartedDateTime
p186
V2017-04-16T08:21:38.445-05:00
p187
sVcache
p188
(dp189
sVrequest
p190
(dp191
Vcomment
p192
g4
sVcookies
p193
(lp194
sVurl
p195
Vhttps://www.google.com/?gws_rd=ssl
p196
sVqueryString
p197
(lp198
(dp199
Vname
p200
Vgws_rd
p201
sVvalue
p202
Vssl
p203
sasVheaders
p204
(lp205
sVheadersSize
p206
I607
sVbodySize
p207
I0
sVmethod
p208
VGET
p209
sVhttpVersion
p210
VHTTP/1.1
p211
ssVtimings
p212
(dp213
Vcomment
p214
g4
sVreceive
p215
I21
sVsend
p216
I0
sVssl
p217
I-1
sVconnect
p218
I-1
sVdns
p219
I-1
sVwait
p220
I82
sVblocked
p221
I-1
ssVtime
p222
I104
sVresponse
p223
(dp224
Vstatus
p225
I200
sVcomment
p226
g4
sVcookies
p227
(lp228
sVstatusText
p229
VOK
p230
sVcontent
p231
(dp232
VmimeType
p233
Vtext/html; charset=UTF-8
p234
sVcomment
p235
g4
sVsize
p236
I0
ssVheaders
p237
(lp238
sVheadersSize
p239
I721
sVredirectURL
p240
g4
sVbodySize
p241
I34291
sVhttpVersion
p242
VHTTP/1.1
p243
ssa(dp244
Vcomment
p245
g4
sVserverIPAddress
p246
V216.58.216.196
p247
sVpageref
p248
VSaul Alinsky
p249
sVstartedDateTime
p250
V2017-04-16T08:21:38.962-05:00
p251
sVcache
p252
(dp253
sVrequest
p254
(dp255
Vcomment
p256
g4
sVcookies
p257
(lp258
sVurl
p259
Vhttps://www.google.com/gen_204?s=mobilewebhp&atyp=csi&ei=4W_zWODsG8X-jwTbibuwAg&imc=1&imn=1&imp=0&adh=&xjs=init.42.12.sb_mob.34.mbsf.2.dvl.2.c.1.jsa.1&ima=1&rt=xjsls.19,prt.20,iml.20,dcl.57,xjses.125,xjsee.253,xjs.253,ol.378,aft.20,wsrt.184,cst.0,dnst.0,rqst.106,rspt.23,rqstt.49,unt.45,cstt.45,dit.215
p260
sVqueryString
p261
(lp262
(dp263
Vname
p264
g57
sVvalue
p265
Vmobilewebhp
p266
sa(dp267
Vname
p268
Vatyp
p269
sVvalue
p270
Vcsi
p271
sa(dp272
Vname
p273
Vei
p274
sVvalue
p275
V4W_zWODsG8X-jwTbibuwAg
p276
sa(dp277
Vname
p278
Vimc
p279
sVvalue
p280
g59
sa(dp281
Vname
p282
Vimn
p283
sVvalue
p284
g59
sa(dp285
Vname
p286
Vimp
p287
sVvalue
p288
V0
p289
sa(dp290
Vname
p291
Vadh
p292
sVvalue
p293
g4
sa(dp294
Vname
p295
Vxjs
p296
sVvalue
p297
Vinit.42.12.sb_mob.34.mbsf.2.dvl.2.c.1.jsa.1
p298
sa(dp299
Vname
p300
Vima
p301
sVvalue
p302
g59
sa(dp303
Vname
p304
Vrt
p305
sVvalue
p306
Vxjsls.19,prt.20,iml.20,dcl.57,xjses.125,xjsee.253,xjs.253,ol.378,aft.20,wsrt.184,cst.0,dnst.0,rqst.106,rspt.23,rqstt.49,unt.45,cstt.45,dit.215
p307
sasVheaders
p308
(lp309
sVheadersSize
p310
I830
sVbodySize
p311
I0
sVmethod
p312
VGET
p313
sVhttpVersion
p314
VHTTP/1.1
p315
ssVtimings
p316
(dp317
Vcomment
p318
g4
sVreceive
p319
I0
sVsend
p320
I0
sVssl
p321
I-1
sVconnect
p322
I-1
sVdns
p323
I-1
sVwait
p324
I30
sVblocked
p325
I-1
ssVtime
p326
I30
sVresponse
p327
(dp328
Vstatus
p329
I204
sVcomment
p330
g4
sVcookies
p331
(lp332
sVstatusText
p333
VNo Content
p334
sVcontent
p335
(dp336
VmimeType
p337
Vtext/html; charset=UTF-8
p338
sVcomment
p339
g4
sVsize
p340
I0
ssVheaders
p341
(lp342
sVheadersSize
p343
I248
sVredirectURL
p344
g4
sVbodySize
p345
I0
sVhttpVersion
p346
VHTTP/1.1
p347
ssa(dp348
Vcomment
p349
g4
sVserverIPAddress
p350
V216.58.216.196
p351
sVpageref
p352
VSaul Alinsky
p353
sVstartedDateTime
p354
V2017-04-16T08:21:39.062-05:00
p355
sVcache
p356
(dp357
sVrequest
p358
(dp359
Vcomment
p360
g4
sVcookies
p361
(lp362
sVurl
p363
Vhttps://www.google.com/complete/search?client=mobile-gws-hp&hl=en&gs_rn=64&gs_ri=mobile-gws-hp&sla=1&pfq=scott%20adams&gm=602&cp=0&gs_id=1&xhr=t&q=S&tch=1&ech=1&psi=4W_zWODsG8X-jwTbibuwAg.1492348898791.1
p364
sVqueryString
p365
(lp366
(dp367
Vname
p368
Vclient
p369
sVvalue
p370
Vmobile-gws-hp
p371
sa(dp372
Vname
p373
Vhl
p374
sVvalue
p375
Ven
p376
sa(dp377
Vname
p378
Vgs_rn
p379
sVvalue
p380
V64
p381
sa(dp382
Vname
p383
Vgs_ri
p384
sVvalue
p385
Vmobile-gws-hp
p386
sa(dp387
Vname
p388
Vsla
p389
sVvalue
p390
g59
sa(dp391
Vname
p392
Vpfq
p393
sVvalue
p394
Vscott adams
p395
sa(dp396
Vname
p397
Vgm
p398
sVvalue
p399
V602
p400
sa(dp401
Vname
p402
Vcp
p403
sVvalue
p404
g289
sa(dp405
Vname
p406
Vgs_id
p407
sVvalue
p408
g59
sa(dp409
Vname
p410
Vxhr
p411
sVvalue
p412
g52
sa(dp413
Vname
p414
Vq
p415
sVvalue
p416
VS
p417
sa(dp418
Vname
p419
Vtch
p420
sVvalue
p421
g59
sa(dp422
Vname
p423
Vech
p424
sVvalue
p425
g59
sa(dp426
Vname
p427
Vpsi
p428
sVvalue
p429
V4W_zWODsG8X-jwTbibuwAg.1492348898791.1
p430
sasVheaders
p431
(lp432
sVheadersSize
p433
I731
sVbodySize
p434
I0
sVmethod
p435
VGET
p436
sVhttpVersion
p437
VHTTP/1.1
p438
ssVtimings
p439
(dp440
Vcomment
p441
g4
sVreceive
p442
I0
sVsend
p443
I0
sVssl
p444
I-1
sVconnect
p445
I-1
sVdns
p446
I-1
sVwait
p447
I0
sVblocked
p448
I-1
ssVtime
p449
I0
sVresponse
p450
(dp451
Vstatus
p452
I0
sVcomment
p453
g4
sVcookies
p454
(lp455
sV_error
p456
VNo response received
p457
sVstatusText
p458
g4
sVcontent
p459
(dp460
VmimeType
p461
g4
sVcomment
p462
g4
sVsize
p463
I0
ssVheaders
p464
(lp465
sVheadersSize
p466
I-1
sVredirectURL
p467
g4
sVbodySize
p468
I-1
sVhttpVersion
p469
Vunknown
p470
ssa(dp471
Vcomment
p472
g4
sVserverIPAddress
p473
V216.58.216.196
p474
sVpageref
p475
VSaul Alinsky
p476
sVstartedDateTime
p477
V2017-04-16T08:21:39.141-05:00
p478
sVcache
p479
(dp480
sVrequest
p481
(dp482
Vcomment
p483
g4
sVcookies
p484
(lp485
sVurl
p486
Vhttps://www.google.com/search?site=&source=hp&ei=4W_zWODsG8X-jwTbibuwAg&q=Saul+Alinsky&oq=Saul+Alinsky&gs_l=mobile-gws-hp.3...236.272.0.312.12.1.0.0.0.0.0.0..0.0....0...1c.1.64.mobile-gws-hp..12.0.0.vy_z_XOI4Ek
p487
sVqueryString
p488
(lp489
(dp490
Vname
p491
Vsite
p492
sVvalue
p493
g4
sa(dp494
Vname
p495
Vsource
p496
sVvalue
p497
Vhp
p498
sa(dp499
Vname
p500
Vei
p501
sVvalue
p502
V4W_zWODsG8X-jwTbibuwAg
p503
sa(dp504
Vname
p505
g415
sVvalue
p506
VSaul Alinsky
p507
sa(dp508
Vname
p509
Voq
p510
sVvalue
p511
VSaul Alinsky
p512
sa(dp513
Vname
p514
Vgs_l
p515
sVvalue
p516
Vmobile-gws-hp.3...236.272.0.312.12.1.0.0.0.0.0.0..0.0....0...1c.1.64.mobile-gws-hp..12.0.0.vy_z_XOI4Ek
p517
sasVheaders
p518
(lp519
sVheadersSize
p520
I828
sVbodySize
p521
I0
sVmethod
p522
VGET
p523
sVhttpVersion
p524
VHTTP/1.1
p525
ssVtimings
p526
(dp527
Vcomment
p528
g4
sVreceive
p529
I992
sVsend
p530
I0
sVssl
p531
I-1
sVconnect
p532
I-1
sVdns
p533
I-1
sVwait
p534
I86
sVblocked
p535
I-1
ssVtime
p536
I1079
sVresponse
p537
(dp538
Vstatus
p539
I200
sVcomment
p540
g4
sVcookies
p541
(lp542
sVstatusText
p543
VOK
p544
sVcontent
p545
(dp546
VmimeType
p547
Vtext/html; charset=UTF-8
p548
sVcomment
p549
g4
sVsize
p550
I0
ssVheaders
p551
(lp552
sVheadersSize
p553
I363
sVredirectURL
p554
g4
sVbodySize
p555
I108328
sVhttpVersion
p556
VHTTP/1.1
p557
ssa(dp558
Vcomment
p559
g4
sVserverIPAddress
p560
V216.58.216.196
p561
sVpageref
p562
VSaul Alinsky
p563
sVstartedDateTime
p564
V2017-04-16T08:21:40.827-05:00
p565
sVcache
p566
(dp567
sVrequest
p568
(dp569
Vcomment
p570
g4
sVcookies
p571
(lp572
sVurl
p573
Vhttps://www.google.com/async/irc?vet=10ahUKEwjAotLviKnTAhXM6oMKHXJDBC0Qo0EI1wE..i&ved=0ahUKEwjAotLviKnTAhXM6oMKHXJDBC0Qo0EI1wE&ei=4m_zWMCpCczVjwTyhpHoAg&yv=2&async=iu:1,ved:0ahUKEwjAotLviKnTAhXM6oMKHXJDBC0Qo0EI1wE,_id:irc_async,_pms:qs
p574
sVqueryString
p575
(lp576
(dp577
Vname
p578
Vvet
p579
sVvalue
p580
V10ahUKEwjAotLviKnTAhXM6oMKHXJDBC0Qo0EI1wE..i
p581
sa(dp582
Vname
p583
Vved
p584
sVvalue
p585
V0ahUKEwjAotLviKnTAhXM6oMKHXJDBC0Qo0EI1wE
p586
sa(dp587
Vname
p588
Vei
p589
sVvalue
p590
V4m_zWMCpCczVjwTyhpHoAg
p591
sa(dp592
Vname
p593
Vyv
p594
sVvalue
p595
g64
sa(dp596
Vname
p597
Vasync
p598
sVvalue
p599
Viu:1,ved:0ahUKEwjAotLviKnTAhXM6oMKHXJDBC0Qo0EI1wE,_id:irc_async,_pms:qs
p600
sasVheaders
p601
(lp602
sVheadersSize
p603
I752
sVbodySize
p604
I0
sVmethod
p605
VGET
p606
sVhttpVersion
p607
VHTTP/1.1
p608
ssVtimings
p609
(dp610
Vcomment
p611
g4
sVreceive
p612
I0
sVsend
p613
I0
sVssl
p614
I-1
sVconnect
p615
I-1
sVdns
p616
I-1
sVwait
p617
I37
sVblocked
p618
I-1
ssVtime
p619
I37
sVresponse
p620
(dp621
Vstatus
p622
I200
sVcomment
p623
g4
sVcookies
p624
(lp625
sVstatusText
p626
VOK
p627
sVcontent
p628
(dp629
VmimeType
p630
Vtext/html; charset=UTF-8
p631
sVcomment
p632
g4
sVsize
p633
I0
ssVheaders
p634
(lp635
sVheadersSize
p636
I383
sVredirectURL
p637
g4
sVbodySize
p638
I7795
sVhttpVersion
p639
VHTTP/1.1
p640
ssa(dp641
Vcomment
p642
g4
sVserverIPAddress
p643
V216.58.216.196
p644
sVpageref
p645
VSaul Alinsky
p646
sVstartedDateTime
p647
V2017-04-16T08:21:40.843-05:00
p648
sVcache
p649
(dp650
sVrequest
p651
(dp652
Vcomment
p653
g4
sVcookies
p654
(lp655
sVurl
p656
Vhttps://www.google.com/gen_204?atyp=i&ct=&cad=&vet=10ahUKEwjAotLviKnTAhXM6oMKHXJDBC0Q5W0IMygC..s&ei=4m_zWMCpCczVjwTyhpHoAg&zx=1492348900841
p657
sVqueryString
p658
(lp659
(dp660
Vname
p661
Vatyp
p662
sVvalue
p663
g30
sa(dp664
Vname
p665
Vct
p666
sVvalue
p667
g4
sa(dp668
Vname
p669
Vcad
p670
sVvalue
p671
g4
sa(dp672
Vname
p673
Vvet
p674
sVvalue
p675
V10ahUKEwjAotLviKnTAhXM6oMKHXJDBC0Q5W0IMygC..s
p676
sa(dp677
Vname
p678
Vei
p679
sVvalue
p680
V4m_zWMCpCczVjwTyhpHoAg
p681
sa(dp682
Vname
p683
Vzx
p684
sVvalue
p685
V1492348900841
p686
sasVheaders
p687
(lp688
sVheadersSize
p689
I656
sVbodySize
p690
I0
sVmethod
p691
VGET
p692
sVhttpVersion
p693
VHTTP/1.1
p694
ssVtimings
p695
(dp696
Vcomment
p697
g4
sVreceive
p698
I0
sVsend
p699
I0
sVssl
p700
I-1
sVconnect
p701
I-1
sVdns
p702
I-1
sVwait
p703
I36
sVblocked
p704
I-1
ssVtime
p705
I36
sVresponse
p706
(dp707
Vstatus
p708
I204
sVcomment
p709
g4
sVcookies
p710
(lp711
sVstatusText
p712
VNo Content
p713
sVcontent
p714
(dp715
VmimeType
p716
Vtext/html; charset=UTF-8
p717
sVcomment
p718
g4
sVsize
p719
I0
ssVheaders
p720
(lp721
sVheadersSize
p722
I248
sVredirectURL
p723
g4
sVbodySize
p724
I0
sVhttpVersion
p725
VHTTP/1.1
p726
ssa(dp727
Vcomment
p728
g4
sVserverIPAddress
p729
V216.58.216.196
p730
sVpageref
p731
VSaul Alinsky
p732
sVstartedDateTime
p733
V2017-04-16T08:21:40.848-05:00
p734
sVcache
p735
(dp736
sVrequest
p737
(dp738
Vcomment
p739
g4
sVcookies
p740
(lp741
sVurl
p742
Vhttps://www.google.com/gen_204?atyp=i&ct=&cad=&vet=10ahUKEwjAotLviKnTAhXM6oMKHXJDBC0Q5W0INigD..s&ei=4m_zWMCpCczVjwTyhpHoAg&zx=1492348900846
p743
sVqueryString
p744
(lp745
(dp746
Vname
p747
Vatyp
p748
sVvalue
p749
g30
sa(dp750
Vname
p751
Vct
p752
sVvalue
p753
g4
sa(dp754
Vname
p755
Vcad
p756
sVvalue
p757
g4
sa(dp758
Vname
p759
Vvet
p760
sVvalue
p761
V10ahUKEwjAotLviKnTAhXM6oMKHXJDBC0Q5W0INigD..s
p762
sa(dp763
Vname
p764
Vei
p765
sVvalue
p766
V4m_zWMCpCczVjwTyhpHoAg
p767
sa(dp768
Vname
p769
Vzx
p770
sVvalue
p771
V1492348900846
p772
sasVheaders
p773
(lp774
sVheadersSize
p775
I656
sVbodySize
p776
I0
sVmethod
p777
VGET
p778
sVhttpVersion
p779
VHTTP/1.1
p780
ssVtimings
p781
(dp782
Vcomment
p783
g4
sVreceive
p784
I0
sVsend
p785
I0
sVssl
p786
I-1
sVconnect
p787
I-1
sVdns
p788
I-1
sVwait
p789
I32
sVblocked
p790
I-1
ssVtime
p791
I33
sVresponse
p792
(dp793
Vstatus
p794
I204
sVcomment
p795
g4
sVcookies
p796
(lp797
sVstatusText
p798
VNo Content
p799
sVcontent
p800
(dp801
VmimeType
p802
Vtext/html; charset=UTF-8
p803
sVcomment
p804
g4
sVsize
p805
I0
ssVheaders
p806
(lp807
sVheadersSize
p808
I248
sVredirectURL
p809
g4
sVbodySize
p810
I0
sVhttpVersion
p811
VHTTP/1.1
p812
ssa(dp813
Vcomment
p814
g4
sVserverIPAddress
p815
V216.58.216.196
p816
sVpageref
p817
VSaul Alinsky
p818
sVstartedDateTime
p819
V2017-04-16T08:21:40.869-05:00
p820
sVcache
p821
(dp822
sVrequest
p823
(dp824
Vcomment
p825
g4
sVcookies
p826
(lp827
sVurl
p828
Vhttps://www.google.com/gen_204?atyp=i&ct=&cad=&vet=10ahUKEwjAotLviKnTAhXM6oMKHXJDBC0Q5W0IPygG..s&ei=4m_zWMCpCczVjwTyhpHoAg&zx=1492348900858
p829
sVqueryString
p830
(lp831
(dp832
Vname
p833
Vatyp
p834
sVvalue
p835
g30
sa(dp836
Vname
p837
Vct
p838
sVvalue
p839
g4
sa(dp840
Vname
p841
Vcad
p842
sVvalue
p843
g4
sa(dp844
Vname
p845
Vvet
p846
sVvalue
p847
V10ahUKEwjAotLviKnTAhXM6oMKHXJDBC0Q5W0IPygG..s
p848
sa(dp849
Vname
p850
Vei
p851
sVvalue
p852
V4m_zWMCpCczVjwTyhpHoAg
p853
sa(dp854
Vname
p855
Vzx
p856
sVvalue
p857
V1492348900858
p858
sasVheaders
p859
(lp860
sVheadersSize
p861
I656
sVbodySize
p862
I0
sVmethod
p863
VGET
p864
sVhttpVersion
p865
VHTTP/1.1
p866
ssVtimings
p867
(dp868
Vcomment
p869
g4
sVreceive
p870
I0
sVsend
p871
I0
sVssl
p872
I-1
sVconnect
p873
I-1
sVdns
p874
I-1
sVwait
p875
I42
sVblocked
p876
I-1
ssVtime
p877
I42
sVresponse
p878
(dp879
Vstatus
p880
I204
sVcomment
p881
g4
sVcookies
p882
(lp883
sVstatusText
p884
VNo Content
p885
sVcontent
p886
(dp887
VmimeType
p888
Vtext/html; charset=UTF-8
p889
sVcomment
p890
g4
sVsize
p891
I0
ssVheaders
p892
(lp893
sVheadersSize
p894
I248
sVredirectURL
p895
g4
sVbodySize
p896
I0
sVhttpVersion
p897
VHTTP/1.1
p898
ssa(dp899
Vcomment
p900
g4
sVserverIPAddress
p901
V216.58.216.196
p902
sVpageref
p903
VSaul Alinsky
p904
sVstartedDateTime
p905
V2017-04-16T08:21:40.901-05:00
p906
sVcache
p907
(dp908
sVrequest
p909
(dp910
Vcomment
p911
g4
sVcookies
p912
(lp913
sVurl
p914
Vhttps://www.google.com/gen_204?atyp=i&ct=&cad=&vet=10ahUKEwjAotLviKnTAhXM6oMKHXJDBC0Q5W0IPCgF..s&ei=4m_zWMCpCczVjwTyhpHoAg&zx=1492348900855
p915
sVqueryString
p916
(lp917
(dp918
Vname
p919
Vatyp
p920
sVvalue
p921
g30
sa(dp922
Vname
p923
Vct
p924
sVvalue
p925
g4
sa(dp926
Vname
p927
Vcad
p928
sVvalue
p929
g4
sa(dp930
Vname
p931
Vvet
p932
sVvalue
p933
V10ahUKEwjAotLviKnTAhXM6oMKHXJDBC0Q5W0IPCgF..s
p934
sa(dp935
Vname
p936
Vei
p937
sVvalue
p938
V4m_zWMCpCczVjwTyhpHoAg
p939
sa(dp940
Vname
p941
Vzx
p942
sVvalue
p943
V1492348900855
p944
sasVheaders
p945
(lp946
sVheadersSize
p947
I656
sVbodySize
p948
I0
sVmethod
p949
VGET
p950
sVhttpVersion
p951
VHTTP/1.1
p952
ssVtimings
p953
(dp954
Vcomment
p955
g4
sVreceive
p956
I0
sVsend
p957
I0
sVssl
p958
I20
sVconnect
p959
I43
sVdns
p960
I0
sVwait
p961
I35
sVblocked
p962
I0
ssVtime
p963
I78
sVresponse
p964
(dp965
Vstatus
p966
I204
sVcomment
p967
g4
sVcookies
p968
(lp969
sVstatusText
p970
VNo Content
p971
sVcontent
p972
(dp973
VmimeType
p974
Vtext/html; charset=UTF-8
p975
sVcomment
p976
g4
sVsize
p977
I0
ssVheaders
p978
(lp979
sVheadersSize
p980
I248
sVredirectURL
p981
g4
sVbodySize
p982
I0
sVhttpVersion
p983
VHTTP/1.1
p984
ssa(dp985
Vcomment
p986
g4
sVserverIPAddress
p987
V216.58.216.196
p988
sVpageref
p989
VSaul Alinsky
p990
sVstartedDateTime
p991
V2017-04-16T08:21:40.905-05:00
p992
sVcache
p993
(dp994
sVrequest
p995
(dp996
Vcomment
p997
g4
sVcookies
p998
(lp999
sVurl
p1000
Vhttps://www.google.com/gen_204?atyp=i&ct=&cad=&vet=10ahUKEwjAotLviKnTAhXM6oMKHXJDBC0Q5W0IOSgE..s&ei=4m_zWMCpCczVjwTyhpHoAg&zx=1492348900852
p1001
sVqueryString
p1002
(lp1003
(dp1004
Vname
p1005
Vatyp
p1006
sVvalue
p1007
g30
sa(dp1008
Vname
p1009
Vct
p1010
sVvalue
p1011
g4
sa(dp1012
Vname
p1013
Vcad
p1014
sVvalue
p1015
g4
sa(dp1016
Vname
p1017
Vvet
p1018
sVvalue
p1019
V10ahUKEwjAotLviKnTAhXM6oMKHXJDBC0Q5W0IOSgE..s
p1020
sa(dp1021
Vname
p1022
Vei
p1023
sVvalue
p1024
V4m_zWMCpCczVjwTyhpHoAg
p1025
sa(dp1026
Vname
p1027
Vzx
p1028
sVvalue
p1029
V1492348900852
p1030
sasVheaders
p1031
(lp1032
sVheadersSize
p1033
I656
sVbodySize
p1034
I0
sVmethod
p1035
VGET
p1036
sVhttpVersion
p1037
VHTTP/1.1
p1038
ssVtimings
p1039
(dp1040
Vcomment
p1041
g4
sVreceive
p1042
I0
sVsend
p1043
I0
sVssl
p1044
I32
sVconnect
p1045
I48
sVdns
p1046
I0
sVwait
p1047
I39
sVblocked
p1048
I0
ssVtime
p1049
I88
sVresponse
p1050
(dp1051
Vstatus
p1052
I204
sVcomment
p1053
g4
sVcookies
p1054
(lp1055
sVstatusText
p1056
VNo Content
p1057
sVcontent
p1058
(dp1059
VmimeType
p1060
Vtext/html; charset=UTF-8
p1061
sVcomment
p1062
g4
sVsize
p1063
I0
ssVheaders
p1064
(lp1065
sVheadersSize
p1066
I248
sVredirectURL
p1067
g4
sVbodySize
p1068
I0
sVhttpVersion
p1069
VHTTP/1.1
p1070
ssa(dp1071
Vcomment
p1072
g4
sVserverIPAddress
p1073
V216.58.216.206
p1074
sVpageref
p1075
VSaul Alinsky
p1076
sVstartedDateTime
p1077
V2017-04-16T08:21:40.905-05:00
p1078
sVcache
p1079
(dp1080
sVrequest
p1081
(dp1082
Vcomment
p1083
g4
sVcookies
p1084
(lp1085
sVurl
p1086
Vhttps://encrypted-tbn0.gstatic.com/images?q=tbn:ANd9GcTpkaCWpAvbdnTRWEN00aybtEG482QSZSNZRoG9T9oElhUnzcVqAEFipQ2Z95HWM0d8oNfD
p1087
sVqueryString
p1088
(lp1089
(dp1090
Vname
p1091
g415
sVvalue
p1092
Vtbn:ANd9GcTpkaCWpAvbdnTRWEN00aybtEG482QSZSNZRoG9T9oElhUnzcVqAEFipQ2Z95HWM0d8oNfD
p1093
sasVheaders
p1094
(lp1095
sVheadersSize
p1096
I439
sVbodySize
p1097
I0
sVmethod
p1098
VGET
p1099
sVhttpVersion
p1100
VHTTP/1.1
p1101
ssVtimings
p1102
(dp1103
Vcomment
p1104
g4
sVreceive
p1105
I2
sVsend
p1106
I0
sVssl
p1107
I-1
sVconnect
p1108
I-1
sVdns
p1109
I-1
sVwait
p1110
I27
sVblocked
p1111
I-1
ssVtime
p1112
I30
sVresponse
p1113
(dp1114
Vstatus
p1115
I200
sVcomment
p1116
g4
sVcookies
p1117
(lp1118
sVstatusText
p1119
VOK
p1120
sVcontent
p1121
(dp1122
VmimeType
p1123
Vimage/jpeg
p1124
sVcomment
p1125
g4
sVsize
p1126
I0
ssVheaders
p1127
(lp1128
sVheadersSize
p1129
I428
sVredirectURL
p1130
g4
sVbodySize
p1131
I6295
sVhttpVersion
p1132
VHTTP/1.1
p1133
ssa(dp1134
Vcomment
p1135
g4
sVserverIPAddress
p1136
V216.58.216.196
p1137
sVpageref
p1138
VSaul Alinsky
p1139
sVstartedDateTime
p1140
V2017-04-16T08:21:40.956-05:00
p1141
sVcache
p1142
(dp1143
sVrequest
p1144
(dp1145
Vcomment
p1146
g4
sVcookies
p1147
(lp1148
sVurl
p1149
Vhttps://www.google.com/gen_204?atyp=i&ct=&cad=&vet=10ahUKEwjAotLviKnTAhXM6oMKHXJDBC0QtxAIeygDMBM..s&ei=4m_zWMCpCczVjwTyhpHoAg&zx=1492348900905
p1150
sVqueryString
p1151
(lp1152
(dp1153
Vname
p1154
Vatyp
p1155
sVvalue
p1156
g30
sa(dp1157
Vname
p1158
Vct
p1159
sVvalue
p1160
g4
sa(dp1161
Vname
p1162
Vcad
p1163
sVvalue
p1164
g4
sa(dp1165
Vname
p1166
Vvet
p1167
sVvalue
p1168
V10ahUKEwjAotLviKnTAhXM6oMKHXJDBC0QtxAIeygDMBM..s
p1169
sa(dp1170
Vname
p1171
Vei
p1172
sVvalue
p1173
V4m_zWMCpCczVjwTyhpHoAg
p1174
sa(dp1175
Vname
p1176
Vzx
p1177
sVvalue
p1178
V1492348900905
p1179
sasVheaders
p1180
(lp1181
sVheadersSize
p1182
I659
sVbodySize
p1183
I0
sVmethod
p1184
VGET
p1185
sVhttpVersion
p1186
VHTTP/1.1
p1187
ssVtimings
p1188
(dp1189
Vcomment
p1190
g4
sVreceive
p1191
I0
sVsend
p1192
I0
sVssl
p1193
I24
sVconnect
p1194
I48
sVdns
p1195
I0
sVwait
p1196
I28
sVblocked
p1197
I0
ssVtime
p1198
I77
sVresponse
p1199
(dp1200
Vstatus
p1201
I204
sVcomment
p1202
g4
sVcookies
p1203
(lp1204
sVstatusText
p1205
VNo Content
p1206
sVcontent
p1207
(dp1208
VmimeType
p1209
Vtext/html; charset=UTF-8
p1210
sVcomment
p1211
g4
sVsize
p1212
I0
ssVheaders
p1213
(lp1214
sVheadersSize
p1215
I248
sVredirectURL
p1216
g4
sVbodySize
p1217
I0
sVhttpVersion
p1218
VHTTP/1.1
p1219
ssa(dp1220
Vcomment
p1221
g4
sVserverIPAddress
p1222
V216.58.216.196
p1223
sVpageref
p1224
VSaul Alinsky
p1225
sVstartedDateTime
p1226
V2017-04-16T08:21:40.995-05:00
p1227
sVcache
p1228
(dp1229
sVrequest
p1230
(dp1231
Vcomment
p1232
g4
sVcookies
p1233
(lp1234
sVurl
p1235
Vhttps://www.google.com/async/ampfp?vet=10ahUKEwjAotLviKnTAhXM6oMKHXJDBC0QtZoBCNUB..i&ei=4m_zWMCpCczVjwTyhpHoAg&yv=2&async=_id:ampfp-async,_pms:qs
p1236
sVqueryString
p1237
(lp1238
(dp1239
Vname
p1240
Vvet
p1241
sVvalue
p1242
V10ahUKEwjAotLviKnTAhXM6oMKHXJDBC0QtZoBCNUB..i
p1243
sa(dp1244
Vname
p1245
Vei
p1246
sVvalue
p1247
V4m_zWMCpCczVjwTyhpHoAg
p1248
sa(dp1249
Vname
p1250
Vyv
p1251
sVvalue
p1252
g64
sa(dp1253
Vname
p1254
Vasync
p1255
sVvalue
p1256
V_id:ampfp-async,_pms:qs
p1257
sasVheaders
p1258
(lp1259
sVheadersSize
p1260
I662
sVbodySize
p1261
I0
sVmethod
p1262
VGET
p1263
sVhttpVersion
p1264
VHTTP/1.1
p1265
ssVtimings
p1266
(dp1267
Vcomment
p1268
g4
sVreceive
p1269
I0
sVsend
p1270
I0
sVssl
p1271
I-1
sVconnect
p1272
I-1
sVdns
p1273
I-1
sVwait
p1274
I37
sVblocked
p1275
I-1
ssVtime
p1276
I38
sVresponse
p1277
(dp1278
Vstatus
p1279
I200
sVcomment
p1280
g4
sVcookies
p1281
(lp1282
sVstatusText
p1283
VOK
p1284
sVcontent
p1285
(dp1286
VmimeType
p1287
Vtext/html; charset=UTF-8
p1288
sVcomment
p1289
g4
sVsize
p1290
I0
ssVheaders
p1291
(lp1292
sVheadersSize
p1293
I383
sVredirectURL
p1294
g4
sVbodySize
p1295
I4523
sVhttpVersion
p1296
VHTTP/1.1
p1297
ssa(dp1298
Vcomment
p1299
g4
sVserverIPAddress
p1300
V216.58.216.193
p1301
sVpageref
p1302
VSaul Alinsky
p1303
sVstartedDateTime
p1304
V2017-04-16T08:21:40.996-05:00
p1305
sVcache
p1306
(dp1307
sVrequest
p1308
(dp1309
Vcomment
p1310
g4
sVcookies
p1311
(lp1312
sVurl
p1313
Vhttps://cdn.ampproject.org/preconnect.gif?0.5568769437325306
p1314
sVqueryString
p1315
(lp1316
(dp1317
Vname
p1318
V0.5568769437325306
p1319
sVvalue
p1320
g4
sasVheaders
p1321
(lp1322
sVheadersSize
p1323
I375
sVbodySize
p1324
I0
sVmethod
p1325
VGET
p1326
sVhttpVersion
p1327
VHTTP/1.1
p1328
ssVtimings
p1329
(dp1330
Vcomment
p1331
g4
sVreceive
p1332
I0
sVsend
p1333
I0
sVssl
p1334
I-1
sVconnect
p1335
I-1
sVdns
p1336
I-1
sVwait
p1337
I26
sVblocked
p1338
I-1
ssVtime
p1339
I26
sVresponse
p1340
(dp1341
Vstatus
p1342
I200
sVcomment
p1343
g4
sVcookies
p1344
(lp1345
sVstatusText
p1346
VOK
p1347
sVcontent
p1348
(dp1349
VmimeType
p1350
Vimage/gif
p1351
sVcomment
p1352
g4
sVsize
p1353
I0
ssVheaders
p1354
(lp1355
sVheadersSize
p1356
I826
sVredirectURL
p1357
g4
sVbodySize
p1358
I37
sVhttpVersion
p1359
VHTTP/1.1
p1360
ssa(dp1361
Vcomment
p1362
g4
sVserverIPAddress
p1363
V216.58.216.206
p1364
sVpageref
p1365
VSaul Alinsky
p1366
sVstartedDateTime
p1367
V2017-04-16T08:21:41.020-05:00
p1368
sVcache
p1369
(dp1370
sVrequest
p1371
(dp1372
Vcomment
p1373
g4
sVcookies
p1374
(lp1375
sVurl
p1376
Vhttps://encrypted-tbn1.gstatic.com/images?q=tbn:ANd9GcSGhYcn8qQFQPl7AZzDZj1dqqi6VWrnV6Lq3ewovwX4s4Q_-6AcCtD9N5o
p1377
sVqueryString
p1378
(lp1379
(dp1380
Vname
p1381
g415
sVvalue
p1382
Vtbn:ANd9GcSGhYcn8qQFQPl7AZzDZj1dqqi6VWrnV6Lq3ewovwX4s4Q_-6AcCtD9N5o
p1383
sasVheaders
p1384
(lp1385
sVheadersSize
p1386
I426
sVbodySize
p1387
I0
sVmethod
p1388
VGET
p1389
sVhttpVersion
p1390
VHTTP/1.1
p1391
ssVtimings
p1392
(dp1393
Vcomment
p1394
g4
sVreceive
p1395
I2
sVsend
p1396
I0
sVssl
p1397
I-1
sVconnect
p1398
I-1
sVdns
p1399
I-1
sVwait
p1400
I16
sVblocked
p1401
I-1
ssVtime
p1402
I19
sVresponse
p1403
(dp1404
Vstatus
p1405
I200
sVcomment
p1406
g4
sVcookies
p1407
(lp1408
sVstatusText
p1409
VOK
p1410
sVcontent
p1411
(dp1412
VmimeType
p1413
Vimage/jpeg
p1414
sVcomment
p1415
g4
sVsize
p1416
I0
ssVheaders
p1417
(lp1418
sVheadersSize
p1419
I428
sVredirectURL
p1420
g4
sVbodySize
p1421
I7321
sVhttpVersion
p1422
VHTTP/1.1
p1423
ssa(dp1424
Vcomment
p1425
g4
sVserverIPAddress
p1426
V216.58.216.206
p1427
sVpageref
p1428
VSaul Alinsky
p1429
sVstartedDateTime
p1430
V2017-04-16T08:21:41.020-05:00
p1431
sVcache
p1432
(dp1433
sVrequest
p1434
(dp1435
Vcomment
p1436
g4
sVcookies
p1437
(lp1438
sVurl
p1439
Vhttps://encrypted-tbn2.gstatic.com/images?q=tbn:ANd9GcSO7PO2QGxV-9WndDJIIgSHVHnhk9h7dh5qTtcgTDSFqAnB93Ol-Myfreyo
p1440
sVqueryString
p1441
(lp1442
(dp1443
Vname
p1444
g415
sVvalue
p1445
Vtbn:ANd9GcSO7PO2QGxV-9WndDJIIgSHVHnhk9h7dh5qTtcgTDSFqAnB93Ol-Myfreyo
p1446
sasVheaders
p1447
(lp1448
sVheadersSize
p1449
I427
sVbodySize
p1450
I0
sVmethod
p1451
VGET
p1452
sVhttpVersion
p1453
VHTTP/1.1
p1454
ssVtimings
p1455
(dp1456
Vcomment
p1457
g4
sVreceive
p1458
I1
sVsend
p1459
I0
sVssl
p1460
I-1
sVconnect
p1461
I-1
sVdns
p1462
I-1
sVwait
p1463
I32
sVblocked
p1464
I-1
ssVtime
p1465
I33
sVresponse
p1466
(dp1467
Vstatus
p1468
I200
sVcomment
p1469
g4
sVcookies
p1470
(lp1471
sVstatusText
p1472
VOK
p1473
sVcontent
p1474
(dp1475
VmimeType
p1476
Vimage/jpeg
p1477
sVcomment
p1478
g4
sVsize
p1479
I0
ssVheaders
p1480
(lp1481
sVheadersSize
p1482
I415
sVredirectURL
p1483
g4
sVbodySize
p1484
I8742
sVhttpVersion
p1485
VHTTP/1.1
p1486
ssa(dp1487
Vcomment
p1488
g4
sVserverIPAddress
p1489
V216.58.216.206
p1490
sVpageref
p1491
VSaul Alinsky
p1492
sVstartedDateTime
p1493
V2017-04-16T08:21:41.021-05:00
p1494
sVcache
p1495
(dp1496
sVrequest
p1497
(dp1498
Vcomment
p1499
g4
sVcookies
p1500
(lp1501
sVurl
p1502
Vhttps://encrypted-tbn3.gstatic.com/images?q=tbn:ANd9GcQGOrb8iI0HG_iy_a52Zn9vScX0g-RayIjrn71H-u9Tov4gYd0SpnlFZ4c_FA
p1503
sVqueryString
p1504
(lp1505
(dp1506
Vname
p1507
g415
sVvalue
p1508
Vtbn:ANd9GcQGOrb8iI0HG_iy_a52Zn9vScX0g-RayIjrn71H-u9Tov4gYd0SpnlFZ4c_FA
p1509
sasVheaders
p1510
(lp1511
sVheadersSize
p1512
I429
sVbodySize
p1513
I0
sVmethod
p1514
VGET
p1515
sVhttpVersion
p1516
VHTTP/1.1
p1517
ssVtimings
p1518
(dp1519
Vcomment
p1520
g4
sVreceive
p1521
I3
sVsend
p1522
I0
sVssl
p1523
I-1
sVconnect
p1524
I-1
sVdns
p1525
I-1
sVwait
p1526
I26
sVblocked
p1527
I-1
ssVtime
p1528
I30
sVresponse
p1529
(dp1530
Vstatus
p1531
I200
sVcomment
p1532
g4
sVcookies
p1533
(lp1534
sVstatusText
p1535
VOK
p1536
sVcontent
p1537
(dp1538
VmimeType
p1539
Vimage/jpeg
p1540
sVcomment
p1541
g4
sVsize
p1542
I0
ssVheaders
p1543
(lp1544
sVheadersSize
p1545
I416
sVredirectURL
p1546
g4
sVbodySize
p1547
I13246
sVhttpVersion
p1548
VHTTP/1.1
p1549
ssa(dp1550
Vcomment
p1551
g4
sVserverIPAddress
p1552
V216.58.216.196
p1553
sVpageref
p1554
VSaul Alinsky
p1555
sVstartedDateTime
p1556
V2017-04-16T08:21:41.190-05:00
p1557
sVcache
p1558
(dp1559
sVrequest
p1560
(dp1561
Vcomment
p1562
g4
sVcookies
p1563
(lp1564
sVurl
p1565
Vhttps://www.google.com/async/log_amp_item_set?vet=10ahUKEwia3sLwiKnTAhVr7YMKHbpXAmkQooQBCAE..i&ei=4m_zWMCpCczVjwTyhpHoAg&yv=2&async=num_items:1,_fmt:jspb
p1566
sVqueryString
p1567
(lp1568
(dp1569
Vname
p1570
Vvet
p1571
sVvalue
p1572
V10ahUKEwia3sLwiKnTAhVr7YMKHbpXAmkQooQBCAE..i
p1573
sa(dp1574
Vname
p1575
Vei
p1576
sVvalue
p1577
V4m_zWMCpCczVjwTyhpHoAg
p1578
sa(dp1579
Vname
p1580
Vyv
p1581
sVvalue
p1582
g64
sa(dp1583
Vname
p1584
Vasync
p1585
sVvalue
p1586
Vnum_items:1,_fmt:jspb
p1587
sasVheaders
p1588
(lp1589
sVheadersSize
p1590
I670
sVbodySize
p1591
I0
sVmethod
p1592
VGET
p1593
sVhttpVersion
p1594
VHTTP/1.1
p1595
ssVtimings
p1596
(dp1597
Vcomment
p1598
g4
sVreceive
p1599
I0
sVsend
p1600
I0
sVssl
p1601
I-1
sVconnect
p1602
I-1
sVdns
p1603
I-1
sVwait
p1604
I36
sVblocked
p1605
I-1
ssVtime
p1606
I36
sVresponse
p1607
(dp1608
Vstatus
p1609
I200
sVcomment
p1610
g4
sVcookies
p1611
(lp1612
sVstatusText
p1613
VOK
p1614
sVcontent
p1615
(dp1616
VmimeType
p1617
Vapplication/json; charset=UTF-8
p1618
sVcomment
p1619
g4
sVsize
p1620
I0
ssVheaders
p1621
(lp1622
sVheadersSize
p1623
I417
sVredirectURL
p1624
g4
sVbodySize
p1625
I132
sVhttpVersion
p1626
VHTTP/1.1
p1627
ssa(dp1628
Vcomment
p1629
g4
sVserverIPAddress
p1630
V216.58.216.193
p1631
sVpageref
p1632
VSaul Alinsky
p1633
sVstartedDateTime
p1634
V2017-04-16T08:21:41.393-05:00
p1635
sVcache
p1636
(dp1637
sVrequest
p1638
(dp1639
Vcomment
p1640
g4
sVcookies
p1641
(lp1642
sVurl
p1643
Vhttps://www-washingtonpost-com.cdn.ampproject.org/v/s/www.washingtonpost.com/amphtml/news/the-fix/wp/2016/07/20/hillary-clinton-saul-alinsky-and-lucifer-explained/?amp_js_v=9
p1644
sVqueryString
p1645
(lp1646
(dp1647
Vname
p1648
Vamp_js_v
p1649
sVvalue
p1650
V9
p1651
sasVheaders
p1652
(lp1653
sVheadersSize
p1654
I579
sVbodySize
p1655
I0
sVmethod
p1656
VGET
p1657
sVhttpVersion
p1658
VHTTP/1.1
p1659
ssVtimings
p1660
(dp1661
Vcomment
p1662
g4
sVreceive
p1663
I1
sVsend
p1664
I0
sVssl
p1665
I138
sVconnect
p1666
I155
sVdns
p1667
I35
sVwait
p1668
I90
sVblocked
p1669
I0
ssVtime
p1670
I283
sVresponse
p1671
(dp1672
Vstatus
p1673
I200
sVcomment
p1674
g4
sVcookies
p1675
(lp1676
sVstatusText
p1677
VOK
p1678
sVcontent
p1679
(dp1680
VmimeType
p1681
Vtext/html
p1682
sVcomment
p1683
g4
sVsize
p1684
I0
ssVheaders
p1685
(lp1686
sVheadersSize
p1687
I862
sVredirectURL
p1688
g4
sVbodySize
p1689
I13782
sVhttpVersion
p1690
VHTTP/1.1
p1691
ssa(dp1692
Vcomment
p1693
g4
sVserverIPAddress
p1694
V216.58.216.193
p1695
sVpageref
p1696
VSaul Alinsky
p1697
sVstartedDateTime
p1698
V2017-04-16T08:21:42.696-05:00
p1699
sVcache
p1700
(dp1701
sVrequest
p1702
(dp1703
Vcomment
p1704
g4
sVcookies
p1705
(lp1706
sVurl
p1707
Vhttps://img-washingtonpost-com.cdn.ampproject.org/i/s/img.washingtonpost.com/wp-apps/imrs.php?src=http://s3.amazonaws.com/posttv-thumbnails-prod/07-20-2016/t_1468983664712_name_carson_2.jpg&w=480&h=250
p1708
sVqueryString
p1709
(lp1710
(dp1711
Vname
p1712
Vsrc
p1713
sVvalue
p1714
Vhttp://s3.amazonaws.com/posttv-thumbnails-prod/07-20-2016/t_1468983664712_name_carson_2.jpg
p1715
sa(dp1716
Vname
p1717
Vw
p1718
sVvalue
p1719
V480
p1720
sa(dp1721
Vname
p1722
Vh
p1723
sVvalue
p1724
V250
p1725
sasVheaders
p1726
(lp1727
sVheadersSize
p1728
I667
sVbodySize
p1729
I0
sVmethod
p1730
VGET
p1731
sVhttpVersion
p1732
VHTTP/1.1
p1733
ssVtimings
p1734
(dp1735
Vcomment
p1736
g4
sVreceive
p1737
I0
sVsend
p1738
I0
sVssl
p1739
I707
sVconnect
p1740
I721
sVdns
p1741
I33
sVwait
p1742
I36
sVblocked
p1743
I0
ssVtime
p1744
I792
sVresponse
p1745
(dp1746
Vstatus
p1747
I200
sVcomment
p1748
g4
sVcookies
p1749
(lp1750
sVstatusText
p1751
VOK
p1752
sVcontent
p1753
(dp1754
VmimeType
p1755
Vimage/jpeg
p1756
sVcomment
p1757
g4
sVsize
p1758
I0
ssVheaders
p1759
(lp1760
sVheadersSize
p1761
I849
sVredirectURL
p1762
g4
sVbodySize
p1763
I12379
sVhttpVersion
p1764
VHTTP/1.1
p1765
ssa(dp1766
Vcomment
p1767
g4
sVserverIPAddress
p1768
V216.58.217.1
p1769
sVpageref
p1770
VSaul Alinsky
p1771
sVstartedDateTime
p1772
V2017-04-16T08:21:42.925-05:00
p1773
sVcache
p1774
(dp1775
sVrequest
p1776
(dp1777
Vcomment
p1778
g4
sVcookies
p1779
(lp1780
sVurl
p1781
Vhttps://js-washingtonpost-com.cdn.ampproject.org/i/s/js.washingtonpost.com/wp-stat/analytics/t.gif
p1782
sVqueryString
p1783
(lp1784
sVheaders
p1785
(lp1786
sVheadersSize
p1787
I614
sVbodySize
p1788
I0
sVmethod
p1789
VGET
p1790
sVhttpVersion
p1791
VHTTP/1.1
p1792
ssVtimings
p1793
(dp1794
Vcomment
p1795
g4
sVreceive
p1796
I0
sVsend
p1797
I0
sVssl
p1798
I910
sVconnect
p1799
I949
sVdns
p1800
I32
sVwait
p1801
I51
sVblocked
p1802
I0
ssVtime
p1803
I1034
sVresponse
p1804
(dp1805
Vstatus
p1806
I304
sVcomment
p1807
g4
sVcookies
p1808
(lp1809
sVstatusText
p1810
VNot Modified
p1811
sVcontent
p1812
(dp1813
VmimeType
p1814
Vimage/png
p1815
sVcomment
p1816
g4
sVsize
p1817
I0
ssVheaders
p1818
(lp1819
sVheadersSize
p1820
I344
sVredirectURL
p1821
g4
sVbodySize
p1822
I0
sVhttpVersion
p1823
VHTTP/1.1
p1824
ssa(dp1825
Vcomment
p1826
g4
sVserverIPAddress
p1827
V216.58.216.193
p1828
sVpageref
p1829
VSaul Alinsky
p1830
sVstartedDateTime
p1831
V2017-04-16T08:21:42.947-05:00
p1832
sVcache
p1833
(dp1834
sVrequest
p1835
(dp1836
Vcomment
p1837
g4
sVcookies
p1838
(lp1839
sVurl
p1840
Vhttps://css-washingtonpost-com.cdn.ampproject.org/r/s/css.washingtonpost.com/wp-stat/wapo-sass-assets/fonts/Font-Awesome/fontawesome-webfont.woff
p1841
sVqueryString
p1842
(lp1843
sVheaders
p1844
(lp1845
sVheadersSize
p1846
I774
sVbodySize
p1847
I0
sVmethod
p1848
VGET
p1849
sVhttpVersion
p1850
VHTTP/1.1
p1851
ssVtimings
p1852
(dp1853
Vcomment
p1854
g4
sVreceive
p1855
I0
sVsend
p1856
I0
sVssl
p1857
I1362
sVconnect
p1858
I1375
sVdns
p1859
I34
sVwait
p1860
I182
sVblocked
p1861
I0
ssVtime
p1862
I1593
sVresponse
p1863
(dp1864
Vstatus
p1865
I304
sVcomment
p1866
g4
sVcookies
p1867
(lp1868
sVstatusText
p1869
VNot Modified
p1870
sVcontent
p1871
(dp1872
VmimeType
p1873
Vapplication/font-woff
p1874
sVcomment
p1875
g4
sVsize
p1876
I0
ssVheaders
p1877
(lp1878
sVheadersSize
p1879
I356
sVredirectURL
p1880
g4
sVbodySize
p1881
I0
sVhttpVersion
p1882
VHTTP/1.1
p1883
ssa(dp1884
Vcomment
p1885
g4
sVserverIPAddress
p1886
V216.58.216.196
p1887
sVpageref
p1888
VSaul Alinsky
p1889
sVstartedDateTime
p1890
V2017-04-16T08:21:42.966-05:00
p1891
sVcache
p1892
(dp1893
sVrequest
p1894
(dp1895
Vcomment
p1896
g4
sVcookies
p1897
(lp1898
sVurl
p1899
Vhttps://www.google.com/gen_204?atyp=i&ct=slh&cad=&ei=1G_zWIC5F8rCjwTxz4f4Dw&m=V&t=C&s=1&v=2&pv=0.2625418620610255&me=1:1492348887452,x:4,V,0,0,1280,944:0,N,1,1G_zWIC5F8rCjwTxz4f4Dw:0,R,1,24,8,155,1249,731:0,R,1,25,8,155,1249,731:0,R,1,28,8,168,1249,40:0,R,1,41,8,219,1249,178:0,R,1,44,0,235,1265,197:0,R,1,84,8,414,1249,40:0,R,1,85,24,414,1217,40:0,R,1,88,8,470,1249,20:0,R,1,91,8,498,1249,20:0,R,1,119,8,538,1249,295:0,R,1,120,0,583,1265,270:0,R,1,161,8,896,1249,201:0,R,1,162,24,896,1217,190:4,B,3645:10936,e,U&zx=1492348902965
p1900
sVqueryString
p1901
(lp1902
(dp1903
Vname
p1904
Vatyp
p1905
sVvalue
p1906
g30
sa(dp1907
Vname
p1908
Vct
p1909
sVvalue
p1910
Vslh
p1911
sa(dp1912
Vname
p1913
Vcad
p1914
sVvalue
p1915
g4
sa(dp1916
Vname
p1917
Vei
p1918
sVvalue
p1919
V1G_zWIC5F8rCjwTxz4f4Dw
p1920
sa(dp1921
Vname
p1922
g47
sVvalue
p1923
g49
sa(dp1924
Vname
p1925
g52
sVvalue
p1926
g54
sa(dp1927
Vname
p1928
g57
sVvalue
p1929
g59
sa(dp1930
Vname
p1931
g62
sVvalue
p1932
g64
sa(dp1933
Vname
p1934
Vpv
p1935
sVvalue
p1936
V0.2625418620610255
p1937
sa(dp1938
Vname
p1939
Vme
p1940
sVvalue
p1941
V1:1492348887452,x:4,V,0,0,1280,944:0,N,1,1G_zWIC5F8rCjwTxz4f4Dw:0,R,1,24,8,155,1249,731:0,R,1,25,8,155,1249,731:0,R,1,28,8,168,1249,40:0,R,1,41,8,219,1249,178:0,R,1,44,0,235,1265,197:0,R,1,84,8,414,1249,40:0,R,1,85,24,414,1217,40:0,R,1,88,8,470,1249,20:0,R,1,91,8,498,1249,20:0,R,1,119,8,538,1249,295:0,R,1,120,0,583,1265,270:0,R,1,161,8,896,1249,201:0,R,1,162,24,896,1217,190:4,B,3645:10936,e,U
p1942
sa(dp1943
Vname
p1944
Vzx
p1945
sVvalue
p1946
V1492348902965
p1947
sasVheaders
p1948
(lp1949
sVheadersSize
p1950
I1046
sVbodySize
p1951
I0
sVmethod
p1952
VGET
p1953
sVhttpVersion
p1954
VHTTP/1.1
p1955
ssVtimings
p1956
(dp1957
Vcomment
p1958
g4
sVreceive
p1959
I0
sVsend
p1960
I0
sVssl
p1961
I-1
sVconnect
p1962
I-1
sVdns
p1963
I-1
sVwait
p1964
I162
sVblocked
p1965
I-1
ssVtime
p1966
I163
sVresponse
p1967
(dp1968
Vstatus
p1969
I204
sVcomment
p1970
g4
sVcookies
p1971
(lp1972
sVstatusText
p1973
VNo Content
p1974
sVcontent
p1975
(dp1976
VmimeType
p1977
Vtext/html; charset=UTF-8
p1978
sVcomment
p1979
g4
sVsize
p1980
I0
ssVheaders
p1981
(lp1982
sVheadersSize
p1983
I248
sVredirectURL
p1984
g4
sVbodySize
p1985
I0
sVhttpVersion
p1986
VHTTP/1.1
p1987
ssa(dp1988
Vcomment
p1989
g4
sVserverIPAddress
p1990
V216.58.216.196
p1991
sVpageref
p1992
VSaul Alinsky
p1993
sVstartedDateTime
p1994
V2017-04-16T08:21:43.172-05:00
p1995
sVcache
p1996
(dp1997
sVrequest
p1998
(dp1999
Vcomment
p2000
g4
sVcookies
p2001
(lp2002
sVurl
p2003
Vhttps://www.google.com/gen_204?s=web&atyp=csi&ei=4m_zWMCpCczVjwTyhpHoAg&imc=34&imn=34&imp=16&adh=&xjs=init.59.14.sb_mob.50.dvl.4.c.1.mbsf.1.jsa.1&ima=11&rt=prt.793,iml.880,xjsls.794,dcl.1000,xjses.1067,xjsee.1343,xjs.1344,qiml.1954,ol.3900,aft.880,wsrt.108,cst.0,dnst.0,rqst.1081,rspt.993,rqstt.2,unt.2,cstt.2,dit.1103
p2004
sVqueryString
p2005
(lp2006
(dp2007
Vname
p2008
g57
sVvalue
p2009
Vweb
p2010
sa(dp2011
Vname
p2012
Vatyp
p2013
sVvalue
p2014
Vcsi
p2015
sa(dp2016
Vname
p2017
Vei
p2018
sVvalue
p2019
V4m_zWMCpCczVjwTyhpHoAg
p2020
sa(dp2021
Vname
p2022
Vimc
p2023
sVvalue
p2024
V34
p2025
sa(dp2026
Vname
p2027
Vimn
p2028
sVvalue
p2029
V34
p2030
sa(dp2031
Vname
p2032
Vimp
p2033
sVvalue
p2034
V16
p2035
sa(dp2036
Vname
p2037
Vadh
p2038
sVvalue
p2039
g4
sa(dp2040
Vname
p2041
Vxjs
p2042
sVvalue
p2043
Vinit.59.14.sb_mob.50.dvl.4.c.1.mbsf.1.jsa.1
p2044
sa(dp2045
Vname
p2046
Vima
p2047
sVvalue
p2048
V11
p2049
sa(dp2050
Vname
p2051
Vrt
p2052
sVvalue
p2053
Vprt.793,iml.880,xjsls.794,dcl.1000,xjses.1067,xjsee.1343,xjs.1344,qiml.1954,ol.3900,aft.880,wsrt.108,cst.0,dnst.0,rqst.1081,rspt.993,rqstt.2,unt.2,cstt.2,dit.1103
p2054
sasVheaders
p2055
(lp2056
sVheadersSize
p2057
I835
sVbodySize
p2058
I0
sVmethod
p2059
VGET
p2060
sVhttpVersion
p2061
VHTTP/1.1
p2062
ssVtimings
p2063
(dp2064
Vcomment
p2065
g4
sVreceive
p2066
I0
sVsend
p2067
I0
sVssl
p2068
I-1
sVconnect
p2069
I-1
sVdns
p2070
I-1
sVwait
p2071
I24
sVblocked
p2072
I-1
ssVtime
p2073
I25
sVresponse
p2074
(dp2075
Vstatus
p2076
I204
sVcomment
p2077
g4
sVcookies
p2078
(lp2079
sVstatusText
p2080
VNo Content
p2081
sVcontent
p2082
(dp2083
VmimeType
p2084
Vtext/html; charset=UTF-8
p2085
sVcomment
p2086
g4
sVsize
p2087
I0
ssVheaders
p2088
(lp2089
sVheadersSize
p2090
I248
sVredirectURL
p2091
g4
sVbodySize
p2092
I0
sVhttpVersion
p2093
VHTTP/1.1
p2094
ssasVversion
p2095
V1.2
p2096
sVpages
p2097
(lp2098
(dp2099
VpageTimings
p2100
(dp2101
Vcomment
p2102
g4
ssVcomment
p2103
g4
sVtitle
p2104
VSaul Alinsky
p2105
sVid
p2106
VSaul Alinsky
p2107
sVstartedDateTime
p2108
V2017-04-16T08:21:38.390-05:00
p2109
sasVcreator
p2110
(dp2111
Vcomment
p2112
g4
sVversion
p2113
V2.1.4
p2114
sVname
p2115
VBrowserMob Proxy
p2116
sss.