(dp0
Vlog
p1
(dp2
Vcomment
p3
V
p4
sVentries
p5
(lp6
(dp7
Vcomment
p8
g4
sVserverIPAddress
p9
V216.58.216.196
p10
sVpageref
p11
VMarcell Ozuna
p12
sVstartedDateTime
p13
V2017-04-16T08:22:28.265-05:00
p14
sVcache
p15
(dp16
sVrequest
p17
(dp18
Vcomment
p19
g4
sVcookies
p20
(lp21
sVurl
p22
Vhttps://www.google.com/gen_204?atyp=i&ct=slh&cad=&ei=CHDzWN_vN8qYjwS5yo-gDw&m=V&t=C&s=1&v=2&pv=0.055698064612576204&me=1:1492348941033,x:2,V,0,0,1280,944:0,N,1,CHDzWN_vN8qYjwS5yo-gDw:0,R,1,24,8,155,1249,251:0,R,1,34,8,416,1249,417:0,R,1,35,8,416,1249,417:0,R,1,38,8,429,1249,40:0,R,1,51,8,481,1249,178:0,R,1,54,0,497,1265,197:0,R,1,94,8,676,1249,20:0,R,1,95,24,676,1217,20:0,R,1,101,8,712,1249,20:0,R,1,103,8,740,1249,20:0,R,1,141,8,843,1249,201:0,R,1,142,24,843,1217,190:3,B,3193:7225,e,U&zx=1492348948263
p23
sVqueryString
p24
(lp25
(dp26
Vname
p27
Vatyp
p28
sVvalue
p29
Vi
p30
sa(dp31
Vname
p32
Vct
p33
sVvalue
p34
Vslh
p35
sa(dp36
Vname
p37
Vcad
p38
sVvalue
p39
g4
sa(dp40
Vname
p41
Vei
p42
sVvalue
p43
VCHDzWN_vN8qYjwS5yo-gDw
p44
sa(dp45
Vname
p46
Vm
p47
sVvalue
p48
VV
p49
sa(dp50
Vname
p51
Vt
p52
sVvalue
p53
VC
p54
sa(dp55
Vname
p56
Vs
p57
sVvalue
p58
V1
p59
sa(dp60
Vname
p61
Vv
p62
sVvalue
p63
V2
p64
sa(dp65
Vname
p66
Vpv
p67
sVvalue
p68
V0.055698064612576204
p69
sa(dp70
Vname
p71
Vme
p72
sVvalue
p73
V1:1492348941033,x:2,V,0,0,1280,944:0,N,1,CHDzWN_vN8qYjwS5yo-gDw:0,R,1,24,8,155,1249,251:0,R,1,34,8,416,1249,417:0,R,1,35,8,416,1249,417:0,R,1,38,8,429,1249,40:0,R,1,51,8,481,1249,178:0,R,1,54,0,497,1265,197:0,R,1,94,8,676,1249,20:0,R,1,95,24,676,1217,20:0,R,1,101,8,712,1249,20:0,R,1,103,8,740,1249,20:0,R,1,141,8,843,1249,201:0,R,1,142,24,843,1217,190:3,B,3193:7225,e,U
p74
sa(dp75
Vname
p76
Vzx
p77
sVvalue
p78
V1492348948263
p79
sasVheaders
p80
(lp81
sVheadersSize
p82
I1023
sVbodySize
p83
I0
sVmethod
p84
VGET
p85
sVhttpVersion
p86
VHTTP/1.1
p87
ssVtimings
p88
(dp89
Vcomment
p90
g4
sVreceive
p91
I0
sVsend
p92
I0
sVssl
p93
I-1
sVconnect
p94
I-1
sVdns
p95
I-1
sVwait
p96
I0
sVblocked
p97
I-1
ssVtime
p98
I0
sVresponse
p99
(dp100
Vstatus
p101
I0
sVcomment
p102
g4
sVcookies
p103
(lp104
sV_error
p105
VNo response received
p106
sVstatusText
p107
g4
sVcontent
p108
(dp109
VmimeType
p110
g4
sVcomment
p111
g4
sVsize
p112
I0
ssVheaders
p113
(lp114
sVheadersSize
p115
I-1
sVredirectURL
p116
g4
sVbodySize
p117
I-1
sVhttpVersion
p118
Vunknown
p119
ssa(dp120
Vcomment
p121
g4
sVserverIPAddress
p122
V216.58.216.196
p123
sVpageref
p124
VMarcell Ozuna
p125
sVstartedDateTime
p126
V2017-04-16T08:22:28.269-05:00
p127
sVcache
p128
(dp129
sVrequest
p130
(dp131
Vcomment
p132
g4
sVcookies
p133
(lp134
sVurl
p135
Vhttp://www.google.com/
p136
sVqueryString
p137
(lp138
sVheaders
p139
(lp140
sVheadersSize
p141
I613
sVbodySize
p142
I0
sVmethod
p143
VGET
p144
sVhttpVersion
p145
VHTTP/1.1
p146
ssVtimings
p147
(dp148
Vcomment
p149
g4
sVreceive
p150
I0
sVsend
p151
I0
sVssl
p152
I-1
sVconnect
p153
I-1
sVdns
p154
I-1
sVwait
p155
I56
sVblocked
p156
I-1
ssVtime
p157
I56
sVresponse
p158
(dp159
Vstatus
p160
I302
sVcomment
p161
g4
sVcookies
p162
(lp163
sVstatusText
p164
VFound
p165
sVcontent
p166
(dp167
VmimeType
p168
Vtext/html; charset=UTF-8
p169
sVcomment
p170
g4
sVsize
p171
I0
ssVheaders
p172
(lp173
sVheadersSize
p174
I609
sVredirectURL
p175
Vhttps://www.google.com/?gws_rd=ssl
p176
sVbodySize
p177
I231
sVhttpVersion
p178
VHTTP/1.1
p179
ssa(dp180
Vcomment
p181
g4
sVserverIPAddress
p182
V216.58.216.196
p183
sVpageref
p184
VMarcell Ozuna
p185
sVstartedDateTime
p186
V2017-04-16T08:22:28.333-05:00
p187
sVcache
p188
(dp189
sVrequest
p190
(dp191
Vcomment
p192
g4
sVcookies
p193
(lp194
sVurl
p195
Vhttps://www.google.com/?gws_rd=ssl
p196
sVqueryString
p197
(lp198
(dp199
Vname
p200
Vgws_rd
p201
sVvalue
p202
Vssl
p203
sasVheaders
p204
(lp205
sVheadersSize
p206
I607
sVbodySize
p207
I0
sVmethod
p208
VGET
p209
sVhttpVersion
p210
VHTTP/1.1
p211
ssVtimings
p212
(dp213
Vcomment
p214
g4
sVreceive
p215
I20
sVsend
p216
I0
sVssl
p217
I-1
sVconnect
p218
I-1
sVdns
p219
I-1
sVwait
p220
I77
sVblocked
p221
I-1
ssVtime
p222
I98
sVresponse
p223
(dp224
Vstatus
p225
I200
sVcomment
p226
g4
sVcookies
p227
(lp228
sVstatusText
p229
VOK
p230
sVcontent
p231
(dp232
VmimeType
p233
Vtext/html; charset=UTF-8
p234
sVcomment
p235
g4
sVsize
p236
I0
ssVheaders
p237
(lp238
sVheadersSize
p239
I721
sVredirectURL
p240
g4
sVbodySize
p241
I34290
sVhttpVersion
p242
VHTTP/1.1
p243
ssa(dp244
Vcomment
p245
g4
sVserverIPAddress
p246
V216.58.216.196
p247
sVpageref
p248
VMarcell Ozuna
p249
sVstartedDateTime
p250
V2017-04-16T08:22:28.819-05:00
p251
sVcache
p252
(dp253
sVrequest
p254
(dp255
Vcomment
p256
g4
sVcookies
p257
(lp258
sVurl
p259
Vhttps://www.google.com/gen_204?s=mobilewebhp&atyp=csi&ei=E3DzWMa-FOSkjwTzuKnADA&imc=1&imn=1&imp=0&adh=&xjs=init.45.12.sb_mob.34.dvl.4.c.2.mbsf.2.jsa.1&ima=1&rt=xjsls.12,prt.13,iml.13,dcl.48,xjses.117,xjsee.243,xjs.243,ol.355,aft.13,wsrt.192,cst.0,dnst.0,rqst.101,rspt.21,rqstt.69,unt.66,cstt.66,dit.234
p260
sVqueryString
p261
(lp262
(dp263
Vname
p264
g57
sVvalue
p265
Vmobilewebhp
p266
sa(dp267
Vname
p268
Vatyp
p269
sVvalue
p270
Vcsi
p271
sa(dp272
Vname
p273
Vei
p274
sVvalue
p275
VE3DzWMa-FOSkjwTzuKnADA
p276
sa(dp277
Vname
p278
Vimc
p279
sVvalue
p280
g59
sa(dp281
Vname
p282
Vimn
p283
sVvalue
p284
g59
sa(dp285
Vname
p286
Vimp
p287
sVvalue
p288
V0
p289
sa(dp290
Vname
p291
Vadh
p292
sVvalue
p293
g4
sa(dp294
Vname
p295
Vxjs
p296
sVvalue
p297
Vinit.45.12.sb_mob.34.dvl.4.c.2.mbsf.2.jsa.1
p298
sa(dp299
Vname
p300
Vima
p301
sVvalue
p302
g59
sa(dp303
Vname
p304
Vrt
p305
sVvalue
p306
Vxjsls.12,prt.13,iml.13,dcl.48,xjses.117,xjsee.243,xjs.243,ol.355,aft.13,wsrt.192,cst.0,dnst.0,rqst.101,rspt.21,rqstt.69,unt.66,cstt.66,dit.234
p307
sasVheaders
p308
(lp309
sVheadersSize
p310
I830
sVbodySize
p311
I0
sVmethod
p312
VGET
p313
sVhttpVersion
p314
VHTTP/1.1
p315
ssVtimings
p316
(dp317
Vcomment
p318
g4
sVreceive
p319
I0
sVsend
p320
I0
sVssl
p321
I-1
sVconnect
p322
I-1
sVdns
p323
I-1
sVwait
p324
I25
sVblocked
p325
I-1
ssVtime
p326
I25
sVresponse
p327
(dp328
Vstatus
p329
I204
sVcomment
p330
g4
sVcookies
p331
(lp332
sVstatusText
p333
VNo Content
p334
sVcontent
p335
(dp336
VmimeType
p337
Vtext/html; charset=UTF-8
p338
sVcomment
p339
g4
sVsize
p340
I0
ssVheaders
p341
(lp342
sVheadersSize
p343
I248
sVredirectURL
p344
g4
sVbodySize
p345
I0
sVhttpVersion
p346
VHTTP/1.1
p347
ssa(dp348
Vcomment
p349
g4
sVserverIPAddress
p350
V216.58.216.196
p351
sVpageref
p352
VMarcell Ozuna
p353
sVstartedDateTime
p354
V2017-04-16T08:22:28.950-05:00
p355
sVcache
p356
(dp357
sVrequest
p358
(dp359
Vcomment
p360
g4
sVcookies
p361
(lp362
sVurl
p363
Vhttps://www.google.com/complete/search?client=mobile-gws-hp&hl=en&gs_rn=64&gs_ri=mobile-gws-hp&sla=1&pfq=marcia%20clark&gm=602&cp=0&gs_id=1&xhr=t&q=M&tch=1&ech=1&psi=E3DzWMa-FOSkjwTzuKnADA.1492348948655.1
p364
sVqueryString
p365
(lp366
(dp367
Vname
p368
Vclient
p369
sVvalue
p370
Vmobile-gws-hp
p371
sa(dp372
Vname
p373
Vhl
p374
sVvalue
p375
Ven
p376
sa(dp377
Vname
p378
Vgs_rn
p379
sVvalue
p380
V64
p381
sa(dp382
Vname
p383
Vgs_ri
p384
sVvalue
p385
Vmobile-gws-hp
p386
sa(dp387
Vname
p388
Vsla
p389
sVvalue
p390
g59
sa(dp391
Vname
p392
Vpfq
p393
sVvalue
p394
Vmarcia clark
p395
sa(dp396
Vname
p397
Vgm
p398
sVvalue
p399
V602
p400
sa(dp401
Vname
p402
Vcp
p403
sVvalue
p404
g289
sa(dp405
Vname
p406
Vgs_id
p407
sVvalue
p408
g59
sa(dp409
Vname
p410
Vxhr
p411
sVvalue
p412
g52
sa(dp413
Vname
p414
Vq
p415
sVvalue
p416
VM
p417
sa(dp418
Vname
p419
Vtch
p420
sVvalue
p421
g59
sa(dp422
Vname
p423
Vech
p424
sVvalue
p425
g59
sa(dp426
Vname
p427
Vpsi
p428
sVvalue
p429
VE3DzWMa-FOSkjwTzuKnADA.1492348948655.1
p430
sasVheaders
p431
(lp432
sVheadersSize
p433
I732
sVbodySize
p434
I0
sVmethod
p435
VGET
p436
sVhttpVersion
p437
VHTTP/1.1
p438
ssVtimings
p439
(dp440
Vcomment
p441
g4
sVreceive
p442
I0
sVsend
p443
I0
sVssl
p444
I-1
sVconnect
p445
I-1
sVdns
p446
I-1
sVwait
p447
I0
sVblocked
p448
I-1
ssVtime
p449
I0
sVresponse
p450
(dp451
Vstatus
p452
I0
sVcomment
p453
g4
sVcookies
p454
(lp455
sV_error
p456
VNo response received
p457
sVstatusText
p458
g4
sVcontent
p459
(dp460
VmimeType
p461
g4
sVcomment
p462
g4
sVsize
p463
I0
ssVheaders
p464
(lp465
sVheadersSize
p466
I-1
sVredirectURL
p467
g4
sVbodySize
p468
I-1
sVhttpVersion
p469
Vunknown
p470
ssa(dp471
Vcomment
p472
g4
sVserverIPAddress
p473
V216.58.216.196
p474
sVpageref
p475
VMarcell Ozuna
p476
sVstartedDateTime
p477
V2017-04-16T08:22:29.047-05:00
p478
sVcache
p479
(dp480
sVrequest
p481
(dp482
Vcomment
p483
g4
sVcookies
p484
(lp485
sVurl
p486
Vhttps://www.google.com/search?site=&source=hp&ei=E3DzWMa-FOSkjwTzuKnADA&q=Marcell+Ozuna&oq=Marcell+Ozuna&gs_l=mobile-gws-hp.3...253.320.0.348.13.1.0.0.0.0.0.0..0.0....0...1c.1.64.mobile-gws-hp..13.0.0.Fb_vjpf-Opk
p487
sVqueryString
p488
(lp489
(dp490
Vname
p491
Vsite
p492
sVvalue
p493
g4
sa(dp494
Vname
p495
Vsource
p496
sVvalue
p497
Vhp
p498
sa(dp499
Vname
p500
Vei
p501
sVvalue
p502
VE3DzWMa-FOSkjwTzuKnADA
p503
sa(dp504
Vname
p505
g415
sVvalue
p506
VMarcell Ozuna
p507
sa(dp508
Vname
p509
Voq
p510
sVvalue
p511
VMarcell Ozuna
p512
sa(dp513
Vname
p514
Vgs_l
p515
sVvalue
p516
Vmobile-gws-hp.3...253.320.0.348.13.1.0.0.0.0.0.0..0.0....0...1c.1.64.mobile-gws-hp..13.0.0.Fb_vjpf-Opk
p517
sasVheaders
p518
(lp519
sVheadersSize
p520
I830
sVbodySize
p521
I0
sVmethod
p522
VGET
p523
sVhttpVersion
p524
VHTTP/1.1
p525
ssVtimings
p526
(dp527
Vcomment
p528
g4
sVreceive
p529
I670
sVsend
p530
I0
sVssl
p531
I-1
sVconnect
p532
I-1
sVdns
p533
I-1
sVwait
p534
I96
sVblocked
p535
I-1
ssVtime
p536
I766
sVresponse
p537
(dp538
Vstatus
p539
I200
sVcomment
p540
g4
sVcookies
p541
(lp542
sVstatusText
p543
VOK
p544
sVcontent
p545
(dp546
VmimeType
p547
Vtext/html; charset=UTF-8
p548
sVcomment
p549
g4
sVsize
p550
I0
ssVheaders
p551
(lp552
sVheadersSize
p553
I363
sVredirectURL
p554
g4
sVbodySize
p555
I103318
sVhttpVersion
p556
VHTTP/1.1
p557
ssa(dp558
Vcomment
p559
g4
sVserverIPAddress
p560
V216.58.216.196
p561
sVpageref
p562
VMarcell Ozuna
p563
sVstartedDateTime
p564
V2017-04-16T08:22:30.787-05:00
p565
sVcache
p566
(dp567
sVrequest
p568
(dp569
Vcomment
p570
g4
sVcookies
p571
(lp572
sVurl
p573
Vhttps://www.google.com/async/irc?vet=10ahUKEwjJtbeHianTAhVm2IMKHbLvAm8Qo0EI1QE..i&ved=0ahUKEwjJtbeHianTAhVm2IMKHbLvAm8Qo0EI1QE&ei=FHDzWMnbAuawjwSy34v4Bg&yv=2&async=iu:1,ved:0ahUKEwjJtbeHianTAhVm2IMKHbLvAm8Qo0EI1QE,_id:irc_async,_pms:qs
p574
sVqueryString
p575
(lp576
(dp577
Vname
p578
Vvet
p579
sVvalue
p580
V10ahUKEwjJtbeHianTAhVm2IMKHbLvAm8Qo0EI1QE..i
p581
sa(dp582
Vname
p583
Vved
p584
sVvalue
p585
V0ahUKEwjJtbeHianTAhVm2IMKHbLvAm8Qo0EI1QE
p586
sa(dp587
Vname
p588
Vei
p589
sVvalue
p590
VFHDzWMnbAuawjwSy34v4Bg
p591
sa(dp592
Vname
p593
Vyv
p594
sVvalue
p595
g64
sa(dp596
Vname
p597
Vasync
p598
sVvalue
p599
Viu:1,ved:0ahUKEwjJtbeHianTAhVm2IMKHbLvAm8Qo0EI1QE,_id:irc_async,_pms:qs
p600
sasVheaders
p601
(lp602
sVheadersSize
p603
I752
sVbodySize
p604
I0
sVmethod
p605
VGET
p606
sVhttpVersion
p607
VHTTP/1.1
p608
ssVtimings
p609
(dp610
Vcomment
p611
g4
sVreceive
p612
I85
sVsend
p613
I0
sVssl
p614
I-1
sVconnect
p615
I-1
sVdns
p616
I-1
sVwait
p617
I143
sVblocked
p618
I-1
ssVtime
p619
I228
sVresponse
p620
(dp621
Vstatus
p622
I200
sVcomment
p623
g4
sVcookies
p624
(lp625
sVstatusText
p626
VOK
p627
sVcontent
p628
(dp629
VmimeType
p630
Vtext/html; charset=UTF-8
p631
sVcomment
p632
g4
sVsize
p633
I0
ssVheaders
p634
(lp635
sVheadersSize
p636
I383
sVredirectURL
p637
g4
sVbodySize
p638
I7788
sVhttpVersion
p639
VHTTP/1.1
p640
ssa(dp641
Vcomment
p642
g4
sVserverIPAddress
p643
V216.58.216.196
p644
sVpageref
p645
VMarcell Ozuna
p646
sVstartedDateTime
p647
V2017-04-16T08:22:30.806-05:00
p648
sVcache
p649
(dp650
sVrequest
p651
(dp652
Vcomment
p653
g4
sVcookies
p654
(lp655
sVurl
p656
Vhttps://www.google.com/gen_204?atyp=i&ct=&cad=&vet=10ahUKEwjJtbeHianTAhVm2IMKHbLvAm8Q5W0IPSgC..s&ei=FHDzWMnbAuawjwSy34v4Bg&zx=1492348950801
p657
sVqueryString
p658
(lp659
(dp660
Vname
p661
Vatyp
p662
sVvalue
p663
g30
sa(dp664
Vname
p665
Vct
p666
sVvalue
p667
g4
sa(dp668
Vname
p669
Vcad
p670
sVvalue
p671
g4
sa(dp672
Vname
p673
Vvet
p674
sVvalue
p675
V10ahUKEwjJtbeHianTAhVm2IMKHbLvAm8Q5W0IPSgC..s
p676
sa(dp677
Vname
p678
Vei
p679
sVvalue
p680
VFHDzWMnbAuawjwSy34v4Bg
p681
sa(dp682
Vname
p683
Vzx
p684
sVvalue
p685
V1492348950801
p686
sasVheaders
p687
(lp688
sVheadersSize
p689
I656
sVbodySize
p690
I0
sVmethod
p691
VGET
p692
sVhttpVersion
p693
VHTTP/1.1
p694
ssVtimings
p695
(dp696
Vcomment
p697
g4
sVreceive
p698
I0
sVsend
p699
I0
sVssl
p700
I-1
sVconnect
p701
I-1
sVdns
p702
I-1
sVwait
p703
I104
sVblocked
p704
I-1
ssVtime
p705
I104
sVresponse
p706
(dp707
Vstatus
p708
I204
sVcomment
p709
g4
sVcookies
p710
(lp711
sVstatusText
p712
VNo Content
p713
sVcontent
p714
(dp715
VmimeType
p716
Vtext/html; charset=UTF-8
p717
sVcomment
p718
g4
sVsize
p719
I0
ssVheaders
p720
(lp721
sVheadersSize
p722
I248
sVredirectURL
p723
g4
sVbodySize
p724
I0
sVhttpVersion
p725
VHTTP/1.1
p726
ssa(dp727
Vcomment
p728
g4
sVserverIPAddress
p729
V216.58.216.196
p730
sVpageref
p731
VMarcell Ozuna
p732
sVstartedDateTime
p733
V2017-04-16T08:22:30.816-05:00
p734
sVcache
p735
(dp736
sVrequest
p737
(dp738
Vcomment
p739
g4
sVcookies
p740
(lp741
sVurl
p742
Vhttps://www.google.com/gen_204?atyp=i&ct=&cad=&vet=10ahUKEwjJtbeHianTAhVm2IMKHbLvAm8Q5W0IQCgD..s&ei=FHDzWMnbAuawjwSy34v4Bg&zx=1492348950814
p743
sVqueryString
p744
(lp745
(dp746
Vname
p747
Vatyp
p748
sVvalue
p749
g30
sa(dp750
Vname
p751
Vct
p752
sVvalue
p753
g4
sa(dp754
Vname
p755
Vcad
p756
sVvalue
p757
g4
sa(dp758
Vname
p759
Vvet
p760
sVvalue
p761
V10ahUKEwjJtbeHianTAhVm2IMKHbLvAm8Q5W0IQCgD..s
p762
sa(dp763
Vname
p764
Vei
p765
sVvalue
p766
VFHDzWMnbAuawjwSy34v4Bg
p767
sa(dp768
Vname
p769
Vzx
p770
sVvalue
p771
V1492348950814
p772
sasVheaders
p773
(lp774
sVheadersSize
p775
I656
sVbodySize
p776
I0
sVmethod
p777
VGET
p778
sVhttpVersion
p779
VHTTP/1.1
p780
ssVtimings
p781
(dp782
Vcomment
p783
g4
sVreceive
p784
I0
sVsend
p785
I0
sVssl
p786
I-1
sVconnect
p787
I-1
sVdns
p788
I-1
sVwait
p789
I96
sVblocked
p790
I-1
ssVtime
p791
I96
sVresponse
p792
(dp793
Vstatus
p794
I204
sVcomment
p795
g4
sVcookies
p796
(lp797
sVstatusText
p798
VNo Content
p799
sVcontent
p800
(dp801
VmimeType
p802
Vtext/html; charset=UTF-8
p803
sVcomment
p804
g4
sVsize
p805
I0
ssVheaders
p806
(lp807
sVheadersSize
p808
I248
sVredirectURL
p809
g4
sVbodySize
p810
I0
sVhttpVersion
p811
VHTTP/1.1
p812
ssa(dp813
Vcomment
p814
g4
sVserverIPAddress
p815
V216.58.216.196
p816
sVpageref
p817
VMarcell Ozuna
p818
sVstartedDateTime
p819
V2017-04-16T08:22:30.818-05:00
p820
sVcache
p821
(dp822
sVrequest
p823
(dp824
Vcomment
p825
g4
sVcookies
p826
(lp827
sVurl
p828
Vhttps://www.google.com/gen_204?atyp=i&ct=&cad=&vet=10ahUKEwjJtbeHianTAhVm2IMKHbLvAm8Q5W0IQygE..s&ei=FHDzWMnbAuawjwSy34v4Bg&zx=1492348950817
p829
sVqueryString
p830
(lp831
(dp832
Vname
p833
Vatyp
p834
sVvalue
p835
g30
sa(dp836
Vname
p837
Vct
p838
sVvalue
p839
g4
sa(dp840
Vname
p841
Vcad
p842
sVvalue
p843
g4
sa(dp844
Vname
p845
Vvet
p846
sVvalue
p847
V10ahUKEwjJtbeHianTAhVm2IMKHbLvAm8Q5W0IQygE..s
p848
sa(dp849
Vname
p850
Vei
p851
sVvalue
p852
VFHDzWMnbAuawjwSy34v4Bg
p853
sa(dp854
Vname
p855
Vzx
p856
sVvalue
p857
V1492348950817
p858
sasVheaders
p859
(lp860
sVheadersSize
p861
I656
sVbodySize
p862
I0
sVmethod
p863
VGET
p864
sVhttpVersion
p865
VHTTP/1.1
p866
ssVtimings
p867
(dp868
Vcomment
p869
g4
sVreceive
p870
I0
sVsend
p871
I0
sVssl
p872
I-1
sVconnect
p873
I-1
sVdns
p874
I-1
sVwait
p875
I108
sVblocked
p876
I-1
ssVtime
p877
I108
sVresponse
p878
(dp879
Vstatus
p880
I204
sVcomment
p881
g4
sVcookies
p882
(lp883
sVstatusText
p884
VNo Content
p885
sVcontent
p886
(dp887
VmimeType
p888
Vtext/html; charset=UTF-8
p889
sVcomment
p890
g4
sVsize
p891
I0
ssVheaders
p892
(lp893
sVheadersSize
p894
I248
sVredirectURL
p895
g4
sVbodySize
p896
I0
sVhttpVersion
p897
VHTTP/1.1
p898
ssa(dp899
Vcomment
p900
g4
sVserverIPAddress
p901
V216.58.216.196
p902
sVpageref
p903
VMarcell Ozuna
p904
sVstartedDateTime
p905
V2017-04-16T08:22:30.913-05:00
p906
sVcache
p907
(dp908
sVrequest
p909
(dp910
Vcomment
p911
g4
sVcookies
p912
(lp913
sVurl
p914
Vhttps://www.google.com/gen_204?atyp=i&ct=&cad=&vet=10ahUKEwjJtbeHianTAhVm2IMKHbLvAm8Q5W0ITCgH..s&ei=FHDzWMnbAuawjwSy34v4Bg&zx=1492348950828
p915
sVqueryString
p916
(lp917
(dp918
Vname
p919
Vatyp
p920
sVvalue
p921
g30
sa(dp922
Vname
p923
Vct
p924
sVvalue
p925
g4
sa(dp926
Vname
p927
Vcad
p928
sVvalue
p929
g4
sa(dp930
Vname
p931
Vvet
p932
sVvalue
p933
V10ahUKEwjJtbeHianTAhVm2IMKHbLvAm8Q5W0ITCgH..s
p934
sa(dp935
Vname
p936
Vei
p937
sVvalue
p938
VFHDzWMnbAuawjwSy34v4Bg
p939
sa(dp940
Vname
p941
Vzx
p942
sVvalue
p943
V1492348950828
p944
sasVheaders
p945
(lp946
sVheadersSize
p947
I656
sVbodySize
p948
I0
sVmethod
p949
VGET
p950
sVhttpVersion
p951
VHTTP/1.1
p952
ssVtimings
p953
(dp954
Vcomment
p955
g4
sVreceive
p956
I0
sVsend
p957
I0
sVssl
p958
I-1
sVconnect
p959
I-1
sVdns
p960
I-1
sVwait
p961
I55
sVblocked
p962
I-1
ssVtime
p963
I56
sVresponse
p964
(dp965
Vstatus
p966
I204
sVcomment
p967
g4
sVcookies
p968
(lp969
sVstatusText
p970
VNo Content
p971
sVcontent
p972
(dp973
VmimeType
p974
Vtext/html; charset=UTF-8
p975
sVcomment
p976
g4
sVsize
p977
I0
ssVheaders
p978
(lp979
sVheadersSize
p980
I248
sVredirectURL
p981
g4
sVbodySize
p982
I0
sVhttpVersion
p983
VHTTP/1.1
p984
ssa(dp985
Vcomment
p986
g4
sVserverIPAddress
p987
V216.58.216.196
p988
sVpageref
p989
VMarcell Ozuna
p990
sVstartedDateTime
p991
V2017-04-16T08:22:30.935-05:00
p992
sVcache
p993
(dp994
sVrequest
p995
(dp996
Vcomment
p997
g4
sVcookies
p998
(lp999
sVurl
p1000
Vhttps://www.google.com/async/ampfp?vet=10ahUKEwjJtbeHianTAhVm2IMKHbLvAm8QtZoBCNMB..i&ei=FHDzWMnbAuawjwSy34v4Bg&yv=2&async=_id:ampfp-async,_pms:qs
p1001
sVqueryString
p1002
(lp1003
(dp1004
Vname
p1005
Vvet
p1006
sVvalue
p1007
V10ahUKEwjJtbeHianTAhVm2IMKHbLvAm8QtZoBCNMB..i
p1008
sa(dp1009
Vname
p1010
Vei
p1011
sVvalue
p1012
VFHDzWMnbAuawjwSy34v4Bg
p1013
sa(dp1014
Vname
p1015
Vyv
p1016
sVvalue
p1017
g64
sa(dp1018
Vname
p1019
Vasync
p1020
sVvalue
p1021
V_id:ampfp-async,_pms:qs
p1022
sasVheaders
p1023
(lp1024
sVheadersSize
p1025
I662
sVbodySize
p1026
I0
sVmethod
p1027
VGET
p1028
sVhttpVersion
p1029
VHTTP/1.1
p1030
ssVtimings
p1031
(dp1032
Vcomment
p1033
g4
sVreceive
p1034
I17
sVsend
p1035
I0
sVssl
p1036
I-1
sVconnect
p1037
I-1
sVdns
p1038
I-1
sVwait
p1039
I63
sVblocked
p1040
I-1
ssVtime
p1041
I81
sVresponse
p1042
(dp1043
Vstatus
p1044
I200
sVcomment
p1045
g4
sVcookies
p1046
(lp1047
sVstatusText
p1048
VOK
p1049
sVcontent
p1050
(dp1051
VmimeType
p1052
Vtext/html; charset=UTF-8
p1053
sVcomment
p1054
g4
sVsize
p1055
I0
ssVheaders
p1056
(lp1057
sVheadersSize
p1058
I383
sVredirectURL
p1059
g4
sVbodySize
p1060
I4525
sVhttpVersion
p1061
VHTTP/1.1
p1062
ssa(dp1063
Vcomment
p1064
g4
sVserverIPAddress
p1065
V216.58.216.193
p1066
sVpageref
p1067
VMarcell Ozuna
p1068
sVstartedDateTime
p1069
V2017-04-16T08:22:30.935-05:00
p1070
sVcache
p1071
(dp1072
sVrequest
p1073
(dp1074
Vcomment
p1075
g4
sVcookies
p1076
(lp1077
sVurl
p1078
Vhttps://cdn.ampproject.org/preconnect.gif?0.6397355704841111
p1079
sVqueryString
p1080
(lp1081
(dp1082
Vname
p1083
V0.6397355704841111
p1084
sVvalue
p1085
g4
sasVheaders
p1086
(lp1087
sVheadersSize
p1088
I375
sVbodySize
p1089
I0
sVmethod
p1090
VGET
p1091
sVhttpVersion
p1092
VHTTP/1.1
p1093
ssVtimings
p1094
(dp1095
Vcomment
p1096
g4
sVreceive
p1097
I0
sVsend
p1098
I0
sVssl
p1099
I-1
sVconnect
p1100
I-1
sVdns
p1101
I-1
sVwait
p1102
I31
sVblocked
p1103
I-1
ssVtime
p1104
I31
sVresponse
p1105
(dp1106
Vstatus
p1107
I200
sVcomment
p1108
g4
sVcookies
p1109
(lp1110
sVstatusText
p1111
VOK
p1112
sVcontent
p1113
(dp1114
VmimeType
p1115
Vimage/gif
p1116
sVcomment
p1117
g4
sVsize
p1118
I0
ssVheaders
p1119
(lp1120
sVheadersSize
p1121
I826
sVredirectURL
p1122
g4
sVbodySize
p1123
I37
sVhttpVersion
p1124
VHTTP/1.1
p1125
ssa(dp1126
Vcomment
p1127
g4
sVserverIPAddress
p1128
V216.58.216.206
p1129
sVpageref
p1130
VMarcell Ozuna
p1131
sVstartedDateTime
p1132
V2017-04-16T08:22:30.960-05:00
p1133
sVcache
p1134
(dp1135
sVrequest
p1136
(dp1137
Vcomment
p1138
g4
sVcookies
p1139
(lp1140
sVurl
p1141
Vhttps://encrypted-tbn2.gstatic.com/images?q=tbn:ANd9GcTVM4PF5FoV175qXeGXRnkqGhplahBPeP0NOyxdfcHENmJob7iAtQdHAzw
p1142
sVqueryString
p1143
(lp1144
(dp1145
Vname
p1146
g415
sVvalue
p1147
Vtbn:ANd9GcTVM4PF5FoV175qXeGXRnkqGhplahBPeP0NOyxdfcHENmJob7iAtQdHAzw
p1148
sasVheaders
p1149
(lp1150
sVheadersSize
p1151
I426
sVbodySize
p1152
I0
sVmethod
p1153
VGET
p1154
sVhttpVersion
p1155
VHTTP/1.1
p1156
ssVtimings
p1157
(dp1158
Vcomment
p1159
g4
sVreceive
p1160
I0
sVsend
p1161
I0
sVssl
p1162
I-1
sVconnect
p1163
I-1
sVdns
p1164
I-1
sVwait
p1165
I34
sVblocked
p1166
I-1
ssVtime
p1167
I34
sVresponse
p1168
(dp1169
Vstatus
p1170
I200
sVcomment
p1171
g4
sVcookies
p1172
(lp1173
sVstatusText
p1174
VOK
p1175
sVcontent
p1176
(dp1177
VmimeType
p1178
Vimage/jpeg
p1179
sVcomment
p1180
g4
sVsize
p1181
I0
ssVheaders
p1182
(lp1183
sVheadersSize
p1184
I428
sVredirectURL
p1185
g4
sVbodySize
p1186
I4142
sVhttpVersion
p1187
VHTTP/1.1
p1188
ssa(dp1189
Vcomment
p1190
g4
sVserverIPAddress
p1191
V216.58.216.206
p1192
sVpageref
p1193
VMarcell Ozuna
p1194
sVstartedDateTime
p1195
V2017-04-16T08:22:30.960-05:00
p1196
sVcache
p1197
(dp1198
sVrequest
p1199
(dp1200
Vcomment
p1201
g4
sVcookies
p1202
(lp1203
sVurl
p1204
Vhttps://encrypted-tbn2.gstatic.com/images?q=tbn:ANd9GcQfvBh_bSMaWhVTUxulipI781vKYU4BPq_yRIxjFsYdr7GwC6-0v8_S3ow9Fw
p1205
sVqueryString
p1206
(lp1207
(dp1208
Vname
p1209
g415
sVvalue
p1210
Vtbn:ANd9GcQfvBh_bSMaWhVTUxulipI781vKYU4BPq_yRIxjFsYdr7GwC6-0v8_S3ow9Fw
p1211
sasVheaders
p1212
(lp1213
sVheadersSize
p1214
I429
sVbodySize
p1215
I0
sVmethod
p1216
VGET
p1217
sVhttpVersion
p1218
VHTTP/1.1
p1219
ssVtimings
p1220
(dp1221
Vcomment
p1222
g4
sVreceive
p1223
I0
sVsend
p1224
I0
sVssl
p1225
I-1
sVconnect
p1226
I-1
sVdns
p1227
I-1
sVwait
p1228
I33
sVblocked
p1229
I-1
ssVtime
p1230
I34
sVresponse
p1231
(dp1232
Vstatus
p1233
I200
sVcomment
p1234
g4
sVcookies
p1235
(lp1236
sVstatusText
p1237
VOK
p1238
sVcontent
p1239
(dp1240
VmimeType
p1241
Vimage/jpeg
p1242
sVcomment
p1243
g4
sVsize
p1244
I0
ssVheaders
p1245
(lp1246
sVheadersSize
p1247
I427
sVredirectURL
p1248
g4
sVbodySize
p1249
I8834
sVhttpVersion
p1250
VHTTP/1.1
p1251
ssa(dp1252
Vcomment
p1253
g4
sVserverIPAddress
p1254
V216.58.216.206
p1255
sVpageref
p1256
VMarcell Ozuna
p1257
sVstartedDateTime
p1258
V2017-04-16T08:22:30.961-05:00
p1259
sVcache
p1260
(dp1261
sVrequest
p1262
(dp1263
Vcomment
p1264
g4
sVcookies
p1265
(lp1266
sVurl
p1267
Vhttps://encrypted-tbn3.gstatic.com/images?q=tbn:ANd9GcSDwB7ntomFH0scKQx1bKdi9JckCeGXNv5UXgwgmG2-AL0JBnsneMkxuDuw
p1268
sVqueryString
p1269
(lp1270
(dp1271
Vname
p1272
g415
sVvalue
p1273
Vtbn:ANd9GcSDwB7ntomFH0scKQx1bKdi9JckCeGXNv5UXgwgmG2-AL0JBnsneMkxuDuw
p1274
sasVheaders
p1275
(lp1276
sVheadersSize
p1277
I427
sVbodySize
p1278
I0
sVmethod
p1279
VGET
p1280
sVhttpVersion
p1281
VHTTP/1.1
p1282
ssVtimings
p1283
(dp1284
Vcomment
p1285
g4
sVreceive
p1286
I6
sVsend
p1287
I0
sVssl
p1288
I-1
sVconnect
p1289
I-1
sVdns
p1290
I-1
sVwait
p1291
I46
sVblocked
p1292
I-1
ssVtime
p1293
I52
sVresponse
p1294
(dp1295
Vstatus
p1296
I200
sVcomment
p1297
g4
sVcookies
p1298
(lp1299
sVstatusText
p1300
VOK
p1301
sVcontent
p1302
(dp1303
VmimeType
p1304
Vimage/jpeg
p1305
sVcomment
p1306
g4
sVsize
p1307
I0
ssVheaders
p1308
(lp1309
sVheadersSize
p1310
I428
sVredirectURL
p1311
g4
sVbodySize
p1312
I6422
sVhttpVersion
p1313
VHTTP/1.1
p1314
ssa(dp1315
Vcomment
p1316
g4
sVserverIPAddress
p1317
V216.58.216.196
p1318
sVpageref
p1319
VMarcell Ozuna
p1320
sVstartedDateTime
p1321
V2017-04-16T08:22:30.962-05:00
p1322
sVcache
p1323
(dp1324
sVrequest
p1325
(dp1326
Vcomment
p1327
g4
sVcookies
p1328
(lp1329
sVurl
p1330
Vhttps://www.google.com/gen_204?atyp=i&ct=&cad=&vet=10ahUKEwjJtbeHianTAhVm2IMKHbLvAm8Q5W0IRigF..s&ei=FHDzWMnbAuawjwSy34v4Bg&zx=1492348950820
p1331
sVqueryString
p1332
(lp1333
(dp1334
Vname
p1335
Vatyp
p1336
sVvalue
p1337
g30
sa(dp1338
Vname
p1339
Vct
p1340
sVvalue
p1341
g4
sa(dp1342
Vname
p1343
Vcad
p1344
sVvalue
p1345
g4
sa(dp1346
Vname
p1347
Vvet
p1348
sVvalue
p1349
V10ahUKEwjJtbeHianTAhVm2IMKHbLvAm8Q5W0IRigF..s
p1350
sa(dp1351
Vname
p1352
Vei
p1353
sVvalue
p1354
VFHDzWMnbAuawjwSy34v4Bg
p1355
sa(dp1356
Vname
p1357
Vzx
p1358
sVvalue
p1359
V1492348950820
p1360
sasVheaders
p1361
(lp1362
sVheadersSize
p1363
I656
sVbodySize
p1364
I0
sVmethod
p1365
VGET
p1366
sVhttpVersion
p1367
VHTTP/1.1
p1368
ssVtimings
p1369
(dp1370
Vcomment
p1371
g4
sVreceive
p1372
I0
sVsend
p1373
I0
sVssl
p1374
I50
sVconnect
p1375
I138
sVdns
p1376
I0
sVwait
p1377
I104
sVblocked
p1378
I0
ssVtime
p1379
I243
sVresponse
p1380
(dp1381
Vstatus
p1382
I204
sVcomment
p1383
g4
sVcookies
p1384
(lp1385
sVstatusText
p1386
VNo Content
p1387
sVcontent
p1388
(dp1389
VmimeType
p1390
Vtext/html; charset=UTF-8
p1391
sVcomment
p1392
g4
sVsize
p1393
I0
ssVheaders
p1394
(lp1395
sVheadersSize
p1396
I248
sVredirectURL
p1397
g4
sVbodySize
p1398
I0
sVhttpVersion
p1399
VHTTP/1.1
p1400
ssa(dp1401
Vcomment
p1402
g4
sVserverIPAddress
p1403
V216.58.216.196
p1404
sVpageref
p1405
VMarcell Ozuna
p1406
sVstartedDateTime
p1407
V2017-04-16T08:22:30.963-05:00
p1408
sVcache
p1409
(dp1410
sVrequest
p1411
(dp1412
Vcomment
p1413
g4
sVcookies
p1414
(lp1415
sVurl
p1416
Vhttps://www.google.com/gen_204?atyp=i&ct=&cad=&vet=10ahUKEwjJtbeHianTAhVm2IMKHbLvAm8Q5W0ISSgG..s&ei=FHDzWMnbAuawjwSy34v4Bg&zx=1492348950823
p1417
sVqueryString
p1418
(lp1419
(dp1420
Vname
p1421
Vatyp
p1422
sVvalue
p1423
g30
sa(dp1424
Vname
p1425
Vct
p1426
sVvalue
p1427
g4
sa(dp1428
Vname
p1429
Vcad
p1430
sVvalue
p1431
g4
sa(dp1432
Vname
p1433
Vvet
p1434
sVvalue
p1435
V10ahUKEwjJtbeHianTAhVm2IMKHbLvAm8Q5W0ISSgG..s
p1436
sa(dp1437
Vname
p1438
Vei
p1439
sVvalue
p1440
VFHDzWMnbAuawjwSy34v4Bg
p1441
sa(dp1442
Vname
p1443
Vzx
p1444
sVvalue
p1445
V1492348950823
p1446
sasVheaders
p1447
(lp1448
sVheadersSize
p1449
I656
sVbodySize
p1450
I0
sVmethod
p1451
VGET
p1452
sVhttpVersion
p1453
VHTTP/1.1
p1454
ssVtimings
p1455
(dp1456
Vcomment
p1457
g4
sVreceive
p1458
I0
sVsend
p1459
I0
sVssl
p1460
I51
sVconnect
p1461
I134
sVdns
p1462
I0
sVwait
p1463
I52
sVblocked
p1464
I0
ssVtime
p1465
I187
sVresponse
p1466
(dp1467
Vstatus
p1468
I204
sVcomment
p1469
g4
sVcookies
p1470
(lp1471
sVstatusText
p1472
VNo Content
p1473
sVcontent
p1474
(dp1475
VmimeType
p1476
Vtext/html; charset=UTF-8
p1477
sVcomment
p1478
g4
sVsize
p1479
I0
ssVheaders
p1480
(lp1481
sVheadersSize
p1482
I248
sVredirectURL
p1483
g4
sVbodySize
p1484
I0
sVhttpVersion
p1485
VHTTP/1.1
p1486
ssa(dp1487
Vcomment
p1488
g4
sVserverIPAddress
p1489
V216.58.216.196
p1490
sVpageref
p1491
VMarcell Ozuna
p1492
sVstartedDateTime
p1493
V2017-04-16T08:22:31.077-05:00
p1494
sVcache
p1495
(dp1496
sVrequest
p1497
(dp1498
Vcomment
p1499
g4
sVcookies
p1500
(lp1501
sVurl
p1502
Vhttps://www.google.com/xjs/_/js/k=xjs.qs.en_US.pCBXVCvTH3s.O/m=syi2,syi5,syi4,fpv,sy48,sy3a,sy3c,sy5b,sy4x,sy4z,sy56,sy4y,sy5d,sy8e,sya8,sy5e,sy91,sya6,sya7,sya9,amp,sp,idg,syfu,ish,ivw/am=gCP4LtMEBXQA2RUaq_oFBISzAFA/rt=j/d=0/t=zcms/rs=ACT90oFwm4NZCwIcuuiqmthdlECdBzkhRA
p1503
sVqueryString
p1504
(lp1505
sVheaders
p1506
(lp1507
sVheadersSize
p1508
I787
sVbodySize
p1509
I0
sVmethod
p1510
VGET
p1511
sVhttpVersion
p1512
VHTTP/1.1
p1513
ssVtimings
p1514
(dp1515
Vcomment
p1516
g4
sVreceive
p1517
I3
sVsend
p1518
I0
sVssl
p1519
I-1
sVconnect
p1520
I-1
sVdns
p1521
I-1
sVwait
p1522
I29
sVblocked
p1523
I-1
ssVtime
p1524
I33
sVresponse
p1525
(dp1526
Vstatus
p1527
I200
sVcomment
p1528
g4
sVcookies
p1529
(lp1530
sVstatusText
p1531
VOK
p1532
sVcontent
p1533
(dp1534
VmimeType
p1535
Vtext/javascript; charset=UTF-8
p1536
sVcomment
p1537
g4
sVsize
p1538
I0
ssVheaders
p1539
(lp1540
sVheadersSize
p1541
I464
sVredirectURL
p1542
g4
sVbodySize
p1543
I54528
sVhttpVersion
p1544
VHTTP/1.1
p1545
ssa(dp1546
Vcomment
p1547
g4
sVserverIPAddress
p1548
V216.58.216.196
p1549
sVpageref
p1550
VMarcell Ozuna
p1551
sVstartedDateTime
p1552
V2017-04-16T08:22:31.475-05:00
p1553
sVcache
p1554
(dp1555
sVrequest
p1556
(dp1557
Vcomment
p1558
g4
sVcookies
p1559
(lp1560
sVurl
p1561
Vhttps://www.google.com/async/log_amp_item_set?vet=10ahUKEwjTmquIianTAhXB6oMKHelgDRIQooQBCAE..i&ei=FHDzWMnbAuawjwSy34v4Bg&yv=2&async=num_items:2,_fmt:jspb
p1562
sVqueryString
p1563
(lp1564
(dp1565
Vname
p1566
Vvet
p1567
sVvalue
p1568
V10ahUKEwjTmquIianTAhXB6oMKHelgDRIQooQBCAE..i
p1569
sa(dp1570
Vname
p1571
Vei
p1572
sVvalue
p1573
VFHDzWMnbAuawjwSy34v4Bg
p1574
sa(dp1575
Vname
p1576
Vyv
p1577
sVvalue
p1578
g64
sa(dp1579
Vname
p1580
Vasync
p1581
sVvalue
p1582
Vnum_items:2,_fmt:jspb
p1583
sasVheaders
p1584
(lp1585
sVheadersSize
p1586
I670
sVbodySize
p1587
I0
sVmethod
p1588
VGET
p1589
sVhttpVersion
p1590
VHTTP/1.1
p1591
ssVtimings
p1592
(dp1593
Vcomment
p1594
g4
sVreceive
p1595
I0
sVsend
p1596
I0
sVssl
p1597
I-1
sVconnect
p1598
I-1
sVdns
p1599
I-1
sVwait
p1600
I32
sVblocked
p1601
I-1
ssVtime
p1602
I33
sVresponse
p1603
(dp1604
Vstatus
p1605
I200
sVcomment
p1606
g4
sVcookies
p1607
(lp1608
sVstatusText
p1609
VOK
p1610
sVcontent
p1611
(dp1612
VmimeType
p1613
Vapplication/json; charset=UTF-8
p1614
sVcomment
p1615
g4
sVsize
p1616
I0
ssVheaders
p1617
(lp1618
sVheadersSize
p1619
I417
sVredirectURL
p1620
g4
sVbodySize
p1621
I141
sVhttpVersion
p1622
VHTTP/1.1
p1623
ssa(dp1624
Vcomment
p1625
g4
sVserverIPAddress
p1626
V216.58.216.196
p1627
sVpageref
p1628
VMarcell Ozuna
p1629
sVstartedDateTime
p1630
V2017-04-16T08:22:32.900-05:00
p1631
sVcache
p1632
(dp1633
sVrequest
p1634
(dp1635
Vcomment
p1636
g4
sVcookies
p1637
(lp1638
sVurl
p1639
Vhttps://www.google.com/gen_204?atyp=i&ct=slh&cad=&ei=CHDzWN_vN8qYjwS5yo-gDw&m=V&t=C&s=1&v=2&pv=0.055698064612576204&me=1:1492348941033,x:2,V,0,0,1280,944:0,N,1,CHDzWN_vN8qYjwS5yo-gDw:0,R,1,24,8,155,1249,251:0,R,1,34,8,416,1249,417:0,R,1,35,8,416,1249,417:0,R,1,38,8,429,1249,40:0,R,1,51,8,481,1249,178:0,R,1,54,0,497,1265,197:0,R,1,94,8,676,1249,20:0,R,1,95,24,676,1217,20:0,R,1,101,8,712,1249,20:0,R,1,103,8,740,1249,20:0,R,1,141,8,843,1249,201:0,R,1,142,24,843,1217,190:3,B,3193:7225,e,U&zx=1492348952898
p1640
sVqueryString
p1641
(lp1642
(dp1643
Vname
p1644
Vatyp
p1645
sVvalue
p1646
g30
sa(dp1647
Vname
p1648
Vct
p1649
sVvalue
p1650
Vslh
p1651
sa(dp1652
Vname
p1653
Vcad
p1654
sVvalue
p1655
g4
sa(dp1656
Vname
p1657
Vei
p1658
sVvalue
p1659
VCHDzWN_vN8qYjwS5yo-gDw
p1660
sa(dp1661
Vname
p1662
g47
sVvalue
p1663
g49
sa(dp1664
Vname
p1665
g52
sVvalue
p1666
g54
sa(dp1667
Vname
p1668
g57
sVvalue
p1669
g59
sa(dp1670
Vname
p1671
g62
sVvalue
p1672
g64
sa(dp1673
Vname
p1674
Vpv
p1675
sVvalue
p1676
V0.055698064612576204
p1677
sa(dp1678
Vname
p1679
Vme
p1680
sVvalue
p1681
V1:1492348941033,x:2,V,0,0,1280,944:0,N,1,CHDzWN_vN8qYjwS5yo-gDw:0,R,1,24,8,155,1249,251:0,R,1,34,8,416,1249,417:0,R,1,35,8,416,1249,417:0,R,1,38,8,429,1249,40:0,R,1,51,8,481,1249,178:0,R,1,54,0,497,1265,197:0,R,1,94,8,676,1249,20:0,R,1,95,24,676,1217,20:0,R,1,101,8,712,1249,20:0,R,1,103,8,740,1249,20:0,R,1,141,8,843,1249,201:0,R,1,142,24,843,1217,190:3,B,3193:7225,e,U
p1682
sa(dp1683
Vname
p1684
Vzx
p1685
sVvalue
p1686
V1492348952898
p1687
sasVheaders
p1688
(lp1689
sVheadersSize
p1690
I1023
sVbodySize
p1691
I0
sVmethod
p1692
VGET
p1693
sVhttpVersion
p1694
VHTTP/1.1
p1695
ssVtimings
p1696
(dp1697
Vcomment
p1698
g4
sVreceive
p1699
I0
sVsend
p1700
I0
sVssl
p1701
I-1
sVconnect
p1702
I-1
sVdns
p1703
I-1
sVwait
p1704
I35
sVblocked
p1705
I-1
ssVtime
p1706
I35
sVresponse
p1707
(dp1708
Vstatus
p1709
I204
sVcomment
p1710
g4
sVcookies
p1711
(lp1712
sVstatusText
p1713
VNo Content
p1714
sVcontent
p1715
(dp1716
VmimeType
p1717
Vtext/html; charset=UTF-8
p1718
sVcomment
p1719
g4
sVsize
p1720
I0
ssVheaders
p1721
(lp1722
sVheadersSize
p1723
I248
sVredirectURL
p1724
g4
sVbodySize
p1725
I0
sVhttpVersion
p1726
VHTTP/1.1
p1727
ssa(dp1728
Vcomment
p1729
g4
sVserverIPAddress
p1730
V216.58.216.193
p1731
sVpageref
p1732
VMarcell Ozuna
p1733
sVstartedDateTime
p1734
V2017-04-16T08:22:33.265-05:00
p1735
sVcache
p1736
(dp1737
sVrequest
p1738
(dp1739
Vcomment
p1740
g4
sVcookies
p1741
(lp1742
sVurl
p1743
Vhttps://miamiherald-relaymedia-com.cdn.ampproject.org/v/s/miamiherald.relaymedia.com/amp/sports/mlb/miami-marlins/article144590729.html?amp_js_v=9
p1744
sVqueryString
p1745
(lp1746
(dp1747
Vname
p1748
Vamp_js_v
p1749
sVvalue
p1750
V9
p1751
sasVheaders
p1752
(lp1753
sVheadersSize
p1754
I551
sVbodySize
p1755
I0
sVmethod
p1756
VGET
p1757
sVhttpVersion
p1758
VHTTP/1.1
p1759
ssVtimings
p1760
(dp1761
Vcomment
p1762
g4
sVreceive
p1763
I4
sVsend
p1764
I0
sVssl
p1765
I1714
sVconnect
p1766
I1731
sVdns
p1767
I40
sVwait
p1768
I64
sVblocked
p1769
I0
ssVtime
p1770
I1840
sVresponse
p1771
(dp1772
Vstatus
p1773
I200
sVcomment
p1774
g4
sVcookies
p1775
(lp1776
sVstatusText
p1777
VOK
p1778
sVcontent
p1779
(dp1780
VmimeType
p1781
Vtext/html
p1782
sVcomment
p1783
g4
sVsize
p1784
I0
ssVheaders
p1785
(lp1786
sVheadersSize
p1787
I860
sVredirectURL
p1788
g4
sVbodySize
p1789
I9928
sVhttpVersion
p1790
VHTTP/1.1
p1791
ssa(dp1792
Vcomment
p1793
g4
sVserverIPAddress
p1794
V216.58.216.193
p1795
sVpageref
p1796
VMarcell Ozuna
p1797
sVstartedDateTime
p1798
V2017-04-16T08:22:34.200-05:00
p1799
sVcache
p1800
(dp1801
sVrequest
p1802
(dp1803
Vcomment
p1804
g4
sVcookies
p1805
(lp1806
sVurl
p1807
Vhttps://cdn-relaymedia-com.cdn.ampproject.org/r/s/cdn.relaymedia.com/i/BPFNkGGQE32UgQ25ndVuIA/?url=http%3A%2F%2Fwww.miamiherald.com%2Fstatic%2Ffonts%2Flyon%2FLyonTextWeb-Regular.woff
p1808
sVqueryString
p1809
(lp1810
(dp1811
Vname
p1812
Vurl
p1813
sVvalue
p1814
Vhttp://www.miamiherald.com/static/fonts/lyon/LyonTextWeb-Regular.woff
p1815
sasVheaders
p1816
(lp1817
sVheadersSize
p1818
I737
sVbodySize
p1819
I0
sVmethod
p1820
VGET
p1821
sVhttpVersion
p1822
VHTTP/1.1
p1823
ssVtimings
p1824
(dp1825
Vcomment
p1826
g4
sVreceive
p1827
I22
sVsend
p1828
I0
sVssl
p1829
I735
sVconnect
p1830
I764
sVdns
p1831
I41
sVwait
p1832
I71
sVblocked
p1833
I0
ssVtime
p1834
I900
sVresponse
p1835
(dp1836
Vstatus
p1837
I200
sVcomment
p1838
g4
sVcookies
p1839
(lp1840
sVstatusText
p1841
VOK
p1842
sVcontent
p1843
(dp1844
VmimeType
p1845
Vapplication/x-font-woff
p1846
sVcomment
p1847
g4
sVsize
p1848
I0
ssVheaders
p1849
(lp1850
sVheadersSize
p1851
I869
sVredirectURL
p1852
g4
sVbodySize
p1853
I35961
sVhttpVersion
p1854
VHTTP/1.1
p1855
ssa(dp1856
Vcomment
p1857
g4
sVserverIPAddress
p1858
V216.58.216.193
p1859
sVpageref
p1860
VMarcell Ozuna
p1861
sVstartedDateTime
p1862
V2017-04-16T08:22:34.229-05:00
p1863
sVcache
p1864
(dp1865
sVrequest
p1866
(dp1867
Vcomment
p1868
g4
sVcookies
p1869
(lp1870
sVurl
p1871
Vhttps://cdn-relaymedia-com.cdn.ampproject.org/i/s/cdn.relaymedia.com/i/xWVMT-wNfs0SV5KOVEJsEw/?url=http%3A%2F%2Fwww.miamiherald.com%2Fsports%2Fmlb%2Fmiami-marlins%2Fsh99sr%2Fpicture144590704%2Falternates%2FFREE_1140%2Fozuna2
p1872
sVqueryString
p1873
(lp1874
(dp1875
Vname
p1876
Vurl
p1877
sVvalue
p1878
Vhttp://www.miamiherald.com/sports/mlb/miami-marlins/sh99sr/picture144590704/alternates/FREE_1140/ozuna2
p1879
sasVheaders
p1880
(lp1881
sVheadersSize
p1882
I662
sVbodySize
p1883
I0
sVmethod
p1884
VGET
p1885
sVhttpVersion
p1886
VHTTP/1.1
p1887
ssVtimings
p1888
(dp1889
Vcomment
p1890
g4
sVreceive
p1891
I147
sVsend
p1892
I0
sVssl
p1893
I119
sVconnect
p1894
I132
sVdns
p1895
I0
sVwait
p1896
I121
sVblocked
p1897
I0
ssVtime
p1898
I402
sVresponse
p1899
(dp1900
Vstatus
p1901
I200
sVcomment
p1902
g4
sVcookies
p1903
(lp1904
sVstatusText
p1905
VOK
p1906
sVcontent
p1907
(dp1908
VmimeType
p1909
Vimage/jpeg
p1910
sVcomment
p1911
g4
sVsize
p1912
I0
ssVheaders
p1913
(lp1914
sVheadersSize
p1915
I848
sVredirectURL
p1916
g4
sVbodySize
p1917
I84617
sVhttpVersion
p1918
VHTTP/1.1
p1919
ssa(dp1920
Vcomment
p1921
g4
sVserverIPAddress
p1922
V216.58.216.193
p1923
sVpageref
p1924
VMarcell Ozuna
p1925
sVstartedDateTime
p1926
V2017-04-16T08:22:34.234-05:00
p1927
sVcache
p1928
(dp1929
sVrequest
p1930
(dp1931
Vcomment
p1932
g4
sVcookies
p1933
(lp1934
sVurl
p1935
Vhttps://cdn-relaymedia-com.cdn.ampproject.org/r/s/cdn.relaymedia.com/i/UPVPnstwrbQ8rZDtiohIdA/?url=http%3A%2F%2Fwww.miamiherald.com%2Fstatic%2Ffonts%2Fmcclatchy-sans-condensed%2FMcClatchySansCond-Semibold.woff
p1936
sVqueryString
p1937
(lp1938
(dp1939
Vname
p1940
Vurl
p1941
sVvalue
p1942
Vhttp://www.miamiherald.com/static/fonts/mcclatchy-sans-condensed/McClatchySansCond-Semibold.woff
p1943
sasVheaders
p1944
(lp1945
sVheadersSize
p1946
I764
sVbodySize
p1947
I0
sVmethod
p1948
VGET
p1949
sVhttpVersion
p1950
VHTTP/1.1
p1951
ssVtimings
p1952
(dp1953
Vcomment
p1954
g4
sVreceive
p1955
I39
sVsend
p1956
I0
sVssl
p1957
I717
sVconnect
p1958
I767
sVdns
p1959
I41
sVwait
p1960
I42
sVblocked
p1961
I0
ssVtime
p1962
I891
sVresponse
p1963
(dp1964
Vstatus
p1965
I200
sVcomment
p1966
g4
sVcookies
p1967
(lp1968
sVstatusText
p1969
VOK
p1970
sVcontent
p1971
(dp1972
VmimeType
p1973
Vapplication/x-font-woff
p1974
sVcomment
p1975
g4
sVsize
p1976
I0
ssVheaders
p1977
(lp1978
sVheadersSize
p1979
I869
sVredirectURL
p1980
g4
sVbodySize
p1981
I23832
sVhttpVersion
p1982
VHTTP/1.1
p1983
ssa(dp1984
Vcomment
p1985
g4
sVserverIPAddress
p1986
V216.58.216.193
p1987
sVpageref
p1988
VMarcell Ozuna
p1989
sVstartedDateTime
p1990
V2017-04-16T08:22:34.234-05:00
p1991
sVcache
p1992
(dp1993
sVrequest
p1994
(dp1995
Vcomment
p1996
g4
sVcookies
p1997
(lp1998
sVurl
p1999
Vhttps://cdn-relaymedia-com.cdn.ampproject.org/r/s/cdn.relaymedia.com/i/BuwbFwREVniBLTC2Yfpqiw/?url=http%3A%2F%2Fwww.miamiherald.com%2Fstatic%2Ffonts%2Fmcclatchy-slab%2FMcClatchySlab-Semibold.woff
p2000
sVqueryString
p2001
(lp2002
(dp2003
Vname
p2004
Vurl
p2005
sVvalue
p2006
Vhttp://www.miamiherald.com/static/fonts/mcclatchy-slab/McClatchySlab-Semibold.woff
p2007
sasVheaders
p2008
(lp2009
sVheadersSize
p2010
I750
sVbodySize
p2011
I0
sVmethod
p2012
VGET
p2013
sVhttpVersion
p2014
VHTTP/1.1
p2015
ssVtimings
p2016
(dp2017
Vcomment
p2018
g4
sVreceive
p2019
I29
sVsend
p2020
I0
sVssl
p2021
I728
sVconnect
p2022
I748
sVdns
p2023
I40
sVwait
p2024
I48
sVblocked
p2025
I0
ssVtime
p2026
I866
sVresponse
p2027
(dp2028
Vstatus
p2029
I200
sVcomment
p2030
g4
sVcookies
p2031
(lp2032
sVstatusText
p2033
VOK
p2034
sVcontent
p2035
(dp2036
VmimeType
p2037
Vapplication/x-font-woff
p2038
sVcomment
p2039
g4
sVsize
p2040
I0
ssVheaders
p2041
(lp2042
sVheadersSize
p2043
I869
sVredirectURL
p2044
g4
sVbodySize
p2045
I28096
sVhttpVersion
p2046
VHTTP/1.1
p2047
ssa(dp2048
Vcomment
p2049
g4
sVserverIPAddress
p2050
V216.58.216.193
p2051
sVpageref
p2052
VMarcell Ozuna
p2053
sVstartedDateTime
p2054
V2017-04-16T08:22:34.234-05:00
p2055
sVcache
p2056
(dp2057
sVrequest
p2058
(dp2059
Vcomment
p2060
g4
sVcookies
p2061
(lp2062
sVurl
p2063
Vhttps://cdn-relaymedia-com.cdn.ampproject.org/r/s/cdn.relaymedia.com/i/7xw9u-goBkOWA1KnPX-X3Q/?url=http%3A%2F%2Fwww.miamiherald.com%2Fstatic%2Ffonts%2Fmcclatchy-sans%2FMcClatchySans-Regular.woff
p2064
sVqueryString
p2065
(lp2066
(dp2067
Vname
p2068
Vurl
p2069
sVvalue
p2070
Vhttp://www.miamiherald.com/static/fonts/mcclatchy-sans/McClatchySans-Regular.woff
p2071
sasVheaders
p2072
(lp2073
sVheadersSize
p2074
I749
sVbodySize
p2075
I0
sVmethod
p2076
VGET
p2077
sVhttpVersion
p2078
VHTTP/1.1
p2079
ssVtimings
p2080
(dp2081
Vcomment
p2082
g4
sVreceive
p2083
I41
sVsend
p2084
I0
sVssl
p2085
I743
sVconnect
p2086
I768
sVdns
p2087
I38
sVwait
p2088
I48
sVblocked
p2089
I0
ssVtime
p2090
I896
sVresponse
p2091
(dp2092
Vstatus
p2093
I200
sVcomment
p2094
g4
sVcookies
p2095
(lp2096
sVstatusText
p2097
VOK
p2098
sVcontent
p2099
(dp2100
VmimeType
p2101
Vapplication/x-font-woff
p2102
sVcomment
p2103
g4
sVsize
p2104
I0
ssVheaders
p2105
(lp2106
sVheadersSize
p2107
I869
sVredirectURL
p2108
g4
sVbodySize
p2109
I39644
sVhttpVersion
p2110
VHTTP/1.1
p2111
ssa(dp2112
Vcomment
p2113
g4
sVserverIPAddress
p2114
V216.58.216.193
p2115
sVpageref
p2116
VMarcell Ozuna
p2117
sVstartedDateTime
p2118
V2017-04-16T08:22:34.243-05:00
p2119
sVcache
p2120
(dp2121
sVrequest
p2122
(dp2123
Vcomment
p2124
g4
sVcookies
p2125
(lp2126
sVurl
p2127
Vhttps://cdn-relaymedia-com.cdn.ampproject.org/r/s/cdn.relaymedia.com/i/VisNrnzpVPZGzD_u5oND0w/?url=http%3A%2F%2Fwww.miamiherald.com%2Fstatic%2Ffonts%2Ffont-awesome%2Ffontawesome-webfont.woff
p2128
sVqueryString
p2129
(lp2130
(dp2131
Vname
p2132
Vurl
p2133
sVvalue
p2134
Vhttp://www.miamiherald.com/static/fonts/font-awesome/fontawesome-webfont.woff
p2135
sasVheaders
p2136
(lp2137
sVheadersSize
p2138
I745
sVbodySize
p2139
I0
sVmethod
p2140
VGET
p2141
sVhttpVersion
p2142
VHTTP/1.1
p2143
ssVtimings
p2144
(dp2145
Vcomment
p2146
g4
sVreceive
p2147
I66
sVsend
p2148
I0
sVssl
p2149
I739
sVconnect
p2150
I765
sVdns
p2151
I31
sVwait
p2152
I40
sVblocked
p2153
I0
ssVtime
p2154
I905
sVresponse
p2155
(dp2156
Vstatus
p2157
I200
sVcomment
p2158
g4
sVcookies
p2159
(lp2160
sVstatusText
p2161
VOK
p2162
sVcontent
p2163
(dp2164
VmimeType
p2165
Vapplication/x-font-woff
p2166
sVcomment
p2167
g4
sVsize
p2168
I0
ssVheaders
p2169
(lp2170
sVheadersSize
p2171
I869
sVredirectURL
p2172
g4
sVbodySize
p2173
I71508
sVhttpVersion
p2174
VHTTP/1.1
p2175
ssa(dp2176
Vcomment
p2177
g4
sVserverIPAddress
p2178
V216.58.216.193
p2179
sVpageref
p2180
VMarcell Ozuna
p2181
sVstartedDateTime
p2182
V2017-04-16T08:22:34.244-05:00
p2183
sVcache
p2184
(dp2185
sVrequest
p2186
(dp2187
Vcomment
p2188
g4
sVcookies
p2189
(lp2190
sVurl
p2191
Vhttps://cdn-relaymedia-com.cdn.ampproject.org/i/s/cdn.relaymedia.com/i/Cdg4lrUl-Pyhds-VbXMKtA/?url=http%3A%2F%2Fwww.miamiherald.com%2Fstatic%2Fimages%2Fmiamiherald%2Flogo-lg.png
p2192
sVqueryString
p2193
(lp2194
(dp2195
Vname
p2196
Vurl
p2197
sVvalue
p2198
Vhttp://www.miamiherald.com/static/images/miamiherald/logo-lg.png
p2199
sasVheaders
p2200
(lp2201
sVheadersSize
p2202
I615
sVbodySize
p2203
I0
sVmethod
p2204
VGET
p2205
sVhttpVersion
p2206
VHTTP/1.1
p2207
ssVtimings
p2208
(dp2209
Vcomment
p2210
g4
sVreceive
p2211
I0
sVsend
p2212
I0
sVssl
p2213
I156
sVconnect
p2214
I171
sVdns
p2215
I0
sVwait
p2216
I40
sVblocked
p2217
I0
ssVtime
p2218
I211
sVresponse
p2219
(dp2220
Vstatus
p2221
I200
sVcomment
p2222
g4
sVcookies
p2223
(lp2224
sVstatusText
p2225
VOK
p2226
sVcontent
p2227
(dp2228
VmimeType
p2229
Vimage/png
p2230
sVcomment
p2231
g4
sVsize
p2232
I0
ssVheaders
p2233
(lp2234
sVheadersSize
p2235
I822
sVredirectURL
p2236
g4
sVbodySize
p2237
I2093
sVhttpVersion
p2238
VHTTP/1.1
p2239
ssa(dp2240
Vcomment
p2241
g4
sVserverIPAddress
p2242
V216.58.216.193
p2243
sVpageref
p2244
VMarcell Ozuna
p2245
sVstartedDateTime
p2246
V2017-04-16T08:22:34.244-05:00
p2247
sVcache
p2248
(dp2249
sVrequest
p2250
(dp2251
Vcomment
p2252
g4
sVcookies
p2253
(lp2254
sVurl
p2255
Vhttps://cdn-relaymedia-com.cdn.ampproject.org/r/s/cdn.relaymedia.com/i/Ljw4zv0KttWv4SGAVFJkSQ/?url=http%3A%2F%2Fwww.miamiherald.com%2Fstatic%2Ffonts%2Fmcclatchy-slab%2FMcClatchySlab-Regular.woff
p2256
sVqueryString
p2257
(lp2258
(dp2259
Vname
p2260
Vurl
p2261
sVvalue
p2262
Vhttp://www.miamiherald.com/static/fonts/mcclatchy-slab/McClatchySlab-Regular.woff
p2263
sasVheaders
p2264
(lp2265
sVheadersSize
p2266
I749
sVbodySize
p2267
I0
sVmethod
p2268
VGET
p2269
sVhttpVersion
p2270
VHTTP/1.1
p2271
ssVtimings
p2272
(dp2273
Vcomment
p2274
g4
sVreceive
p2275
I32
sVsend
p2276
I0
sVssl
p2277
I757
sVconnect
p2278
I784
sVdns
p2279
I31
sVwait
p2280
I42
sVblocked
p2281
I0
ssVtime
p2282
I891
sVresponse
p2283
(dp2284
Vstatus
p2285
I200
sVcomment
p2286
g4
sVcookies
p2287
(lp2288
sVstatusText
p2289
VOK
p2290
sVcontent
p2291
(dp2292
VmimeType
p2293
Vapplication/x-font-woff
p2294
sVcomment
p2295
g4
sVsize
p2296
I0
ssVheaders
p2297
(lp2298
sVheadersSize
p2299
I869
sVredirectURL
p2300
g4
sVbodySize
p2301
I28128
sVhttpVersion
p2302
VHTTP/1.1
p2303
ssa(dp2304
Vcomment
p2305
g4
sVserverIPAddress
p2306
V216.58.216.193
p2307
sVpageref
p2308
VMarcell Ozuna
p2309
sVstartedDateTime
p2310
V2017-04-16T08:22:34.274-05:00
p2311
sVcache
p2312
(dp2313
sVrequest
p2314
(dp2315
Vcomment
p2316
g4
sVcookies
p2317
(lp2318
sVurl
p2319
Vhttps://cdn-relaymedia-com.cdn.ampproject.org/i/s/cdn.relaymedia.com/i/dpJ9nffsiKil-WZUhlGB3w/?url=http%3A%2F%2Fwww.miamiherald.com%2Fsports%2Fmlb%2Fmiami-marlins%2Ffp2jxx%2Fpicture144590719%2Falternates%2FFREE_1140%2Fozuna1
p2320
sVqueryString
p2321
(lp2322
(dp2323
Vname
p2324
Vurl
p2325
sVvalue
p2326
Vhttp://www.miamiherald.com/sports/mlb/miami-marlins/fp2jxx/picture144590719/alternates/FREE_1140/ozuna1
p2327
sasVheaders
p2328
(lp2329
sVheadersSize
p2330
I662
sVbodySize
p2331
I0
sVmethod
p2332
VGET
p2333
sVhttpVersion
p2334
VHTTP/1.1
p2335
ssVtimings
p2336
(dp2337
Vcomment
p2338
g4
sVreceive
p2339
I166
sVsend
p2340
I0
sVssl
p2341
I53
sVconnect
p2342
I92
sVdns
p2343
I0
sVwait
p2344
I136
sVblocked
p2345
I0
ssVtime
p2346
I394
sVresponse
p2347
(dp2348
Vstatus
p2349
I200
sVcomment
p2350
g4
sVcookies
p2351
(lp2352
sVstatusText
p2353
VOK
p2354
sVcontent
p2355
(dp2356
VmimeType
p2357
Vimage/jpeg
p2358
sVcomment
p2359
g4
sVsize
p2360
I0
ssVheaders
p2361
(lp2362
sVheadersSize
p2363
I849
sVredirectURL
p2364
g4
sVbodySize
p2365
I116468
sVhttpVersion
p2366
VHTTP/1.1
p2367
ssa(dp2368
Vcomment
p2369
g4
sVserverIPAddress
p2370
V216.58.216.193
p2371
sVpageref
p2372
VMarcell Ozuna
p2373
sVstartedDateTime
p2374
V2017-04-16T08:22:34.304-05:00
p2375
sVcache
p2376
(dp2377
sVrequest
p2378
(dp2379
Vcomment
p2380
g4
sVcookies
p2381
(lp2382
sVurl
p2383
Vhttps://cdn-relaymedia-com.cdn.ampproject.org/r/s/cdn.relaymedia.com/i/eBAqT7CWn172btP-oy_Hhg/?url=http%3A%2F%2Fwww.miamiherald.com%2Fstatic%2Ffonts%2Fmcclatchy-sans%2FMcClatchySans-Semibold.woff
p2384
sVqueryString
p2385
(lp2386
(dp2387
Vname
p2388
Vurl
p2389
sVvalue
p2390
Vhttp://www.miamiherald.com/static/fonts/mcclatchy-sans/McClatchySans-Semibold.woff
p2391
sasVheaders
p2392
(lp2393
sVheadersSize
p2394
I750
sVbodySize
p2395
I0
sVmethod
p2396
VGET
p2397
sVhttpVersion
p2398
VHTTP/1.1
p2399
ssVtimings
p2400
(dp2401
Vcomment
p2402
g4
sVreceive
p2403
I3
sVsend
p2404
I0
sVssl
p2405
I-1
sVconnect
p2406
I-1
sVdns
p2407
I-1
sVwait
p2408
I28
sVblocked
p2409
I-1
ssVtime
p2410
I31
sVresponse
p2411
(dp2412
Vstatus
p2413
I200
sVcomment
p2414
g4
sVcookies
p2415
(lp2416
sVstatusText
p2417
VOK
p2418
sVcontent
p2419
(dp2420
VmimeType
p2421
Vapplication/x-font-woff
p2422
sVcomment
p2423
g4
sVsize
p2424
I0
ssVheaders
p2425
(lp2426
sVheadersSize
p2427
I869
sVredirectURL
p2428
g4
sVbodySize
p2429
I23488
sVhttpVersion
p2430
VHTTP/1.1
p2431
ssa(dp2432
Vcomment
p2433
g4
sVserverIPAddress
p2434
V216.58.216.196
p2435
sVpageref
p2436
VMarcell Ozuna
p2437
sVstartedDateTime
p2438
V2017-04-16T08:22:34.631-05:00
p2439
sVcache
p2440
(dp2441
sVrequest
p2442
(dp2443
Vcomment
p2444
g4
sVcookies
p2445
(lp2446
sVurl
p2447
Vhttps://www.google.com/gen_204?s=web&atyp=csi&ei=FHDzWMnbAuawjwSy34v4Bg&imc=33&imn=33&imp=16&adh=&xjs=init.63.14.sb_mob.49.dvl.7.tl.2.c.1.mbsf.1&ima=9&rt=prt.671,iml.870,xjsls.671,qiml.1045,dcl.856,xjses.961,xjsee.1213,xjs.1214,ol.5444,aft.845,wsrt.116,cst.0,dnst.0,rqst.770,rspt.673,rqstt.5,unt.4,cstt.4,dit.908
p2448
sVqueryString
p2449
(lp2450
(dp2451
Vname
p2452
g57
sVvalue
p2453
Vweb
p2454
sa(dp2455
Vname
p2456
Vatyp
p2457
sVvalue
p2458
Vcsi
p2459
sa(dp2460
Vname
p2461
Vei
p2462
sVvalue
p2463
VFHDzWMnbAuawjwSy34v4Bg
p2464
sa(dp2465
Vname
p2466
Vimc
p2467
sVvalue
p2468
V33
p2469
sa(dp2470
Vname
p2471
Vimn
p2472
sVvalue
p2473
V33
p2474
sa(dp2475
Vname
p2476
Vimp
p2477
sVvalue
p2478
V16
p2479
sa(dp2480
Vname
p2481
Vadh
p2482
sVvalue
p2483
g4
sa(dp2484
Vname
p2485
Vxjs
p2486
sVvalue
p2487
Vinit.63.14.sb_mob.49.dvl.7.tl.2.c.1.mbsf.1
p2488
sa(dp2489
Vname
p2490
Vima
p2491
sVvalue
p2492
g1751
sa(dp2493
Vname
p2494
Vrt
p2495
sVvalue
p2496
Vprt.671,iml.870,xjsls.671,qiml.1045,dcl.856,xjses.961,xjsee.1213,xjs.1214,ol.5444,aft.845,wsrt.116,cst.0,dnst.0,rqst.770,rspt.673,rqstt.5,unt.4,cstt.4,dit.908
p2497
sasVheaders
p2498
(lp2499
sVheadersSize
p2500
I829
sVbodySize
p2501
I0
sVmethod
p2502
VGET
p2503
sVhttpVersion
p2504
VHTTP/1.1
p2505
ssVtimings
p2506
(dp2507
Vcomment
p2508
g4
sVreceive
p2509
I0
sVsend
p2510
I0
sVssl
p2511
I-1
sVconnect
p2512
I-1
sVdns
p2513
I-1
sVwait
p2514
I46
sVblocked
p2515
I-1
ssVtime
p2516
I46
sVresponse
p2517
(dp2518
Vstatus
p2519
I204
sVcomment
p2520
g4
sVcookies
p2521
(lp2522
sVstatusText
p2523
VNo Content
p2524
sVcontent
p2525
(dp2526
VmimeType
p2527
Vtext/html; charset=UTF-8
p2528
sVcomment
p2529
g4
sVsize
p2530
I0
ssVheaders
p2531
(lp2532
sVheadersSize
p2533
I248
sVredirectURL
p2534
g4
sVbodySize
p2535
I0
sVhttpVersion
p2536
VHTTP/1.1
p2537
ssasVversion
p2538
V1.2
p2539
sVpages
p2540
(lp2541
(dp2542
VpageTimings
p2543
(dp2544
Vcomment
p2545
g4
ssVcomment
p2546
g4
sVtitle
p2547
VMarcell Ozuna
p2548
sVid
p2549
VMarcell Ozuna
p2550
sVstartedDateTime
p2551
V2017-04-16T08:22:28.252-05:00
p2552
sasVcreator
p2553
(dp2554
Vcomment
p2555
g4
sVversion
p2556
V2.1.4
p2557
sVname
p2558
VBrowserMob Proxy
p2559
sss.