(dp0
Vlog
p1
(dp2
Vcomment
p3
V
p4
sVentries
p5
(lp6
(dp7
Vcomment
p8
g4
sVserverIPAddress
p9
V216.58.216.196
p10
sVpageref
p11
VUsain Bolt
p12
sVstartedDateTime
p13
V2017-04-16T08:03:54.814-05:00
p14
sVcache
p15
(dp16
sVrequest
p17
(dp18
Vcomment
p19
g4
sVcookies
p20
(lp21
sVurl
p22
Vhttps://www.google.com/gen_204?atyp=i&ct=slh&cad=&ei=p2vzWJn7BMX-jwTbibuwAg&m=V&t=C&s=1&v=2&pv=0.7951746130926837&me=1:1492347817479,x:1,V,0,0,1280,944:0,N,1,p2vzWJn7BMX-jwTbibuwAg:0,R,1,24,8,155,1249,445:0,R,1,28,8,268,1249,332:0,R,1,29,0,269,1265,351:0,R,1,54,8,610,1249,581:0,R,1,55,8,610,1249,581:0,R,1,58,8,623,1249,40:0,R,1,71,8,675,1249,146:0,R,1,74,0,691,1265,165:0,R,1,114,8,838,1249,40:0,R,1,115,24,838,1217,40:0,R,1,121,8,894,1249,20:0,R,1,125,8,922,1249,20:2,B,3358:17329,e,U&zx=1492347834813
p23
sVqueryString
p24
(lp25
(dp26
Vname
p27
Vatyp
p28
sVvalue
p29
Vi
p30
sa(dp31
Vname
p32
Vct
p33
sVvalue
p34
Vslh
p35
sa(dp36
Vname
p37
Vcad
p38
sVvalue
p39
g4
sa(dp40
Vname
p41
Vei
p42
sVvalue
p43
Vp2vzWJn7BMX-jwTbibuwAg
p44
sa(dp45
Vname
p46
Vm
p47
sVvalue
p48
VV
p49
sa(dp50
Vname
p51
Vt
p52
sVvalue
p53
VC
p54
sa(dp55
Vname
p56
Vs
p57
sVvalue
p58
V1
p59
sa(dp60
Vname
p61
Vv
p62
sVvalue
p63
V2
p64
sa(dp65
Vname
p66
Vpv
p67
sVvalue
p68
V0.7951746130926837
p69
sa(dp70
Vname
p71
Vme
p72
sVvalue
p73
V1:1492347817479,x:1,V,0,0,1280,944:0,N,1,p2vzWJn7BMX-jwTbibuwAg:0,R,1,24,8,155,1249,445:0,R,1,28,8,268,1249,332:0,R,1,29,0,269,1265,351:0,R,1,54,8,610,1249,581:0,R,1,55,8,610,1249,581:0,R,1,58,8,623,1249,40:0,R,1,71,8,675,1249,146:0,R,1,74,0,691,1265,165:0,R,1,114,8,838,1249,40:0,R,1,115,24,838,1217,40:0,R,1,121,8,894,1249,20:0,R,1,125,8,922,1249,20:2,B,3358:17329,e,U
p74
sa(dp75
Vname
p76
Vzx
p77
sVvalue
p78
V1492347834813
p79
sasVheaders
p80
(lp81
sVheadersSize
p82
I1021
sVbodySize
p83
I0
sVmethod
p84
VGET
p85
sVhttpVersion
p86
VHTTP/1.1
p87
ssVtimings
p88
(dp89
Vcomment
p90
g4
sVreceive
p91
I0
sVsend
p92
I0
sVssl
p93
I-1
sVconnect
p94
I-1
sVdns
p95
I-1
sVwait
p96
I0
sVblocked
p97
I-1
ssVtime
p98
I0
sVresponse
p99
(dp100
Vstatus
p101
I0
sVcomment
p102
g4
sVcookies
p103
(lp104
sV_error
p105
VNo response received
p106
sVstatusText
p107
g4
sVcontent
p108
(dp109
VmimeType
p110
g4
sVcomment
p111
g4
sVsize
p112
I0
ssVheaders
p113
(lp114
sVheadersSize
p115
I-1
sVredirectURL
p116
g4
sVbodySize
p117
I-1
sVhttpVersion
p118
Vunknown
p119
ssa(dp120
Vcomment
p121
g4
sVserverIPAddress
p122
V216.58.216.196
p123
sVpageref
p124
VUsain Bolt
p125
sVstartedDateTime
p126
V2017-04-16T08:03:54.819-05:00
p127
sVcache
p128
(dp129
sVrequest
p130
(dp131
Vcomment
p132
g4
sVcookies
p133
(lp134
sVurl
p135
Vhttp://www.google.com/
p136
sVqueryString
p137
(lp138
sVheaders
p139
(lp140
sVheadersSize
p141
I613
sVbodySize
p142
I0
sVmethod
p143
VGET
p144
sVhttpVersion
p145
VHTTP/1.1
p146
ssVtimings
p147
(dp148
Vcomment
p149
g4
sVreceive
p150
I0
sVsend
p151
I0
sVssl
p152
I-1
sVconnect
p153
I-1
sVdns
p154
I-1
sVwait
p155
I139
sVblocked
p156
I-1
ssVtime
p157
I139
sVresponse
p158
(dp159
Vstatus
p160
I302
sVcomment
p161
g4
sVcookies
p162
(lp163
sVstatusText
p164
VFound
p165
sVcontent
p166
(dp167
VmimeType
p168
Vtext/html; charset=UTF-8
p169
sVcomment
p170
g4
sVsize
p171
I0
ssVheaders
p172
(lp173
sVheadersSize
p174
I609
sVredirectURL
p175
Vhttps://www.google.com/?gws_rd=ssl
p176
sVbodySize
p177
I231
sVhttpVersion
p178
VHTTP/1.1
p179
ssa(dp180
Vcomment
p181
g4
sVserverIPAddress
p182
V216.58.216.196
p183
sVpageref
p184
VUsain Bolt
p185
sVstartedDateTime
p186
V2017-04-16T08:03:54.961-05:00
p187
sVcache
p188
(dp189
sVrequest
p190
(dp191
Vcomment
p192
g4
sVcookies
p193
(lp194
sVurl
p195
Vhttps://www.google.com/?gws_rd=ssl
p196
sVqueryString
p197
(lp198
(dp199
Vname
p200
Vgws_rd
p201
sVvalue
p202
Vssl
p203
sasVheaders
p204
(lp205
sVheadersSize
p206
I607
sVbodySize
p207
I0
sVmethod
p208
VGET
p209
sVhttpVersion
p210
VHTTP/1.1
p211
ssVtimings
p212
(dp213
Vcomment
p214
g4
sVreceive
p215
I22
sVsend
p216
I0
sVssl
p217
I-1
sVconnect
p218
I-1
sVdns
p219
I-1
sVwait
p220
I80
sVblocked
p221
I-1
ssVtime
p222
I102
sVresponse
p223
(dp224
Vstatus
p225
I200
sVcomment
p226
g4
sVcookies
p227
(lp228
sVstatusText
p229
VOK
p230
sVcontent
p231
(dp232
VmimeType
p233
Vtext/html; charset=UTF-8
p234
sVcomment
p235
g4
sVsize
p236
I0
ssVheaders
p237
(lp238
sVheadersSize
p239
I721
sVredirectURL
p240
g4
sVbodySize
p241
I34294
sVhttpVersion
p242
VHTTP/1.1
p243
ssa(dp244
Vcomment
p245
g4
sVserverIPAddress
p246
V216.58.216.196
p247
sVpageref
p248
VUsain Bolt
p249
sVstartedDateTime
p250
V2017-04-16T08:03:55.237-05:00
p251
sVcache
p252
(dp253
sVrequest
p254
(dp255
Vcomment
p256
g4
sVcookies
p257
(lp258
sVurl
p259
Vhttps://www.google.com/gen_204?s=mobilewebhp&atyp=csi&ei=uWvzWMWDPIXCjwTW14zADg&imc=1&imn=1&imp=0&adh=&xjs=init.23.12.sb_mob.16.dvl.4.c.1.mbsf.1.foot.1&ima=1&rt=xjsls.10,prt.11,iml.11,dcl.31,xjses.75,xjsee.150,xjs.150,ol.177,aft.11,wsrt.245,cst.0,dnst.0,rqst.104,rspt.23,rqstt.149,unt.148,cstt.148,dit.274
p260
sVqueryString
p261
(lp262
(dp263
Vname
p264
g57
sVvalue
p265
Vmobilewebhp
p266
sa(dp267
Vname
p268
Vatyp
p269
sVvalue
p270
Vcsi
p271
sa(dp272
Vname
p273
Vei
p274
sVvalue
p275
VuWvzWMWDPIXCjwTW14zADg
p276
sa(dp277
Vname
p278
Vimc
p279
sVvalue
p280
g59
sa(dp281
Vname
p282
Vimn
p283
sVvalue
p284
g59
sa(dp285
Vname
p286
Vimp
p287
sVvalue
p288
V0
p289
sa(dp290
Vname
p291
Vadh
p292
sVvalue
p293
g4
sa(dp294
Vname
p295
Vxjs
p296
sVvalue
p297
Vinit.23.12.sb_mob.16.dvl.4.c.1.mbsf.1.foot.1
p298
sa(dp299
Vname
p300
Vima
p301
sVvalue
p302
g59
sa(dp303
Vname
p304
Vrt
p305
sVvalue
p306
Vxjsls.10,prt.11,iml.11,dcl.31,xjses.75,xjsee.150,xjs.150,ol.177,aft.11,wsrt.245,cst.0,dnst.0,rqst.104,rspt.23,rqstt.149,unt.148,cstt.148,dit.274
p307
sasVheaders
p308
(lp309
sVheadersSize
p310
I833
sVbodySize
p311
I0
sVmethod
p312
VGET
p313
sVhttpVersion
p314
VHTTP/1.1
p315
ssVtimings
p316
(dp317
Vcomment
p318
g4
sVreceive
p319
I0
sVsend
p320
I0
sVssl
p321
I-1
sVconnect
p322
I-1
sVdns
p323
I-1
sVwait
p324
I108
sVblocked
p325
I-1
ssVtime
p326
I108
sVresponse
p327
(dp328
Vstatus
p329
I204
sVcomment
p330
g4
sVcookies
p331
(lp332
sVstatusText
p333
VNo Content
p334
sVcontent
p335
(dp336
VmimeType
p337
Vtext/html; charset=UTF-8
p338
sVcomment
p339
g4
sVsize
p340
I0
ssVheaders
p341
(lp342
sVheadersSize
p343
I248
sVredirectURL
p344
g4
sVbodySize
p345
I0
sVhttpVersion
p346
VHTTP/1.1
p347
ssa(dp348
Vcomment
p349
g4
sVserverIPAddress
p350
V216.58.216.196
p351
sVpageref
p352
VUsain Bolt
p353
sVstartedDateTime
p354
V2017-04-16T08:03:55.355-05:00
p355
sVcache
p356
(dp357
sVrequest
p358
(dp359
Vcomment
p360
g4
sVcookies
p361
(lp362
sVurl
p363
Vhttps://www.google.com/complete/search?client=mobile-gws-hp&hl=en&gs_rn=64&gs_ri=mobile-gws-hp&sla=1&gm=602&cp=0&gs_id=1&xhr=t&q=U&tch=1&ech=1&psi=uWvzWMWDPIXCjwTW14zADg.1492347835185.1
p364
sVqueryString
p365
(lp366
(dp367
Vname
p368
Vclient
p369
sVvalue
p370
Vmobile-gws-hp
p371
sa(dp372
Vname
p373
Vhl
p374
sVvalue
p375
Ven
p376
sa(dp377
Vname
p378
Vgs_rn
p379
sVvalue
p380
V64
p381
sa(dp382
Vname
p383
Vgs_ri
p384
sVvalue
p385
Vmobile-gws-hp
p386
sa(dp387
Vname
p388
Vsla
p389
sVvalue
p390
g59
sa(dp391
Vname
p392
Vgm
p393
sVvalue
p394
V602
p395
sa(dp396
Vname
p397
Vcp
p398
sVvalue
p399
g289
sa(dp400
Vname
p401
Vgs_id
p402
sVvalue
p403
g59
sa(dp404
Vname
p405
Vxhr
p406
sVvalue
p407
g52
sa(dp408
Vname
p409
Vq
p410
sVvalue
p411
VU
p412
sa(dp413
Vname
p414
Vtch
p415
sVvalue
p416
g59
sa(dp417
Vname
p418
Vech
p419
sVvalue
p420
g59
sa(dp421
Vname
p422
Vpsi
p423
sVvalue
p424
VuWvzWMWDPIXCjwTW14zADg.1492347835185.1
p425
sasVheaders
p426
(lp427
sVheadersSize
p428
I713
sVbodySize
p429
I0
sVmethod
p430
VGET
p431
sVhttpVersion
p432
VHTTP/1.1
p433
ssVtimings
p434
(dp435
Vcomment
p436
g4
sVreceive
p437
I0
sVsend
p438
I0
sVssl
p439
I-1
sVconnect
p440
I-1
sVdns
p441
I-1
sVwait
p442
I0
sVblocked
p443
I-1
ssVtime
p444
I0
sVresponse
p445
(dp446
Vstatus
p447
I0
sVcomment
p448
g4
sVcookies
p449
(lp450
sV_error
p451
VNo response received
p452
sVstatusText
p453
g4
sVcontent
p454
(dp455
VmimeType
p456
g4
sVcomment
p457
g4
sVsize
p458
I0
ssVheaders
p459
(lp460
sVheadersSize
p461
I-1
sVredirectURL
p462
g4
sVbodySize
p463
I-1
sVhttpVersion
p464
Vunknown
p465
ssa(dp466
Vcomment
p467
g4
sVserverIPAddress
p468
V216.58.216.196
p469
sVpageref
p470
VUsain Bolt
p471
sVstartedDateTime
p472
V2017-04-16T08:03:55.404-05:00
p473
sVcache
p474
(dp475
sVrequest
p476
(dp477
Vcomment
p478
g4
sVcookies
p479
(lp480
sVurl
p481
Vhttps://www.google.com/search?site=&source=hp&ei=uWvzWMWDPIXCjwTW14zADg&q=Usain+Bolt&oq=Usain+Bolt&gs_l=mobile-gws-hp.3...152.177.0.198.10.1.0.0.0.0.0.0..0.0....0...1c.1.64.mobile-gws-hp..10.0.0.wuIbGD06X4c
p482
sVqueryString
p483
(lp484
(dp485
Vname
p486
Vsite
p487
sVvalue
p488
g4
sa(dp489
Vname
p490
Vsource
p491
sVvalue
p492
Vhp
p493
sa(dp494
Vname
p495
Vei
p496
sVvalue
p497
VuWvzWMWDPIXCjwTW14zADg
p498
sa(dp499
Vname
p500
g410
sVvalue
p501
VUsain Bolt
p502
sa(dp503
Vname
p504
Voq
p505
sVvalue
p506
VUsain Bolt
p507
sa(dp508
Vname
p509
Vgs_l
p510
sVvalue
p511
Vmobile-gws-hp.3...152.177.0.198.10.1.0.0.0.0.0.0..0.0....0...1c.1.64.mobile-gws-hp..10.0.0.wuIbGD06X4c
p512
sasVheaders
p513
(lp514
sVheadersSize
p515
I824
sVbodySize
p516
I0
sVmethod
p517
VGET
p518
sVhttpVersion
p519
VHTTP/1.1
p520
ssVtimings
p521
(dp522
Vcomment
p523
g4
sVreceive
p524
I1206
sVsend
p525
I0
sVssl
p526
I-1
sVconnect
p527
I-1
sVdns
p528
I-1
sVwait
p529
I91
sVblocked
p530
I-1
ssVtime
p531
I1298
sVresponse
p532
(dp533
Vstatus
p534
I200
sVcomment
p535
g4
sVcookies
p536
(lp537
sVstatusText
p538
VOK
p539
sVcontent
p540
(dp541
VmimeType
p542
Vtext/html; charset=UTF-8
p543
sVcomment
p544
g4
sVsize
p545
I0
ssVheaders
p546
(lp547
sVheadersSize
p548
I363
sVredirectURL
p549
g4
sVbodySize
p550
I149049
sVhttpVersion
p551
VHTTP/1.1
p552
ssa(dp553
Vcomment
p554
g4
sVserverIPAddress
p555
V216.58.216.196
p556
sVpageref
p557
VUsain Bolt
p558
sVstartedDateTime
p559
V2017-04-16T08:03:57.041-05:00
p560
sVcache
p561
(dp562
sVrequest
p563
(dp564
Vcomment
p565
g4
sVcookies
p566
(lp567
sVurl
p568
Vhttps://www.google.com/xjs/_/js/k=xjs.qs.en_US.pCBXVCvTH3s.O/m=syl,syj,syn,em3,em8,em6,em7,sym,aa,abd,sy2g,sy2k,sy29,sy2j,sy2d,sy2a,sy2c,sy2f,sy2l,sy2m,sy2n,emd,async,sybn,sybi,sybo,sy1f,sy45,sy46,sy9w,sybk,sybj,sybp,sy1g,sy30,sy47,sybm,sybl,sybq,sy1h,sybh,dvl,syep,foot,ipv6,sy32,emj,shm,sy5g,sy5i,sy5k,sykh,tl,sy2x,sy2y,sy2t,sy38,em12,vs,sy5j,sy5h,sy6u,sy66,sy67,sy7d,sy7j,sy4u,sy69,sy89,sy7e,sykk,sykl,tnv,bct,sy1y,sy23,sy2u,sy22,sy6i,sy34,sy31,sy6j,sy25,sy6l,sy6k,sy6h,emb,em9,ema,sy6m,qkx,sy4d,sy4f,sy4c,sy4e,sy24,sy4b,sy6w,shrb,sy4g,syd7,dgm,syf5,syf6,syf8,sygb,syg9,kptm,sy99,syf4,sy26,syfc,syfn,syf7,syff,sy1i,sy68,sy8d,sy9b,syfl,syfr,syfq,syfg,sy1j,sy4q,sy5o,sy5r,sy6n,sy6p,sy8h,syc7,syc8,syfb,syfj,syfs,syft,syg3,syg5,syg7,emn,emo,syg4,syg6,ivg,sy9m,syac,sy9n,syhz,syl6,ssc,iuci,img,sy41,tcc,sya3,sya2,sy72,sya4,sykr,strm,sygq,kpc,kpci,sy4h,vrml,sy6y,sycu,d3l,twt,syj7,syj8,syj2,syjc,syj6,syj3,syjg,syjh,syje,syjd,syjk,syji,syjf,syj0,emr,ems,emt,emu,emv,emx,emy,emz,em10,em11,udlg,sy5z,atn,sy4i,sya1,ampfp/am=gCP4LtMEBXQA2RUaq_oFBISzAFA/rt=j/d=0/t=zcms/rs=ACT90oFwm4NZCwIcuuiqmthdlECdBzkhRA
p569
sVqueryString
p570
(lp571
sVheaders
p572
(lp573
sVheadersSize
p574
I1617
sVbodySize
p575
I0
sVmethod
p576
VGET
p577
sVhttpVersion
p578
VHTTP/1.1
p579
ssVtimings
p580
(dp581
Vcomment
p582
g4
sVreceive
p583
I20
sVsend
p584
I0
sVssl
p585
I-1
sVconnect
p586
I-1
sVdns
p587
I-1
sVwait
p588
I27
sVblocked
p589
I-1
ssVtime
p590
I47
sVresponse
p591
(dp592
Vstatus
p593
I200
sVcomment
p594
g4
sVcookies
p595
(lp596
sVstatusText
p597
VOK
p598
sVcontent
p599
(dp600
VmimeType
p601
Vtext/javascript; charset=UTF-8
p602
sVcomment
p603
g4
sVsize
p604
I0
ssVheaders
p605
(lp606
sVheadersSize
p607
I465
sVredirectURL
p608
g4
sVbodySize
p609
I114402
sVhttpVersion
p610
VHTTP/1.1
p611
ssa(dp612
Vcomment
p613
g4
sVserverIPAddress
p614
V216.58.216.196
p615
sVpageref
p616
VUsain Bolt
p617
sVstartedDateTime
p618
V2017-04-16T08:03:57.169-05:00
p619
sVcache
p620
(dp621
sVrequest
p622
(dp623
Vcomment
p624
g4
sVcookies
p625
(lp626
sVurl
p627
Vhttps://www.google.com/async/irc?vet=10ahUKEwiY97X0hKnTAhWN8oMKHcGhCVMQo0EIiAI..i&ved=0ahUKEwiY97X0hKnTAhWN8oMKHcGhCVMQo0EIiAI&ei=umvzWJiyGo3ljwTBw6aYBQ&yv=2&async=iu:1,ved:0ahUKEwiY97X0hKnTAhWN8oMKHcGhCVMQo0EIiAI,_id:irc_async,_pms:qs
p628
sVqueryString
p629
(lp630
(dp631
Vname
p632
Vvet
p633
sVvalue
p634
V10ahUKEwiY97X0hKnTAhWN8oMKHcGhCVMQo0EIiAI..i
p635
sa(dp636
Vname
p637
Vved
p638
sVvalue
p639
V0ahUKEwiY97X0hKnTAhWN8oMKHcGhCVMQo0EIiAI
p640
sa(dp641
Vname
p642
Vei
p643
sVvalue
p644
VumvzWJiyGo3ljwTBw6aYBQ
p645
sa(dp646
Vname
p647
Vyv
p648
sVvalue
p649
g64
sa(dp650
Vname
p651
Vasync
p652
sVvalue
p653
Viu:1,ved:0ahUKEwiY97X0hKnTAhWN8oMKHcGhCVMQo0EIiAI,_id:irc_async,_pms:qs
p654
sasVheaders
p655
(lp656
sVheadersSize
p657
I752
sVbodySize
p658
I0
sVmethod
p659
VGET
p660
sVhttpVersion
p661
VHTTP/1.1
p662
ssVtimings
p663
(dp664
Vcomment
p665
g4
sVreceive
p666
I1
sVsend
p667
I0
sVssl
p668
I-1
sVconnect
p669
I-1
sVdns
p670
I-1
sVwait
p671
I39
sVblocked
p672
I-1
ssVtime
p673
I41
sVresponse
p674
(dp675
Vstatus
p676
I200
sVcomment
p677
g4
sVcookies
p678
(lp679
sVstatusText
p680
VOK
p681
sVcontent
p682
(dp683
VmimeType
p684
Vtext/html; charset=UTF-8
p685
sVcomment
p686
g4
sVsize
p687
I0
ssVheaders
p688
(lp689
sVheadersSize
p690
I383
sVredirectURL
p691
g4
sVbodySize
p692
I7791
sVhttpVersion
p693
VHTTP/1.1
p694
ssa(dp695
Vcomment
p696
g4
sVserverIPAddress
p697
V216.58.216.196
p698
sVpageref
p699
VUsain Bolt
p700
sVstartedDateTime
p701
V2017-04-16T08:03:57.178-05:00
p702
sVcache
p703
(dp704
sVrequest
p705
(dp706
Vcomment
p707
g4
sVcookies
p708
(lp709
sVurl
p710
Vhttps://www.google.com/gen_204?atyp=i&ct=&cad=&vet=10ahUKEwiY97X0hKnTAhWN8oMKHcGhCVMQ5W0IPSgC..s&ei=umvzWJiyGo3ljwTBw6aYBQ&zx=1492347837176
p711
sVqueryString
p712
(lp713
(dp714
Vname
p715
Vatyp
p716
sVvalue
p717
g30
sa(dp718
Vname
p719
Vct
p720
sVvalue
p721
g4
sa(dp722
Vname
p723
Vcad
p724
sVvalue
p725
g4
sa(dp726
Vname
p727
Vvet
p728
sVvalue
p729
V10ahUKEwiY97X0hKnTAhWN8oMKHcGhCVMQ5W0IPSgC..s
p730
sa(dp731
Vname
p732
Vei
p733
sVvalue
p734
VumvzWJiyGo3ljwTBw6aYBQ
p735
sa(dp736
Vname
p737
Vzx
p738
sVvalue
p739
V1492347837176
p740
sasVheaders
p741
(lp742
sVheadersSize
p743
I656
sVbodySize
p744
I0
sVmethod
p745
VGET
p746
sVhttpVersion
p747
VHTTP/1.1
p748
ssVtimings
p749
(dp750
Vcomment
p751
g4
sVreceive
p752
I0
sVsend
p753
I0
sVssl
p754
I-1
sVconnect
p755
I-1
sVdns
p756
I-1
sVwait
p757
I26
sVblocked
p758
I-1
ssVtime
p759
I26
sVresponse
p760
(dp761
Vstatus
p762
I204
sVcomment
p763
g4
sVcookies
p764
(lp765
sVstatusText
p766
VNo Content
p767
sVcontent
p768
(dp769
VmimeType
p770
Vtext/html; charset=UTF-8
p771
sVcomment
p772
g4
sVsize
p773
I0
ssVheaders
p774
(lp775
sVheadersSize
p776
I248
sVredirectURL
p777
g4
sVbodySize
p778
I0
sVhttpVersion
p779
VHTTP/1.1
p780
ssa(dp781
Vcomment
p782
g4
sVserverIPAddress
p783
V216.58.216.196
p784
sVpageref
p785
VUsain Bolt
p786
sVstartedDateTime
p787
V2017-04-16T08:03:57.181-05:00
p788
sVcache
p789
(dp790
sVrequest
p791
(dp792
Vcomment
p793
g4
sVcookies
p794
(lp795
sVurl
p796
Vhttps://www.google.com/gen_204?atyp=i&ct=&cad=&vet=10ahUKEwiY97X0hKnTAhWN8oMKHcGhCVMQ5W0IQCgD..s&ei=umvzWJiyGo3ljwTBw6aYBQ&zx=1492347837180
p797
sVqueryString
p798
(lp799
(dp800
Vname
p801
Vatyp
p802
sVvalue
p803
g30
sa(dp804
Vname
p805
Vct
p806
sVvalue
p807
g4
sa(dp808
Vname
p809
Vcad
p810
sVvalue
p811
g4
sa(dp812
Vname
p813
Vvet
p814
sVvalue
p815
V10ahUKEwiY97X0hKnTAhWN8oMKHcGhCVMQ5W0IQCgD..s
p816
sa(dp817
Vname
p818
Vei
p819
sVvalue
p820
VumvzWJiyGo3ljwTBw6aYBQ
p821
sa(dp822
Vname
p823
Vzx
p824
sVvalue
p825
V1492347837180
p826
sasVheaders
p827
(lp828
sVheadersSize
p829
I656
sVbodySize
p830
I0
sVmethod
p831
VGET
p832
sVhttpVersion
p833
VHTTP/1.1
p834
ssVtimings
p835
(dp836
Vcomment
p837
g4
sVreceive
p838
I0
sVsend
p839
I0
sVssl
p840
I-1
sVconnect
p841
I-1
sVdns
p842
I-1
sVwait
p843
I30
sVblocked
p844
I-1
ssVtime
p845
I30
sVresponse
p846
(dp847
Vstatus
p848
I204
sVcomment
p849
g4
sVcookies
p850
(lp851
sVstatusText
p852
VNo Content
p853
sVcontent
p854
(dp855
VmimeType
p856
Vtext/html; charset=UTF-8
p857
sVcomment
p858
g4
sVsize
p859
I0
ssVheaders
p860
(lp861
sVheadersSize
p862
I248
sVredirectURL
p863
g4
sVbodySize
p864
I0
sVhttpVersion
p865
VHTTP/1.1
p866
ssa(dp867
Vcomment
p868
g4
sVserverIPAddress
p869
V216.58.216.196
p870
sVpageref
p871
VUsain Bolt
p872
sVstartedDateTime
p873
V2017-04-16T08:03:57.183-05:00
p874
sVcache
p875
(dp876
sVrequest
p877
(dp878
Vcomment
p879
g4
sVcookies
p880
(lp881
sVurl
p882
Vhttps://www.google.com/gen_204?atyp=i&ct=&cad=&vet=10ahUKEwiY97X0hKnTAhWN8oMKHcGhCVMQ5W0IQygE..s&ei=umvzWJiyGo3ljwTBw6aYBQ&zx=1492347837182
p883
sVqueryString
p884
(lp885
(dp886
Vname
p887
Vatyp
p888
sVvalue
p889
g30
sa(dp890
Vname
p891
Vct
p892
sVvalue
p893
g4
sa(dp894
Vname
p895
Vcad
p896
sVvalue
p897
g4
sa(dp898
Vname
p899
Vvet
p900
sVvalue
p901
V10ahUKEwiY97X0hKnTAhWN8oMKHcGhCVMQ5W0IQygE..s
p902
sa(dp903
Vname
p904
Vei
p905
sVvalue
p906
VumvzWJiyGo3ljwTBw6aYBQ
p907
sa(dp908
Vname
p909
Vzx
p910
sVvalue
p911
V1492347837182
p912
sasVheaders
p913
(lp914
sVheadersSize
p915
I656
sVbodySize
p916
I0
sVmethod
p917
VGET
p918
sVhttpVersion
p919
VHTTP/1.1
p920
ssVtimings
p921
(dp922
Vcomment
p923
g4
sVreceive
p924
I0
sVsend
p925
I0
sVssl
p926
I-1
sVconnect
p927
I-1
sVdns
p928
I-1
sVwait
p929
I30
sVblocked
p930
I-1
ssVtime
p931
I31
sVresponse
p932
(dp933
Vstatus
p934
I204
sVcomment
p935
g4
sVcookies
p936
(lp937
sVstatusText
p938
VNo Content
p939
sVcontent
p940
(dp941
VmimeType
p942
Vtext/html; charset=UTF-8
p943
sVcomment
p944
g4
sVsize
p945
I0
ssVheaders
p946
(lp947
sVheadersSize
p948
I248
sVredirectURL
p949
g4
sVbodySize
p950
I0
sVhttpVersion
p951
VHTTP/1.1
p952
ssa(dp953
Vcomment
p954
g4
sVserverIPAddress
p955
V216.58.216.196
p956
sVpageref
p957
VUsain Bolt
p958
sVstartedDateTime
p959
V2017-04-16T08:03:57.221-05:00
p960
sVcache
p961
(dp962
sVrequest
p963
(dp964
Vcomment
p965
g4
sVcookies
p966
(lp967
sVurl
p968
Vhttps://www.google.com/gen_204?atyp=i&ct=&cad=&vet=10ahUKEwiY97X0hKnTAhWN8oMKHcGhCVMQ5W0IRigF..s&ei=umvzWJiyGo3ljwTBw6aYBQ&zx=1492347837184
p969
sVqueryString
p970
(lp971
(dp972
Vname
p973
Vatyp
p974
sVvalue
p975
g30
sa(dp976
Vname
p977
Vct
p978
sVvalue
p979
g4
sa(dp980
Vname
p981
Vcad
p982
sVvalue
p983
g4
sa(dp984
Vname
p985
Vvet
p986
sVvalue
p987
V10ahUKEwiY97X0hKnTAhWN8oMKHcGhCVMQ5W0IRigF..s
p988
sa(dp989
Vname
p990
Vei
p991
sVvalue
p992
VumvzWJiyGo3ljwTBw6aYBQ
p993
sa(dp994
Vname
p995
Vzx
p996
sVvalue
p997
V1492347837184
p998
sasVheaders
p999
(lp1000
sVheadersSize
p1001
I656
sVbodySize
p1002
I0
sVmethod
p1003
VGET
p1004
sVhttpVersion
p1005
VHTTP/1.1
p1006
ssVtimings
p1007
(dp1008
Vcomment
p1009
g4
sVreceive
p1010
I0
sVsend
p1011
I0
sVssl
p1012
I18
sVconnect
p1013
I33
sVdns
p1014
I1
sVwait
p1015
I27
sVblocked
p1016
I0
ssVtime
p1017
I63
sVresponse
p1018
(dp1019
Vstatus
p1020
I204
sVcomment
p1021
g4
sVcookies
p1022
(lp1023
sVstatusText
p1024
VNo Content
p1025
sVcontent
p1026
(dp1027
VmimeType
p1028
Vtext/html; charset=UTF-8
p1029
sVcomment
p1030
g4
sVsize
p1031
I0
ssVheaders
p1032
(lp1033
sVheadersSize
p1034
I248
sVredirectURL
p1035
g4
sVbodySize
p1036
I0
sVhttpVersion
p1037
VHTTP/1.1
p1038
ssa(dp1039
Vcomment
p1040
g4
sVserverIPAddress
p1041
V216.58.216.196
p1042
sVpageref
p1043
VUsain Bolt
p1044
sVstartedDateTime
p1045
V2017-04-16T08:03:57.230-05:00
p1046
sVcache
p1047
(dp1048
sVrequest
p1049
(dp1050
Vcomment
p1051
g4
sVcookies
p1052
(lp1053
sVurl
p1054
Vhttps://www.google.com/gen_204?atyp=i&ct=&cad=&vet=10ahUKEwiY97X0hKnTAhWN8oMKHcGhCVMQ5W0ISSgG..s&ei=umvzWJiyGo3ljwTBw6aYBQ&zx=1492347837186
p1055
sVqueryString
p1056
(lp1057
(dp1058
Vname
p1059
Vatyp
p1060
sVvalue
p1061
g30
sa(dp1062
Vname
p1063
Vct
p1064
sVvalue
p1065
g4
sa(dp1066
Vname
p1067
Vcad
p1068
sVvalue
p1069
g4
sa(dp1070
Vname
p1071
Vvet
p1072
sVvalue
p1073
V10ahUKEwiY97X0hKnTAhWN8oMKHcGhCVMQ5W0ISSgG..s
p1074
sa(dp1075
Vname
p1076
Vei
p1077
sVvalue
p1078
VumvzWJiyGo3ljwTBw6aYBQ
p1079
sa(dp1080
Vname
p1081
Vzx
p1082
sVvalue
p1083
V1492347837186
p1084
sasVheaders
p1085
(lp1086
sVheadersSize
p1087
I656
sVbodySize
p1088
I0
sVmethod
p1089
VGET
p1090
sVhttpVersion
p1091
VHTTP/1.1
p1092
ssVtimings
p1093
(dp1094
Vcomment
p1095
g4
sVreceive
p1096
I0
sVsend
p1097
I0
sVssl
p1098
I17
sVconnect
p1099
I41
sVdns
p1100
I0
sVwait
p1101
I31
sVblocked
p1102
I0
ssVtime
p1103
I73
sVresponse
p1104
(dp1105
Vstatus
p1106
I204
sVcomment
p1107
g4
sVcookies
p1108
(lp1109
sVstatusText
p1110
VNo Content
p1111
sVcontent
p1112
(dp1113
VmimeType
p1114
Vtext/html; charset=UTF-8
p1115
sVcomment
p1116
g4
sVsize
p1117
I0
ssVheaders
p1118
(lp1119
sVheadersSize
p1120
I248
sVredirectURL
p1121
g4
sVbodySize
p1122
I0
sVhttpVersion
p1123
VHTTP/1.1
p1124
ssa(dp1125
Vcomment
p1126
g4
sVserverIPAddress
p1127
V216.58.216.196
p1128
sVpageref
p1129
VUsain Bolt
p1130
sVstartedDateTime
p1131
V2017-04-16T08:03:57.260-05:00
p1132
sVcache
p1133
(dp1134
sVrequest
p1135
(dp1136
Vcomment
p1137
g4
sVcookies
p1138
(lp1139
sVurl
p1140
Vhttps://www.google.com/async/ampfp?vet=10ahUKEwiY97X0hKnTAhWN8oMKHcGhCVMQtZoBCIYC..i&ei=umvzWJiyGo3ljwTBw6aYBQ&yv=2&async=_id:ampfp-async,_pms:qs
p1141
sVqueryString
p1142
(lp1143
(dp1144
Vname
p1145
Vvet
p1146
sVvalue
p1147
V10ahUKEwiY97X0hKnTAhWN8oMKHcGhCVMQtZoBCIYC..i
p1148
sa(dp1149
Vname
p1150
Vei
p1151
sVvalue
p1152
VumvzWJiyGo3ljwTBw6aYBQ
p1153
sa(dp1154
Vname
p1155
Vyv
p1156
sVvalue
p1157
g64
sa(dp1158
Vname
p1159
Vasync
p1160
sVvalue
p1161
V_id:ampfp-async,_pms:qs
p1162
sasVheaders
p1163
(lp1164
sVheadersSize
p1165
I662
sVbodySize
p1166
I0
sVmethod
p1167
VGET
p1168
sVhttpVersion
p1169
VHTTP/1.1
p1170
ssVtimings
p1171
(dp1172
Vcomment
p1173
g4
sVreceive
p1174
I1
sVsend
p1175
I0
sVssl
p1176
I-1
sVconnect
p1177
I-1
sVdns
p1178
I-1
sVwait
p1179
I37
sVblocked
p1180
I-1
ssVtime
p1181
I38
sVresponse
p1182
(dp1183
Vstatus
p1184
I200
sVcomment
p1185
g4
sVcookies
p1186
(lp1187
sVstatusText
p1188
VOK
p1189
sVcontent
p1190
(dp1191
VmimeType
p1192
Vtext/html; charset=UTF-8
p1193
sVcomment
p1194
g4
sVsize
p1195
I0
ssVheaders
p1196
(lp1197
sVheadersSize
p1198
I383
sVredirectURL
p1199
g4
sVbodySize
p1200
I4528
sVhttpVersion
p1201
VHTTP/1.1
p1202
ssa(dp1203
Vcomment
p1204
g4
sVserverIPAddress
p1205
V216.58.216.193
p1206
sVpageref
p1207
VUsain Bolt
p1208
sVstartedDateTime
p1209
V2017-04-16T08:03:57.260-05:00
p1210
sVcache
p1211
(dp1212
sVrequest
p1213
(dp1214
Vcomment
p1215
g4
sVcookies
p1216
(lp1217
sVurl
p1218
Vhttps://cdn.ampproject.org/preconnect.gif?0.7390375337719475
p1219
sVqueryString
p1220
(lp1221
(dp1222
Vname
p1223
V0.7390375337719475
p1224
sVvalue
p1225
g4
sasVheaders
p1226
(lp1227
sVheadersSize
p1228
I375
sVbodySize
p1229
I0
sVmethod
p1230
VGET
p1231
sVhttpVersion
p1232
VHTTP/1.1
p1233
ssVtimings
p1234
(dp1235
Vcomment
p1236
g4
sVreceive
p1237
I0
sVsend
p1238
I0
sVssl
p1239
I-1
sVconnect
p1240
I-1
sVdns
p1241
I-1
sVwait
p1242
I30
sVblocked
p1243
I-1
ssVtime
p1244
I31
sVresponse
p1245
(dp1246
Vstatus
p1247
I200
sVcomment
p1248
g4
sVcookies
p1249
(lp1250
sVstatusText
p1251
VOK
p1252
sVcontent
p1253
(dp1254
VmimeType
p1255
Vimage/gif
p1256
sVcomment
p1257
g4
sVsize
p1258
I0
ssVheaders
p1259
(lp1260
sVheadersSize
p1261
I826
sVredirectURL
p1262
g4
sVbodySize
p1263
I37
sVhttpVersion
p1264
VHTTP/1.1
p1265
ssa(dp1266
Vcomment
p1267
g4
sVserverIPAddress
p1268
V216.58.216.206
p1269
sVpageref
p1270
VUsain Bolt
p1271
sVstartedDateTime
p1272
V2017-04-16T08:03:57.278-05:00
p1273
sVcache
p1274
(dp1275
sVrequest
p1276
(dp1277
Vcomment
p1278
g4
sVcookies
p1279
(lp1280
sVurl
p1281
Vhttps://encrypted-tbn0.gstatic.com/images?q=tbn:ANd9GcSImvU5kE9-GQLL9M_dyZTMW-oUNbTJEjYr-JVxs9FjVk8CbHO84YpJxaPfYg
p1282
sVqueryString
p1283
(lp1284
(dp1285
Vname
p1286
g410
sVvalue
p1287
Vtbn:ANd9GcSImvU5kE9-GQLL9M_dyZTMW-oUNbTJEjYr-JVxs9FjVk8CbHO84YpJxaPfYg
p1288
sasVheaders
p1289
(lp1290
sVheadersSize
p1291
I429
sVbodySize
p1292
I0
sVmethod
p1293
VGET
p1294
sVhttpVersion
p1295
VHTTP/1.1
p1296
ssVtimings
p1297
(dp1298
Vcomment
p1299
g4
sVreceive
p1300
I6
sVsend
p1301
I0
sVssl
p1302
I-1
sVconnect
p1303
I-1
sVdns
p1304
I-1
sVwait
p1305
I23
sVblocked
p1306
I-1
ssVtime
p1307
I30
sVresponse
p1308
(dp1309
Vstatus
p1310
I200
sVcomment
p1311
g4
sVcookies
p1312
(lp1313
sVstatusText
p1314
VOK
p1315
sVcontent
p1316
(dp1317
VmimeType
p1318
Vimage/jpeg
p1319
sVcomment
p1320
g4
sVsize
p1321
I0
ssVheaders
p1322
(lp1323
sVheadersSize
p1324
I415
sVredirectURL
p1325
g4
sVbodySize
p1326
I8287
sVhttpVersion
p1327
VHTTP/1.1
p1328
ssa(dp1329
Vcomment
p1330
g4
sVserverIPAddress
p1331
V216.58.216.206
p1332
sVpageref
p1333
VUsain Bolt
p1334
sVstartedDateTime
p1335
V2017-04-16T08:03:57.279-05:00
p1336
sVcache
p1337
(dp1338
sVrequest
p1339
(dp1340
Vcomment
p1341
g4
sVcookies
p1342
(lp1343
sVurl
p1344
Vhttps://encrypted-tbn3.gstatic.com/images?q=tbn:ANd9GcQwQPi4bTC1HqWny7LBYbAbzovqbfxkEC2pXySH4gYTd_LKqStpb7S25o4K8Q
p1345
sVqueryString
p1346
(lp1347
(dp1348
Vname
p1349
g410
sVvalue
p1350
Vtbn:ANd9GcQwQPi4bTC1HqWny7LBYbAbzovqbfxkEC2pXySH4gYTd_LKqStpb7S25o4K8Q
p1351
sasVheaders
p1352
(lp1353
sVheadersSize
p1354
I429
sVbodySize
p1355
I0
sVmethod
p1356
VGET
p1357
sVhttpVersion
p1358
VHTTP/1.1
p1359
ssVtimings
p1360
(dp1361
Vcomment
p1362
g4
sVreceive
p1363
I1
sVsend
p1364
I0
sVssl
p1365
I-1
sVconnect
p1366
I-1
sVdns
p1367
I-1
sVwait
p1368
I19
sVblocked
p1369
I-1
ssVtime
p1370
I20
sVresponse
p1371
(dp1372
Vstatus
p1373
I200
sVcomment
p1374
g4
sVcookies
p1375
(lp1376
sVstatusText
p1377
VOK
p1378
sVcontent
p1379
(dp1380
VmimeType
p1381
Vimage/jpeg
p1382
sVcomment
p1383
g4
sVsize
p1384
I0
ssVheaders
p1385
(lp1386
sVheadersSize
p1387
I428
sVredirectURL
p1388
g4
sVbodySize
p1389
I5377
sVhttpVersion
p1390
VHTTP/1.1
p1391
ssa(dp1392
Vcomment
p1393
g4
sVserverIPAddress
p1394
V216.58.216.206
p1395
sVpageref
p1396
VUsain Bolt
p1397
sVstartedDateTime
p1398
V2017-04-16T08:03:57.279-05:00
p1399
sVcache
p1400
(dp1401
sVrequest
p1402
(dp1403
Vcomment
p1404
g4
sVcookies
p1405
(lp1406
sVurl
p1407
Vhttps://encrypted-tbn1.gstatic.com/images?q=tbn:ANd9GcTaUqqXD4D_48m9uL_cfVAcxejt64vskpQftHIGO-Pl9_pfytGX9ZhkoK51
p1408
sVqueryString
p1409
(lp1410
(dp1411
Vname
p1412
g410
sVvalue
p1413
Vtbn:ANd9GcTaUqqXD4D_48m9uL_cfVAcxejt64vskpQftHIGO-Pl9_pfytGX9ZhkoK51
p1414
sasVheaders
p1415
(lp1416
sVheadersSize
p1417
I427
sVbodySize
p1418
I0
sVmethod
p1419
VGET
p1420
sVhttpVersion
p1421
VHTTP/1.1
p1422
ssVtimings
p1423
(dp1424
Vcomment
p1425
g4
sVreceive
p1426
I1
sVsend
p1427
I0
sVssl
p1428
I-1
sVconnect
p1429
I-1
sVdns
p1430
I-1
sVwait
p1431
I19
sVblocked
p1432
I-1
ssVtime
p1433
I21
sVresponse
p1434
(dp1435
Vstatus
p1436
I200
sVcomment
p1437
g4
sVcookies
p1438
(lp1439
sVstatusText
p1440
VOK
p1441
sVcontent
p1442
(dp1443
VmimeType
p1444
Vimage/jpeg
p1445
sVcomment
p1446
g4
sVsize
p1447
I0
ssVheaders
p1448
(lp1449
sVheadersSize
p1450
I425
sVredirectURL
p1451
g4
sVbodySize
p1452
I5067
sVhttpVersion
p1453
VHTTP/1.1
p1454
ssa(dp1455
Vcomment
p1456
g4
sVserverIPAddress
p1457
V216.58.216.196
p1458
sVpageref
p1459
VUsain Bolt
p1460
sVstartedDateTime
p1461
V2017-04-16T08:03:57.385-05:00
p1462
sVcache
p1463
(dp1464
sVrequest
p1465
(dp1466
Vcomment
p1467
g4
sVcookies
p1468
(lp1469
sVurl
p1470
Vhttps://www.google.com/async/log_amp_item_set?vet=10ahUKEwiDo6b1hKnTAhVIw4MKHcPrA28QooQBCAE..i&ei=umvzWJiyGo3ljwTBw6aYBQ&yv=2&async=num_items:1,_fmt:jspb
p1471
sVqueryString
p1472
(lp1473
(dp1474
Vname
p1475
Vvet
p1476
sVvalue
p1477
V10ahUKEwiDo6b1hKnTAhVIw4MKHcPrA28QooQBCAE..i
p1478
sa(dp1479
Vname
p1480
Vei
p1481
sVvalue
p1482
VumvzWJiyGo3ljwTBw6aYBQ
p1483
sa(dp1484
Vname
p1485
Vyv
p1486
sVvalue
p1487
g64
sa(dp1488
Vname
p1489
Vasync
p1490
sVvalue
p1491
Vnum_items:1,_fmt:jspb
p1492
sasVheaders
p1493
(lp1494
sVheadersSize
p1495
I670
sVbodySize
p1496
I0
sVmethod
p1497
VGET
p1498
sVhttpVersion
p1499
VHTTP/1.1
p1500
ssVtimings
p1501
(dp1502
Vcomment
p1503
g4
sVreceive
p1504
I0
sVsend
p1505
I0
sVssl
p1506
I-1
sVconnect
p1507
I-1
sVdns
p1508
I-1
sVwait
p1509
I68
sVblocked
p1510
I-1
ssVtime
p1511
I68
sVresponse
p1512
(dp1513
Vstatus
p1514
I200
sVcomment
p1515
g4
sVcookies
p1516
(lp1517
sVstatusText
p1518
VOK
p1519
sVcontent
p1520
(dp1521
VmimeType
p1522
Vapplication/json; charset=UTF-8
p1523
sVcomment
p1524
g4
sVsize
p1525
I0
ssVheaders
p1526
(lp1527
sVheadersSize
p1528
I417
sVredirectURL
p1529
g4
sVbodySize
p1530
I132
sVhttpVersion
p1531
VHTTP/1.1
p1532
ssa(dp1533
Vcomment
p1534
g4
sVserverIPAddress
p1535
V216.58.216.193
p1536
sVpageref
p1537
VUsain Bolt
p1538
sVstartedDateTime
p1539
V2017-04-16T08:03:57.854-05:00
p1540
sVcache
p1541
(dp1542
sVrequest
p1543
(dp1544
Vcomment
p1545
g4
sVcookies
p1546
(lp1547
sVurl
p1548
Vhttps://www-eurosport-com.cdn.ampproject.org/v/www.eurosport.com/athletics/diamond-league-preview-date-time-route-odds-and-tv-schedule_sto6111363/story-amp.shtml?amp_js_v=9
p1549
sVqueryString
p1550
(lp1551
(dp1552
Vname
p1553
Vamp_js_v
p1554
sVvalue
p1555
V9
p1556
sasVheaders
p1557
(lp1558
sVheadersSize
p1559
I577
sVbodySize
p1560
I0
sVmethod
p1561
VGET
p1562
sVhttpVersion
p1563
VHTTP/1.1
p1564
ssVtimings
p1565
(dp1566
Vcomment
p1567
g4
sVreceive
p1568
I0
sVsend
p1569
I0
sVssl
p1570
I366
sVconnect
p1571
I398
sVdns
p1572
I63
sVwait
p1573
I88
sVblocked
p1574
I0
ssVtime
p1575
I551
sVresponse
p1576
(dp1577
Vstatus
p1578
I200
sVcomment
p1579
g4
sVcookies
p1580
(lp1581
sVstatusText
p1582
VOK
p1583
sVcontent
p1584
(dp1585
VmimeType
p1586
Vtext/html
p1587
sVcomment
p1588
g4
sVsize
p1589
I0
ssVheaders
p1590
(lp1591
sVheadersSize
p1592
I860
sVredirectURL
p1593
g4
sVbodySize
p1594
I7501
sVhttpVersion
p1595
VHTTP/1.1
p1596
ssa(dp1597
Vcomment
p1598
g4
sVserverIPAddress
p1599
V216.58.216.193
p1600
sVpageref
p1601
VUsain Bolt
p1602
sVstartedDateTime
p1603
V2017-04-16T08:03:57.960-05:00
p1604
sVcache
p1605
(dp1606
sVrequest
p1607
(dp1608
Vcomment
p1609
g4
sVcookies
p1610
(lp1611
sVurl
p1612
Vhttps://cdn.ampproject.org/rtv/011492014732688/v0/amp-pinterest-0.1.js
p1613
sVqueryString
p1614
(lp1615
sVheaders
p1616
(lp1617
sVheadersSize
p1618
I534
sVbodySize
p1619
I0
sVmethod
p1620
VGET
p1621
sVhttpVersion
p1622
VHTTP/1.1
p1623
ssVtimings
p1624
(dp1625
Vcomment
p1626
g4
sVreceive
p1627
I0
sVsend
p1628
I0
sVssl
p1629
I-1
sVconnect
p1630
I-1
sVdns
p1631
I-1
sVwait
p1632
I153
sVblocked
p1633
I-1
ssVtime
p1634
I154
sVresponse
p1635
(dp1636
Vstatus
p1637
I200
sVcomment
p1638
g4
sVcookies
p1639
(lp1640
sVstatusText
p1641
VOK
p1642
sVcontent
p1643
(dp1644
VmimeType
p1645
Vtext/javascript
p1646
sVcomment
p1647
g4
sVsize
p1648
I0
ssVheaders
p1649
(lp1650
sVheadersSize
p1651
I1165
sVredirectURL
p1652
g4
sVbodySize
p1653
I5160
sVhttpVersion
p1654
VHTTP/1.1
p1655
ssa(dp1656
Vcomment
p1657
g4
sVserverIPAddress
p1658
V216.58.216.206
p1659
sVpageref
p1660
VUsain Bolt
p1661
sVstartedDateTime
p1662
V2017-04-16T08:03:58.799-05:00
p1663
sVcache
p1664
(dp1665
sVrequest
p1666
(dp1667
Vcomment
p1668
g4
sVcookies
p1669
(lp1670
sVurl
p1671
Vhttps://i.ytimg.com/vi/gqm5BB0Favg/sddefault.jpg
p1672
sVqueryString
p1673
(lp1674
sVheaders
p1675
(lp1676
sVheadersSize
p1677
I411
sVbodySize
p1678
I0
sVmethod
p1679
VGET
p1680
sVhttpVersion
p1681
VHTTP/1.1
p1682
ssVtimings
p1683
(dp1684
Vcomment
p1685
g4
sVreceive
p1686
I25
sVsend
p1687
I0
sVssl
p1688
I633
sVconnect
p1689
I647
sVdns
p1690
I36
sVwait
p1691
I13
sVblocked
p1692
I0
ssVtime
p1693
I722
sVresponse
p1694
(dp1695
Vstatus
p1696
I200
sVcomment
p1697
g4
sVcookies
p1698
(lp1699
sVstatusText
p1700
VOK
p1701
sVcontent
p1702
(dp1703
VmimeType
p1704
Vimage/jpeg
p1705
sVcomment
p1706
g4
sVsize
p1707
I0
ssVheaders
p1708
(lp1709
sVheadersSize
p1710
I355
sVredirectURL
p1711
g4
sVbodySize
p1712
I56310
sVhttpVersion
p1713
VHTTP/1.1
p1714
ssa(dp1715
Vcomment
p1716
g4
sVserverIPAddress
p1717
V216.58.216.193
p1718
sVpageref
p1719
VUsain Bolt
p1720
sVstartedDateTime
p1721
V2017-04-16T08:03:58.951-05:00
p1722
sVcache
p1723
(dp1724
sVrequest
p1725
(dp1726
Vcomment
p1727
g4
sVcookies
p1728
(lp1729
sVurl
p1730
Vhttps://i-eurosport-com.cdn.ampproject.org/i/i.eurosport.com/2015/03/26/1443749-30871948-150-150.jpg
p1731
sVqueryString
p1732
(lp1733
sVheaders
p1734
(lp1735
sVheadersSize
p1736
I564
sVbodySize
p1737
I0
sVmethod
p1738
VGET
p1739
sVhttpVersion
p1740
VHTTP/1.1
p1741
ssVtimings
p1742
(dp1743
Vcomment
p1744
g4
sVreceive
p1745
I0
sVsend
p1746
I0
sVssl
p1747
I783
sVconnect
p1748
I798
sVdns
p1749
I35
sVwait
p1750
I26
sVblocked
p1751
I0
ssVtime
p1752
I861
sVresponse
p1753
(dp1754
Vstatus
p1755
I200
sVcomment
p1756
g4
sVcookies
p1757
(lp1758
sVstatusText
p1759
VOK
p1760
sVcontent
p1761
(dp1762
VmimeType
p1763
Vimage/jpeg
p1764
sVcomment
p1765
g4
sVsize
p1766
I0
ssVheaders
p1767
(lp1768
sVheadersSize
p1769
I849
sVredirectURL
p1770
g4
sVbodySize
p1771
I2723
sVhttpVersion
p1772
VHTTP/1.1
p1773
ssa(dp1774
Vcomment
p1775
g4
sVserverIPAddress
p1776
V216.58.216.193
p1777
sVpageref
p1778
VUsain Bolt
p1779
sVstartedDateTime
p1780
V2017-04-16T08:03:58.953-05:00
p1781
sVcache
p1782
(dp1783
sVrequest
p1784
(dp1785
Vcomment
p1786
g4
sVcookies
p1787
(lp1788
sVurl
p1789
Vhttps://i-eurosport-com.cdn.ampproject.org/i/i.eurosport.com/2017/04/13/2062437-43244236-640-360.jpg?w=650
p1790
sVqueryString
p1791
(lp1792
(dp1793
Vname
p1794
Vw
p1795
sVvalue
p1796
V650
p1797
sasVheaders
p1798
(lp1799
sVheadersSize
p1800
I570
sVbodySize
p1801
I0
sVmethod
p1802
VGET
p1803
sVhttpVersion
p1804
VHTTP/1.1
p1805
ssVtimings
p1806
(dp1807
Vcomment
p1808
g4
sVreceive
p1809
I23
sVsend
p1810
I0
sVssl
p1811
I786
sVconnect
p1812
I801
sVdns
p1813
I36
sVwait
p1814
I25
sVblocked
p1815
I0
ssVtime
p1816
I887
sVresponse
p1817
(dp1818
Vstatus
p1819
I200
sVcomment
p1820
g4
sVcookies
p1821
(lp1822
sVstatusText
p1823
VOK
p1824
sVcontent
p1825
(dp1826
VmimeType
p1827
Vimage/jpeg
p1828
sVcomment
p1829
g4
sVsize
p1830
I0
ssVheaders
p1831
(lp1832
sVheadersSize
p1833
I850
sVredirectURL
p1834
g4
sVbodySize
p1835
I24525
sVhttpVersion
p1836
VHTTP/1.1
p1837
ssa(dp1838
Vcomment
p1839
g4
sVserverIPAddress
p1840
V216.58.216.196
p1841
sVpageref
p1842
VUsain Bolt
p1843
sVstartedDateTime
p1844
V2017-04-16T08:03:59.017-05:00
p1845
sVcache
p1846
(dp1847
sVrequest
p1848
(dp1849
Vcomment
p1850
g4
sVcookies
p1851
(lp1852
sVurl
p1853
Vhttps://www.google.com/gen_204?s=web&atyp=csi&ei=umvzWJiyGo3ljwTBw6aYBQ&imc=41&imn=41&imp=20&adh=&xjs=init.27.14.sb_mob.20.dvl.3.mbsf.1.jsa.1.async.1&ima=13&rt=prt.1232,iml.1269,xjsls.1232,dcl.1319,xjses.1419,xjsee.1530,xjs.1530,qiml.1957,ol.3500,aft.1269,wsrt.103,cst.0,dnst.0,rqst.1299,rspt.1206,rqstt.2,unt.2,cstt.2,dit.1386
p1854
sVqueryString
p1855
(lp1856
(dp1857
Vname
p1858
g57
sVvalue
p1859
Vweb
p1860
sa(dp1861
Vname
p1862
Vatyp
p1863
sVvalue
p1864
Vcsi
p1865
sa(dp1866
Vname
p1867
Vei
p1868
sVvalue
p1869
VumvzWJiyGo3ljwTBw6aYBQ
p1870
sa(dp1871
Vname
p1872
Vimc
p1873
sVvalue
p1874
V41
p1875
sa(dp1876
Vname
p1877
Vimn
p1878
sVvalue
p1879
V41
p1880
sa(dp1881
Vname
p1882
Vimp
p1883
sVvalue
p1884
V20
p1885
sa(dp1886
Vname
p1887
Vadh
p1888
sVvalue
p1889
g4
sa(dp1890
Vname
p1891
Vxjs
p1892
sVvalue
p1893
Vinit.27.14.sb_mob.20.dvl.3.mbsf.1.jsa.1.async.1
p1894
sa(dp1895
Vname
p1896
Vima
p1897
sVvalue
p1898
V13
p1899
sa(dp1900
Vname
p1901
Vrt
p1902
sVvalue
p1903
Vprt.1232,iml.1269,xjsls.1232,dcl.1319,xjses.1419,xjsee.1530,xjs.1530,qiml.1957,ol.3500,aft.1269,wsrt.103,cst.0,dnst.0,rqst.1299,rspt.1206,rqstt.2,unt.2,cstt.2,dit.1386
p1904
sasVheaders
p1905
(lp1906
sVheadersSize
p1907
I844
sVbodySize
p1908
I0
sVmethod
p1909
VGET
p1910
sVhttpVersion
p1911
VHTTP/1.1
p1912
ssVtimings
p1913
(dp1914
Vcomment
p1915
g4
sVreceive
p1916
I0
sVsend
p1917
I0
sVssl
p1918
I-1
sVconnect
p1919
I-1
sVdns
p1920
I-1
sVwait
p1921
I35
sVblocked
p1922
I-1
ssVtime
p1923
I35
sVresponse
p1924
(dp1925
Vstatus
p1926
I204
sVcomment
p1927
g4
sVcookies
p1928
(lp1929
sVstatusText
p1930
VNo Content
p1931
sVcontent
p1932
(dp1933
VmimeType
p1934
Vtext/html; charset=UTF-8
p1935
sVcomment
p1936
g4
sVsize
p1937
I0
ssVheaders
p1938
(lp1939
sVheadersSize
p1940
I248
sVredirectURL
p1941
g4
sVbodySize
p1942
I0
sVhttpVersion
p1943
VHTTP/1.1
p1944
ssa(dp1945
Vcomment
p1946
g4
sVserverIPAddress
p1947
V216.58.216.196
p1948
sVpageref
p1949
VUsain Bolt
p1950
sVstartedDateTime
p1951
V2017-04-16T08:03:59.243-05:00
p1952
sVcache
p1953
(dp1954
sVrequest
p1955
(dp1956
Vcomment
p1957
g4
sVcookies
p1958
(lp1959
sVurl
p1960
Vhttps://www.google.com/gen_204?atyp=i&ct=slh&cad=&ei=p2vzWJn7BMX-jwTbibuwAg&m=V&t=C&s=1&v=2&pv=0.7951746130926837&me=1:1492347817479,x:1,V,0,0,1280,944:0,N,1,p2vzWJn7BMX-jwTbibuwAg:0,R,1,24,8,155,1249,445:0,R,1,28,8,268,1249,332:0,R,1,29,0,269,1265,351:0,R,1,54,8,610,1249,581:0,R,1,55,8,610,1249,581:0,R,1,58,8,623,1249,40:0,R,1,71,8,675,1249,146:0,R,1,74,0,691,1265,165:0,R,1,114,8,838,1249,40:0,R,1,115,24,838,1217,40:0,R,1,121,8,894,1249,20:0,R,1,125,8,922,1249,20:2,B,3358:17329,e,U&zx=1492347839242
p1961
sVqueryString
p1962
(lp1963
(dp1964
Vname
p1965
Vatyp
p1966
sVvalue
p1967
g30
sa(dp1968
Vname
p1969
Vct
p1970
sVvalue
p1971
Vslh
p1972
sa(dp1973
Vname
p1974
Vcad
p1975
sVvalue
p1976
g4
sa(dp1977
Vname
p1978
Vei
p1979
sVvalue
p1980
Vp2vzWJn7BMX-jwTbibuwAg
p1981
sa(dp1982
Vname
p1983
g47
sVvalue
p1984
g49
sa(dp1985
Vname
p1986
g52
sVvalue
p1987
g54
sa(dp1988
Vname
p1989
g57
sVvalue
p1990
g59
sa(dp1991
Vname
p1992
g62
sVvalue
p1993
g64
sa(dp1994
Vname
p1995
Vpv
p1996
sVvalue
p1997
V0.7951746130926837
p1998
sa(dp1999
Vname
p2000
Vme
p2001
sVvalue
p2002
V1:1492347817479,x:1,V,0,0,1280,944:0,N,1,p2vzWJn7BMX-jwTbibuwAg:0,R,1,24,8,155,1249,445:0,R,1,28,8,268,1249,332:0,R,1,29,0,269,1265,351:0,R,1,54,8,610,1249,581:0,R,1,55,8,610,1249,581:0,R,1,58,8,623,1249,40:0,R,1,71,8,675,1249,146:0,R,1,74,0,691,1265,165:0,R,1,114,8,838,1249,40:0,R,1,115,24,838,1217,40:0,R,1,121,8,894,1249,20:0,R,1,125,8,922,1249,20:2,B,3358:17329,e,U
p2003
sa(dp2004
Vname
p2005
Vzx
p2006
sVvalue
p2007
V1492347839242
p2008
sasVheaders
p2009
(lp2010
sVheadersSize
p2011
I1021
sVbodySize
p2012
I0
sVmethod
p2013
VGET
p2014
sVhttpVersion
p2015
VHTTP/1.1
p2016
ssVtimings
p2017
(dp2018
Vcomment
p2019
g4
sVreceive
p2020
I0
sVsend
p2021
I0
sVssl
p2022
I-1
sVconnect
p2023
I-1
sVdns
p2024
I-1
sVwait
p2025
I28
sVblocked
p2026
I-1
ssVtime
p2027
I28
sVresponse
p2028
(dp2029
Vstatus
p2030
I204
sVcomment
p2031
g4
sVcookies
p2032
(lp2033
sVstatusText
p2034
VNo Content
p2035
sVcontent
p2036
(dp2037
VmimeType
p2038
Vtext/html; charset=UTF-8
p2039
sVcomment
p2040
g4
sVsize
p2041
I0
ssVheaders
p2042
(lp2043
sVheadersSize
p2044
I248
sVredirectURL
p2045
g4
sVbodySize
p2046
I0
sVhttpVersion
p2047
VHTTP/1.1
p2048
ssasVversion
p2049
V1.2
p2050
sVpages
p2051
(lp2052
(dp2053
VpageTimings
p2054
(dp2055
Vcomment
p2056
g4
ssVcomment
p2057
g4
sVtitle
p2058
VUsain Bolt
p2059
sVid
p2060
VUsain Bolt
p2061
sVstartedDateTime
p2062
V2017-04-16T08:03:54.804-05:00
p2063
sasVcreator
p2064
(dp2065
Vcomment
p2066
g4
sVversion
p2067
V2.1.4
p2068
sVname
p2069
VBrowserMob Proxy
p2070
sss.