(dp0
Vlog
p1
(dp2
Vcomment
p3
V
p4
sVentries
p5
(lp6
(dp7
Vcomment
p8
g4
sVserverIPAddress
p9
V216.58.216.196
p10
sVpageref
p11
VPhiladelphia 76ers
p12
sVstartedDateTime
p13
V2017-04-16T08:34:43.692-05:00
p14
sVcache
p15
(dp16
sVrequest
p17
(dp18
Vcomment
p19
g4
sVcookies
p20
(lp21
sVurl
p22
Vhttps://www.google.com/gen_204?atyp=i&ct=slh&cad=&ei=3XLzWJUfg-OPBJm9hsAM&m=V&t=C&s=1&v=2&pv=0.8626225067826596&me=1:1492349664776,x:2,V,0,0,1280,944:0,N,1,3XLzWJUfg-OPBJm9hsAM:0,R,1,24,0,155,1197,589:0,R,1,25,0,155,1197,587:0,R,1,78,8,752,1264,442:0,R,1,79,8,796,1264,315:0,R,1,80,0,796,1280,335:2,B,4307:18911,e,U&zx=1492349683691
p23
sVqueryString
p24
(lp25
(dp26
Vname
p27
Vatyp
p28
sVvalue
p29
Vi
p30
sa(dp31
Vname
p32
Vct
p33
sVvalue
p34
Vslh
p35
sa(dp36
Vname
p37
Vcad
p38
sVvalue
p39
g4
sa(dp40
Vname
p41
Vei
p42
sVvalue
p43
V3XLzWJUfg-OPBJm9hsAM
p44
sa(dp45
Vname
p46
Vm
p47
sVvalue
p48
VV
p49
sa(dp50
Vname
p51
Vt
p52
sVvalue
p53
VC
p54
sa(dp55
Vname
p56
Vs
p57
sVvalue
p58
V1
p59
sa(dp60
Vname
p61
Vv
p62
sVvalue
p63
V2
p64
sa(dp65
Vname
p66
Vpv
p67
sVvalue
p68
V0.8626225067826596
p69
sa(dp70
Vname
p71
Vme
p72
sVvalue
p73
V1:1492349664776,x:2,V,0,0,1280,944:0,N,1,3XLzWJUfg-OPBJm9hsAM:0,R,1,24,0,155,1197,589:0,R,1,25,0,155,1197,587:0,R,1,78,8,752,1264,442:0,R,1,79,8,796,1264,315:0,R,1,80,0,796,1280,335:2,B,4307:18911,e,U
p74
sa(dp75
Vname
p76
Vzx
p77
sVvalue
p78
V1492349683691
p79
sasVheaders
p80
(lp81
sVheadersSize
p82
I849
sVbodySize
p83
I0
sVmethod
p84
VGET
p85
sVhttpVersion
p86
VHTTP/1.1
p87
ssVtimings
p88
(dp89
Vcomment
p90
g4
sVreceive
p91
I0
sVsend
p92
I0
sVssl
p93
I-1
sVconnect
p94
I-1
sVdns
p95
I-1
sVwait
p96
I0
sVblocked
p97
I-1
ssVtime
p98
I0
sVresponse
p99
(dp100
Vstatus
p101
I0
sVcomment
p102
g4
sVcookies
p103
(lp104
sV_error
p105
VNo response received
p106
sVstatusText
p107
g4
sVcontent
p108
(dp109
VmimeType
p110
g4
sVcomment
p111
g4
sVsize
p112
I0
ssVheaders
p113
(lp114
sVheadersSize
p115
I-1
sVredirectURL
p116
g4
sVbodySize
p117
I-1
sVhttpVersion
p118
Vunknown
p119
ssa(dp120
Vcomment
p121
g4
sVserverIPAddress
p122
V216.58.216.196
p123
sVpageref
p124
VPhiladelphia 76ers
p125
sVstartedDateTime
p126
V2017-04-16T08:34:43.699-05:00
p127
sVcache
p128
(dp129
sVrequest
p130
(dp131
Vcomment
p132
g4
sVcookies
p133
(lp134
sVurl
p135
Vhttp://www.google.com/
p136
sVqueryString
p137
(lp138
sVheaders
p139
(lp140
sVheadersSize
p141
I613
sVbodySize
p142
I0
sVmethod
p143
VGET
p144
sVhttpVersion
p145
VHTTP/1.1
p146
ssVtimings
p147
(dp148
Vcomment
p149
g4
sVreceive
p150
I0
sVsend
p151
I0
sVssl
p152
I-1
sVconnect
p153
I-1
sVdns
p154
I-1
sVwait
p155
I37
sVblocked
p156
I-1
ssVtime
p157
I38
sVresponse
p158
(dp159
Vstatus
p160
I302
sVcomment
p161
g4
sVcookies
p162
(lp163
sVstatusText
p164
VFound
p165
sVcontent
p166
(dp167
VmimeType
p168
Vtext/html; charset=UTF-8
p169
sVcomment
p170
g4
sVsize
p171
I0
ssVheaders
p172
(lp173
sVheadersSize
p174
I609
sVredirectURL
p175
Vhttps://www.google.com/?gws_rd=ssl
p176
sVbodySize
p177
I231
sVhttpVersion
p178
VHTTP/1.1
p179
ssa(dp180
Vcomment
p181
g4
sVserverIPAddress
p182
V216.58.216.196
p183
sVpageref
p184
VPhiladelphia 76ers
p185
sVstartedDateTime
p186
V2017-04-16T08:34:44.230-05:00
p187
sVcache
p188
(dp189
sVrequest
p190
(dp191
Vcomment
p192
g4
sVcookies
p193
(lp194
sVurl
p195
Vhttps://www.google.com/?gws_rd=ssl
p196
sVqueryString
p197
(lp198
(dp199
Vname
p200
Vgws_rd
p201
sVvalue
p202
Vssl
p203
sasVheaders
p204
(lp205
sVheadersSize
p206
I607
sVbodySize
p207
I0
sVmethod
p208
VGET
p209
sVhttpVersion
p210
VHTTP/1.1
p211
ssVtimings
p212
(dp213
Vcomment
p214
g4
sVreceive
p215
I35
sVsend
p216
I0
sVssl
p217
I25
sVconnect
p218
I42
sVdns
p219
I446
sVwait
p220
I114
sVblocked
p221
I0
ssVtime
p222
I638
sVresponse
p223
(dp224
Vstatus
p225
I200
sVcomment
p226
g4
sVcookies
p227
(lp228
sVstatusText
p229
VOK
p230
sVcontent
p231
(dp232
VmimeType
p233
Vtext/html; charset=UTF-8
p234
sVcomment
p235
g4
sVsize
p236
I0
ssVheaders
p237
(lp238
sVheadersSize
p239
I721
sVredirectURL
p240
g4
sVbodySize
p241
I34288
sVhttpVersion
p242
VHTTP/1.1
p243
ssa(dp244
Vcomment
p245
g4
sVserverIPAddress
p246
V216.58.216.196
p247
sVpageref
p248
VPhiladelphia 76ers
p249
sVstartedDateTime
p250
V2017-04-16T08:34:44.684-05:00
p251
sVcache
p252
(dp253
sVrequest
p254
(dp255
Vcomment
p256
g4
sVcookies
p257
(lp258
sVurl
p259
Vhttps://www.google.com/gen_204?atyp=i&ct=slh&cad=&ei=3XLzWJUfg-OPBJm9hsAM&s=2&v=2&pv=0.8626225067826596&me=11:1492349684348,e,H&zx=1492349684350
p260
sVqueryString
p261
(lp262
(dp263
Vname
p264
Vatyp
p265
sVvalue
p266
g30
sa(dp267
Vname
p268
Vct
p269
sVvalue
p270
Vslh
p271
sa(dp272
Vname
p273
Vcad
p274
sVvalue
p275
g4
sa(dp276
Vname
p277
Vei
p278
sVvalue
p279
V3XLzWJUfg-OPBJm9hsAM
p280
sa(dp281
Vname
p282
g57
sVvalue
p283
g64
sa(dp284
Vname
p285
g62
sVvalue
p286
g64
sa(dp287
Vname
p288
Vpv
p289
sVvalue
p290
V0.8626225067826596
p291
sa(dp292
Vname
p293
Vme
p294
sVvalue
p295
V11:1492349684348,e,H
p296
sa(dp297
Vname
p298
Vzx
p299
sVvalue
p300
V1492349684350
p301
sasVheaders
p302
(lp303
sVheadersSize
p304
I661
sVbodySize
p305
I0
sVmethod
p306
VGET
p307
sVhttpVersion
p308
VHTTP/1.1
p309
ssVtimings
p310
(dp311
Vcomment
p312
g4
sVreceive
p313
I0
sVsend
p314
I0
sVssl
p315
I304
sVconnect
p316
I330
sVdns
p317
I0
sVwait
p318
I52
sVblocked
p319
I0
ssVtime
p320
I383
sVresponse
p321
(dp322
Vstatus
p323
I204
sVcomment
p324
g4
sVcookies
p325
(lp326
sVstatusText
p327
VNo Content
p328
sVcontent
p329
(dp330
VmimeType
p331
Vtext/html; charset=UTF-8
p332
sVcomment
p333
g4
sVsize
p334
I0
ssVheaders
p335
(lp336
sVheadersSize
p337
I248
sVredirectURL
p338
g4
sVbodySize
p339
I0
sVhttpVersion
p340
VHTTP/1.1
p341
ssa(dp342
Vcomment
p343
g4
sVserverIPAddress
p344
V216.58.216.196
p345
sVpageref
p346
VPhiladelphia 76ers
p347
sVstartedDateTime
p348
V2017-04-16T08:34:45.387-05:00
p349
sVcache
p350
(dp351
sVrequest
p352
(dp353
Vcomment
p354
g4
sVcookies
p355
(lp356
sVurl
p357
Vhttps://www.google.com/gen_204?s=mobilewebhp&atyp=csi&ei=83LzWPitDajUjwSf07jgBA&imc=1&imn=1&imp=0&adh=&xjs=init.37.12.sb_mob.26.dvl.5.c.2.jsa.1.mbsf.1&ima=1&rt=xjsls.53,prt.54,iml.54,dcl.84,xjses.152,xjsee.268,xjs.269,ol.1014,aft.54,wsrt.677,cst.0,dnst.0,rqst.152,rspt.154,rqstt.539,unt.48,cstt.48,dit.748
p358
sVqueryString
p359
(lp360
(dp361
Vname
p362
g57
sVvalue
p363
Vmobilewebhp
p364
sa(dp365
Vname
p366
Vatyp
p367
sVvalue
p368
Vcsi
p369
sa(dp370
Vname
p371
Vei
p372
sVvalue
p373
V83LzWPitDajUjwSf07jgBA
p374
sa(dp375
Vname
p376
Vimc
p377
sVvalue
p378
g59
sa(dp379
Vname
p380
Vimn
p381
sVvalue
p382
g59
sa(dp383
Vname
p384
Vimp
p385
sVvalue
p386
V0
p387
sa(dp388
Vname
p389
Vadh
p390
sVvalue
p391
g4
sa(dp392
Vname
p393
Vxjs
p394
sVvalue
p395
Vinit.37.12.sb_mob.26.dvl.5.c.2.jsa.1.mbsf.1
p396
sa(dp397
Vname
p398
Vima
p399
sVvalue
p400
g59
sa(dp401
Vname
p402
Vrt
p403
sVvalue
p404
Vxjsls.53,prt.54,iml.54,dcl.84,xjses.152,xjsee.268,xjs.269,ol.1014,aft.54,wsrt.677,cst.0,dnst.0,rqst.152,rspt.154,rqstt.539,unt.48,cstt.48,dit.748
p405
sasVheaders
p406
(lp407
sVheadersSize
p408
I833
sVbodySize
p409
I0
sVmethod
p410
VGET
p411
sVhttpVersion
p412
VHTTP/1.1
p413
ssVtimings
p414
(dp415
Vcomment
p416
g4
sVreceive
p417
I0
sVsend
p418
I0
sVssl
p419
I-1
sVconnect
p420
I-1
sVdns
p421
I-1
sVwait
p422
I29
sVblocked
p423
I-1
ssVtime
p424
I29
sVresponse
p425
(dp426
Vstatus
p427
I204
sVcomment
p428
g4
sVcookies
p429
(lp430
sVstatusText
p431
VNo Content
p432
sVcontent
p433
(dp434
VmimeType
p435
Vtext/html; charset=UTF-8
p436
sVcomment
p437
g4
sVsize
p438
I0
ssVheaders
p439
(lp440
sVheadersSize
p441
I248
sVredirectURL
p442
g4
sVbodySize
p443
I0
sVhttpVersion
p444
VHTTP/1.1
p445
ssa(dp446
Vcomment
p447
g4
sVserverIPAddress
p448
V216.58.216.196
p449
sVpageref
p450
VPhiladelphia 76ers
p451
sVstartedDateTime
p452
V2017-04-16T08:34:45.539-05:00
p453
sVcache
p454
(dp455
sVrequest
p456
(dp457
Vcomment
p458
g4
sVcookies
p459
(lp460
sVurl
p461
Vhttps://www.google.com/complete/search?client=mobile-gws-hp&hl=en&gs_rn=64&gs_ri=mobile-gws-hp&sla=1&gm=602&cp=0&gs_id=1&xhr=t&q=P&tch=1&ech=1&psi=83LzWPitDajUjwSf07jgBA.1492349684604.1
p462
sVqueryString
p463
(lp464
(dp465
Vname
p466
Vclient
p467
sVvalue
p468
Vmobile-gws-hp
p469
sa(dp470
Vname
p471
Vhl
p472
sVvalue
p473
Ven
p474
sa(dp475
Vname
p476
Vgs_rn
p477
sVvalue
p478
V64
p479
sa(dp480
Vname
p481
Vgs_ri
p482
sVvalue
p483
Vmobile-gws-hp
p484
sa(dp485
Vname
p486
Vsla
p487
sVvalue
p488
g59
sa(dp489
Vname
p490
Vgm
p491
sVvalue
p492
V602
p493
sa(dp494
Vname
p495
Vcp
p496
sVvalue
p497
g387
sa(dp498
Vname
p499
Vgs_id
p500
sVvalue
p501
g59
sa(dp502
Vname
p503
Vxhr
p504
sVvalue
p505
g52
sa(dp506
Vname
p507
Vq
p508
sVvalue
p509
VP
p510
sa(dp511
Vname
p512
Vtch
p513
sVvalue
p514
g59
sa(dp515
Vname
p516
Vech
p517
sVvalue
p518
g59
sa(dp519
Vname
p520
Vpsi
p521
sVvalue
p522
V83LzWPitDajUjwSf07jgBA.1492349684604.1
p523
sasVheaders
p524
(lp525
sVheadersSize
p526
I713
sVbodySize
p527
I0
sVmethod
p528
VGET
p529
sVhttpVersion
p530
VHTTP/1.1
p531
ssVtimings
p532
(dp533
Vcomment
p534
g4
sVreceive
p535
I0
sVsend
p536
I0
sVssl
p537
I-1
sVconnect
p538
I-1
sVdns
p539
I-1
sVwait
p540
I0
sVblocked
p541
I-1
ssVtime
p542
I0
sVresponse
p543
(dp544
Vstatus
p545
I0
sVcomment
p546
g4
sVcookies
p547
(lp548
sV_error
p549
VNo response received
p550
sVstatusText
p551
g4
sVcontent
p552
(dp553
VmimeType
p554
g4
sVcomment
p555
g4
sVsize
p556
I0
ssVheaders
p557
(lp558
sVheadersSize
p559
I-1
sVredirectURL
p560
g4
sVbodySize
p561
I-1
sVhttpVersion
p562
Vunknown
p563
ssa(dp564
Vcomment
p565
g4
sVserverIPAddress
p566
V216.58.216.196
p567
sVpageref
p568
VPhiladelphia 76ers
p569
sVstartedDateTime
p570
V2017-04-16T08:34:45.617-05:00
p571
sVcache
p572
(dp573
sVrequest
p574
(dp575
Vcomment
p576
g4
sVcookies
p577
(lp578
sVurl
p579
Vhttps://www.google.com/search?site=&source=hp&ei=83LzWPitDajUjwSf07jgBA&q=Philadelphia+76ers&oq=Philadelphia+76ers&gs_l=mobile-gws-hp.3...906.951.0.980.18.1.0.0.0.0.0.0..0.0....0...1c.1.64.mobile-gws-hp..18.0.0.RXnl1vZzqlw
p580
sVqueryString
p581
(lp582
(dp583
Vname
p584
Vsite
p585
sVvalue
p586
g4
sa(dp587
Vname
p588
Vsource
p589
sVvalue
p590
Vhp
p591
sa(dp592
Vname
p593
Vei
p594
sVvalue
p595
V83LzWPitDajUjwSf07jgBA
p596
sa(dp597
Vname
p598
g508
sVvalue
p599
VPhiladelphia 76ers
p600
sa(dp601
Vname
p602
Voq
p603
sVvalue
p604
VPhiladelphia 76ers
p605
sa(dp606
Vname
p607
Vgs_l
p608
sVvalue
p609
Vmobile-gws-hp.3...906.951.0.980.18.1.0.0.0.0.0.0..0.0....0...1c.1.64.mobile-gws-hp..18.0.0.RXnl1vZzqlw
p610
sasVheaders
p611
(lp612
sVheadersSize
p613
I840
sVbodySize
p614
I0
sVmethod
p615
VGET
p616
sVhttpVersion
p617
VHTTP/1.1
p618
ssVtimings
p619
(dp620
Vcomment
p621
g4
sVreceive
p622
I959
sVsend
p623
I0
sVssl
p624
I-1
sVconnect
p625
I-1
sVdns
p626
I-1
sVwait
p627
I112
sVblocked
p628
I-1
ssVtime
p629
I1072
sVresponse
p630
(dp631
Vstatus
p632
I200
sVcomment
p633
g4
sVcookies
p634
(lp635
sVstatusText
p636
VOK
p637
sVcontent
p638
(dp639
VmimeType
p640
Vtext/html; charset=UTF-8
p641
sVcomment
p642
g4
sVsize
p643
I0
ssVheaders
p644
(lp645
sVheadersSize
p646
I363
sVredirectURL
p647
g4
sVbodySize
p648
I167324
sVhttpVersion
p649
VHTTP/1.1
p650
ssa(dp651
Vcomment
p652
g4
sVserverIPAddress
p653
V216.58.216.195
p654
sVpageref
p655
VPhiladelphia 76ers
p656
sVstartedDateTime
p657
V2017-04-16T08:34:46.616-05:00
p658
sVcache
p659
(dp660
sVrequest
p661
(dp662
Vcomment
p663
g4
sVcookies
p664
(lp665
sVurl
p666
Vhttps://ssl.gstatic.com/onebox/media/sports/videos/nba/z6xu1RhIpHc_192x108.jpg
p667
sVqueryString
p668
(lp669
sVheaders
p670
(lp671
sVheadersSize
p672
I393
sVbodySize
p673
I0
sVmethod
p674
VGET
p675
sVhttpVersion
p676
VHTTP/1.1
p677
ssVtimings
p678
(dp679
Vcomment
p680
g4
sVreceive
p681
I2
sVsend
p682
I0
sVssl
p683
I-1
sVconnect
p684
I-1
sVdns
p685
I-1
sVwait
p686
I32
sVblocked
p687
I-1
ssVtime
p688
I35
sVresponse
p689
(dp690
Vstatus
p691
I200
sVcomment
p692
g4
sVcookies
p693
(lp694
sVstatusText
p695
VOK
p696
sVcontent
p697
(dp698
VmimeType
p699
Vimage/jpeg
p700
sVcomment
p701
g4
sVsize
p702
I0
ssVheaders
p703
(lp704
sVheadersSize
p705
I392
sVredirectURL
p706
g4
sVbodySize
p707
I7103
sVhttpVersion
p708
VHTTP/1.1
p709
ssa(dp710
Vcomment
p711
g4
sVserverIPAddress
p712
V216.58.216.195
p713
sVpageref
p714
VPhiladelphia 76ers
p715
sVstartedDateTime
p716
V2017-04-16T08:34:46.616-05:00
p717
sVcache
p718
(dp719
sVrequest
p720
(dp721
Vcomment
p722
g4
sVcookies
p723
(lp724
sVurl
p725
Vhttps://ssl.gstatic.com/onebox/media/sports/logos/Wd6xIEIXpfqg9EZC6PAepQ_48x48.png
p726
sVqueryString
p727
(lp728
sVheaders
p729
(lp730
sVheadersSize
p731
I397
sVbodySize
p732
I0
sVmethod
p733
VGET
p734
sVhttpVersion
p735
VHTTP/1.1
p736
ssVtimings
p737
(dp738
Vcomment
p739
g4
sVreceive
p740
I0
sVsend
p741
I0
sVssl
p742
I-1
sVconnect
p743
I-1
sVdns
p744
I-1
sVwait
p745
I31
sVblocked
p746
I-1
ssVtime
p747
I31
sVresponse
p748
(dp749
Vstatus
p750
I200
sVcomment
p751
g4
sVcookies
p752
(lp753
sVstatusText
p754
VOK
p755
sVcontent
p756
(dp757
VmimeType
p758
Vimage/png
p759
sVcomment
p760
g4
sVsize
p761
I0
ssVheaders
p762
(lp763
sVheadersSize
p764
I424
sVredirectURL
p765
g4
sVbodySize
p766
I3192
sVhttpVersion
p767
VHTTP/1.1
p768
ssa(dp769
Vcomment
p770
g4
sVserverIPAddress
p771
V216.58.216.195
p772
sVpageref
p773
VPhiladelphia 76ers
p774
sVstartedDateTime
p775
V2017-04-16T08:34:46.617-05:00
p776
sVcache
p777
(dp778
sVrequest
p779
(dp780
Vcomment
p781
g4
sVcookies
p782
(lp783
sVurl
p784
Vhttps://ssl.gstatic.com/onebox/media/sports/videos/nba/T7sgjP4rs58_192x108.jpg
p785
sVqueryString
p786
(lp787
sVheaders
p788
(lp789
sVheadersSize
p790
I393
sVbodySize
p791
I0
sVmethod
p792
VGET
p793
sVhttpVersion
p794
VHTTP/1.1
p795
ssVtimings
p796
(dp797
Vcomment
p798
g4
sVreceive
p799
I0
sVsend
p800
I0
sVssl
p801
I-1
sVconnect
p802
I-1
sVdns
p803
I-1
sVwait
p804
I30
sVblocked
p805
I-1
ssVtime
p806
I31
sVresponse
p807
(dp808
Vstatus
p809
I200
sVcomment
p810
g4
sVcookies
p811
(lp812
sVstatusText
p813
VOK
p814
sVcontent
p815
(dp816
VmimeType
p817
Vimage/jpeg
p818
sVcomment
p819
g4
sVsize
p820
I0
ssVheaders
p821
(lp822
sVheadersSize
p823
I392
sVredirectURL
p824
g4
sVbodySize
p825
I8049
sVhttpVersion
p826
VHTTP/1.1
p827
ssa(dp828
Vcomment
p829
g4
sVserverIPAddress
p830
V216.58.216.196
p831
sVpageref
p832
VPhiladelphia 76ers
p833
sVstartedDateTime
p834
V2017-04-16T08:34:48.745-05:00
p835
sVcache
p836
(dp837
sVrequest
p838
(dp839
Vcomment
p840
g4
sVcookies
p841
(lp842
sVurl
p843
Vhttps://www.google.com/async/irc?vet=10ahUKEwiUktTmi6nTAhUG34MKHRuhAioQo0EI5gI..i&ved=0ahUKEwiUktTmi6nTAhUG34MKHRuhAioQo0EI5gI&ei=9HLzWJTIJYa-jwSbworQAg&yv=2&async=iu:1,ved:0ahUKEwiUktTmi6nTAhUG34MKHRuhAioQo0EI5gI,_id:irc_async,_pms:qs
p844
sVqueryString
p845
(lp846
(dp847
Vname
p848
Vvet
p849
sVvalue
p850
V10ahUKEwiUktTmi6nTAhUG34MKHRuhAioQo0EI5gI..i
p851
sa(dp852
Vname
p853
Vved
p854
sVvalue
p855
V0ahUKEwiUktTmi6nTAhUG34MKHRuhAioQo0EI5gI
p856
sa(dp857
Vname
p858
Vei
p859
sVvalue
p860
V9HLzWJTIJYa-jwSbworQAg
p861
sa(dp862
Vname
p863
Vyv
p864
sVvalue
p865
g64
sa(dp866
Vname
p867
Vasync
p868
sVvalue
p869
Viu:1,ved:0ahUKEwiUktTmi6nTAhUG34MKHRuhAioQo0EI5gI,_id:irc_async,_pms:qs
p870
sasVheaders
p871
(lp872
sVheadersSize
p873
I752
sVbodySize
p874
I0
sVmethod
p875
VGET
p876
sVhttpVersion
p877
VHTTP/1.1
p878
ssVtimings
p879
(dp880
Vcomment
p881
g4
sVreceive
p882
I2
sVsend
p883
I0
sVssl
p884
I-1
sVconnect
p885
I-1
sVdns
p886
I-1
sVwait
p887
I50
sVblocked
p888
I-1
ssVtime
p889
I53
sVresponse
p890
(dp891
Vstatus
p892
I200
sVcomment
p893
g4
sVcookies
p894
(lp895
sVstatusText
p896
VOK
p897
sVcontent
p898
(dp899
VmimeType
p900
Vtext/html; charset=UTF-8
p901
sVcomment
p902
g4
sVsize
p903
I0
ssVheaders
p904
(lp905
sVheadersSize
p906
I383
sVredirectURL
p907
g4
sVbodySize
p908
I7787
sVhttpVersion
p909
VHTTP/1.1
p910
ssa(dp911
Vcomment
p912
g4
sVserverIPAddress
p913
V216.58.216.196
p914
sVpageref
p915
VPhiladelphia 76ers
p916
sVstartedDateTime
p917
V2017-04-16T08:34:48.847-05:00
p918
sVcache
p919
(dp920
sVrequest
p921
(dp922
Vcomment
p923
g4
sVcookies
p924
(lp925
sVurl
p926
Vhttps://www.google.com/async/ampfp?vet=10ahUKEwiUktTmi6nTAhUG34MKHRuhAioQtZoBCOQC..i&ei=9HLzWJTIJYa-jwSbworQAg&yv=2&async=_id:ampfp-async,_pms:qs
p927
sVqueryString
p928
(lp929
(dp930
Vname
p931
Vvet
p932
sVvalue
p933
V10ahUKEwiUktTmi6nTAhUG34MKHRuhAioQtZoBCOQC..i
p934
sa(dp935
Vname
p936
Vei
p937
sVvalue
p938
V9HLzWJTIJYa-jwSbworQAg
p939
sa(dp940
Vname
p941
Vyv
p942
sVvalue
p943
g64
sa(dp944
Vname
p945
Vasync
p946
sVvalue
p947
V_id:ampfp-async,_pms:qs
p948
sasVheaders
p949
(lp950
sVheadersSize
p951
I662
sVbodySize
p952
I0
sVmethod
p953
VGET
p954
sVhttpVersion
p955
VHTTP/1.1
p956
ssVtimings
p957
(dp958
Vcomment
p959
g4
sVreceive
p960
I11
sVsend
p961
I0
sVssl
p962
I-1
sVconnect
p963
I-1
sVdns
p964
I-1
sVwait
p965
I38
sVblocked
p966
I-1
ssVtime
p967
I50
sVresponse
p968
(dp969
Vstatus
p970
I200
sVcomment
p971
g4
sVcookies
p972
(lp973
sVstatusText
p974
VOK
p975
sVcontent
p976
(dp977
VmimeType
p978
Vtext/html; charset=UTF-8
p979
sVcomment
p980
g4
sVsize
p981
I0
ssVheaders
p982
(lp983
sVheadersSize
p984
I383
sVredirectURL
p985
g4
sVbodySize
p986
I4527
sVhttpVersion
p987
VHTTP/1.1
p988
ssa(dp989
Vcomment
p990
g4
sVserverIPAddress
p991
V216.58.216.193
p992
sVpageref
p993
VPhiladelphia 76ers
p994
sVstartedDateTime
p995
V2017-04-16T08:34:48.847-05:00
p996
sVcache
p997
(dp998
sVrequest
p999
(dp1000
Vcomment
p1001
g4
sVcookies
p1002
(lp1003
sVurl
p1004
Vhttps://cdn.ampproject.org/preconnect.gif?0.05830922806015304
p1005
sVqueryString
p1006
(lp1007
(dp1008
Vname
p1009
V0.05830922806015304
p1010
sVvalue
p1011
g4
sasVheaders
p1012
(lp1013
sVheadersSize
p1014
I376
sVbodySize
p1015
I0
sVmethod
p1016
VGET
p1017
sVhttpVersion
p1018
VHTTP/1.1
p1019
ssVtimings
p1020
(dp1021
Vcomment
p1022
g4
sVreceive
p1023
I0
sVsend
p1024
I0
sVssl
p1025
I-1
sVconnect
p1026
I-1
sVdns
p1027
I-1
sVwait
p1028
I32
sVblocked
p1029
I-1
ssVtime
p1030
I32
sVresponse
p1031
(dp1032
Vstatus
p1033
I200
sVcomment
p1034
g4
sVcookies
p1035
(lp1036
sVstatusText
p1037
VOK
p1038
sVcontent
p1039
(dp1040
VmimeType
p1041
Vimage/gif
p1042
sVcomment
p1043
g4
sVsize
p1044
I0
ssVheaders
p1045
(lp1046
sVheadersSize
p1047
I826
sVredirectURL
p1048
g4
sVbodySize
p1049
I37
sVhttpVersion
p1050
VHTTP/1.1
p1051
ssa(dp1052
Vcomment
p1053
g4
sVserverIPAddress
p1054
V216.58.216.196
p1055
sVpageref
p1056
VPhiladelphia 76ers
p1057
sVstartedDateTime
p1058
V2017-04-16T08:34:49.137-05:00
p1059
sVcache
p1060
(dp1061
sVrequest
p1062
(dp1063
Vcomment
p1064
g4
sVcookies
p1065
(lp1066
sVurl
p1067
Vhttps://www.google.com/gen_204?s=web&atyp=csi&ei=9HLzWJTIJYa-jwSbworQAg&imc=96&imn=96&imp=30&adh=&xjs=init.57.16.sb_mob.38.async.6.dvl.3.c.2.mbsf.2&ima=21&rt=prt.1041,iml.1237,xjsls.1041,qiml.1317,dcl.1127,xjses.1350,xjsee.1541,xjs.1541,ol.3358,aft.1237,wsrt.130,cst.0,dnst.0,rqst.1074,rspt.960,rqstt.2,unt.2,cstt.2,dit.1199
p1068
sVqueryString
p1069
(lp1070
(dp1071
Vname
p1072
g57
sVvalue
p1073
Vweb
p1074
sa(dp1075
Vname
p1076
Vatyp
p1077
sVvalue
p1078
Vcsi
p1079
sa(dp1080
Vname
p1081
Vei
p1082
sVvalue
p1083
V9HLzWJTIJYa-jwSbworQAg
p1084
sa(dp1085
Vname
p1086
Vimc
p1087
sVvalue
p1088
V96
p1089
sa(dp1090
Vname
p1091
Vimn
p1092
sVvalue
p1093
V96
p1094
sa(dp1095
Vname
p1096
Vimp
p1097
sVvalue
p1098
V30
p1099
sa(dp1100
Vname
p1101
Vadh
p1102
sVvalue
p1103
g4
sa(dp1104
Vname
p1105
Vxjs
p1106
sVvalue
p1107
Vinit.57.16.sb_mob.38.async.6.dvl.3.c.2.mbsf.2
p1108
sa(dp1109
Vname
p1110
Vima
p1111
sVvalue
p1112
V21
p1113
sa(dp1114
Vname
p1115
Vrt
p1116
sVvalue
p1117
Vprt.1041,iml.1237,xjsls.1041,qiml.1317,dcl.1127,xjses.1350,xjsee.1541,xjs.1541,ol.3358,aft.1237,wsrt.130,cst.0,dnst.0,rqst.1074,rspt.960,rqstt.2,unt.2,cstt.2,dit.1199
p1118
sasVheaders
p1119
(lp1120
sVheadersSize
p1121
I841
sVbodySize
p1122
I0
sVmethod
p1123
VGET
p1124
sVhttpVersion
p1125
VHTTP/1.1
p1126
ssVtimings
p1127
(dp1128
Vcomment
p1129
g4
sVreceive
p1130
I0
sVsend
p1131
I0
sVssl
p1132
I-1
sVconnect
p1133
I-1
sVdns
p1134
I-1
sVwait
p1135
I32
sVblocked
p1136
I-1
ssVtime
p1137
I32
sVresponse
p1138
(dp1139
Vstatus
p1140
I204
sVcomment
p1141
g4
sVcookies
p1142
(lp1143
sVstatusText
p1144
VNo Content
p1145
sVcontent
p1146
(dp1147
VmimeType
p1148
Vtext/html; charset=UTF-8
p1149
sVcomment
p1150
g4
sVsize
p1151
I0
ssVheaders
p1152
(lp1153
sVheadersSize
p1154
I248
sVredirectURL
p1155
g4
sVbodySize
p1156
I0
sVhttpVersion
p1157
VHTTP/1.1
p1158
ssa(dp1159
Vcomment
p1160
g4
sVserverIPAddress
p1161
V216.58.216.196
p1162
sVpageref
p1163
VPhiladelphia 76ers
p1164
sVstartedDateTime
p1165
V2017-04-16T08:34:49.214-05:00
p1166
sVcache
p1167
(dp1168
sVrequest
p1169
(dp1170
Vcomment
p1171
g4
sVcookies
p1172
(lp1173
sVurl
p1174
Vhttps://www.google.com/async/log_amp_item_set?vet=10ahUKEwiV1Zjoi6nTAhWq24MKHXEQC00QooQBCAE..i&ei=9HLzWJTIJYa-jwSbworQAg&yv=2&async=num_items:10,_fmt:jspb
p1175
sVqueryString
p1176
(lp1177
(dp1178
Vname
p1179
Vvet
p1180
sVvalue
p1181
V10ahUKEwiV1Zjoi6nTAhWq24MKHXEQC00QooQBCAE..i
p1182
sa(dp1183
Vname
p1184
Vei
p1185
sVvalue
p1186
V9HLzWJTIJYa-jwSbworQAg
p1187
sa(dp1188
Vname
p1189
Vyv
p1190
sVvalue
p1191
g64
sa(dp1192
Vname
p1193
Vasync
p1194
sVvalue
p1195
Vnum_items:10,_fmt:jspb
p1196
sasVheaders
p1197
(lp1198
sVheadersSize
p1199
I671
sVbodySize
p1200
I0
sVmethod
p1201
VGET
p1202
sVhttpVersion
p1203
VHTTP/1.1
p1204
ssVtimings
p1205
(dp1206
Vcomment
p1207
g4
sVreceive
p1208
I0
sVsend
p1209
I0
sVssl
p1210
I-1
sVconnect
p1211
I-1
sVdns
p1212
I-1
sVwait
p1213
I35
sVblocked
p1214
I-1
ssVtime
p1215
I35
sVresponse
p1216
(dp1217
Vstatus
p1218
I200
sVcomment
p1219
g4
sVcookies
p1220
(lp1221
sVstatusText
p1222
VOK
p1223
sVcontent
p1224
(dp1225
VmimeType
p1226
Vapplication/json; charset=UTF-8
p1227
sVcomment
p1228
g4
sVsize
p1229
I0
ssVheaders
p1230
(lp1231
sVheadersSize
p1232
I417
sVredirectURL
p1233
g4
sVbodySize
p1234
I183
sVhttpVersion
p1235
VHTTP/1.1
p1236
ssa(dp1237
Vcomment
p1238
g4
sVserverIPAddress
p1239
V216.58.216.196
p1240
sVpageref
p1241
VPhiladelphia 76ers
p1242
sVstartedDateTime
p1243
V2017-04-16T08:34:50.789-05:00
p1244
sVcache
p1245
(dp1246
sVrequest
p1247
(dp1248
Vcomment
p1249
g4
sVcookies
p1250
(lp1251
sVurl
p1252
Vhttps://www.google.com/gen_204?atyp=i&ct=slh&cad=&ei=3XLzWJUfg-OPBJm9hsAM&s=2&v=2&pv=0.8626225067826596&me=11:1492349684348,e,H&zx=1492349690788
p1253
sVqueryString
p1254
(lp1255
(dp1256
Vname
p1257
Vatyp
p1258
sVvalue
p1259
g30
sa(dp1260
Vname
p1261
Vct
p1262
sVvalue
p1263
Vslh
p1264
sa(dp1265
Vname
p1266
Vcad
p1267
sVvalue
p1268
g4
sa(dp1269
Vname
p1270
Vei
p1271
sVvalue
p1272
V3XLzWJUfg-OPBJm9hsAM
p1273
sa(dp1274
Vname
p1275
g57
sVvalue
p1276
g64
sa(dp1277
Vname
p1278
g62
sVvalue
p1279
g64
sa(dp1280
Vname
p1281
Vpv
p1282
sVvalue
p1283
V0.8626225067826596
p1284
sa(dp1285
Vname
p1286
Vme
p1287
sVvalue
p1288
V11:1492349684348,e,H
p1289
sa(dp1290
Vname
p1291
Vzx
p1292
sVvalue
p1293
V1492349690788
p1294
sasVheaders
p1295
(lp1296
sVheadersSize
p1297
I661
sVbodySize
p1298
I0
sVmethod
p1299
VGET
p1300
sVhttpVersion
p1301
VHTTP/1.1
p1302
ssVtimings
p1303
(dp1304
Vcomment
p1305
g4
sVreceive
p1306
I0
sVsend
p1307
I0
sVssl
p1308
I-1
sVconnect
p1309
I-1
sVdns
p1310
I-1
sVwait
p1311
I53
sVblocked
p1312
I-1
ssVtime
p1313
I53
sVresponse
p1314
(dp1315
Vstatus
p1316
I204
sVcomment
p1317
g4
sVcookies
p1318
(lp1319
sVstatusText
p1320
VNo Content
p1321
sVcontent
p1322
(dp1323
VmimeType
p1324
Vtext/html; charset=UTF-8
p1325
sVcomment
p1326
g4
sVsize
p1327
I0
ssVheaders
p1328
(lp1329
sVheadersSize
p1330
I248
sVredirectURL
p1331
g4
sVbodySize
p1332
I0
sVhttpVersion
p1333
VHTTP/1.1
p1334
ssasVversion
p1335
V1.2
p1336
sVpages
p1337
(lp1338
(dp1339
VpageTimings
p1340
(dp1341
Vcomment
p1342
g4
ssVcomment
p1343
g4
sVtitle
p1344
VPhiladelphia 76ers
p1345
sVid
p1346
VPhiladelphia 76ers
p1347
sVstartedDateTime
p1348
V2017-04-16T08:34:43.685-05:00
p1349
sasVcreator
p1350
(dp1351
Vcomment
p1352
g4
sVversion
p1353
V2.1.4
p1354
sVname
p1355
VBrowserMob Proxy
p1356
sss.