(dp0
Vlog
p1
(dp2
Vcomment
p3
V
p4
sVentries
p5
(lp6
(dp7
Vcomment
p8
g4
sVserverIPAddress
p9
V216.58.216.196
p10
sVpageref
p11
VAlicia Vikander
p12
sVstartedDateTime
p13
V2017-04-16T08:12:34.558-05:00
p14
sVcache
p15
(dp16
sVrequest
p17
(dp18
Vcomment
p19
g4
sVcookies
p20
(lp21
sVurl
p22
Vhttps://www.google.com/gen_204?atyp=i&ct=slh&cad=&ei=sm3zWJi7CYeLjwSpv7fgAQ&m=V&t=C&s=1&v=2&pv=0.28279887928936276&me=1:1492348340803,x:1,V,0,0,1280,944:0,N,1,sm3zWJi7CYeLjwSpv7fgAQ:0,R,1,24,8,155,1249,1079:0,R,1,25,8,155,1249,1079:0,R,1,29,8,168,1249,40:0,R,1,46,8,267,1249,169:0,R,1,49,0,283,1265,188:0,R,1,89,8,453,1249,40:0,R,1,90,24,453,1217,40:0,R,1,96,8,509,1249,20:0,R,1,111,8,549,1249,310:0,R,1,112,0,594,1265,285:0,R,1,141,8,904,1249,263:0,R,1,142,0,904,1265,283:3,B,3636:13749,e,U&zx=1492348354556
p23
sVqueryString
p24
(lp25
(dp26
Vname
p27
Vatyp
p28
sVvalue
p29
Vi
p30
sa(dp31
Vname
p32
Vct
p33
sVvalue
p34
Vslh
p35
sa(dp36
Vname
p37
Vcad
p38
sVvalue
p39
g4
sa(dp40
Vname
p41
Vei
p42
sVvalue
p43
Vsm3zWJi7CYeLjwSpv7fgAQ
p44
sa(dp45
Vname
p46
Vm
p47
sVvalue
p48
VV
p49
sa(dp50
Vname
p51
Vt
p52
sVvalue
p53
VC
p54
sa(dp55
Vname
p56
Vs
p57
sVvalue
p58
V1
p59
sa(dp60
Vname
p61
Vv
p62
sVvalue
p63
V2
p64
sa(dp65
Vname
p66
Vpv
p67
sVvalue
p68
V0.28279887928936276
p69
sa(dp70
Vname
p71
Vme
p72
sVvalue
p73
V1:1492348340803,x:1,V,0,0,1280,944:0,N,1,sm3zWJi7CYeLjwSpv7fgAQ:0,R,1,24,8,155,1249,1079:0,R,1,25,8,155,1249,1079:0,R,1,29,8,168,1249,40:0,R,1,46,8,267,1249,169:0,R,1,49,0,283,1265,188:0,R,1,89,8,453,1249,40:0,R,1,90,24,453,1217,40:0,R,1,96,8,509,1249,20:0,R,1,111,8,549,1249,310:0,R,1,112,0,594,1265,285:0,R,1,141,8,904,1249,263:0,R,1,142,0,904,1265,283:3,B,3636:13749,e,U
p74
sa(dp75
Vname
p76
Vzx
p77
sVvalue
p78
V1492348354556
p79
sasVheaders
p80
(lp81
sVheadersSize
p82
I1025
sVbodySize
p83
I0
sVmethod
p84
VGET
p85
sVhttpVersion
p86
VHTTP/1.1
p87
ssVtimings
p88
(dp89
Vcomment
p90
g4
sVreceive
p91
I0
sVsend
p92
I0
sVssl
p93
I-1
sVconnect
p94
I-1
sVdns
p95
I-1
sVwait
p96
I0
sVblocked
p97
I-1
ssVtime
p98
I0
sVresponse
p99
(dp100
Vstatus
p101
I0
sVcomment
p102
g4
sVcookies
p103
(lp104
sV_error
p105
VNo response received
p106
sVstatusText
p107
g4
sVcontent
p108
(dp109
VmimeType
p110
g4
sVcomment
p111
g4
sVsize
p112
I0
ssVheaders
p113
(lp114
sVheadersSize
p115
I-1
sVredirectURL
p116
g4
sVbodySize
p117
I-1
sVhttpVersion
p118
Vunknown
p119
ssa(dp120
Vcomment
p121
g4
sVserverIPAddress
p122
V216.58.216.196
p123
sVpageref
p124
VAlicia Vikander
p125
sVstartedDateTime
p126
V2017-04-16T08:12:34.563-05:00
p127
sVcache
p128
(dp129
sVrequest
p130
(dp131
Vcomment
p132
g4
sVcookies
p133
(lp134
sVurl
p135
Vhttp://www.google.com/
p136
sVqueryString
p137
(lp138
sVheaders
p139
(lp140
sVheadersSize
p141
I613
sVbodySize
p142
I0
sVmethod
p143
VGET
p144
sVhttpVersion
p145
VHTTP/1.1
p146
ssVtimings
p147
(dp148
Vcomment
p149
g4
sVreceive
p150
I0
sVsend
p151
I0
sVssl
p152
I-1
sVconnect
p153
I-1
sVdns
p154
I-1
sVwait
p155
I38
sVblocked
p156
I-1
ssVtime
p157
I39
sVresponse
p158
(dp159
Vstatus
p160
I302
sVcomment
p161
g4
sVcookies
p162
(lp163
sVstatusText
p164
VFound
p165
sVcontent
p166
(dp167
VmimeType
p168
Vtext/html; charset=UTF-8
p169
sVcomment
p170
g4
sVsize
p171
I0
ssVheaders
p172
(lp173
sVheadersSize
p174
I609
sVredirectURL
p175
Vhttps://www.google.com/?gws_rd=ssl
p176
sVbodySize
p177
I231
sVhttpVersion
p178
VHTTP/1.1
p179
ssa(dp180
Vcomment
p181
g4
sVserverIPAddress
p182
V216.58.216.196
p183
sVpageref
p184
VAlicia Vikander
p185
sVstartedDateTime
p186
V2017-04-16T08:12:34.609-05:00
p187
sVcache
p188
(dp189
sVrequest
p190
(dp191
Vcomment
p192
g4
sVcookies
p193
(lp194
sVurl
p195
Vhttps://www.google.com/?gws_rd=ssl
p196
sVqueryString
p197
(lp198
(dp199
Vname
p200
Vgws_rd
p201
sVvalue
p202
Vssl
p203
sasVheaders
p204
(lp205
sVheadersSize
p206
I607
sVbodySize
p207
I0
sVmethod
p208
VGET
p209
sVhttpVersion
p210
VHTTP/1.1
p211
ssVtimings
p212
(dp213
Vcomment
p214
g4
sVreceive
p215
I28
sVsend
p216
I0
sVssl
p217
I-1
sVconnect
p218
I-1
sVdns
p219
I-1
sVwait
p220
I77
sVblocked
p221
I-1
ssVtime
p222
I106
sVresponse
p223
(dp224
Vstatus
p225
I200
sVcomment
p226
g4
sVcookies
p227
(lp228
sVstatusText
p229
VOK
p230
sVcontent
p231
(dp232
VmimeType
p233
Vtext/html; charset=UTF-8
p234
sVcomment
p235
g4
sVsize
p236
I0
ssVheaders
p237
(lp238
sVheadersSize
p239
I721
sVredirectURL
p240
g4
sVbodySize
p241
I34288
sVhttpVersion
p242
VHTTP/1.1
p243
ssa(dp244
Vcomment
p245
g4
sVserverIPAddress
p246
V216.58.216.196
p247
sVpageref
p248
VAlicia Vikander
p249
sVstartedDateTime
p250
V2017-04-16T08:12:34.886-05:00
p251
sVcache
p252
(dp253
sVrequest
p254
(dp255
Vcomment
p256
g4
sVcookies
p257
(lp258
sVurl
p259
Vhttps://www.google.com/gen_204?s=mobilewebhp&atyp=csi&ei=wW3zWNHJJcXbjwTMsLOQBw&imc=1&imn=1&imp=0&adh=&xjs=init.25.12.sb_mob.18.dvl.2.c.1.jsa.1.mbsf.1&ima=1&rt=xjsls.10,prt.11,iml.11,dcl.48,xjses.72,xjsee.148,xjs.148,ol.178,aft.11,wsrt.149,cst.0,dnst.0,rqst.110,rspt.30,rqstt.53,unt.50,cstt.50,dit.195
p260
sVqueryString
p261
(lp262
(dp263
Vname
p264
g57
sVvalue
p265
Vmobilewebhp
p266
sa(dp267
Vname
p268
Vatyp
p269
sVvalue
p270
Vcsi
p271
sa(dp272
Vname
p273
Vei
p274
sVvalue
p275
VwW3zWNHJJcXbjwTMsLOQBw
p276
sa(dp277
Vname
p278
Vimc
p279
sVvalue
p280
g59
sa(dp281
Vname
p282
Vimn
p283
sVvalue
p284
g59
sa(dp285
Vname
p286
Vimp
p287
sVvalue
p288
V0
p289
sa(dp290
Vname
p291
Vadh
p292
sVvalue
p293
g4
sa(dp294
Vname
p295
Vxjs
p296
sVvalue
p297
Vinit.25.12.sb_mob.18.dvl.2.c.1.jsa.1.mbsf.1
p298
sa(dp299
Vname
p300
Vima
p301
sVvalue
p302
g59
sa(dp303
Vname
p304
Vrt
p305
sVvalue
p306
Vxjsls.10,prt.11,iml.11,dcl.48,xjses.72,xjsee.148,xjs.148,ol.178,aft.11,wsrt.149,cst.0,dnst.0,rqst.110,rspt.30,rqstt.53,unt.50,cstt.50,dit.195
p307
sasVheaders
p308
(lp309
sVheadersSize
p310
I829
sVbodySize
p311
I0
sVmethod
p312
VGET
p313
sVhttpVersion
p314
VHTTP/1.1
p315
ssVtimings
p316
(dp317
Vcomment
p318
g4
sVreceive
p319
I0
sVsend
p320
I0
sVssl
p321
I-1
sVconnect
p322
I-1
sVdns
p323
I-1
sVwait
p324
I25
sVblocked
p325
I-1
ssVtime
p326
I25
sVresponse
p327
(dp328
Vstatus
p329
I204
sVcomment
p330
g4
sVcookies
p331
(lp332
sVstatusText
p333
VNo Content
p334
sVcontent
p335
(dp336
VmimeType
p337
Vtext/html; charset=UTF-8
p338
sVcomment
p339
g4
sVsize
p340
I0
ssVheaders
p341
(lp342
sVheadersSize
p343
I248
sVredirectURL
p344
g4
sVbodySize
p345
I0
sVhttpVersion
p346
VHTTP/1.1
p347
ssa(dp348
Vcomment
p349
g4
sVserverIPAddress
p350
V216.58.216.196
p351
sVpageref
p352
VAlicia Vikander
p353
sVstartedDateTime
p354
V2017-04-16T08:12:35.021-05:00
p355
sVcache
p356
(dp357
sVrequest
p358
(dp359
Vcomment
p360
g4
sVcookies
p361
(lp362
sVurl
p363
Vhttps://www.google.com/complete/search?client=mobile-gws-hp&hl=en&gs_rn=64&gs_ri=mobile-gws-hp&sla=1&pfq=alan%20thicke&gm=602&cp=0&gs_id=1&xhr=t&q=A&tch=1&ech=1&psi=wW3zWNHJJcXbjwTMsLOQBw.1492348354828.1
p364
sVqueryString
p365
(lp366
(dp367
Vname
p368
Vclient
p369
sVvalue
p370
Vmobile-gws-hp
p371
sa(dp372
Vname
p373
Vhl
p374
sVvalue
p375
Ven
p376
sa(dp377
Vname
p378
Vgs_rn
p379
sVvalue
p380
V64
p381
sa(dp382
Vname
p383
Vgs_ri
p384
sVvalue
p385
Vmobile-gws-hp
p386
sa(dp387
Vname
p388
Vsla
p389
sVvalue
p390
g59
sa(dp391
Vname
p392
Vpfq
p393
sVvalue
p394
Valan thicke
p395
sa(dp396
Vname
p397
Vgm
p398
sVvalue
p399
V602
p400
sa(dp401
Vname
p402
Vcp
p403
sVvalue
p404
g289
sa(dp405
Vname
p406
Vgs_id
p407
sVvalue
p408
g59
sa(dp409
Vname
p410
Vxhr
p411
sVvalue
p412
g52
sa(dp413
Vname
p414
Vq
p415
sVvalue
p416
VA
p417
sa(dp418
Vname
p419
Vtch
p420
sVvalue
p421
g59
sa(dp422
Vname
p423
Vech
p424
sVvalue
p425
g59
sa(dp426
Vname
p427
Vpsi
p428
sVvalue
p429
VwW3zWNHJJcXbjwTMsLOQBw.1492348354828.1
p430
sasVheaders
p431
(lp432
sVheadersSize
p433
I731
sVbodySize
p434
I0
sVmethod
p435
VGET
p436
sVhttpVersion
p437
VHTTP/1.1
p438
ssVtimings
p439
(dp440
Vcomment
p441
g4
sVreceive
p442
I0
sVsend
p443
I0
sVssl
p444
I-1
sVconnect
p445
I-1
sVdns
p446
I-1
sVwait
p447
I0
sVblocked
p448
I-1
ssVtime
p449
I0
sVresponse
p450
(dp451
Vstatus
p452
I0
sVcomment
p453
g4
sVcookies
p454
(lp455
sV_error
p456
VNo response received
p457
sVstatusText
p458
g4
sVcontent
p459
(dp460
VmimeType
p461
g4
sVcomment
p462
g4
sVsize
p463
I0
ssVheaders
p464
(lp465
sVheadersSize
p466
I-1
sVredirectURL
p467
g4
sVbodySize
p468
I-1
sVhttpVersion
p469
Vunknown
p470
ssa(dp471
Vcomment
p472
g4
sVserverIPAddress
p473
V216.58.216.196
p474
sVpageref
p475
VAlicia Vikander
p476
sVstartedDateTime
p477
V2017-04-16T08:12:35.092-05:00
p478
sVcache
p479
(dp480
sVrequest
p481
(dp482
Vcomment
p483
g4
sVcookies
p484
(lp485
sVurl
p486
Vhttps://www.google.com/search?site=&source=hp&ei=wW3zWNHJJcXbjwTMsLOQBw&q=Alicia+Vikander&oq=Alicia+Vikander&gs_l=mobile-gws-hp.3...172.213.0.238.15.1.0.0.0.0.0.0..0.0....0...1c.1.64.mobile-gws-hp..15.0.0.w8x97iX0rR0
p487
sVqueryString
p488
(lp489
(dp490
Vname
p491
Vsite
p492
sVvalue
p493
g4
sa(dp494
Vname
p495
Vsource
p496
sVvalue
p497
Vhp
p498
sa(dp499
Vname
p500
Vei
p501
sVvalue
p502
VwW3zWNHJJcXbjwTMsLOQBw
p503
sa(dp504
Vname
p505
g415
sVvalue
p506
VAlicia Vikander
p507
sa(dp508
Vname
p509
Voq
p510
sVvalue
p511
VAlicia Vikander
p512
sa(dp513
Vname
p514
Vgs_l
p515
sVvalue
p516
Vmobile-gws-hp.3...172.213.0.238.15.1.0.0.0.0.0.0..0.0....0...1c.1.64.mobile-gws-hp..15.0.0.w8x97iX0rR0
p517
sasVheaders
p518
(lp519
sVheadersSize
p520
I834
sVbodySize
p521
I0
sVmethod
p522
VGET
p523
sVhttpVersion
p524
VHTTP/1.1
p525
ssVtimings
p526
(dp527
Vcomment
p528
g4
sVreceive
p529
I666
sVsend
p530
I0
sVssl
p531
I-1
sVconnect
p532
I-1
sVdns
p533
I-1
sVwait
p534
I123
sVblocked
p535
I-1
ssVtime
p536
I790
sVresponse
p537
(dp538
Vstatus
p539
I200
sVcomment
p540
g4
sVcookies
p541
(lp542
sVstatusText
p543
VOK
p544
sVcontent
p545
(dp546
VmimeType
p547
Vtext/html; charset=UTF-8
p548
sVcomment
p549
g4
sVsize
p550
I0
ssVheaders
p551
(lp552
sVheadersSize
p553
I363
sVredirectURL
p554
g4
sVbodySize
p555
I156241
sVhttpVersion
p556
VHTTP/1.1
p557
ssa(dp558
Vcomment
p559
g4
sVserverIPAddress
p560
V216.58.216.196
p561
sVpageref
p562
VAlicia Vikander
p563
sVstartedDateTime
p564
V2017-04-16T08:12:36.691-05:00
p565
sVcache
p566
(dp567
sVrequest
p568
(dp569
Vcomment
p570
g4
sVcookies
p571
(lp572
sVurl
p573
Vhttps://www.google.com/gen_204?atyp=i&ct=&cad=&uact=1&vet=10ahUKEwifjp3shqnTAhWL54MKHUpYDAMQ9V8IKigA..s&ei=wm3zWJ-lB4vPjwTKsLEY&zx=1492348356689
p574
sVqueryString
p575
(lp576
(dp577
Vname
p578
Vatyp
p579
sVvalue
p580
g30
sa(dp581
Vname
p582
Vct
p583
sVvalue
p584
g4
sa(dp585
Vname
p586
Vcad
p587
sVvalue
p588
g4
sa(dp589
Vname
p590
Vuact
p591
sVvalue
p592
g59
sa(dp593
Vname
p594
Vvet
p595
sVvalue
p596
V10ahUKEwifjp3shqnTAhWL54MKHUpYDAMQ9V8IKigA..s
p597
sa(dp598
Vname
p599
Vei
p600
sVvalue
p601
Vwm3zWJ-lB4vPjwTKsLEY
p602
sa(dp603
Vname
p604
Vzx
p605
sVvalue
p606
V1492348356689
p607
sasVheaders
p608
(lp609
sVheadersSize
p610
I661
sVbodySize
p611
I0
sVmethod
p612
VGET
p613
sVhttpVersion
p614
VHTTP/1.1
p615
ssVtimings
p616
(dp617
Vcomment
p618
g4
sVreceive
p619
I0
sVsend
p620
I0
sVssl
p621
I-1
sVconnect
p622
I-1
sVdns
p623
I-1
sVwait
p624
I29
sVblocked
p625
I-1
ssVtime
p626
I29
sVresponse
p627
(dp628
Vstatus
p629
I204
sVcomment
p630
g4
sVcookies
p631
(lp632
sVstatusText
p633
VNo Content
p634
sVcontent
p635
(dp636
VmimeType
p637
Vtext/html; charset=UTF-8
p638
sVcomment
p639
g4
sVsize
p640
I0
ssVheaders
p641
(lp642
sVheadersSize
p643
I248
sVredirectURL
p644
g4
sVbodySize
p645
I0
sVhttpVersion
p646
VHTTP/1.1
p647
ssa(dp648
Vcomment
p649
g4
sVserverIPAddress
p650
V216.58.216.196
p651
sVpageref
p652
VAlicia Vikander
p653
sVstartedDateTime
p654
V2017-04-16T08:12:36.693-05:00
p655
sVcache
p656
(dp657
sVrequest
p658
(dp659
Vcomment
p660
g4
sVcookies
p661
(lp662
sVurl
p663
Vhttps://www.google.com/gen_204?atyp=i&ct=&cad=&uact=1&vet=10ahUKEwifjp3shqnTAhWL54MKHUpYDAMQ9V8IKygB..s&ei=wm3zWJ-lB4vPjwTKsLEY&zx=1492348356692
p664
sVqueryString
p665
(lp666
(dp667
Vname
p668
Vatyp
p669
sVvalue
p670
g30
sa(dp671
Vname
p672
Vct
p673
sVvalue
p674
g4
sa(dp675
Vname
p676
Vcad
p677
sVvalue
p678
g4
sa(dp679
Vname
p680
Vuact
p681
sVvalue
p682
g59
sa(dp683
Vname
p684
Vvet
p685
sVvalue
p686
V10ahUKEwifjp3shqnTAhWL54MKHUpYDAMQ9V8IKygB..s
p687
sa(dp688
Vname
p689
Vei
p690
sVvalue
p691
Vwm3zWJ-lB4vPjwTKsLEY
p692
sa(dp693
Vname
p694
Vzx
p695
sVvalue
p696
V1492348356692
p697
sasVheaders
p698
(lp699
sVheadersSize
p700
I661
sVbodySize
p701
I0
sVmethod
p702
VGET
p703
sVhttpVersion
p704
VHTTP/1.1
p705
ssVtimings
p706
(dp707
Vcomment
p708
g4
sVreceive
p709
I0
sVsend
p710
I0
sVssl
p711
I-1
sVconnect
p712
I-1
sVdns
p713
I-1
sVwait
p714
I33
sVblocked
p715
I-1
ssVtime
p716
I33
sVresponse
p717
(dp718
Vstatus
p719
I204
sVcomment
p720
g4
sVcookies
p721
(lp722
sVstatusText
p723
VNo Content
p724
sVcontent
p725
(dp726
VmimeType
p727
Vtext/html; charset=UTF-8
p728
sVcomment
p729
g4
sVsize
p730
I0
ssVheaders
p731
(lp732
sVheadersSize
p733
I248
sVredirectURL
p734
g4
sVbodySize
p735
I0
sVhttpVersion
p736
VHTTP/1.1
p737
ssa(dp738
Vcomment
p739
g4
sVserverIPAddress
p740
V216.58.216.196
p741
sVpageref
p742
VAlicia Vikander
p743
sVstartedDateTime
p744
V2017-04-16T08:12:36.710-05:00
p745
sVcache
p746
(dp747
sVrequest
p748
(dp749
Vcomment
p750
g4
sVcookies
p751
(lp752
sVurl
p753
Vhttps://www.google.com/async/irc?vet=10ahUKEwifjp3shqnTAhWL54MKHUpYDAMQo0EIngI..i&ved=0ahUKEwifjp3shqnTAhWL54MKHUpYDAMQo0EIngI&ei=wm3zWJ-lB4vPjwTKsLEY&yv=2&async=iu:1,ved:0ahUKEwifjp3shqnTAhWL54MKHUpYDAMQo0EIngI,_id:irc_async,_pms:qs
p754
sVqueryString
p755
(lp756
(dp757
Vname
p758
Vvet
p759
sVvalue
p760
V10ahUKEwifjp3shqnTAhWL54MKHUpYDAMQo0EIngI..i
p761
sa(dp762
Vname
p763
Vved
p764
sVvalue
p765
V0ahUKEwifjp3shqnTAhWL54MKHUpYDAMQo0EIngI
p766
sa(dp767
Vname
p768
Vei
p769
sVvalue
p770
Vwm3zWJ-lB4vPjwTKsLEY
p771
sa(dp772
Vname
p773
Vyv
p774
sVvalue
p775
g64
sa(dp776
Vname
p777
Vasync
p778
sVvalue
p779
Viu:1,ved:0ahUKEwifjp3shqnTAhWL54MKHUpYDAMQo0EIngI,_id:irc_async,_pms:qs
p780
sasVheaders
p781
(lp782
sVheadersSize
p783
I750
sVbodySize
p784
I0
sVmethod
p785
VGET
p786
sVhttpVersion
p787
VHTTP/1.1
p788
ssVtimings
p789
(dp790
Vcomment
p791
g4
sVreceive
p792
I2
sVsend
p793
I0
sVssl
p794
I-1
sVconnect
p795
I-1
sVdns
p796
I-1
sVwait
p797
I51
sVblocked
p798
I-1
ssVtime
p799
I54
sVresponse
p800
(dp801
Vstatus
p802
I200
sVcomment
p803
g4
sVcookies
p804
(lp805
sVstatusText
p806
VOK
p807
sVcontent
p808
(dp809
VmimeType
p810
Vtext/html; charset=UTF-8
p811
sVcomment
p812
g4
sVsize
p813
I0
ssVheaders
p814
(lp815
sVheadersSize
p816
I383
sVredirectURL
p817
g4
sVbodySize
p818
I7794
sVhttpVersion
p819
VHTTP/1.1
p820
ssa(dp821
Vcomment
p822
g4
sVserverIPAddress
p823
V216.58.216.196
p824
sVpageref
p825
VAlicia Vikander
p826
sVstartedDateTime
p827
V2017-04-16T08:12:36.718-05:00
p828
sVcache
p829
(dp830
sVrequest
p831
(dp832
Vcomment
p833
g4
sVcookies
p834
(lp835
sVurl
p836
Vhttps://www.google.com/gen_204?atyp=i&ct=&cad=&vet=10ahUKEwifjp3shqnTAhWL54MKHUpYDAMQ5W0IOCgC..s&ei=wm3zWJ-lB4vPjwTKsLEY&zx=1492348356717
p837
sVqueryString
p838
(lp839
(dp840
Vname
p841
Vatyp
p842
sVvalue
p843
g30
sa(dp844
Vname
p845
Vct
p846
sVvalue
p847
g4
sa(dp848
Vname
p849
Vcad
p850
sVvalue
p851
g4
sa(dp852
Vname
p853
Vvet
p854
sVvalue
p855
V10ahUKEwifjp3shqnTAhWL54MKHUpYDAMQ5W0IOCgC..s
p856
sa(dp857
Vname
p858
Vei
p859
sVvalue
p860
Vwm3zWJ-lB4vPjwTKsLEY
p861
sa(dp862
Vname
p863
Vzx
p864
sVvalue
p865
V1492348356717
p866
sasVheaders
p867
(lp868
sVheadersSize
p869
I654
sVbodySize
p870
I0
sVmethod
p871
VGET
p872
sVhttpVersion
p873
VHTTP/1.1
p874
ssVtimings
p875
(dp876
Vcomment
p877
g4
sVreceive
p878
I0
sVsend
p879
I0
sVssl
p880
I-1
sVconnect
p881
I-1
sVdns
p882
I-1
sVwait
p883
I33
sVblocked
p884
I-1
ssVtime
p885
I33
sVresponse
p886
(dp887
Vstatus
p888
I204
sVcomment
p889
g4
sVcookies
p890
(lp891
sVstatusText
p892
VNo Content
p893
sVcontent
p894
(dp895
VmimeType
p896
Vtext/html; charset=UTF-8
p897
sVcomment
p898
g4
sVsize
p899
I0
ssVheaders
p900
(lp901
sVheadersSize
p902
I248
sVredirectURL
p903
g4
sVbodySize
p904
I0
sVhttpVersion
p905
VHTTP/1.1
p906
ssa(dp907
Vcomment
p908
g4
sVserverIPAddress
p909
V216.58.216.196
p910
sVpageref
p911
VAlicia Vikander
p912
sVstartedDateTime
p913
V2017-04-16T08:12:36.721-05:00
p914
sVcache
p915
(dp916
sVrequest
p917
(dp918
Vcomment
p919
g4
sVcookies
p920
(lp921
sVurl
p922
Vhttps://www.google.com/gen_204?atyp=i&ct=&cad=&vet=10ahUKEwifjp3shqnTAhWL54MKHUpYDAMQ5W0IPigE..s&ei=wm3zWJ-lB4vPjwTKsLEY&zx=1492348356721
p923
sVqueryString
p924
(lp925
(dp926
Vname
p927
Vatyp
p928
sVvalue
p929
g30
sa(dp930
Vname
p931
Vct
p932
sVvalue
p933
g4
sa(dp934
Vname
p935
Vcad
p936
sVvalue
p937
g4
sa(dp938
Vname
p939
Vvet
p940
sVvalue
p941
V10ahUKEwifjp3shqnTAhWL54MKHUpYDAMQ5W0IPigE..s
p942
sa(dp943
Vname
p944
Vei
p945
sVvalue
p946
Vwm3zWJ-lB4vPjwTKsLEY
p947
sa(dp948
Vname
p949
Vzx
p950
sVvalue
p951
V1492348356721
p952
sasVheaders
p953
(lp954
sVheadersSize
p955
I654
sVbodySize
p956
I0
sVmethod
p957
VGET
p958
sVhttpVersion
p959
VHTTP/1.1
p960
ssVtimings
p961
(dp962
Vcomment
p963
g4
sVreceive
p964
I0
sVsend
p965
I0
sVssl
p966
I-1
sVconnect
p967
I-1
sVdns
p968
I-1
sVwait
p969
I64
sVblocked
p970
I-1
ssVtime
p971
I65
sVresponse
p972
(dp973
Vstatus
p974
I204
sVcomment
p975
g4
sVcookies
p976
(lp977
sVstatusText
p978
VNo Content
p979
sVcontent
p980
(dp981
VmimeType
p982
Vtext/html; charset=UTF-8
p983
sVcomment
p984
g4
sVsize
p985
I0
ssVheaders
p986
(lp987
sVheadersSize
p988
I248
sVredirectURL
p989
g4
sVbodySize
p990
I0
sVhttpVersion
p991
VHTTP/1.1
p992
ssa(dp993
Vcomment
p994
g4
sVserverIPAddress
p995
V216.58.216.196
p996
sVpageref
p997
VAlicia Vikander
p998
sVstartedDateTime
p999
V2017-04-16T08:12:36.727-05:00
p1000
sVcache
p1001
(dp1002
sVrequest
p1003
(dp1004
Vcomment
p1005
g4
sVcookies
p1006
(lp1007
sVurl
p1008
Vhttps://www.google.com/gen_204?atyp=i&ct=&cad=&vet=10ahUKEwifjp3shqnTAhWL54MKHUpYDAMQ5W0IRCgG..s&ei=wm3zWJ-lB4vPjwTKsLEY&zx=1492348356724
p1009
sVqueryString
p1010
(lp1011
(dp1012
Vname
p1013
Vatyp
p1014
sVvalue
p1015
g30
sa(dp1016
Vname
p1017
Vct
p1018
sVvalue
p1019
g4
sa(dp1020
Vname
p1021
Vcad
p1022
sVvalue
p1023
g4
sa(dp1024
Vname
p1025
Vvet
p1026
sVvalue
p1027
V10ahUKEwifjp3shqnTAhWL54MKHUpYDAMQ5W0IRCgG..s
p1028
sa(dp1029
Vname
p1030
Vei
p1031
sVvalue
p1032
Vwm3zWJ-lB4vPjwTKsLEY
p1033
sa(dp1034
Vname
p1035
Vzx
p1036
sVvalue
p1037
V1492348356724
p1038
sasVheaders
p1039
(lp1040
sVheadersSize
p1041
I654
sVbodySize
p1042
I0
sVmethod
p1043
VGET
p1044
sVhttpVersion
p1045
VHTTP/1.1
p1046
ssVtimings
p1047
(dp1048
Vcomment
p1049
g4
sVreceive
p1050
I0
sVsend
p1051
I0
sVssl
p1052
I-1
sVconnect
p1053
I-1
sVdns
p1054
I-1
sVwait
p1055
I62
sVblocked
p1056
I-1
ssVtime
p1057
I62
sVresponse
p1058
(dp1059
Vstatus
p1060
I204
sVcomment
p1061
g4
sVcookies
p1062
(lp1063
sVstatusText
p1064
VNo Content
p1065
sVcontent
p1066
(dp1067
VmimeType
p1068
Vtext/html; charset=UTF-8
p1069
sVcomment
p1070
g4
sVsize
p1071
I0
ssVheaders
p1072
(lp1073
sVheadersSize
p1074
I248
sVredirectURL
p1075
g4
sVbodySize
p1076
I0
sVhttpVersion
p1077
VHTTP/1.1
p1078
ssa(dp1079
Vcomment
p1080
g4
sVserverIPAddress
p1081
V216.58.216.196
p1082
sVpageref
p1083
VAlicia Vikander
p1084
sVstartedDateTime
p1085
V2017-04-16T08:12:36.752-05:00
p1086
sVcache
p1087
(dp1088
sVrequest
p1089
(dp1090
Vcomment
p1091
g4
sVcookies
p1092
(lp1093
sVurl
p1094
Vhttps://www.google.com/gen_204?atyp=i&ct=&cad=&vet=10ahUKEwifjp3shqnTAhWL54MKHUpYDAMQ5W0IRygH..s&ei=wm3zWJ-lB4vPjwTKsLEY&zx=1492348356726
p1095
sVqueryString
p1096
(lp1097
(dp1098
Vname
p1099
Vatyp
p1100
sVvalue
p1101
g30
sa(dp1102
Vname
p1103
Vct
p1104
sVvalue
p1105
g4
sa(dp1106
Vname
p1107
Vcad
p1108
sVvalue
p1109
g4
sa(dp1110
Vname
p1111
Vvet
p1112
sVvalue
p1113
V10ahUKEwifjp3shqnTAhWL54MKHUpYDAMQ5W0IRygH..s
p1114
sa(dp1115
Vname
p1116
Vei
p1117
sVvalue
p1118
Vwm3zWJ-lB4vPjwTKsLEY
p1119
sa(dp1120
Vname
p1121
Vzx
p1122
sVvalue
p1123
V1492348356726
p1124
sasVheaders
p1125
(lp1126
sVheadersSize
p1127
I654
sVbodySize
p1128
I0
sVmethod
p1129
VGET
p1130
sVhttpVersion
p1131
VHTTP/1.1
p1132
ssVtimings
p1133
(dp1134
Vcomment
p1135
g4
sVreceive
p1136
I0
sVsend
p1137
I0
sVssl
p1138
I-1
sVconnect
p1139
I-1
sVdns
p1140
I-1
sVwait
p1141
I36
sVblocked
p1142
I-1
ssVtime
p1143
I36
sVresponse
p1144
(dp1145
Vstatus
p1146
I204
sVcomment
p1147
g4
sVcookies
p1148
(lp1149
sVstatusText
p1150
VNo Content
p1151
sVcontent
p1152
(dp1153
VmimeType
p1154
Vtext/html; charset=UTF-8
p1155
sVcomment
p1156
g4
sVsize
p1157
I0
ssVheaders
p1158
(lp1159
sVheadersSize
p1160
I248
sVredirectURL
p1161
g4
sVbodySize
p1162
I0
sVhttpVersion
p1163
VHTTP/1.1
p1164
ssa(dp1165
Vcomment
p1166
g4
sVserverIPAddress
p1167
V216.58.216.196
p1168
sVpageref
p1169
VAlicia Vikander
p1170
sVstartedDateTime
p1171
V2017-04-16T08:12:36.766-05:00
p1172
sVcache
p1173
(dp1174
sVrequest
p1175
(dp1176
Vcomment
p1177
g4
sVcookies
p1178
(lp1179
sVurl
p1180
Vhttps://www.google.com/gen_204?atyp=i&ct=&cad=&vet=10ahUKEwifjp3shqnTAhWL54MKHUpYDAMQ5W0ISigI..s&ei=wm3zWJ-lB4vPjwTKsLEY&zx=1492348356728
p1181
sVqueryString
p1182
(lp1183
(dp1184
Vname
p1185
Vatyp
p1186
sVvalue
p1187
g30
sa(dp1188
Vname
p1189
Vct
p1190
sVvalue
p1191
g4
sa(dp1192
Vname
p1193
Vcad
p1194
sVvalue
p1195
g4
sa(dp1196
Vname
p1197
Vvet
p1198
sVvalue
p1199
V10ahUKEwifjp3shqnTAhWL54MKHUpYDAMQ5W0ISigI..s
p1200
sa(dp1201
Vname
p1202
Vei
p1203
sVvalue
p1204
Vwm3zWJ-lB4vPjwTKsLEY
p1205
sa(dp1206
Vname
p1207
Vzx
p1208
sVvalue
p1209
V1492348356728
p1210
sasVheaders
p1211
(lp1212
sVheadersSize
p1213
I654
sVbodySize
p1214
I0
sVmethod
p1215
VGET
p1216
sVhttpVersion
p1217
VHTTP/1.1
p1218
ssVtimings
p1219
(dp1220
Vcomment
p1221
g4
sVreceive
p1222
I0
sVsend
p1223
I0
sVssl
p1224
I-1
sVconnect
p1225
I-1
sVdns
p1226
I-1
sVwait
p1227
I23
sVblocked
p1228
I-1
ssVtime
p1229
I23
sVresponse
p1230
(dp1231
Vstatus
p1232
I204
sVcomment
p1233
g4
sVcookies
p1234
(lp1235
sVstatusText
p1236
VNo Content
p1237
sVcontent
p1238
(dp1239
VmimeType
p1240
Vtext/html; charset=UTF-8
p1241
sVcomment
p1242
g4
sVsize
p1243
I0
ssVheaders
p1244
(lp1245
sVheadersSize
p1246
I248
sVredirectURL
p1247
g4
sVbodySize
p1248
I0
sVhttpVersion
p1249
VHTTP/1.1
p1250
ssa(dp1251
Vcomment
p1252
g4
sVserverIPAddress
p1253
V216.58.217.14
p1254
sVpageref
p1255
VAlicia Vikander
p1256
sVstartedDateTime
p1257
V2017-04-16T08:12:36.772-05:00
p1258
sVcache
p1259
(dp1260
sVrequest
p1261
(dp1262
Vcomment
p1263
g4
sVcookies
p1264
(lp1265
sVurl
p1266
Vhttps://encrypted-tbn3.gstatic.com/images?q=tbn:ANd9GcQKPQi027c4dhkxh0lp8Q5jS4F_GbJyMm_bkw8g7B1FQph4kB-dW1cGNU2MEUzGMnujaorP
p1267
sVqueryString
p1268
(lp1269
(dp1270
Vname
p1271
g415
sVvalue
p1272
Vtbn:ANd9GcQKPQi027c4dhkxh0lp8Q5jS4F_GbJyMm_bkw8g7B1FQph4kB-dW1cGNU2MEUzGMnujaorP
p1273
sasVheaders
p1274
(lp1275
sVheadersSize
p1276
I439
sVbodySize
p1277
I0
sVmethod
p1278
VGET
p1279
sVhttpVersion
p1280
VHTTP/1.1
p1281
ssVtimings
p1282
(dp1283
Vcomment
p1284
g4
sVreceive
p1285
I1
sVsend
p1286
I0
sVssl
p1287
I-1
sVconnect
p1288
I-1
sVdns
p1289
I-1
sVwait
p1290
I15
sVblocked
p1291
I-1
ssVtime
p1292
I16
sVresponse
p1293
(dp1294
Vstatus
p1295
I200
sVcomment
p1296
g4
sVcookies
p1297
(lp1298
sVstatusText
p1299
VOK
p1300
sVcontent
p1301
(dp1302
VmimeType
p1303
Vimage/jpeg
p1304
sVcomment
p1305
g4
sVsize
p1306
I0
ssVheaders
p1307
(lp1308
sVheadersSize
p1309
I407
sVredirectURL
p1310
g4
sVbodySize
p1311
I2876
sVhttpVersion
p1312
VHTTP/1.1
p1313
ssa(dp1314
Vcomment
p1315
g4
sVserverIPAddress
p1316
V216.58.216.206
p1317
sVpageref
p1318
VAlicia Vikander
p1319
sVstartedDateTime
p1320
V2017-04-16T08:12:36.774-05:00
p1321
sVcache
p1322
(dp1323
sVrequest
p1324
(dp1325
Vcomment
p1326
g4
sVcookies
p1327
(lp1328
sVurl
p1329
Vhttps://encrypted-tbn2.gstatic.com/images?q=tbn:ANd9GcShmPe4BAM22yeCp5lD2sc1AX-ix09Kw8AiJRohGdQQupw-J-6UeHspMXYIOWcTpthQY_eq
p1330
sVqueryString
p1331
(lp1332
(dp1333
Vname
p1334
g415
sVvalue
p1335
Vtbn:ANd9GcShmPe4BAM22yeCp5lD2sc1AX-ix09Kw8AiJRohGdQQupw-J-6UeHspMXYIOWcTpthQY_eq
p1336
sasVheaders
p1337
(lp1338
sVheadersSize
p1339
I439
sVbodySize
p1340
I0
sVmethod
p1341
VGET
p1342
sVhttpVersion
p1343
VHTTP/1.1
p1344
ssVtimings
p1345
(dp1346
Vcomment
p1347
g4
sVreceive
p1348
I0
sVsend
p1349
I0
sVssl
p1350
I-1
sVconnect
p1351
I-1
sVdns
p1352
I-1
sVwait
p1353
I20
sVblocked
p1354
I-1
ssVtime
p1355
I21
sVresponse
p1356
(dp1357
Vstatus
p1358
I200
sVcomment
p1359
g4
sVcookies
p1360
(lp1361
sVstatusText
p1362
VOK
p1363
sVcontent
p1364
(dp1365
VmimeType
p1366
Vimage/jpeg
p1367
sVcomment
p1368
g4
sVsize
p1369
I0
ssVheaders
p1370
(lp1371
sVheadersSize
p1372
I429
sVredirectURL
p1373
g4
sVbodySize
p1374
I5264
sVhttpVersion
p1375
VHTTP/1.1
p1376
ssa(dp1377
Vcomment
p1378
g4
sVserverIPAddress
p1379
V216.58.217.14
p1380
sVpageref
p1381
VAlicia Vikander
p1382
sVstartedDateTime
p1383
V2017-04-16T08:12:36.776-05:00
p1384
sVcache
p1385
(dp1386
sVrequest
p1387
(dp1388
Vcomment
p1389
g4
sVcookies
p1390
(lp1391
sVurl
p1392
Vhttps://encrypted-tbn3.gstatic.com/images?q=tbn:ANd9GcTgseuz1Q9mAaIK9abAnhiRWY9kKlObdjN-QDtH9RECl8RyRJ7LIVF4sCLuZuKOl3g2r5dL
p1393
sVqueryString
p1394
(lp1395
(dp1396
Vname
p1397
g415
sVvalue
p1398
Vtbn:ANd9GcTgseuz1Q9mAaIK9abAnhiRWY9kKlObdjN-QDtH9RECl8RyRJ7LIVF4sCLuZuKOl3g2r5dL
p1399
sasVheaders
p1400
(lp1401
sVheadersSize
p1402
I439
sVbodySize
p1403
I0
sVmethod
p1404
VGET
p1405
sVhttpVersion
p1406
VHTTP/1.1
p1407
ssVtimings
p1408
(dp1409
Vcomment
p1410
g4
sVreceive
p1411
I7
sVsend
p1412
I0
sVssl
p1413
I-1
sVconnect
p1414
I-1
sVdns
p1415
I-1
sVwait
p1416
I41
sVblocked
p1417
I-1
ssVtime
p1418
I48
sVresponse
p1419
(dp1420
Vstatus
p1421
I200
sVcomment
p1422
g4
sVcookies
p1423
(lp1424
sVstatusText
p1425
VOK
p1426
sVcontent
p1427
(dp1428
VmimeType
p1429
Vimage/jpeg
p1430
sVcomment
p1431
g4
sVsize
p1432
I0
ssVheaders
p1433
(lp1434
sVheadersSize
p1435
I407
sVredirectURL
p1436
g4
sVbodySize
p1437
I7725
sVhttpVersion
p1438
VHTTP/1.1
p1439
ssa(dp1440
Vcomment
p1441
g4
sVserverIPAddress
p1442
V216.58.216.206
p1443
sVpageref
p1444
VAlicia Vikander
p1445
sVstartedDateTime
p1446
V2017-04-16T08:12:36.779-05:00
p1447
sVcache
p1448
(dp1449
sVrequest
p1450
(dp1451
Vcomment
p1452
g4
sVcookies
p1453
(lp1454
sVurl
p1455
Vhttps://encrypted-tbn2.gstatic.com/images?q=tbn:ANd9GcTMrAAZKrHcbdglsYN-rQu7PLIoZxnHwTiwprVGkmM3M9xkKhH0lNJqLPwI2Gvza9PdPUSZ
p1456
sVqueryString
p1457
(lp1458
(dp1459
Vname
p1460
g415
sVvalue
p1461
Vtbn:ANd9GcTMrAAZKrHcbdglsYN-rQu7PLIoZxnHwTiwprVGkmM3M9xkKhH0lNJqLPwI2Gvza9PdPUSZ
p1462
sasVheaders
p1463
(lp1464
sVheadersSize
p1465
I439
sVbodySize
p1466
I0
sVmethod
p1467
VGET
p1468
sVhttpVersion
p1469
VHTTP/1.1
p1470
ssVtimings
p1471
(dp1472
Vcomment
p1473
g4
sVreceive
p1474
I0
sVsend
p1475
I0
sVssl
p1476
I-1
sVconnect
p1477
I-1
sVdns
p1478
I-1
sVwait
p1479
I23
sVblocked
p1480
I-1
ssVtime
p1481
I23
sVresponse
p1482
(dp1483
Vstatus
p1484
I200
sVcomment
p1485
g4
sVcookies
p1486
(lp1487
sVstatusText
p1488
VOK
p1489
sVcontent
p1490
(dp1491
VmimeType
p1492
Vimage/jpeg
p1493
sVcomment
p1494
g4
sVsize
p1495
I0
ssVheaders
p1496
(lp1497
sVheadersSize
p1498
I407
sVredirectURL
p1499
g4
sVbodySize
p1500
I5980
sVhttpVersion
p1501
VHTTP/1.1
p1502
ssa(dp1503
Vcomment
p1504
g4
sVserverIPAddress
p1505
V216.58.216.196
p1506
sVpageref
p1507
VAlicia Vikander
p1508
sVstartedDateTime
p1509
V2017-04-16T08:12:36.787-05:00
p1510
sVcache
p1511
(dp1512
sVrequest
p1513
(dp1514
Vcomment
p1515
g4
sVcookies
p1516
(lp1517
sVurl
p1518
Vhttps://www.google.com/gen_204?atyp=i&ct=&cad=&vet=10ahUKEwifjp3shqnTAhWL54MKHUpYDAMQ5W0ITSgJ..s&ei=wm3zWJ-lB4vPjwTKsLEY&zx=1492348356730
p1519
sVqueryString
p1520
(lp1521
(dp1522
Vname
p1523
Vatyp
p1524
sVvalue
p1525
g30
sa(dp1526
Vname
p1527
Vct
p1528
sVvalue
p1529
g4
sa(dp1530
Vname
p1531
Vcad
p1532
sVvalue
p1533
g4
sa(dp1534
Vname
p1535
Vvet
p1536
sVvalue
p1537
V10ahUKEwifjp3shqnTAhWL54MKHUpYDAMQ5W0ITSgJ..s
p1538
sa(dp1539
Vname
p1540
Vei
p1541
sVvalue
p1542
Vwm3zWJ-lB4vPjwTKsLEY
p1543
sa(dp1544
Vname
p1545
Vzx
p1546
sVvalue
p1547
V1492348356730
p1548
sasVheaders
p1549
(lp1550
sVheadersSize
p1551
I654
sVbodySize
p1552
I0
sVmethod
p1553
VGET
p1554
sVhttpVersion
p1555
VHTTP/1.1
p1556
ssVtimings
p1557
(dp1558
Vcomment
p1559
g4
sVreceive
p1560
I0
sVsend
p1561
I0
sVssl
p1562
I-1
sVconnect
p1563
I-1
sVdns
p1564
I-1
sVwait
p1565
I29
sVblocked
p1566
I-1
ssVtime
p1567
I30
sVresponse
p1568
(dp1569
Vstatus
p1570
I204
sVcomment
p1571
g4
sVcookies
p1572
(lp1573
sVstatusText
p1574
VNo Content
p1575
sVcontent
p1576
(dp1577
VmimeType
p1578
Vtext/html; charset=UTF-8
p1579
sVcomment
p1580
g4
sVsize
p1581
I0
ssVheaders
p1582
(lp1583
sVheadersSize
p1584
I248
sVredirectURL
p1585
g4
sVbodySize
p1586
I0
sVhttpVersion
p1587
VHTTP/1.1
p1588
ssa(dp1589
Vcomment
p1590
g4
sVserverIPAddress
p1591
V216.58.216.196
p1592
sVpageref
p1593
VAlicia Vikander
p1594
sVstartedDateTime
p1595
V2017-04-16T08:12:36.790-05:00
p1596
sVcache
p1597
(dp1598
sVrequest
p1599
(dp1600
Vcomment
p1601
g4
sVcookies
p1602
(lp1603
sVurl
p1604
Vhttps://www.google.com/gen_204?atyp=i&ct=&cad=&vet=10ahUKEwifjp3shqnTAhWL54MKHUpYDAMQlEsIkwEoAzAc..s&ei=wm3zWJ-lB4vPjwTKsLEY&zx=1492348356772
p1605
sVqueryString
p1606
(lp1607
(dp1608
Vname
p1609
Vatyp
p1610
sVvalue
p1611
g30
sa(dp1612
Vname
p1613
Vct
p1614
sVvalue
p1615
g4
sa(dp1616
Vname
p1617
Vcad
p1618
sVvalue
p1619
g4
sa(dp1620
Vname
p1621
Vvet
p1622
sVvalue
p1623
V10ahUKEwifjp3shqnTAhWL54MKHUpYDAMQlEsIkwEoAzAc..s
p1624
sa(dp1625
Vname
p1626
Vei
p1627
sVvalue
p1628
Vwm3zWJ-lB4vPjwTKsLEY
p1629
sa(dp1630
Vname
p1631
Vzx
p1632
sVvalue
p1633
V1492348356772
p1634
sasVheaders
p1635
(lp1636
sVheadersSize
p1637
I658
sVbodySize
p1638
I0
sVmethod
p1639
VGET
p1640
sVhttpVersion
p1641
VHTTP/1.1
p1642
ssVtimings
p1643
(dp1644
Vcomment
p1645
g4
sVreceive
p1646
I0
sVsend
p1647
I0
sVssl
p1648
I-1
sVconnect
p1649
I-1
sVdns
p1650
I-1
sVwait
p1651
I34
sVblocked
p1652
I-1
ssVtime
p1653
I34
sVresponse
p1654
(dp1655
Vstatus
p1656
I204
sVcomment
p1657
g4
sVcookies
p1658
(lp1659
sVstatusText
p1660
VNo Content
p1661
sVcontent
p1662
(dp1663
VmimeType
p1664
Vtext/html; charset=UTF-8
p1665
sVcomment
p1666
g4
sVsize
p1667
I0
ssVheaders
p1668
(lp1669
sVheadersSize
p1670
I248
sVredirectURL
p1671
g4
sVbodySize
p1672
I0
sVhttpVersion
p1673
VHTTP/1.1
p1674
ssa(dp1675
Vcomment
p1676
g4
sVserverIPAddress
p1677
V216.58.216.196
p1678
sVpageref
p1679
VAlicia Vikander
p1680
sVstartedDateTime
p1681
V2017-04-16T08:12:36.790-05:00
p1682
sVcache
p1683
(dp1684
sVrequest
p1685
(dp1686
Vcomment
p1687
g4
sVcookies
p1688
(lp1689
sVurl
p1690
Vhttps://www.google.com/gen_204?atyp=i&ct=&cad=&vet=10ahUKEwifjp3shqnTAhWL54MKHUpYDAMQlEsIlQEoBDAc..s&ei=wm3zWJ-lB4vPjwTKsLEY&zx=1492348356774
p1691
sVqueryString
p1692
(lp1693
(dp1694
Vname
p1695
Vatyp
p1696
sVvalue
p1697
g30
sa(dp1698
Vname
p1699
Vct
p1700
sVvalue
p1701
g4
sa(dp1702
Vname
p1703
Vcad
p1704
sVvalue
p1705
g4
sa(dp1706
Vname
p1707
Vvet
p1708
sVvalue
p1709
V10ahUKEwifjp3shqnTAhWL54MKHUpYDAMQlEsIlQEoBDAc..s
p1710
sa(dp1711
Vname
p1712
Vei
p1713
sVvalue
p1714
Vwm3zWJ-lB4vPjwTKsLEY
p1715
sa(dp1716
Vname
p1717
Vzx
p1718
sVvalue
p1719
V1492348356774
p1720
sasVheaders
p1721
(lp1722
sVheadersSize
p1723
I658
sVbodySize
p1724
I0
sVmethod
p1725
VGET
p1726
sVhttpVersion
p1727
VHTTP/1.1
p1728
ssVtimings
p1729
(dp1730
Vcomment
p1731
g4
sVreceive
p1732
I0
sVsend
p1733
I0
sVssl
p1734
I-1
sVconnect
p1735
I-1
sVdns
p1736
I-1
sVwait
p1737
I34
sVblocked
p1738
I-1
ssVtime
p1739
I34
sVresponse
p1740
(dp1741
Vstatus
p1742
I204
sVcomment
p1743
g4
sVcookies
p1744
(lp1745
sVstatusText
p1746
VNo Content
p1747
sVcontent
p1748
(dp1749
VmimeType
p1750
Vtext/html; charset=UTF-8
p1751
sVcomment
p1752
g4
sVsize
p1753
I0
ssVheaders
p1754
(lp1755
sVheadersSize
p1756
I248
sVredirectURL
p1757
g4
sVbodySize
p1758
I0
sVhttpVersion
p1759
VHTTP/1.1
p1760
ssa(dp1761
Vcomment
p1762
g4
sVserverIPAddress
p1763
V216.58.216.196
p1764
sVpageref
p1765
VAlicia Vikander
p1766
sVstartedDateTime
p1767
V2017-04-16T08:12:36.793-05:00
p1768
sVcache
p1769
(dp1770
sVrequest
p1771
(dp1772
Vcomment
p1773
g4
sVcookies
p1774
(lp1775
sVurl
p1776
Vhttps://www.google.com/gen_204?atyp=i&ct=&cad=&vet=10ahUKEwifjp3shqnTAhWL54MKHUpYDAMQlEsIlwEoBTAc..s&ei=wm3zWJ-lB4vPjwTKsLEY&zx=1492348356776
p1777
sVqueryString
p1778
(lp1779
(dp1780
Vname
p1781
Vatyp
p1782
sVvalue
p1783
g30
sa(dp1784
Vname
p1785
Vct
p1786
sVvalue
p1787
g4
sa(dp1788
Vname
p1789
Vcad
p1790
sVvalue
p1791
g4
sa(dp1792
Vname
p1793
Vvet
p1794
sVvalue
p1795
V10ahUKEwifjp3shqnTAhWL54MKHUpYDAMQlEsIlwEoBTAc..s
p1796
sa(dp1797
Vname
p1798
Vei
p1799
sVvalue
p1800
Vwm3zWJ-lB4vPjwTKsLEY
p1801
sa(dp1802
Vname
p1803
Vzx
p1804
sVvalue
p1805
V1492348356776
p1806
sasVheaders
p1807
(lp1808
sVheadersSize
p1809
I658
sVbodySize
p1810
I0
sVmethod
p1811
VGET
p1812
sVhttpVersion
p1813
VHTTP/1.1
p1814
ssVtimings
p1815
(dp1816
Vcomment
p1817
g4
sVreceive
p1818
I0
sVsend
p1819
I0
sVssl
p1820
I-1
sVconnect
p1821
I-1
sVdns
p1822
I-1
sVwait
p1823
I32
sVblocked
p1824
I-1
ssVtime
p1825
I32
sVresponse
p1826
(dp1827
Vstatus
p1828
I204
sVcomment
p1829
g4
sVcookies
p1830
(lp1831
sVstatusText
p1832
VNo Content
p1833
sVcontent
p1834
(dp1835
VmimeType
p1836
Vtext/html; charset=UTF-8
p1837
sVcomment
p1838
g4
sVsize
p1839
I0
ssVheaders
p1840
(lp1841
sVheadersSize
p1842
I248
sVredirectURL
p1843
g4
sVbodySize
p1844
I0
sVhttpVersion
p1845
VHTTP/1.1
p1846
ssa(dp1847
Vcomment
p1848
g4
sVserverIPAddress
p1849
V216.58.216.196
p1850
sVpageref
p1851
VAlicia Vikander
p1852
sVstartedDateTime
p1853
V2017-04-16T08:12:36.802-05:00
p1854
sVcache
p1855
(dp1856
sVrequest
p1857
(dp1858
Vcomment
p1859
g4
sVcookies
p1860
(lp1861
sVurl
p1862
Vhttps://www.google.com/gen_204?atyp=i&ct=&cad=&vet=10ahUKEwifjp3shqnTAhWL54MKHUpYDAMQ5W0IQSgF..s&ei=wm3zWJ-lB4vPjwTKsLEY&zx=1492348356722
p1863
sVqueryString
p1864
(lp1865
(dp1866
Vname
p1867
Vatyp
p1868
sVvalue
p1869
g30
sa(dp1870
Vname
p1871
Vct
p1872
sVvalue
p1873
g4
sa(dp1874
Vname
p1875
Vcad
p1876
sVvalue
p1877
g4
sa(dp1878
Vname
p1879
Vvet
p1880
sVvalue
p1881
V10ahUKEwifjp3shqnTAhWL54MKHUpYDAMQ5W0IQSgF..s
p1882
sa(dp1883
Vname
p1884
Vei
p1885
sVvalue
p1886
Vwm3zWJ-lB4vPjwTKsLEY
p1887
sa(dp1888
Vname
p1889
Vzx
p1890
sVvalue
p1891
V1492348356722
p1892
sasVheaders
p1893
(lp1894
sVheadersSize
p1895
I654
sVbodySize
p1896
I0
sVmethod
p1897
VGET
p1898
sVhttpVersion
p1899
VHTTP/1.1
p1900
ssVtimings
p1901
(dp1902
Vcomment
p1903
g4
sVreceive
p1904
I0
sVsend
p1905
I0
sVssl
p1906
I28
sVconnect
p1907
I78
sVdns
p1908
I0
sVwait
p1909
I29
sVblocked
p1910
I0
ssVtime
p1911
I108
sVresponse
p1912
(dp1913
Vstatus
p1914
I204
sVcomment
p1915
g4
sVcookies
p1916
(lp1917
sVstatusText
p1918
VNo Content
p1919
sVcontent
p1920
(dp1921
VmimeType
p1922
Vtext/html; charset=UTF-8
p1923
sVcomment
p1924
g4
sVsize
p1925
I0
ssVheaders
p1926
(lp1927
sVheadersSize
p1928
I248
sVredirectURL
p1929
g4
sVbodySize
p1930
I0
sVhttpVersion
p1931
VHTTP/1.1
p1932
ssa(dp1933
Vcomment
p1934
g4
sVserverIPAddress
p1935
V216.58.216.196
p1936
sVpageref
p1937
VAlicia Vikander
p1938
sVstartedDateTime
p1939
V2017-04-16T08:12:36.807-05:00
p1940
sVcache
p1941
(dp1942
sVrequest
p1943
(dp1944
Vcomment
p1945
g4
sVcookies
p1946
(lp1947
sVurl
p1948
Vhttps://www.google.com/gen_204?atyp=i&ct=&cad=&vet=10ahUKEwifjp3shqnTAhWL54MKHUpYDAMQ5W0IOygD..s&ei=wm3zWJ-lB4vPjwTKsLEY&zx=1492348356719
p1949
sVqueryString
p1950
(lp1951
(dp1952
Vname
p1953
Vatyp
p1954
sVvalue
p1955
g30
sa(dp1956
Vname
p1957
Vct
p1958
sVvalue
p1959
g4
sa(dp1960
Vname
p1961
Vcad
p1962
sVvalue
p1963
g4
sa(dp1964
Vname
p1965
Vvet
p1966
sVvalue
p1967
V10ahUKEwifjp3shqnTAhWL54MKHUpYDAMQ5W0IOygD..s
p1968
sa(dp1969
Vname
p1970
Vei
p1971
sVvalue
p1972
Vwm3zWJ-lB4vPjwTKsLEY
p1973
sa(dp1974
Vname
p1975
Vzx
p1976
sVvalue
p1977
V1492348356719
p1978
sasVheaders
p1979
(lp1980
sVheadersSize
p1981
I654
sVbodySize
p1982
I0
sVmethod
p1983
VGET
p1984
sVhttpVersion
p1985
VHTTP/1.1
p1986
ssVtimings
p1987
(dp1988
Vcomment
p1989
g4
sVreceive
p1990
I0
sVsend
p1991
I0
sVssl
p1992
I28
sVconnect
p1993
I86
sVdns
p1994
I0
sVwait
p1995
I44
sVblocked
p1996
I0
ssVtime
p1997
I130
sVresponse
p1998
(dp1999
Vstatus
p2000
I204
sVcomment
p2001
g4
sVcookies
p2002
(lp2003
sVstatusText
p2004
VNo Content
p2005
sVcontent
p2006
(dp2007
VmimeType
p2008
Vtext/html; charset=UTF-8
p2009
sVcomment
p2010
g4
sVsize
p2011
I0
ssVheaders
p2012
(lp2013
sVheadersSize
p2014
I248
sVredirectURL
p2015
g4
sVbodySize
p2016
I0
sVhttpVersion
p2017
VHTTP/1.1
p2018
ssa(dp2019
Vcomment
p2020
g4
sVserverIPAddress
p2021
V216.58.216.206
p2022
sVpageref
p2023
VAlicia Vikander
p2024
sVstartedDateTime
p2025
V2017-04-16T08:12:36.817-05:00
p2026
sVcache
p2027
(dp2028
sVrequest
p2029
(dp2030
Vcomment
p2031
g4
sVcookies
p2032
(lp2033
sVurl
p2034
Vhttps://encrypted-tbn2.gstatic.com/images?q=tbn:ANd9GcSTLB5XKwN02TbFoSYfmdels_ZN3J1pIuzDu8rJYasxu-zOg4A4clQw2jAzFuL_STxoEoDG
p2035
sVqueryString
p2036
(lp2037
(dp2038
Vname
p2039
g415
sVvalue
p2040
Vtbn:ANd9GcSTLB5XKwN02TbFoSYfmdels_ZN3J1pIuzDu8rJYasxu-zOg4A4clQw2jAzFuL_STxoEoDG
p2041
sasVheaders
p2042
(lp2043
sVheadersSize
p2044
I439
sVbodySize
p2045
I0
sVmethod
p2046
VGET
p2047
sVhttpVersion
p2048
VHTTP/1.1
p2049
ssVtimings
p2050
(dp2051
Vcomment
p2052
g4
sVreceive
p2053
I0
sVsend
p2054
I0
sVssl
p2055
I-1
sVconnect
p2056
I-1
sVdns
p2057
I-1
sVwait
p2058
I33
sVblocked
p2059
I-1
ssVtime
p2060
I34
sVresponse
p2061
(dp2062
Vstatus
p2063
I200
sVcomment
p2064
g4
sVcookies
p2065
(lp2066
sVstatusText
p2067
VOK
p2068
sVcontent
p2069
(dp2070
VmimeType
p2071
Vimage/jpeg
p2072
sVcomment
p2073
g4
sVsize
p2074
I0
ssVheaders
p2075
(lp2076
sVheadersSize
p2077
I407
sVredirectURL
p2078
g4
sVbodySize
p2079
I5675
sVhttpVersion
p2080
VHTTP/1.1
p2081
ssa(dp2082
Vcomment
p2083
g4
sVserverIPAddress
p2084
V216.58.216.196
p2085
sVpageref
p2086
VAlicia Vikander
p2087
sVstartedDateTime
p2088
V2017-04-16T08:12:36.818-05:00
p2089
sVcache
p2090
(dp2091
sVrequest
p2092
(dp2093
Vcomment
p2094
g4
sVcookies
p2095
(lp2096
sVurl
p2097
Vhttps://www.google.com/gen_204?atyp=i&ct=&cad=&vet=10ahUKEwifjp3shqnTAhWL54MKHUpYDAMQlEsImQEoBjAc..s&ei=wm3zWJ-lB4vPjwTKsLEY&zx=1492348356778
p2098
sVqueryString
p2099
(lp2100
(dp2101
Vname
p2102
Vatyp
p2103
sVvalue
p2104
g30
sa(dp2105
Vname
p2106
Vct
p2107
sVvalue
p2108
g4
sa(dp2109
Vname
p2110
Vcad
p2111
sVvalue
p2112
g4
sa(dp2113
Vname
p2114
Vvet
p2115
sVvalue
p2116
V10ahUKEwifjp3shqnTAhWL54MKHUpYDAMQlEsImQEoBjAc..s
p2117
sa(dp2118
Vname
p2119
Vei
p2120
sVvalue
p2121
Vwm3zWJ-lB4vPjwTKsLEY
p2122
sa(dp2123
Vname
p2124
Vzx
p2125
sVvalue
p2126
V1492348356778
p2127
sasVheaders
p2128
(lp2129
sVheadersSize
p2130
I658
sVbodySize
p2131
I0
sVmethod
p2132
VGET
p2133
sVhttpVersion
p2134
VHTTP/1.1
p2135
ssVtimings
p2136
(dp2137
Vcomment
p2138
g4
sVreceive
p2139
I0
sVsend
p2140
I0
sVssl
p2141
I-1
sVconnect
p2142
I-1
sVdns
p2143
I-1
sVwait
p2144
I33
sVblocked
p2145
I-1
ssVtime
p2146
I33
sVresponse
p2147
(dp2148
Vstatus
p2149
I204
sVcomment
p2150
g4
sVcookies
p2151
(lp2152
sVstatusText
p2153
VNo Content
p2154
sVcontent
p2155
(dp2156
VmimeType
p2157
Vtext/html; charset=UTF-8
p2158
sVcomment
p2159
g4
sVsize
p2160
I0
ssVheaders
p2161
(lp2162
sVheadersSize
p2163
I248
sVredirectURL
p2164
g4
sVbodySize
p2165
I0
sVhttpVersion
p2166
VHTTP/1.1
p2167
ssa(dp2168
Vcomment
p2169
g4
sVserverIPAddress
p2170
V216.58.216.196
p2171
sVpageref
p2172
VAlicia Vikander
p2173
sVstartedDateTime
p2174
V2017-04-16T08:12:36.826-05:00
p2175
sVcache
p2176
(dp2177
sVrequest
p2178
(dp2179
Vcomment
p2180
g4
sVcookies
p2181
(lp2182
sVurl
p2183
Vhttps://www.google.com/gen_204?atyp=i&ct=&cad=&vet=10ahUKEwifjp3shqnTAhWL54MKHUpYDAMQlEsImwEoBzAc..s&ei=wm3zWJ-lB4vPjwTKsLEY&zx=1492348356780
p2184
sVqueryString
p2185
(lp2186
(dp2187
Vname
p2188
Vatyp
p2189
sVvalue
p2190
g30
sa(dp2191
Vname
p2192
Vct
p2193
sVvalue
p2194
g4
sa(dp2195
Vname
p2196
Vcad
p2197
sVvalue
p2198
g4
sa(dp2199
Vname
p2200
Vvet
p2201
sVvalue
p2202
V10ahUKEwifjp3shqnTAhWL54MKHUpYDAMQlEsImwEoBzAc..s
p2203
sa(dp2204
Vname
p2205
Vei
p2206
sVvalue
p2207
Vwm3zWJ-lB4vPjwTKsLEY
p2208
sa(dp2209
Vname
p2210
Vzx
p2211
sVvalue
p2212
V1492348356780
p2213
sasVheaders
p2214
(lp2215
sVheadersSize
p2216
I658
sVbodySize
p2217
I0
sVmethod
p2218
VGET
p2219
sVhttpVersion
p2220
VHTTP/1.1
p2221
ssVtimings
p2222
(dp2223
Vcomment
p2224
g4
sVreceive
p2225
I0
sVsend
p2226
I0
sVssl
p2227
I-1
sVconnect
p2228
I-1
sVdns
p2229
I-1
sVwait
p2230
I25
sVblocked
p2231
I-1
ssVtime
p2232
I25
sVresponse
p2233
(dp2234
Vstatus
p2235
I204
sVcomment
p2236
g4
sVcookies
p2237
(lp2238
sVstatusText
p2239
VNo Content
p2240
sVcontent
p2241
(dp2242
VmimeType
p2243
Vtext/html; charset=UTF-8
p2244
sVcomment
p2245
g4
sVsize
p2246
I0
ssVheaders
p2247
(lp2248
sVheadersSize
p2249
I248
sVredirectURL
p2250
g4
sVbodySize
p2251
I0
sVhttpVersion
p2252
VHTTP/1.1
p2253
ssa(dp2254
Vcomment
p2255
g4
sVserverIPAddress
p2256
V216.58.216.196
p2257
sVpageref
p2258
VAlicia Vikander
p2259
sVstartedDateTime
p2260
V2017-04-16T08:12:36.826-05:00
p2261
sVcache
p2262
(dp2263
sVrequest
p2264
(dp2265
Vcomment
p2266
g4
sVcookies
p2267
(lp2268
sVurl
p2269
Vhttps://www.google.com/gen_204?atyp=i&ct=&cad=&vet=10ahUKEwifjp3shqnTAhWL54MKHUpYDAMQvW4InQEoCDAc..s&ei=wm3zWJ-lB4vPjwTKsLEY&zx=1492348356783
p2270
sVqueryString
p2271
(lp2272
(dp2273
Vname
p2274
Vatyp
p2275
sVvalue
p2276
g30
sa(dp2277
Vname
p2278
Vct
p2279
sVvalue
p2280
g4
sa(dp2281
Vname
p2282
Vcad
p2283
sVvalue
p2284
g4
sa(dp2285
Vname
p2286
Vvet
p2287
sVvalue
p2288
V10ahUKEwifjp3shqnTAhWL54MKHUpYDAMQvW4InQEoCDAc..s
p2289
sa(dp2290
Vname
p2291
Vei
p2292
sVvalue
p2293
Vwm3zWJ-lB4vPjwTKsLEY
p2294
sa(dp2295
Vname
p2296
Vzx
p2297
sVvalue
p2298
V1492348356783
p2299
sasVheaders
p2300
(lp2301
sVheadersSize
p2302
I658
sVbodySize
p2303
I0
sVmethod
p2304
VGET
p2305
sVhttpVersion
p2306
VHTTP/1.1
p2307
ssVtimings
p2308
(dp2309
Vcomment
p2310
g4
sVreceive
p2311
I0
sVsend
p2312
I0
sVssl
p2313
I-1
sVconnect
p2314
I-1
sVdns
p2315
I-1
sVwait
p2316
I24
sVblocked
p2317
I-1
ssVtime
p2318
I25
sVresponse
p2319
(dp2320
Vstatus
p2321
I204
sVcomment
p2322
g4
sVcookies
p2323
(lp2324
sVstatusText
p2325
VNo Content
p2326
sVcontent
p2327
(dp2328
VmimeType
p2329
Vtext/html; charset=UTF-8
p2330
sVcomment
p2331
g4
sVsize
p2332
I0
ssVheaders
p2333
(lp2334
sVheadersSize
p2335
I248
sVredirectURL
p2336
g4
sVbodySize
p2337
I0
sVhttpVersion
p2338
VHTTP/1.1
p2339
ssa(dp2340
Vcomment
p2341
g4
sVserverIPAddress
p2342
V216.58.216.196
p2343
sVpageref
p2344
VAlicia Vikander
p2345
sVstartedDateTime
p2346
V2017-04-16T08:12:36.844-05:00
p2347
sVcache
p2348
(dp2349
sVrequest
p2350
(dp2351
Vcomment
p2352
g4
sVcookies
p2353
(lp2354
sVurl
p2355
Vhttps://www.google.com/async/ampfp?vet=10ahUKEwifjp3shqnTAhWL54MKHUpYDAMQtZoBCJwC..i&ei=wm3zWJ-lB4vPjwTKsLEY&yv=2&async=_id:ampfp-async,_pms:qs
p2356
sVqueryString
p2357
(lp2358
(dp2359
Vname
p2360
Vvet
p2361
sVvalue
p2362
V10ahUKEwifjp3shqnTAhWL54MKHUpYDAMQtZoBCJwC..i
p2363
sa(dp2364
Vname
p2365
Vei
p2366
sVvalue
p2367
Vwm3zWJ-lB4vPjwTKsLEY
p2368
sa(dp2369
Vname
p2370
Vyv
p2371
sVvalue
p2372
g64
sa(dp2373
Vname
p2374
Vasync
p2375
sVvalue
p2376
V_id:ampfp-async,_pms:qs
p2377
sasVheaders
p2378
(lp2379
sVheadersSize
p2380
I660
sVbodySize
p2381
I0
sVmethod
p2382
VGET
p2383
sVhttpVersion
p2384
VHTTP/1.1
p2385
ssVtimings
p2386
(dp2387
Vcomment
p2388
g4
sVreceive
p2389
I1
sVsend
p2390
I0
sVssl
p2391
I-1
sVconnect
p2392
I-1
sVdns
p2393
I-1
sVwait
p2394
I50
sVblocked
p2395
I-1
ssVtime
p2396
I51
sVresponse
p2397
(dp2398
Vstatus
p2399
I200
sVcomment
p2400
g4
sVcookies
p2401
(lp2402
sVstatusText
p2403
VOK
p2404
sVcontent
p2405
(dp2406
VmimeType
p2407
Vtext/html; charset=UTF-8
p2408
sVcomment
p2409
g4
sVsize
p2410
I0
ssVheaders
p2411
(lp2412
sVheadersSize
p2413
I383
sVredirectURL
p2414
g4
sVbodySize
p2415
I4527
sVhttpVersion
p2416
VHTTP/1.1
p2417
ssa(dp2418
Vcomment
p2419
g4
sVserverIPAddress
p2420
V216.58.216.193
p2421
sVpageref
p2422
VAlicia Vikander
p2423
sVstartedDateTime
p2424
V2017-04-16T08:12:36.845-05:00
p2425
sVcache
p2426
(dp2427
sVrequest
p2428
(dp2429
Vcomment
p2430
g4
sVcookies
p2431
(lp2432
sVurl
p2433
Vhttps://cdn.ampproject.org/preconnect.gif?0.9412598416781233
p2434
sVqueryString
p2435
(lp2436
(dp2437
Vname
p2438
V0.9412598416781233
p2439
sVvalue
p2440
g4
sasVheaders
p2441
(lp2442
sVheadersSize
p2443
I375
sVbodySize
p2444
I0
sVmethod
p2445
VGET
p2446
sVhttpVersion
p2447
VHTTP/1.1
p2448
ssVtimings
p2449
(dp2450
Vcomment
p2451
g4
sVreceive
p2452
I0
sVsend
p2453
I0
sVssl
p2454
I-1
sVconnect
p2455
I-1
sVdns
p2456
I-1
sVwait
p2457
I45
sVblocked
p2458
I-1
ssVtime
p2459
I45
sVresponse
p2460
(dp2461
Vstatus
p2462
I200
sVcomment
p2463
g4
sVcookies
p2464
(lp2465
sVstatusText
p2466
VOK
p2467
sVcontent
p2468
(dp2469
VmimeType
p2470
Vimage/gif
p2471
sVcomment
p2472
g4
sVsize
p2473
I0
ssVheaders
p2474
(lp2475
sVheadersSize
p2476
I826
sVredirectURL
p2477
g4
sVbodySize
p2478
I37
sVhttpVersion
p2479
VHTTP/1.1
p2480
ssa(dp2481
Vcomment
p2482
g4
sVserverIPAddress
p2483
V216.58.216.206
p2484
sVpageref
p2485
VAlicia Vikander
p2486
sVstartedDateTime
p2487
V2017-04-16T08:12:36.864-05:00
p2488
sVcache
p2489
(dp2490
sVrequest
p2491
(dp2492
Vcomment
p2493
g4
sVcookies
p2494
(lp2495
sVurl
p2496
Vhttps://encrypted-tbn1.gstatic.com/images?q=tbn:ANd9GcRXNwlXofcn666zSXiIwNOlRNzjBOawDmDcSGaPlABlmM22K-U3PSapOQRHfQ
p2497
sVqueryString
p2498
(lp2499
(dp2500
Vname
p2501
g415
sVvalue
p2502
Vtbn:ANd9GcRXNwlXofcn666zSXiIwNOlRNzjBOawDmDcSGaPlABlmM22K-U3PSapOQRHfQ
p2503
sasVheaders
p2504
(lp2505
sVheadersSize
p2506
I429
sVbodySize
p2507
I0
sVmethod
p2508
VGET
p2509
sVhttpVersion
p2510
VHTTP/1.1
p2511
ssVtimings
p2512
(dp2513
Vcomment
p2514
g4
sVreceive
p2515
I0
sVsend
p2516
I0
sVssl
p2517
I-1
sVconnect
p2518
I-1
sVdns
p2519
I-1
sVwait
p2520
I23
sVblocked
p2521
I-1
ssVtime
p2522
I24
sVresponse
p2523
(dp2524
Vstatus
p2525
I200
sVcomment
p2526
g4
sVcookies
p2527
(lp2528
sVstatusText
p2529
VOK
p2530
sVcontent
p2531
(dp2532
VmimeType
p2533
Vimage/jpeg
p2534
sVcomment
p2535
g4
sVsize
p2536
I0
ssVheaders
p2537
(lp2538
sVheadersSize
p2539
I427
sVredirectURL
p2540
g4
sVbodySize
p2541
I4161
sVhttpVersion
p2542
VHTTP/1.1
p2543
ssa(dp2544
Vcomment
p2545
g4
sVserverIPAddress
p2546
V216.58.216.196
p2547
sVpageref
p2548
VAlicia Vikander
p2549
sVstartedDateTime
p2550
V2017-04-16T08:12:36.984-05:00
p2551
sVcache
p2552
(dp2553
sVrequest
p2554
(dp2555
Vcomment
p2556
g4
sVcookies
p2557
(lp2558
sVurl
p2559
Vhttps://www.google.com/async/log_amp_item_set?vet=10ahUKEwjGxYfthqnTAhVl2IMKHQY0BLQQooQBCAE..i&ei=wm3zWJ-lB4vPjwTKsLEY&yv=2&async=num_items:3,_fmt:jspb
p2560
sVqueryString
p2561
(lp2562
(dp2563
Vname
p2564
Vvet
p2565
sVvalue
p2566
V10ahUKEwjGxYfthqnTAhVl2IMKHQY0BLQQooQBCAE..i
p2567
sa(dp2568
Vname
p2569
Vei
p2570
sVvalue
p2571
Vwm3zWJ-lB4vPjwTKsLEY
p2572
sa(dp2573
Vname
p2574
Vyv
p2575
sVvalue
p2576
g64
sa(dp2577
Vname
p2578
Vasync
p2579
sVvalue
p2580
Vnum_items:3,_fmt:jspb
p2581
sasVheaders
p2582
(lp2583
sVheadersSize
p2584
I668
sVbodySize
p2585
I0
sVmethod
p2586
VGET
p2587
sVhttpVersion
p2588
VHTTP/1.1
p2589
ssVtimings
p2590
(dp2591
Vcomment
p2592
g4
sVreceive
p2593
I0
sVsend
p2594
I0
sVssl
p2595
I-1
sVconnect
p2596
I-1
sVdns
p2597
I-1
sVwait
p2598
I37
sVblocked
p2599
I-1
ssVtime
p2600
I37
sVresponse
p2601
(dp2602
Vstatus
p2603
I200
sVcomment
p2604
g4
sVcookies
p2605
(lp2606
sVstatusText
p2607
VOK
p2608
sVcontent
p2609
(dp2610
VmimeType
p2611
Vapplication/json; charset=UTF-8
p2612
sVcomment
p2613
g4
sVsize
p2614
I0
ssVheaders
p2615
(lp2616
sVheadersSize
p2617
I417
sVredirectURL
p2618
g4
sVbodySize
p2619
I148
sVhttpVersion
p2620
VHTTP/1.1
p2621
ssa(dp2622
Vcomment
p2623
g4
sVserverIPAddress
p2624
V216.58.216.196
p2625
sVpageref
p2626
VAlicia Vikander
p2627
sVstartedDateTime
p2628
V2017-04-16T08:12:37.009-05:00
p2629
sVcache
p2630
(dp2631
sVrequest
p2632
(dp2633
Vcomment
p2634
g4
sVcookies
p2635
(lp2636
sVurl
p2637
Vhttps://www.google.com/gen_204?s=web&atyp=csi&ei=wm3zWJ-lB4vPjwTKsLEY&imc=50&imn=50&imp=26&adh=&xjs=init.35.14.sb_mob.27.dvl.4.c.1.mbsf.1.foot.1&ima=24&rt=prt.739,iml.908,xjsls.740,dcl.809,qiml.1109,xjses.955,xjsee.1113,xjs.1114,ol.1776,aft.908,wsrt.139,cst.0,dnst.0,rqst.792,rspt.667,rqstt.5,unt.5,cstt.5,dit.909
p2638
sVqueryString
p2639
(lp2640
(dp2641
Vname
p2642
g57
sVvalue
p2643
Vweb
p2644
sa(dp2645
Vname
p2646
Vatyp
p2647
sVvalue
p2648
Vcsi
p2649
sa(dp2650
Vname
p2651
Vei
p2652
sVvalue
p2653
Vwm3zWJ-lB4vPjwTKsLEY
p2654
sa(dp2655
Vname
p2656
Vimc
p2657
sVvalue
p2658
V50
p2659
sa(dp2660
Vname
p2661
Vimn
p2662
sVvalue
p2663
V50
p2664
sa(dp2665
Vname
p2666
Vimp
p2667
sVvalue
p2668
V26
p2669
sa(dp2670
Vname
p2671
Vadh
p2672
sVvalue
p2673
g4
sa(dp2674
Vname
p2675
Vxjs
p2676
sVvalue
p2677
Vinit.35.14.sb_mob.27.dvl.4.c.1.mbsf.1.foot.1
p2678
sa(dp2679
Vname
p2680
Vima
p2681
sVvalue
p2682
V24
p2683
sa(dp2684
Vname
p2685
Vrt
p2686
sVvalue
p2687
Vprt.739,iml.908,xjsls.740,dcl.809,qiml.1109,xjses.955,xjsee.1113,xjs.1114,ol.1776,aft.908,wsrt.139,cst.0,dnst.0,rqst.792,rspt.667,rqstt.5,unt.5,cstt.5,dit.909
p2688
sasVheaders
p2689
(lp2690
sVheadersSize
p2691
I830
sVbodySize
p2692
I0
sVmethod
p2693
VGET
p2694
sVhttpVersion
p2695
VHTTP/1.1
p2696
ssVtimings
p2697
(dp2698
Vcomment
p2699
g4
sVreceive
p2700
I0
sVsend
p2701
I0
sVssl
p2702
I-1
sVconnect
p2703
I-1
sVdns
p2704
I-1
sVwait
p2705
I25
sVblocked
p2706
I-1
ssVtime
p2707
I25
sVresponse
p2708
(dp2709
Vstatus
p2710
I204
sVcomment
p2711
g4
sVcookies
p2712
(lp2713
sVstatusText
p2714
VNo Content
p2715
sVcontent
p2716
(dp2717
VmimeType
p2718
Vtext/html; charset=UTF-8
p2719
sVcomment
p2720
g4
sVsize
p2721
I0
ssVheaders
p2722
(lp2723
sVheadersSize
p2724
I248
sVredirectURL
p2725
g4
sVbodySize
p2726
I0
sVhttpVersion
p2727
VHTTP/1.1
p2728
ssa(dp2729
Vcomment
p2730
g4
sVserverIPAddress
p2731
V216.58.216.196
p2732
sVpageref
p2733
VAlicia Vikander
p2734
sVstartedDateTime
p2735
V2017-04-16T08:12:38.807-05:00
p2736
sVcache
p2737
(dp2738
sVrequest
p2739
(dp2740
Vcomment
p2741
g4
sVcookies
p2742
(lp2743
sVurl
p2744
Vhttps://www.google.com/gen_204?atyp=i&ct=slh&cad=&ei=sm3zWJi7CYeLjwSpv7fgAQ&m=V&t=C&s=1&v=2&pv=0.28279887928936276&me=1:1492348340803,x:1,V,0,0,1280,944:0,N,1,sm3zWJi7CYeLjwSpv7fgAQ:0,R,1,24,8,155,1249,1079:0,R,1,25,8,155,1249,1079:0,R,1,29,8,168,1249,40:0,R,1,46,8,267,1249,169:0,R,1,49,0,283,1265,188:0,R,1,89,8,453,1249,40:0,R,1,90,24,453,1217,40:0,R,1,96,8,509,1249,20:0,R,1,111,8,549,1249,310:0,R,1,112,0,594,1265,285:0,R,1,141,8,904,1249,263:0,R,1,142,0,904,1265,283:3,B,3636:13749,e,U&zx=1492348358806
p2745
sVqueryString
p2746
(lp2747
(dp2748
Vname
p2749
Vatyp
p2750
sVvalue
p2751
g30
sa(dp2752
Vname
p2753
Vct
p2754
sVvalue
p2755
Vslh
p2756
sa(dp2757
Vname
p2758
Vcad
p2759
sVvalue
p2760
g4
sa(dp2761
Vname
p2762
Vei
p2763
sVvalue
p2764
Vsm3zWJi7CYeLjwSpv7fgAQ
p2765
sa(dp2766
Vname
p2767
g47
sVvalue
p2768
g49
sa(dp2769
Vname
p2770
g52
sVvalue
p2771
g54
sa(dp2772
Vname
p2773
g57
sVvalue
p2774
g59
sa(dp2775
Vname
p2776
g62
sVvalue
p2777
g64
sa(dp2778
Vname
p2779
Vpv
p2780
sVvalue
p2781
V0.28279887928936276
p2782
sa(dp2783
Vname
p2784
Vme
p2785
sVvalue
p2786
V1:1492348340803,x:1,V,0,0,1280,944:0,N,1,sm3zWJi7CYeLjwSpv7fgAQ:0,R,1,24,8,155,1249,1079:0,R,1,25,8,155,1249,1079:0,R,1,29,8,168,1249,40:0,R,1,46,8,267,1249,169:0,R,1,49,0,283,1265,188:0,R,1,89,8,453,1249,40:0,R,1,90,24,453,1217,40:0,R,1,96,8,509,1249,20:0,R,1,111,8,549,1249,310:0,R,1,112,0,594,1265,285:0,R,1,141,8,904,1249,263:0,R,1,142,0,904,1265,283:3,B,3636:13749,e,U
p2787
sa(dp2788
Vname
p2789
Vzx
p2790
sVvalue
p2791
V1492348358806
p2792
sasVheaders
p2793
(lp2794
sVheadersSize
p2795
I1025
sVbodySize
p2796
I0
sVmethod
p2797
VGET
p2798
sVhttpVersion
p2799
VHTTP/1.1
p2800
ssVtimings
p2801
(dp2802
Vcomment
p2803
g4
sVreceive
p2804
I0
sVsend
p2805
I0
sVssl
p2806
I-1
sVconnect
p2807
I-1
sVdns
p2808
I-1
sVwait
p2809
I28
sVblocked
p2810
I-1
ssVtime
p2811
I28
sVresponse
p2812
(dp2813
Vstatus
p2814
I204
sVcomment
p2815
g4
sVcookies
p2816
(lp2817
sVstatusText
p2818
VNo Content
p2819
sVcontent
p2820
(dp2821
VmimeType
p2822
Vtext/html; charset=UTF-8
p2823
sVcomment
p2824
g4
sVsize
p2825
I0
ssVheaders
p2826
(lp2827
sVheadersSize
p2828
I248
sVredirectURL
p2829
g4
sVbodySize
p2830
I0
sVhttpVersion
p2831
VHTTP/1.1
p2832
ssasVversion
p2833
V1.2
p2834
sVpages
p2835
(lp2836
(dp2837
VpageTimings
p2838
(dp2839
Vcomment
p2840
g4
ssVcomment
p2841
g4
sVtitle
p2842
VAlicia Vikander
p2843
sVid
p2844
VAlicia Vikander
p2845
sVstartedDateTime
p2846
V2017-04-16T08:12:34.538-05:00
p2847
sasVcreator
p2848
(dp2849
Vcomment
p2850
g4
sVversion
p2851
V2.1.4
p2852
sVname
p2853
VBrowserMob Proxy
p2854
sss.