(dp0
Vlog
p1
(dp2
Vcomment
p3
V
p4
sVentries
p5
(lp6
(dp7
Vcomment
p8
g4
sVserverIPAddress
p9
V172.217.6.4
p10
sVpageref
p11
VMarcia Clark
p12
sVstartedDateTime
p13
V2017-04-16T08:19:27.541-05:00
p14
sVcache
p15
(dp16
sVrequest
p17
(dp18
Vcomment
p19
g4
sVcookies
p20
(lp21
sVurl
p22
Vhttps://www.google.com/gen_204?atyp=i&ct=slh&cad=&ei=Tm_zWJP1MImYjwT82qbgAQ&m=V&t=C&s=1&v=2&pv=0.5590618495430177&me=1:1492348753240,x:2,V,0,0,1280,944:0,N,1,Tm_zWJP1MImYjwT82qbgAQ:0,R,1,24,8,155,1249,359:0,R,1,25,8,199,1249,315:0,R,1,26,0,199,1265,335:0,R,1,57,8,524,1249,437:0,R,1,58,8,524,1249,437:0,R,1,61,8,537,1249,40:0,R,1,74,8,589,1249,178:0,R,1,77,0,605,1265,197:0,R,1,117,8,784,1249,40:0,R,1,118,24,784,1217,40:0,R,1,128,8,840,1249,20:0,R,1,131,8,868,1249,20:2,B,3288:14295,e,U&zx=1492348767540
p23
sVqueryString
p24
(lp25
(dp26
Vname
p27
Vatyp
p28
sVvalue
p29
Vi
p30
sa(dp31
Vname
p32
Vct
p33
sVvalue
p34
Vslh
p35
sa(dp36
Vname
p37
Vcad
p38
sVvalue
p39
g4
sa(dp40
Vname
p41
Vei
p42
sVvalue
p43
VTm_zWJP1MImYjwT82qbgAQ
p44
sa(dp45
Vname
p46
Vm
p47
sVvalue
p48
VV
p49
sa(dp50
Vname
p51
Vt
p52
sVvalue
p53
VC
p54
sa(dp55
Vname
p56
Vs
p57
sVvalue
p58
V1
p59
sa(dp60
Vname
p61
Vv
p62
sVvalue
p63
V2
p64
sa(dp65
Vname
p66
Vpv
p67
sVvalue
p68
V0.5590618495430177
p69
sa(dp70
Vname
p71
Vme
p72
sVvalue
p73
V1:1492348753240,x:2,V,0,0,1280,944:0,N,1,Tm_zWJP1MImYjwT82qbgAQ:0,R,1,24,8,155,1249,359:0,R,1,25,8,199,1249,315:0,R,1,26,0,199,1265,335:0,R,1,57,8,524,1249,437:0,R,1,58,8,524,1249,437:0,R,1,61,8,537,1249,40:0,R,1,74,8,589,1249,178:0,R,1,77,0,605,1265,197:0,R,1,117,8,784,1249,40:0,R,1,118,24,784,1217,40:0,R,1,128,8,840,1249,20:0,R,1,131,8,868,1249,20:2,B,3288:14295,e,U
p74
sa(dp75
Vname
p76
Vzx
p77
sVvalue
p78
V1492348767540
p79
sasVheaders
p80
(lp81
sVheadersSize
p82
I1021
sVbodySize
p83
I0
sVmethod
p84
VGET
p85
sVhttpVersion
p86
VHTTP/1.1
p87
ssVtimings
p88
(dp89
Vcomment
p90
g4
sVreceive
p91
I0
sVsend
p92
I0
sVssl
p93
I-1
sVconnect
p94
I-1
sVdns
p95
I-1
sVwait
p96
I0
sVblocked
p97
I-1
ssVtime
p98
I0
sVresponse
p99
(dp100
Vstatus
p101
I0
sVcomment
p102
g4
sVcookies
p103
(lp104
sV_error
p105
VNo response received
p106
sVstatusText
p107
g4
sVcontent
p108
(dp109
VmimeType
p110
g4
sVcomment
p111
g4
sVsize
p112
I0
ssVheaders
p113
(lp114
sVheadersSize
p115
I-1
sVredirectURL
p116
g4
sVbodySize
p117
I-1
sVhttpVersion
p118
Vunknown
p119
ssa(dp120
Vcomment
p121
g4
sVserverIPAddress
p122
V172.217.6.4
p123
sVpageref
p124
VMarcia Clark
p125
sVstartedDateTime
p126
V2017-04-16T08:19:27.545-05:00
p127
sVcache
p128
(dp129
sVrequest
p130
(dp131
Vcomment
p132
g4
sVcookies
p133
(lp134
sVurl
p135
Vhttp://www.google.com/
p136
sVqueryString
p137
(lp138
sVheaders
p139
(lp140
sVheadersSize
p141
I613
sVbodySize
p142
I0
sVmethod
p143
VGET
p144
sVhttpVersion
p145
VHTTP/1.1
p146
ssVtimings
p147
(dp148
Vcomment
p149
g4
sVreceive
p150
I0
sVsend
p151
I0
sVssl
p152
I-1
sVconnect
p153
I-1
sVdns
p154
I-1
sVwait
p155
I41
sVblocked
p156
I-1
ssVtime
p157
I42
sVresponse
p158
(dp159
Vstatus
p160
I302
sVcomment
p161
g4
sVcookies
p162
(lp163
sVstatusText
p164
VFound
p165
sVcontent
p166
(dp167
VmimeType
p168
Vtext/html; charset=UTF-8
p169
sVcomment
p170
g4
sVsize
p171
I0
ssVheaders
p172
(lp173
sVheadersSize
p174
I609
sVredirectURL
p175
Vhttps://www.google.com/?gws_rd=ssl
p176
sVbodySize
p177
I231
sVhttpVersion
p178
VHTTP/1.1
p179
ssa(dp180
Vcomment
p181
g4
sVserverIPAddress
p182
V172.217.6.4
p183
sVpageref
p184
VMarcia Clark
p185
sVstartedDateTime
p186
V2017-04-16T08:19:27.590-05:00
p187
sVcache
p188
(dp189
sVrequest
p190
(dp191
Vcomment
p192
g4
sVcookies
p193
(lp194
sVurl
p195
Vhttps://www.google.com/?gws_rd=ssl
p196
sVqueryString
p197
(lp198
(dp199
Vname
p200
Vgws_rd
p201
sVvalue
p202
Vssl
p203
sasVheaders
p204
(lp205
sVheadersSize
p206
I607
sVbodySize
p207
I0
sVmethod
p208
VGET
p209
sVhttpVersion
p210
VHTTP/1.1
p211
ssVtimings
p212
(dp213
Vcomment
p214
g4
sVreceive
p215
I27
sVsend
p216
I0
sVssl
p217
I-1
sVconnect
p218
I-1
sVdns
p219
I-1
sVwait
p220
I69
sVblocked
p221
I-1
ssVtime
p222
I97
sVresponse
p223
(dp224
Vstatus
p225
I200
sVcomment
p226
g4
sVcookies
p227
(lp228
sVstatusText
p229
VOK
p230
sVcontent
p231
(dp232
VmimeType
p233
Vtext/html; charset=UTF-8
p234
sVcomment
p235
g4
sVsize
p236
I0
ssVheaders
p237
(lp238
sVheadersSize
p239
I721
sVredirectURL
p240
g4
sVbodySize
p241
I34291
sVhttpVersion
p242
VHTTP/1.1
p243
ssa(dp244
Vcomment
p245
g4
sVserverIPAddress
p246
V172.217.6.4
p247
sVpageref
p248
VMarcia Clark
p249
sVstartedDateTime
p250
V2017-04-16T08:19:27.889-05:00
p251
sVcache
p252
(dp253
sVrequest
p254
(dp255
Vcomment
p256
g4
sVcookies
p257
(lp258
sVurl
p259
Vhttps://www.google.com/gen_204?s=mobilewebhp&atyp=csi&ei=Xm_zWKWUJMu-jwTZ56rgDg&imc=1&imn=1&imp=0&adh=&xjs=init.28.12.sb_mob.21.dvl.4.c.1.jsa.1.mbsf.1&ima=1&rt=xjsls.8,prt.8,iml.8,dcl.36,xjses.74,xjsee.166,xjs.167,ol.204,aft.8,wsrt.140,cst.0,dnst.0,rqst.99,rspt.28,rqstt.50,unt.50,cstt.50,dit.171
p260
sVqueryString
p261
(lp262
(dp263
Vname
p264
g57
sVvalue
p265
Vmobilewebhp
p266
sa(dp267
Vname
p268
Vatyp
p269
sVvalue
p270
Vcsi
p271
sa(dp272
Vname
p273
Vei
p274
sVvalue
p275
VXm_zWKWUJMu-jwTZ56rgDg
p276
sa(dp277
Vname
p278
Vimc
p279
sVvalue
p280
g59
sa(dp281
Vname
p282
Vimn
p283
sVvalue
p284
g59
sa(dp285
Vname
p286
Vimp
p287
sVvalue
p288
V0
p289
sa(dp290
Vname
p291
Vadh
p292
sVvalue
p293
g4
sa(dp294
Vname
p295
Vxjs
p296
sVvalue
p297
Vinit.28.12.sb_mob.21.dvl.4.c.1.jsa.1.mbsf.1
p298
sa(dp299
Vname
p300
Vima
p301
sVvalue
p302
g59
sa(dp303
Vname
p304
Vrt
p305
sVvalue
p306
Vxjsls.8,prt.8,iml.8,dcl.36,xjses.74,xjsee.166,xjs.167,ol.204,aft.8,wsrt.140,cst.0,dnst.0,rqst.99,rspt.28,rqstt.50,unt.50,cstt.50,dit.171
p307
sasVheaders
p308
(lp309
sVheadersSize
p310
I824
sVbodySize
p311
I0
sVmethod
p312
VGET
p313
sVhttpVersion
p314
VHTTP/1.1
p315
ssVtimings
p316
(dp317
Vcomment
p318
g4
sVreceive
p319
I0
sVsend
p320
I0
sVssl
p321
I-1
sVconnect
p322
I-1
sVdns
p323
I-1
sVwait
p324
I37
sVblocked
p325
I-1
ssVtime
p326
I37
sVresponse
p327
(dp328
Vstatus
p329
I204
sVcomment
p330
g4
sVcookies
p331
(lp332
sVstatusText
p333
VNo Content
p334
sVcontent
p335
(dp336
VmimeType
p337
Vtext/html; charset=UTF-8
p338
sVcomment
p339
g4
sVsize
p340
I0
ssVheaders
p341
(lp342
sVheadersSize
p343
I248
sVredirectURL
p344
g4
sVbodySize
p345
I0
sVhttpVersion
p346
VHTTP/1.1
p347
ssa(dp348
Vcomment
p349
g4
sVserverIPAddress
p350
V172.217.6.4
p351
sVpageref
p352
VMarcia Clark
p353
sVstartedDateTime
p354
V2017-04-16T08:19:28.044-05:00
p355
sVcache
p356
(dp357
sVrequest
p358
(dp359
Vcomment
p360
g4
sVcookies
p361
(lp362
sVurl
p363
Vhttps://www.google.com/complete/search?client=mobile-gws-hp&hl=en&gs_rn=64&gs_ri=mobile-gws-hp&sla=1&pfq=muhammad%20ali&gm=602&cp=0&gs_id=1&xhr=t&q=M&tch=1&ech=1&psi=Xm_zWKWUJMu-jwTZ56rgDg.1492348767820.1
p364
sVqueryString
p365
(lp366
(dp367
Vname
p368
Vclient
p369
sVvalue
p370
Vmobile-gws-hp
p371
sa(dp372
Vname
p373
Vhl
p374
sVvalue
p375
Ven
p376
sa(dp377
Vname
p378
Vgs_rn
p379
sVvalue
p380
V64
p381
sa(dp382
Vname
p383
Vgs_ri
p384
sVvalue
p385
Vmobile-gws-hp
p386
sa(dp387
Vname
p388
Vsla
p389
sVvalue
p390
g59
sa(dp391
Vname
p392
Vpfq
p393
sVvalue
p394
Vmuhammad ali
p395
sa(dp396
Vname
p397
Vgm
p398
sVvalue
p399
V602
p400
sa(dp401
Vname
p402
Vcp
p403
sVvalue
p404
g289
sa(dp405
Vname
p406
Vgs_id
p407
sVvalue
p408
g59
sa(dp409
Vname
p410
Vxhr
p411
sVvalue
p412
g52
sa(dp413
Vname
p414
Vq
p415
sVvalue
p416
VM
p417
sa(dp418
Vname
p419
Vtch
p420
sVvalue
p421
g59
sa(dp422
Vname
p423
Vech
p424
sVvalue
p425
g59
sa(dp426
Vname
p427
Vpsi
p428
sVvalue
p429
VXm_zWKWUJMu-jwTZ56rgDg.1492348767820.1
p430
sasVheaders
p431
(lp432
sVheadersSize
p433
I732
sVbodySize
p434
I0
sVmethod
p435
VGET
p436
sVhttpVersion
p437
VHTTP/1.1
p438
ssVtimings
p439
(dp440
Vcomment
p441
g4
sVreceive
p442
I0
sVsend
p443
I0
sVssl
p444
I-1
sVconnect
p445
I-1
sVdns
p446
I-1
sVwait
p447
I0
sVblocked
p448
I-1
ssVtime
p449
I0
sVresponse
p450
(dp451
Vstatus
p452
I0
sVcomment
p453
g4
sVcookies
p454
(lp455
sV_error
p456
VNo response received
p457
sVstatusText
p458
g4
sVcontent
p459
(dp460
VmimeType
p461
g4
sVcomment
p462
g4
sVsize
p463
I0
ssVheaders
p464
(lp465
sVheadersSize
p466
I-1
sVredirectURL
p467
g4
sVbodySize
p468
I-1
sVhttpVersion
p469
Vunknown
p470
ssa(dp471
Vcomment
p472
g4
sVserverIPAddress
p473
V172.217.6.4
p474
sVpageref
p475
VMarcia Clark
p476
sVstartedDateTime
p477
V2017-04-16T08:19:28.119-05:00
p478
sVcache
p479
(dp480
sVrequest
p481
(dp482
Vcomment
p483
g4
sVcookies
p484
(lp485
sVurl
p486
Vhttps://www.google.com/search?site=&source=hp&ei=Xm_zWKWUJMu-jwTZ56rgDg&q=Marcia+Clark&oq=Marcia+Clark&gs_l=mobile-gws-hp.3...196.239.0.269.12.1.0.0.0.0.0.0..0.0....0...1c.1.64.mobile-gws-hp..12.0.0.WHXEeIHRFW0
p487
sVqueryString
p488
(lp489
(dp490
Vname
p491
Vsite
p492
sVvalue
p493
g4
sa(dp494
Vname
p495
Vsource
p496
sVvalue
p497
Vhp
p498
sa(dp499
Vname
p500
Vei
p501
sVvalue
p502
VXm_zWKWUJMu-jwTZ56rgDg
p503
sa(dp504
Vname
p505
g415
sVvalue
p506
VMarcia Clark
p507
sa(dp508
Vname
p509
Voq
p510
sVvalue
p511
VMarcia Clark
p512
sa(dp513
Vname
p514
Vgs_l
p515
sVvalue
p516
Vmobile-gws-hp.3...196.239.0.269.12.1.0.0.0.0.0.0..0.0....0...1c.1.64.mobile-gws-hp..12.0.0.WHXEeIHRFW0
p517
sasVheaders
p518
(lp519
sVheadersSize
p520
I828
sVbodySize
p521
I0
sVmethod
p522
VGET
p523
sVhttpVersion
p524
VHTTP/1.1
p525
ssVtimings
p526
(dp527
Vcomment
p528
g4
sVreceive
p529
I703
sVsend
p530
I0
sVssl
p531
I-1
sVconnect
p532
I-1
sVdns
p533
I-1
sVwait
p534
I96
sVblocked
p535
I-1
ssVtime
p536
I799
sVresponse
p537
(dp538
Vstatus
p539
I200
sVcomment
p540
g4
sVcookies
p541
(lp542
sVstatusText
p543
VOK
p544
sVcontent
p545
(dp546
VmimeType
p547
Vtext/html; charset=UTF-8
p548
sVcomment
p549
g4
sVsize
p550
I0
ssVheaders
p551
(lp552
sVheadersSize
p553
I363
sVredirectURL
p554
g4
sVbodySize
p555
I131439
sVhttpVersion
p556
VHTTP/1.1
p557
ssa(dp558
Vcomment
p559
g4
sVserverIPAddress
p560
V172.217.6.4
p561
sVpageref
p562
VMarcia Clark
p563
sVstartedDateTime
p564
V2017-04-16T08:19:29.941-05:00
p565
sVcache
p566
(dp567
sVrequest
p568
(dp569
Vcomment
p570
g4
sVcookies
p571
(lp572
sVurl
p573
Vhttps://www.google.com/async/irc?vet=10ahUKEwjB5JSxiKnTAhVM2IMKHUpRD6oQo0EIlAI..i&ved=0ahUKEwjB5JSxiKnTAhVM2IMKHUpRD6oQo0EIlAI&ei=X2_zWIG5B8ywjwTKor3QCg&yv=2&async=iu:1,ved:0ahUKEwjB5JSxiKnTAhVM2IMKHUpRD6oQo0EIlAI,_id:irc_async,_pms:qs
p574
sVqueryString
p575
(lp576
(dp577
Vname
p578
Vvet
p579
sVvalue
p580
V10ahUKEwjB5JSxiKnTAhVM2IMKHUpRD6oQo0EIlAI..i
p581
sa(dp582
Vname
p583
Vved
p584
sVvalue
p585
V0ahUKEwjB5JSxiKnTAhVM2IMKHUpRD6oQo0EIlAI
p586
sa(dp587
Vname
p588
Vei
p589
sVvalue
p590
VX2_zWIG5B8ywjwTKor3QCg
p591
sa(dp592
Vname
p593
Vyv
p594
sVvalue
p595
g64
sa(dp596
Vname
p597
Vasync
p598
sVvalue
p599
Viu:1,ved:0ahUKEwjB5JSxiKnTAhVM2IMKHUpRD6oQo0EIlAI,_id:irc_async,_pms:qs
p600
sasVheaders
p601
(lp602
sVheadersSize
p603
I752
sVbodySize
p604
I0
sVmethod
p605
VGET
p606
sVhttpVersion
p607
VHTTP/1.1
p608
ssVtimings
p609
(dp610
Vcomment
p611
g4
sVreceive
p612
I2
sVsend
p613
I0
sVssl
p614
I-1
sVconnect
p615
I-1
sVdns
p616
I-1
sVwait
p617
I47
sVblocked
p618
I-1
ssVtime
p619
I50
sVresponse
p620
(dp621
Vstatus
p622
I200
sVcomment
p623
g4
sVcookies
p624
(lp625
sVstatusText
p626
VOK
p627
sVcontent
p628
(dp629
VmimeType
p630
Vtext/html; charset=UTF-8
p631
sVcomment
p632
g4
sVsize
p633
I0
ssVheaders
p634
(lp635
sVheadersSize
p636
I383
sVredirectURL
p637
g4
sVbodySize
p638
I7790
sVhttpVersion
p639
VHTTP/1.1
p640
ssa(dp641
Vcomment
p642
g4
sVserverIPAddress
p643
V172.217.6.4
p644
sVpageref
p645
VMarcia Clark
p646
sVstartedDateTime
p647
V2017-04-16T08:19:29.951-05:00
p648
sVcache
p649
(dp650
sVrequest
p651
(dp652
Vcomment
p653
g4
sVcookies
p654
(lp655
sVurl
p656
Vhttps://www.google.com/gen_204?atyp=i&ct=&cad=&vet=10ahUKEwjB5JSxiKnTAhVM2IMKHUpRD6oQ5W0IMygC..s&ei=X2_zWIG5B8ywjwTKor3QCg&zx=1492348769950
p657
sVqueryString
p658
(lp659
(dp660
Vname
p661
Vatyp
p662
sVvalue
p663
g30
sa(dp664
Vname
p665
Vct
p666
sVvalue
p667
g4
sa(dp668
Vname
p669
Vcad
p670
sVvalue
p671
g4
sa(dp672
Vname
p673
Vvet
p674
sVvalue
p675
V10ahUKEwjB5JSxiKnTAhVM2IMKHUpRD6oQ5W0IMygC..s
p676
sa(dp677
Vname
p678
Vei
p679
sVvalue
p680
VX2_zWIG5B8ywjwTKor3QCg
p681
sa(dp682
Vname
p683
Vzx
p684
sVvalue
p685
V1492348769950
p686
sasVheaders
p687
(lp688
sVheadersSize
p689
I656
sVbodySize
p690
I0
sVmethod
p691
VGET
p692
sVhttpVersion
p693
VHTTP/1.1
p694
ssVtimings
p695
(dp696
Vcomment
p697
g4
sVreceive
p698
I0
sVsend
p699
I0
sVssl
p700
I-1
sVconnect
p701
I-1
sVdns
p702
I-1
sVwait
p703
I29
sVblocked
p704
I-1
ssVtime
p705
I29
sVresponse
p706
(dp707
Vstatus
p708
I204
sVcomment
p709
g4
sVcookies
p710
(lp711
sVstatusText
p712
VNo Content
p713
sVcontent
p714
(dp715
VmimeType
p716
Vtext/html; charset=UTF-8
p717
sVcomment
p718
g4
sVsize
p719
I0
ssVheaders
p720
(lp721
sVheadersSize
p722
I248
sVredirectURL
p723
g4
sVbodySize
p724
I0
sVhttpVersion
p725
VHTTP/1.1
p726
ssa(dp727
Vcomment
p728
g4
sVserverIPAddress
p729
V172.217.6.4
p730
sVpageref
p731
VMarcia Clark
p732
sVstartedDateTime
p733
V2017-04-16T08:19:29.954-05:00
p734
sVcache
p735
(dp736
sVrequest
p737
(dp738
Vcomment
p739
g4
sVcookies
p740
(lp741
sVurl
p742
Vhttps://www.google.com/gen_204?atyp=i&ct=&cad=&vet=10ahUKEwjB5JSxiKnTAhVM2IMKHUpRD6oQ5W0INigD..s&ei=X2_zWIG5B8ywjwTKor3QCg&zx=1492348769953
p743
sVqueryString
p744
(lp745
(dp746
Vname
p747
Vatyp
p748
sVvalue
p749
g30
sa(dp750
Vname
p751
Vct
p752
sVvalue
p753
g4
sa(dp754
Vname
p755
Vcad
p756
sVvalue
p757
g4
sa(dp758
Vname
p759
Vvet
p760
sVvalue
p761
V10ahUKEwjB5JSxiKnTAhVM2IMKHUpRD6oQ5W0INigD..s
p762
sa(dp763
Vname
p764
Vei
p765
sVvalue
p766
VX2_zWIG5B8ywjwTKor3QCg
p767
sa(dp768
Vname
p769
Vzx
p770
sVvalue
p771
V1492348769953
p772
sasVheaders
p773
(lp774
sVheadersSize
p775
I656
sVbodySize
p776
I0
sVmethod
p777
VGET
p778
sVhttpVersion
p779
VHTTP/1.1
p780
ssVtimings
p781
(dp782
Vcomment
p783
g4
sVreceive
p784
I0
sVsend
p785
I0
sVssl
p786
I-1
sVconnect
p787
I-1
sVdns
p788
I-1
sVwait
p789
I31
sVblocked
p790
I-1
ssVtime
p791
I31
sVresponse
p792
(dp793
Vstatus
p794
I204
sVcomment
p795
g4
sVcookies
p796
(lp797
sVstatusText
p798
VNo Content
p799
sVcontent
p800
(dp801
VmimeType
p802
Vtext/html; charset=UTF-8
p803
sVcomment
p804
g4
sVsize
p805
I0
ssVheaders
p806
(lp807
sVheadersSize
p808
I248
sVredirectURL
p809
g4
sVbodySize
p810
I0
sVhttpVersion
p811
VHTTP/1.1
p812
ssa(dp813
Vcomment
p814
g4
sVserverIPAddress
p815
V172.217.6.4
p816
sVpageref
p817
VMarcia Clark
p818
sVstartedDateTime
p819
V2017-04-16T08:19:29.959-05:00
p820
sVcache
p821
(dp822
sVrequest
p823
(dp824
Vcomment
p825
g4
sVcookies
p826
(lp827
sVurl
p828
Vhttps://www.google.com/gen_204?atyp=i&ct=&cad=&vet=10ahUKEwjB5JSxiKnTAhVM2IMKHUpRD6oQ5W0IOSgE..s&ei=X2_zWIG5B8ywjwTKor3QCg&zx=1492348769957
p829
sVqueryString
p830
(lp831
(dp832
Vname
p833
Vatyp
p834
sVvalue
p835
g30
sa(dp836
Vname
p837
Vct
p838
sVvalue
p839
g4
sa(dp840
Vname
p841
Vcad
p842
sVvalue
p843
g4
sa(dp844
Vname
p845
Vvet
p846
sVvalue
p847
V10ahUKEwjB5JSxiKnTAhVM2IMKHUpRD6oQ5W0IOSgE..s
p848
sa(dp849
Vname
p850
Vei
p851
sVvalue
p852
VX2_zWIG5B8ywjwTKor3QCg
p853
sa(dp854
Vname
p855
Vzx
p856
sVvalue
p857
V1492348769957
p858
sasVheaders
p859
(lp860
sVheadersSize
p861
I656
sVbodySize
p862
I0
sVmethod
p863
VGET
p864
sVhttpVersion
p865
VHTTP/1.1
p866
ssVtimings
p867
(dp868
Vcomment
p869
g4
sVreceive
p870
I0
sVsend
p871
I0
sVssl
p872
I-1
sVconnect
p873
I-1
sVdns
p874
I-1
sVwait
p875
I32
sVblocked
p876
I-1
ssVtime
p877
I32
sVresponse
p878
(dp879
Vstatus
p880
I204
sVcomment
p881
g4
sVcookies
p882
(lp883
sVstatusText
p884
VNo Content
p885
sVcontent
p886
(dp887
VmimeType
p888
Vtext/html; charset=UTF-8
p889
sVcomment
p890
g4
sVsize
p891
I0
ssVheaders
p892
(lp893
sVheadersSize
p894
I248
sVredirectURL
p895
g4
sVbodySize
p896
I0
sVhttpVersion
p897
VHTTP/1.1
p898
ssa(dp899
Vcomment
p900
g4
sVserverIPAddress
p901
V172.217.6.4
p902
sVpageref
p903
VMarcia Clark
p904
sVstartedDateTime
p905
V2017-04-16T08:19:29.981-05:00
p906
sVcache
p907
(dp908
sVrequest
p909
(dp910
Vcomment
p911
g4
sVcookies
p912
(lp913
sVurl
p914
Vhttps://www.google.com/gen_204?atyp=i&ct=&cad=&vet=10ahUKEwjB5JSxiKnTAhVM2IMKHUpRD6oQ5W0IQigH..s&ei=X2_zWIG5B8ywjwTKor3QCg&zx=1492348769967
p915
sVqueryString
p916
(lp917
(dp918
Vname
p919
Vatyp
p920
sVvalue
p921
g30
sa(dp922
Vname
p923
Vct
p924
sVvalue
p925
g4
sa(dp926
Vname
p927
Vcad
p928
sVvalue
p929
g4
sa(dp930
Vname
p931
Vvet
p932
sVvalue
p933
V10ahUKEwjB5JSxiKnTAhVM2IMKHUpRD6oQ5W0IQigH..s
p934
sa(dp935
Vname
p936
Vei
p937
sVvalue
p938
VX2_zWIG5B8ywjwTKor3QCg
p939
sa(dp940
Vname
p941
Vzx
p942
sVvalue
p943
V1492348769967
p944
sasVheaders
p945
(lp946
sVheadersSize
p947
I656
sVbodySize
p948
I0
sVmethod
p949
VGET
p950
sVhttpVersion
p951
VHTTP/1.1
p952
ssVtimings
p953
(dp954
Vcomment
p955
g4
sVreceive
p956
I0
sVsend
p957
I0
sVssl
p958
I-1
sVconnect
p959
I-1
sVdns
p960
I-1
sVwait
p961
I33
sVblocked
p962
I-1
ssVtime
p963
I33
sVresponse
p964
(dp965
Vstatus
p966
I204
sVcomment
p967
g4
sVcookies
p968
(lp969
sVstatusText
p970
VNo Content
p971
sVcontent
p972
(dp973
VmimeType
p974
Vtext/html; charset=UTF-8
p975
sVcomment
p976
g4
sVsize
p977
I0
ssVheaders
p978
(lp979
sVheadersSize
p980
I248
sVredirectURL
p981
g4
sVbodySize
p982
I0
sVhttpVersion
p983
VHTTP/1.1
p984
ssa(dp985
Vcomment
p986
g4
sVserverIPAddress
p987
V172.217.6.4
p988
sVpageref
p989
VMarcia Clark
p990
sVstartedDateTime
p991
V2017-04-16T08:19:29.987-05:00
p992
sVcache
p993
(dp994
sVrequest
p995
(dp996
Vcomment
p997
g4
sVcookies
p998
(lp999
sVurl
p1000
Vhttps://www.google.com/gen_204?atyp=i&ct=&cad=&vet=10ahUKEwjB5JSxiKnTAhVM2IMKHUpRD6oQ5W0IRSgI..s&ei=X2_zWIG5B8ywjwTKor3QCg&zx=1492348769970
p1001
sVqueryString
p1002
(lp1003
(dp1004
Vname
p1005
Vatyp
p1006
sVvalue
p1007
g30
sa(dp1008
Vname
p1009
Vct
p1010
sVvalue
p1011
g4
sa(dp1012
Vname
p1013
Vcad
p1014
sVvalue
p1015
g4
sa(dp1016
Vname
p1017
Vvet
p1018
sVvalue
p1019
V10ahUKEwjB5JSxiKnTAhVM2IMKHUpRD6oQ5W0IRSgI..s
p1020
sa(dp1021
Vname
p1022
Vei
p1023
sVvalue
p1024
VX2_zWIG5B8ywjwTKor3QCg
p1025
sa(dp1026
Vname
p1027
Vzx
p1028
sVvalue
p1029
V1492348769970
p1030
sasVheaders
p1031
(lp1032
sVheadersSize
p1033
I656
sVbodySize
p1034
I0
sVmethod
p1035
VGET
p1036
sVhttpVersion
p1037
VHTTP/1.1
p1038
ssVtimings
p1039
(dp1040
Vcomment
p1041
g4
sVreceive
p1042
I0
sVsend
p1043
I0
sVssl
p1044
I-1
sVconnect
p1045
I-1
sVdns
p1046
I-1
sVwait
p1047
I27
sVblocked
p1048
I-1
ssVtime
p1049
I28
sVresponse
p1050
(dp1051
Vstatus
p1052
I204
sVcomment
p1053
g4
sVcookies
p1054
(lp1055
sVstatusText
p1056
VNo Content
p1057
sVcontent
p1058
(dp1059
VmimeType
p1060
Vtext/html; charset=UTF-8
p1061
sVcomment
p1062
g4
sVsize
p1063
I0
ssVheaders
p1064
(lp1065
sVheadersSize
p1066
I248
sVredirectURL
p1067
g4
sVbodySize
p1068
I0
sVhttpVersion
p1069
VHTTP/1.1
p1070
ssa(dp1071
Vcomment
p1072
g4
sVserverIPAddress
p1073
V216.58.216.206
p1074
sVpageref
p1075
VMarcia Clark
p1076
sVstartedDateTime
p1077
V2017-04-16T08:19:29.994-05:00
p1078
sVcache
p1079
(dp1080
sVrequest
p1081
(dp1082
Vcomment
p1083
g4
sVcookies
p1084
(lp1085
sVurl
p1086
Vhttps://encrypted-tbn3.gstatic.com/images?q=tbn:ANd9GcQBGB0a0r-7nZOhTU9alDLIl3TRht9k8_r_cwy96lhIrNLF24xz5gspI8w4Et5VPwtYNhmr
p1087
sVqueryString
p1088
(lp1089
(dp1090
Vname
p1091
g415
sVvalue
p1092
Vtbn:ANd9GcQBGB0a0r-7nZOhTU9alDLIl3TRht9k8_r_cwy96lhIrNLF24xz5gspI8w4Et5VPwtYNhmr
p1093
sasVheaders
p1094
(lp1095
sVheadersSize
p1096
I439
sVbodySize
p1097
I0
sVmethod
p1098
VGET
p1099
sVhttpVersion
p1100
VHTTP/1.1
p1101
ssVtimings
p1102
(dp1103
Vcomment
p1104
g4
sVreceive
p1105
I3
sVsend
p1106
I0
sVssl
p1107
I-1
sVconnect
p1108
I-1
sVdns
p1109
I-1
sVwait
p1110
I14
sVblocked
p1111
I-1
ssVtime
p1112
I18
sVresponse
p1113
(dp1114
Vstatus
p1115
I200
sVcomment
p1116
g4
sVcookies
p1117
(lp1118
sVstatusText
p1119
VOK
p1120
sVcontent
p1121
(dp1122
VmimeType
p1123
Vimage/jpeg
p1124
sVcomment
p1125
g4
sVsize
p1126
I0
ssVheaders
p1127
(lp1128
sVheadersSize
p1129
I429
sVredirectURL
p1130
g4
sVbodySize
p1131
I9741
sVhttpVersion
p1132
VHTTP/1.1
p1133
ssa(dp1134
Vcomment
p1135
g4
sVserverIPAddress
p1136
V172.217.6.4
p1137
sVpageref
p1138
VMarcia Clark
p1139
sVstartedDateTime
p1140
V2017-04-16T08:19:29.995-05:00
p1141
sVcache
p1142
(dp1143
sVrequest
p1144
(dp1145
Vcomment
p1146
g4
sVcookies
p1147
(lp1148
sVurl
p1149
Vhttps://www.google.com/gen_204?atyp=i&ct=&cad=&vet=10ahUKEwjB5JSxiKnTAhVM2IMKHUpRD6oQtxAIfSgDMBU..s&ei=X2_zWIG5B8ywjwTKor3QCg&zx=1492348769991
p1150
sVqueryString
p1151
(lp1152
(dp1153
Vname
p1154
Vatyp
p1155
sVvalue
p1156
g30
sa(dp1157
Vname
p1158
Vct
p1159
sVvalue
p1160
g4
sa(dp1161
Vname
p1162
Vcad
p1163
sVvalue
p1164
g4
sa(dp1165
Vname
p1166
Vvet
p1167
sVvalue
p1168
V10ahUKEwjB5JSxiKnTAhVM2IMKHUpRD6oQtxAIfSgDMBU..s
p1169
sa(dp1170
Vname
p1171
Vei
p1172
sVvalue
p1173
VX2_zWIG5B8ywjwTKor3QCg
p1174
sa(dp1175
Vname
p1176
Vzx
p1177
sVvalue
p1178
V1492348769991
p1179
sasVheaders
p1180
(lp1181
sVheadersSize
p1182
I659
sVbodySize
p1183
I0
sVmethod
p1184
VGET
p1185
sVhttpVersion
p1186
VHTTP/1.1
p1187
ssVtimings
p1188
(dp1189
Vcomment
p1190
g4
sVreceive
p1191
I0
sVsend
p1192
I0
sVssl
p1193
I-1
sVconnect
p1194
I-1
sVdns
p1195
I-1
sVwait
p1196
I30
sVblocked
p1197
I-1
ssVtime
p1198
I30
sVresponse
p1199
(dp1200
Vstatus
p1201
I204
sVcomment
p1202
g4
sVcookies
p1203
(lp1204
sVstatusText
p1205
VNo Content
p1206
sVcontent
p1207
(dp1208
VmimeType
p1209
Vtext/html; charset=UTF-8
p1210
sVcomment
p1211
g4
sVsize
p1212
I0
ssVheaders
p1213
(lp1214
sVheadersSize
p1215
I248
sVredirectURL
p1216
g4
sVbodySize
p1217
I0
sVhttpVersion
p1218
VHTTP/1.1
p1219
ssa(dp1220
Vcomment
p1221
g4
sVserverIPAddress
p1222
V216.58.216.206
p1223
sVpageref
p1224
VMarcia Clark
p1225
sVstartedDateTime
p1226
V2017-04-16T08:19:29.995-05:00
p1227
sVcache
p1228
(dp1229
sVrequest
p1230
(dp1231
Vcomment
p1232
g4
sVcookies
p1233
(lp1234
sVurl
p1235
Vhttps://encrypted-tbn0.gstatic.com/images?q=tbn:ANd9GcTX4GOwGn0-Pa_lP7It0u0_0OS-SVCyzUZkkw_TLAqFND-iDga4K2w989Z5lF-K-cIR7ZZq
p1236
sVqueryString
p1237
(lp1238
(dp1239
Vname
p1240
g415
sVvalue
p1241
Vtbn:ANd9GcTX4GOwGn0-Pa_lP7It0u0_0OS-SVCyzUZkkw_TLAqFND-iDga4K2w989Z5lF-K-cIR7ZZq
p1242
sasVheaders
p1243
(lp1244
sVheadersSize
p1245
I439
sVbodySize
p1246
I0
sVmethod
p1247
VGET
p1248
sVhttpVersion
p1249
VHTTP/1.1
p1250
ssVtimings
p1251
(dp1252
Vcomment
p1253
g4
sVreceive
p1254
I1
sVsend
p1255
I0
sVssl
p1256
I-1
sVconnect
p1257
I-1
sVdns
p1258
I-1
sVwait
p1259
I18
sVblocked
p1260
I-1
ssVtime
p1261
I19
sVresponse
p1262
(dp1263
Vstatus
p1264
I200
sVcomment
p1265
g4
sVcookies
p1266
(lp1267
sVstatusText
p1268
VOK
p1269
sVcontent
p1270
(dp1271
VmimeType
p1272
Vimage/jpeg
p1273
sVcomment
p1274
g4
sVsize
p1275
I0
ssVheaders
p1276
(lp1277
sVheadersSize
p1278
I407
sVredirectURL
p1279
g4
sVbodySize
p1280
I9299
sVhttpVersion
p1281
VHTTP/1.1
p1282
ssa(dp1283
Vcomment
p1284
g4
sVserverIPAddress
p1285
V172.217.6.4
p1286
sVpageref
p1287
VMarcia Clark
p1288
sVstartedDateTime
p1289
V2017-04-16T08:19:30.000-05:00
p1290
sVcache
p1291
(dp1292
sVrequest
p1293
(dp1294
Vcomment
p1295
g4
sVcookies
p1296
(lp1297
sVurl
p1298
Vhttps://www.google.com/gen_204?atyp=i&ct=&cad=&vet=10ahUKEwjB5JSxiKnTAhVM2IMKHUpRD6oQtxAIfygEMBU..s&ei=X2_zWIG5B8ywjwTKor3QCg&zx=1492348769994
p1299
sVqueryString
p1300
(lp1301
(dp1302
Vname
p1303
Vatyp
p1304
sVvalue
p1305
g30
sa(dp1306
Vname
p1307
Vct
p1308
sVvalue
p1309
g4
sa(dp1310
Vname
p1311
Vcad
p1312
sVvalue
p1313
g4
sa(dp1314
Vname
p1315
Vvet
p1316
sVvalue
p1317
V10ahUKEwjB5JSxiKnTAhVM2IMKHUpRD6oQtxAIfygEMBU..s
p1318
sa(dp1319
Vname
p1320
Vei
p1321
sVvalue
p1322
VX2_zWIG5B8ywjwTKor3QCg
p1323
sa(dp1324
Vname
p1325
Vzx
p1326
sVvalue
p1327
V1492348769994
p1328
sasVheaders
p1329
(lp1330
sVheadersSize
p1331
I659
sVbodySize
p1332
I0
sVmethod
p1333
VGET
p1334
sVhttpVersion
p1335
VHTTP/1.1
p1336
ssVtimings
p1337
(dp1338
Vcomment
p1339
g4
sVreceive
p1340
I0
sVsend
p1341
I0
sVssl
p1342
I-1
sVconnect
p1343
I-1
sVdns
p1344
I-1
sVwait
p1345
I32
sVblocked
p1346
I-1
ssVtime
p1347
I32
sVresponse
p1348
(dp1349
Vstatus
p1350
I204
sVcomment
p1351
g4
sVcookies
p1352
(lp1353
sVstatusText
p1354
VNo Content
p1355
sVcontent
p1356
(dp1357
VmimeType
p1358
Vtext/html; charset=UTF-8
p1359
sVcomment
p1360
g4
sVsize
p1361
I0
ssVheaders
p1362
(lp1363
sVheadersSize
p1364
I248
sVredirectURL
p1365
g4
sVbodySize
p1366
I0
sVhttpVersion
p1367
VHTTP/1.1
p1368
ssa(dp1369
Vcomment
p1370
g4
sVserverIPAddress
p1371
V172.217.6.4
p1372
sVpageref
p1373
VMarcia Clark
p1374
sVstartedDateTime
p1375
V2017-04-16T08:19:30.006-05:00
p1376
sVcache
p1377
(dp1378
sVrequest
p1379
(dp1380
Vcomment
p1381
g4
sVcookies
p1382
(lp1383
sVurl
p1384
Vhttps://www.google.com/gen_204?atyp=i&ct=&cad=&vet=10ahUKEwjB5JSxiKnTAhVM2IMKHUpRD6oQ5W0IPCgF..s&ei=X2_zWIG5B8ywjwTKor3QCg&zx=1492348769961
p1385
sVqueryString
p1386
(lp1387
(dp1388
Vname
p1389
Vatyp
p1390
sVvalue
p1391
g30
sa(dp1392
Vname
p1393
Vct
p1394
sVvalue
p1395
g4
sa(dp1396
Vname
p1397
Vcad
p1398
sVvalue
p1399
g4
sa(dp1400
Vname
p1401
Vvet
p1402
sVvalue
p1403
V10ahUKEwjB5JSxiKnTAhVM2IMKHUpRD6oQ5W0IPCgF..s
p1404
sa(dp1405
Vname
p1406
Vei
p1407
sVvalue
p1408
VX2_zWIG5B8ywjwTKor3QCg
p1409
sa(dp1410
Vname
p1411
Vzx
p1412
sVvalue
p1413
V1492348769961
p1414
sasVheaders
p1415
(lp1416
sVheadersSize
p1417
I656
sVbodySize
p1418
I0
sVmethod
p1419
VGET
p1420
sVhttpVersion
p1421
VHTTP/1.1
p1422
ssVtimings
p1423
(dp1424
Vcomment
p1425
g4
sVreceive
p1426
I0
sVsend
p1427
I0
sVssl
p1428
I24
sVconnect
p1429
I41
sVdns
p1430
I0
sVwait
p1431
I40
sVblocked
p1432
I0
ssVtime
p1433
I83
sVresponse
p1434
(dp1435
Vstatus
p1436
I204
sVcomment
p1437
g4
sVcookies
p1438
(lp1439
sVstatusText
p1440
VNo Content
p1441
sVcontent
p1442
(dp1443
VmimeType
p1444
Vtext/html; charset=UTF-8
p1445
sVcomment
p1446
g4
sVsize
p1447
I0
ssVheaders
p1448
(lp1449
sVheadersSize
p1450
I248
sVredirectURL
p1451
g4
sVbodySize
p1452
I0
sVhttpVersion
p1453
VHTTP/1.1
p1454
ssa(dp1455
Vcomment
p1456
g4
sVserverIPAddress
p1457
V172.217.6.4
p1458
sVpageref
p1459
VMarcia Clark
p1460
sVstartedDateTime
p1461
V2017-04-16T08:19:30.008-05:00
p1462
sVcache
p1463
(dp1464
sVrequest
p1465
(dp1466
Vcomment
p1467
g4
sVcookies
p1468
(lp1469
sVurl
p1470
Vhttps://www.google.com/gen_204?atyp=i&ct=&cad=&vet=10ahUKEwjB5JSxiKnTAhVM2IMKHUpRD6oQ5W0IPygG..s&ei=X2_zWIG5B8ywjwTKor3QCg&zx=1492348769964
p1471
sVqueryString
p1472
(lp1473
(dp1474
Vname
p1475
Vatyp
p1476
sVvalue
p1477
g30
sa(dp1478
Vname
p1479
Vct
p1480
sVvalue
p1481
g4
sa(dp1482
Vname
p1483
Vcad
p1484
sVvalue
p1485
g4
sa(dp1486
Vname
p1487
Vvet
p1488
sVvalue
p1489
V10ahUKEwjB5JSxiKnTAhVM2IMKHUpRD6oQ5W0IPygG..s
p1490
sa(dp1491
Vname
p1492
Vei
p1493
sVvalue
p1494
VX2_zWIG5B8ywjwTKor3QCg
p1495
sa(dp1496
Vname
p1497
Vzx
p1498
sVvalue
p1499
V1492348769964
p1500
sasVheaders
p1501
(lp1502
sVheadersSize
p1503
I656
sVbodySize
p1504
I0
sVmethod
p1505
VGET
p1506
sVhttpVersion
p1507
VHTTP/1.1
p1508
ssVtimings
p1509
(dp1510
Vcomment
p1511
g4
sVreceive
p1512
I0
sVsend
p1513
I0
sVssl
p1514
I22
sVconnect
p1515
I41
sVdns
p1516
I0
sVwait
p1517
I39
sVblocked
p1518
I0
ssVtime
p1519
I81
sVresponse
p1520
(dp1521
Vstatus
p1522
I204
sVcomment
p1523
g4
sVcookies
p1524
(lp1525
sVstatusText
p1526
VNo Content
p1527
sVcontent
p1528
(dp1529
VmimeType
p1530
Vtext/html; charset=UTF-8
p1531
sVcomment
p1532
g4
sVsize
p1533
I0
ssVheaders
p1534
(lp1535
sVheadersSize
p1536
I248
sVredirectURL
p1537
g4
sVbodySize
p1538
I0
sVhttpVersion
p1539
VHTTP/1.1
p1540
ssa(dp1541
Vcomment
p1542
g4
sVserverIPAddress
p1543
V216.58.216.206
p1544
sVpageref
p1545
VMarcia Clark
p1546
sVstartedDateTime
p1547
V2017-04-16T08:19:30.092-05:00
p1548
sVcache
p1549
(dp1550
sVrequest
p1551
(dp1552
Vcomment
p1553
g4
sVcookies
p1554
(lp1555
sVurl
p1556
Vhttps://encrypted-tbn0.gstatic.com/images?q=tbn:ANd9GcTnUYxSyjE3TfmgpNXg96MKyXWZVldJI4FBaadIvSU47GBne9CKZGwsJo5x4wn_OKeuVl1o
p1557
sVqueryString
p1558
(lp1559
(dp1560
Vname
p1561
g415
sVvalue
p1562
Vtbn:ANd9GcTnUYxSyjE3TfmgpNXg96MKyXWZVldJI4FBaadIvSU47GBne9CKZGwsJo5x4wn_OKeuVl1o
p1563
sasVheaders
p1564
(lp1565
sVheadersSize
p1566
I439
sVbodySize
p1567
I0
sVmethod
p1568
VGET
p1569
sVhttpVersion
p1570
VHTTP/1.1
p1571
ssVtimings
p1572
(dp1573
Vcomment
p1574
g4
sVreceive
p1575
I0
sVsend
p1576
I0
sVssl
p1577
I-1
sVconnect
p1578
I-1
sVdns
p1579
I-1
sVwait
p1580
I22
sVblocked
p1581
I-1
ssVtime
p1582
I23
sVresponse
p1583
(dp1584
Vstatus
p1585
I200
sVcomment
p1586
g4
sVcookies
p1587
(lp1588
sVstatusText
p1589
VOK
p1590
sVcontent
p1591
(dp1592
VmimeType
p1593
Vimage/jpeg
p1594
sVcomment
p1595
g4
sVsize
p1596
I0
ssVheaders
p1597
(lp1598
sVheadersSize
p1599
I429
sVredirectURL
p1600
g4
sVbodySize
p1601
I5334
sVhttpVersion
p1602
VHTTP/1.1
p1603
ssa(dp1604
Vcomment
p1605
g4
sVserverIPAddress
p1606
V172.217.6.4
p1607
sVpageref
p1608
VMarcia Clark
p1609
sVstartedDateTime
p1610
V2017-04-16T08:19:30.093-05:00
p1611
sVcache
p1612
(dp1613
sVrequest
p1614
(dp1615
Vcomment
p1616
g4
sVcookies
p1617
(lp1618
sVurl
p1619
Vhttps://www.google.com/gen_204?atyp=i&ct=&cad=&vet=10ahUKEwjB5JSxiKnTAhVM2IMKHUpRD6oQtxAIgQEoBTAV..s&ei=X2_zWIG5B8ywjwTKor3QCg&zx=1492348769997
p1620
sVqueryString
p1621
(lp1622
(dp1623
Vname
p1624
Vatyp
p1625
sVvalue
p1626
g30
sa(dp1627
Vname
p1628
Vct
p1629
sVvalue
p1630
g4
sa(dp1631
Vname
p1632
Vcad
p1633
sVvalue
p1634
g4
sa(dp1635
Vname
p1636
Vvet
p1637
sVvalue
p1638
V10ahUKEwjB5JSxiKnTAhVM2IMKHUpRD6oQtxAIgQEoBTAV..s
p1639
sa(dp1640
Vname
p1641
Vei
p1642
sVvalue
p1643
VX2_zWIG5B8ywjwTKor3QCg
p1644
sa(dp1645
Vname
p1646
Vzx
p1647
sVvalue
p1648
V1492348769997
p1649
sasVheaders
p1650
(lp1651
sVheadersSize
p1652
I660
sVbodySize
p1653
I0
sVmethod
p1654
VGET
p1655
sVhttpVersion
p1656
VHTTP/1.1
p1657
ssVtimings
p1658
(dp1659
Vcomment
p1660
g4
sVreceive
p1661
I0
sVsend
p1662
I0
sVssl
p1663
I-1
sVconnect
p1664
I-1
sVdns
p1665
I-1
sVwait
p1666
I30
sVblocked
p1667
I-1
ssVtime
p1668
I30
sVresponse
p1669
(dp1670
Vstatus
p1671
I204
sVcomment
p1672
g4
sVcookies
p1673
(lp1674
sVstatusText
p1675
VNo Content
p1676
sVcontent
p1677
(dp1678
VmimeType
p1679
Vtext/html; charset=UTF-8
p1680
sVcomment
p1681
g4
sVsize
p1682
I0
ssVheaders
p1683
(lp1684
sVheadersSize
p1685
I248
sVredirectURL
p1686
g4
sVbodySize
p1687
I0
sVhttpVersion
p1688
VHTTP/1.1
p1689
ssa(dp1690
Vcomment
p1691
g4
sVserverIPAddress
p1692
V216.58.216.206
p1693
sVpageref
p1694
VMarcia Clark
p1695
sVstartedDateTime
p1696
V2017-04-16T08:19:30.094-05:00
p1697
sVcache
p1698
(dp1699
sVrequest
p1700
(dp1701
Vcomment
p1702
g4
sVcookies
p1703
(lp1704
sVurl
p1705
Vhttps://encrypted-tbn3.gstatic.com/images?q=tbn:ANd9GcRkmp14J0dVWNXP-w_4ETZRxQS6nrJlXkFOxCN5PWvBWClArNxlg03tfVGYAi96IMVoAnsb
p1706
sVqueryString
p1707
(lp1708
(dp1709
Vname
p1710
g415
sVvalue
p1711
Vtbn:ANd9GcRkmp14J0dVWNXP-w_4ETZRxQS6nrJlXkFOxCN5PWvBWClArNxlg03tfVGYAi96IMVoAnsb
p1712
sasVheaders
p1713
(lp1714
sVheadersSize
p1715
I439
sVbodySize
p1716
I0
sVmethod
p1717
VGET
p1718
sVhttpVersion
p1719
VHTTP/1.1
p1720
ssVtimings
p1721
(dp1722
Vcomment
p1723
g4
sVreceive
p1724
I2
sVsend
p1725
I0
sVssl
p1726
I-1
sVconnect
p1727
I-1
sVdns
p1728
I-1
sVwait
p1729
I18
sVblocked
p1730
I-1
ssVtime
p1731
I21
sVresponse
p1732
(dp1733
Vstatus
p1734
I200
sVcomment
p1735
g4
sVcookies
p1736
(lp1737
sVstatusText
p1738
VOK
p1739
sVcontent
p1740
(dp1741
VmimeType
p1742
Vimage/jpeg
p1743
sVcomment
p1744
g4
sVsize
p1745
I0
ssVheaders
p1746
(lp1747
sVheadersSize
p1748
I429
sVredirectURL
p1749
g4
sVbodySize
p1750
I6269
sVhttpVersion
p1751
VHTTP/1.1
p1752
ssa(dp1753
Vcomment
p1754
g4
sVserverIPAddress
p1755
V172.217.6.4
p1756
sVpageref
p1757
VMarcia Clark
p1758
sVstartedDateTime
p1759
V2017-04-16T08:19:30.095-05:00
p1760
sVcache
p1761
(dp1762
sVrequest
p1763
(dp1764
Vcomment
p1765
g4
sVcookies
p1766
(lp1767
sVurl
p1768
Vhttps://www.google.com/gen_204?atyp=i&ct=&cad=&vet=10ahUKEwjB5JSxiKnTAhVM2IMKHUpRD6oQtxAIgwEoBjAV..s&ei=X2_zWIG5B8ywjwTKor3QCg&zx=1492348770001
p1769
sVqueryString
p1770
(lp1771
(dp1772
Vname
p1773
Vatyp
p1774
sVvalue
p1775
g30
sa(dp1776
Vname
p1777
Vct
p1778
sVvalue
p1779
g4
sa(dp1780
Vname
p1781
Vcad
p1782
sVvalue
p1783
g4
sa(dp1784
Vname
p1785
Vvet
p1786
sVvalue
p1787
V10ahUKEwjB5JSxiKnTAhVM2IMKHUpRD6oQtxAIgwEoBjAV..s
p1788
sa(dp1789
Vname
p1790
Vei
p1791
sVvalue
p1792
VX2_zWIG5B8ywjwTKor3QCg
p1793
sa(dp1794
Vname
p1795
Vzx
p1796
sVvalue
p1797
V1492348770001
p1798
sasVheaders
p1799
(lp1800
sVheadersSize
p1801
I660
sVbodySize
p1802
I0
sVmethod
p1803
VGET
p1804
sVhttpVersion
p1805
VHTTP/1.1
p1806
ssVtimings
p1807
(dp1808
Vcomment
p1809
g4
sVreceive
p1810
I0
sVsend
p1811
I0
sVssl
p1812
I-1
sVconnect
p1813
I-1
sVdns
p1814
I-1
sVwait
p1815
I29
sVblocked
p1816
I-1
ssVtime
p1817
I29
sVresponse
p1818
(dp1819
Vstatus
p1820
I204
sVcomment
p1821
g4
sVcookies
p1822
(lp1823
sVstatusText
p1824
VNo Content
p1825
sVcontent
p1826
(dp1827
VmimeType
p1828
Vtext/html; charset=UTF-8
p1829
sVcomment
p1830
g4
sVsize
p1831
I0
ssVheaders
p1832
(lp1833
sVheadersSize
p1834
I248
sVredirectURL
p1835
g4
sVbodySize
p1836
I0
sVhttpVersion
p1837
VHTTP/1.1
p1838
ssa(dp1839
Vcomment
p1840
g4
sVserverIPAddress
p1841
V172.217.6.4
p1842
sVpageref
p1843
VMarcia Clark
p1844
sVstartedDateTime
p1845
V2017-04-16T08:19:30.096-05:00
p1846
sVcache
p1847
(dp1848
sVrequest
p1849
(dp1850
Vcomment
p1851
g4
sVcookies
p1852
(lp1853
sVurl
p1854
Vhttps://www.google.com/gen_204?atyp=i&ct=&cad=&vet=10ahUKEwjB5JSxiKnTAhVM2IMKHUpRD6oQtxAIhQEoBzAV..s&ei=X2_zWIG5B8ywjwTKor3QCg&zx=1492348770003
p1855
sVqueryString
p1856
(lp1857
(dp1858
Vname
p1859
Vatyp
p1860
sVvalue
p1861
g30
sa(dp1862
Vname
p1863
Vct
p1864
sVvalue
p1865
g4
sa(dp1866
Vname
p1867
Vcad
p1868
sVvalue
p1869
g4
sa(dp1870
Vname
p1871
Vvet
p1872
sVvalue
p1873
V10ahUKEwjB5JSxiKnTAhVM2IMKHUpRD6oQtxAIhQEoBzAV..s
p1874
sa(dp1875
Vname
p1876
Vei
p1877
sVvalue
p1878
VX2_zWIG5B8ywjwTKor3QCg
p1879
sa(dp1880
Vname
p1881
Vzx
p1882
sVvalue
p1883
V1492348770003
p1884
sasVheaders
p1885
(lp1886
sVheadersSize
p1887
I660
sVbodySize
p1888
I0
sVmethod
p1889
VGET
p1890
sVhttpVersion
p1891
VHTTP/1.1
p1892
ssVtimings
p1893
(dp1894
Vcomment
p1895
g4
sVreceive
p1896
I0
sVsend
p1897
I0
sVssl
p1898
I-1
sVconnect
p1899
I-1
sVdns
p1900
I-1
sVwait
p1901
I36
sVblocked
p1902
I-1
ssVtime
p1903
I36
sVresponse
p1904
(dp1905
Vstatus
p1906
I204
sVcomment
p1907
g4
sVcookies
p1908
(lp1909
sVstatusText
p1910
VNo Content
p1911
sVcontent
p1912
(dp1913
VmimeType
p1914
Vtext/html; charset=UTF-8
p1915
sVcomment
p1916
g4
sVsize
p1917
I0
ssVheaders
p1918
(lp1919
sVheadersSize
p1920
I248
sVredirectURL
p1921
g4
sVbodySize
p1922
I0
sVhttpVersion
p1923
VHTTP/1.1
p1924
ssa(dp1925
Vcomment
p1926
g4
sVserverIPAddress
p1927
V172.217.6.4
p1928
sVpageref
p1929
VMarcia Clark
p1930
sVstartedDateTime
p1931
V2017-04-16T08:19:30.100-05:00
p1932
sVcache
p1933
(dp1934
sVrequest
p1935
(dp1936
Vcomment
p1937
g4
sVcookies
p1938
(lp1939
sVurl
p1940
Vhttps://www.google.com/gen_204?atyp=i&ct=&cad=&vet=10ahUKEwjB5JSxiKnTAhVM2IMKHUpRD6oQlpQBCIcBKAgwFQ..s&ei=X2_zWIG5B8ywjwTKor3QCg&zx=1492348770009
p1941
sVqueryString
p1942
(lp1943
(dp1944
Vname
p1945
Vatyp
p1946
sVvalue
p1947
g30
sa(dp1948
Vname
p1949
Vct
p1950
sVvalue
p1951
g4
sa(dp1952
Vname
p1953
Vcad
p1954
sVvalue
p1955
g4
sa(dp1956
Vname
p1957
Vvet
p1958
sVvalue
p1959
V10ahUKEwjB5JSxiKnTAhVM2IMKHUpRD6oQlpQBCIcBKAgwFQ..s
p1960
sa(dp1961
Vname
p1962
Vei
p1963
sVvalue
p1964
VX2_zWIG5B8ywjwTKor3QCg
p1965
sa(dp1966
Vname
p1967
Vzx
p1968
sVvalue
p1969
V1492348770009
p1970
sasVheaders
p1971
(lp1972
sVheadersSize
p1973
I662
sVbodySize
p1974
I0
sVmethod
p1975
VGET
p1976
sVhttpVersion
p1977
VHTTP/1.1
p1978
ssVtimings
p1979
(dp1980
Vcomment
p1981
g4
sVreceive
p1982
I0
sVsend
p1983
I0
sVssl
p1984
I-1
sVconnect
p1985
I-1
sVdns
p1986
I-1
sVwait
p1987
I32
sVblocked
p1988
I-1
ssVtime
p1989
I32
sVresponse
p1990
(dp1991
Vstatus
p1992
I204
sVcomment
p1993
g4
sVcookies
p1994
(lp1995
sVstatusText
p1996
VNo Content
p1997
sVcontent
p1998
(dp1999
VmimeType
p2000
Vtext/html; charset=UTF-8
p2001
sVcomment
p2002
g4
sVsize
p2003
I0
ssVheaders
p2004
(lp2005
sVheadersSize
p2006
I248
sVredirectURL
p2007
g4
sVbodySize
p2008
I0
sVhttpVersion
p2009
VHTTP/1.1
p2010
ssa(dp2011
Vcomment
p2012
g4
sVserverIPAddress
p2013
V172.217.6.4
p2014
sVpageref
p2015
VMarcia Clark
p2016
sVstartedDateTime
p2017
V2017-04-16T08:19:30.106-05:00
p2018
sVcache
p2019
(dp2020
sVrequest
p2021
(dp2022
Vcomment
p2023
g4
sVcookies
p2024
(lp2025
sVurl
p2026
Vhttps://www.google.com/async/ampfp?vet=10ahUKEwjB5JSxiKnTAhVM2IMKHUpRD6oQtZoBCJIC..i&ei=X2_zWIG5B8ywjwTKor3QCg&yv=2&async=_id:ampfp-async,_pms:qs
p2027
sVqueryString
p2028
(lp2029
(dp2030
Vname
p2031
Vvet
p2032
sVvalue
p2033
V10ahUKEwjB5JSxiKnTAhVM2IMKHUpRD6oQtZoBCJIC..i
p2034
sa(dp2035
Vname
p2036
Vei
p2037
sVvalue
p2038
VX2_zWIG5B8ywjwTKor3QCg
p2039
sa(dp2040
Vname
p2041
Vyv
p2042
sVvalue
p2043
g64
sa(dp2044
Vname
p2045
Vasync
p2046
sVvalue
p2047
V_id:ampfp-async,_pms:qs
p2048
sasVheaders
p2049
(lp2050
sVheadersSize
p2051
I662
sVbodySize
p2052
I0
sVmethod
p2053
VGET
p2054
sVhttpVersion
p2055
VHTTP/1.1
p2056
ssVtimings
p2057
(dp2058
Vcomment
p2059
g4
sVreceive
p2060
I0
sVsend
p2061
I0
sVssl
p2062
I-1
sVconnect
p2063
I-1
sVdns
p2064
I-1
sVwait
p2065
I46
sVblocked
p2066
I-1
ssVtime
p2067
I47
sVresponse
p2068
(dp2069
Vstatus
p2070
I200
sVcomment
p2071
g4
sVcookies
p2072
(lp2073
sVstatusText
p2074
VOK
p2075
sVcontent
p2076
(dp2077
VmimeType
p2078
Vtext/html; charset=UTF-8
p2079
sVcomment
p2080
g4
sVsize
p2081
I0
ssVheaders
p2082
(lp2083
sVheadersSize
p2084
I383
sVredirectURL
p2085
g4
sVbodySize
p2086
I4528
sVhttpVersion
p2087
VHTTP/1.1
p2088
ssa(dp2089
Vcomment
p2090
g4
sVserverIPAddress
p2091
V216.58.216.193
p2092
sVpageref
p2093
VMarcia Clark
p2094
sVstartedDateTime
p2095
V2017-04-16T08:19:30.107-05:00
p2096
sVcache
p2097
(dp2098
sVrequest
p2099
(dp2100
Vcomment
p2101
g4
sVcookies
p2102
(lp2103
sVurl
p2104
Vhttps://cdn.ampproject.org/preconnect.gif?0.38782652887352875
p2105
sVqueryString
p2106
(lp2107
(dp2108
Vname
p2109
V0.38782652887352875
p2110
sVvalue
p2111
g4
sasVheaders
p2112
(lp2113
sVheadersSize
p2114
I376
sVbodySize
p2115
I0
sVmethod
p2116
VGET
p2117
sVhttpVersion
p2118
VHTTP/1.1
p2119
ssVtimings
p2120
(dp2121
Vcomment
p2122
g4
sVreceive
p2123
I0
sVsend
p2124
I0
sVssl
p2125
I-1
sVconnect
p2126
I-1
sVdns
p2127
I-1
sVwait
p2128
I39
sVblocked
p2129
I-1
ssVtime
p2130
I40
sVresponse
p2131
(dp2132
Vstatus
p2133
I200
sVcomment
p2134
g4
sVcookies
p2135
(lp2136
sVstatusText
p2137
VOK
p2138
sVcontent
p2139
(dp2140
VmimeType
p2141
Vimage/gif
p2142
sVcomment
p2143
g4
sVsize
p2144
I0
ssVheaders
p2145
(lp2146
sVheadersSize
p2147
I826
sVredirectURL
p2148
g4
sVbodySize
p2149
I37
sVhttpVersion
p2150
VHTTP/1.1
p2151
ssa(dp2152
Vcomment
p2153
g4
sVserverIPAddress
p2154
V216.58.216.206
p2155
sVpageref
p2156
VMarcia Clark
p2157
sVstartedDateTime
p2158
V2017-04-16T08:19:30.136-05:00
p2159
sVcache
p2160
(dp2161
sVrequest
p2162
(dp2163
Vcomment
p2164
g4
sVcookies
p2165
(lp2166
sVurl
p2167
Vhttps://encrypted-tbn3.gstatic.com/images?q=tbn:ANd9GcSruPIq_OcZG1K2QPe7QXgxbkgnZlTKjmVXlbOsaJQOl4_SGLi5zu2kxNc
p2168
sVqueryString
p2169
(lp2170
(dp2171
Vname
p2172
g415
sVvalue
p2173
Vtbn:ANd9GcSruPIq_OcZG1K2QPe7QXgxbkgnZlTKjmVXlbOsaJQOl4_SGLi5zu2kxNc
p2174
sasVheaders
p2175
(lp2176
sVheadersSize
p2177
I426
sVbodySize
p2178
I0
sVmethod
p2179
VGET
p2180
sVhttpVersion
p2181
VHTTP/1.1
p2182
ssVtimings
p2183
(dp2184
Vcomment
p2185
g4
sVreceive
p2186
I0
sVsend
p2187
I1
sVssl
p2188
I-1
sVconnect
p2189
I-1
sVdns
p2190
I-1
sVwait
p2191
I21
sVblocked
p2192
I-1
ssVtime
p2193
I23
sVresponse
p2194
(dp2195
Vstatus
p2196
I200
sVcomment
p2197
g4
sVcookies
p2198
(lp2199
sVstatusText
p2200
VOK
p2201
sVcontent
p2202
(dp2203
VmimeType
p2204
Vimage/jpeg
p2205
sVcomment
p2206
g4
sVsize
p2207
I0
ssVheaders
p2208
(lp2209
sVheadersSize
p2210
I428
sVredirectURL
p2211
g4
sVbodySize
p2212
I3889
sVhttpVersion
p2213
VHTTP/1.1
p2214
ssa(dp2215
Vcomment
p2216
g4
sVserverIPAddress
p2217
V216.58.216.206
p2218
sVpageref
p2219
VMarcia Clark
p2220
sVstartedDateTime
p2221
V2017-04-16T08:19:30.138-05:00
p2222
sVcache
p2223
(dp2224
sVrequest
p2225
(dp2226
Vcomment
p2227
g4
sVcookies
p2228
(lp2229
sVurl
p2230
Vhttps://encrypted-tbn0.gstatic.com/images?q=tbn:ANd9GcR4Oztnbo8mMTy2Z9E1fWaxhp6Vc8Z8MyPXPgFR9exjsEaNwQstpzYUsk09
p2231
sVqueryString
p2232
(lp2233
(dp2234
Vname
p2235
g415
sVvalue
p2236
Vtbn:ANd9GcR4Oztnbo8mMTy2Z9E1fWaxhp6Vc8Z8MyPXPgFR9exjsEaNwQstpzYUsk09
p2237
sasVheaders
p2238
(lp2239
sVheadersSize
p2240
I427
sVbodySize
p2241
I0
sVmethod
p2242
VGET
p2243
sVhttpVersion
p2244
VHTTP/1.1
p2245
ssVtimings
p2246
(dp2247
Vcomment
p2248
g4
sVreceive
p2249
I1
sVsend
p2250
I0
sVssl
p2251
I-1
sVconnect
p2252
I-1
sVdns
p2253
I-1
sVwait
p2254
I26
sVblocked
p2255
I-1
ssVtime
p2256
I28
sVresponse
p2257
(dp2258
Vstatus
p2259
I200
sVcomment
p2260
g4
sVcookies
p2261
(lp2262
sVstatusText
p2263
VOK
p2264
sVcontent
p2265
(dp2266
VmimeType
p2267
Vimage/jpeg
p2268
sVcomment
p2269
g4
sVsize
p2270
I0
ssVheaders
p2271
(lp2272
sVheadersSize
p2273
I428
sVredirectURL
p2274
g4
sVbodySize
p2275
I3040
sVhttpVersion
p2276
VHTTP/1.1
p2277
ssa(dp2278
Vcomment
p2279
g4
sVserverIPAddress
p2280
V216.58.216.206
p2281
sVpageref
p2282
VMarcia Clark
p2283
sVstartedDateTime
p2284
V2017-04-16T08:19:30.150-05:00
p2285
sVcache
p2286
(dp2287
sVrequest
p2288
(dp2289
Vcomment
p2290
g4
sVcookies
p2291
(lp2292
sVurl
p2293
Vhttps://encrypted-tbn3.gstatic.com/images?q=tbn:ANd9GcRXXKXCVodYjngoKmG64I5f4PoMY4e8Nfrzlh8yh8rBNkC9M9CjDPxClRIOu4AdujNUTXPn
p2294
sVqueryString
p2295
(lp2296
(dp2297
Vname
p2298
g415
sVvalue
p2299
Vtbn:ANd9GcRXXKXCVodYjngoKmG64I5f4PoMY4e8Nfrzlh8yh8rBNkC9M9CjDPxClRIOu4AdujNUTXPn
p2300
sasVheaders
p2301
(lp2302
sVheadersSize
p2303
I439
sVbodySize
p2304
I0
sVmethod
p2305
VGET
p2306
sVhttpVersion
p2307
VHTTP/1.1
p2308
ssVtimings
p2309
(dp2310
Vcomment
p2311
g4
sVreceive
p2312
I1
sVsend
p2313
I0
sVssl
p2314
I32
sVconnect
p2315
I50
sVdns
p2316
I2
sVwait
p2317
I15
sVblocked
p2318
I0
ssVtime
p2319
I69
sVresponse
p2320
(dp2321
Vstatus
p2322
I200
sVcomment
p2323
g4
sVcookies
p2324
(lp2325
sVstatusText
p2326
VOK
p2327
sVcontent
p2328
(dp2329
VmimeType
p2330
Vimage/jpeg
p2331
sVcomment
p2332
g4
sVsize
p2333
I0
ssVheaders
p2334
(lp2335
sVheadersSize
p2336
I429
sVredirectURL
p2337
g4
sVbodySize
p2338
I8081
sVhttpVersion
p2339
VHTTP/1.1
p2340
ssa(dp2341
Vcomment
p2342
g4
sVserverIPAddress
p2343
V172.217.6.4
p2344
sVpageref
p2345
VMarcia Clark
p2346
sVstartedDateTime
p2347
V2017-04-16T08:19:30.310-05:00
p2348
sVcache
p2349
(dp2350
sVrequest
p2351
(dp2352
Vcomment
p2353
g4
sVcookies
p2354
(lp2355
sVurl
p2356
Vhttps://www.google.com/async/log_amp_item_set?vet=10ahUKEwjxr46yiKnTAhUW24MKHbubAAcQooQBCAE..i&ei=X2_zWIG5B8ywjwTKor3QCg&yv=2&async=num_items:1,_fmt:jspb
p2357
sVqueryString
p2358
(lp2359
(dp2360
Vname
p2361
Vvet
p2362
sVvalue
p2363
V10ahUKEwjxr46yiKnTAhUW24MKHbubAAcQooQBCAE..i
p2364
sa(dp2365
Vname
p2366
Vei
p2367
sVvalue
p2368
VX2_zWIG5B8ywjwTKor3QCg
p2369
sa(dp2370
Vname
p2371
Vyv
p2372
sVvalue
p2373
g64
sa(dp2374
Vname
p2375
Vasync
p2376
sVvalue
p2377
Vnum_items:1,_fmt:jspb
p2378
sasVheaders
p2379
(lp2380
sVheadersSize
p2381
I670
sVbodySize
p2382
I0
sVmethod
p2383
VGET
p2384
sVhttpVersion
p2385
VHTTP/1.1
p2386
ssVtimings
p2387
(dp2388
Vcomment
p2389
g4
sVreceive
p2390
I0
sVsend
p2391
I0
sVssl
p2392
I-1
sVconnect
p2393
I-1
sVdns
p2394
I-1
sVwait
p2395
I31
sVblocked
p2396
I-1
ssVtime
p2397
I32
sVresponse
p2398
(dp2399
Vstatus
p2400
I200
sVcomment
p2401
g4
sVcookies
p2402
(lp2403
sVstatusText
p2404
VOK
p2405
sVcontent
p2406
(dp2407
VmimeType
p2408
Vapplication/json; charset=UTF-8
p2409
sVcomment
p2410
g4
sVsize
p2411
I0
ssVheaders
p2412
(lp2413
sVheadersSize
p2414
I417
sVredirectURL
p2415
g4
sVbodySize
p2416
I132
sVhttpVersion
p2417
VHTTP/1.1
p2418
ssa(dp2419
Vcomment
p2420
g4
sVserverIPAddress
p2421
V216.58.216.193
p2422
sVpageref
p2423
VMarcia Clark
p2424
sVstartedDateTime
p2425
V2017-04-16T08:19:30.680-05:00
p2426
sVcache
p2427
(dp2428
sVrequest
p2429
(dp2430
Vcomment
p2431
g4
sVcookies
p2432
(lp2433
sVurl
p2434
Vhttps://www-vanityfair-com.cdn.ampproject.org/v/www.vanityfair.com/hollywood/2016/03/marcia-clark-topless-photos-people-v-oj-simpson-american-crime-story/amp?amp_js_v=9
p2435
sVqueryString
p2436
(lp2437
(dp2438
Vname
p2439
Vamp_js_v
p2440
sVvalue
p2441
V9
p2442
sasVheaders
p2443
(lp2444
sVheadersSize
p2445
I573
sVbodySize
p2446
I0
sVmethod
p2447
VGET
p2448
sVhttpVersion
p2449
VHTTP/1.1
p2450
ssVtimings
p2451
(dp2452
Vcomment
p2453
g4
sVreceive
p2454
I3
sVsend
p2455
I0
sVssl
p2456
I307
sVconnect
p2457
I322
sVdns
p2458
I41
sVwait
p2459
I116
sVblocked
p2460
I0
ssVtime
p2461
I483
sVresponse
p2462
(dp2463
Vstatus
p2464
I200
sVcomment
p2465
g4
sVcookies
p2466
(lp2467
sVstatusText
p2468
VOK
p2469
sVcontent
p2470
(dp2471
VmimeType
p2472
Vtext/html
p2473
sVcomment
p2474
g4
sVsize
p2475
I0
ssVheaders
p2476
(lp2477
sVheadersSize
p2478
I860
sVredirectURL
p2479
g4
sVbodySize
p2480
I14049
sVhttpVersion
p2481
VHTTP/1.1
p2482
ssa(dp2483
Vcomment
p2484
g4
sVserverIPAddress
p2485
V216.58.216.193
p2486
sVpageref
p2487
VMarcia Clark
p2488
sVstartedDateTime
p2489
V2017-04-16T08:19:30.815-05:00
p2490
sVcache
p2491
(dp2492
sVrequest
p2493
(dp2494
Vcomment
p2495
g4
sVcookies
p2496
(lp2497
sVurl
p2498
Vhttps://www-vanityfair-com.cdn.ampproject.org/r/www.vanityfair.com/shared-fonts/VFSans/VFSans-Book.woff2
p2499
sVqueryString
p2500
(lp2501
sVheaders
p2502
(lp2503
sVheadersSize
p2504
I668
sVbodySize
p2505
I0
sVmethod
p2506
VGET
p2507
sVhttpVersion
p2508
VHTTP/1.1
p2509
ssVtimings
p2510
(dp2511
Vcomment
p2512
g4
sVreceive
p2513
I0
sVsend
p2514
I0
sVssl
p2515
I-1
sVconnect
p2516
I-1
sVdns
p2517
I-1
sVwait
p2518
I24
sVblocked
p2519
I-1
ssVtime
p2520
I24
sVresponse
p2521
(dp2522
Vstatus
p2523
I304
sVcomment
p2524
g4
sVcookies
p2525
(lp2526
sVstatusText
p2527
VNot Modified
p2528
sVcontent
p2529
(dp2530
VmimeType
p2531
Vapplication/font-woff2
p2532
sVcomment
p2533
g4
sVsize
p2534
I0
ssVheaders
p2535
(lp2536
sVheadersSize
p2537
I356
sVredirectURL
p2538
g4
sVbodySize
p2539
I0
sVhttpVersion
p2540
VHTTP/1.1
p2541
ssa(dp2542
Vcomment
p2543
g4
sVserverIPAddress
p2544
V216.58.216.193
p2545
sVpageref
p2546
VMarcia Clark
p2547
sVstartedDateTime
p2548
V2017-04-16T08:19:30.851-05:00
p2549
sVcache
p2550
(dp2551
sVrequest
p2552
(dp2553
Vcomment
p2554
g4
sVcookies
p2555
(lp2556
sVurl
p2557
Vhttps://www-vanityfair-com.cdn.ampproject.org/r/www.vanityfair.com/shared-fonts/VF-Didot-3/VF-Didot-3-Web-Regular.woff2
p2558
sVqueryString
p2559
(lp2560
sVheaders
p2561
(lp2562
sVheadersSize
p2563
I683
sVbodySize
p2564
I0
sVmethod
p2565
VGET
p2566
sVhttpVersion
p2567
VHTTP/1.1
p2568
ssVtimings
p2569
(dp2570
Vcomment
p2571
g4
sVreceive
p2572
I0
sVsend
p2573
I0
sVssl
p2574
I19
sVconnect
p2575
I32
sVdns
p2576
I0
sVwait
p2577
I53
sVblocked
p2578
I0
ssVtime
p2579
I85
sVresponse
p2580
(dp2581
Vstatus
p2582
I304
sVcomment
p2583
g4
sVcookies
p2584
(lp2585
sVstatusText
p2586
VNot Modified
p2587
sVcontent
p2588
(dp2589
VmimeType
p2590
Vapplication/font-woff2
p2591
sVcomment
p2592
g4
sVsize
p2593
I0
ssVheaders
p2594
(lp2595
sVheadersSize
p2596
I356
sVredirectURL
p2597
g4
sVbodySize
p2598
I0
sVhttpVersion
p2599
VHTTP/1.1
p2600
ssa(dp2601
Vcomment
p2602
g4
sVserverIPAddress
p2603
V216.58.216.193
p2604
sVpageref
p2605
VMarcia Clark
p2606
sVstartedDateTime
p2607
V2017-04-16T08:19:30.862-05:00
p2608
sVcache
p2609
(dp2610
sVrequest
p2611
(dp2612
Vcomment
p2613
g4
sVcookies
p2614
(lp2615
sVurl
p2616
Vhttps://www-vanityfair-com.cdn.ampproject.org/r/www.vanityfair.com/shared-fonts/VF-Didot-6/VF-Didot-6-Web-Regular.woff2
p2617
sVqueryString
p2618
(lp2619
sVheaders
p2620
(lp2621
sVheadersSize
p2622
I683
sVbodySize
p2623
I0
sVmethod
p2624
VGET
p2625
sVhttpVersion
p2626
VHTTP/1.1
p2627
ssVtimings
p2628
(dp2629
Vcomment
p2630
g4
sVreceive
p2631
I0
sVsend
p2632
I0
sVssl
p2633
I29
sVconnect
p2634
I42
sVdns
p2635
I0
sVwait
p2636
I46
sVblocked
p2637
I0
ssVtime
p2638
I89
sVresponse
p2639
(dp2640
Vstatus
p2641
I304
sVcomment
p2642
g4
sVcookies
p2643
(lp2644
sVstatusText
p2645
VNot Modified
p2646
sVcontent
p2647
(dp2648
VmimeType
p2649
Vapplication/font-woff2
p2650
sVcomment
p2651
g4
sVsize
p2652
I0
ssVheaders
p2653
(lp2654
sVheadersSize
p2655
I356
sVredirectURL
p2656
g4
sVbodySize
p2657
I0
sVhttpVersion
p2658
VHTTP/1.1
p2659
ssa(dp2660
Vcomment
p2661
g4
sVserverIPAddress
p2662
V216.58.216.193
p2663
sVpageref
p2664
VMarcia Clark
p2665
sVstartedDateTime
p2666
V2017-04-16T08:19:30.862-05:00
p2667
sVcache
p2668
(dp2669
sVrequest
p2670
(dp2671
Vcomment
p2672
g4
sVcookies
p2673
(lp2674
sVurl
p2675
Vhttps://www-vanityfair-com.cdn.ampproject.org/r/www.vanityfair.com/shared-fonts/VFSans-MD/VFSans-Medium.woff2
p2676
sVqueryString
p2677
(lp2678
sVheaders
p2679
(lp2680
sVheadersSize
p2681
I673
sVbodySize
p2682
I0
sVmethod
p2683
VGET
p2684
sVhttpVersion
p2685
VHTTP/1.1
p2686
ssVtimings
p2687
(dp2688
Vcomment
p2689
g4
sVreceive
p2690
I0
sVsend
p2691
I0
sVssl
p2692
I20
sVconnect
p2693
I41
sVdns
p2694
I0
sVwait
p2695
I46
sVblocked
p2696
I0
ssVtime
p2697
I88
sVresponse
p2698
(dp2699
Vstatus
p2700
I304
sVcomment
p2701
g4
sVcookies
p2702
(lp2703
sVstatusText
p2704
VNot Modified
p2705
sVcontent
p2706
(dp2707
VmimeType
p2708
Vapplication/font-woff2
p2709
sVcomment
p2710
g4
sVsize
p2711
I0
ssVheaders
p2712
(lp2713
sVheadersSize
p2714
I356
sVredirectURL
p2715
g4
sVbodySize
p2716
I0
sVhttpVersion
p2717
VHTTP/1.1
p2718
ssa(dp2719
Vcomment
p2720
g4
sVserverIPAddress
p2721
V216.58.216.193
p2722
sVpageref
p2723
VMarcia Clark
p2724
sVstartedDateTime
p2725
V2017-04-16T08:19:30.866-05:00
p2726
sVcache
p2727
(dp2728
sVrequest
p2729
(dp2730
Vcomment
p2731
g4
sVcookies
p2732
(lp2733
sVurl
p2734
Vhttps://www-vanityfair-com.cdn.ampproject.org/r/www.vanityfair.com/shared-fonts/VF-Didot-3/VF-Didot-3-Web-Regular-Italic.woff2
p2735
sVqueryString
p2736
(lp2737
sVheaders
p2738
(lp2739
sVheadersSize
p2740
I690
sVbodySize
p2741
I0
sVmethod
p2742
VGET
p2743
sVhttpVersion
p2744
VHTTP/1.1
p2745
ssVtimings
p2746
(dp2747
Vcomment
p2748
g4
sVreceive
p2749
I0
sVsend
p2750
I0
sVssl
p2751
I23
sVconnect
p2752
I39
sVdns
p2753
I0
sVwait
p2754
I44
sVblocked
p2755
I0
ssVtime
p2756
I84
sVresponse
p2757
(dp2758
Vstatus
p2759
I304
sVcomment
p2760
g4
sVcookies
p2761
(lp2762
sVstatusText
p2763
VNot Modified
p2764
sVcontent
p2765
(dp2766
VmimeType
p2767
Vapplication/font-woff2
p2768
sVcomment
p2769
g4
sVsize
p2770
I0
ssVheaders
p2771
(lp2772
sVheadersSize
p2773
I356
sVredirectURL
p2774
g4
sVbodySize
p2775
I0
sVhttpVersion
p2776
VHTTP/1.1
p2777
ssa(dp2778
Vcomment
p2779
g4
sVserverIPAddress
p2780
V216.58.216.193
p2781
sVpageref
p2782
VMarcia Clark
p2783
sVstartedDateTime
p2784
V2017-04-16T08:19:31.490-05:00
p2785
sVcache
p2786
(dp2787
sVrequest
p2788
(dp2789
Vcomment
p2790
g4
sVcookies
p2791
(lp2792
sVurl
p2793
Vhttps://media-vanityfair-com.cdn.ampproject.org/i/s/media.vanityfair.com/photos/56df3676168b55d421ffda23/master/w_1200,c_limit/marcia-clark-american-crime-story-sarah-paulson.jpg
p2794
sVqueryString
p2795
(lp2796
sVheaders
p2797
(lp2798
sVheadersSize
p2799
I638
sVbodySize
p2800
I0
sVmethod
p2801
VGET
p2802
sVhttpVersion
p2803
VHTTP/1.1
p2804
ssVtimings
p2805
(dp2806
Vcomment
p2807
g4
sVreceive
p2808
I125
sVsend
p2809
I0
sVssl
p2810
I472
sVconnect
p2811
I492
sVdns
p2812
I39
sVwait
p2813
I103
sVblocked
p2814
I0
ssVtime
p2815
I760
sVresponse
p2816
(dp2817
Vstatus
p2818
I200
sVcomment
p2819
g4
sVcookies
p2820
(lp2821
sVstatusText
p2822
VOK
p2823
sVcontent
p2824
(dp2825
VmimeType
p2826
Vimage/jpeg
p2827
sVcomment
p2828
g4
sVsize
p2829
I0
ssVheaders
p2830
(lp2831
sVheadersSize
p2832
I845
sVredirectURL
p2833
g4
sVbodySize
p2834
I108337
sVhttpVersion
p2835
VHTTP/1.1
p2836
ssa(dp2837
Vcomment
p2838
g4
sVserverIPAddress
p2839
V172.217.6.4
p2840
sVpageref
p2841
VMarcia Clark
p2842
sVstartedDateTime
p2843
V2017-04-16T08:19:31.758-05:00
p2844
sVcache
p2845
(dp2846
sVrequest
p2847
(dp2848
Vcomment
p2849
g4
sVcookies
p2850
(lp2851
sVurl
p2852
Vhttps://www.google.com/gen_204?s=web&atyp=csi&ei=X2_zWIG5B8ywjwTKor3QCg&imc=47&imn=47&imp=26&adh=&xjs=init.78.14.sb_mob.60.dvl.6.mbsf.3.jsa.3.async.2&ima=17&rt=prt.705,iml.862,xjsls.705,qiml.1054,dcl.909,xjses.1021,xjsee.1323,xjs.1324,ol.3476,aft.857,wsrt.144,cst.0,dnst.0,rqst.805,rspt.706,rqstt.3,unt.2,cstt.2,dit.986
p2853
sVqueryString
p2854
(lp2855
(dp2856
Vname
p2857
g57
sVvalue
p2858
Vweb
p2859
sa(dp2860
Vname
p2861
Vatyp
p2862
sVvalue
p2863
Vcsi
p2864
sa(dp2865
Vname
p2866
Vei
p2867
sVvalue
p2868
VX2_zWIG5B8ywjwTKor3QCg
p2869
sa(dp2870
Vname
p2871
Vimc
p2872
sVvalue
p2873
V47
p2874
sa(dp2875
Vname
p2876
Vimn
p2877
sVvalue
p2878
V47
p2879
sa(dp2880
Vname
p2881
Vimp
p2882
sVvalue
p2883
V26
p2884
sa(dp2885
Vname
p2886
Vadh
p2887
sVvalue
p2888
g4
sa(dp2889
Vname
p2890
Vxjs
p2891
sVvalue
p2892
Vinit.78.14.sb_mob.60.dvl.6.mbsf.3.jsa.3.async.2
p2893
sa(dp2894
Vname
p2895
Vima
p2896
sVvalue
p2897
V17
p2898
sa(dp2899
Vname
p2900
Vrt
p2901
sVvalue
p2902
Vprt.705,iml.862,xjsls.705,qiml.1054,dcl.909,xjses.1021,xjsee.1323,xjs.1324,ol.3476,aft.857,wsrt.144,cst.0,dnst.0,rqst.805,rspt.706,rqstt.3,unt.2,cstt.2,dit.986
p2903
sasVheaders
p2904
(lp2905
sVheadersSize
p2906
I836
sVbodySize
p2907
I0
sVmethod
p2908
VGET
p2909
sVhttpVersion
p2910
VHTTP/1.1
p2911
ssVtimings
p2912
(dp2913
Vcomment
p2914
g4
sVreceive
p2915
I0
sVsend
p2916
I0
sVssl
p2917
I-1
sVconnect
p2918
I-1
sVdns
p2919
I-1
sVwait
p2920
I67
sVblocked
p2921
I-1
ssVtime
p2922
I67
sVresponse
p2923
(dp2924
Vstatus
p2925
I204
sVcomment
p2926
g4
sVcookies
p2927
(lp2928
sVstatusText
p2929
VNo Content
p2930
sVcontent
p2931
(dp2932
VmimeType
p2933
Vtext/html; charset=UTF-8
p2934
sVcomment
p2935
g4
sVsize
p2936
I0
ssVheaders
p2937
(lp2938
sVheadersSize
p2939
I248
sVredirectURL
p2940
g4
sVbodySize
p2941
I0
sVhttpVersion
p2942
VHTTP/1.1
p2943
ssa(dp2944
Vcomment
p2945
g4
sVserverIPAddress
p2946
V172.217.6.4
p2947
sVpageref
p2948
VMarcia Clark
p2949
sVstartedDateTime
p2950
V2017-04-16T08:19:32.076-05:00
p2951
sVcache
p2952
(dp2953
sVrequest
p2954
(dp2955
Vcomment
p2956
g4
sVcookies
p2957
(lp2958
sVurl
p2959
Vhttps://www.google.com/gen_204?atyp=i&ct=slh&cad=&ei=Tm_zWJP1MImYjwT82qbgAQ&m=V&t=C&s=1&v=2&pv=0.5590618495430177&me=1:1492348753240,x:2,V,0,0,1280,944:0,N,1,Tm_zWJP1MImYjwT82qbgAQ:0,R,1,24,8,155,1249,359:0,R,1,25,8,199,1249,315:0,R,1,26,0,199,1265,335:0,R,1,57,8,524,1249,437:0,R,1,58,8,524,1249,437:0,R,1,61,8,537,1249,40:0,R,1,74,8,589,1249,178:0,R,1,77,0,605,1265,197:0,R,1,117,8,784,1249,40:0,R,1,118,24,784,1217,40:0,R,1,128,8,840,1249,20:0,R,1,131,8,868,1249,20:2,B,3288:14295,e,U&zx=1492348772075
p2960
sVqueryString
p2961
(lp2962
(dp2963
Vname
p2964
Vatyp
p2965
sVvalue
p2966
g30
sa(dp2967
Vname
p2968
Vct
p2969
sVvalue
p2970
Vslh
p2971
sa(dp2972
Vname
p2973
Vcad
p2974
sVvalue
p2975
g4
sa(dp2976
Vname
p2977
Vei
p2978
sVvalue
p2979
VTm_zWJP1MImYjwT82qbgAQ
p2980
sa(dp2981
Vname
p2982
g47
sVvalue
p2983
g49
sa(dp2984
Vname
p2985
g52
sVvalue
p2986
g54
sa(dp2987
Vname
p2988
g57
sVvalue
p2989
g59
sa(dp2990
Vname
p2991
g62
sVvalue
p2992
g64
sa(dp2993
Vname
p2994
Vpv
p2995
sVvalue
p2996
V0.5590618495430177
p2997
sa(dp2998
Vname
p2999
Vme
p3000
sVvalue
p3001
V1:1492348753240,x:2,V,0,0,1280,944:0,N,1,Tm_zWJP1MImYjwT82qbgAQ:0,R,1,24,8,155,1249,359:0,R,1,25,8,199,1249,315:0,R,1,26,0,199,1265,335:0,R,1,57,8,524,1249,437:0,R,1,58,8,524,1249,437:0,R,1,61,8,537,1249,40:0,R,1,74,8,589,1249,178:0,R,1,77,0,605,1265,197:0,R,1,117,8,784,1249,40:0,R,1,118,24,784,1217,40:0,R,1,128,8,840,1249,20:0,R,1,131,8,868,1249,20:2,B,3288:14295,e,U
p3002
sa(dp3003
Vname
p3004
Vzx
p3005
sVvalue
p3006
V1492348772075
p3007
sasVheaders
p3008
(lp3009
sVheadersSize
p3010
I1021
sVbodySize
p3011
I0
sVmethod
p3012
VGET
p3013
sVhttpVersion
p3014
VHTTP/1.1
p3015
ssVtimings
p3016
(dp3017
Vcomment
p3018
g4
sVreceive
p3019
I0
sVsend
p3020
I0
sVssl
p3021
I-1
sVconnect
p3022
I-1
sVdns
p3023
I-1
sVwait
p3024
I124
sVblocked
p3025
I-1
ssVtime
p3026
I124
sVresponse
p3027
(dp3028
Vstatus
p3029
I204
sVcomment
p3030
g4
sVcookies
p3031
(lp3032
sVstatusText
p3033
VNo Content
p3034
sVcontent
p3035
(dp3036
VmimeType
p3037
Vtext/html; charset=UTF-8
p3038
sVcomment
p3039
g4
sVsize
p3040
I0
ssVheaders
p3041
(lp3042
sVheadersSize
p3043
I248
sVredirectURL
p3044
g4
sVbodySize
p3045
I0
sVhttpVersion
p3046
VHTTP/1.1
p3047
ssasVversion
p3048
V1.2
p3049
sVpages
p3050
(lp3051
(dp3052
VpageTimings
p3053
(dp3054
Vcomment
p3055
g4
ssVcomment
p3056
g4
sVtitle
p3057
VMarcia Clark
p3058
sVid
p3059
VMarcia Clark
p3060
sVstartedDateTime
p3061
V2017-04-16T08:19:27.532-05:00
p3062
sasVcreator
p3063
(dp3064
Vcomment
p3065
g4
sVversion
p3066
V2.1.4
p3067
sVname
p3068
VBrowserMob Proxy
p3069
sss.