(dp0
Vlog
p1
(dp2
Vcomment
p3
V
p4
sVentries
p5
(lp6
(dp7
Vcomment
p8
g4
sVserverIPAddress
p9
V216.58.216.196
p10
sVpageref
p11
VSlither.io
p12
sVstartedDateTime
p13
V2017-04-16T07:58:05.705-05:00
p14
sVcache
p15
(dp16
sVrequest
p17
(dp18
Vcomment
p19
g4
sVcookies
p20
(lp21
sVurl
p22
Vhttps://www.google.com/gen_204?atyp=i&ct=slh&cad=&ei=UWrzWL2FBcK-jwTKlLWIAw&m=V&t=C&s=1&v=2&pv=0.3306635850388674&me=1:1492347475656,x:2,V,0,0,1280,944:0,N,1,UWrzWL2FBcK-jwTKlLWIAw:0,R,1,24,8,155,1249,251:0,R,1,35,24,416,1217,94:0,R,1,37,8,531,1249,136:0,R,1,38,8,531,1249,136:0,R,1,43,8,677,1249,655:0,R,1,44,8,677,1249,655:0,R,1,48,1190,677,67,116:0,R,1,57,8,715,1182,40:0,R,1,69,8,793,1249,55:0,R,1,73,8,865,1249,20:0,R,1,74,24,865,1217,20:0,R,1,77,8,901,1249,20:0,R,1,88,8,929,1249,20:2,B,3305:10043,e,U&zx=1492347485704
p23
sVqueryString
p24
(lp25
(dp26
Vname
p27
Vatyp
p28
sVvalue
p29
Vi
p30
sa(dp31
Vname
p32
Vct
p33
sVvalue
p34
Vslh
p35
sa(dp36
Vname
p37
Vcad
p38
sVvalue
p39
g4
sa(dp40
Vname
p41
Vei
p42
sVvalue
p43
VUWrzWL2FBcK-jwTKlLWIAw
p44
sa(dp45
Vname
p46
Vm
p47
sVvalue
p48
VV
p49
sa(dp50
Vname
p51
Vt
p52
sVvalue
p53
VC
p54
sa(dp55
Vname
p56
Vs
p57
sVvalue
p58
V1
p59
sa(dp60
Vname
p61
Vv
p62
sVvalue
p63
V2
p64
sa(dp65
Vname
p66
Vpv
p67
sVvalue
p68
V0.3306635850388674
p69
sa(dp70
Vname
p71
Vme
p72
sVvalue
p73
V1:1492347475656,x:2,V,0,0,1280,944:0,N,1,UWrzWL2FBcK-jwTKlLWIAw:0,R,1,24,8,155,1249,251:0,R,1,35,24,416,1217,94:0,R,1,37,8,531,1249,136:0,R,1,38,8,531,1249,136:0,R,1,43,8,677,1249,655:0,R,1,44,8,677,1249,655:0,R,1,48,1190,677,67,116:0,R,1,57,8,715,1182,40:0,R,1,69,8,793,1249,55:0,R,1,73,8,865,1249,20:0,R,1,74,24,865,1217,20:0,R,1,77,8,901,1249,20:0,R,1,88,8,929,1249,20:2,B,3305:10043,e,U
p74
sa(dp75
Vname
p76
Vzx
p77
sVvalue
p78
V1492347485704
p79
sasVheaders
p80
(lp81
sVheadersSize
p82
I1041
sVbodySize
p83
I0
sVmethod
p84
VGET
p85
sVhttpVersion
p86
VHTTP/1.1
p87
ssVtimings
p88
(dp89
Vcomment
p90
g4
sVreceive
p91
I0
sVsend
p92
I0
sVssl
p93
I-1
sVconnect
p94
I-1
sVdns
p95
I-1
sVwait
p96
I0
sVblocked
p97
I-1
ssVtime
p98
I0
sVresponse
p99
(dp100
Vstatus
p101
I0
sVcomment
p102
g4
sVcookies
p103
(lp104
sV_error
p105
VNo response received
p106
sVstatusText
p107
g4
sVcontent
p108
(dp109
VmimeType
p110
g4
sVcomment
p111
g4
sVsize
p112
I0
ssVheaders
p113
(lp114
sVheadersSize
p115
I-1
sVredirectURL
p116
g4
sVbodySize
p117
I-1
sVhttpVersion
p118
Vunknown
p119
ssa(dp120
Vcomment
p121
g4
sVserverIPAddress
p122
V216.58.216.196
p123
sVpageref
p124
VSlither.io
p125
sVstartedDateTime
p126
V2017-04-16T07:58:05.709-05:00
p127
sVcache
p128
(dp129
sVrequest
p130
(dp131
Vcomment
p132
g4
sVcookies
p133
(lp134
sVurl
p135
Vhttp://www.google.com/
p136
sVqueryString
p137
(lp138
sVheaders
p139
(lp140
sVheadersSize
p141
I613
sVbodySize
p142
I0
sVmethod
p143
VGET
p144
sVhttpVersion
p145
VHTTP/1.1
p146
ssVtimings
p147
(dp148
Vcomment
p149
g4
sVreceive
p150
I0
sVsend
p151
I0
sVssl
p152
I-1
sVconnect
p153
I-1
sVdns
p154
I-1
sVwait
p155
I336
sVblocked
p156
I-1
ssVtime
p157
I337
sVresponse
p158
(dp159
Vstatus
p160
I302
sVcomment
p161
g4
sVcookies
p162
(lp163
sVstatusText
p164
VFound
p165
sVcontent
p166
(dp167
VmimeType
p168
Vtext/html; charset=UTF-8
p169
sVcomment
p170
g4
sVsize
p171
I0
ssVheaders
p172
(lp173
sVheadersSize
p174
I609
sVredirectURL
p175
Vhttps://www.google.com/?gws_rd=ssl
p176
sVbodySize
p177
I231
sVhttpVersion
p178
VHTTP/1.1
p179
ssa(dp180
Vcomment
p181
g4
sVserverIPAddress
p182
V216.58.216.196
p183
sVpageref
p184
VSlither.io
p185
sVstartedDateTime
p186
V2017-04-16T07:58:06.049-05:00
p187
sVcache
p188
(dp189
sVrequest
p190
(dp191
Vcomment
p192
g4
sVcookies
p193
(lp194
sVurl
p195
Vhttps://www.google.com/?gws_rd=ssl
p196
sVqueryString
p197
(lp198
(dp199
Vname
p200
Vgws_rd
p201
sVvalue
p202
Vssl
p203
sasVheaders
p204
(lp205
sVheadersSize
p206
I607
sVbodySize
p207
I0
sVmethod
p208
VGET
p209
sVhttpVersion
p210
VHTTP/1.1
p211
ssVtimings
p212
(dp213
Vcomment
p214
g4
sVreceive
p215
I22
sVsend
p216
I0
sVssl
p217
I-1
sVconnect
p218
I-1
sVdns
p219
I-1
sVwait
p220
I77
sVblocked
p221
I-1
ssVtime
p222
I99
sVresponse
p223
(dp224
Vstatus
p225
I200
sVcomment
p226
g4
sVcookies
p227
(lp228
sVstatusText
p229
VOK
p230
sVcontent
p231
(dp232
VmimeType
p233
Vtext/html; charset=UTF-8
p234
sVcomment
p235
g4
sVsize
p236
I0
ssVheaders
p237
(lp238
sVheadersSize
p239
I721
sVredirectURL
p240
g4
sVbodySize
p241
I34294
sVhttpVersion
p242
VHTTP/1.1
p243
ssa(dp244
Vcomment
p245
g4
sVserverIPAddress
p246
V216.58.216.196
p247
sVpageref
p248
VSlither.io
p249
sVstartedDateTime
p250
V2017-04-16T07:58:06.132-05:00
p251
sVcache
p252
(dp253
sVrequest
p254
(dp255
Vcomment
p256
g4
sVcookies
p257
(lp258
sVurl
p259
Vhttps://www.google.com/gen_204?atyp=i&ct=slh&cad=&ei=UWrzWL2FBcK-jwTKlLWIAw&s=2&v=2&pv=0.3306635850388674&me=19:1492347486129,e,H&zx=1492347486130
p260
sVqueryString
p261
(lp262
(dp263
Vname
p264
Vatyp
p265
sVvalue
p266
g30
sa(dp267
Vname
p268
Vct
p269
sVvalue
p270
Vslh
p271
sa(dp272
Vname
p273
Vcad
p274
sVvalue
p275
g4
sa(dp276
Vname
p277
Vei
p278
sVvalue
p279
VUWrzWL2FBcK-jwTKlLWIAw
p280
sa(dp281
Vname
p282
g57
sVvalue
p283
g64
sa(dp284
Vname
p285
g62
sVvalue
p286
g64
sa(dp287
Vname
p288
Vpv
p289
sVvalue
p290
V0.3306635850388674
p291
sa(dp292
Vname
p293
Vme
p294
sVvalue
p295
V19:1492347486129,e,H
p296
sa(dp297
Vname
p298
Vzx
p299
sVvalue
p300
V1492347486130
p301
sasVheaders
p302
(lp303
sVheadersSize
p304
I663
sVbodySize
p305
I0
sVmethod
p306
VGET
p307
sVhttpVersion
p308
VHTTP/1.1
p309
ssVtimings
p310
(dp311
Vcomment
p312
g4
sVreceive
p313
I0
sVsend
p314
I0
sVssl
p315
I-1
sVconnect
p316
I-1
sVdns
p317
I-1
sVwait
p318
I31
sVblocked
p319
I-1
ssVtime
p320
I31
sVresponse
p321
(dp322
Vstatus
p323
I204
sVcomment
p324
g4
sVcookies
p325
(lp326
sVstatusText
p327
VNo Content
p328
sVcontent
p329
(dp330
VmimeType
p331
Vtext/html; charset=UTF-8
p332
sVcomment
p333
g4
sVsize
p334
I0
ssVheaders
p335
(lp336
sVheadersSize
p337
I248
sVredirectURL
p338
g4
sVbodySize
p339
I0
sVhttpVersion
p340
VHTTP/1.1
p341
ssa(dp342
Vcomment
p343
g4
sVserverIPAddress
p344
V216.58.216.196
p345
sVpageref
p346
VSlither.io
p347
sVstartedDateTime
p348
V2017-04-16T07:58:06.383-05:00
p349
sVcache
p350
(dp351
sVrequest
p352
(dp353
Vcomment
p354
g4
sVcookies
p355
(lp356
sVurl
p357
Vhttps://www.google.com/gen_204?s=mobilewebhp&atyp=csi&ei=XWrzWKySBIjdjwSq2rLIBQ&imc=1&imn=1&imp=0&adh=&xjs=init.22.12.sb_mob.16.dvl.3.TG8rFw.1.jsa.1.mbsf.1&ima=1&rt=xjsls.12,prt.13,iml.13,dcl.54,xjses.96,xjsee.165,xjs.166,ol.222,aft.13,wsrt.454,cst.0,dnst.0,rqst.102,rspt.24,rqstt.345,unt.345,cstt.345,dit.492
p358
sVqueryString
p359
(lp360
(dp361
Vname
p362
g57
sVvalue
p363
Vmobilewebhp
p364
sa(dp365
Vname
p366
Vatyp
p367
sVvalue
p368
Vcsi
p369
sa(dp370
Vname
p371
Vei
p372
sVvalue
p373
VXWrzWKySBIjdjwSq2rLIBQ
p374
sa(dp375
Vname
p376
Vimc
p377
sVvalue
p378
g59
sa(dp379
Vname
p380
Vimn
p381
sVvalue
p382
g59
sa(dp383
Vname
p384
Vimp
p385
sVvalue
p386
V0
p387
sa(dp388
Vname
p389
Vadh
p390
sVvalue
p391
g4
sa(dp392
Vname
p393
Vxjs
p394
sVvalue
p395
Vinit.22.12.sb_mob.16.dvl.3.TG8rFw.1.jsa.1.mbsf.1
p396
sa(dp397
Vname
p398
Vima
p399
sVvalue
p400
g59
sa(dp401
Vname
p402
Vrt
p403
sVvalue
p404
Vxjsls.12,prt.13,iml.13,dcl.54,xjses.96,xjsee.165,xjs.166,ol.222,aft.13,wsrt.454,cst.0,dnst.0,rqst.102,rspt.24,rqstt.345,unt.345,cstt.345,dit.492
p405
sasVheaders
p406
(lp407
sVheadersSize
p408
I837
sVbodySize
p409
I0
sVmethod
p410
VGET
p411
sVhttpVersion
p412
VHTTP/1.1
p413
ssVtimings
p414
(dp415
Vcomment
p416
g4
sVreceive
p417
I0
sVsend
p418
I0
sVssl
p419
I-1
sVconnect
p420
I-1
sVdns
p421
I-1
sVwait
p422
I28
sVblocked
p423
I-1
ssVtime
p424
I28
sVresponse
p425
(dp426
Vstatus
p427
I204
sVcomment
p428
g4
sVcookies
p429
(lp430
sVstatusText
p431
VNo Content
p432
sVcontent
p433
(dp434
VmimeType
p435
Vtext/html; charset=UTF-8
p436
sVcomment
p437
g4
sVsize
p438
I0
ssVheaders
p439
(lp440
sVheadersSize
p441
I248
sVredirectURL
p442
g4
sVbodySize
p443
I0
sVhttpVersion
p444
VHTTP/1.1
p445
ssa(dp446
Vcomment
p447
g4
sVserverIPAddress
p448
V216.58.216.196
p449
sVpageref
p450
VSlither.io
p451
sVstartedDateTime
p452
V2017-04-16T07:58:06.513-05:00
p453
sVcache
p454
(dp455
sVrequest
p456
(dp457
Vcomment
p458
g4
sVcookies
p459
(lp460
sVurl
p461
Vhttps://www.google.com/complete/search?client=mobile-gws-hp&hl=en&gs_rn=64&gs_ri=mobile-gws-hp&sla=1&gm=602&cp=0&gs_id=1&xhr=t&q=S&tch=1&ech=1&psi=XWrzWKySBIjdjwSq2rLIBQ.1492347486301.1
p462
sVqueryString
p463
(lp464
(dp465
Vname
p466
Vclient
p467
sVvalue
p468
Vmobile-gws-hp
p469
sa(dp470
Vname
p471
Vhl
p472
sVvalue
p473
Ven
p474
sa(dp475
Vname
p476
Vgs_rn
p477
sVvalue
p478
V64
p479
sa(dp480
Vname
p481
Vgs_ri
p482
sVvalue
p483
Vmobile-gws-hp
p484
sa(dp485
Vname
p486
Vsla
p487
sVvalue
p488
g59
sa(dp489
Vname
p490
Vgm
p491
sVvalue
p492
V602
p493
sa(dp494
Vname
p495
Vcp
p496
sVvalue
p497
g387
sa(dp498
Vname
p499
Vgs_id
p500
sVvalue
p501
g59
sa(dp502
Vname
p503
Vxhr
p504
sVvalue
p505
g52
sa(dp506
Vname
p507
Vq
p508
sVvalue
p509
VS
p510
sa(dp511
Vname
p512
Vtch
p513
sVvalue
p514
g59
sa(dp515
Vname
p516
Vech
p517
sVvalue
p518
g59
sa(dp519
Vname
p520
Vpsi
p521
sVvalue
p522
VXWrzWKySBIjdjwSq2rLIBQ.1492347486301.1
p523
sasVheaders
p524
(lp525
sVheadersSize
p526
I713
sVbodySize
p527
I0
sVmethod
p528
VGET
p529
sVhttpVersion
p530
VHTTP/1.1
p531
ssVtimings
p532
(dp533
Vcomment
p534
g4
sVreceive
p535
I0
sVsend
p536
I0
sVssl
p537
I-1
sVconnect
p538
I-1
sVdns
p539
I-1
sVwait
p540
I0
sVblocked
p541
I-1
ssVtime
p542
I0
sVresponse
p543
(dp544
Vstatus
p545
I0
sVcomment
p546
g4
sVcookies
p547
(lp548
sV_error
p549
VNo response received
p550
sVstatusText
p551
g4
sVcontent
p552
(dp553
VmimeType
p554
g4
sVcomment
p555
g4
sVsize
p556
I0
ssVheaders
p557
(lp558
sVheadersSize
p559
I-1
sVredirectURL
p560
g4
sVbodySize
p561
I-1
sVhttpVersion
p562
Vunknown
p563
ssa(dp564
Vcomment
p565
g4
sVserverIPAddress
p566
V216.58.216.196
p567
sVpageref
p568
VSlither.io
p569
sVstartedDateTime
p570
V2017-04-16T07:58:06.561-05:00
p571
sVcache
p572
(dp573
sVrequest
p574
(dp575
Vcomment
p576
g4
sVcookies
p577
(lp578
sVurl
p579
Vhttps://www.google.com/search?site=&source=hp&ei=XWrzWKySBIjdjwSq2rLIBQ&q=Slither.io&oq=Slither.io&gs_l=mobile-gws-hp.3...194.216.0.239.10.1.0.0.0.0.0.0..0.0....0...1c.1.64.mobile-gws-hp..10.0.0.egMM0anJFiw
p580
sVqueryString
p581
(lp582
(dp583
Vname
p584
Vsite
p585
sVvalue
p586
g4
sa(dp587
Vname
p588
Vsource
p589
sVvalue
p590
Vhp
p591
sa(dp592
Vname
p593
Vei
p594
sVvalue
p595
VXWrzWKySBIjdjwSq2rLIBQ
p596
sa(dp597
Vname
p598
g508
sVvalue
p599
VSlither.io
p600
sa(dp601
Vname
p602
Voq
p603
sVvalue
p604
VSlither.io
p605
sa(dp606
Vname
p607
Vgs_l
p608
sVvalue
p609
Vmobile-gws-hp.3...194.216.0.239.10.1.0.0.0.0.0.0..0.0....0...1c.1.64.mobile-gws-hp..10.0.0.egMM0anJFiw
p610
sasVheaders
p611
(lp612
sVheadersSize
p613
I824
sVbodySize
p614
I0
sVmethod
p615
VGET
p616
sVhttpVersion
p617
VHTTP/1.1
p618
ssVtimings
p619
(dp620
Vcomment
p621
g4
sVreceive
p622
I769
sVsend
p623
I0
sVssl
p624
I-1
sVconnect
p625
I-1
sVdns
p626
I-1
sVwait
p627
I80
sVblocked
p628
I-1
ssVtime
p629
I850
sVresponse
p630
(dp631
Vstatus
p632
I200
sVcomment
p633
g4
sVcookies
p634
(lp635
sVstatusText
p636
VOK
p637
sVcontent
p638
(dp639
VmimeType
p640
Vtext/html; charset=UTF-8
p641
sVcomment
p642
g4
sVsize
p643
I0
ssVheaders
p644
(lp645
sVheadersSize
p646
I363
sVredirectURL
p647
g4
sVbodySize
p648
I115815
sVhttpVersion
p649
VHTTP/1.1
p650
ssa(dp651
Vcomment
p652
g4
sVserverIPAddress
p653
V54.69.41.35
p654
sVpageref
p655
VSlither.io
p656
sVstartedDateTime
p657
V2017-04-16T07:58:06.606-05:00
p658
sVcache
p659
(dp660
sVrequest
p661
(dp662
Vcomment
p663
g4
sVcookies
p664
(lp665
sVurl
p666
Vhttps://aus5.mozilla.org/update/3/GMP/52.0.2/20170323105023/Darwin_x86_64-gcc3-u-i386-x86_64/en-US/release/Darwin%2015.6.0/default/default/update.xml
p667
sVqueryString
p668
(lp669
sVheaders
p670
(lp671
sVheadersSize
p672
I473
sVbodySize
p673
I0
sVmethod
p674
VGET
p675
sVhttpVersion
p676
VHTTP/1.1
p677
ssVtimings
p678
(dp679
Vcomment
p680
g4
sVreceive
p681
I0
sVsend
p682
I0
sVssl
p683
I167
sVconnect
p684
I237
sVdns
p685
I94
sVwait
p686
I66
sVblocked
p687
I0
ssVtime
p688
I398
sVresponse
p689
(dp690
Vstatus
p691
I200
sVcomment
p692
g4
sVcookies
p693
(lp694
sVstatusText
p695
VOK
p696
sVcontent
p697
(dp698
VmimeType
p699
Vtext/xml; charset=utf-8
p700
sVcomment
p701
g4
sVsize
p702
I0
ssVheaders
p703
(lp704
sVheadersSize
p705
I399
sVredirectURL
p706
g4
sVbodySize
p707
I443
sVhttpVersion
p708
VHTTP/1.1
p709
ssa(dp710
Vcomment
p711
g4
sVserverIPAddress
p712
V23.215.104.176
p713
sVpageref
p714
VSlither.io
p715
sVstartedDateTime
p716
V2017-04-16T07:58:06.688-05:00
p717
sVcache
p718
(dp719
sVrequest
p720
(dp721
Vcomment
p722
g4
sVcookies
p723
(lp724
sVurl
p725
Vhttp://ciscobinary.openh264.org/openh264-macosx64-0410d336bb748149a4f560eb6108090f078254b1.zip
p726
sVqueryString
p727
(lp728
sVheaders
p729
(lp730
sVheadersSize
p731
I403
sVbodySize
p732
I0
sVmethod
p733
VGET
p734
sVhttpVersion
p735
VHTTP/1.1
p736
ssVtimings
p737
(dp738
Vcomment
p739
g4
sVreceive
p740
I102
sVsend
p741
I0
sVssl
p742
I-1
sVconnect
p743
I14
sVdns
p744
I516
sVwait
p745
I33
sVblocked
p746
I0
ssVtime
p747
I667
sVresponse
p748
(dp749
Vstatus
p750
I200
sVcomment
p751
g4
sVcookies
p752
(lp753
sVstatusText
p754
VOK
p755
sVcontent
p756
(dp757
VmimeType
p758
Vapplication/zip
p759
sVcomment
p760
g4
sVsize
p761
I0
ssVheaders
p762
(lp763
sVheadersSize
p764
I446
sVredirectURL
p765
g4
sVbodySize
p766
I390308
sVhttpVersion
p767
VHTTP/1.1
p768
ssa(dp769
Vcomment
p770
g4
sVserverIPAddress
p771
V216.58.216.196
p772
sVpageref
p773
VSlither.io
p774
sVstartedDateTime
p775
V2017-04-16T07:58:07.716-05:00
p776
sVcache
p777
(dp778
sVrequest
p779
(dp780
Vcomment
p781
g4
sVcookies
p782
(lp783
sVurl
p784
Vhttps://www.google.com/xjs/_/js/k=xjs.qs.en_US.pCBXVCvTH3s.O/m=syl,syj,syn,em3,em8,em6,em7,sym,aa,abd,sy2g,sy2k,sy29,sy2j,sy2d,sy2a,sy2c,sy2f,sy2l,sy2m,sy2n,emd,async,sybn,sybi,sybo,sy1f,sy45,sy46,sy9w,sybk,sybj,sybp,sy1g,sy30,sy47,sybm,sybl,sybq,sy1h,sybh,dvl,syep,foot,ipv6,sy32,emj,shm,sy5g,sy5i,sy5k,sykh,tl,sy2x,sy2y,sy2t,sy38,em12,vs,sy5j,sy5h,sy6u,sy66,sy67,sy7d,sy7j,sy4u,sy69,sy89,sy7e,sykk,sykl,tnv,bct,sy1y,sy23,sy2u,sy22,sy6i,sy34,sy31,sy6j,sy25,sy6l,sy6k,sy6h,emb,em9,ema,sy6m,qkx,syf5,sy99,syf4,sy26,syfc,syfn,syf7,syff,sy1i,sy68,sy8d,sy9b,syf6,syfl,syfr,syfq,syfg,sy1j,sy4q,sy5o,sy5r,sy6n,sy6p,sy8h,syc7,syc8,syfb,syfj,syfs,syft,syg3,syg5,syg7,sy24,emn,emo,syg4,syg6,ivg,sy9m,sy9n,iuci,img,sy4d,sy4f,sy4c,sy4e,sy4b,sy6w,shrb,sy4g,syd7,dgm,sy41,tcc,syac,syhz,syl6,ssc,sya3,sya2,sy72,sya4,sykr,strm,sygq,kpc,kpci,sy4h,vrml,sy6y,sycu,d3l,syj7,syj8,syj2,syjc,syj6,syj3,syjg,syjh,syje,syjd,syjk,syji,syjf,syj0,emr,ems,emt,emu,emv,emx,emy,emz,em10,em11,udlg,sy5z,atn,sy4i,sya1,ampfp/am=gCP4LtMEBXQA2RUaq_oFBISzAFA/rt=j/d=0/t=zcms/rs=ACT90oFwm4NZCwIcuuiqmthdlECdBzkhRA
p785
sVqueryString
p786
(lp787
sVheaders
p788
(lp789
sVheadersSize
p790
I1593
sVbodySize
p791
I0
sVmethod
p792
VGET
p793
sVhttpVersion
p794
VHTTP/1.1
p795
ssVtimings
p796
(dp797
Vcomment
p798
g4
sVreceive
p799
I33
sVsend
p800
I0
sVssl
p801
I-1
sVconnect
p802
I-1
sVdns
p803
I-1
sVwait
p804
I19
sVblocked
p805
I-1
ssVtime
p806
I52
sVresponse
p807
(dp808
Vstatus
p809
I200
sVcomment
p810
g4
sVcookies
p811
(lp812
sVstatusText
p813
VOK
p814
sVcontent
p815
(dp816
VmimeType
p817
Vtext/javascript; charset=UTF-8
p818
sVcomment
p819
g4
sVsize
p820
I0
ssVheaders
p821
(lp822
sVheadersSize
p823
I465
sVredirectURL
p824
g4
sVbodySize
p825
I111319
sVhttpVersion
p826
VHTTP/1.1
p827
ssa(dp828
Vcomment
p829
g4
sVserverIPAddress
p830
V216.58.216.196
p831
sVpageref
p832
VSlither.io
p833
sVstartedDateTime
p834
V2017-04-16T07:58:07.859-05:00
p835
sVcache
p836
(dp837
sVrequest
p838
(dp839
Vcomment
p840
g4
sVcookies
p841
(lp842
sVurl
p843
Vhttps://www.google.com/async/irc?vet=10ahUKEwjO6YnOg6nTAhWqy4MKHTOzA38Qo0EI3gE..i&ved=0ahUKEwjO6YnOg6nTAhWqy4MKHTOzA38Qo0EI3gE&ei=XWrzWI7HI6qXjwSz5o74Bw&yv=2&async=iu:1,ved:0ahUKEwjO6YnOg6nTAhWqy4MKHTOzA38Qo0EI3gE,_id:irc_async,_pms:qs
p844
sVqueryString
p845
(lp846
(dp847
Vname
p848
Vvet
p849
sVvalue
p850
V10ahUKEwjO6YnOg6nTAhWqy4MKHTOzA38Qo0EI3gE..i
p851
sa(dp852
Vname
p853
Vved
p854
sVvalue
p855
V0ahUKEwjO6YnOg6nTAhWqy4MKHTOzA38Qo0EI3gE
p856
sa(dp857
Vname
p858
Vei
p859
sVvalue
p860
VXWrzWI7HI6qXjwSz5o74Bw
p861
sa(dp862
Vname
p863
Vyv
p864
sVvalue
p865
g64
sa(dp866
Vname
p867
Vasync
p868
sVvalue
p869
Viu:1,ved:0ahUKEwjO6YnOg6nTAhWqy4MKHTOzA38Qo0EI3gE,_id:irc_async,_pms:qs
p870
sasVheaders
p871
(lp872
sVheadersSize
p873
I752
sVbodySize
p874
I0
sVmethod
p875
VGET
p876
sVhttpVersion
p877
VHTTP/1.1
p878
ssVtimings
p879
(dp880
Vcomment
p881
g4
sVreceive
p882
I0
sVsend
p883
I0
sVssl
p884
I-1
sVconnect
p885
I-1
sVdns
p886
I-1
sVwait
p887
I100
sVblocked
p888
I-1
ssVtime
p889
I100
sVresponse
p890
(dp891
Vstatus
p892
I200
sVcomment
p893
g4
sVcookies
p894
(lp895
sVstatusText
p896
VOK
p897
sVcontent
p898
(dp899
VmimeType
p900
Vtext/html; charset=UTF-8
p901
sVcomment
p902
g4
sVsize
p903
I0
ssVheaders
p904
(lp905
sVheadersSize
p906
I383
sVredirectURL
p907
g4
sVbodySize
p908
I7788
sVhttpVersion
p909
VHTTP/1.1
p910
ssa(dp911
Vcomment
p912
g4
sVserverIPAddress
p913
V216.58.216.193
p914
sVpageref
p915
VSlither.io
p916
sVstartedDateTime
p917
V2017-04-16T07:58:07.953-05:00
p918
sVcache
p919
(dp920
sVrequest
p921
(dp922
Vcomment
p923
g4
sVcookies
p924
(lp925
sVurl
p926
Vhttps://cdn.ampproject.org/preconnect.gif?0.802248490468569
p927
sVqueryString
p928
(lp929
(dp930
Vname
p931
V0.802248490468569
p932
sVvalue
p933
g4
sasVheaders
p934
(lp935
sVheadersSize
p936
I374
sVbodySize
p937
I0
sVmethod
p938
VGET
p939
sVhttpVersion
p940
VHTTP/1.1
p941
ssVtimings
p942
(dp943
Vcomment
p944
g4
sVreceive
p945
I0
sVsend
p946
I0
sVssl
p947
I-1
sVconnect
p948
I-1
sVdns
p949
I-1
sVwait
p950
I64
sVblocked
p951
I-1
ssVtime
p952
I64
sVresponse
p953
(dp954
Vstatus
p955
I200
sVcomment
p956
g4
sVcookies
p957
(lp958
sVstatusText
p959
VOK
p960
sVcontent
p961
(dp962
VmimeType
p963
Vimage/gif
p964
sVcomment
p965
g4
sVsize
p966
I0
ssVheaders
p967
(lp968
sVheadersSize
p969
I826
sVredirectURL
p970
g4
sVbodySize
p971
I37
sVhttpVersion
p972
VHTTP/1.1
p973
ssa(dp974
Vcomment
p975
g4
sVserverIPAddress
p976
V216.58.216.196
p977
sVpageref
p978
VSlither.io
p979
sVstartedDateTime
p980
V2017-04-16T07:58:08.031-05:00
p981
sVcache
p982
(dp983
sVrequest
p984
(dp985
Vcomment
p986
g4
sVcookies
p987
(lp988
sVurl
p989
Vhttps://www.google.com/gen_204?s=web&atyp=csi&ei=XWrzWI7HI6qXjwSz5o74Bw&imc=40&imn=40&imp=13&adh=&xjs=init.30.14.sb_mob.22.dvl.3.c.1.mbsf.1.r.1&ima=8&rt=prt.797,iml.839,xjsls.798,qiml.1034,dcl.879,xjses.928,xjsee.1048,xjs.1050,ol.1365,aft.839,wsrt.96,cst.0,dnst.0,rqst.852,rspt.771,rqstt.2,unt.1,cstt.1,dit.929
p990
sVqueryString
p991
(lp992
(dp993
Vname
p994
g57
sVvalue
p995
Vweb
p996
sa(dp997
Vname
p998
Vatyp
p999
sVvalue
p1000
Vcsi
p1001
sa(dp1002
Vname
p1003
Vei
p1004
sVvalue
p1005
VXWrzWI7HI6qXjwSz5o74Bw
p1006
sa(dp1007
Vname
p1008
Vimc
p1009
sVvalue
p1010
V40
p1011
sa(dp1012
Vname
p1013
Vimn
p1014
sVvalue
p1015
V40
p1016
sa(dp1017
Vname
p1018
Vimp
p1019
sVvalue
p1020
V13
p1021
sa(dp1022
Vname
p1023
Vadh
p1024
sVvalue
p1025
g4
sa(dp1026
Vname
p1027
Vxjs
p1028
sVvalue
p1029
Vinit.30.14.sb_mob.22.dvl.3.c.1.mbsf.1.r.1
p1030
sa(dp1031
Vname
p1032
Vima
p1033
sVvalue
p1034
V8
p1035
sa(dp1036
Vname
p1037
Vrt
p1038
sVvalue
p1039
Vprt.797,iml.839,xjsls.798,qiml.1034,dcl.879,xjses.928,xjsee.1048,xjs.1050,ol.1365,aft.839,wsrt.96,cst.0,dnst.0,rqst.852,rspt.771,rqstt.2,unt.1,cstt.1,dit.929
p1040
sasVheaders
p1041
(lp1042
sVheadersSize
p1043
I827
sVbodySize
p1044
I0
sVmethod
p1045
VGET
p1046
sVhttpVersion
p1047
VHTTP/1.1
p1048
ssVtimings
p1049
(dp1050
Vcomment
p1051
g4
sVreceive
p1052
I0
sVsend
p1053
I0
sVssl
p1054
I-1
sVconnect
p1055
I-1
sVdns
p1056
I-1
sVwait
p1057
I36
sVblocked
p1058
I-1
ssVtime
p1059
I36
sVresponse
p1060
(dp1061
Vstatus
p1062
I204
sVcomment
p1063
g4
sVcookies
p1064
(lp1065
sVstatusText
p1066
VNo Content
p1067
sVcontent
p1068
(dp1069
VmimeType
p1070
Vtext/html; charset=UTF-8
p1071
sVcomment
p1072
g4
sVsize
p1073
I0
ssVheaders
p1074
(lp1075
sVheadersSize
p1076
I248
sVredirectURL
p1077
g4
sVbodySize
p1078
I0
sVhttpVersion
p1079
VHTTP/1.1
p1080
ssa(dp1081
Vcomment
p1082
g4
sVserverIPAddress
p1083
V216.58.216.206
p1084
sVpageref
p1085
VSlither.io
p1086
sVstartedDateTime
p1087
V2017-04-16T07:58:08.256-05:00
p1088
sVcache
p1089
(dp1090
sVrequest
p1091
(dp1092
Vcomment
p1093
g4
sVcookies
p1094
(lp1095
sVurl
p1096
Vhttps://redirector.gvt1.com/edgedl/widevine-cdm/903-mac-x64.zip
p1097
sVqueryString
p1098
(lp1099
sVheaders
p1100
(lp1101
sVheadersSize
p1102
I344
sVbodySize
p1103
I0
sVmethod
p1104
VGET
p1105
sVhttpVersion
p1106
VHTTP/1.1
p1107
ssVtimings
p1108
(dp1109
Vcomment
p1110
g4
sVreceive
p1111
I0
sVsend
p1112
I0
sVssl
p1113
I755
sVconnect
p1114
I771
sVdns
p1115
I33
sVwait
p1116
I22
sVblocked
p1117
I0
ssVtime
p1118
I827
sVresponse
p1119
(dp1120
Vstatus
p1121
I302
sVcomment
p1122
g4
sVcookies
p1123
(lp1124
sVstatusText
p1125
VFound
p1126
sVcontent
p1127
(dp1128
VmimeType
p1129
Vtext/html; charset=UTF-8
p1130
sVcomment
p1131
g4
sVsize
p1132
I0
ssVheaders
p1133
(lp1134
sVheadersSize
p1135
I720
sVredirectURL
p1136
Vhttps://r3---sn-vgqsknel.gvt1.com/edgedl/widevine-cdm/903-mac-x64.zip?cms_redirect=yes&expire=1492361887&ip=24.13.86.210&ipbits=0&mm=28&mn=sn-vgqsknel&ms=nvh&mt=1492347125&mv=m&pl=14&shardbypass=yes&sparams=expire,ip,ipbits,mm,mn,ms,mv,pl,shardbypass&signature=0AC46F84FD4DDA33601CFD52165408E00E04FB39.75EBF73CC4CE41B91E14D27B4D3E263F99D785C9&key=cms1
p1137
sVbodySize
p1138
I600
sVhttpVersion
p1139
VHTTP/1.1
p1140
ssa(dp1141
Vcomment
p1142
g4
sVserverIPAddress
p1143
V173.194.162.73
p1144
sVpageref
p1145
VSlither.io
p1146
sVstartedDateTime
p1147
V2017-04-16T07:58:09.226-05:00
p1148
sVcache
p1149
(dp1150
sVrequest
p1151
(dp1152
Vcomment
p1153
g4
sVcookies
p1154
(lp1155
sVurl
p1156
Vhttps://r3---sn-vgqsknel.gvt1.com/edgedl/widevine-cdm/903-mac-x64.zip?cms_redirect=yes&expire=1492361887&ip=24.13.86.210&ipbits=0&mm=28&mn=sn-vgqsknel&ms=nvh&mt=1492347125&mv=m&pl=14&shardbypass=yes&sparams=expire,ip,ipbits,mm,mn,ms,mv,pl,shardbypass&signature=0AC46F84FD4DDA33601CFD52165408E00E04FB39.75EBF73CC4CE41B91E14D27B4D3E263F99D785C9&key=cms1
p1157
sVqueryString
p1158
(lp1159
(dp1160
Vname
p1161
Vcms_redirect
p1162
sVvalue
p1163
Vyes
p1164
sa(dp1165
Vname
p1166
Vexpire
p1167
sVvalue
p1168
V1492361887
p1169
sa(dp1170
Vname
p1171
Vip
p1172
sVvalue
p1173
V24.13.86.210
p1174
sa(dp1175
Vname
p1176
Vipbits
p1177
sVvalue
p1178
g387
sa(dp1179
Vname
p1180
Vmm
p1181
sVvalue
p1182
V28
p1183
sa(dp1184
Vname
p1185
Vmn
p1186
sVvalue
p1187
Vsn-vgqsknel
p1188
sa(dp1189
Vname
p1190
Vms
p1191
sVvalue
p1192
Vnvh
p1193
sa(dp1194
Vname
p1195
Vmt
p1196
sVvalue
p1197
V1492347125
p1198
sa(dp1199
Vname
p1200
Vmv
p1201
sVvalue
p1202
g47
sa(dp1203
Vname
p1204
Vpl
p1205
sVvalue
p1206
V14
p1207
sa(dp1208
Vname
p1209
Vshardbypass
p1210
sVvalue
p1211
Vyes
p1212
sa(dp1213
Vname
p1214
Vsparams
p1215
sVvalue
p1216
Vexpire,ip,ipbits,mm,mn,ms,mv,pl,shardbypass
p1217
sa(dp1218
Vname
p1219
Vsignature
p1220
sVvalue
p1221
V0AC46F84FD4DDA33601CFD52165408E00E04FB39.75EBF73CC4CE41B91E14D27B4D3E263F99D785C9
p1222
sa(dp1223
Vname
p1224
Vkey
p1225
sVvalue
p1226
Vcms1
p1227
sasVheaders
p1228
(lp1229
sVheadersSize
p1230
I632
sVbodySize
p1231
I0
sVmethod
p1232
VGET
p1233
sVhttpVersion
p1234
VHTTP/1.1
p1235
ssVtimings
p1236
(dp1237
Vcomment
p1238
g4
sVreceive
p1239
I665
sVsend
p1240
I0
sVssl
p1241
I516
sVconnect
p1242
I533
sVdns
p1243
I410
sVwait
p1244
I35
sVblocked
p1245
I0
ssVtime
p1246
I1644
sVresponse
p1247
(dp1248
Vstatus
p1249
I200
sVcomment
p1250
g4
sVcookies
p1251
(lp1252
sVstatusText
p1253
VOK
p1254
sVcontent
p1255
(dp1256
VmimeType
p1257
Vapplication/zip
p1258
sVcomment
p1259
g4
sVsize
p1260
I0
ssVheaders
p1261
(lp1262
sVheadersSize
p1263
I427
sVredirectURL
p1264
g4
sVbodySize
p1265
I2155607
sVhttpVersion
p1266
VHTTP/1.1
p1267
ssa(dp1268
Vcomment
p1269
g4
sVserverIPAddress
p1270
V216.58.216.196
p1271
sVpageref
p1272
VSlither.io
p1273
sVstartedDateTime
p1274
V2017-04-16T07:58:09.954-05:00
p1275
sVcache
p1276
(dp1277
sVrequest
p1278
(dp1279
Vcomment
p1280
g4
sVcookies
p1281
(lp1282
sVurl
p1283
Vhttps://www.google.com/gen_204?atyp=i&ct=slh&cad=&ei=UWrzWL2FBcK-jwTKlLWIAw&m=V&t=C&s=1&v=2&pv=0.3306635850388674&me=1:1492347475656,x:2,V,0,0,1280,944:0,N,1,UWrzWL2FBcK-jwTKlLWIAw:0,R,1,24,8,155,1249,251:0,R,1,35,24,416,1217,94:0,R,1,37,8,531,1249,136:0,R,1,38,8,531,1249,136:0,R,1,43,8,677,1249,655:0,R,1,44,8,677,1249,655:0,R,1,48,1190,677,67,116:0,R,1,57,8,715,1182,40:0,R,1,69,8,793,1249,55:0,R,1,73,8,865,1249,20:0,R,1,74,24,865,1217,20:0,R,1,77,8,901,1249,20:0,R,1,88,8,929,1249,20:2,B,3305:10043,e,U&zx=1492347489940
p1284
sVqueryString
p1285
(lp1286
(dp1287
Vname
p1288
Vatyp
p1289
sVvalue
p1290
g30
sa(dp1291
Vname
p1292
Vct
p1293
sVvalue
p1294
Vslh
p1295
sa(dp1296
Vname
p1297
Vcad
p1298
sVvalue
p1299
g4
sa(dp1300
Vname
p1301
Vei
p1302
sVvalue
p1303
VUWrzWL2FBcK-jwTKlLWIAw
p1304
sa(dp1305
Vname
p1306
g47
sVvalue
p1307
g49
sa(dp1308
Vname
p1309
g52
sVvalue
p1310
g54
sa(dp1311
Vname
p1312
g57
sVvalue
p1313
g59
sa(dp1314
Vname
p1315
g62
sVvalue
p1316
g64
sa(dp1317
Vname
p1318
Vpv
p1319
sVvalue
p1320
V0.3306635850388674
p1321
sa(dp1322
Vname
p1323
Vme
p1324
sVvalue
p1325
V1:1492347475656,x:2,V,0,0,1280,944:0,N,1,UWrzWL2FBcK-jwTKlLWIAw:0,R,1,24,8,155,1249,251:0,R,1,35,24,416,1217,94:0,R,1,37,8,531,1249,136:0,R,1,38,8,531,1249,136:0,R,1,43,8,677,1249,655:0,R,1,44,8,677,1249,655:0,R,1,48,1190,677,67,116:0,R,1,57,8,715,1182,40:0,R,1,69,8,793,1249,55:0,R,1,73,8,865,1249,20:0,R,1,74,24,865,1217,20:0,R,1,77,8,901,1249,20:0,R,1,88,8,929,1249,20:2,B,3305:10043,e,U
p1326
sa(dp1327
Vname
p1328
Vzx
p1329
sVvalue
p1330
V1492347489940
p1331
sasVheaders
p1332
(lp1333
sVheadersSize
p1334
I1041
sVbodySize
p1335
I0
sVmethod
p1336
VGET
p1337
sVhttpVersion
p1338
VHTTP/1.1
p1339
ssVtimings
p1340
(dp1341
Vcomment
p1342
g4
sVreceive
p1343
I0
sVsend
p1344
I0
sVssl
p1345
I-1
sVconnect
p1346
I-1
sVdns
p1347
I-1
sVwait
p1348
I29
sVblocked
p1349
I-1
ssVtime
p1350
I29
sVresponse
p1351
(dp1352
Vstatus
p1353
I204
sVcomment
p1354
g4
sVcookies
p1355
(lp1356
sVstatusText
p1357
VNo Content
p1358
sVcontent
p1359
(dp1360
VmimeType
p1361
Vtext/html; charset=UTF-8
p1362
sVcomment
p1363
g4
sVsize
p1364
I0
ssVheaders
p1365
(lp1366
sVheadersSize
p1367
I248
sVredirectURL
p1368
g4
sVbodySize
p1369
I0
sVhttpVersion
p1370
VHTTP/1.1
p1371
ssasVversion
p1372
V1.2
p1373
sVpages
p1374
(lp1375
(dp1376
VpageTimings
p1377
(dp1378
Vcomment
p1379
g4
ssVcomment
p1380
g4
sVtitle
p1381
VSlither.io
p1382
sVid
p1383
VSlither.io
p1384
sVstartedDateTime
p1385
V2017-04-16T07:58:05.694-05:00
p1386
sasVcreator
p1387
(dp1388
Vcomment
p1389
g4
sVversion
p1390
V2.1.4
p1391
sVname
p1392
VBrowserMob Proxy
p1393
sss.