(dp0
Vlog
p1
(dp2
Vcomment
p3
V
p4
sVentries
p5
(lp6
(dp7
Vcomment
p8
g4
sVserverIPAddress
p9
V216.58.216.196
p10
sVpageref
p11
VChicago White Sox
p12
sVstartedDateTime
p13
V2017-04-16T08:27:27.800-05:00
p14
sVcache
p15
(dp16
sVrequest
p17
(dp18
Vcomment
p19
g4
sVcookies
p20
(lp21
sVurl
p22
Vhttps://www.google.com/gen_204?atyp=i&ct=slh&cad=&ei=K3HzWLSpNaW0jwSTqLmADg&m=V&t=C&s=1&v=2&pv=0.6968568475013042&me=1:1492349231867,x:1,V,0,0,1280,944:0,N,1,K3HzWLSpNaW0jwSTqLmADg:0,R,1,24,0,155,1197,502:0,R,1,25,0,155,1197,500:0,R,1,78,8,665,1264,309:0,R,1,79,8,709,1264,265:0,R,1,80,0,709,1280,285:2,B,5068:15927,e,U&zx=1492349247798
p23
sVqueryString
p24
(lp25
(dp26
Vname
p27
Vatyp
p28
sVvalue
p29
Vi
p30
sa(dp31
Vname
p32
Vct
p33
sVvalue
p34
Vslh
p35
sa(dp36
Vname
p37
Vcad
p38
sVvalue
p39
g4
sa(dp40
Vname
p41
Vei
p42
sVvalue
p43
VK3HzWLSpNaW0jwSTqLmADg
p44
sa(dp45
Vname
p46
Vm
p47
sVvalue
p48
VV
p49
sa(dp50
Vname
p51
Vt
p52
sVvalue
p53
VC
p54
sa(dp55
Vname
p56
Vs
p57
sVvalue
p58
V1
p59
sa(dp60
Vname
p61
Vv
p62
sVvalue
p63
V2
p64
sa(dp65
Vname
p66
Vpv
p67
sVvalue
p68
V0.6968568475013042
p69
sa(dp70
Vname
p71
Vme
p72
sVvalue
p73
V1:1492349231867,x:1,V,0,0,1280,944:0,N,1,K3HzWLSpNaW0jwSTqLmADg:0,R,1,24,0,155,1197,502:0,R,1,25,0,155,1197,500:0,R,1,78,8,665,1264,309:0,R,1,79,8,709,1264,265:0,R,1,80,0,709,1280,285:2,B,5068:15927,e,U
p74
sa(dp75
Vname
p76
Vzx
p77
sVvalue
p78
V1492349247798
p79
sasVheaders
p80
(lp81
sVheadersSize
p82
I853
sVbodySize
p83
I0
sVmethod
p84
VGET
p85
sVhttpVersion
p86
VHTTP/1.1
p87
ssVtimings
p88
(dp89
Vcomment
p90
g4
sVreceive
p91
I0
sVsend
p92
I0
sVssl
p93
I-1
sVconnect
p94
I-1
sVdns
p95
I-1
sVwait
p96
I0
sVblocked
p97
I-1
ssVtime
p98
I0
sVresponse
p99
(dp100
Vstatus
p101
I0
sVcomment
p102
g4
sVcookies
p103
(lp104
sV_error
p105
VNo response received
p106
sVstatusText
p107
g4
sVcontent
p108
(dp109
VmimeType
p110
g4
sVcomment
p111
g4
sVsize
p112
I0
ssVheaders
p113
(lp114
sVheadersSize
p115
I-1
sVredirectURL
p116
g4
sVbodySize
p117
I-1
sVhttpVersion
p118
Vunknown
p119
ssa(dp120
Vcomment
p121
g4
sVserverIPAddress
p122
V216.58.216.196
p123
sVpageref
p124
VChicago White Sox
p125
sVstartedDateTime
p126
V2017-04-16T08:27:27.800-05:00
p127
sVcache
p128
(dp129
sVrequest
p130
(dp131
Vcomment
p132
g4
sVcookies
p133
(lp134
sVurl
p135
Vhttps://www.google.com/gen_204?atyp=i&ct=slh&cad=&ei=BXHzWIP8Meq-jwTI64z4DQ&m=V&t=C&s=1&v=2&pv=0.8802857241403822&me=1:1492349192964,x:2,V,0,0,1280,944:0,N,1,BXHzWIP8Meq-jwTI64z4DQ:0,R,1,24,8,155,1249,281:0,R,1,25,8,155,1249,261:0,R,1,26,8,155,1249,261:0,R,1,27,8,155,1249,110:0,R,1,42,8,446,1249,251:0,R,1,52,8,707,1249,301:0,R,1,53,8,707,1249,301:0,R,1,57,1142,707,115,107:0,R,1,66,8,741,1134,40:0,R,1,78,8,831,1249,40:0,R,1,79,24,831,1217,40:0,R,1,82,8,887,1249,20:0,R,1,84,8,915,1249,20:1,B,3492:19394,e,U&zx=1492349247799
p136
sVqueryString
p137
(lp138
(dp139
Vname
p140
Vatyp
p141
sVvalue
p142
g30
sa(dp143
Vname
p144
Vct
p145
sVvalue
p146
Vslh
p147
sa(dp148
Vname
p149
Vcad
p150
sVvalue
p151
g4
sa(dp152
Vname
p153
Vei
p154
sVvalue
p155
VBXHzWIP8Meq-jwTI64z4DQ
p156
sa(dp157
Vname
p158
g47
sVvalue
p159
g49
sa(dp160
Vname
p161
g52
sVvalue
p162
g54
sa(dp163
Vname
p164
g57
sVvalue
p165
g59
sa(dp166
Vname
p167
g62
sVvalue
p168
g64
sa(dp169
Vname
p170
Vpv
p171
sVvalue
p172
V0.8802857241403822
p173
sa(dp174
Vname
p175
Vme
p176
sVvalue
p177
V1:1492349192964,x:2,V,0,0,1280,944:0,N,1,BXHzWIP8Meq-jwTI64z4DQ:0,R,1,24,8,155,1249,281:0,R,1,25,8,155,1249,261:0,R,1,26,8,155,1249,261:0,R,1,27,8,155,1249,110:0,R,1,42,8,446,1249,251:0,R,1,52,8,707,1249,301:0,R,1,53,8,707,1249,301:0,R,1,57,1142,707,115,107:0,R,1,66,8,741,1134,40:0,R,1,78,8,831,1249,40:0,R,1,79,24,831,1217,40:0,R,1,82,8,887,1249,20:0,R,1,84,8,915,1249,20:1,B,3492:19394,e,U
p178
sa(dp179
Vname
p180
Vzx
p181
sVvalue
p182
V1492349247799
p183
sasVheaders
p184
(lp185
sVheadersSize
p186
I1043
sVbodySize
p187
I0
sVmethod
p188
VGET
p189
sVhttpVersion
p190
VHTTP/1.1
p191
ssVtimings
p192
(dp193
Vcomment
p194
g4
sVreceive
p195
I0
sVsend
p196
I0
sVssl
p197
I-1
sVconnect
p198
I-1
sVdns
p199
I-1
sVwait
p200
I0
sVblocked
p201
I-1
ssVtime
p202
I0
sVresponse
p203
(dp204
Vstatus
p205
I0
sVcomment
p206
g4
sVcookies
p207
(lp208
sV_error
p209
VNo response received
p210
sVstatusText
p211
g4
sVcontent
p212
(dp213
VmimeType
p214
g4
sVcomment
p215
g4
sVsize
p216
I0
ssVheaders
p217
(lp218
sVheadersSize
p219
I-1
sVredirectURL
p220
g4
sVbodySize
p221
I-1
sVhttpVersion
p222
Vunknown
p223
ssa(dp224
Vcomment
p225
g4
sVserverIPAddress
p226
V216.58.216.196
p227
sVpageref
p228
VChicago White Sox
p229
sVstartedDateTime
p230
V2017-04-16T08:27:27.801-05:00
p231
sVcache
p232
(dp233
sVrequest
p234
(dp235
Vcomment
p236
g4
sVcookies
p237
(lp238
sVurl
p239
Vhttps://www.google.com/gen_204?atyp=i&ct=slh&cad=&ei=HHHzWNntCoiwjwShtKWoDA&m=V&t=C&s=1&v=2&pv=0.30798009060495957&me=1:1492349215889,x:2,V,0,0,1280,944:0,N,1,HHHzWNntCoiwjwShtKWoDA:0,R,1,24,0,155,1197,502:0,R,1,25,0,155,1197,500:0,R,1,78,8,665,1264,545:0,R,1,79,8,709,1264,315:0,R,1,80,0,709,1280,335:1,B,4168:11970,e,U&zx=1492349247800
p240
sVqueryString
p241
(lp242
(dp243
Vname
p244
Vatyp
p245
sVvalue
p246
g30
sa(dp247
Vname
p248
Vct
p249
sVvalue
p250
Vslh
p251
sa(dp252
Vname
p253
Vcad
p254
sVvalue
p255
g4
sa(dp256
Vname
p257
Vei
p258
sVvalue
p259
VHHHzWNntCoiwjwShtKWoDA
p260
sa(dp261
Vname
p262
g47
sVvalue
p263
g49
sa(dp264
Vname
p265
g52
sVvalue
p266
g54
sa(dp267
Vname
p268
g57
sVvalue
p269
g59
sa(dp270
Vname
p271
g62
sVvalue
p272
g64
sa(dp273
Vname
p274
Vpv
p275
sVvalue
p276
V0.30798009060495957
p277
sa(dp278
Vname
p279
Vme
p280
sVvalue
p281
V1:1492349215889,x:2,V,0,0,1280,944:0,N,1,HHHzWNntCoiwjwShtKWoDA:0,R,1,24,0,155,1197,502:0,R,1,25,0,155,1197,500:0,R,1,78,8,665,1264,545:0,R,1,79,8,709,1264,315:0,R,1,80,0,709,1280,335:1,B,4168:11970,e,U
p282
sa(dp283
Vname
p284
Vzx
p285
sVvalue
p286
V1492349247800
p287
sasVheaders
p288
(lp289
sVheadersSize
p290
I854
sVbodySize
p291
I0
sVmethod
p292
VGET
p293
sVhttpVersion
p294
VHTTP/1.1
p295
ssVtimings
p296
(dp297
Vcomment
p298
g4
sVreceive
p299
I0
sVsend
p300
I0
sVssl
p301
I-1
sVconnect
p302
I-1
sVdns
p303
I-1
sVwait
p304
I0
sVblocked
p305
I-1
ssVtime
p306
I0
sVresponse
p307
(dp308
Vstatus
p309
I0
sVcomment
p310
g4
sVcookies
p311
(lp312
sV_error
p313
VNo response received
p314
sVstatusText
p315
g4
sVcontent
p316
(dp317
VmimeType
p318
g4
sVcomment
p319
g4
sVsize
p320
I0
ssVheaders
p321
(lp322
sVheadersSize
p323
I-1
sVredirectURL
p324
g4
sVbodySize
p325
I-1
sVhttpVersion
p326
Vunknown
p327
ssa(dp328
Vcomment
p329
g4
sVserverIPAddress
p330
V216.58.216.196
p331
sVpageref
p332
VChicago White Sox
p333
sVstartedDateTime
p334
V2017-04-16T08:27:27.805-05:00
p335
sVcache
p336
(dp337
sVrequest
p338
(dp339
Vcomment
p340
g4
sVcookies
p341
(lp342
sVurl
p343
Vhttp://www.google.com/
p344
sVqueryString
p345
(lp346
sVheaders
p347
(lp348
sVheadersSize
p349
I613
sVbodySize
p350
I0
sVmethod
p351
VGET
p352
sVhttpVersion
p353
VHTTP/1.1
p354
ssVtimings
p355
(dp356
Vcomment
p357
g4
sVreceive
p358
I0
sVsend
p359
I0
sVssl
p360
I-1
sVconnect
p361
I-1
sVdns
p362
I-1
sVwait
p363
I49
sVblocked
p364
I-1
ssVtime
p365
I49
sVresponse
p366
(dp367
Vstatus
p368
I302
sVcomment
p369
g4
sVcookies
p370
(lp371
sVstatusText
p372
VFound
p373
sVcontent
p374
(dp375
VmimeType
p376
Vtext/html; charset=UTF-8
p377
sVcomment
p378
g4
sVsize
p379
I0
ssVheaders
p380
(lp381
sVheadersSize
p382
I609
sVredirectURL
p383
Vhttps://www.google.com/?gws_rd=ssl
p384
sVbodySize
p385
I231
sVhttpVersion
p386
VHTTP/1.1
p387
ssa(dp388
Vcomment
p389
g4
sVserverIPAddress
p390
V216.58.216.196
p391
sVpageref
p392
VChicago White Sox
p393
sVstartedDateTime
p394
V2017-04-16T08:27:27.917-05:00
p395
sVcache
p396
(dp397
sVrequest
p398
(dp399
Vcomment
p400
g4
sVcookies
p401
(lp402
sVurl
p403
Vhttps://www.google.com/?gws_rd=ssl
p404
sVqueryString
p405
(lp406
(dp407
Vname
p408
Vgws_rd
p409
sVvalue
p410
Vssl
p411
sasVheaders
p412
(lp413
sVheadersSize
p414
I607
sVbodySize
p415
I0
sVmethod
p416
VGET
p417
sVhttpVersion
p418
VHTTP/1.1
p419
ssVtimings
p420
(dp421
Vcomment
p422
g4
sVreceive
p423
I23
sVsend
p424
I0
sVssl
p425
I29
sVconnect
p426
I55
sVdns
p427
I0
sVwait
p428
I78
sVblocked
p429
I0
ssVtime
p430
I157
sVresponse
p431
(dp432
Vstatus
p433
I200
sVcomment
p434
g4
sVcookies
p435
(lp436
sVstatusText
p437
VOK
p438
sVcontent
p439
(dp440
VmimeType
p441
Vtext/html; charset=UTF-8
p442
sVcomment
p443
g4
sVsize
p444
I0
ssVheaders
p445
(lp446
sVheadersSize
p447
I721
sVredirectURL
p448
g4
sVbodySize
p449
I34294
sVhttpVersion
p450
VHTTP/1.1
p451
ssa(dp452
Vcomment
p453
g4
sVserverIPAddress
p454
V216.58.216.196
p455
sVpageref
p456
VChicago White Sox
p457
sVstartedDateTime
p458
V2017-04-16T08:27:28.423-05:00
p459
sVcache
p460
(dp461
sVrequest
p462
(dp463
Vcomment
p464
g4
sVcookies
p465
(lp466
sVurl
p467
Vhttps://www.google.com/gen_204?s=mobilewebhp&atyp=csi&ei=PnHzWJX9N8TKjwScg5fQAg&imc=1&imn=1&imp=0&adh=&xjs=init.35.12.sb_mob.24.dvl.4.mbsf.2.c.1.jsa.1&ima=1&rt=xjsls.44,prt.45,iml.45,dcl.69,xjses.135,xjsee.253,xjs.254,ol.380,aft.45,wsrt.231,cst.0,dnst.0,rqst.108,rspt.110,rqstt.120,unt.59,cstt.59,dit.296
p468
sVqueryString
p469
(lp470
(dp471
Vname
p472
g57
sVvalue
p473
Vmobilewebhp
p474
sa(dp475
Vname
p476
Vatyp
p477
sVvalue
p478
Vcsi
p479
sa(dp480
Vname
p481
Vei
p482
sVvalue
p483
VPnHzWJX9N8TKjwScg5fQAg
p484
sa(dp485
Vname
p486
Vimc
p487
sVvalue
p488
g59
sa(dp489
Vname
p490
Vimn
p491
sVvalue
p492
g59
sa(dp493
Vname
p494
Vimp
p495
sVvalue
p496
V0
p497
sa(dp498
Vname
p499
Vadh
p500
sVvalue
p501
g4
sa(dp502
Vname
p503
Vxjs
p504
sVvalue
p505
Vinit.35.12.sb_mob.24.dvl.4.mbsf.2.c.1.jsa.1
p506
sa(dp507
Vname
p508
Vima
p509
sVvalue
p510
g59
sa(dp511
Vname
p512
Vrt
p513
sVvalue
p514
Vxjsls.44,prt.45,iml.45,dcl.69,xjses.135,xjsee.253,xjs.254,ol.380,aft.45,wsrt.231,cst.0,dnst.0,rqst.108,rspt.110,rqstt.120,unt.59,cstt.59,dit.296
p515
sasVheaders
p516
(lp517
sVheadersSize
p518
I832
sVbodySize
p519
I0
sVmethod
p520
VGET
p521
sVhttpVersion
p522
VHTTP/1.1
p523
ssVtimings
p524
(dp525
Vcomment
p526
g4
sVreceive
p527
I0
sVsend
p528
I0
sVssl
p529
I-1
sVconnect
p530
I-1
sVdns
p531
I-1
sVwait
p532
I30
sVblocked
p533
I-1
ssVtime
p534
I31
sVresponse
p535
(dp536
Vstatus
p537
I204
sVcomment
p538
g4
sVcookies
p539
(lp540
sVstatusText
p541
VNo Content
p542
sVcontent
p543
(dp544
VmimeType
p545
Vtext/html; charset=UTF-8
p546
sVcomment
p547
g4
sVsize
p548
I0
ssVheaders
p549
(lp550
sVheadersSize
p551
I248
sVredirectURL
p552
g4
sVbodySize
p553
I0
sVhttpVersion
p554
VHTTP/1.1
p555
ssa(dp556
Vcomment
p557
g4
sVserverIPAddress
p558
V216.58.216.196
p559
sVpageref
p560
VChicago White Sox
p561
sVstartedDateTime
p562
V2017-04-16T08:27:28.567-05:00
p563
sVcache
p564
(dp565
sVrequest
p566
(dp567
Vcomment
p568
g4
sVcookies
p569
(lp570
sVurl
p571
Vhttps://www.google.com/complete/search?client=mobile-gws-hp&hl=en&gs_rn=64&gs_ri=mobile-gws-hp&sla=1&pfq=columbia%20fireflies&gm=602&cp=0&gs_id=1&xhr=t&q=C&tch=1&ech=1&psi=PnHzWJX9N8TKjwScg5fQAg.1492349248247.1
p572
sVqueryString
p573
(lp574
(dp575
Vname
p576
Vclient
p577
sVvalue
p578
Vmobile-gws-hp
p579
sa(dp580
Vname
p581
Vhl
p582
sVvalue
p583
Ven
p584
sa(dp585
Vname
p586
Vgs_rn
p587
sVvalue
p588
V64
p589
sa(dp590
Vname
p591
Vgs_ri
p592
sVvalue
p593
Vmobile-gws-hp
p594
sa(dp595
Vname
p596
Vsla
p597
sVvalue
p598
g59
sa(dp599
Vname
p600
Vpfq
p601
sVvalue
p602
Vcolumbia fireflies
p603
sa(dp604
Vname
p605
Vgm
p606
sVvalue
p607
V602
p608
sa(dp609
Vname
p610
Vcp
p611
sVvalue
p612
g497
sa(dp613
Vname
p614
Vgs_id
p615
sVvalue
p616
g59
sa(dp617
Vname
p618
Vxhr
p619
sVvalue
p620
g52
sa(dp621
Vname
p622
Vq
p623
sVvalue
p624
g54
sa(dp625
Vname
p626
Vtch
p627
sVvalue
p628
g59
sa(dp629
Vname
p630
Vech
p631
sVvalue
p632
g59
sa(dp633
Vname
p634
Vpsi
p635
sVvalue
p636
VPnHzWJX9N8TKjwScg5fQAg.1492349248247.1
p637
sasVheaders
p638
(lp639
sVheadersSize
p640
I738
sVbodySize
p641
I0
sVmethod
p642
VGET
p643
sVhttpVersion
p644
VHTTP/1.1
p645
ssVtimings
p646
(dp647
Vcomment
p648
g4
sVreceive
p649
I0
sVsend
p650
I0
sVssl
p651
I-1
sVconnect
p652
I-1
sVdns
p653
I-1
sVwait
p654
I0
sVblocked
p655
I-1
ssVtime
p656
I0
sVresponse
p657
(dp658
Vstatus
p659
I0
sVcomment
p660
g4
sVcookies
p661
(lp662
sV_error
p663
VNo response received
p664
sVstatusText
p665
g4
sVcontent
p666
(dp667
VmimeType
p668
g4
sVcomment
p669
g4
sVsize
p670
I0
ssVheaders
p671
(lp672
sVheadersSize
p673
I-1
sVredirectURL
p674
g4
sVbodySize
p675
I-1
sVhttpVersion
p676
Vunknown
p677
ssa(dp678
Vcomment
p679
g4
sVserverIPAddress
p680
V216.58.216.196
p681
sVpageref
p682
VChicago White Sox
p683
sVstartedDateTime
p684
V2017-04-16T08:27:28.746-05:00
p685
sVcache
p686
(dp687
sVrequest
p688
(dp689
Vcomment
p690
g4
sVcookies
p691
(lp692
sVurl
p693
Vhttps://www.google.com/search?site=&source=hp&ei=PnHzWJX9N8TKjwScg5fQAg&q=Chicago+White+Sox&oq=Chicago+White+Sox&gs_l=mobile-gws-hp.3...293.350.0.416.17.1.0.0.0.0.0.0..0.0....0...1c.1.64.mobile-gws-hp..17.0.0.kD15E1AiMGc
p694
sVqueryString
p695
(lp696
(dp697
Vname
p698
Vsite
p699
sVvalue
p700
g4
sa(dp701
Vname
p702
Vsource
p703
sVvalue
p704
Vhp
p705
sa(dp706
Vname
p707
Vei
p708
sVvalue
p709
VPnHzWJX9N8TKjwScg5fQAg
p710
sa(dp711
Vname
p712
g623
sVvalue
p713
VChicago White Sox
p714
sa(dp715
Vname
p716
Voq
p717
sVvalue
p718
VChicago White Sox
p719
sa(dp720
Vname
p721
Vgs_l
p722
sVvalue
p723
Vmobile-gws-hp.3...293.350.0.416.17.1.0.0.0.0.0.0..0.0....0...1c.1.64.mobile-gws-hp..17.0.0.kD15E1AiMGc
p724
sasVheaders
p725
(lp726
sVheadersSize
p727
I838
sVbodySize
p728
I0
sVmethod
p729
VGET
p730
sVhttpVersion
p731
VHTTP/1.1
p732
ssVtimings
p733
(dp734
Vcomment
p735
g4
sVreceive
p736
I1046
sVsend
p737
I0
sVssl
p738
I29
sVconnect
p739
I45
sVdns
p740
I0
sVwait
p741
I111
sVblocked
p742
I0
ssVtime
p743
I1203
sVresponse
p744
(dp745
Vstatus
p746
I200
sVcomment
p747
g4
sVcookies
p748
(lp749
sVstatusText
p750
VOK
p751
sVcontent
p752
(dp753
VmimeType
p754
Vtext/html; charset=UTF-8
p755
sVcomment
p756
g4
sVsize
p757
I0
ssVheaders
p758
(lp759
sVheadersSize
p760
I363
sVredirectURL
p761
g4
sVbodySize
p762
I209912
sVhttpVersion
p763
VHTTP/1.1
p764
ssa(dp765
Vcomment
p766
g4
sVserverIPAddress
p767
V172.217.0.3
p768
sVpageref
p769
VChicago White Sox
p770
sVstartedDateTime
p771
V2017-04-16T08:27:29.836-05:00
p772
sVcache
p773
(dp774
sVrequest
p775
(dp776
Vcomment
p777
g4
sVcookies
p778
(lp779
sVurl
p780
Vhttps://ssl.gstatic.com/onebox/media/sports/logos/6qtJV1knLZtEZ8__xseKhA_48x48.png
p781
sVqueryString
p782
(lp783
sVheaders
p784
(lp785
sVheadersSize
p786
I397
sVbodySize
p787
I0
sVmethod
p788
VGET
p789
sVhttpVersion
p790
VHTTP/1.1
p791
ssVtimings
p792
(dp793
Vcomment
p794
g4
sVreceive
p795
I0
sVsend
p796
I0
sVssl
p797
I-1
sVconnect
p798
I-1
sVdns
p799
I-1
sVwait
p800
I25
sVblocked
p801
I-1
ssVtime
p802
I25
sVresponse
p803
(dp804
Vstatus
p805
I200
sVcomment
p806
g4
sVcookies
p807
(lp808
sVstatusText
p809
VOK
p810
sVcontent
p811
(dp812
VmimeType
p813
Vimage/png
p814
sVcomment
p815
g4
sVsize
p816
I0
ssVheaders
p817
(lp818
sVheadersSize
p819
I424
sVredirectURL
p820
g4
sVbodySize
p821
I2855
sVhttpVersion
p822
VHTTP/1.1
p823
ssa(dp824
Vcomment
p825
g4
sVserverIPAddress
p826
V172.217.0.3
p827
sVpageref
p828
VChicago White Sox
p829
sVstartedDateTime
p830
V2017-04-16T08:27:29.837-05:00
p831
sVcache
p832
(dp833
sVrequest
p834
(dp835
Vcomment
p836
g4
sVcookies
p837
(lp838
sVurl
p839
Vhttps://ssl.gstatic.com/onebox/media/sports/logos/6qtJV1knLZtEZ8__xseKhA_96x96.png
p840
sVqueryString
p841
(lp842
sVheaders
p843
(lp844
sVheadersSize
p845
I397
sVbodySize
p846
I0
sVmethod
p847
VGET
p848
sVhttpVersion
p849
VHTTP/1.1
p850
ssVtimings
p851
(dp852
Vcomment
p853
g4
sVreceive
p854
I0
sVsend
p855
I0
sVssl
p856
I-1
sVconnect
p857
I-1
sVdns
p858
I-1
sVwait
p859
I30
sVblocked
p860
I-1
ssVtime
p861
I31
sVresponse
p862
(dp863
Vstatus
p864
I200
sVcomment
p865
g4
sVcookies
p866
(lp867
sVstatusText
p868
VOK
p869
sVcontent
p870
(dp871
VmimeType
p872
Vimage/png
p873
sVcomment
p874
g4
sVsize
p875
I0
ssVheaders
p876
(lp877
sVheadersSize
p878
I402
sVredirectURL
p879
g4
sVbodySize
p880
I6621
sVhttpVersion
p881
VHTTP/1.1
p882
ssa(dp883
Vcomment
p884
g4
sVserverIPAddress
p885
V172.217.0.3
p886
sVpageref
p887
VChicago White Sox
p888
sVstartedDateTime
p889
V2017-04-16T08:27:29.838-05:00
p890
sVcache
p891
(dp892
sVrequest
p893
(dp894
Vcomment
p895
g4
sVcookies
p896
(lp897
sVurl
p898
Vhttps://ssl.gstatic.com/onebox/media/sports/logos/gBAstfK9v7682fKmomWeMA_96x96.png
p899
sVqueryString
p900
(lp901
sVheaders
p902
(lp903
sVheadersSize
p904
I397
sVbodySize
p905
I0
sVmethod
p906
VGET
p907
sVhttpVersion
p908
VHTTP/1.1
p909
ssVtimings
p910
(dp911
Vcomment
p912
g4
sVreceive
p913
I3
sVsend
p914
I0
sVssl
p915
I-1
sVconnect
p916
I-1
sVdns
p917
I-1
sVwait
p918
I30
sVblocked
p919
I-1
ssVtime
p920
I34
sVresponse
p921
(dp922
Vstatus
p923
I200
sVcomment
p924
g4
sVcookies
p925
(lp926
sVstatusText
p927
VOK
p928
sVcontent
p929
(dp930
VmimeType
p931
Vimage/png
p932
sVcomment
p933
g4
sVsize
p934
I0
ssVheaders
p935
(lp936
sVheadersSize
p937
I425
sVredirectURL
p938
g4
sVbodySize
p939
I13965
sVhttpVersion
p940
VHTTP/1.1
p941
ssa(dp942
Vcomment
p943
g4
sVserverIPAddress
p944
V172.217.0.3
p945
sVpageref
p946
VChicago White Sox
p947
sVstartedDateTime
p948
V2017-04-16T08:27:29.838-05:00
p949
sVcache
p950
(dp951
sVrequest
p952
(dp953
Vcomment
p954
g4
sVcookies
p955
(lp956
sVurl
p957
Vhttps://ssl.gstatic.com/onebox/media/sports/logos/SvZBOWebmgQGdzqKGbYRCw_48x48.png
p958
sVqueryString
p959
(lp960
sVheaders
p961
(lp962
sVheadersSize
p963
I397
sVbodySize
p964
I0
sVmethod
p965
VGET
p966
sVhttpVersion
p967
VHTTP/1.1
p968
ssVtimings
p969
(dp970
Vcomment
p971
g4
sVreceive
p972
I8
sVsend
p973
I0
sVssl
p974
I-1
sVconnect
p975
I-1
sVdns
p976
I-1
sVwait
p977
I33
sVblocked
p978
I-1
ssVtime
p979
I42
sVresponse
p980
(dp981
Vstatus
p982
I200
sVcomment
p983
g4
sVcookies
p984
(lp985
sVstatusText
p986
VOK
p987
sVcontent
p988
(dp989
VmimeType
p990
Vimage/png
p991
sVcomment
p992
g4
sVsize
p993
I0
ssVheaders
p994
(lp995
sVheadersSize
p996
I402
sVredirectURL
p997
g4
sVbodySize
p998
I4217
sVhttpVersion
p999
VHTTP/1.1
p1000
ssa(dp1001
Vcomment
p1002
g4
sVserverIPAddress
p1003
V216.58.216.196
p1004
sVpageref
p1005
VChicago White Sox
p1006
sVstartedDateTime
p1007
V2017-04-16T08:27:32.603-05:00
p1008
sVcache
p1009
(dp1010
sVrequest
p1011
(dp1012
Vcomment
p1013
g4
sVcookies
p1014
(lp1015
sVurl
p1016
Vhttps://www.google.com/xjs/_/js/k=xjs.qs.en_US.pCBXVCvTH3s.O/m=syl,syj,syn,em3,em8,em6,em7,sym,aa,abd,sy2g,sy2k,sy29,sy2j,sy2d,sy2a,sy2c,sy2f,sy2l,sy2m,sy2n,emd,async,sybn,sybi,sybo,sy1f,sy45,sy46,sy9w,sybk,sybj,sybp,sy1g,sy30,sy47,sybm,sybl,sybq,sy1h,sybh,dvl,syep,foot,ipv6,sy5g,sy5j,sy5h,sy6u,sy7d,sy7j,sy2x,sy5i,sy89,sy7e,sy23,sy2y,sy5k,sy6c,sy91,sy9b,sy9l,syhi,syhj,syhk,syhl,lr,lrli,sy32,emj,shm,sykh,tl,sy2t,sy38,em12,vs,sy66,sy67,sy4u,sy69,sykk,sykl,tnv,bct,sy48,sy3a,sy3c,sy5b,sy4x,sy4z,sy56,sy1y,sy31,sy4y,sy22,sy6i,sy4h,sy6h,sy6o,sya3,sy5d,sy25,sy6j,sy6k,sy6r,sya2,sy5e,sy6n,emb,em9,ema,sy24,sy2o,sy4c,sy65,sy6p,sy6s,sy6w,sy72,sya4,syd7,syel,syho,syhs,syhu,syhv,sio,sy6y,sycu,d3l,sy5x,qif,tabs,sy2u,sy34,sy6l,sy6m,qkx,syf5,sy99,syf4,sy26,syfc,syfn,syf7,syff,sy1i,sy68,sy8d,syf6,syfl,syfr,syfq,syfg,sy1j,sy4q,sy5o,sy5r,sy8h,syc7,syc8,syfb,syfj,syfs,syft,syg3,syg5,syg7,emn,emo,syg4,syg6,ivg,sy9m,sy9n,iuci,img,sy4d,sy4f,sy4e,sy4b,shrb,sy4g,dgm,sy41,tcc,sy1r,sy8g,syer,sy9u,syex,syey,syet,syeu,syew,syez,syf0,hlr,syac,syhz,syl6,ssc,sy4i,syes,hlmi,sygq,kpc,kpci,sykr,strm,syh6,syl5,kac,kae,strx,twt,syj7,syj8,syj2,syjc,syj6,syj3,syjg,syjh,syje,syjd,syjk,syji,syjf,syj0,emr,ems,emt,emu,emv,emx,emy,emz,em10,em11,udlg,sy5z,atn,sya1,ampfp/am=gCP4LtMEBXQA2RUaq_oFBISzAFA/rt=j/d=0/t=zcms/rs=ACT90oFwm4NZCwIcuuiqmthdlECdBzkhRA
p1017
sVqueryString
p1018
(lp1019
sVheaders
p1020
(lp1021
sVheadersSize
p1022
I1845
sVbodySize
p1023
I0
sVmethod
p1024
VGET
p1025
sVhttpVersion
p1026
VHTTP/1.1
p1027
ssVtimings
p1028
(dp1029
Vcomment
p1030
g4
sVreceive
p1031
I102
sVsend
p1032
I0
sVssl
p1033
I-1
sVconnect
p1034
I-1
sVdns
p1035
I-1
sVwait
p1036
I131
sVblocked
p1037
I-1
ssVtime
p1038
I235
sVresponse
p1039
(dp1040
Vstatus
p1041
I200
sVcomment
p1042
g4
sVcookies
p1043
(lp1044
sVstatusText
p1045
VOK
p1046
sVcontent
p1047
(dp1048
VmimeType
p1049
Vtext/javascript; charset=UTF-8
p1050
sVcomment
p1051
g4
sVsize
p1052
I0
ssVheaders
p1053
(lp1054
sVheadersSize
p1055
I452
sVredirectURL
p1056
g4
sVbodySize
p1057
I227760
sVhttpVersion
p1058
VHTTP/1.1
p1059
ssa(dp1060
Vcomment
p1061
g4
sVserverIPAddress
p1062
V216.58.216.196
p1063
sVpageref
p1064
VChicago White Sox
p1065
sVstartedDateTime
p1066
V2017-04-16T08:27:33.775-05:00
p1067
sVcache
p1068
(dp1069
sVrequest
p1070
(dp1071
Vcomment
p1072
g4
sVcookies
p1073
(lp1074
sVurl
p1075
Vhttps://www.google.com/async/irc?vet=10ahUKEwj4gqyWiqnTAhVhyoMKHQ4CDvkQo0EI6QI..i&ved=0ahUKEwj4gqyWiqnTAhVhyoMKHQ4CDvkQo0EI6QI&ei=P3HzWLjnLeGUjwSOhLjIDw&yv=2&async=iu:1,ved:0ahUKEwj4gqyWiqnTAhVhyoMKHQ4CDvkQo0EI6QI,_id:irc_async,_pms:qs
p1076
sVqueryString
p1077
(lp1078
(dp1079
Vname
p1080
Vvet
p1081
sVvalue
p1082
V10ahUKEwj4gqyWiqnTAhVhyoMKHQ4CDvkQo0EI6QI..i
p1083
sa(dp1084
Vname
p1085
Vved
p1086
sVvalue
p1087
V0ahUKEwj4gqyWiqnTAhVhyoMKHQ4CDvkQo0EI6QI
p1088
sa(dp1089
Vname
p1090
Vei
p1091
sVvalue
p1092
VP3HzWLjnLeGUjwSOhLjIDw
p1093
sa(dp1094
Vname
p1095
Vyv
p1096
sVvalue
p1097
g64
sa(dp1098
Vname
p1099
Vasync
p1100
sVvalue
p1101
Viu:1,ved:0ahUKEwj4gqyWiqnTAhVhyoMKHQ4CDvkQo0EI6QI,_id:irc_async,_pms:qs
p1102
sasVheaders
p1103
(lp1104
sVheadersSize
p1105
I752
sVbodySize
p1106
I0
sVmethod
p1107
VGET
p1108
sVhttpVersion
p1109
VHTTP/1.1
p1110
ssVtimings
p1111
(dp1112
Vcomment
p1113
g4
sVreceive
p1114
I4
sVsend
p1115
I0
sVssl
p1116
I-1
sVconnect
p1117
I-1
sVdns
p1118
I-1
sVwait
p1119
I73
sVblocked
p1120
I-1
ssVtime
p1121
I77
sVresponse
p1122
(dp1123
Vstatus
p1124
I200
sVcomment
p1125
g4
sVcookies
p1126
(lp1127
sVstatusText
p1128
VOK
p1129
sVcontent
p1130
(dp1131
VmimeType
p1132
Vtext/html; charset=UTF-8
p1133
sVcomment
p1134
g4
sVsize
p1135
I0
ssVheaders
p1136
(lp1137
sVheadersSize
p1138
I383
sVredirectURL
p1139
g4
sVbodySize
p1140
I7794
sVhttpVersion
p1141
VHTTP/1.1
p1142
ssa(dp1143
Vcomment
p1144
g4
sVserverIPAddress
p1145
V216.58.216.196
p1146
sVpageref
p1147
VChicago White Sox
p1148
sVstartedDateTime
p1149
V2017-04-16T08:27:34.194-05:00
p1150
sVcache
p1151
(dp1152
sVrequest
p1153
(dp1154
Vcomment
p1155
g4
sVcookies
p1156
(lp1157
sVurl
p1158
Vhttps://www.google.com/async/ampfp?vet=10ahUKEwj4gqyWiqnTAhVhyoMKHQ4CDvkQtZoBCOcC..i&ei=P3HzWLjnLeGUjwSOhLjIDw&yv=2&async=_id:ampfp-async,_pms:qs
p1159
sVqueryString
p1160
(lp1161
(dp1162
Vname
p1163
Vvet
p1164
sVvalue
p1165
V10ahUKEwj4gqyWiqnTAhVhyoMKHQ4CDvkQtZoBCOcC..i
p1166
sa(dp1167
Vname
p1168
Vei
p1169
sVvalue
p1170
VP3HzWLjnLeGUjwSOhLjIDw
p1171
sa(dp1172
Vname
p1173
Vyv
p1174
sVvalue
p1175
g64
sa(dp1176
Vname
p1177
Vasync
p1178
sVvalue
p1179
V_id:ampfp-async,_pms:qs
p1180
sasVheaders
p1181
(lp1182
sVheadersSize
p1183
I662
sVbodySize
p1184
I0
sVmethod
p1185
VGET
p1186
sVhttpVersion
p1187
VHTTP/1.1
p1188
ssVtimings
p1189
(dp1190
Vcomment
p1191
g4
sVreceive
p1192
I5
sVsend
p1193
I0
sVssl
p1194
I-1
sVconnect
p1195
I-1
sVdns
p1196
I-1
sVwait
p1197
I51
sVblocked
p1198
I-1
ssVtime
p1199
I56
sVresponse
p1200
(dp1201
Vstatus
p1202
I200
sVcomment
p1203
g4
sVcookies
p1204
(lp1205
sVstatusText
p1206
VOK
p1207
sVcontent
p1208
(dp1209
VmimeType
p1210
Vtext/html; charset=UTF-8
p1211
sVcomment
p1212
g4
sVsize
p1213
I0
ssVheaders
p1214
(lp1215
sVheadersSize
p1216
I383
sVredirectURL
p1217
g4
sVbodySize
p1218
I4526
sVhttpVersion
p1219
VHTTP/1.1
p1220
ssa(dp1221
Vcomment
p1222
g4
sVserverIPAddress
p1223
V216.58.216.193
p1224
sVpageref
p1225
VChicago White Sox
p1226
sVstartedDateTime
p1227
V2017-04-16T08:27:34.204-05:00
p1228
sVcache
p1229
(dp1230
sVrequest
p1231
(dp1232
Vcomment
p1233
g4
sVcookies
p1234
(lp1235
sVurl
p1236
Vhttps://cdn.ampproject.org/preconnect.gif?0.11379872769262533
p1237
sVqueryString
p1238
(lp1239
(dp1240
Vname
p1241
V0.11379872769262533
p1242
sVvalue
p1243
g4
sasVheaders
p1244
(lp1245
sVheadersSize
p1246
I376
sVbodySize
p1247
I0
sVmethod
p1248
VGET
p1249
sVhttpVersion
p1250
VHTTP/1.1
p1251
ssVtimings
p1252
(dp1253
Vcomment
p1254
g4
sVreceive
p1255
I0
sVsend
p1256
I0
sVssl
p1257
I-1
sVconnect
p1258
I-1
sVdns
p1259
I-1
sVwait
p1260
I27
sVblocked
p1261
I-1
ssVtime
p1262
I27
sVresponse
p1263
(dp1264
Vstatus
p1265
I200
sVcomment
p1266
g4
sVcookies
p1267
(lp1268
sVstatusText
p1269
VOK
p1270
sVcontent
p1271
(dp1272
VmimeType
p1273
Vimage/gif
p1274
sVcomment
p1275
g4
sVsize
p1276
I0
ssVheaders
p1277
(lp1278
sVheadersSize
p1279
I826
sVredirectURL
p1280
g4
sVbodySize
p1281
I37
sVhttpVersion
p1282
VHTTP/1.1
p1283
ssa(dp1284
Vcomment
p1285
g4
sVserverIPAddress
p1286
V172.217.0.1
p1287
sVpageref
p1288
VChicago White Sox
p1289
sVstartedDateTime
p1290
V2017-04-16T08:27:34.224-05:00
p1291
sVcache
p1292
(dp1293
sVrequest
p1294
(dp1295
Vcomment
p1296
g4
sVcookies
p1297
(lp1298
sVurl
p1299
Vhttps://lh3.googleusercontent.com/XXem6-NqBpcSiviCSqX-6_7wqmpd8DK6x1EdSItO90TkiqwaOD1EuUXbE21akhjbqI8NMpcWXgYOgxGCxKdEdzU=w232-h131-p-k-no
p1300
sVqueryString
p1301
(lp1302
sVheaders
p1303
(lp1304
sVheadersSize
p1305
I453
sVbodySize
p1306
I0
sVmethod
p1307
VGET
p1308
sVhttpVersion
p1309
VHTTP/1.1
p1310
ssVtimings
p1311
(dp1312
Vcomment
p1313
g4
sVreceive
p1314
I5
sVsend
p1315
I0
sVssl
p1316
I-1
sVconnect
p1317
I-1
sVdns
p1318
I-1
sVwait
p1319
I19
sVblocked
p1320
I-1
ssVtime
p1321
I26
sVresponse
p1322
(dp1323
Vstatus
p1324
I200
sVcomment
p1325
g4
sVcookies
p1326
(lp1327
sVstatusText
p1328
VOK
p1329
sVcontent
p1330
(dp1331
VmimeType
p1332
Vimage/jpeg
p1333
sVcomment
p1334
g4
sVsize
p1335
I0
ssVheaders
p1336
(lp1337
sVheadersSize
p1338
I495
sVredirectURL
p1339
g4
sVbodySize
p1340
I18103
sVhttpVersion
p1341
VHTTP/1.1
p1342
ssa(dp1343
Vcomment
p1344
g4
sVserverIPAddress
p1345
V172.217.0.1
p1346
sVpageref
p1347
VChicago White Sox
p1348
sVstartedDateTime
p1349
V2017-04-16T08:27:34.239-05:00
p1350
sVcache
p1351
(dp1352
sVrequest
p1353
(dp1354
Vcomment
p1355
g4
sVcookies
p1356
(lp1357
sVurl
p1358
Vhttps://lh3.googleusercontent.com/16ML3gKQC5jyvU-qCoe3SnLhE4HQeYUG7HPqTqwzWaSmb21PrDr59Z2wgZUgNWDE8YobX4rGCtHOYvBoQcnosSFl=w232-h131-p-k-no
p1359
sVqueryString
p1360
(lp1361
sVheaders
p1362
(lp1363
sVheadersSize
p1364
I454
sVbodySize
p1365
I0
sVmethod
p1366
VGET
p1367
sVhttpVersion
p1368
VHTTP/1.1
p1369
ssVtimings
p1370
(dp1371
Vcomment
p1372
g4
sVreceive
p1373
I2
sVsend
p1374
I0
sVssl
p1375
I-1
sVconnect
p1376
I-1
sVdns
p1377
I-1
sVwait
p1378
I21
sVblocked
p1379
I-1
ssVtime
p1380
I24
sVresponse
p1381
(dp1382
Vstatus
p1383
I200
sVcomment
p1384
g4
sVcookies
p1385
(lp1386
sVstatusText
p1387
VOK
p1388
sVcontent
p1389
(dp1390
VmimeType
p1391
Vimage/jpeg
p1392
sVcomment
p1393
g4
sVsize
p1394
I0
ssVheaders
p1395
(lp1396
sVheadersSize
p1397
I494
sVredirectURL
p1398
g4
sVbodySize
p1399
I9603
sVhttpVersion
p1400
VHTTP/1.1
p1401
ssa(dp1402
Vcomment
p1403
g4
sVserverIPAddress
p1404
V216.58.216.196
p1405
sVpageref
p1406
VChicago White Sox
p1407
sVstartedDateTime
p1408
V2017-04-16T08:27:34.773-05:00
p1409
sVcache
p1410
(dp1411
sVrequest
p1412
(dp1413
Vcomment
p1414
g4
sVcookies
p1415
(lp1416
sVurl
p1417
Vhttps://www.google.com/gen_204?s=web&atyp=csi&ei=P3HzWLjnLeGUjwSOhLjIDw&imc=83&imn=83&imp=30&adh=&xjs=init.223.16.sb_mob.192.async.9.dvl.8.lr.5.foot.3&ima=7&rt=prt.1183,iml.1549,xjsls.1183,qiml.1545,dcl.1370,xjses.3009,xjsee.3611,xjs.3614,ol.5759,aft.1544,wsrt.273,cst.0,dnst.0,rqst.1163,rspt.1165,rqstt.52,unt.4,cstt.4,dit.1514
p1418
sVqueryString
p1419
(lp1420
(dp1421
Vname
p1422
g57
sVvalue
p1423
Vweb
p1424
sa(dp1425
Vname
p1426
Vatyp
p1427
sVvalue
p1428
Vcsi
p1429
sa(dp1430
Vname
p1431
Vei
p1432
sVvalue
p1433
VP3HzWLjnLeGUjwSOhLjIDw
p1434
sa(dp1435
Vname
p1436
Vimc
p1437
sVvalue
p1438
V83
p1439
sa(dp1440
Vname
p1441
Vimn
p1442
sVvalue
p1443
V83
p1444
sa(dp1445
Vname
p1446
Vimp
p1447
sVvalue
p1448
V30
p1449
sa(dp1450
Vname
p1451
Vadh
p1452
sVvalue
p1453
g4
sa(dp1454
Vname
p1455
Vxjs
p1456
sVvalue
p1457
Vinit.223.16.sb_mob.192.async.9.dvl.8.lr.5.foot.3
p1458
sa(dp1459
Vname
p1460
Vima
p1461
sVvalue
p1462
V7
p1463
sa(dp1464
Vname
p1465
Vrt
p1466
sVvalue
p1467
Vprt.1183,iml.1549,xjsls.1183,qiml.1545,dcl.1370,xjses.3009,xjsee.3611,xjs.3614,ol.5759,aft.1544,wsrt.273,cst.0,dnst.0,rqst.1163,rspt.1165,rqstt.52,unt.4,cstt.4,dit.1514
p1468
sasVheaders
p1469
(lp1470
sVheadersSize
p1471
I845
sVbodySize
p1472
I0
sVmethod
p1473
VGET
p1474
sVhttpVersion
p1475
VHTTP/1.1
p1476
ssVtimings
p1477
(dp1478
Vcomment
p1479
g4
sVreceive
p1480
I0
sVsend
p1481
I0
sVssl
p1482
I-1
sVconnect
p1483
I-1
sVdns
p1484
I-1
sVwait
p1485
I29
sVblocked
p1486
I-1
ssVtime
p1487
I29
sVresponse
p1488
(dp1489
Vstatus
p1490
I204
sVcomment
p1491
g4
sVcookies
p1492
(lp1493
sVstatusText
p1494
VNo Content
p1495
sVcontent
p1496
(dp1497
VmimeType
p1498
Vtext/html; charset=UTF-8
p1499
sVcomment
p1500
g4
sVsize
p1501
I0
ssVheaders
p1502
(lp1503
sVheadersSize
p1504
I248
sVredirectURL
p1505
g4
sVbodySize
p1506
I0
sVhttpVersion
p1507
VHTTP/1.1
p1508
ssa(dp1509
Vcomment
p1510
g4
sVserverIPAddress
p1511
V216.58.216.196
p1512
sVpageref
p1513
VChicago White Sox
p1514
sVstartedDateTime
p1515
V2017-04-16T08:27:34.833-05:00
p1516
sVcache
p1517
(dp1518
sVrequest
p1519
(dp1520
Vcomment
p1521
g4
sVcookies
p1522
(lp1523
sVurl
p1524
Vhttps://www.google.com/async/log_amp_item_set?vet=10ahUKEwi73fiYiqnTAhXHx4MKHaJzAvkQooQBCAE..i&ei=P3HzWLjnLeGUjwSOhLjIDw&yv=2&async=num_items:10,_fmt:jspb
p1525
sVqueryString
p1526
(lp1527
(dp1528
Vname
p1529
Vvet
p1530
sVvalue
p1531
V10ahUKEwi73fiYiqnTAhXHx4MKHaJzAvkQooQBCAE..i
p1532
sa(dp1533
Vname
p1534
Vei
p1535
sVvalue
p1536
VP3HzWLjnLeGUjwSOhLjIDw
p1537
sa(dp1538
Vname
p1539
Vyv
p1540
sVvalue
p1541
g64
sa(dp1542
Vname
p1543
Vasync
p1544
sVvalue
p1545
Vnum_items:10,_fmt:jspb
p1546
sasVheaders
p1547
(lp1548
sVheadersSize
p1549
I671
sVbodySize
p1550
I0
sVmethod
p1551
VGET
p1552
sVhttpVersion
p1553
VHTTP/1.1
p1554
ssVtimings
p1555
(dp1556
Vcomment
p1557
g4
sVreceive
p1558
I0
sVsend
p1559
I0
sVssl
p1560
I-1
sVconnect
p1561
I-1
sVdns
p1562
I-1
sVwait
p1563
I35
sVblocked
p1564
I-1
ssVtime
p1565
I35
sVresponse
p1566
(dp1567
Vstatus
p1568
I200
sVcomment
p1569
g4
sVcookies
p1570
(lp1571
sVstatusText
p1572
VOK
p1573
sVcontent
p1574
(dp1575
VmimeType
p1576
Vapplication/json; charset=UTF-8
p1577
sVcomment
p1578
g4
sVsize
p1579
I0
ssVheaders
p1580
(lp1581
sVheadersSize
p1582
I417
sVredirectURL
p1583
g4
sVbodySize
p1584
I183
sVhttpVersion
p1585
VHTTP/1.1
p1586
ssa(dp1587
Vcomment
p1588
g4
sVserverIPAddress
p1589
V172.217.0.1
p1590
sVpageref
p1591
VChicago White Sox
p1592
sVstartedDateTime
p1593
V2017-04-16T08:27:34.895-05:00
p1594
sVcache
p1595
(dp1596
sVrequest
p1597
(dp1598
Vcomment
p1599
g4
sVcookies
p1600
(lp1601
sVurl
p1602
Vhttps://www-chicagotribune-com.cdn.ampproject.org/v/www.chicagotribune.com/sports/baseball/whitesox/ct-dylan-covey-mlb-debut-white-sox-20170414-story,amp.html?amp_js_v=9
p1603
sVqueryString
p1604
(lp1605
(dp1606
Vname
p1607
Vamp_js_v
p1608
sVvalue
p1609
V9
p1610
sasVheaders
p1611
(lp1612
sVheadersSize
p1613
I574
sVbodySize
p1614
I0
sVmethod
p1615
VGET
p1616
sVhttpVersion
p1617
VHTTP/1.1
p1618
ssVtimings
p1619
(dp1620
Vcomment
p1621
g4
sVreceive
p1622
I2
sVsend
p1623
I0
sVssl
p1624
I20
sVconnect
p1625
I34
sVdns
p1626
I1
sVwait
p1627
I78
sVblocked
p1628
I0
ssVtime
p1629
I116
sVresponse
p1630
(dp1631
Vstatus
p1632
I200
sVcomment
p1633
g4
sVcookies
p1634
(lp1635
sVstatusText
p1636
VOK
p1637
sVcontent
p1638
(dp1639
VmimeType
p1640
Vtext/html
p1641
sVcomment
p1642
g4
sVsize
p1643
I0
ssVheaders
p1644
(lp1645
sVheadersSize
p1646
I861
sVredirectURL
p1647
g4
sVbodySize
p1648
I9882
sVhttpVersion
p1649
VHTTP/1.1
p1650
ssa(dp1651
Vcomment
p1652
g4
sVserverIPAddress
p1653
V216.58.216.196
p1654
sVpageref
p1655
VChicago White Sox
p1656
sVstartedDateTime
p1657
V2017-04-16T08:27:36.077-05:00
p1658
sVcache
p1659
(dp1660
sVrequest
p1661
(dp1662
Vcomment
p1663
g4
sVcookies
p1664
(lp1665
sVurl
p1666
Vhttps://www.google.com/gen_204?atyp=i&ct=slh&cad=&ei=HHHzWNntCoiwjwShtKWoDA&m=V&t=C&s=1&v=2&pv=0.30798009060495957&me=1:1492349215889,x:2,V,0,0,1280,944:0,N,1,HHHzWNntCoiwjwShtKWoDA:0,R,1,24,0,155,1197,502:0,R,1,25,0,155,1197,500:0,R,1,78,8,665,1264,545:0,R,1,79,8,709,1264,315:0,R,1,80,0,709,1280,335:1,B,4168:11970,e,U&zx=1492349256075
p1667
sVqueryString
p1668
(lp1669
(dp1670
Vname
p1671
Vatyp
p1672
sVvalue
p1673
g30
sa(dp1674
Vname
p1675
Vct
p1676
sVvalue
p1677
Vslh
p1678
sa(dp1679
Vname
p1680
Vcad
p1681
sVvalue
p1682
g4
sa(dp1683
Vname
p1684
Vei
p1685
sVvalue
p1686
VHHHzWNntCoiwjwShtKWoDA
p1687
sa(dp1688
Vname
p1689
g47
sVvalue
p1690
g49
sa(dp1691
Vname
p1692
g52
sVvalue
p1693
g54
sa(dp1694
Vname
p1695
g57
sVvalue
p1696
g59
sa(dp1697
Vname
p1698
g62
sVvalue
p1699
g64
sa(dp1700
Vname
p1701
Vpv
p1702
sVvalue
p1703
V0.30798009060495957
p1704
sa(dp1705
Vname
p1706
Vme
p1707
sVvalue
p1708
V1:1492349215889,x:2,V,0,0,1280,944:0,N,1,HHHzWNntCoiwjwShtKWoDA:0,R,1,24,0,155,1197,502:0,R,1,25,0,155,1197,500:0,R,1,78,8,665,1264,545:0,R,1,79,8,709,1264,315:0,R,1,80,0,709,1280,335:1,B,4168:11970,e,U
p1709
sa(dp1710
Vname
p1711
Vzx
p1712
sVvalue
p1713
V1492349256075
p1714
sasVheaders
p1715
(lp1716
sVheadersSize
p1717
I854
sVbodySize
p1718
I0
sVmethod
p1719
VGET
p1720
sVhttpVersion
p1721
VHTTP/1.1
p1722
ssVtimings
p1723
(dp1724
Vcomment
p1725
g4
sVreceive
p1726
I0
sVsend
p1727
I0
sVssl
p1728
I-1
sVconnect
p1729
I-1
sVdns
p1730
I-1
sVwait
p1731
I26
sVblocked
p1732
I-1
ssVtime
p1733
I26
sVresponse
p1734
(dp1735
Vstatus
p1736
I204
sVcomment
p1737
g4
sVcookies
p1738
(lp1739
sVstatusText
p1740
VNo Content
p1741
sVcontent
p1742
(dp1743
VmimeType
p1744
Vtext/html; charset=UTF-8
p1745
sVcomment
p1746
g4
sVsize
p1747
I0
ssVheaders
p1748
(lp1749
sVheadersSize
p1750
I248
sVredirectURL
p1751
g4
sVbodySize
p1752
I0
sVhttpVersion
p1753
VHTTP/1.1
p1754
ssa(dp1755
Vcomment
p1756
g4
sVserverIPAddress
p1757
V172.217.0.14
p1758
sVpageref
p1759
VChicago White Sox
p1760
sVstartedDateTime
p1761
V2017-04-16T08:27:38.941-05:00
p1762
sVcache
p1763
(dp1764
sVrequest
p1765
(dp1766
Vcomment
p1767
g4
sVcookies
p1768
(lp1769
sVurl
p1770
Vhttps://safebrowsing.google.com/safebrowsing/downloads?client=navclient-auto-ffox&appver=52.0&pver=2.2&key=AIzaSyD_Drzahe4dBzGCZ9ArvowCvrPx_yFrlCM
p1771
sVqueryString
p1772
(lp1773
(dp1774
Vname
p1775
Vclient
p1776
sVvalue
p1777
Vnavclient-auto-ffox
p1778
sa(dp1779
Vname
p1780
Vappver
p1781
sVvalue
p1782
V52.0
p1783
sa(dp1784
Vname
p1785
Vpver
p1786
sVvalue
p1787
V2.2
p1788
sa(dp1789
Vname
p1790
Vkey
p1791
sVvalue
p1792
VAIzaSyD_Drzahe4dBzGCZ9ArvowCvrPx_yFrlCM
p1793
sasVheaders
p1794
(lp1795
sVheadersSize
p1796
I724
sVbodySize
p1797
I358
sVmethod
p1798
VPOST
p1799
sVhttpVersion
p1800
VHTTP/1.1
p1801
ssVtimings
p1802
(dp1803
Vcomment
p1804
g4
sVreceive
p1805
I0
sVsend
p1806
I0
sVssl
p1807
I1000
sVconnect
p1808
I1019
sVdns
p1809
I47
sVwait
p1810
I36
sVblocked
p1811
I0
ssVtime
p1812
I1104
sVresponse
p1813
(dp1814
Vstatus
p1815
I200
sVcomment
p1816
g4
sVcookies
p1817
(lp1818
sVstatusText
p1819
VOK
p1820
sVcontent
p1821
(dp1822
VmimeType
p1823
Vapplication/vnd.google.safebrowsing-update
p1824
sVcomment
p1825
g4
sVsize
p1826
I0
ssVheaders
p1827
(lp1828
sVheadersSize
p1829
I311
sVredirectURL
p1830
g4
sVbodySize
p1831
I852
sVhttpVersion
p1832
VHTTP/1.1
p1833
ssa(dp1834
Vcomment
p1835
g4
sVserverIPAddress
p1836
V216.58.216.78
p1837
sVpageref
p1838
VChicago White Sox
p1839
sVstartedDateTime
p1840
V2017-04-16T08:27:39.134-05:00
p1841
sVcache
p1842
(dp1843
sVrequest
p1844
(dp1845
Vcomment
p1846
g4
sVcookies
p1847
(lp1848
sVurl
p1849
Vhttps://safebrowsing-cache.google.com/safebrowsing/rd/ChFnb29nLXBoaXNoLXNoYXZhcjgAQAJKDAgBEMK-ExjEvhMgAUoMCAEQjrUTGNO2EyAB
p1850
sVqueryString
p1851
(lp1852
sVheaders
p1853
(lp1854
sVheadersSize
p1855
I652
sVbodySize
p1856
I0
sVmethod
p1857
VGET
p1858
sVhttpVersion
p1859
VHTTP/1.1
p1860
ssVtimings
p1861
(dp1862
Vcomment
p1863
g4
sVreceive
p1864
I79
sVsend
p1865
I0
sVssl
p1866
I102
sVconnect
p1867
I118
sVdns
p1868
I32
sVwait
p1869
I14
sVblocked
p1870
I0
ssVtime
p1871
I245
sVresponse
p1872
(dp1873
Vstatus
p1874
I200
sVcomment
p1875
g4
sVcookies
p1876
(lp1877
sVstatusText
p1878
VOK
p1879
sVcontent
p1880
(dp1881
VmimeType
p1882
Vapplication/vnd.google.safebrowsing-chunk
p1883
sVcomment
p1884
g4
sVsize
p1885
I0
ssVheaders
p1886
(lp1887
sVheadersSize
p1888
I385
sVredirectURL
p1889
g4
sVbodySize
p1890
I159876
sVhttpVersion
p1891
VHTTP/1.1
p1892
ssa(dp1893
Vcomment
p1894
g4
sVserverIPAddress
p1895
V216.58.216.78
p1896
sVpageref
p1897
VChicago White Sox
p1898
sVstartedDateTime
p1899
V2017-04-16T08:27:39.230-05:00
p1900
sVcache
p1901
(dp1902
sVrequest
p1903
(dp1904
Vcomment
p1905
g4
sVcookies
p1906
(lp1907
sVurl
p1908
Vhttps://safebrowsing-cache.google.com/safebrowsing/rd/ChFnb29nLXBoaXNoLXNoYXZhcjgAQAJKDAgBEKyzExiNtRMgAQ
p1909
sVqueryString
p1910
(lp1911
sVheaders
p1912
(lp1913
sVheadersSize
p1914
I634
sVbodySize
p1915
I0
sVmethod
p1916
VGET
p1917
sVhttpVersion
p1918
VHTTP/1.1
p1919
ssVtimings
p1920
(dp1921
Vcomment
p1922
g4
sVreceive
p1923
I57
sVsend
p1924
I0
sVssl
p1925
I-1
sVconnect
p1926
I-1
sVdns
p1927
I-1
sVwait
p1928
I36
sVblocked
p1929
I-1
ssVtime
p1930
I93
sVresponse
p1931
(dp1932
Vstatus
p1933
I200
sVcomment
p1934
g4
sVcookies
p1935
(lp1936
sVstatusText
p1937
VOK
p1938
sVcontent
p1939
(dp1940
VmimeType
p1941
Vapplication/vnd.google.safebrowsing-chunk
p1942
sVcomment
p1943
g4
sVsize
p1944
I0
ssVheaders
p1945
(lp1946
sVheadersSize
p1947
I388
sVredirectURL
p1948
g4
sVbodySize
p1949
I160343
sVhttpVersion
p1950
VHTTP/1.1
p1951
ssa(dp1952
Vcomment
p1953
g4
sVserverIPAddress
p1954
V216.58.216.78
p1955
sVpageref
p1956
VChicago White Sox
p1957
sVstartedDateTime
p1958
V2017-04-16T08:27:39.326-05:00
p1959
sVcache
p1960
(dp1961
sVrequest
p1962
(dp1963
Vcomment
p1964
g4
sVcookies
p1965
(lp1966
sVurl
p1967
Vhttps://safebrowsing-cache.google.com/safebrowsing/rd/ChFnb29nLXBoaXNoLXNoYXZhcjgAQAJKDAgBEPyyExirsxMgAQ
p1968
sVqueryString
p1969
(lp1970
sVheaders
p1971
(lp1972
sVheadersSize
p1973
I634
sVbodySize
p1974
I0
sVmethod
p1975
VGET
p1976
sVhttpVersion
p1977
VHTTP/1.1
p1978
ssVtimings
p1979
(dp1980
Vcomment
p1981
g4
sVreceive
p1982
I5
sVsend
p1983
I0
sVssl
p1984
I-1
sVconnect
p1985
I-1
sVdns
p1986
I-1
sVwait
p1987
I18
sVblocked
p1988
I-1
ssVtime
p1989
I24
sVresponse
p1990
(dp1991
Vstatus
p1992
I200
sVcomment
p1993
g4
sVcookies
p1994
(lp1995
sVstatusText
p1996
VOK
p1997
sVcontent
p1998
(dp1999
VmimeType
p2000
Vapplication/vnd.google.safebrowsing-chunk
p2001
sVcomment
p2002
g4
sVsize
p2003
I0
ssVheaders
p2004
(lp2005
sVheadersSize
p2006
I385
sVredirectURL
p2007
g4
sVbodySize
p2008
I24859
sVhttpVersion
p2009
VHTTP/1.1
p2010
ssa(dp2011
Vcomment
p2012
g4
sVserverIPAddress
p2013
V216.58.216.78
p2014
sVpageref
p2015
VChicago White Sox
p2016
sVstartedDateTime
p2017
V2017-04-16T08:27:39.352-05:00
p2018
sVcache
p2019
(dp2020
sVrequest
p2021
(dp2022
Vcomment
p2023
g4
sVcookies
p2024
(lp2025
sVurl
p2026
Vhttps://safebrowsing-cache.google.com/safebrowsing/rd/ChFnb29nLXBoaXNoLXNoYXZhcjgAQAJKDAgAEKiPHRipjx0gAUoMCAAQuogdGLiJHSAB
p2027
sVqueryString
p2028
(lp2029
sVheaders
p2030
(lp2031
sVheadersSize
p2032
I652
sVbodySize
p2033
I0
sVmethod
p2034
VGET
p2035
sVhttpVersion
p2036
VHTTP/1.1
p2037
ssVtimings
p2038
(dp2039
Vcomment
p2040
g4
sVreceive
p2041
I59
sVsend
p2042
I0
sVssl
p2043
I-1
sVconnect
p2044
I-1
sVdns
p2045
I-1
sVwait
p2046
I18
sVblocked
p2047
I-1
ssVtime
p2048
I78
sVresponse
p2049
(dp2050
Vstatus
p2051
I200
sVcomment
p2052
g4
sVcookies
p2053
(lp2054
sVstatusText
p2055
VOK
p2056
sVcontent
p2057
(dp2058
VmimeType
p2059
Vapplication/vnd.google.safebrowsing-chunk
p2060
sVcomment
p2061
g4
sVsize
p2062
I0
ssVheaders
p2063
(lp2064
sVheadersSize
p2065
I385
sVredirectURL
p2066
g4
sVbodySize
p2067
I190997
sVhttpVersion
p2068
VHTTP/1.1
p2069
ssa(dp2070
Vcomment
p2071
g4
sVserverIPAddress
p2072
V216.58.216.78
p2073
sVpageref
p2074
VChicago White Sox
p2075
sVstartedDateTime
p2076
V2017-04-16T08:27:39.432-05:00
p2077
sVcache
p2078
(dp2079
sVrequest
p2080
(dp2081
Vcomment
p2082
g4
sVcookies
p2083
(lp2084
sVurl
p2085
Vhttps://safebrowsing-cache.google.com/safebrowsing/rd/ChFnb29nLXBoaXNoLXNoYXZhcjgAQAJKDAgAENSHHRi5iB0gAQ
p2086
sVqueryString
p2087
(lp2088
sVheaders
p2089
(lp2090
sVheadersSize
p2091
I634
sVbodySize
p2092
I0
sVmethod
p2093
VGET
p2094
sVhttpVersion
p2095
VHTTP/1.1
p2096
ssVtimings
p2097
(dp2098
Vcomment
p2099
g4
sVreceive
p2100
I30
sVsend
p2101
I0
sVssl
p2102
I-1
sVconnect
p2103
I-1
sVdns
p2104
I-1
sVwait
p2105
I24
sVblocked
p2106
I-1
ssVtime
p2107
I54
sVresponse
p2108
(dp2109
Vstatus
p2110
I200
sVcomment
p2111
g4
sVcookies
p2112
(lp2113
sVstatusText
p2114
VOK
p2115
sVcontent
p2116
(dp2117
VmimeType
p2118
Vapplication/vnd.google.safebrowsing-chunk
p2119
sVcomment
p2120
g4
sVsize
p2121
I0
ssVheaders
p2122
(lp2123
sVheadersSize
p2124
I387
sVredirectURL
p2125
g4
sVbodySize
p2126
I191351
sVhttpVersion
p2127
VHTTP/1.1
p2128
ssa(dp2129
Vcomment
p2130
g4
sVserverIPAddress
p2131
V216.58.216.78
p2132
sVpageref
p2133
VChicago White Sox
p2134
sVstartedDateTime
p2135
V2017-04-16T08:27:39.494-05:00
p2136
sVcache
p2137
(dp2138
sVrequest
p2139
(dp2140
Vcomment
p2141
g4
sVcookies
p2142
(lp2143
sVurl
p2144
Vhttps://safebrowsing-cache.google.com/safebrowsing/rd/ChFnb29nLXBoaXNoLXNoYXZhcjgAQAJKVAgAEJeGHRjThx0gASpGGhscHR4fICEiIyQlJicoKSosLS4vMDEyMzQ1Njc4OTo7PD0-P0BBQkNERUZHSElKS0xNTk9QUVJTVFVWV1hZWltcXV5fYA
p2145
sVqueryString
p2146
(lp2147
sVheaders
p2148
(lp2149
sVheadersSize
p2150
I730
sVbodySize
p2151
I0
sVmethod
p2152
VGET
p2153
sVhttpVersion
p2154
VHTTP/1.1
p2155
ssVtimings
p2156
(dp2157
Vcomment
p2158
g4
sVreceive
p2159
I34
sVsend
p2160
I0
sVssl
p2161
I-1
sVconnect
p2162
I-1
sVdns
p2163
I-1
sVwait
p2164
I32
sVblocked
p2165
I-1
ssVtime
p2166
I66
sVresponse
p2167
(dp2168
Vstatus
p2169
I200
sVcomment
p2170
g4
sVcookies
p2171
(lp2172
sVstatusText
p2173
VOK
p2174
sVcontent
p2175
(dp2176
VmimeType
p2177
Vapplication/vnd.google.safebrowsing-chunk
p2178
sVcomment
p2179
g4
sVsize
p2180
I0
ssVheaders
p2181
(lp2182
sVheadersSize
p2183
I387
sVredirectURL
p2184
g4
sVbodySize
p2185
I191866
sVhttpVersion
p2186
VHTTP/1.1
p2187
ssa(dp2188
Vcomment
p2189
g4
sVserverIPAddress
p2190
V216.58.216.78
p2191
sVpageref
p2192
VChicago White Sox
p2193
sVstartedDateTime
p2194
V2017-04-16T08:27:39.563-05:00
p2195
sVcache
p2196
(dp2197
sVrequest
p2198
(dp2199
Vcomment
p2200
g4
sVcookies
p2201
(lp2202
sVurl
p2203
Vhttps://safebrowsing-cache.google.com/safebrowsing/rd/ChFnb29nLXBoaXNoLXNoYXZhcjgAQAJKDAgAEMGEHRiWhh0gAQ
p2204
sVqueryString
p2205
(lp2206
sVheaders
p2207
(lp2208
sVheadersSize
p2209
I634
sVbodySize
p2210
I0
sVmethod
p2211
VGET
p2212
sVhttpVersion
p2213
VHTTP/1.1
p2214
ssVtimings
p2215
(dp2216
Vcomment
p2217
g4
sVreceive
p2218
I30
sVsend
p2219
I0
sVssl
p2220
I-1
sVconnect
p2221
I-1
sVdns
p2222
I-1
sVwait
p2223
I15
sVblocked
p2224
I-1
ssVtime
p2225
I46
sVresponse
p2226
(dp2227
Vstatus
p2228
I200
sVcomment
p2229
g4
sVcookies
p2230
(lp2231
sVstatusText
p2232
VOK
p2233
sVcontent
p2234
(dp2235
VmimeType
p2236
Vapplication/vnd.google.safebrowsing-chunk
p2237
sVcomment
p2238
g4
sVsize
p2239
I0
ssVheaders
p2240
(lp2241
sVheadersSize
p2242
I387
sVredirectURL
p2243
g4
sVbodySize
p2244
I188929
sVhttpVersion
p2245
VHTTP/1.1
p2246
ssasVversion
p2247
V1.2
p2248
sVpages
p2249
(lp2250
(dp2251
VpageTimings
p2252
(dp2253
Vcomment
p2254
g4
ssVcomment
p2255
g4
sVtitle
p2256
VChicago White Sox
p2257
sVid
p2258
VChicago White Sox
p2259
sVstartedDateTime
p2260
V2017-04-16T08:27:27.787-05:00
p2261
sasVcreator
p2262
(dp2263
Vcomment
p2264
g4
sVversion
p2265
V2.1.4
p2266
sVname
p2267
VBrowserMob Proxy
p2268
sss.