(dp0
Vlog
p1
(dp2
Vcomment
p3
V
p4
sVentries
p5
(lp6
(dp7
Vcomment
p8
g4
sVserverIPAddress
p9
V172.217.6.4
p10
sVpageref
p11
VFord
p12
sVstartedDateTime
p13
V2017-04-16T08:48:11.939-05:00
p14
sVcache
p15
(dp16
sVrequest
p17
(dp18
Vcomment
p19
g4
sVcookies
p20
(lp21
sVurl
p22
Vhttps://www.google.com/gen_204?atyp=i&ct=slh&cad=&ei=BnbzWP-oH6vLjwSAy63QCA&m=V&t=C&s=1&v=2&pv=0.36555176112263055&me=1:1492350475427,x:1,V,0,0,1280,944:0,N,1,BnbzWP-oH6vLjwSAy63QCA:0,R,1,22,8,155,1249,275:0,R,1,40,24,440,1217,115:0,R,1,47,8,576,1249,501:0,R,1,49,8,576,1197,501:0,R,1,51,95,576,1024,120:0,R,1,82,16,772,1189,83:0,R,1,91,16,855,1189,83:0,R,1,100,16,938,1189,93:2,B,4025:16507,e,U&zx=1492350491937
p23
sVqueryString
p24
(lp25
(dp26
Vname
p27
Vatyp
p28
sVvalue
p29
Vi
p30
sa(dp31
Vname
p32
Vct
p33
sVvalue
p34
Vslh
p35
sa(dp36
Vname
p37
Vcad
p38
sVvalue
p39
g4
sa(dp40
Vname
p41
Vei
p42
sVvalue
p43
VBnbzWP-oH6vLjwSAy63QCA
p44
sa(dp45
Vname
p46
Vm
p47
sVvalue
p48
VV
p49
sa(dp50
Vname
p51
Vt
p52
sVvalue
p53
VC
p54
sa(dp55
Vname
p56
Vs
p57
sVvalue
p58
V1
p59
sa(dp60
Vname
p61
Vv
p62
sVvalue
p63
V2
p64
sa(dp65
Vname
p66
Vpv
p67
sVvalue
p68
V0.36555176112263055
p69
sa(dp70
Vname
p71
Vme
p72
sVvalue
p73
V1:1492350475427,x:1,V,0,0,1280,944:0,N,1,BnbzWP-oH6vLjwSAy63QCA:0,R,1,22,8,155,1249,275:0,R,1,40,24,440,1217,115:0,R,1,47,8,576,1249,501:0,R,1,49,8,576,1197,501:0,R,1,51,95,576,1024,120:0,R,1,82,16,772,1189,83:0,R,1,91,16,855,1189,83:0,R,1,100,16,938,1189,93:2,B,4025:16507,e,U
p74
sa(dp75
Vname
p76
Vzx
p77
sVvalue
p78
V1492350491937
p79
sasVheaders
p80
(lp81
sVheadersSize
p82
I929
sVbodySize
p83
I0
sVmethod
p84
VGET
p85
sVhttpVersion
p86
VHTTP/1.1
p87
ssVtimings
p88
(dp89
Vcomment
p90
g4
sVreceive
p91
I0
sVsend
p92
I0
sVssl
p93
I-1
sVconnect
p94
I-1
sVdns
p95
I-1
sVwait
p96
I0
sVblocked
p97
I-1
ssVtime
p98
I0
sVresponse
p99
(dp100
Vstatus
p101
I0
sVcomment
p102
g4
sVcookies
p103
(lp104
sV_error
p105
VNo response received
p106
sVstatusText
p107
g4
sVcontent
p108
(dp109
VmimeType
p110
g4
sVcomment
p111
g4
sVsize
p112
I0
ssVheaders
p113
(lp114
sVheadersSize
p115
I-1
sVredirectURL
p116
g4
sVbodySize
p117
I-1
sVhttpVersion
p118
Vunknown
p119
ssa(dp120
Vcomment
p121
g4
sVserverIPAddress
p122
V172.217.6.4
p123
sVpageref
p124
VFord
p125
sVstartedDateTime
p126
V2017-04-16T08:48:11.944-05:00
p127
sVcache
p128
(dp129
sVrequest
p130
(dp131
Vcomment
p132
g4
sVcookies
p133
(lp134
sVurl
p135
Vhttp://www.google.com/
p136
sVqueryString
p137
(lp138
sVheaders
p139
(lp140
sVheadersSize
p141
I613
sVbodySize
p142
I0
sVmethod
p143
VGET
p144
sVhttpVersion
p145
VHTTP/1.1
p146
ssVtimings
p147
(dp148
Vcomment
p149
g4
sVreceive
p150
I0
sVsend
p151
I0
sVssl
p152
I-1
sVconnect
p153
I-1
sVdns
p154
I-1
sVwait
p155
I37
sVblocked
p156
I-1
ssVtime
p157
I37
sVresponse
p158
(dp159
Vstatus
p160
I302
sVcomment
p161
g4
sVcookies
p162
(lp163
sVstatusText
p164
VFound
p165
sVcontent
p166
(dp167
VmimeType
p168
Vtext/html; charset=UTF-8
p169
sVcomment
p170
g4
sVsize
p171
I0
ssVheaders
p172
(lp173
sVheadersSize
p174
I609
sVredirectURL
p175
Vhttps://www.google.com/?gws_rd=ssl
p176
sVbodySize
p177
I231
sVhttpVersion
p178
VHTTP/1.1
p179
ssa(dp180
Vcomment
p181
g4
sVserverIPAddress
p182
V172.217.6.4
p183
sVpageref
p184
VFord
p185
sVstartedDateTime
p186
V2017-04-16T08:48:11.986-05:00
p187
sVcache
p188
(dp189
sVrequest
p190
(dp191
Vcomment
p192
g4
sVcookies
p193
(lp194
sVurl
p195
Vhttps://www.google.com/?gws_rd=ssl
p196
sVqueryString
p197
(lp198
(dp199
Vname
p200
Vgws_rd
p201
sVvalue
p202
Vssl
p203
sasVheaders
p204
(lp205
sVheadersSize
p206
I607
sVbodySize
p207
I0
sVmethod
p208
VGET
p209
sVhttpVersion
p210
VHTTP/1.1
p211
ssVtimings
p212
(dp213
Vcomment
p214
g4
sVreceive
p215
I10
sVsend
p216
I0
sVssl
p217
I-1
sVconnect
p218
I-1
sVdns
p219
I-1
sVwait
p220
I72
sVblocked
p221
I-1
ssVtime
p222
I83
sVresponse
p223
(dp224
Vstatus
p225
I200
sVcomment
p226
g4
sVcookies
p227
(lp228
sVstatusText
p229
VOK
p230
sVcontent
p231
(dp232
VmimeType
p233
Vtext/html; charset=UTF-8
p234
sVcomment
p235
g4
sVsize
p236
I0
ssVheaders
p237
(lp238
sVheadersSize
p239
I721
sVredirectURL
p240
g4
sVbodySize
p241
I34291
sVhttpVersion
p242
VHTTP/1.1
p243
ssa(dp244
Vcomment
p245
g4
sVserverIPAddress
p246
V172.217.6.4
p247
sVpageref
p248
VFord
p249
sVstartedDateTime
p250
V2017-04-16T08:48:12.326-05:00
p251
sVcache
p252
(dp253
sVrequest
p254
(dp255
Vcomment
p256
g4
sVcookies
p257
(lp258
sVurl
p259
Vhttps://www.google.com/gen_204?s=mobilewebhp&atyp=csi&ei=GnbzWKTdOqnTjwSfiImQBA&imc=1&imn=1&imp=0&adh=&xjs=init.32.12.sb_mob.25.dvl.4.jsa.1.mbsf.1.foot.1&ima=1&rt=xjsls.23,prt.24,iml.24,dcl.55,xjses.102,xjsee.193,xjs.193,ol.235,aft.24,wsrt.150,cst.0,dnst.0,rqst.86,rspt.11,rqstt.49,unt.46,cstt.46,dit.190
p260
sVqueryString
p261
(lp262
(dp263
Vname
p264
g57
sVvalue
p265
Vmobilewebhp
p266
sa(dp267
Vname
p268
Vatyp
p269
sVvalue
p270
Vcsi
p271
sa(dp272
Vname
p273
Vei
p274
sVvalue
p275
VGnbzWKTdOqnTjwSfiImQBA
p276
sa(dp277
Vname
p278
Vimc
p279
sVvalue
p280
g59
sa(dp281
Vname
p282
Vimn
p283
sVvalue
p284
g59
sa(dp285
Vname
p286
Vimp
p287
sVvalue
p288
V0
p289
sa(dp290
Vname
p291
Vadh
p292
sVvalue
p293
g4
sa(dp294
Vname
p295
Vxjs
p296
sVvalue
p297
Vinit.32.12.sb_mob.25.dvl.4.jsa.1.mbsf.1.foot.1
p298
sa(dp299
Vname
p300
Vima
p301
sVvalue
p302
g59
sa(dp303
Vname
p304
Vrt
p305
sVvalue
p306
Vxjsls.23,prt.24,iml.24,dcl.55,xjses.102,xjsee.193,xjs.193,ol.235,aft.24,wsrt.150,cst.0,dnst.0,rqst.86,rspt.11,rqstt.49,unt.46,cstt.46,dit.190
p307
sasVheaders
p308
(lp309
sVheadersSize
p310
I832
sVbodySize
p311
I0
sVmethod
p312
VGET
p313
sVhttpVersion
p314
VHTTP/1.1
p315
ssVtimings
p316
(dp317
Vcomment
p318
g4
sVreceive
p319
I0
sVsend
p320
I0
sVssl
p321
I-1
sVconnect
p322
I-1
sVdns
p323
I-1
sVwait
p324
I25
sVblocked
p325
I-1
ssVtime
p326
I25
sVresponse
p327
(dp328
Vstatus
p329
I204
sVcomment
p330
g4
sVcookies
p331
(lp332
sVstatusText
p333
VNo Content
p334
sVcontent
p335
(dp336
VmimeType
p337
Vtext/html; charset=UTF-8
p338
sVcomment
p339
g4
sVsize
p340
I0
ssVheaders
p341
(lp342
sVheadersSize
p343
I248
sVredirectURL
p344
g4
sVbodySize
p345
I0
sVhttpVersion
p346
VHTTP/1.1
p347
ssa(dp348
Vcomment
p349
g4
sVserverIPAddress
p350
V172.217.6.4
p351
sVpageref
p352
VFord
p353
sVstartedDateTime
p354
V2017-04-16T08:48:12.478-05:00
p355
sVcache
p356
(dp357
sVrequest
p358
(dp359
Vcomment
p360
g4
sVcookies
p361
(lp362
sVurl
p363
Vhttps://www.google.com/complete/search?client=mobile-gws-hp&hl=en&gs_rn=64&gs_ri=mobile-gws-hp&sla=1&pfq=fantastic%20beasts%20and%20where%20to%20find%20them&gm=602&cp=0&gs_id=1&xhr=t&q=F&tch=1&ech=1&psi=GnbzWKTdOqnTjwSfiImQBA.1492350492250.1
p364
sVqueryString
p365
(lp366
(dp367
Vname
p368
Vclient
p369
sVvalue
p370
Vmobile-gws-hp
p371
sa(dp372
Vname
p373
Vhl
p374
sVvalue
p375
Ven
p376
sa(dp377
Vname
p378
Vgs_rn
p379
sVvalue
p380
V64
p381
sa(dp382
Vname
p383
Vgs_ri
p384
sVvalue
p385
Vmobile-gws-hp
p386
sa(dp387
Vname
p388
Vsla
p389
sVvalue
p390
g59
sa(dp391
Vname
p392
Vpfq
p393
sVvalue
p394
Vfantastic beasts and where to find them
p395
sa(dp396
Vname
p397
Vgm
p398
sVvalue
p399
V602
p400
sa(dp401
Vname
p402
Vcp
p403
sVvalue
p404
g289
sa(dp405
Vname
p406
Vgs_id
p407
sVvalue
p408
g59
sa(dp409
Vname
p410
Vxhr
p411
sVvalue
p412
g52
sa(dp413
Vname
p414
Vq
p415
sVvalue
p416
VF
p417
sa(dp418
Vname
p419
Vtch
p420
sVvalue
p421
g59
sa(dp422
Vname
p423
Vech
p424
sVvalue
p425
g59
sa(dp426
Vname
p427
Vpsi
p428
sVvalue
p429
VGnbzWKTdOqnTjwSfiImQBA.1492350492250.1
p430
sasVheaders
p431
(lp432
sVheadersSize
p433
I769
sVbodySize
p434
I0
sVmethod
p435
VGET
p436
sVhttpVersion
p437
VHTTP/1.1
p438
ssVtimings
p439
(dp440
Vcomment
p441
g4
sVreceive
p442
I0
sVsend
p443
I0
sVssl
p444
I-1
sVconnect
p445
I-1
sVdns
p446
I-1
sVwait
p447
I0
sVblocked
p448
I-1
ssVtime
p449
I0
sVresponse
p450
(dp451
Vstatus
p452
I0
sVcomment
p453
g4
sVcookies
p454
(lp455
sV_error
p456
VNo response received
p457
sVstatusText
p458
g4
sVcontent
p459
(dp460
VmimeType
p461
g4
sVcomment
p462
g4
sVsize
p463
I0
ssVheaders
p464
(lp465
sVheadersSize
p466
I-1
sVredirectURL
p467
g4
sVbodySize
p468
I-1
sVhttpVersion
p469
Vunknown
p470
ssa(dp471
Vcomment
p472
g4
sVserverIPAddress
p473
V172.217.6.4
p474
sVpageref
p475
VFord
p476
sVstartedDateTime
p477
V2017-04-16T08:48:12.521-05:00
p478
sVcache
p479
(dp480
sVrequest
p481
(dp482
Vcomment
p483
g4
sVcookies
p484
(lp485
sVurl
p486
Vhttps://www.google.com/search?site=&source=hp&ei=GnbzWKTdOqnTjwSfiImQBA&q=Ford&oq=Ford&gs_l=mobile-gws-hp.3...201.211.0.240.4.1.0.0.0.0.0.0..0.0....0...1c.1.64.mobile-gws-hp..4.0.0.tgJAgzKu_RI
p487
sVqueryString
p488
(lp489
(dp490
Vname
p491
Vsite
p492
sVvalue
p493
g4
sa(dp494
Vname
p495
Vsource
p496
sVvalue
p497
Vhp
p498
sa(dp499
Vname
p500
Vei
p501
sVvalue
p502
VGnbzWKTdOqnTjwSfiImQBA
p503
sa(dp504
Vname
p505
g415
sVvalue
p506
VFord
p507
sa(dp508
Vname
p509
Voq
p510
sVvalue
p511
VFord
p512
sa(dp513
Vname
p514
Vgs_l
p515
sVvalue
p516
Vmobile-gws-hp.3...201.211.0.240.4.1.0.0.0.0.0.0..0.0....0...1c.1.64.mobile-gws-hp..4.0.0.tgJAgzKu_RI
p517
sasVheaders
p518
(lp519
sVheadersSize
p520
I810
sVbodySize
p521
I0
sVmethod
p522
VGET
p523
sVhttpVersion
p524
VHTTP/1.1
p525
ssVtimings
p526
(dp527
Vcomment
p528
g4
sVreceive
p529
I1269
sVsend
p530
I0
sVssl
p531
I-1
sVconnect
p532
I-1
sVdns
p533
I-1
sVwait
p534
I95
sVblocked
p535
I-1
ssVtime
p536
I1364
sVresponse
p537
(dp538
Vstatus
p539
I200
sVcomment
p540
g4
sVcookies
p541
(lp542
sVstatusText
p543
VOK
p544
sVcontent
p545
(dp546
VmimeType
p547
Vtext/html; charset=UTF-8
p548
sVcomment
p549
g4
sVsize
p550
I0
ssVheaders
p551
(lp552
sVheadersSize
p553
I363
sVredirectURL
p554
g4
sVbodySize
p555
I138425
sVhttpVersion
p556
VHTTP/1.1
p557
ssa(dp558
Vcomment
p559
g4
sVserverIPAddress
p560
V172.217.6.4
p561
sVpageref
p562
VFord
p563
sVstartedDateTime
p564
V2017-04-16T08:48:13.774-05:00
p565
sVcache
p566
(dp567
sVrequest
p568
(dp569
Vcomment
p570
g4
sVcookies
p571
(lp572
sVurl
p573
Vhttps://www.google.com/gen_204?atyp=i&ct=&cad=udla=1&ei=G3bzWPvzHqCjjwTD1oOYAg&b=0&act=p&ps=0&zx=1492350493772
p574
sVqueryString
p575
(lp576
(dp577
Vname
p578
Vatyp
p579
sVvalue
p580
g30
sa(dp581
Vname
p582
Vct
p583
sVvalue
p584
g4
sa(dp585
Vname
p586
Vcad
p587
sVvalue
p588
Vudla=1
p589
sa(dp590
Vname
p591
Vei
p592
sVvalue
p593
VG3bzWPvzHqCjjwTD1oOYAg
p594
sa(dp595
Vname
p596
Vb
p597
sVvalue
p598
g289
sa(dp599
Vname
p600
Vact
p601
sVvalue
p602
Vp
p603
sa(dp604
Vname
p605
Vps
p606
sVvalue
p607
g289
sa(dp608
Vname
p609
Vzx
p610
sVvalue
p611
V1492350493772
p612
sasVheaders
p613
(lp614
sVheadersSize
p615
I627
sVbodySize
p616
I0
sVmethod
p617
VGET
p618
sVhttpVersion
p619
VHTTP/1.1
p620
ssVtimings
p621
(dp622
Vcomment
p623
g4
sVreceive
p624
I0
sVsend
p625
I0
sVssl
p626
I-1
sVconnect
p627
I-1
sVdns
p628
I-1
sVwait
p629
I87
sVblocked
p630
I-1
ssVtime
p631
I88
sVresponse
p632
(dp633
Vstatus
p634
I204
sVcomment
p635
g4
sVcookies
p636
(lp637
sVstatusText
p638
VNo Content
p639
sVcontent
p640
(dp641
VmimeType
p642
Vtext/html; charset=UTF-8
p643
sVcomment
p644
g4
sVsize
p645
I0
ssVheaders
p646
(lp647
sVheadersSize
p648
I248
sVredirectURL
p649
g4
sVbodySize
p650
I0
sVhttpVersion
p651
VHTTP/1.1
p652
ssa(dp653
Vcomment
p654
g4
sVserverIPAddress
p655
V172.217.6.4
p656
sVpageref
p657
VFord
p658
sVstartedDateTime
p659
V2017-04-16T08:48:14.320-05:00
p660
sVcache
p661
(dp662
sVrequest
p663
(dp664
Vcomment
p665
g4
sVcookies
p666
(lp667
sVurl
p668
Vhttps://www.google.com/xjs/_/js/k=xjs.qs.en_US.pCBXVCvTH3s.O/m=syl,syj,syn,em3,em8,em6,em7,sym,aa,abd,sy2g,sy2k,sy29,sy2j,sy2d,sy2a,sy2c,sy2f,sy2l,sy2m,sy2n,emd,async,sybn,sybi,sybo,sy1f,sy45,sy46,sy9w,sybk,sybj,sybp,sy1g,sy30,sy47,sybm,sybl,sybq,sy1h,sybh,dvl,syep,foot,ipv6,sy32,emj,shm,sy5g,sy5i,sy5k,sykh,tl,sy2x,sy2y,sy2t,sy38,em12,vs,sy5j,sy5h,sy6u,sy66,sy67,sy7d,sy7j,sy4u,sy69,sy89,sy7e,sykk,sykl,tnv,bct,sy5o,sy5r,sy23,sy2u,sy5u,sy5t,sy33,sy34,sy2w,sy31,sy2z,sy7l,sy4v,sy6z,sy4l,sy37,sy2r,sy35,sy6q,sy7t,sy50,sy71,sy7f,sy7o,syah,syai,syak,syal,alc,sy1r,sy24,sy4g,syaj,flum,sy4d,sy4f,sy4c,sy4e,sy4b,syd7,dgm,sy1y,sy3x,sy22,sy6p,sy3w,sy6i,syav,syaw,syb0,sy2o,sy6j,syb1,syaz,sy25,syao,sy2v,sy36,sy3z,syau,syb2,syb3,syay,syax,sy8x,syag,syb7,emb,em9,ema,sy2i,sy6k,syam,syaq,syat,syb4,syb5,syb6,sybc,sybg,lrl,lcm,mexp,sy48,sy3a,sy3c,sy5b,sy4x,sybd,sybe,sybt,sy2p,sy56,sybf,sybr,sybs,mlm,sy4z,sy4y,sy5d,sy5e,llmr,akpc,sy9m,syac,sy9b,sy9n,syhz,syl6,ssc,gldm,sy6n,flpm,sy5a,syan,syap,flmm,rltl,syi0,cpn,sy7y,sy7u,sy7w,sy87,sy7p,sy81,sy7q,sy7s,sy7z,sy82,sy85,sy83,sy26,sy5n,syas,syb8,syba,sybb,inf,sy5x,qif,rliv,skp,llmu,sy1i,sy40,syhm,sy1j,sy9p,sykf,nqsb,sy6t,nvm,twt,sy6l,sy6h,sy6m,qkx,syf5,sy99,syf4,syfc,syfn,syf7,syff,sy68,sy8d,syf6,syfl,syfr,syfq,syfg,sy4q,sy8h,syc7,syc8,syfb,syfj,syfs,syft,syg3,syg5,syg7,emn,emo,syg4,syg6,ivg,iuci,img,sy6w,shrb,sy41,tcc,sy80,sy52,sy7m,sy8l,sycv,sy7r,sy8y,syd0,syda,syd5,sy8q,syd1,sydb,syel,syie,pe,sygq,kpc,kpci,sy4h,vrml,sy6y,sycu,d3l,sy5z,atn,sya3,sya2,sy4i,sya1,sya4,ampfp/am=gCP4LtMEBXQA2RUaq_oFBISzAFA/rt=j/d=0/t=zcms/rs=ACT90oFwm4NZCwIcuuiqmthdlECdBzkhRA
p669
sVqueryString
p670
(lp671
sVheaders
p672
(lp673
sVheadersSize
p674
I2119
sVbodySize
p675
I0
sVmethod
p676
VGET
p677
sVhttpVersion
p678
VHTTP/1.1
p679
ssVtimings
p680
(dp681
Vcomment
p682
g4
sVreceive
p683
I67
sVsend
p684
I0
sVssl
p685
I-1
sVconnect
p686
I-1
sVdns
p687
I-1
sVwait
p688
I12
sVblocked
p689
I-1
ssVtime
p690
I80
sVresponse
p691
(dp692
Vstatus
p693
I200
sVcomment
p694
g4
sVcookies
p695
(lp696
sVstatusText
p697
VOK
p698
sVcontent
p699
(dp700
VmimeType
p701
Vtext/javascript; charset=UTF-8
p702
sVcomment
p703
g4
sVsize
p704
I0
ssVheaders
p705
(lp706
sVheadersSize
p707
I464
sVredirectURL
p708
g4
sVbodySize
p709
I213396
sVhttpVersion
p710
VHTTP/1.1
p711
ssa(dp712
Vcomment
p713
g4
sVserverIPAddress
p714
V172.217.6.4
p715
sVpageref
p716
VFord
p717
sVstartedDateTime
p718
V2017-04-16T08:48:14.813-05:00
p719
sVcache
p720
(dp721
sVrequest
p722
(dp723
Vcomment
p724
g4
sVcookies
p725
(lp726
sVurl
p727
Vhttps://www.google.com/generate_204
p728
sVqueryString
p729
(lp730
sVheaders
p731
(lp732
sVheadersSize
p733
I552
sVbodySize
p734
I0
sVmethod
p735
VGET
p736
sVhttpVersion
p737
VHTTP/1.1
p738
ssVtimings
p739
(dp740
Vcomment
p741
g4
sVreceive
p742
I0
sVsend
p743
I0
sVssl
p744
I-1
sVconnect
p745
I-1
sVdns
p746
I-1
sVwait
p747
I10
sVblocked
p748
I-1
ssVtime
p749
I10
sVresponse
p750
(dp751
Vstatus
p752
I204
sVcomment
p753
g4
sVcookies
p754
(lp755
sVstatusText
p756
VNo Content
p757
sVcontent
p758
(dp759
VmimeType
p760
g4
sVcomment
p761
g4
sVsize
p762
I0
ssVheaders
p763
(lp764
sVheadersSize
p765
I133
sVredirectURL
p766
g4
sVbodySize
p767
I0
sVhttpVersion
p768
VHTTP/1.1
p769
ssa(dp770
Vcomment
p771
g4
sVserverIPAddress
p772
V172.217.6.4
p773
sVpageref
p774
VFord
p775
sVstartedDateTime
p776
V2017-04-16T08:48:14.838-05:00
p777
sVcache
p778
(dp779
sVrequest
p780
(dp781
Vcomment
p782
g4
sVcookies
p783
(lp784
sVurl
p785
Vhttps://www.google.com/async/irc?vet=10ahUKEwi77bTnjqnTAhWg0YMKHUPrACMQo0EI5QI..i&ved=0ahUKEwi77bTnjqnTAhWg0YMKHUPrACMQo0EI5QI&ei=G3bzWPvzHqCjjwTD1oOYAg&yv=2&async=iu:1,ved:0ahUKEwi77bTnjqnTAhWg0YMKHUPrACMQo0EI5QI,_id:irc_async,_pms:qs
p786
sVqueryString
p787
(lp788
(dp789
Vname
p790
Vvet
p791
sVvalue
p792
V10ahUKEwi77bTnjqnTAhWg0YMKHUPrACMQo0EI5QI..i
p793
sa(dp794
Vname
p795
Vved
p796
sVvalue
p797
V0ahUKEwi77bTnjqnTAhWg0YMKHUPrACMQo0EI5QI
p798
sa(dp799
Vname
p800
Vei
p801
sVvalue
p802
VG3bzWPvzHqCjjwTD1oOYAg
p803
sa(dp804
Vname
p805
Vyv
p806
sVvalue
p807
g64
sa(dp808
Vname
p809
Vasync
p810
sVvalue
p811
Viu:1,ved:0ahUKEwi77bTnjqnTAhWg0YMKHUPrACMQo0EI5QI,_id:irc_async,_pms:qs
p812
sasVheaders
p813
(lp814
sVheadersSize
p815
I752
sVbodySize
p816
I0
sVmethod
p817
VGET
p818
sVhttpVersion
p819
VHTTP/1.1
p820
ssVtimings
p821
(dp822
Vcomment
p823
g4
sVreceive
p824
I1
sVsend
p825
I0
sVssl
p826
I-1
sVconnect
p827
I-1
sVdns
p828
I-1
sVwait
p829
I39
sVblocked
p830
I-1
ssVtime
p831
I41
sVresponse
p832
(dp833
Vstatus
p834
I200
sVcomment
p835
g4
sVcookies
p836
(lp837
sVstatusText
p838
VOK
p839
sVcontent
p840
(dp841
VmimeType
p842
Vtext/html; charset=UTF-8
p843
sVcomment
p844
g4
sVsize
p845
I0
ssVheaders
p846
(lp847
sVheadersSize
p848
I383
sVredirectURL
p849
g4
sVbodySize
p850
I7790
sVhttpVersion
p851
VHTTP/1.1
p852
ssa(dp853
Vcomment
p854
g4
sVserverIPAddress
p855
V172.217.6.4
p856
sVpageref
p857
VFord
p858
sVstartedDateTime
p859
V2017-04-16T08:48:14.937-05:00
p860
sVcache
p861
(dp862
sVrequest
p863
(dp864
Vcomment
p865
g4
sVcookies
p866
(lp867
sVurl
p868
Vhttps://www.google.com/async/ampfp?vet=10ahUKEwi77bTnjqnTAhWg0YMKHUPrACMQtZoBCOMC..i&ei=G3bzWPvzHqCjjwTD1oOYAg&yv=2&async=_id:ampfp-async,_pms:qs
p869
sVqueryString
p870
(lp871
(dp872
Vname
p873
Vvet
p874
sVvalue
p875
V10ahUKEwi77bTnjqnTAhWg0YMKHUPrACMQtZoBCOMC..i
p876
sa(dp877
Vname
p878
Vei
p879
sVvalue
p880
VG3bzWPvzHqCjjwTD1oOYAg
p881
sa(dp882
Vname
p883
Vyv
p884
sVvalue
p885
g64
sa(dp886
Vname
p887
Vasync
p888
sVvalue
p889
V_id:ampfp-async,_pms:qs
p890
sasVheaders
p891
(lp892
sVheadersSize
p893
I662
sVbodySize
p894
I0
sVmethod
p895
VGET
p896
sVhttpVersion
p897
VHTTP/1.1
p898
ssVtimings
p899
(dp900
Vcomment
p901
g4
sVreceive
p902
I0
sVsend
p903
I0
sVssl
p904
I-1
sVconnect
p905
I-1
sVdns
p906
I-1
sVwait
p907
I43
sVblocked
p908
I-1
ssVtime
p909
I43
sVresponse
p910
(dp911
Vstatus
p912
I200
sVcomment
p913
g4
sVcookies
p914
(lp915
sVstatusText
p916
VOK
p917
sVcontent
p918
(dp919
VmimeType
p920
Vtext/html; charset=UTF-8
p921
sVcomment
p922
g4
sVsize
p923
I0
ssVheaders
p924
(lp925
sVheadersSize
p926
I383
sVredirectURL
p927
g4
sVbodySize
p928
I4526
sVhttpVersion
p929
VHTTP/1.1
p930
ssa(dp931
Vcomment
p932
g4
sVserverIPAddress
p933
V216.58.216.193
p934
sVpageref
p935
VFord
p936
sVstartedDateTime
p937
V2017-04-16T08:48:14.937-05:00
p938
sVcache
p939
(dp940
sVrequest
p941
(dp942
Vcomment
p943
g4
sVcookies
p944
(lp945
sVurl
p946
Vhttps://cdn.ampproject.org/preconnect.gif?0.419217122247861
p947
sVqueryString
p948
(lp949
(dp950
Vname
p951
V0.419217122247861
p952
sVvalue
p953
g4
sasVheaders
p954
(lp955
sVheadersSize
p956
I374
sVbodySize
p957
I0
sVmethod
p958
VGET
p959
sVhttpVersion
p960
VHTTP/1.1
p961
ssVtimings
p962
(dp963
Vcomment
p964
g4
sVreceive
p965
I0
sVsend
p966
I0
sVssl
p967
I-1
sVconnect
p968
I-1
sVdns
p969
I-1
sVwait
p970
I29
sVblocked
p971
I-1
ssVtime
p972
I29
sVresponse
p973
(dp974
Vstatus
p975
I200
sVcomment
p976
g4
sVcookies
p977
(lp978
sVstatusText
p979
VOK
p980
sVcontent
p981
(dp982
VmimeType
p983
Vimage/gif
p984
sVcomment
p985
g4
sVsize
p986
I0
ssVheaders
p987
(lp988
sVheadersSize
p989
I826
sVredirectURL
p990
g4
sVbodySize
p991
I37
sVhttpVersion
p992
VHTTP/1.1
p993
ssa(dp994
Vcomment
p995
g4
sVserverIPAddress
p996
V172.217.6.4
p997
sVpageref
p998
VFord
p999
sVstartedDateTime
p1000
V2017-04-16T08:48:15.041-05:00
p1001
sVcache
p1002
(dp1003
sVrequest
p1004
(dp1005
Vcomment
p1006
g4
sVcookies
p1007
(lp1008
sVurl
p1009
Vhttps://www.google.com/gen_204/local?ei=G3bzWPvzHqCjjwTD1oOYAg&tm_n=pt&tm=936
p1010
sVqueryString
p1011
(lp1012
(dp1013
Vname
p1014
Vei
p1015
sVvalue
p1016
VG3bzWPvzHqCjjwTD1oOYAg
p1017
sa(dp1018
Vname
p1019
Vtm_n
p1020
sVvalue
p1021
Vpt
p1022
sa(dp1023
Vname
p1024
Vtm
p1025
sVvalue
p1026
V936
p1027
sasVheaders
p1028
(lp1029
sVheadersSize
p1030
I843
sVbodySize
p1031
I0
sVmethod
p1032
VPOST
p1033
sVhttpVersion
p1034
VHTTP/1.1
p1035
ssVtimings
p1036
(dp1037
Vcomment
p1038
g4
sVreceive
p1039
I0
sVsend
p1040
I0
sVssl
p1041
I-1
sVconnect
p1042
I-1
sVdns
p1043
I-1
sVwait
p1044
I41
sVblocked
p1045
I-1
ssVtime
p1046
I41
sVresponse
p1047
(dp1048
Vstatus
p1049
I204
sVcomment
p1050
g4
sVcookies
p1051
(lp1052
sVstatusText
p1053
VNo Content
p1054
sVcontent
p1055
(dp1056
VmimeType
p1057
Vtext/html; charset=UTF-8
p1058
sVcomment
p1059
g4
sVsize
p1060
I0
ssVheaders
p1061
(lp1062
sVheadersSize
p1063
I290
sVredirectURL
p1064
g4
sVbodySize
p1065
I0
sVhttpVersion
p1066
VHTTP/1.1
p1067
ssa(dp1068
Vcomment
p1069
g4
sVserverIPAddress
p1070
V172.217.6.4
p1071
sVpageref
p1072
VFord
p1073
sVstartedDateTime
p1074
V2017-04-16T08:48:15.105-05:00
p1075
sVcache
p1076
(dp1077
sVrequest
p1078
(dp1079
Vcomment
p1080
g4
sVcookies
p1081
(lp1082
sVurl
p1083
Vhttps://www.google.com/async/lcl_akp?vet=10ahUKEwi77bTnjqnTAhWg0YMKHUPrACMQ30oIPDAA..i&ved=0ahUKEwi77bTnjqnTAhWg0YMKHUPrACMQkW0IPjAA&ei=G3bzWPvzHqCjjwTD1oOYAg&yv=2&tbs=lf_od:-1,lf_oh:-1,lf_oa:-1,lp:-D!8050!!1!!!0!2|-S!11!0!2|-F!3!0!3,lf_pqs:EAE,lf:1,lf_ui:4&async=id:akp_15884361206738877153,ludocids:15884361206738877153,f:rln,ui:4,_id:p0_uid_1_G3bzWPvzHqCjjwTD1oOYAg,_pms:qs
p1084
sVqueryString
p1085
(lp1086
(dp1087
Vname
p1088
Vvet
p1089
sVvalue
p1090
V10ahUKEwi77bTnjqnTAhWg0YMKHUPrACMQ30oIPDAA..i
p1091
sa(dp1092
Vname
p1093
Vved
p1094
sVvalue
p1095
V0ahUKEwi77bTnjqnTAhWg0YMKHUPrACMQkW0IPjAA
p1096
sa(dp1097
Vname
p1098
Vei
p1099
sVvalue
p1100
VG3bzWPvzHqCjjwTD1oOYAg
p1101
sa(dp1102
Vname
p1103
Vyv
p1104
sVvalue
p1105
g64
sa(dp1106
Vname
p1107
Vtbs
p1108
sVvalue
p1109
Vlf_od:-1,lf_oh:-1,lf_oa:-1,lp:-D!8050!!1!!!0!2|-S!11!0!2|-F!3!0!3,lf_pqs:EAE,lf:1,lf_ui:4
p1110
sa(dp1111
Vname
p1112
Vasync
p1113
sVvalue
p1114
Vid:akp_15884361206738877153,ludocids:15884361206738877153,f:rln,ui:4,_id:p0_uid_1_G3bzWPvzHqCjjwTD1oOYAg,_pms:qs
p1115
sasVheaders
p1116
(lp1117
sVheadersSize
p1118
I893
sVbodySize
p1119
I0
sVmethod
p1120
VGET
p1121
sVhttpVersion
p1122
VHTTP/1.1
p1123
ssVtimings
p1124
(dp1125
Vcomment
p1126
g4
sVreceive
p1127
I7
sVsend
p1128
I0
sVssl
p1129
I-1
sVconnect
p1130
I-1
sVdns
p1131
I-1
sVwait
p1132
I320
sVblocked
p1133
I-1
ssVtime
p1134
I327
sVresponse
p1135
(dp1136
Vstatus
p1137
I200
sVcomment
p1138
g4
sVcookies
p1139
(lp1140
sVstatusText
p1141
VOK
p1142
sVcontent
p1143
(dp1144
VmimeType
p1145
Vtext/html; charset=UTF-8
p1146
sVcomment
p1147
g4
sVsize
p1148
I0
ssVheaders
p1149
(lp1150
sVheadersSize
p1151
I383
sVredirectURL
p1152
g4
sVbodySize
p1153
I40763
sVhttpVersion
p1154
VHTTP/1.1
p1155
ssa(dp1156
Vcomment
p1157
g4
sVserverIPAddress
p1158
V172.217.6.4
p1159
sVpageref
p1160
VFord
p1161
sVstartedDateTime
p1162
V2017-04-16T08:48:15.109-05:00
p1163
sVcache
p1164
(dp1165
sVrequest
p1166
(dp1167
Vcomment
p1168
g4
sVcookies
p1169
(lp1170
sVurl
p1171
Vhttps://www.google.com/async/lcl_akp?vet=10ahUKEwi77bTnjqnTAhWg0YMKHUPrACMQ30oIRTAB..i&ved=0ahUKEwi77bTnjqnTAhWg0YMKHUPrACMQkW0IRzAB&ei=G3bzWPvzHqCjjwTD1oOYAg&yv=2&tbs=lf_od:-1,lf_oh:-1,lf_oa:-1,lp:-D!8050!!1!!!0!2|-S!11!0!2|-F!3!0!3,lf_pqs:EAE,lf:1,lf_ui:4&async=id:akp_1791382963251824423,ludocids:1791382963251824423,f:rln,ui:4,_id:p0_uid_2_G3bzWPvzHqCjjwTD1oOYAg,_pms:qs
p1172
sVqueryString
p1173
(lp1174
(dp1175
Vname
p1176
Vvet
p1177
sVvalue
p1178
V10ahUKEwi77bTnjqnTAhWg0YMKHUPrACMQ30oIRTAB..i
p1179
sa(dp1180
Vname
p1181
Vved
p1182
sVvalue
p1183
V0ahUKEwi77bTnjqnTAhWg0YMKHUPrACMQkW0IRzAB
p1184
sa(dp1185
Vname
p1186
Vei
p1187
sVvalue
p1188
VG3bzWPvzHqCjjwTD1oOYAg
p1189
sa(dp1190
Vname
p1191
Vyv
p1192
sVvalue
p1193
g64
sa(dp1194
Vname
p1195
Vtbs
p1196
sVvalue
p1197
Vlf_od:-1,lf_oh:-1,lf_oa:-1,lp:-D!8050!!1!!!0!2|-S!11!0!2|-F!3!0!3,lf_pqs:EAE,lf:1,lf_ui:4
p1198
sa(dp1199
Vname
p1200
Vasync
p1201
sVvalue
p1202
Vid:akp_1791382963251824423,ludocids:1791382963251824423,f:rln,ui:4,_id:p0_uid_2_G3bzWPvzHqCjjwTD1oOYAg,_pms:qs
p1203
sasVheaders
p1204
(lp1205
sVheadersSize
p1206
I891
sVbodySize
p1207
I0
sVmethod
p1208
VGET
p1209
sVhttpVersion
p1210
VHTTP/1.1
p1211
ssVtimings
p1212
(dp1213
Vcomment
p1214
g4
sVreceive
p1215
I18
sVsend
p1216
I0
sVssl
p1217
I-1
sVconnect
p1218
I-1
sVdns
p1219
I-1
sVwait
p1220
I290
sVblocked
p1221
I-1
ssVtime
p1222
I309
sVresponse
p1223
(dp1224
Vstatus
p1225
I200
sVcomment
p1226
g4
sVcookies
p1227
(lp1228
sVstatusText
p1229
VOK
p1230
sVcontent
p1231
(dp1232
VmimeType
p1233
Vtext/html; charset=UTF-8
p1234
sVcomment
p1235
g4
sVsize
p1236
I0
ssVheaders
p1237
(lp1238
sVheadersSize
p1239
I383
sVredirectURL
p1240
g4
sVbodySize
p1241
I41232
sVhttpVersion
p1242
VHTTP/1.1
p1243
ssa(dp1244
Vcomment
p1245
g4
sVserverIPAddress
p1246
V172.217.6.4
p1247
sVpageref
p1248
VFord
p1249
sVstartedDateTime
p1250
V2017-04-16T08:48:15.112-05:00
p1251
sVcache
p1252
(dp1253
sVrequest
p1254
(dp1255
Vcomment
p1256
g4
sVcookies
p1257
(lp1258
sVurl
p1259
Vhttps://www.google.com/async/lcl_akp?vet=10ahUKEwi77bTnjqnTAhWg0YMKHUPrACMQ30oITjAC..i&ved=0ahUKEwi77bTnjqnTAhWg0YMKHUPrACMQkW0IUDAC&ei=G3bzWPvzHqCjjwTD1oOYAg&yv=2&tbs=lf_od:-1,lf_oh:-1,lf_oa:-1,lp:-D!8050!!1!!!0!2|-S!11!0!2|-F!3!0!3,lf_pqs:EAE,lf:1,lf_ui:4&async=id:akp_9480286190724937358,ludocids:9480286190724937358,f:rln,ui:4,_id:p0_uid_3_G3bzWPvzHqCjjwTD1oOYAg,_pms:qs
p1260
sVqueryString
p1261
(lp1262
(dp1263
Vname
p1264
Vvet
p1265
sVvalue
p1266
V10ahUKEwi77bTnjqnTAhWg0YMKHUPrACMQ30oITjAC..i
p1267
sa(dp1268
Vname
p1269
Vved
p1270
sVvalue
p1271
V0ahUKEwi77bTnjqnTAhWg0YMKHUPrACMQkW0IUDAC
p1272
sa(dp1273
Vname
p1274
Vei
p1275
sVvalue
p1276
VG3bzWPvzHqCjjwTD1oOYAg
p1277
sa(dp1278
Vname
p1279
Vyv
p1280
sVvalue
p1281
g64
sa(dp1282
Vname
p1283
Vtbs
p1284
sVvalue
p1285
Vlf_od:-1,lf_oh:-1,lf_oa:-1,lp:-D!8050!!1!!!0!2|-S!11!0!2|-F!3!0!3,lf_pqs:EAE,lf:1,lf_ui:4
p1286
sa(dp1287
Vname
p1288
Vasync
p1289
sVvalue
p1290
Vid:akp_9480286190724937358,ludocids:9480286190724937358,f:rln,ui:4,_id:p0_uid_3_G3bzWPvzHqCjjwTD1oOYAg,_pms:qs
p1291
sasVheaders
p1292
(lp1293
sVheadersSize
p1294
I891
sVbodySize
p1295
I0
sVmethod
p1296
VGET
p1297
sVhttpVersion
p1298
VHTTP/1.1
p1299
ssVtimings
p1300
(dp1301
Vcomment
p1302
g4
sVreceive
p1303
I39
sVsend
p1304
I0
sVssl
p1305
I-1
sVconnect
p1306
I-1
sVdns
p1307
I-1
sVwait
p1308
I349
sVblocked
p1309
I-1
ssVtime
p1310
I389
sVresponse
p1311
(dp1312
Vstatus
p1313
I200
sVcomment
p1314
g4
sVcookies
p1315
(lp1316
sVstatusText
p1317
VOK
p1318
sVcontent
p1319
(dp1320
VmimeType
p1321
Vtext/html; charset=UTF-8
p1322
sVcomment
p1323
g4
sVsize
p1324
I0
ssVheaders
p1325
(lp1326
sVheadersSize
p1327
I383
sVredirectURL
p1328
g4
sVbodySize
p1329
I41061
sVhttpVersion
p1330
VHTTP/1.1
p1331
ssa(dp1332
Vcomment
p1333
g4
sVserverIPAddress
p1334
V172.217.6.4
p1335
sVpageref
p1336
VFord
p1337
sVstartedDateTime
p1338
V2017-04-16T08:48:15.165-05:00
p1339
sVcache
p1340
(dp1341
sVrequest
p1342
(dp1343
Vcomment
p1344
g4
sVcookies
p1345
(lp1346
sVurl
p1347
Vhttps://www.google.com/gen_204/local?ei=G3bzWPvzHqCjjwTD1oOYAg&tm_n=lrl_init&tm=5
p1348
sVqueryString
p1349
(lp1350
(dp1351
Vname
p1352
Vei
p1353
sVvalue
p1354
VG3bzWPvzHqCjjwTD1oOYAg
p1355
sa(dp1356
Vname
p1357
Vtm_n
p1358
sVvalue
p1359
Vlrl_init
p1360
sa(dp1361
Vname
p1362
Vtm
p1363
sVvalue
p1364
V5
p1365
sasVheaders
p1366
(lp1367
sVheadersSize
p1368
I847
sVbodySize
p1369
I0
sVmethod
p1370
VPOST
p1371
sVhttpVersion
p1372
VHTTP/1.1
p1373
ssVtimings
p1374
(dp1375
Vcomment
p1376
g4
sVreceive
p1377
I0
sVsend
p1378
I0
sVssl
p1379
I23
sVconnect
p1380
I40
sVdns
p1381
I0
sVwait
p1382
I46
sVblocked
p1383
I0
ssVtime
p1384
I88
sVresponse
p1385
(dp1386
Vstatus
p1387
I204
sVcomment
p1388
g4
sVcookies
p1389
(lp1390
sVstatusText
p1391
VNo Content
p1392
sVcontent
p1393
(dp1394
VmimeType
p1395
Vtext/html; charset=UTF-8
p1396
sVcomment
p1397
g4
sVsize
p1398
I0
ssVheaders
p1399
(lp1400
sVheadersSize
p1401
I290
sVredirectURL
p1402
g4
sVbodySize
p1403
I0
sVhttpVersion
p1404
VHTTP/1.1
p1405
ssa(dp1406
Vcomment
p1407
g4
sVserverIPAddress
p1408
V172.217.6.4
p1409
sVpageref
p1410
VFord
p1411
sVstartedDateTime
p1412
V2017-04-16T08:48:15.181-05:00
p1413
sVcache
p1414
(dp1415
sVrequest
p1416
(dp1417
Vcomment
p1418
g4
sVcookies
p1419
(lp1420
sVurl
p1421
Vhttps://www.google.com/async/log_amp_item_set?vet=10ahUKEwjwksjojqnTAhVs_4MKHT2ZBVoQooQBCAE..i&ei=G3bzWPvzHqCjjwTD1oOYAg&yv=2&async=num_items:2,_fmt:jspb
p1422
sVqueryString
p1423
(lp1424
(dp1425
Vname
p1426
Vvet
p1427
sVvalue
p1428
V10ahUKEwjwksjojqnTAhVs_4MKHT2ZBVoQooQBCAE..i
p1429
sa(dp1430
Vname
p1431
Vei
p1432
sVvalue
p1433
VG3bzWPvzHqCjjwTD1oOYAg
p1434
sa(dp1435
Vname
p1436
Vyv
p1437
sVvalue
p1438
g64
sa(dp1439
Vname
p1440
Vasync
p1441
sVvalue
p1442
Vnum_items:2,_fmt:jspb
p1443
sasVheaders
p1444
(lp1445
sVheadersSize
p1446
I670
sVbodySize
p1447
I0
sVmethod
p1448
VGET
p1449
sVhttpVersion
p1450
VHTTP/1.1
p1451
ssVtimings
p1452
(dp1453
Vcomment
p1454
g4
sVreceive
p1455
I0
sVsend
p1456
I0
sVssl
p1457
I21
sVconnect
p1458
I38
sVdns
p1459
I0
sVwait
p1460
I36
sVblocked
p1461
I0
ssVtime
p1462
I74
sVresponse
p1463
(dp1464
Vstatus
p1465
I200
sVcomment
p1466
g4
sVcookies
p1467
(lp1468
sVstatusText
p1469
VOK
p1470
sVcontent
p1471
(dp1472
VmimeType
p1473
Vapplication/json; charset=UTF-8
p1474
sVcomment
p1475
g4
sVsize
p1476
I0
ssVheaders
p1477
(lp1478
sVheadersSize
p1479
I417
sVredirectURL
p1480
g4
sVbodySize
p1481
I141
sVhttpVersion
p1482
VHTTP/1.1
p1483
ssa(dp1484
Vcomment
p1485
g4
sVserverIPAddress
p1486
V172.217.6.4
p1487
sVpageref
p1488
VFord
p1489
sVstartedDateTime
p1490
V2017-04-16T08:48:15.238-05:00
p1491
sVcache
p1492
(dp1493
sVrequest
p1494
(dp1495
Vcomment
p1496
g4
sVcookies
p1497
(lp1498
sVurl
p1499
Vhttps://www.google.com/gen_204?s=web&atyp=csi&ei=G3bzWPvzHqCjjwTD1oOYAg&imc=36&imn=36&imp=14&adh=&xjs=init.40.14.sb_mob.28.dvl.5.mbsf.2.c.1.jsa.1&ima=3&rt=prt.1380,iml.1485,xjsls.1380,dcl.1423,qiml.1666,xjses.1512,xjsee.1674,xjs.1675,ol.2548,aft.1463,wsrt.111,cst.0,dnst.0,rqst.1369,rspt.1273,rqstt.3,unt.2,cstt.2,dit.1509
p1500
sVqueryString
p1501
(lp1502
(dp1503
Vname
p1504
g57
sVvalue
p1505
Vweb
p1506
sa(dp1507
Vname
p1508
Vatyp
p1509
sVvalue
p1510
Vcsi
p1511
sa(dp1512
Vname
p1513
Vei
p1514
sVvalue
p1515
VG3bzWPvzHqCjjwTD1oOYAg
p1516
sa(dp1517
Vname
p1518
Vimc
p1519
sVvalue
p1520
V36
p1521
sa(dp1522
Vname
p1523
Vimn
p1524
sVvalue
p1525
V36
p1526
sa(dp1527
Vname
p1528
Vimp
p1529
sVvalue
p1530
V14
p1531
sa(dp1532
Vname
p1533
Vadh
p1534
sVvalue
p1535
g4
sa(dp1536
Vname
p1537
Vxjs
p1538
sVvalue
p1539
Vinit.40.14.sb_mob.28.dvl.5.mbsf.2.c.1.jsa.1
p1540
sa(dp1541
Vname
p1542
Vima
p1543
sVvalue
p1544
V3
p1545
sa(dp1546
Vname
p1547
Vrt
p1548
sVvalue
p1549
Vprt.1380,iml.1485,xjsls.1380,dcl.1423,qiml.1666,xjses.1512,xjsee.1674,xjs.1675,ol.2548,aft.1463,wsrt.111,cst.0,dnst.0,rqst.1369,rspt.1273,rqstt.3,unt.2,cstt.2,dit.1509
p1550
sasVheaders
p1551
(lp1552
sVheadersSize
p1553
I839
sVbodySize
p1554
I0
sVmethod
p1555
VGET
p1556
sVhttpVersion
p1557
VHTTP/1.1
p1558
ssVtimings
p1559
(dp1560
Vcomment
p1561
g4
sVreceive
p1562
I0
sVsend
p1563
I0
sVssl
p1564
I25
sVconnect
p1565
I40
sVdns
p1566
I0
sVwait
p1567
I28
sVblocked
p1568
I0
ssVtime
p1569
I69
sVresponse
p1570
(dp1571
Vstatus
p1572
I204
sVcomment
p1573
g4
sVcookies
p1574
(lp1575
sVstatusText
p1576
VNo Content
p1577
sVcontent
p1578
(dp1579
VmimeType
p1580
Vtext/html; charset=UTF-8
p1581
sVcomment
p1582
g4
sVsize
p1583
I0
ssVheaders
p1584
(lp1585
sVheadersSize
p1586
I248
sVredirectURL
p1587
g4
sVbodySize
p1588
I0
sVhttpVersion
p1589
VHTTP/1.1
p1590
ssa(dp1591
Vcomment
p1592
g4
sVserverIPAddress
p1593
V172.217.6.4
p1594
sVpageref
p1595
VFord
p1596
sVstartedDateTime
p1597
V2017-04-16T08:48:15.517-05:00
p1598
sVcache
p1599
(dp1600
sVrequest
p1601
(dp1602
Vcomment
p1603
g4
sVcookies
p1604
(lp1605
sVurl
p1606
Vhttps://www.google.com/maps/vt/data=RfCSdfNZ0LFPrHSm0ublXdzhdrDFhtmHhN1u-gM,xP5Acqc4s0Q9h0kMXyLT1zkynhWVg-oW_j7_Qa1JHxw711zFRbCx6z9YTtva4GyRGG2gM95tLj6BChsrNMHnimUW25jTyTRWrQOF9XdltQjJlQORihJBsEc6N721qVo5GhRiMpIRImyF4kIaQN-IKV_qybMeHgV39npS5_u0uIuO8WTe37ohFE7hrw8U7zIzc4Tq9LkV_Sjk7O_bbFq-_xcUpH9rAhb6DPjTNsTkx5z5FMzIzS3hi0hCa3Vlu3mHMJD9FZXpGFo6dHXTh2NcTlxdkevhDpUeqFWpLAI0pppUkbxLCaedVXfzH_m1JjDIqWu1LDfUSgvzF1Kn35DZhYYoywL5rMyA5cOYG4WUgWheqjiV3K5cp2Nu11zZb37jmeHHCXk9aThvvSRj3Jy8u4S7c8iLpHKGK3tQqakUnaS0-sVd8ppA_4MlbvxxrwULk52yexhttSWubJr5wssp-meu-IG-Bc9JH5Y-IwRyImlGMNIwXGWIEjVoBonBJdOctb9DEFlddXoTW8qcX_WtkJFMb1jN8eEjEW1BnVBCtj8oJQTEQyHKeKeTCHwnTeNW3LSjv25yEDfw1YaIpzJahrnXVPFsPoI2NkE6PQOV2OhXN5oRORXYXS4YQVf-wBP942ykOY6gzoLiknUQQ-DQ1hmnevEP2N16kut3JisS7gaiV77bJx-jen8vPMXJTDVlSbnG0At-UPcOxtr6fDUe5r7fUA9I_zD-m-5C1O8hETteLSmThFrZHUevmHory9dF9dpfjKiOIudX9MmGFsl7wWTGvIvlloRJxYNXQTbJfV7lwvMI2tweS6c9tR0lgIcenRsfKj-UgR-3gkR4L-27qtixeE8iKhU8P_wLawTZEXEbZQUjR3z04FJkx_KxIJB-2A?h=120&w=1024&scale=2
p1607
sVqueryString
p1608
(lp1609
(dp1610
Vname
p1611
Vh
p1612
sVvalue
p1613
V120
p1614
sa(dp1615
Vname
p1616
Vw
p1617
sVvalue
p1618
V1024
p1619
sa(dp1620
Vname
p1621
Vscale
p1622
sVvalue
p1623
g64
sasVheaders
p1624
(lp1625
sVheadersSize
p1626
I1512
sVbodySize
p1627
I0
sVmethod
p1628
VGET
p1629
sVhttpVersion
p1630
VHTTP/1.1
p1631
ssVtimings
p1632
(dp1633
Vcomment
p1634
g4
sVreceive
p1635
I13
sVsend
p1636
I0
sVssl
p1637
I-1
sVconnect
p1638
I-1
sVdns
p1639
I-1
sVwait
p1640
I112
sVblocked
p1641
I-1
ssVtime
p1642
I125
sVresponse
p1643
(dp1644
Vstatus
p1645
I200
sVcomment
p1646
g4
sVcookies
p1647
(lp1648
sVstatusText
p1649
VOK
p1650
sVcontent
p1651
(dp1652
VmimeType
p1653
Vimage/png
p1654
sVcomment
p1655
g4
sVsize
p1656
I0
ssVheaders
p1657
(lp1658
sVheadersSize
p1659
I479
sVredirectURL
p1660
g4
sVbodySize
p1661
I61601
sVhttpVersion
p1662
VHTTP/1.1
p1663
ssa(dp1664
Vcomment
p1665
g4
sVserverIPAddress
p1666
V172.217.6.4
p1667
sVpageref
p1668
VFord
p1669
sVstartedDateTime
p1670
V2017-04-16T08:48:15.518-05:00
p1671
sVcache
p1672
(dp1673
sVrequest
p1674
(dp1675
Vcomment
p1676
g4
sVcookies
p1677
(lp1678
sVurl
p1679
Vhttps://www.google.com/maps/vt/data=fyhx5vRTk6iZCJTK-4FW6WKsGg,D3Z3Oooufvw5ezU7jU1HQlFj-VWUsZSHifEPdS2wBmrS29cBlp1sOTMnCvV3PkBqmj4P95X1970xOd1ksX7H8nuc58PDm2phh300lU48VBs9MB6Lvj-H3-BYhz7f6EURuWz0bsll2WS2P4lhi-qvMh00E7NMuUTITihgkwo6BEdMCxybJYh1SSVlwFw2QHarVb9eGau9EVKMUBKSK8Vo2lUiV92K4GX7b1pqqYBv45k5YNec7O2E12Hmr-sVbshyoxpD3tsGhKoxi-4fVuYPUHn8ctU9XpNIPWRW7dpb_QOmMyLW_oiN3H7Ltg?h=120&w=1024&scale=2
p1680
sVqueryString
p1681
(lp1682
(dp1683
Vname
p1684
g1612
sVvalue
p1685
V120
p1686
sa(dp1687
Vname
p1688
g1617
sVvalue
p1689
V1024
p1690
sa(dp1691
Vname
p1692
Vscale
p1693
sVvalue
p1694
g64
sasVheaders
p1695
(lp1696
sVheadersSize
p1697
I915
sVbodySize
p1698
I0
sVmethod
p1699
VGET
p1700
sVhttpVersion
p1701
VHTTP/1.1
p1702
ssVtimings
p1703
(dp1704
Vcomment
p1705
g4
sVreceive
p1706
I0
sVsend
p1707
I0
sVssl
p1708
I-1
sVconnect
p1709
I-1
sVdns
p1710
I-1
sVwait
p1711
I54
sVblocked
p1712
I-1
ssVtime
p1713
I55
sVresponse
p1714
(dp1715
Vstatus
p1716
I200
sVcomment
p1717
g4
sVcookies
p1718
(lp1719
sVstatusText
p1720
VOK
p1721
sVcontent
p1722
(dp1723
VmimeType
p1724
Vimage/png
p1725
sVcomment
p1726
g4
sVsize
p1727
I0
ssVheaders
p1728
(lp1729
sVheadersSize
p1730
I458
sVredirectURL
p1731
g4
sVbodySize
p1732
I1767
sVhttpVersion
p1733
VHTTP/1.1
p1734
ssa(dp1735
Vcomment
p1736
g4
sVserverIPAddress
p1737
V172.217.6.4
p1738
sVpageref
p1739
VFord
p1740
sVstartedDateTime
p1741
V2017-04-16T08:48:15.522-05:00
p1742
sVcache
p1743
(dp1744
sVrequest
p1745
(dp1746
Vcomment
p1747
g4
sVcookies
p1748
(lp1749
sVurl
p1750
Vhttps://www.google.com/xjs/_/js/k=xjs.qs.en_US.pCBXVCvTH3s.O/m=sy84,sy7v,sy7x,sy86,sy8k,sy8t,sy7g,sy72,sy9u,sy7n,sy3b,sycx,syew,syi6,syi9,syi7,syi8,syia,hcar,sy6a,sy6b,kch,sy6d,ltgt,syim,lubh,lurq,lusa,mmt,mpc,pv,sya0,syig,syif,syih,sttu,uvl/am=gCP4LtMEBXQA2RUaq_oFBISzAFA/rt=j/d=0/t=zcms/rs=ACT90oFwm4NZCwIcuuiqmthdlECdBzkhRA
p1751
sVqueryString
p1752
(lp1753
sVheaders
p1754
(lp1755
sVheadersSize
p1756
I843
sVbodySize
p1757
I0
sVmethod
p1758
VGET
p1759
sVhttpVersion
p1760
VHTTP/1.1
p1761
ssVtimings
p1762
(dp1763
Vcomment
p1764
g4
sVreceive
p1765
I8
sVsend
p1766
I0
sVssl
p1767
I-1
sVconnect
p1768
I-1
sVdns
p1769
I-1
sVwait
p1770
I15
sVblocked
p1771
I-1
ssVtime
p1772
I24
sVresponse
p1773
(dp1774
Vstatus
p1775
I200
sVcomment
p1776
g4
sVcookies
p1777
(lp1778
sVstatusText
p1779
VOK
p1780
sVcontent
p1781
(dp1782
VmimeType
p1783
Vtext/javascript; charset=UTF-8
p1784
sVcomment
p1785
g4
sVsize
p1786
I0
ssVheaders
p1787
(lp1788
sVheadersSize
p1789
I464
sVredirectURL
p1790
g4
sVbodySize
p1791
I31370
sVhttpVersion
p1792
VHTTP/1.1
p1793
ssa(dp1794
Vcomment
p1795
g4
sVserverIPAddress
p1796
V172.217.6.4
p1797
sVpageref
p1798
VFord
p1799
sVstartedDateTime
p1800
V2017-04-16T08:48:15.646-05:00
p1801
sVcache
p1802
(dp1803
sVrequest
p1804
(dp1805
Vcomment
p1806
g4
sVcookies
p1807
(lp1808
sVurl
p1809
Vhttps://www.google.com/gen_204/local?ei=G3bzWPvzHqCjjwTD1oOYAg&tm_n=lcsm-ns&tm=129
p1810
sVqueryString
p1811
(lp1812
(dp1813
Vname
p1814
Vei
p1815
sVvalue
p1816
VG3bzWPvzHqCjjwTD1oOYAg
p1817
sa(dp1818
Vname
p1819
Vtm_n
p1820
sVvalue
p1821
Vlcsm-ns
p1822
sa(dp1823
Vname
p1824
Vtm
p1825
sVvalue
p1826
V129
p1827
sasVheaders
p1828
(lp1829
sVheadersSize
p1830
I848
sVbodySize
p1831
I0
sVmethod
p1832
VPOST
p1833
sVhttpVersion
p1834
VHTTP/1.1
p1835
ssVtimings
p1836
(dp1837
Vcomment
p1838
g4
sVreceive
p1839
I0
sVsend
p1840
I0
sVssl
p1841
I-1
sVconnect
p1842
I-1
sVdns
p1843
I-1
sVwait
p1844
I33
sVblocked
p1845
I-1
ssVtime
p1846
I33
sVresponse
p1847
(dp1848
Vstatus
p1849
I204
sVcomment
p1850
g4
sVcookies
p1851
(lp1852
sVstatusText
p1853
VNo Content
p1854
sVcontent
p1855
(dp1856
VmimeType
p1857
Vtext/html; charset=UTF-8
p1858
sVcomment
p1859
g4
sVsize
p1860
I0
ssVheaders
p1861
(lp1862
sVheadersSize
p1863
I290
sVredirectURL
p1864
g4
sVbodySize
p1865
I0
sVhttpVersion
p1866
VHTTP/1.1
p1867
ssa(dp1868
Vcomment
p1869
g4
sVserverIPAddress
p1870
V172.217.6.4
p1871
sVpageref
p1872
VFord
p1873
sVstartedDateTime
p1874
V2017-04-16T08:48:17.376-05:00
p1875
sVcache
p1876
(dp1877
sVrequest
p1878
(dp1879
Vcomment
p1880
g4
sVcookies
p1881
(lp1882
sVurl
p1883
Vhttps://www.google.com/gen_204?atyp=i&ct=slh&cad=&ei=BnbzWP-oH6vLjwSAy63QCA&m=V&t=C&s=1&v=2&pv=0.36555176112263055&me=1:1492350475427,x:1,V,0,0,1280,944:0,N,1,BnbzWP-oH6vLjwSAy63QCA:0,R,1,22,8,155,1249,275:0,R,1,40,24,440,1217,115:0,R,1,47,8,576,1249,501:0,R,1,49,8,576,1197,501:0,R,1,51,95,576,1024,120:0,R,1,82,16,772,1189,83:0,R,1,91,16,855,1189,83:0,R,1,100,16,938,1189,93:2,B,4025:16507,e,U&zx=1492350497375
p1884
sVqueryString
p1885
(lp1886
(dp1887
Vname
p1888
Vatyp
p1889
sVvalue
p1890
g30
sa(dp1891
Vname
p1892
Vct
p1893
sVvalue
p1894
Vslh
p1895
sa(dp1896
Vname
p1897
Vcad
p1898
sVvalue
p1899
g4
sa(dp1900
Vname
p1901
Vei
p1902
sVvalue
p1903
VBnbzWP-oH6vLjwSAy63QCA
p1904
sa(dp1905
Vname
p1906
g47
sVvalue
p1907
g49
sa(dp1908
Vname
p1909
g52
sVvalue
p1910
g54
sa(dp1911
Vname
p1912
g57
sVvalue
p1913
g59
sa(dp1914
Vname
p1915
g62
sVvalue
p1916
g64
sa(dp1917
Vname
p1918
Vpv
p1919
sVvalue
p1920
V0.36555176112263055
p1921
sa(dp1922
Vname
p1923
Vme
p1924
sVvalue
p1925
V1:1492350475427,x:1,V,0,0,1280,944:0,N,1,BnbzWP-oH6vLjwSAy63QCA:0,R,1,22,8,155,1249,275:0,R,1,40,24,440,1217,115:0,R,1,47,8,576,1249,501:0,R,1,49,8,576,1197,501:0,R,1,51,95,576,1024,120:0,R,1,82,16,772,1189,83:0,R,1,91,16,855,1189,83:0,R,1,100,16,938,1189,93:2,B,4025:16507,e,U
p1926
sa(dp1927
Vname
p1928
Vzx
p1929
sVvalue
p1930
V1492350497375
p1931
sasVheaders
p1932
(lp1933
sVheadersSize
p1934
I929
sVbodySize
p1935
I0
sVmethod
p1936
VGET
p1937
sVhttpVersion
p1938
VHTTP/1.1
p1939
ssVtimings
p1940
(dp1941
Vcomment
p1942
g4
sVreceive
p1943
I0
sVsend
p1944
I0
sVssl
p1945
I-1
sVconnect
p1946
I-1
sVdns
p1947
I-1
sVwait
p1948
I39
sVblocked
p1949
I-1
ssVtime
p1950
I39
sVresponse
p1951
(dp1952
Vstatus
p1953
I204
sVcomment
p1954
g4
sVcookies
p1955
(lp1956
sVstatusText
p1957
VNo Content
p1958
sVcontent
p1959
(dp1960
VmimeType
p1961
Vtext/html; charset=UTF-8
p1962
sVcomment
p1963
g4
sVsize
p1964
I0
ssVheaders
p1965
(lp1966
sVheadersSize
p1967
I248
sVredirectURL
p1968
g4
sVbodySize
p1969
I0
sVhttpVersion
p1970
VHTTP/1.1
p1971
ssasVversion
p1972
V1.2
p1973
sVpages
p1974
(lp1975
(dp1976
VpageTimings
p1977
(dp1978
Vcomment
p1979
g4
ssVcomment
p1980
g4
sVtitle
p1981
VFord
p1982
sVid
p1983
VFord
p1984
sVstartedDateTime
p1985
V2017-04-16T08:48:11.490-05:00
p1986
sasVcreator
p1987
(dp1988
Vcomment
p1989
g4
sVversion
p1990
V2.1.4
p1991
sVname
p1992
VBrowserMob Proxy
p1993
sss.