(dp0
Vlog
p1
(dp2
Vcomment
p3
V
p4
sVentries
p5
(lp6
(dp7
Vcomment
p8
g4
sVserverIPAddress
p9
V74.125.70.105
p10
sVpageref
p11
VMazda
p12
sVstartedDateTime
p13
V2017-04-16T08:50:52.706-05:00
p14
sVcache
p15
(dp16
sVrequest
p17
(dp18
Vcomment
p19
g4
sVcookies
p20
(lp21
sVurl
p22
Vhttps://www.google.com/gen_204?atyp=i&ct=slh&cad=&ei=r3bzWN2RJ8XujwTZ_biwDg&m=V&t=C&s=1&v=2&pv=0.823492600555228&me=1:1492350643701,x:3,V,0,0,1280,944:0,N,1,r3bzWN2RJ8XujwTZ_biwDg:0,R,1,24,8,155,1249,261:0,R,1,25,8,155,1249,241:0,R,1,26,8,155,1249,90:0,R,1,55,8,426,1249,393:0,R,1,56,8,426,1249,393:0,R,1,59,0,490,1265,349:0,R,1,81,8,829,1249,380:0,R,1,82,8,829,1249,380:0,R,1,86,1141,829,116,116:0,R,1,95,8,867,1133,40:2,B,3479:8999,e,U&zx=1492350652705
p23
sVqueryString
p24
(lp25
(dp26
Vname
p27
Vatyp
p28
sVvalue
p29
Vi
p30
sa(dp31
Vname
p32
Vct
p33
sVvalue
p34
Vslh
p35
sa(dp36
Vname
p37
Vcad
p38
sVvalue
p39
g4
sa(dp40
Vname
p41
Vei
p42
sVvalue
p43
Vr3bzWN2RJ8XujwTZ_biwDg
p44
sa(dp45
Vname
p46
Vm
p47
sVvalue
p48
VV
p49
sa(dp50
Vname
p51
Vt
p52
sVvalue
p53
VC
p54
sa(dp55
Vname
p56
Vs
p57
sVvalue
p58
V1
p59
sa(dp60
Vname
p61
Vv
p62
sVvalue
p63
V2
p64
sa(dp65
Vname
p66
Vpv
p67
sVvalue
p68
V0.823492600555228
p69
sa(dp70
Vname
p71
Vme
p72
sVvalue
p73
V1:1492350643701,x:3,V,0,0,1280,944:0,N,1,r3bzWN2RJ8XujwTZ_biwDg:0,R,1,24,8,155,1249,261:0,R,1,25,8,155,1249,241:0,R,1,26,8,155,1249,90:0,R,1,55,8,426,1249,393:0,R,1,56,8,426,1249,393:0,R,1,59,0,490,1265,349:0,R,1,81,8,829,1249,380:0,R,1,82,8,829,1249,380:0,R,1,86,1141,829,116,116:0,R,1,95,8,867,1133,40:2,B,3479:8999,e,U
p74
sa(dp75
Vname
p76
Vzx
p77
sVvalue
p78
V1492350652705
p79
sasVheaders
p80
(lp81
sVheadersSize
p82
I971
sVbodySize
p83
I0
sVmethod
p84
VGET
p85
sVhttpVersion
p86
VHTTP/1.1
p87
ssVtimings
p88
(dp89
Vcomment
p90
g4
sVreceive
p91
I0
sVsend
p92
I0
sVssl
p93
I-1
sVconnect
p94
I-1
sVdns
p95
I-1
sVwait
p96
I0
sVblocked
p97
I-1
ssVtime
p98
I0
sVresponse
p99
(dp100
Vstatus
p101
I0
sVcomment
p102
g4
sVcookies
p103
(lp104
sV_error
p105
VNo response received
p106
sVstatusText
p107
g4
sVcontent
p108
(dp109
VmimeType
p110
g4
sVcomment
p111
g4
sVsize
p112
I0
ssVheaders
p113
(lp114
sVheadersSize
p115
I-1
sVredirectURL
p116
g4
sVbodySize
p117
I-1
sVhttpVersion
p118
Vunknown
p119
ssa(dp120
Vcomment
p121
g4
sVserverIPAddress
p122
V74.125.70.105
p123
sVpageref
p124
VMazda
p125
sVstartedDateTime
p126
V2017-04-16T08:50:52.707-05:00
p127
sVcache
p128
(dp129
sVrequest
p130
(dp131
Vcomment
p132
g4
sVcookies
p133
(lp134
sVurl
p135
Vhttps://www.google.com/gen_204?atyp=i&ct=slh&cad=&ei=gnbzWP3JEMHSjwSaz6n4Dw&m=V&t=C&s=1&v=2&pv=0.2296723393945379&me=1:1492350599216,x:2,V,0,0,1280,944:0,N,1,gnbzWP3JEMHSjwSaz6n4Dw:0,R,1,24,8,155,1249,445:0,R,1,26,8,155,1197,445:0,R,1,28,95,155,1024,120:0,R,1,68,8,351,1197,83:0,R,1,77,8,435,1197,83:0,R,1,86,8,518,1197,82:0,R,1,97,24,610,1217,115:0,R,1,104,8,746,1249,700:0,R,1,111,8,928,1249,332:0,R,1,112,0,929,1265,351:2,B,3554:14824,e,U&zx=1492350652705
p136
sVqueryString
p137
(lp138
(dp139
Vname
p140
Vatyp
p141
sVvalue
p142
g30
sa(dp143
Vname
p144
Vct
p145
sVvalue
p146
Vslh
p147
sa(dp148
Vname
p149
Vcad
p150
sVvalue
p151
g4
sa(dp152
Vname
p153
Vei
p154
sVvalue
p155
VgnbzWP3JEMHSjwSaz6n4Dw
p156
sa(dp157
Vname
p158
g47
sVvalue
p159
g49
sa(dp160
Vname
p161
g52
sVvalue
p162
g54
sa(dp163
Vname
p164
g57
sVvalue
p165
g59
sa(dp166
Vname
p167
g62
sVvalue
p168
g64
sa(dp169
Vname
p170
Vpv
p171
sVvalue
p172
V0.2296723393945379
p173
sa(dp174
Vname
p175
Vme
p176
sVvalue
p177
V1:1492350599216,x:2,V,0,0,1280,944:0,N,1,gnbzWP3JEMHSjwSaz6n4Dw:0,R,1,24,8,155,1249,445:0,R,1,26,8,155,1197,445:0,R,1,28,95,155,1024,120:0,R,1,68,8,351,1197,83:0,R,1,77,8,435,1197,83:0,R,1,86,8,518,1197,82:0,R,1,97,24,610,1217,115:0,R,1,104,8,746,1249,700:0,R,1,111,8,928,1249,332:0,R,1,112,0,929,1265,351:2,B,3554:14824,e,U
p178
sa(dp179
Vname
p180
Vzx
p181
sVvalue
p182
V1492350652705
p183
sasVheaders
p184
(lp185
sVheadersSize
p186
I975
sVbodySize
p187
I0
sVmethod
p188
VGET
p189
sVhttpVersion
p190
VHTTP/1.1
p191
ssVtimings
p192
(dp193
Vcomment
p194
g4
sVreceive
p195
I0
sVsend
p196
I0
sVssl
p197
I-1
sVconnect
p198
I-1
sVdns
p199
I-1
sVwait
p200
I0
sVblocked
p201
I-1
ssVtime
p202
I0
sVresponse
p203
(dp204
Vstatus
p205
I0
sVcomment
p206
g4
sVcookies
p207
(lp208
sV_error
p209
VNo response received
p210
sVstatusText
p211
g4
sVcontent
p212
(dp213
VmimeType
p214
g4
sVcomment
p215
g4
sVsize
p216
I0
ssVheaders
p217
(lp218
sVheadersSize
p219
I-1
sVredirectURL
p220
g4
sVbodySize
p221
I-1
sVhttpVersion
p222
Vunknown
p223
ssa(dp224
Vcomment
p225
g4
sVserverIPAddress
p226
V74.125.70.105
p227
sVpageref
p228
VMazda
p229
sVstartedDateTime
p230
V2017-04-16T08:50:52.707-05:00
p231
sVcache
p232
(dp233
sVrequest
p234
(dp235
Vcomment
p236
g4
sVcookies
p237
(lp238
sVurl
p239
Vhttps://www.google.com/gen_204?atyp=i&ct=slh&cad=&ei=l3bzWIqPNcr4jwTk0KXoBw&m=V&t=C&s=1&v=2&pv=0.6432658591212015&me=1:1492350620718,x:2,V,0,0,1280,944:0,N,1,l3bzWIqPNcr4jwTk0KXoBw:0,R,1,22,8,155,1249,194:0,R,1,36,24,359,1217,115:0,R,1,43,8,495,1249,514:0,R,1,50,8,677,1249,332:0,R,1,51,0,678,1265,351:1,B,4078:8239,e,U&zx=1492350652706
p240
sVqueryString
p241
(lp242
(dp243
Vname
p244
Vatyp
p245
sVvalue
p246
g30
sa(dp247
Vname
p248
Vct
p249
sVvalue
p250
Vslh
p251
sa(dp252
Vname
p253
Vcad
p254
sVvalue
p255
g4
sa(dp256
Vname
p257
Vei
p258
sVvalue
p259
Vl3bzWIqPNcr4jwTk0KXoBw
p260
sa(dp261
Vname
p262
g47
sVvalue
p263
g49
sa(dp264
Vname
p265
g52
sVvalue
p266
g54
sa(dp267
Vname
p268
g57
sVvalue
p269
g59
sa(dp270
Vname
p271
g62
sVvalue
p272
g64
sa(dp273
Vname
p274
Vpv
p275
sVvalue
p276
V0.6432658591212015
p277
sa(dp278
Vname
p279
Vme
p280
sVvalue
p281
V1:1492350620718,x:2,V,0,0,1280,944:0,N,1,l3bzWIqPNcr4jwTk0KXoBw:0,R,1,22,8,155,1249,194:0,R,1,36,24,359,1217,115:0,R,1,43,8,495,1249,514:0,R,1,50,8,677,1249,332:0,R,1,51,0,678,1265,351:1,B,4078:8239,e,U
p282
sa(dp283
Vname
p284
Vzx
p285
sVvalue
p286
V1492350652706
p287
sasVheaders
p288
(lp289
sVheadersSize
p290
I853
sVbodySize
p291
I0
sVmethod
p292
VGET
p293
sVhttpVersion
p294
VHTTP/1.1
p295
ssVtimings
p296
(dp297
Vcomment
p298
g4
sVreceive
p299
I0
sVsend
p300
I0
sVssl
p301
I-1
sVconnect
p302
I-1
sVdns
p303
I-1
sVwait
p304
I0
sVblocked
p305
I-1
ssVtime
p306
I0
sVresponse
p307
(dp308
Vstatus
p309
I0
sVcomment
p310
g4
sVcookies
p311
(lp312
sV_error
p313
VNo response received
p314
sVstatusText
p315
g4
sVcontent
p316
(dp317
VmimeType
p318
g4
sVcomment
p319
g4
sVsize
p320
I0
ssVheaders
p321
(lp322
sVheadersSize
p323
I-1
sVredirectURL
p324
g4
sVbodySize
p325
I-1
sVhttpVersion
p326
Vunknown
p327
ssa(dp328
Vcomment
p329
g4
sVserverIPAddress
p330
V74.125.70.105
p331
sVpageref
p332
VMazda
p333
sVstartedDateTime
p334
V2017-04-16T08:50:52.711-05:00
p335
sVcache
p336
(dp337
sVrequest
p338
(dp339
Vcomment
p340
g4
sVcookies
p341
(lp342
sVurl
p343
Vhttp://www.google.com/
p344
sVqueryString
p345
(lp346
sVheaders
p347
(lp348
sVheadersSize
p349
I613
sVbodySize
p350
I0
sVmethod
p351
VGET
p352
sVhttpVersion
p353
VHTTP/1.1
p354
ssVtimings
p355
(dp356
Vcomment
p357
g4
sVreceive
p358
I0
sVsend
p359
I0
sVssl
p360
I-1
sVconnect
p361
I-1
sVdns
p362
I-1
sVwait
p363
I46
sVblocked
p364
I-1
ssVtime
p365
I47
sVresponse
p366
(dp367
Vstatus
p368
I302
sVcomment
p369
g4
sVcookies
p370
(lp371
sVstatusText
p372
VFound
p373
sVcontent
p374
(dp375
VmimeType
p376
Vtext/html; charset=UTF-8
p377
sVcomment
p378
g4
sVsize
p379
I0
ssVheaders
p380
(lp381
sVheadersSize
p382
I609
sVredirectURL
p383
Vhttps://www.google.com/?gws_rd=ssl
p384
sVbodySize
p385
I231
sVhttpVersion
p386
VHTTP/1.1
p387
ssa(dp388
Vcomment
p389
g4
sVserverIPAddress
p390
V74.125.70.105
p391
sVpageref
p392
VMazda
p393
sVstartedDateTime
p394
V2017-04-16T08:50:52.762-05:00
p395
sVcache
p396
(dp397
sVrequest
p398
(dp399
Vcomment
p400
g4
sVcookies
p401
(lp402
sVurl
p403
Vhttps://www.google.com/?gws_rd=ssl
p404
sVqueryString
p405
(lp406
(dp407
Vname
p408
Vgws_rd
p409
sVvalue
p410
Vssl
p411
sasVheaders
p412
(lp413
sVheadersSize
p414
I607
sVbodySize
p415
I0
sVmethod
p416
VGET
p417
sVhttpVersion
p418
VHTTP/1.1
p419
ssVtimings
p420
(dp421
Vcomment
p422
g4
sVreceive
p423
I23
sVsend
p424
I0
sVssl
p425
I-1
sVconnect
p426
I-1
sVdns
p427
I-1
sVwait
p428
I83
sVblocked
p429
I-1
ssVtime
p430
I107
sVresponse
p431
(dp432
Vstatus
p433
I200
sVcomment
p434
g4
sVcookies
p435
(lp436
sVstatusText
p437
VOK
p438
sVcontent
p439
(dp440
VmimeType
p441
Vtext/html; charset=UTF-8
p442
sVcomment
p443
g4
sVsize
p444
I0
ssVheaders
p445
(lp446
sVheadersSize
p447
I721
sVredirectURL
p448
g4
sVbodySize
p449
I34289
sVhttpVersion
p450
VHTTP/1.1
p451
ssa(dp452
Vcomment
p453
g4
sVserverIPAddress
p454
V74.125.70.105
p455
sVpageref
p456
VMazda
p457
sVstartedDateTime
p458
V2017-04-16T08:50:53.129-05:00
p459
sVcache
p460
(dp461
sVrequest
p462
(dp463
Vcomment
p464
g4
sVcookies
p465
(lp466
sVurl
p467
Vhttps://www.google.com/gen_204?s=mobilewebhp&atyp=csi&ei=u3bzWIncLeWsjwS20YaIAQ&imc=1&imn=1&imp=0&adh=&xjs=init.23.12.sb_mob.17.dvl.2.c.1.jsa.1.mbsf.1&ima=1&rt=xjsls.10,prt.13,iml.13,dcl.72,xjses.122,xjsee.197,xjs.198,ol.255,aft.13,wsrt.162,cst.0,dnst.0,rqst.109,rspt.25,rqstt.57,unt.55,cstt.55,dit.205
p468
sVqueryString
p469
(lp470
(dp471
Vname
p472
g57
sVvalue
p473
Vmobilewebhp
p474
sa(dp475
Vname
p476
Vatyp
p477
sVvalue
p478
Vcsi
p479
sa(dp480
Vname
p481
Vei
p482
sVvalue
p483
Vu3bzWIncLeWsjwS20YaIAQ
p484
sa(dp485
Vname
p486
Vimc
p487
sVvalue
p488
g59
sa(dp489
Vname
p490
Vimn
p491
sVvalue
p492
g59
sa(dp493
Vname
p494
Vimp
p495
sVvalue
p496
V0
p497
sa(dp498
Vname
p499
Vadh
p500
sVvalue
p501
g4
sa(dp502
Vname
p503
Vxjs
p504
sVvalue
p505
Vinit.23.12.sb_mob.17.dvl.2.c.1.jsa.1.mbsf.1
p506
sa(dp507
Vname
p508
Vima
p509
sVvalue
p510
g59
sa(dp511
Vname
p512
Vrt
p513
sVvalue
p514
Vxjsls.10,prt.13,iml.13,dcl.72,xjses.122,xjsee.197,xjs.198,ol.255,aft.13,wsrt.162,cst.0,dnst.0,rqst.109,rspt.25,rqstt.57,unt.55,cstt.55,dit.205
p515
sasVheaders
p516
(lp517
sVheadersSize
p518
I830
sVbodySize
p519
I0
sVmethod
p520
VGET
p521
sVhttpVersion
p522
VHTTP/1.1
p523
ssVtimings
p524
(dp525
Vcomment
p526
g4
sVreceive
p527
I0
sVsend
p528
I0
sVssl
p529
I-1
sVconnect
p530
I-1
sVdns
p531
I-1
sVwait
p532
I35
sVblocked
p533
I-1
ssVtime
p534
I35
sVresponse
p535
(dp536
Vstatus
p537
I204
sVcomment
p538
g4
sVcookies
p539
(lp540
sVstatusText
p541
VNo Content
p542
sVcontent
p543
(dp544
VmimeType
p545
Vtext/html; charset=UTF-8
p546
sVcomment
p547
g4
sVsize
p548
I0
ssVheaders
p549
(lp550
sVheadersSize
p551
I248
sVredirectURL
p552
g4
sVbodySize
p553
I0
sVhttpVersion
p554
VHTTP/1.1
p555
ssa(dp556
Vcomment
p557
g4
sVserverIPAddress
p558
V74.125.70.105
p559
sVpageref
p560
VMazda
p561
sVstartedDateTime
p562
V2017-04-16T08:50:53.313-05:00
p563
sVcache
p564
(dp565
sVrequest
p566
(dp567
Vcomment
p568
g4
sVcookies
p569
(lp570
sVurl
p571
Vhttps://www.google.com/complete/search?client=mobile-gws-hp&hl=en&gs_rn=64&gs_ri=mobile-gws-hp&sla=1&pfq=maserati&gm=602&cp=0&gs_id=1&xhr=t&q=M&tch=1&ech=1&psi=u3bzWIncLeWsjwS20YaIAQ.1492350653041.1
p572
sVqueryString
p573
(lp574
(dp575
Vname
p576
Vclient
p577
sVvalue
p578
Vmobile-gws-hp
p579
sa(dp580
Vname
p581
Vhl
p582
sVvalue
p583
Ven
p584
sa(dp585
Vname
p586
Vgs_rn
p587
sVvalue
p588
V64
p589
sa(dp590
Vname
p591
Vgs_ri
p592
sVvalue
p593
Vmobile-gws-hp
p594
sa(dp595
Vname
p596
Vsla
p597
sVvalue
p598
g59
sa(dp599
Vname
p600
Vpfq
p601
sVvalue
p602
Vmaserati
p603
sa(dp604
Vname
p605
Vgm
p606
sVvalue
p607
V602
p608
sa(dp609
Vname
p610
Vcp
p611
sVvalue
p612
g497
sa(dp613
Vname
p614
Vgs_id
p615
sVvalue
p616
g59
sa(dp617
Vname
p618
Vxhr
p619
sVvalue
p620
g52
sa(dp621
Vname
p622
Vq
p623
sVvalue
p624
VM
p625
sa(dp626
Vname
p627
Vtch
p628
sVvalue
p629
g59
sa(dp630
Vname
p631
Vech
p632
sVvalue
p633
g59
sa(dp634
Vname
p635
Vpsi
p636
sVvalue
p637
Vu3bzWIncLeWsjwS20YaIAQ.1492350653041.1
p638
sasVheaders
p639
(lp640
sVheadersSize
p641
I726
sVbodySize
p642
I0
sVmethod
p643
VGET
p644
sVhttpVersion
p645
VHTTP/1.1
p646
ssVtimings
p647
(dp648
Vcomment
p649
g4
sVreceive
p650
I0
sVsend
p651
I0
sVssl
p652
I-1
sVconnect
p653
I-1
sVdns
p654
I-1
sVwait
p655
I0
sVblocked
p656
I-1
ssVtime
p657
I0
sVresponse
p658
(dp659
Vstatus
p660
I0
sVcomment
p661
g4
sVcookies
p662
(lp663
sV_error
p664
VNo response received
p665
sVstatusText
p666
g4
sVcontent
p667
(dp668
VmimeType
p669
g4
sVcomment
p670
g4
sVsize
p671
I0
ssVheaders
p672
(lp673
sVheadersSize
p674
I-1
sVredirectURL
p675
g4
sVbodySize
p676
I-1
sVhttpVersion
p677
Vunknown
p678
ssa(dp679
Vcomment
p680
g4
sVserverIPAddress
p681
V74.125.70.105
p682
sVpageref
p683
VMazda
p684
sVstartedDateTime
p685
V2017-04-16T08:50:53.418-05:00
p686
sVcache
p687
(dp688
sVrequest
p689
(dp690
Vcomment
p691
g4
sVcookies
p692
(lp693
sVurl
p694
Vhttps://www.google.com/search?site=&source=hp&ei=u3bzWIncLeWsjwS20YaIAQ&q=Mazda&oq=Mazda&gs_l=mobile-gws-hp.3...251.263.0.352.5.1.0.0.0.0.0.0..0.0....0...1c.1.64.mobile-gws-hp..5.0.0.o_bUNJgTodg
p695
sVqueryString
p696
(lp697
(dp698
Vname
p699
Vsite
p700
sVvalue
p701
g4
sa(dp702
Vname
p703
Vsource
p704
sVvalue
p705
Vhp
p706
sa(dp707
Vname
p708
Vei
p709
sVvalue
p710
Vu3bzWIncLeWsjwS20YaIAQ
p711
sa(dp712
Vname
p713
g623
sVvalue
p714
VMazda
p715
sa(dp716
Vname
p717
Voq
p718
sVvalue
p719
VMazda
p720
sa(dp721
Vname
p722
Vgs_l
p723
sVvalue
p724
Vmobile-gws-hp.3...251.263.0.352.5.1.0.0.0.0.0.0..0.0....0...1c.1.64.mobile-gws-hp..5.0.0.o_bUNJgTodg
p725
sasVheaders
p726
(lp727
sVheadersSize
p728
I812
sVbodySize
p729
I0
sVmethod
p730
VGET
p731
sVhttpVersion
p732
VHTTP/1.1
p733
ssVtimings
p734
(dp735
Vcomment
p736
g4
sVreceive
p737
I1353
sVsend
p738
I0
sVssl
p739
I-1
sVconnect
p740
I-1
sVdns
p741
I-1
sVwait
p742
I115
sVblocked
p743
I-1
ssVtime
p744
I1468
sVresponse
p745
(dp746
Vstatus
p747
I200
sVcomment
p748
g4
sVcookies
p749
(lp750
sVstatusText
p751
VOK
p752
sVcontent
p753
(dp754
VmimeType
p755
Vtext/html; charset=UTF-8
p756
sVcomment
p757
g4
sVsize
p758
I0
ssVheaders
p759
(lp760
sVheadersSize
p761
I363
sVredirectURL
p762
g4
sVbodySize
p763
I134896
sVhttpVersion
p764
VHTTP/1.1
p765
ssa(dp766
Vcomment
p767
g4
sVserverIPAddress
p768
V74.125.70.103
p769
sVpageref
p770
VMazda
p771
sVstartedDateTime
p772
V2017-04-16T08:50:54.868-05:00
p773
sVcache
p774
(dp775
sVrequest
p776
(dp777
Vcomment
p778
g4
sVcookies
p779
(lp780
sVurl
p781
Vhttps://www.google.com/gen_204?atyp=i&ct=&cad=udla=1&ei=vHbzWJv3GOfAjwTSgbywCg&b=0&act=p&ps=0&zx=1492350654734
p782
sVqueryString
p783
(lp784
(dp785
Vname
p786
Vatyp
p787
sVvalue
p788
g30
sa(dp789
Vname
p790
Vct
p791
sVvalue
p792
g4
sa(dp793
Vname
p794
Vcad
p795
sVvalue
p796
Vudla=1
p797
sa(dp798
Vname
p799
Vei
p800
sVvalue
p801
VvHbzWJv3GOfAjwTSgbywCg
p802
sa(dp803
Vname
p804
Vb
p805
sVvalue
p806
g497
sa(dp807
Vname
p808
Vact
p809
sVvalue
p810
Vp
p811
sa(dp812
Vname
p813
Vps
p814
sVvalue
p815
g497
sa(dp816
Vname
p817
Vzx
p818
sVvalue
p819
V1492350654734
p820
sasVheaders
p821
(lp822
sVheadersSize
p823
I627
sVbodySize
p824
I0
sVmethod
p825
VGET
p826
sVhttpVersion
p827
VHTTP/1.1
p828
ssVtimings
p829
(dp830
Vcomment
p831
g4
sVreceive
p832
I0
sVsend
p833
I0
sVssl
p834
I40
sVconnect
p835
I128
sVdns
p836
I1
sVwait
p837
I39
sVblocked
p838
I0
ssVtime
p839
I170
sVresponse
p840
(dp841
Vstatus
p842
I204
sVcomment
p843
g4
sVcookies
p844
(lp845
sVstatusText
p846
VNo Content
p847
sVcontent
p848
(dp849
VmimeType
p850
Vtext/html; charset=UTF-8
p851
sVcomment
p852
g4
sVsize
p853
I0
ssVheaders
p854
(lp855
sVheadersSize
p856
I248
sVredirectURL
p857
g4
sVbodySize
p858
I0
sVhttpVersion
p859
VHTTP/1.1
p860
ssa(dp861
Vcomment
p862
g4
sVserverIPAddress
p863
V74.125.70.103
p864
sVpageref
p865
VMazda
p866
sVstartedDateTime
p867
V2017-04-16T08:50:58.349-05:00
p868
sVcache
p869
(dp870
sVrequest
p871
(dp872
Vcomment
p873
g4
sVcookies
p874
(lp875
sVurl
p876
Vhttps://www.google.com/maps/vt/data=RfCSdfNZ0LFPrHSm0ublXdzhdrDFhtmHhN1u-gM,QgdpyXE5LPdErmJFxAw6pEjUGmIGfpyaCQim67j3-qSXGCvyRRV0Skiz5OW6p5igWB9Gngk76pC_1mmYip_1SIPSWrHGRoSFnF4bh_5txoE1zpZT4VF4ExZhovaQfWA8eh4Hobk?scale=2&w=997
p877
sVqueryString
p878
(lp879
(dp880
Vname
p881
Vscale
p882
sVvalue
p883
g64
sa(dp884
Vname
p885
Vw
p886
sVvalue
p887
V997
p888
sasVheaders
p889
(lp890
sVheadersSize
p891
I742
sVbodySize
p892
I0
sVmethod
p893
VGET
p894
sVhttpVersion
p895
VHTTP/1.1
p896
ssVtimings
p897
(dp898
Vcomment
p899
g4
sVreceive
p900
I12
sVsend
p901
I0
sVssl
p902
I-1
sVconnect
p903
I-1
sVdns
p904
I-1
sVwait
p905
I99
sVblocked
p906
I-1
ssVtime
p907
I113
sVresponse
p908
(dp909
Vstatus
p910
I200
sVcomment
p911
g4
sVcookies
p912
(lp913
sVstatusText
p914
VOK
p915
sVcontent
p916
(dp917
VmimeType
p918
Vimage/png
p919
sVcomment
p920
g4
sVsize
p921
I0
ssVheaders
p922
(lp923
sVheadersSize
p924
I479
sVredirectURL
p925
g4
sVbodySize
p926
I55185
sVhttpVersion
p927
VHTTP/1.1
p928
ssa(dp929
Vcomment
p930
g4
sVserverIPAddress
p931
V74.125.70.103
p932
sVpageref
p933
VMazda
p934
sVstartedDateTime
p935
V2017-04-16T08:50:58.383-05:00
p936
sVcache
p937
(dp938
sVrequest
p939
(dp940
Vcomment
p941
g4
sVcookies
p942
(lp943
sVurl
p944
Vhttps://www.google.com/xjs/_/js/k=xjs.qs.en_US.pCBXVCvTH3s.O/m=syl,syj,syn,em3,em8,em6,em7,sym,aa,abd,sy2g,sy2k,sy29,sy2j,sy2d,sy2a,sy2c,sy2f,sy2l,sy2m,sy2n,emd,async,sybn,sybi,sybo,sy1f,sy45,sy46,sy9w,sybk,sybj,sybp,sy1g,sy30,sy47,sybm,sybl,sybq,sy1h,sybh,dvl,syep,foot,ipv6,sy32,emj,shm,sy5g,sy5i,sy5k,sykh,tl,sy2x,sy2y,sy2t,sy38,em12,vs,sy5j,sy5h,sy6u,sy66,sy67,sy7d,sy7j,sy4u,sy69,sy89,sy7e,sykk,sykl,tnv,sy23,sy24,sy4g,adinfo,attl,apmf,bct,sy1y,sy31,sy22,sy6i,sy4h,sy6h,sy6o,sy25,sy2u,sy5x,sy6j,sy6k,sy6r,emb,em9,ema,sy34,sy4i,sy5y,sy6a,syeg,lie,sy6b,sccm,kch,sy2z,sy2w,syka,trex,sy4d,sy4f,sy4c,sy4e,sy4b,sy6w,shrb,syd7,dgm,sy3d,sy3u,sy5m,sy6e,sy6f,sy6g,ofmc,sy6y,sycu,d3l,mexp,sy7l,sy7t,sy7q,sy87,sy7y,sy80,sy7m,sy82,sy84,sy4l,sy7v,sy7f,sy8k,syi5,syi7,syia,uvl,mtm,sy7u,sy7w,sy7p,sy7s,sy8l,sy85,sy7r,sy81,sy8q,sy7z,sy7o,sy7x,sy86,sy83,sy8t,sy3a,sy3c,sy7g,sy72,sy9u,sy7n,sy3b,sybb,sycx,syew,syi6,syi9,sy91,syb1,syaz,sygq,syhz,syi8,hcar,sy9m,sy4k,sy4v,syd6,sy9n,syi2,syd4,syi3,syi4,fppu,fpv,sst,syi0,cpn,sy37,sycy,sycz,sydv,sae,sy48,sy5b,sy4x,sy4z,sy56,sy52,sy4y,sycv,sy5d,sy8y,syd0,syda,syd5,sy5e,syd1,sydb,syel,syie,pe,sy5o,sy5r,sy5u,sy5t,sy6z,sy70,sy71,ohi,oh,ohl,syej,sy8b,syek,sybe,syic,syck,syem,syid,eil,lubh_l,sy8z,sbbl,di,mpc,sy79,sy8e,sy7b,sy8i,sy7c,sy8n,sy8d,syjz,syk1,sy8s,sy6q,sya0,syf0,syig,syip,syk0,syk2,lor,wrl,rp,syha,fprl,wra,qaim,qif,syac,sy9b,syl6,ssc,twt,sy6l,sy6m,qkx,sy41,tcc,kpc,kpci,img,vrml,sy5z,atn,sy1i,sya3,sy1j,sya2,sya1,sya4,ampfp/am=gCP4LtMEBXQA2RUaq_oFBISzAFA/rt=j/d=0/t=zcms/rs=ACT90oFwm4NZCwIcuuiqmthdlECdBzkhRA
p945
sVqueryString
p946
(lp947
sVheaders
p948
(lp949
sVheadersSize
p950
I2068
sVbodySize
p951
I0
sVmethod
p952
VGET
p953
sVhttpVersion
p954
VHTTP/1.1
p955
ssVtimings
p956
(dp957
Vcomment
p958
g4
sVreceive
p959
I125
sVsend
p960
I0
sVssl
p961
I-1
sVconnect
p962
I-1
sVdns
p963
I-1
sVwait
p964
I103
sVblocked
p965
I-1
ssVtime
p966
I229
sVresponse
p967
(dp968
Vstatus
p969
I200
sVcomment
p970
g4
sVcookies
p971
(lp972
sVstatusText
p973
VOK
p974
sVcontent
p975
(dp976
VmimeType
p977
Vtext/javascript; charset=UTF-8
p978
sVcomment
p979
g4
sVsize
p980
I0
ssVheaders
p981
(lp982
sVheadersSize
p983
I452
sVredirectURL
p984
g4
sVbodySize
p985
I194123
sVhttpVersion
p986
VHTTP/1.1
p987
ssa(dp988
Vcomment
p989
g4
sVserverIPAddress
p990
V74.125.70.103
p991
sVpageref
p992
VMazda
p993
sVstartedDateTime
p994
V2017-04-16T08:50:58.483-05:00
p995
sVcache
p996
(dp997
sVrequest
p998
(dp999
Vcomment
p1000
g4
sVcookies
p1001
(lp1002
sVurl
p1003
Vhttps://www.google.com/gen_204?s=lu&atyp=csi&ei=vHbzWJv3GOfAjwTSgbywCg&ima=3&rt=lmap.4923,aft.4580,wsrt.4932,cst.0,dnst.0,rqst.1472,rspt.1357,rqstt.3,unt.2,cstt.2,dit.4570
p1004
sVqueryString
p1005
(lp1006
(dp1007
Vname
p1008
g57
sVvalue
p1009
Vlu
p1010
sa(dp1011
Vname
p1012
Vatyp
p1013
sVvalue
p1014
Vcsi
p1015
sa(dp1016
Vname
p1017
Vei
p1018
sVvalue
p1019
VvHbzWJv3GOfAjwTSgbywCg
p1020
sa(dp1021
Vname
p1022
Vima
p1023
sVvalue
p1024
V3
p1025
sa(dp1026
Vname
p1027
Vrt
p1028
sVvalue
p1029
Vlmap.4923,aft.4580,wsrt.4932,cst.0,dnst.0,rqst.1472,rspt.1357,rqstt.3,unt.2,cstt.2,dit.4570
p1030
sasVheaders
p1031
(lp1032
sVheadersSize
p1033
I688
sVbodySize
p1034
I0
sVmethod
p1035
VGET
p1036
sVhttpVersion
p1037
VHTTP/1.1
p1038
ssVtimings
p1039
(dp1040
Vcomment
p1041
g4
sVreceive
p1042
I0
sVsend
p1043
I0
sVssl
p1044
I-1
sVconnect
p1045
I-1
sVdns
p1046
I-1
sVwait
p1047
I30
sVblocked
p1048
I-1
ssVtime
p1049
I30
sVresponse
p1050
(dp1051
Vstatus
p1052
I204
sVcomment
p1053
g4
sVcookies
p1054
(lp1055
sVstatusText
p1056
VNo Content
p1057
sVcontent
p1058
(dp1059
VmimeType
p1060
Vtext/html; charset=UTF-8
p1061
sVcomment
p1062
g4
sVsize
p1063
I0
ssVheaders
p1064
(lp1065
sVheadersSize
p1066
I248
sVredirectURL
p1067
g4
sVbodySize
p1068
I0
sVhttpVersion
p1069
VHTTP/1.1
p1070
ssa(dp1071
Vcomment
p1072
g4
sVserverIPAddress
p1073
V74.125.70.103
p1074
sVpageref
p1075
VMazda
p1076
sVstartedDateTime
p1077
V2017-04-16T08:50:58.768-05:00
p1078
sVcache
p1079
(dp1080
sVrequest
p1081
(dp1082
Vcomment
p1083
g4
sVcookies
p1084
(lp1085
sVurl
p1086
Vhttps://www.google.com/gen_204?atyp=i&ct=phandle&cad=0,det:0&ei=vHbzWJv3GOfAjwTSgbywCg&zx=1492350658766
p1087
sVqueryString
p1088
(lp1089
(dp1090
Vname
p1091
Vatyp
p1092
sVvalue
p1093
g30
sa(dp1094
Vname
p1095
Vct
p1096
sVvalue
p1097
Vphandle
p1098
sa(dp1099
Vname
p1100
Vcad
p1101
sVvalue
p1102
V0,det:0
p1103
sa(dp1104
Vname
p1105
Vei
p1106
sVvalue
p1107
VvHbzWJv3GOfAjwTSgbywCg
p1108
sa(dp1109
Vname
p1110
Vzx
p1111
sVvalue
p1112
V1492350658766
p1113
sasVheaders
p1114
(lp1115
sVheadersSize
p1116
I620
sVbodySize
p1117
I0
sVmethod
p1118
VGET
p1119
sVhttpVersion
p1120
VHTTP/1.1
p1121
ssVtimings
p1122
(dp1123
Vcomment
p1124
g4
sVreceive
p1125
I0
sVsend
p1126
I0
sVssl
p1127
I-1
sVconnect
p1128
I-1
sVdns
p1129
I-1
sVwait
p1130
I29
sVblocked
p1131
I-1
ssVtime
p1132
I29
sVresponse
p1133
(dp1134
Vstatus
p1135
I204
sVcomment
p1136
g4
sVcookies
p1137
(lp1138
sVstatusText
p1139
VNo Content
p1140
sVcontent
p1141
(dp1142
VmimeType
p1143
Vtext/html; charset=UTF-8
p1144
sVcomment
p1145
g4
sVsize
p1146
I0
ssVheaders
p1147
(lp1148
sVheadersSize
p1149
I248
sVredirectURL
p1150
g4
sVbodySize
p1151
I0
sVhttpVersion
p1152
VHTTP/1.1
p1153
ssa(dp1154
Vcomment
p1155
g4
sVserverIPAddress
p1156
V74.125.70.103
p1157
sVpageref
p1158
VMazda
p1159
sVstartedDateTime
p1160
V2017-04-16T08:50:58.972-05:00
p1161
sVcache
p1162
(dp1163
sVrequest
p1164
(dp1165
Vcomment
p1166
g4
sVcookies
p1167
(lp1168
sVurl
p1169
Vhttps://www.google.com/async/ampfp?vet=10ahUKEwibxZG0j6nTAhVn4IMKHdIAD6YQtZoBCPcC..i&ei=vHbzWJv3GOfAjwTSgbywCg&yv=2&async=_id:ampfp-async,_pms:qs
p1170
sVqueryString
p1171
(lp1172
(dp1173
Vname
p1174
Vvet
p1175
sVvalue
p1176
V10ahUKEwibxZG0j6nTAhVn4IMKHdIAD6YQtZoBCPcC..i
p1177
sa(dp1178
Vname
p1179
Vei
p1180
sVvalue
p1181
VvHbzWJv3GOfAjwTSgbywCg
p1182
sa(dp1183
Vname
p1184
Vyv
p1185
sVvalue
p1186
g64
sa(dp1187
Vname
p1188
Vasync
p1189
sVvalue
p1190
V_id:ampfp-async,_pms:qs
p1191
sasVheaders
p1192
(lp1193
sVheadersSize
p1194
I662
sVbodySize
p1195
I0
sVmethod
p1196
VGET
p1197
sVhttpVersion
p1198
VHTTP/1.1
p1199
ssVtimings
p1200
(dp1201
Vcomment
p1202
g4
sVreceive
p1203
I0
sVsend
p1204
I0
sVssl
p1205
I-1
sVconnect
p1206
I-1
sVdns
p1207
I-1
sVwait
p1208
I34
sVblocked
p1209
I-1
ssVtime
p1210
I35
sVresponse
p1211
(dp1212
Vstatus
p1213
I200
sVcomment
p1214
g4
sVcookies
p1215
(lp1216
sVstatusText
p1217
VOK
p1218
sVcontent
p1219
(dp1220
VmimeType
p1221
Vtext/html; charset=UTF-8
p1222
sVcomment
p1223
g4
sVsize
p1224
I0
ssVheaders
p1225
(lp1226
sVheadersSize
p1227
I383
sVredirectURL
p1228
g4
sVbodySize
p1229
I4525
sVhttpVersion
p1230
VHTTP/1.1
p1231
ssa(dp1232
Vcomment
p1233
g4
sVserverIPAddress
p1234
V216.58.216.193
p1235
sVpageref
p1236
VMazda
p1237
sVstartedDateTime
p1238
V2017-04-16T08:50:58.973-05:00
p1239
sVcache
p1240
(dp1241
sVrequest
p1242
(dp1243
Vcomment
p1244
g4
sVcookies
p1245
(lp1246
sVurl
p1247
Vhttps://cdn.ampproject.org/preconnect.gif?0.8111093462205445
p1248
sVqueryString
p1249
(lp1250
(dp1251
Vname
p1252
V0.8111093462205445
p1253
sVvalue
p1254
g4
sasVheaders
p1255
(lp1256
sVheadersSize
p1257
I375
sVbodySize
p1258
I0
sVmethod
p1259
VGET
p1260
sVhttpVersion
p1261
VHTTP/1.1
p1262
ssVtimings
p1263
(dp1264
Vcomment
p1265
g4
sVreceive
p1266
I0
sVsend
p1267
I0
sVssl
p1268
I-1
sVconnect
p1269
I-1
sVdns
p1270
I-1
sVwait
p1271
I30
sVblocked
p1272
I-1
ssVtime
p1273
I30
sVresponse
p1274
(dp1275
Vstatus
p1276
I200
sVcomment
p1277
g4
sVcookies
p1278
(lp1279
sVstatusText
p1280
VOK
p1281
sVcontent
p1282
(dp1283
VmimeType
p1284
Vimage/gif
p1285
sVcomment
p1286
g4
sVsize
p1287
I0
ssVheaders
p1288
(lp1289
sVheadersSize
p1290
I826
sVredirectURL
p1291
g4
sVbodySize
p1292
I37
sVhttpVersion
p1293
VHTTP/1.1
p1294
ssa(dp1295
Vcomment
p1296
g4
sVserverIPAddress
p1297
V74.125.70.103
p1298
sVpageref
p1299
VMazda
p1300
sVstartedDateTime
p1301
V2017-04-16T08:50:59.097-05:00
p1302
sVcache
p1303
(dp1304
sVrequest
p1305
(dp1306
Vcomment
p1307
g4
sVcookies
p1308
(lp1309
sVurl
p1310
Vhttps://www.google.com/async/log_amp_item_set?vet=10ahUKEwio1OO2j6nTAhXD6IMKHR3FBowQooQBCAE..i&ei=vHbzWJv3GOfAjwTSgbywCg&yv=2&async=num_items:2,_fmt:jspb
p1311
sVqueryString
p1312
(lp1313
(dp1314
Vname
p1315
Vvet
p1316
sVvalue
p1317
V10ahUKEwio1OO2j6nTAhXD6IMKHR3FBowQooQBCAE..i
p1318
sa(dp1319
Vname
p1320
Vei
p1321
sVvalue
p1322
VvHbzWJv3GOfAjwTSgbywCg
p1323
sa(dp1324
Vname
p1325
Vyv
p1326
sVvalue
p1327
g64
sa(dp1328
Vname
p1329
Vasync
p1330
sVvalue
p1331
Vnum_items:2,_fmt:jspb
p1332
sasVheaders
p1333
(lp1334
sVheadersSize
p1335
I670
sVbodySize
p1336
I0
sVmethod
p1337
VGET
p1338
sVhttpVersion
p1339
VHTTP/1.1
p1340
ssVtimings
p1341
(dp1342
Vcomment
p1343
g4
sVreceive
p1344
I0
sVsend
p1345
I0
sVssl
p1346
I-1
sVconnect
p1347
I-1
sVdns
p1348
I-1
sVwait
p1349
I33
sVblocked
p1350
I-1
ssVtime
p1351
I33
sVresponse
p1352
(dp1353
Vstatus
p1354
I200
sVcomment
p1355
g4
sVcookies
p1356
(lp1357
sVstatusText
p1358
VOK
p1359
sVcontent
p1360
(dp1361
VmimeType
p1362
Vapplication/json; charset=UTF-8
p1363
sVcomment
p1364
g4
sVsize
p1365
I0
ssVheaders
p1366
(lp1367
sVheadersSize
p1368
I417
sVredirectURL
p1369
g4
sVbodySize
p1370
I141
sVhttpVersion
p1371
VHTTP/1.1
p1372
ssa(dp1373
Vcomment
p1374
g4
sVserverIPAddress
p1375
V172.217.0.1
p1376
sVpageref
p1377
VMazda
p1378
sVstartedDateTime
p1379
V2017-04-16T08:50:59.323-05:00
p1380
sVcache
p1381
(dp1382
sVrequest
p1383
(dp1384
Vcomment
p1385
g4
sVcookies
p1386
(lp1387
sVurl
p1388
Vhttps://lh4.googleusercontent.com/-7RB3Lj3pKUg/VNtVB0V_z6I/AAAAAAAAAEI/JCU1l9sTdOIQgTzmWOjM3_IYcioaqT1ewCJkC/w1280-h853-k-no-l60/
p1389
sVqueryString
p1390
(lp1391
sVheaders
p1392
(lp1393
sVheadersSize
p1394
I444
sVbodySize
p1395
I0
sVmethod
p1396
VGET
p1397
sVhttpVersion
p1398
VHTTP/1.1
p1399
ssVtimings
p1400
(dp1401
Vcomment
p1402
g4
sVreceive
p1403
I55
sVsend
p1404
I0
sVssl
p1405
I41
sVconnect
p1406
I61
sVdns
p1407
I440
sVwait
p1408
I190
sVblocked
p1409
I0
ssVtime
p1410
I747
sVresponse
p1411
(dp1412
Vstatus
p1413
I200
sVcomment
p1414
g4
sVcookies
p1415
(lp1416
sVstatusText
p1417
VOK
p1418
sVcontent
p1419
(dp1420
VmimeType
p1421
Vimage/jpeg
p1422
sVcomment
p1423
g4
sVsize
p1424
I0
ssVheaders
p1425
(lp1426
sVheadersSize
p1427
I474
sVredirectURL
p1428
g4
sVbodySize
p1429
I89102
sVhttpVersion
p1430
VHTTP/1.1
p1431
ssa(dp1432
Vcomment
p1433
g4
sVserverIPAddress
p1434
V172.217.0.1
p1435
sVpageref
p1436
VMazda
p1437
sVstartedDateTime
p1438
V2017-04-16T08:50:59.438-05:00
p1439
sVcache
p1440
(dp1441
sVrequest
p1442
(dp1443
Vcomment
p1444
g4
sVcookies
p1445
(lp1446
sVurl
p1447
Vhttps://chicago-suntimes-com.cdn.ampproject.org/v/chicago.suntimes.com/autos/mazda-cx-9-doesnt-look-or-handle-like-a-typical-three-row-suv/amp/?amp_js_v=9
p1448
sVqueryString
p1449
(lp1450
(dp1451
Vname
p1452
Vamp_js_v
p1453
sVvalue
p1454
V9
p1455
sasVheaders
p1456
(lp1457
sVheadersSize
p1458
I559
sVbodySize
p1459
I0
sVmethod
p1460
VGET
p1461
sVhttpVersion
p1462
VHTTP/1.1
p1463
ssVtimings
p1464
(dp1465
Vcomment
p1466
g4
sVreceive
p1467
I6
sVsend
p1468
I0
sVssl
p1469
I278
sVconnect
p1470
I303
sVdns
p1471
I31
sVwait
p1472
I87
sVblocked
p1473
I0
ssVtime
p1474
I429
sVresponse
p1475
(dp1476
Vstatus
p1477
I200
sVcomment
p1478
g4
sVcookies
p1479
(lp1480
sVstatusText
p1481
VOK
p1482
sVcontent
p1483
(dp1484
VmimeType
p1485
Vtext/html
p1486
sVcomment
p1487
g4
sVsize
p1488
I0
ssVheaders
p1489
(lp1490
sVheadersSize
p1491
I861
sVredirectURL
p1492
g4
sVbodySize
p1493
I7498
sVhttpVersion
p1494
VHTTP/1.1
p1495
ssa(dp1496
Vcomment
p1497
g4
sVserverIPAddress
p1498
V216.58.216.202
p1499
sVpageref
p1500
VMazda
p1501
sVstartedDateTime
p1502
V2017-04-16T08:50:59.542-05:00
p1503
sVcache
p1504
(dp1505
sVrequest
p1506
(dp1507
Vcomment
p1508
g4
sVcookies
p1509
(lp1510
sVurl
p1511
Vhttps://fonts.googleapis.com/css?family=Source+Sans+Pro:300
p1512
sVqueryString
p1513
(lp1514
(dp1515
Vname
p1516
Vfamily
p1517
sVvalue
p1518
VSource Sans Pro:300
p1519
sasVheaders
p1520
(lp1521
sVheadersSize
p1522
I520
sVbodySize
p1523
I0
sVmethod
p1524
VGET
p1525
sVhttpVersion
p1526
VHTTP/1.1
p1527
ssVtimings
p1528
(dp1529
Vcomment
p1530
g4
sVreceive
p1531
I1
sVsend
p1532
I0
sVssl
p1533
I-1
sVconnect
p1534
I-1
sVdns
p1535
I-1
sVwait
p1536
I28
sVblocked
p1537
I-1
ssVtime
p1538
I29
sVresponse
p1539
(dp1540
Vstatus
p1541
I200
sVcomment
p1542
g4
sVcookies
p1543
(lp1544
sVstatusText
p1545
VOK
p1546
sVcontent
p1547
(dp1548
VmimeType
p1549
Vtext/css; charset=utf-8
p1550
sVcomment
p1551
g4
sVsize
p1552
I0
ssVheaders
p1553
(lp1554
sVheadersSize
p1555
I405
sVredirectURL
p1556
g4
sVbodySize
p1557
I386
sVhttpVersion
p1558
VHTTP/1.1
p1559
ssa(dp1560
Vcomment
p1561
g4
sVserverIPAddress
p1562
V172.217.0.1
p1563
sVpageref
p1564
VMazda
p1565
sVstartedDateTime
p1566
V2017-04-16T08:51:00.162-05:00
p1567
sVcache
p1568
(dp1569
sVrequest
p1570
(dp1571
Vcomment
p1572
g4
sVcookies
p1573
(lp1574
sVurl
p1575
Vhttps://s0-wp-com.cdn.ampproject.org/i/s/s0.wp.com/wp-content/themes/vip/chicagosuntimes/cst-amp-logo.svg
p1576
sVqueryString
p1577
(lp1578
sVheaders
p1579
(lp1580
sVheadersSize
p1581
I551
sVbodySize
p1582
I0
sVmethod
p1583
VGET
p1584
sVhttpVersion
p1585
VHTTP/1.1
p1586
ssVtimings
p1587
(dp1588
Vcomment
p1589
g4
sVreceive
p1590
I1
sVsend
p1591
I0
sVssl
p1592
I387
sVconnect
p1593
I413
sVdns
p1594
I52
sVwait
p1595
I23
sVblocked
p1596
I0
ssVtime
p1597
I490
sVresponse
p1598
(dp1599
Vstatus
p1600
I200
sVcomment
p1601
g4
sVcookies
p1602
(lp1603
sVstatusText
p1604
VOK
p1605
sVcontent
p1606
(dp1607
VmimeType
p1608
Vimage/svg+xml
p1609
sVcomment
p1610
g4
sVsize
p1611
I0
ssVheaders
p1612
(lp1613
sVheadersSize
p1614
I881
sVredirectURL
p1615
g4
sVbodySize
p1616
I1657
sVhttpVersion
p1617
VHTTP/1.1
p1618
ssa(dp1619
Vcomment
p1620
g4
sVserverIPAddress
p1621
V172.217.0.1
p1622
sVpageref
p1623
VMazda
p1624
sVstartedDateTime
p1625
V2017-04-16T08:51:00.164-05:00
p1626
sVcache
p1627
(dp1628
sVrequest
p1629
(dp1630
Vcomment
p1631
g4
sVcookies
p1632
(lp1633
sVurl
p1634
Vhttps://s0-wp-com.cdn.ampproject.org/ii/w120/s/s0.wp.com/wp-content/themes/vip/chicagosuntimes/cst-app-logo.svg
p1635
sVqueryString
p1636
(lp1637
sVheaders
p1638
(lp1639
sVheadersSize
p1640
I557
sVbodySize
p1641
I0
sVmethod
p1642
VGET
p1643
sVhttpVersion
p1644
VHTTP/1.1
p1645
ssVtimings
p1646
(dp1647
Vcomment
p1648
g4
sVreceive
p1649
I0
sVsend
p1650
I0
sVssl
p1651
I390
sVconnect
p1652
I416
sVdns
p1653
I49
sVwait
p1654
I27
sVblocked
p1655
I0
ssVtime
p1656
I494
sVresponse
p1657
(dp1658
Vstatus
p1659
I200
sVcomment
p1660
g4
sVcookies
p1661
(lp1662
sVstatusText
p1663
VOK
p1664
sVcontent
p1665
(dp1666
VmimeType
p1667
Vimage/svg+xml
p1668
sVcomment
p1669
g4
sVsize
p1670
I0
ssVheaders
p1671
(lp1672
sVheadersSize
p1673
I881
sVredirectURL
p1674
g4
sVbodySize
p1675
I4429
sVhttpVersion
p1676
VHTTP/1.1
p1677
ssa(dp1678
Vcomment
p1679
g4
sVserverIPAddress
p1680
V172.217.0.1
p1681
sVpageref
p1682
VMazda
p1683
sVstartedDateTime
p1684
V2017-04-16T08:51:00.313-05:00
p1685
sVcache
p1686
(dp1687
sVrequest
p1688
(dp1689
Vcomment
p1690
g4
sVcookies
p1691
(lp1692
sVurl
p1693
Vhttps://suntimesmedia-files-wordpress-com.cdn.ampproject.org/ii/w1200/s/suntimesmedia.files.wordpress.com/2017/04/2016_cx9_03.jpg?w=640&h=480&crop=1
p1694
sVqueryString
p1695
(lp1696
(dp1697
Vname
p1698
g886
sVvalue
p1699
V640
p1700
sa(dp1701
Vname
p1702
Vh
p1703
sVvalue
p1704
V480
p1705
sa(dp1706
Vname
p1707
Vcrop
p1708
sVvalue
p1709
g59
sasVheaders
p1710
(lp1711
sVheadersSize
p1712
I594
sVbodySize
p1713
I0
sVmethod
p1714
VGET
p1715
sVhttpVersion
p1716
VHTTP/1.1
p1717
ssVtimings
p1718
(dp1719
Vcomment
p1720
g4
sVreceive
p1721
I35
sVsend
p1722
I0
sVssl
p1723
I539
sVconnect
p1724
I565
sVdns
p1725
I43
sVwait
p1726
I60
sVblocked
p1727
I0
ssVtime
p1728
I704
sVresponse
p1729
(dp1730
Vstatus
p1731
I200
sVcomment
p1732
g4
sVcookies
p1733
(lp1734
sVstatusText
p1735
VOK
p1736
sVcontent
p1737
(dp1738
VmimeType
p1739
Vimage/jpeg
p1740
sVcomment
p1741
g4
sVsize
p1742
I0
ssVheaders
p1743
(lp1744
sVheadersSize
p1745
I849
sVredirectURL
p1746
g4
sVbodySize
p1747
I35125
sVhttpVersion
p1748
VHTTP/1.1
p1749
ssa(dp1750
Vcomment
p1751
g4
sVserverIPAddress
p1752
V172.217.0.1
p1753
sVpageref
p1754
VMazda
p1755
sVstartedDateTime
p1756
V2017-04-16T08:51:00.315-05:00
p1757
sVcache
p1758
(dp1759
sVrequest
p1760
(dp1761
Vcomment
p1762
g4
sVcookies
p1763
(lp1764
sVurl
p1765
Vhttps://suntimesmedia-files-wordpress-com.cdn.ampproject.org/ii/w1200/s/suntimesmedia.files.wordpress.com/2017/04/2016_cx9_13.jpg?w=640&h=480&crop=1
p1766
sVqueryString
p1767
(lp1768
(dp1769
Vname
p1770
g886
sVvalue
p1771
V640
p1772
sa(dp1773
Vname
p1774
g1703
sVvalue
p1775
V480
p1776
sa(dp1777
Vname
p1778
Vcrop
p1779
sVvalue
p1780
g59
sasVheaders
p1781
(lp1782
sVheadersSize
p1783
I594
sVbodySize
p1784
I0
sVmethod
p1785
VGET
p1786
sVhttpVersion
p1787
VHTTP/1.1
p1788
ssVtimings
p1789
(dp1790
Vcomment
p1791
g4
sVreceive
p1792
I28
sVsend
p1793
I0
sVssl
p1794
I543
sVconnect
p1795
I568
sVdns
p1796
I46
sVwait
p1797
I26
sVblocked
p1798
I0
ssVtime
p1799
I669
sVresponse
p1800
(dp1801
Vstatus
p1802
I200
sVcomment
p1803
g4
sVcookies
p1804
(lp1805
sVstatusText
p1806
VOK
p1807
sVcontent
p1808
(dp1809
VmimeType
p1810
Vimage/jpeg
p1811
sVcomment
p1812
g4
sVsize
p1813
I0
ssVheaders
p1814
(lp1815
sVheadersSize
p1816
I849
sVredirectURL
p1817
g4
sVbodySize
p1818
I46123
sVhttpVersion
p1819
VHTTP/1.1
p1820
ssa(dp1821
Vcomment
p1822
g4
sVserverIPAddress
p1823
V74.125.70.103
p1824
sVpageref
p1825
VMazda
p1826
sVstartedDateTime
p1827
V2017-04-16T08:51:00.856-05:00
p1828
sVcache
p1829
(dp1830
sVrequest
p1831
(dp1832
Vcomment
p1833
g4
sVcookies
p1834
(lp1835
sVurl
p1836
Vhttps://www.google.com/gen_204?s=web&atyp=csi&ei=vHbzWJv3GOfAjwTSgbywCg&imc=45&imn=45&imp=22&adh=tv.272,t.272&xjs=init.51.15.sb_mob.37.dvl.4.vs.2.trex.2.c.1&ima=3&rt=prt.4430,iml.4580,xjsls.4430,dcl.4548,xjses.4642,xjsee.4828,xjs.4828,ol.7293,aft.4580,wsrt.127,cst.0,dnst.0,rqst.1472,rspt.1357,rqstt.3,unt.2,cstt.2,dit.4570
p1837
sVqueryString
p1838
(lp1839
(dp1840
Vname
p1841
g57
sVvalue
p1842
Vweb
p1843
sa(dp1844
Vname
p1845
Vatyp
p1846
sVvalue
p1847
Vcsi
p1848
sa(dp1849
Vname
p1850
Vei
p1851
sVvalue
p1852
VvHbzWJv3GOfAjwTSgbywCg
p1853
sa(dp1854
Vname
p1855
Vimc
p1856
sVvalue
p1857
V45
p1858
sa(dp1859
Vname
p1860
Vimn
p1861
sVvalue
p1862
V45
p1863
sa(dp1864
Vname
p1865
Vimp
p1866
sVvalue
p1867
V22
p1868
sa(dp1869
Vname
p1870
Vadh
p1871
sVvalue
p1872
Vtv.272,t.272
p1873
sa(dp1874
Vname
p1875
Vxjs
p1876
sVvalue
p1877
Vinit.51.15.sb_mob.37.dvl.4.vs.2.trex.2.c.1
p1878
sa(dp1879
Vname
p1880
Vima
p1881
sVvalue
p1882
g1025
sa(dp1883
Vname
p1884
Vrt
p1885
sVvalue
p1886
Vprt.4430,iml.4580,xjsls.4430,dcl.4548,xjses.4642,xjsee.4828,xjs.4828,ol.7293,aft.4580,wsrt.127,cst.0,dnst.0,rqst.1472,rspt.1357,rqstt.3,unt.2,cstt.2,dit.4570
p1887
sasVheaders
p1888
(lp1889
sVheadersSize
p1890
I840
sVbodySize
p1891
I0
sVmethod
p1892
VGET
p1893
sVhttpVersion
p1894
VHTTP/1.1
p1895
ssVtimings
p1896
(dp1897
Vcomment
p1898
g4
sVreceive
p1899
I0
sVsend
p1900
I0
sVssl
p1901
I-1
sVconnect
p1902
I-1
sVdns
p1903
I-1
sVwait
p1904
I43
sVblocked
p1905
I-1
ssVtime
p1906
I43
sVresponse
p1907
(dp1908
Vstatus
p1909
I204
sVcomment
p1910
g4
sVcookies
p1911
(lp1912
sVstatusText
p1913
VNo Content
p1914
sVcontent
p1915
(dp1916
VmimeType
p1917
Vtext/html; charset=UTF-8
p1918
sVcomment
p1919
g4
sVsize
p1920
I0
ssVheaders
p1921
(lp1922
sVheadersSize
p1923
I248
sVredirectURL
p1924
g4
sVbodySize
p1925
I0
sVhttpVersion
p1926
VHTTP/1.1
p1927
ssa(dp1928
Vcomment
p1929
g4
sVserverIPAddress
p1930
V74.125.70.103
p1931
sVpageref
p1932
VMazda
p1933
sVstartedDateTime
p1934
V2017-04-16T08:51:00.943-05:00
p1935
sVcache
p1936
(dp1937
sVrequest
p1938
(dp1939
Vcomment
p1940
g4
sVcookies
p1941
(lp1942
sVurl
p1943
Vhttps://www.google.com/gen_204?atyp=i&ct=slh&cad=&ei=r3bzWN2RJ8XujwTZ_biwDg&m=V&t=C&s=1&v=2&pv=0.823492600555228&me=1:1492350643701,x:3,V,0,0,1280,944:0,N,1,r3bzWN2RJ8XujwTZ_biwDg:0,R,1,24,8,155,1249,261:0,R,1,25,8,155,1249,241:0,R,1,26,8,155,1249,90:0,R,1,55,8,426,1249,393:0,R,1,56,8,426,1249,393:0,R,1,59,0,490,1265,349:0,R,1,81,8,829,1249,380:0,R,1,82,8,829,1249,380:0,R,1,86,1141,829,116,116:0,R,1,95,8,867,1133,40:2,B,3479:8999,e,U&zx=1492350660942
p1944
sVqueryString
p1945
(lp1946
(dp1947
Vname
p1948
Vatyp
p1949
sVvalue
p1950
g30
sa(dp1951
Vname
p1952
Vct
p1953
sVvalue
p1954
Vslh
p1955
sa(dp1956
Vname
p1957
Vcad
p1958
sVvalue
p1959
g4
sa(dp1960
Vname
p1961
Vei
p1962
sVvalue
p1963
Vr3bzWN2RJ8XujwTZ_biwDg
p1964
sa(dp1965
Vname
p1966
g47
sVvalue
p1967
g49
sa(dp1968
Vname
p1969
g52
sVvalue
p1970
g54
sa(dp1971
Vname
p1972
g57
sVvalue
p1973
g59
sa(dp1974
Vname
p1975
g62
sVvalue
p1976
g64
sa(dp1977
Vname
p1978
Vpv
p1979
sVvalue
p1980
V0.823492600555228
p1981
sa(dp1982
Vname
p1983
Vme
p1984
sVvalue
p1985
V1:1492350643701,x:3,V,0,0,1280,944:0,N,1,r3bzWN2RJ8XujwTZ_biwDg:0,R,1,24,8,155,1249,261:0,R,1,25,8,155,1249,241:0,R,1,26,8,155,1249,90:0,R,1,55,8,426,1249,393:0,R,1,56,8,426,1249,393:0,R,1,59,0,490,1265,349:0,R,1,81,8,829,1249,380:0,R,1,82,8,829,1249,380:0,R,1,86,1141,829,116,116:0,R,1,95,8,867,1133,40:2,B,3479:8999,e,U
p1986
sa(dp1987
Vname
p1988
Vzx
p1989
sVvalue
p1990
V1492350660942
p1991
sasVheaders
p1992
(lp1993
sVheadersSize
p1994
I971
sVbodySize
p1995
I0
sVmethod
p1996
VGET
p1997
sVhttpVersion
p1998
VHTTP/1.1
p1999
ssVtimings
p2000
(dp2001
Vcomment
p2002
g4
sVreceive
p2003
I0
sVsend
p2004
I0
sVssl
p2005
I-1
sVconnect
p2006
I-1
sVdns
p2007
I-1
sVwait
p2008
I34
sVblocked
p2009
I-1
ssVtime
p2010
I35
sVresponse
p2011
(dp2012
Vstatus
p2013
I204
sVcomment
p2014
g4
sVcookies
p2015
(lp2016
sVstatusText
p2017
VNo Content
p2018
sVcontent
p2019
(dp2020
VmimeType
p2021
Vtext/html; charset=UTF-8
p2022
sVcomment
p2023
g4
sVsize
p2024
I0
ssVheaders
p2025
(lp2026
sVheadersSize
p2027
I248
sVredirectURL
p2028
g4
sVbodySize
p2029
I0
sVhttpVersion
p2030
VHTTP/1.1
p2031
ssasVversion
p2032
V1.2
p2033
sVpages
p2034
(lp2035
(dp2036
VpageTimings
p2037
(dp2038
Vcomment
p2039
g4
ssVcomment
p2040
g4
sVtitle
p2041
VMazda
p2042
sVid
p2043
VMazda
p2044
sVstartedDateTime
p2045
V2017-04-16T08:50:52.698-05:00
p2046
sasVcreator
p2047
(dp2048
Vcomment
p2049
g4
sVversion
p2050
V2.1.4
p2051
sVname
p2052
VBrowserMob Proxy
p2053
sss.