(dp0
Vlog
p1
(dp2
Vcomment
p3
V
p4
sVentries
p5
(lp6
(dp7
Vcomment
p8
g4
sVserverIPAddress
p9
V216.58.216.196
p10
sVpageref
p11
VDelirium Tremens Beer
p12
sVstartedDateTime
p13
V2017-04-16T08:38:23.070-05:00
p14
sVcache
p15
(dp16
sVrequest
p17
(dp18
Vcomment
p19
g4
sVcookies
p20
(lp21
sVurl
p22
Vhttps://www.google.com/gen_204?atyp=i&ct=slh&cad=&ei=wnPzWKC6OqLQjwSM6KOgAw&m=V&t=C&s=1&v=2&pv=0.7252148747125757&me=1:1492349894353,x:2,V,0,0,1280,944:0,N,1,wnPzWKC6OqLQjwSM6KOgAw:0,R,1,24,0,155,1197,742:0,R,1,25,0,155,1197,740:0,R,1,45,0,155,1197,200:0,R,1,46,0,155,1197,200:0,R,1,67,0,368,1197,20:0,R,1,72,0,412,1197,20:0,R,1,86,0,512,1197,33:0,R,1,89,0,566,1197,36:0,R,1,92,0,619,1197,47:0,R,1,130,0,674,1197,139:0,R,1,208,8,905,1249,337:0,R,1,209,8,905,1249,317:0,R,1,210,8,905,1249,317:0,R,1,211,8,905,1249,90:2,B,3262:8712,e,U&zx=1492349903069
p23
sVqueryString
p24
(lp25
(dp26
Vname
p27
Vatyp
p28
sVvalue
p29
Vi
p30
sa(dp31
Vname
p32
Vct
p33
sVvalue
p34
Vslh
p35
sa(dp36
Vname
p37
Vcad
p38
sVvalue
p39
g4
sa(dp40
Vname
p41
Vei
p42
sVvalue
p43
VwnPzWKC6OqLQjwSM6KOgAw
p44
sa(dp45
Vname
p46
Vm
p47
sVvalue
p48
VV
p49
sa(dp50
Vname
p51
Vt
p52
sVvalue
p53
VC
p54
sa(dp55
Vname
p56
Vs
p57
sVvalue
p58
V1
p59
sa(dp60
Vname
p61
Vv
p62
sVvalue
p63
V2
p64
sa(dp65
Vname
p66
Vpv
p67
sVvalue
p68
V0.7252148747125757
p69
sa(dp70
Vname
p71
Vme
p72
sVvalue
p73
V1:1492349894353,x:2,V,0,0,1280,944:0,N,1,wnPzWKC6OqLQjwSM6KOgAw:0,R,1,24,0,155,1197,742:0,R,1,25,0,155,1197,740:0,R,1,45,0,155,1197,200:0,R,1,46,0,155,1197,200:0,R,1,67,0,368,1197,20:0,R,1,72,0,412,1197,20:0,R,1,86,0,512,1197,33:0,R,1,89,0,566,1197,36:0,R,1,92,0,619,1197,47:0,R,1,130,0,674,1197,139:0,R,1,208,8,905,1249,337:0,R,1,209,8,905,1249,317:0,R,1,210,8,905,1249,317:0,R,1,211,8,905,1249,90:2,B,3262:8712,e,U
p74
sa(dp75
Vname
p76
Vzx
p77
sVvalue
p78
V1492349903069
p79
sasVheaders
p80
(lp81
sVheadersSize
p82
I1067
sVbodySize
p83
I0
sVmethod
p84
VGET
p85
sVhttpVersion
p86
VHTTP/1.1
p87
ssVtimings
p88
(dp89
Vcomment
p90
g4
sVreceive
p91
I0
sVsend
p92
I0
sVssl
p93
I-1
sVconnect
p94
I-1
sVdns
p95
I-1
sVwait
p96
I0
sVblocked
p97
I-1
ssVtime
p98
I0
sVresponse
p99
(dp100
Vstatus
p101
I0
sVcomment
p102
g4
sVcookies
p103
(lp104
sV_error
p105
VNo response received
p106
sVstatusText
p107
g4
sVcontent
p108
(dp109
VmimeType
p110
g4
sVcomment
p111
g4
sVsize
p112
I0
ssVheaders
p113
(lp114
sVheadersSize
p115
I-1
sVredirectURL
p116
g4
sVbodySize
p117
I-1
sVhttpVersion
p118
Vunknown
p119
ssa(dp120
Vcomment
p121
g4
sVserverIPAddress
p122
V216.58.216.196
p123
sVpageref
p124
VDelirium Tremens Beer
p125
sVstartedDateTime
p126
V2017-04-16T08:38:23.070-05:00
p127
sVcache
p128
(dp129
sVrequest
p130
(dp131
Vcomment
p132
g4
sVcookies
p133
(lp134
sVurl
p135
Vhttps://www.google.com/gen_204?atyp=i&ct=slh&cad=&ei=q3PzWMnpO6bajwStqK-ADg&s=2&v=2&pv=0.5678041571195016&me=17:1492349891191,e,H&zx=1492349903069
p136
sVqueryString
p137
(lp138
(dp139
Vname
p140
Vatyp
p141
sVvalue
p142
g30
sa(dp143
Vname
p144
Vct
p145
sVvalue
p146
Vslh
p147
sa(dp148
Vname
p149
Vcad
p150
sVvalue
p151
g4
sa(dp152
Vname
p153
Vei
p154
sVvalue
p155
Vq3PzWMnpO6bajwStqK-ADg
p156
sa(dp157
Vname
p158
g57
sVvalue
p159
g64
sa(dp160
Vname
p161
g62
sVvalue
p162
g64
sa(dp163
Vname
p164
Vpv
p165
sVvalue
p166
V0.5678041571195016
p167
sa(dp168
Vname
p169
Vme
p170
sVvalue
p171
V17:1492349891191,e,H
p172
sa(dp173
Vname
p174
Vzx
p175
sVvalue
p176
V1492349903069
p177
sasVheaders
p178
(lp179
sVheadersSize
p180
I663
sVbodySize
p181
I0
sVmethod
p182
VGET
p183
sVhttpVersion
p184
VHTTP/1.1
p185
ssVtimings
p186
(dp187
Vcomment
p188
g4
sVreceive
p189
I0
sVsend
p190
I0
sVssl
p191
I-1
sVconnect
p192
I-1
sVdns
p193
I-1
sVwait
p194
I0
sVblocked
p195
I-1
ssVtime
p196
I0
sVresponse
p197
(dp198
Vstatus
p199
I0
sVcomment
p200
g4
sVcookies
p201
(lp202
sV_error
p203
VNo response received
p204
sVstatusText
p205
g4
sVcontent
p206
(dp207
VmimeType
p208
g4
sVcomment
p209
g4
sVsize
p210
I0
ssVheaders
p211
(lp212
sVheadersSize
p213
I-1
sVredirectURL
p214
g4
sVbodySize
p215
I-1
sVhttpVersion
p216
Vunknown
p217
ssa(dp218
Vcomment
p219
g4
sVserverIPAddress
p220
V216.58.216.196
p221
sVpageref
p222
VDelirium Tremens Beer
p223
sVstartedDateTime
p224
V2017-04-16T08:38:23.074-05:00
p225
sVcache
p226
(dp227
sVrequest
p228
(dp229
Vcomment
p230
g4
sVcookies
p231
(lp232
sVurl
p233
Vhttp://www.google.com/
p234
sVqueryString
p235
(lp236
sVheaders
p237
(lp238
sVheadersSize
p239
I613
sVbodySize
p240
I0
sVmethod
p241
VGET
p242
sVhttpVersion
p243
VHTTP/1.1
p244
ssVtimings
p245
(dp246
Vcomment
p247
g4
sVreceive
p248
I0
sVsend
p249
I0
sVssl
p250
I-1
sVconnect
p251
I-1
sVdns
p252
I-1
sVwait
p253
I35
sVblocked
p254
I-1
ssVtime
p255
I35
sVresponse
p256
(dp257
Vstatus
p258
I302
sVcomment
p259
g4
sVcookies
p260
(lp261
sVstatusText
p262
VFound
p263
sVcontent
p264
(dp265
VmimeType
p266
Vtext/html; charset=UTF-8
p267
sVcomment
p268
g4
sVsize
p269
I0
ssVheaders
p270
(lp271
sVheadersSize
p272
I609
sVredirectURL
p273
Vhttps://www.google.com/?gws_rd=ssl
p274
sVbodySize
p275
I231
sVhttpVersion
p276
VHTTP/1.1
p277
ssa(dp278
Vcomment
p279
g4
sVserverIPAddress
p280
V216.58.216.196
p281
sVpageref
p282
VDelirium Tremens Beer
p283
sVstartedDateTime
p284
V2017-04-16T08:38:23.160-05:00
p285
sVcache
p286
(dp287
sVrequest
p288
(dp289
Vcomment
p290
g4
sVcookies
p291
(lp292
sVurl
p293
Vhttps://www.google.com/?gws_rd=ssl
p294
sVqueryString
p295
(lp296
(dp297
Vname
p298
Vgws_rd
p299
sVvalue
p300
Vssl
p301
sasVheaders
p302
(lp303
sVheadersSize
p304
I607
sVbodySize
p305
I0
sVmethod
p306
VGET
p307
sVhttpVersion
p308
VHTTP/1.1
p309
ssVtimings
p310
(dp311
Vcomment
p312
g4
sVreceive
p313
I19
sVsend
p314
I0
sVssl
p315
I22
sVconnect
p316
I38
sVdns
p317
I2
sVwait
p318
I79
sVblocked
p319
I0
ssVtime
p320
I140
sVresponse
p321
(dp322
Vstatus
p323
I200
sVcomment
p324
g4
sVcookies
p325
(lp326
sVstatusText
p327
VOK
p328
sVcontent
p329
(dp330
VmimeType
p331
Vtext/html; charset=UTF-8
p332
sVcomment
p333
g4
sVsize
p334
I0
ssVheaders
p335
(lp336
sVheadersSize
p337
I721
sVredirectURL
p338
g4
sVbodySize
p339
I34292
sVhttpVersion
p340
VHTTP/1.1
p341
ssa(dp342
Vcomment
p343
g4
sVserverIPAddress
p344
V216.58.216.196
p345
sVpageref
p346
VDelirium Tremens Beer
p347
sVstartedDateTime
p348
V2017-04-16T08:38:23.566-05:00
p349
sVcache
p350
(dp351
sVrequest
p352
(dp353
Vcomment
p354
g4
sVcookies
p355
(lp356
sVurl
p357
Vhttps://www.google.com/gen_204?s=mobilewebhp&atyp=csi&ei=znPzWJKQCcesjwT51L2YAg&imc=1&imn=1&imp=0&adh=&xjs=init.36.12.sb_mob.28.dvl.3.c.1.jsa.1.r.1&ima=1&rt=xjsls.14,prt.15,iml.15,dcl.51,xjses.93,xjsee.199,xjs.200,ol.283,aft.15,wsrt.209,cst.0,dnst.0,rqst.100,rspt.102,rqstt.92,unt.44,cstt.44,dit.236
p358
sVqueryString
p359
(lp360
(dp361
Vname
p362
g57
sVvalue
p363
Vmobilewebhp
p364
sa(dp365
Vname
p366
Vatyp
p367
sVvalue
p368
Vcsi
p369
sa(dp370
Vname
p371
Vei
p372
sVvalue
p373
VznPzWJKQCcesjwT51L2YAg
p374
sa(dp375
Vname
p376
Vimc
p377
sVvalue
p378
g59
sa(dp379
Vname
p380
Vimn
p381
sVvalue
p382
g59
sa(dp383
Vname
p384
Vimp
p385
sVvalue
p386
V0
p387
sa(dp388
Vname
p389
Vadh
p390
sVvalue
p391
g4
sa(dp392
Vname
p393
Vxjs
p394
sVvalue
p395
Vinit.36.12.sb_mob.28.dvl.3.c.1.jsa.1.r.1
p396
sa(dp397
Vname
p398
Vima
p399
sVvalue
p400
g59
sa(dp401
Vname
p402
Vrt
p403
sVvalue
p404
Vxjsls.14,prt.15,iml.15,dcl.51,xjses.93,xjsee.199,xjs.200,ol.283,aft.15,wsrt.209,cst.0,dnst.0,rqst.100,rspt.102,rqstt.92,unt.44,cstt.44,dit.236
p405
sasVheaders
p406
(lp407
sVheadersSize
p408
I827
sVbodySize
p409
I0
sVmethod
p410
VGET
p411
sVhttpVersion
p412
VHTTP/1.1
p413
ssVtimings
p414
(dp415
Vcomment
p416
g4
sVreceive
p417
I0
sVsend
p418
I0
sVssl
p419
I-1
sVconnect
p420
I-1
sVdns
p421
I-1
sVwait
p422
I24
sVblocked
p423
I-1
ssVtime
p424
I25
sVresponse
p425
(dp426
Vstatus
p427
I204
sVcomment
p428
g4
sVcookies
p429
(lp430
sVstatusText
p431
VNo Content
p432
sVcontent
p433
(dp434
VmimeType
p435
Vtext/html; charset=UTF-8
p436
sVcomment
p437
g4
sVsize
p438
I0
ssVheaders
p439
(lp440
sVheadersSize
p441
I248
sVredirectURL
p442
g4
sVbodySize
p443
I0
sVhttpVersion
p444
VHTTP/1.1
p445
ssa(dp446
Vcomment
p447
g4
sVserverIPAddress
p448
V216.58.216.196
p449
sVpageref
p450
VDelirium Tremens Beer
p451
sVstartedDateTime
p452
V2017-04-16T08:38:23.730-05:00
p453
sVcache
p454
(dp455
sVrequest
p456
(dp457
Vcomment
p458
g4
sVcookies
p459
(lp460
sVurl
p461
Vhttps://www.google.com/complete/search?client=mobile-gws-hp&hl=en&gs_rn=64&gs_ri=mobile-gws-hp&sla=1&pfq=detroit%20pistons&gm=602&cp=0&gs_id=1&xhr=t&q=D&tch=1&ech=1&psi=znPzWJKQCcesjwT51L2YAg.1492349903441.1
p462
sVqueryString
p463
(lp464
(dp465
Vname
p466
Vclient
p467
sVvalue
p468
Vmobile-gws-hp
p469
sa(dp470
Vname
p471
Vhl
p472
sVvalue
p473
Ven
p474
sa(dp475
Vname
p476
Vgs_rn
p477
sVvalue
p478
V64
p479
sa(dp480
Vname
p481
Vgs_ri
p482
sVvalue
p483
Vmobile-gws-hp
p484
sa(dp485
Vname
p486
Vsla
p487
sVvalue
p488
g59
sa(dp489
Vname
p490
Vpfq
p491
sVvalue
p492
Vdetroit pistons
p493
sa(dp494
Vname
p495
Vgm
p496
sVvalue
p497
V602
p498
sa(dp499
Vname
p500
Vcp
p501
sVvalue
p502
g387
sa(dp503
Vname
p504
Vgs_id
p505
sVvalue
p506
g59
sa(dp507
Vname
p508
Vxhr
p509
sVvalue
p510
g52
sa(dp511
Vname
p512
Vq
p513
sVvalue
p514
VD
p515
sa(dp516
Vname
p517
Vtch
p518
sVvalue
p519
g59
sa(dp520
Vname
p521
Vech
p522
sVvalue
p523
g59
sa(dp524
Vname
p525
Vpsi
p526
sVvalue
p527
VznPzWJKQCcesjwT51L2YAg.1492349903441.1
p528
sasVheaders
p529
(lp530
sVheadersSize
p531
I735
sVbodySize
p532
I0
sVmethod
p533
VGET
p534
sVhttpVersion
p535
VHTTP/1.1
p536
ssVtimings
p537
(dp538
Vcomment
p539
g4
sVreceive
p540
I0
sVsend
p541
I0
sVssl
p542
I-1
sVconnect
p543
I-1
sVdns
p544
I-1
sVwait
p545
I0
sVblocked
p546
I-1
ssVtime
p547
I0
sVresponse
p548
(dp549
Vstatus
p550
I0
sVcomment
p551
g4
sVcookies
p552
(lp553
sV_error
p554
VNo response received
p555
sVstatusText
p556
g4
sVcontent
p557
(dp558
VmimeType
p559
g4
sVcomment
p560
g4
sVsize
p561
I0
ssVheaders
p562
(lp563
sVheadersSize
p564
I-1
sVredirectURL
p565
g4
sVbodySize
p566
I-1
sVhttpVersion
p567
Vunknown
p568
ssa(dp569
Vcomment
p570
g4
sVserverIPAddress
p571
V216.58.216.196
p572
sVpageref
p573
VDelirium Tremens Beer
p574
sVstartedDateTime
p575
V2017-04-16T08:38:23.882-05:00
p576
sVcache
p577
(dp578
sVrequest
p579
(dp580
Vcomment
p581
g4
sVcookies
p582
(lp583
sVurl
p584
Vhttps://www.google.com/search?site=&source=hp&ei=znPzWJKQCcesjwT51L2YAg&q=Delirium+Tremens+Beer&oq=Delirium+Tremens+Beer&gs_l=mobile-gws-hp.3...259.315.0.358.21.1.0.0.0.0.0.0..0.0....0...1c.1.64.mobile-gws-hp..21.0.0.6OoKZCCAvSA
p585
sVqueryString
p586
(lp587
(dp588
Vname
p589
Vsite
p590
sVvalue
p591
g4
sa(dp592
Vname
p593
Vsource
p594
sVvalue
p595
Vhp
p596
sa(dp597
Vname
p598
Vei
p599
sVvalue
p600
VznPzWJKQCcesjwT51L2YAg
p601
sa(dp602
Vname
p603
g513
sVvalue
p604
VDelirium Tremens Beer
p605
sa(dp606
Vname
p607
Voq
p608
sVvalue
p609
VDelirium Tremens Beer
p610
sa(dp611
Vname
p612
Vgs_l
p613
sVvalue
p614
Vmobile-gws-hp.3...259.315.0.358.21.1.0.0.0.0.0.0..0.0....0...1c.1.64.mobile-gws-hp..21.0.0.6OoKZCCAvSA
p615
sasVheaders
p616
(lp617
sVheadersSize
p618
I846
sVbodySize
p619
I0
sVmethod
p620
VGET
p621
sVhttpVersion
p622
VHTTP/1.1
p623
ssVtimings
p624
(dp625
Vcomment
p626
g4
sVreceive
p627
I808
sVsend
p628
I0
sVssl
p629
I23
sVconnect
p630
I47
sVdns
p631
I0
sVwait
p632
I335
sVblocked
p633
I0
ssVtime
p634
I1191
sVresponse
p635
(dp636
Vstatus
p637
I200
sVcomment
p638
g4
sVcookies
p639
(lp640
sVstatusText
p641
VOK
p642
sVcontent
p643
(dp644
VmimeType
p645
Vtext/html; charset=UTF-8
p646
sVcomment
p647
g4
sVsize
p648
I0
ssVheaders
p649
(lp650
sVheadersSize
p651
I363
sVredirectURL
p652
g4
sVbodySize
p653
I65021
sVhttpVersion
p654
VHTTP/1.1
p655
ssa(dp656
Vcomment
p657
g4
sVserverIPAddress
p658
V216.58.216.196
p659
sVpageref
p660
VDelirium Tremens Beer
p661
sVstartedDateTime
p662
V2017-04-16T08:38:25.364-05:00
p663
sVcache
p664
(dp665
sVrequest
p666
(dp667
Vcomment
p668
g4
sVcookies
p669
(lp670
sVurl
p671
Vhttps://www.google.com/xjs/_/js/k=xjs.qs.en_US.pCBXVCvTH3s.O/m=syl,syj,syn,em3,em8,em6,em7,sym,aa,abd,sy2g,sy2k,sy29,sy2j,sy2d,sy2a,sy2c,sy2f,sy2l,sy2m,sy2n,emd,async,sybn,sybi,sybo,sy1f,sy45,sy46,sy9w,sybk,sybj,sybp,sy1g,sy30,sy47,sybm,sybl,sybq,sy1h,sybh,dvl,syep,foot,ipv6,sy3d,sy2u,sy3u,sy5m,sy89,sy78,sy6e,sy79,sy8e,sy5g,sy88,sy9b,sy6f,sy7b,sy8i,sy5j,sy5h,sy6u,sy9e,sy7k,sy9d,sy6g,sy7c,sy8n,sy7d,sy7j,sy9a,sy9h,sy9i,sy7h,sy98,sy97,sy9g,sy8s,sy7e,sy9j,sy99,sy9f,sy9k,sy96,pla,sy32,emj,shm,sy5i,sy5k,sykh,tl,sy2x,sy2y,sy2t,sy38,em12,vs,sy66,sy67,sy4u,sy69,sykk,sykl,tnv,sy4d,sy4f,sy4e,sy8z,sbbl,sy23,apmf,bct,sy1y,syf5,syf4,sy26,syfc,syfn,syf7,syff,sy1i,sy22,sy6i,sy68,sy8d,syf6,syfl,syfr,syfq,sy25,syfg,sy1j,sy4q,sy5o,sy5r,sy6j,sy6n,sy6p,sy8h,syc7,syc8,syfb,syfj,syfs,syft,syg3,syg5,syg7,emb,em9,ema,sy24,emn,emo,syg4,syg6,ivg,sy9m,sy9n,iuci,img,sy4c,sy4b,sy6w,shrb,sy4g,syd7,dgm,sy41,tcc,sy6y,sycu,d3l,syj7,syj8,syj2,syjc,syj6,syj3,syjg,syjh,syje,syjd,syjk,syji,syjf,syj0,emr,ems,emt,emu,emv,emx,emy,emz,em10,em11,udlg,sy5z,atn,sy31,sya3,sy4h,sya2,sy4i,sya1,sya4,ampfp/am=gCP4LtMEBXQA2RUaq_oFBISzAFA/rt=j/d=0/t=zcms/rs=ACT90oFwm4NZCwIcuuiqmthdlECdBzkhRA
p672
sVqueryString
p673
(lp674
sVheaders
p675
(lp676
sVheadersSize
p677
I1675
sVbodySize
p678
I0
sVmethod
p679
VGET
p680
sVhttpVersion
p681
VHTTP/1.1
p682
ssVtimings
p683
(dp684
Vcomment
p685
g4
sVreceive
p686
I47
sVsend
p687
I0
sVssl
p688
I-1
sVconnect
p689
I-1
sVdns
p690
I-1
sVwait
p691
I100
sVblocked
p692
I-1
ssVtime
p693
I148
sVresponse
p694
(dp695
Vstatus
p696
I200
sVcomment
p697
g4
sVcookies
p698
(lp699
sVstatusText
p700
VOK
p701
sVcontent
p702
(dp703
VmimeType
p704
Vtext/javascript; charset=UTF-8
p705
sVcomment
p706
g4
sVsize
p707
I0
ssVheaders
p708
(lp709
sVheadersSize
p710
I452
sVredirectURL
p711
g4
sVbodySize
p712
I130196
sVhttpVersion
p713
VHTTP/1.1
p714
ssa(dp715
Vcomment
p716
g4
sVserverIPAddress
p717
V216.58.216.196
p718
sVpageref
p719
VDelirium Tremens Beer
p720
sVstartedDateTime
p721
V2017-04-16T08:38:25.636-05:00
p722
sVcache
p723
(dp724
sVrequest
p725
(dp726
Vcomment
p727
g4
sVcookies
p728
(lp729
sVurl
p730
Vhttps://www.google.com/async/irc?vet=10ahUKEwi2x93OjKnTAhUJw4MKHXGbCosQo0EIdw..i&ved=0ahUKEwi2x93OjKnTAhUJw4MKHXGbCosQo0EIdw&ei=znPzWLaoNYmGjwTxtqrYCA&yv=2&async=iu:1,ved:0ahUKEwi2x93OjKnTAhUJw4MKHXGbCosQo0EIdw,_id:irc_async,_pms:qs
p731
sVqueryString
p732
(lp733
(dp734
Vname
p735
Vvet
p736
sVvalue
p737
V10ahUKEwi2x93OjKnTAhUJw4MKHXGbCosQo0EIdw..i
p738
sa(dp739
Vname
p740
Vved
p741
sVvalue
p742
V0ahUKEwi2x93OjKnTAhUJw4MKHXGbCosQo0EIdw
p743
sa(dp744
Vname
p745
Vei
p746
sVvalue
p747
VznPzWLaoNYmGjwTxtqrYCA
p748
sa(dp749
Vname
p750
Vyv
p751
sVvalue
p752
g64
sa(dp753
Vname
p754
Vasync
p755
sVvalue
p756
Viu:1,ved:0ahUKEwi2x93OjKnTAhUJw4MKHXGbCosQo0EIdw,_id:irc_async,_pms:qs
p757
sasVheaders
p758
(lp759
sVheadersSize
p760
I749
sVbodySize
p761
I0
sVmethod
p762
VGET
p763
sVhttpVersion
p764
VHTTP/1.1
p765
ssVtimings
p766
(dp767
Vcomment
p768
g4
sVreceive
p769
I0
sVsend
p770
I0
sVssl
p771
I-1
sVconnect
p772
I-1
sVdns
p773
I-1
sVwait
p774
I46
sVblocked
p775
I-1
ssVtime
p776
I47
sVresponse
p777
(dp778
Vstatus
p779
I200
sVcomment
p780
g4
sVcookies
p781
(lp782
sVstatusText
p783
VOK
p784
sVcontent
p785
(dp786
VmimeType
p787
Vtext/html; charset=UTF-8
p788
sVcomment
p789
g4
sVsize
p790
I0
ssVheaders
p791
(lp792
sVheadersSize
p793
I383
sVredirectURL
p794
g4
sVbodySize
p795
I7793
sVhttpVersion
p796
VHTTP/1.1
p797
ssa(dp798
Vcomment
p799
g4
sVserverIPAddress
p800
V216.58.216.193
p801
sVpageref
p802
VDelirium Tremens Beer
p803
sVstartedDateTime
p804
V2017-04-16T08:38:25.679-05:00
p805
sVcache
p806
(dp807
sVrequest
p808
(dp809
Vcomment
p810
g4
sVcookies
p811
(lp812
sVurl
p813
Vhttps://cdn.ampproject.org/preconnect.gif?0.6514292381197327
p814
sVqueryString
p815
(lp816
(dp817
Vname
p818
V0.6514292381197327
p819
sVvalue
p820
g4
sasVheaders
p821
(lp822
sVheadersSize
p823
I375
sVbodySize
p824
I0
sVmethod
p825
VGET
p826
sVhttpVersion
p827
VHTTP/1.1
p828
ssVtimings
p829
(dp830
Vcomment
p831
g4
sVreceive
p832
I0
sVsend
p833
I0
sVssl
p834
I-1
sVconnect
p835
I-1
sVdns
p836
I-1
sVwait
p837
I37
sVblocked
p838
I-1
ssVtime
p839
I38
sVresponse
p840
(dp841
Vstatus
p842
I200
sVcomment
p843
g4
sVcookies
p844
(lp845
sVstatusText
p846
VOK
p847
sVcontent
p848
(dp849
VmimeType
p850
Vimage/gif
p851
sVcomment
p852
g4
sVsize
p853
I0
ssVheaders
p854
(lp855
sVheadersSize
p856
I826
sVredirectURL
p857
g4
sVbodySize
p858
I37
sVhttpVersion
p859
VHTTP/1.1
p860
ssa(dp861
Vcomment
p862
g4
sVserverIPAddress
p863
V216.58.216.196
p864
sVpageref
p865
VDelirium Tremens Beer
p866
sVstartedDateTime
p867
V2017-04-16T08:38:25.729-05:00
p868
sVcache
p869
(dp870
sVrequest
p871
(dp872
Vcomment
p873
g4
sVcookies
p874
(lp875
sVurl
p876
Vhttps://www.google.com/async/ampfp?vet=10ahUKEwi2x93OjKnTAhUJw4MKHXGbCosQtZoBCHU..i&ei=znPzWLaoNYmGjwTxtqrYCA&yv=2&async=_id:ampfp-async,_pms:qs
p877
sVqueryString
p878
(lp879
(dp880
Vname
p881
Vvet
p882
sVvalue
p883
V10ahUKEwi2x93OjKnTAhUJw4MKHXGbCosQtZoBCHU..i
p884
sa(dp885
Vname
p886
Vei
p887
sVvalue
p888
VznPzWLaoNYmGjwTxtqrYCA
p889
sa(dp890
Vname
p891
Vyv
p892
sVvalue
p893
g64
sa(dp894
Vname
p895
Vasync
p896
sVvalue
p897
V_id:ampfp-async,_pms:qs
p898
sasVheaders
p899
(lp900
sVheadersSize
p901
I661
sVbodySize
p902
I0
sVmethod
p903
VGET
p904
sVhttpVersion
p905
VHTTP/1.1
p906
ssVtimings
p907
(dp908
Vcomment
p909
g4
sVreceive
p910
I0
sVsend
p911
I0
sVssl
p912
I26
sVconnect
p913
I44
sVdns
p914
I0
sVwait
p915
I34
sVblocked
p916
I0
ssVtime
p917
I80
sVresponse
p918
(dp919
Vstatus
p920
I200
sVcomment
p921
g4
sVcookies
p922
(lp923
sVstatusText
p924
VOK
p925
sVcontent
p926
(dp927
VmimeType
p928
Vtext/html; charset=UTF-8
p929
sVcomment
p930
g4
sVsize
p931
I0
ssVheaders
p932
(lp933
sVheadersSize
p934
I383
sVredirectURL
p935
g4
sVbodySize
p936
I4521
sVhttpVersion
p937
VHTTP/1.1
p938
ssa(dp939
Vcomment
p940
g4
sVserverIPAddress
p941
V216.58.216.196
p942
sVpageref
p943
VDelirium Tremens Beer
p944
sVstartedDateTime
p945
V2017-04-16T08:38:25.829-05:00
p946
sVcache
p947
(dp948
sVrequest
p949
(dp950
Vcomment
p951
g4
sVcookies
p952
(lp953
sVurl
p954
Vhttps://www.google.com/xjs/_/js/k=xjs.qs.en_US.pCBXVCvTH3s.O/m=idg,syfu,ish,ivw,sy6k,syi2,syi5,syi4,fpv,sy48,sy3a,sy3c,sy5b,sy4x,sy4z,sy56,sy4y,sy5d,sya8,sy5e,sy91,sya6,sya7,sya9,amp,sp/am=gCP4LtMEBXQA2RUaq_oFBISzAFA/rt=j/d=0/t=zcms/rs=ACT90oFwm4NZCwIcuuiqmthdlECdBzkhRA
p955
sVqueryString
p956
(lp957
sVheaders
p958
(lp959
sVheadersSize
p960
I787
sVbodySize
p961
I0
sVmethod
p962
VGET
p963
sVhttpVersion
p964
VHTTP/1.1
p965
ssVtimings
p966
(dp967
Vcomment
p968
g4
sVreceive
p969
I10
sVsend
p970
I0
sVssl
p971
I-1
sVconnect
p972
I-1
sVdns
p973
I-1
sVwait
p974
I13
sVblocked
p975
I-1
ssVtime
p976
I24
sVresponse
p977
(dp978
Vstatus
p979
I200
sVcomment
p980
g4
sVcookies
p981
(lp982
sVstatusText
p983
VOK
p984
sVcontent
p985
(dp986
VmimeType
p987
Vtext/javascript; charset=UTF-8
p988
sVcomment
p989
g4
sVsize
p990
I0
ssVheaders
p991
(lp992
sVheadersSize
p993
I464
sVredirectURL
p994
g4
sVbodySize
p995
I53719
sVhttpVersion
p996
VHTTP/1.1
p997
ssa(dp998
Vcomment
p999
g4
sVserverIPAddress
p1000
V216.58.216.196
p1001
sVpageref
p1002
VDelirium Tremens Beer
p1003
sVstartedDateTime
p1004
V2017-04-16T08:38:25.932-05:00
p1005
sVcache
p1006
(dp1007
sVrequest
p1008
(dp1009
Vcomment
p1010
g4
sVcookies
p1011
(lp1012
sVurl
p1013
Vhttps://www.google.com/async/log_amp_item_set?vet=10ahUKEwi6gs7PjKnTAhUK2oMKHSWoCXYQooQBCAE..i&ei=znPzWLaoNYmGjwTxtqrYCA&yv=2&async=num_items:1,_fmt:jspb
p1014
sVqueryString
p1015
(lp1016
(dp1017
Vname
p1018
Vvet
p1019
sVvalue
p1020
V10ahUKEwi6gs7PjKnTAhUK2oMKHSWoCXYQooQBCAE..i
p1021
sa(dp1022
Vname
p1023
Vei
p1024
sVvalue
p1025
VznPzWLaoNYmGjwTxtqrYCA
p1026
sa(dp1027
Vname
p1028
Vyv
p1029
sVvalue
p1030
g64
sa(dp1031
Vname
p1032
Vasync
p1033
sVvalue
p1034
Vnum_items:1,_fmt:jspb
p1035
sasVheaders
p1036
(lp1037
sVheadersSize
p1038
I670
sVbodySize
p1039
I0
sVmethod
p1040
VGET
p1041
sVhttpVersion
p1042
VHTTP/1.1
p1043
ssVtimings
p1044
(dp1045
Vcomment
p1046
g4
sVreceive
p1047
I0
sVsend
p1048
I0
sVssl
p1049
I-1
sVconnect
p1050
I-1
sVdns
p1051
I-1
sVwait
p1052
I33
sVblocked
p1053
I-1
ssVtime
p1054
I34
sVresponse
p1055
(dp1056
Vstatus
p1057
I200
sVcomment
p1058
g4
sVcookies
p1059
(lp1060
sVstatusText
p1061
VOK
p1062
sVcontent
p1063
(dp1064
VmimeType
p1065
Vapplication/json; charset=UTF-8
p1066
sVcomment
p1067
g4
sVsize
p1068
I0
ssVheaders
p1069
(lp1070
sVheadersSize
p1071
I417
sVredirectURL
p1072
g4
sVbodySize
p1073
I132
sVhttpVersion
p1074
VHTTP/1.1
p1075
ssa(dp1076
Vcomment
p1077
g4
sVserverIPAddress
p1078
V216.58.216.193
p1079
sVpageref
p1080
VDelirium Tremens Beer
p1081
sVstartedDateTime
p1082
V2017-04-16T08:38:26.863-05:00
p1083
sVcache
p1084
(dp1085
sVrequest
p1086
(dp1087
Vcomment
p1088
g4
sVcookies
p1089
(lp1090
sVurl
p1091
Vhttps://theconcourse-deadspin-com.cdn.ampproject.org/v/theconcourse.deadspin.com/delirium-tremens-a-refreshingly-morbid-belgian-ale-1657301606/amp?amp_js_v=9
p1092
sVqueryString
p1093
(lp1094
(dp1095
Vname
p1096
Vamp_js_v
p1097
sVvalue
p1098
V9
p1099
sasVheaders
p1100
(lp1101
sVheadersSize
p1102
I562
sVbodySize
p1103
I0
sVmethod
p1104
VGET
p1105
sVhttpVersion
p1106
VHTTP/1.1
p1107
ssVtimings
p1108
(dp1109
Vcomment
p1110
g4
sVreceive
p1111
I3
sVsend
p1112
I0
sVssl
p1113
I838
sVconnect
p1114
I884
sVdns
p1115
I33
sVwait
p1116
I100
sVblocked
p1117
I0
ssVtime
p1118
I1022
sVresponse
p1119
(dp1120
Vstatus
p1121
I200
sVcomment
p1122
g4
sVcookies
p1123
(lp1124
sVstatusText
p1125
VOK
p1126
sVcontent
p1127
(dp1128
VmimeType
p1129
Vtext/html
p1130
sVcomment
p1131
g4
sVsize
p1132
I0
ssVheaders
p1133
(lp1134
sVheadersSize
p1135
I862
sVredirectURL
p1136
g4
sVbodySize
p1137
I16118
sVhttpVersion
p1138
VHTTP/1.1
p1139
ssa(dp1140
Vcomment
p1141
g4
sVserverIPAddress
p1142
V216.58.216.193
p1143
sVpageref
p1144
VDelirium Tremens Beer
p1145
sVstartedDateTime
p1146
V2017-04-16T08:38:27.470-05:00
p1147
sVcache
p1148
(dp1149
sVrequest
p1150
(dp1151
Vcomment
p1152
g4
sVcookies
p1153
(lp1154
sVurl
p1155
Vhttps://i-kinja--img-com.cdn.ampproject.org/ii/w820/s/i.kinja-img.com/gawker-media/image/upload/s--J1bJLFz6--/b_white,c_lpad,fl_progressive,g_center,h_40,q_80,w_350/yoxftagatlu56n0zkyb1.png
p1156
sVqueryString
p1157
(lp1158
sVheaders
p1159
(lp1160
sVheadersSize
p1161
I638
sVbodySize
p1162
I0
sVmethod
p1163
VGET
p1164
sVhttpVersion
p1165
VHTTP/1.1
p1166
ssVtimings
p1167
(dp1168
Vcomment
p1169
g4
sVreceive
p1170
I0
sVsend
p1171
I0
sVssl
p1172
I270
sVconnect
p1173
I291
sVdns
p1174
I30
sVwait
p1175
I23
sVblocked
p1176
I0
ssVtime
p1177
I345
sVresponse
p1178
(dp1179
Vstatus
p1180
I200
sVcomment
p1181
g4
sVcookies
p1182
(lp1183
sVstatusText
p1184
VOK
p1185
sVcontent
p1186
(dp1187
VmimeType
p1188
Vimage/png
p1189
sVcomment
p1190
g4
sVsize
p1191
I0
ssVheaders
p1192
(lp1193
sVheadersSize
p1194
I823
sVredirectURL
p1195
g4
sVbodySize
p1196
I2519
sVhttpVersion
p1197
VHTTP/1.1
p1198
ssa(dp1199
Vcomment
p1200
g4
sVserverIPAddress
p1201
V216.58.216.193
p1202
sVpageref
p1203
VDelirium Tremens Beer
p1204
sVstartedDateTime
p1205
V2017-04-16T08:38:27.476-05:00
p1206
sVcache
p1207
(dp1208
sVrequest
p1209
(dp1210
Vcomment
p1211
g4
sVcookies
p1212
(lp1213
sVurl
p1214
Vhttps://i-kinja--img-com.cdn.ampproject.org/ii/w82/s/i.kinja-img.com/gawker-media/image/upload/s--rJ1bwW00--/c_fill,fl_progressive,g_center,h_80,q_80,w_80/18sk2gb6zsaskjpg.jpg
p1215
sVqueryString
p1216
(lp1217
sVheaders
p1218
(lp1219
sVheadersSize
p1220
I624
sVbodySize
p1221
I0
sVmethod
p1222
VGET
p1223
sVhttpVersion
p1224
VHTTP/1.1
p1225
ssVtimings
p1226
(dp1227
Vcomment
p1228
g4
sVreceive
p1229
I0
sVsend
p1230
I0
sVssl
p1231
I269
sVconnect
p1232
I297
sVdns
p1233
I25
sVwait
p1234
I26
sVblocked
p1235
I0
ssVtime
p1236
I349
sVresponse
p1237
(dp1238
Vstatus
p1239
I200
sVcomment
p1240
g4
sVcookies
p1241
(lp1242
sVstatusText
p1243
VOK
p1244
sVcontent
p1245
(dp1246
VmimeType
p1247
Vimage/jpeg
p1248
sVcomment
p1249
g4
sVsize
p1250
I0
ssVheaders
p1251
(lp1252
sVheadersSize
p1253
I848
sVredirectURL
p1254
g4
sVbodySize
p1255
I2147
sVhttpVersion
p1256
VHTTP/1.1
p1257
ssa(dp1258
Vcomment
p1259
g4
sVserverIPAddress
p1260
V216.58.216.193
p1261
sVpageref
p1262
VDelirium Tremens Beer
p1263
sVstartedDateTime
p1264
V2017-04-16T08:38:27.480-05:00
p1265
sVcache
p1266
(dp1267
sVrequest
p1268
(dp1269
Vcomment
p1270
g4
sVcookies
p1271
(lp1272
sVurl
p1273
Vhttps://i-kinja--img-com.cdn.ampproject.org/ii/w1200/s/i.kinja-img.com/gawker-media/image/upload/s--GUaQBJzk--/oscosnjqeknmilvfvyf9.jpg
p1274
sVqueryString
p1275
(lp1276
sVheaders
p1277
(lp1278
sVheadersSize
p1279
I584
sVbodySize
p1280
I0
sVmethod
p1281
VGET
p1282
sVhttpVersion
p1283
VHTTP/1.1
p1284
ssVtimings
p1285
(dp1286
Vcomment
p1287
g4
sVreceive
p1288
I1
sVsend
p1289
I0
sVssl
p1290
I282
sVconnect
p1291
I302
sVdns
p1292
I25
sVwait
p1293
I53
sVblocked
p1294
I0
ssVtime
p1295
I382
sVresponse
p1296
(dp1297
Vstatus
p1298
I200
sVcomment
p1299
g4
sVcookies
p1300
(lp1301
sVstatusText
p1302
VOK
p1303
sVcontent
p1304
(dp1305
VmimeType
p1306
Vimage/jpeg
p1307
sVcomment
p1308
g4
sVsize
p1309
I0
ssVheaders
p1310
(lp1311
sVheadersSize
p1312
I849
sVredirectURL
p1313
g4
sVbodySize
p1314
I15438
sVhttpVersion
p1315
VHTTP/1.1
p1316
ssa(dp1317
Vcomment
p1318
g4
sVserverIPAddress
p1319
V216.58.216.196
p1320
sVpageref
p1321
VDelirium Tremens Beer
p1322
sVstartedDateTime
p1323
V2017-04-16T08:38:27.653-05:00
p1324
sVcache
p1325
(dp1326
sVrequest
p1327
(dp1328
Vcomment
p1329
g4
sVcookies
p1330
(lp1331
sVurl
p1332
Vhttps://www.google.com/gen_204?atyp=i&ct=slh&cad=&ei=wnPzWKC6OqLQjwSM6KOgAw&m=V&t=C&s=1&v=2&pv=0.7252148747125757&me=1:1492349894353,x:2,V,0,0,1280,944:0,N,1,wnPzWKC6OqLQjwSM6KOgAw:0,R,1,24,0,155,1197,742:0,R,1,25,0,155,1197,740:0,R,1,45,0,155,1197,200:0,R,1,46,0,155,1197,200:0,R,1,67,0,368,1197,20:0,R,1,72,0,412,1197,20:0,R,1,86,0,512,1197,33:0,R,1,89,0,566,1197,36:0,R,1,92,0,619,1197,47:0,R,1,130,0,674,1197,139:0,R,1,208,8,905,1249,337:0,R,1,209,8,905,1249,317:0,R,1,210,8,905,1249,317:0,R,1,211,8,905,1249,90:2,B,3262:8712,e,U&zx=1492349907650
p1333
sVqueryString
p1334
(lp1335
(dp1336
Vname
p1337
Vatyp
p1338
sVvalue
p1339
g30
sa(dp1340
Vname
p1341
Vct
p1342
sVvalue
p1343
Vslh
p1344
sa(dp1345
Vname
p1346
Vcad
p1347
sVvalue
p1348
g4
sa(dp1349
Vname
p1350
Vei
p1351
sVvalue
p1352
VwnPzWKC6OqLQjwSM6KOgAw
p1353
sa(dp1354
Vname
p1355
g47
sVvalue
p1356
g49
sa(dp1357
Vname
p1358
g52
sVvalue
p1359
g54
sa(dp1360
Vname
p1361
g57
sVvalue
p1362
g59
sa(dp1363
Vname
p1364
g62
sVvalue
p1365
g64
sa(dp1366
Vname
p1367
Vpv
p1368
sVvalue
p1369
V0.7252148747125757
p1370
sa(dp1371
Vname
p1372
Vme
p1373
sVvalue
p1374
V1:1492349894353,x:2,V,0,0,1280,944:0,N,1,wnPzWKC6OqLQjwSM6KOgAw:0,R,1,24,0,155,1197,742:0,R,1,25,0,155,1197,740:0,R,1,45,0,155,1197,200:0,R,1,46,0,155,1197,200:0,R,1,67,0,368,1197,20:0,R,1,72,0,412,1197,20:0,R,1,86,0,512,1197,33:0,R,1,89,0,566,1197,36:0,R,1,92,0,619,1197,47:0,R,1,130,0,674,1197,139:0,R,1,208,8,905,1249,337:0,R,1,209,8,905,1249,317:0,R,1,210,8,905,1249,317:0,R,1,211,8,905,1249,90:2,B,3262:8712,e,U
p1375
sa(dp1376
Vname
p1377
Vzx
p1378
sVvalue
p1379
V1492349907650
p1380
sasVheaders
p1381
(lp1382
sVheadersSize
p1383
I1067
sVbodySize
p1384
I0
sVmethod
p1385
VGET
p1386
sVhttpVersion
p1387
VHTTP/1.1
p1388
ssVtimings
p1389
(dp1390
Vcomment
p1391
g4
sVreceive
p1392
I0
sVsend
p1393
I0
sVssl
p1394
I-1
sVconnect
p1395
I-1
sVdns
p1396
I-1
sVwait
p1397
I138
sVblocked
p1398
I-1
ssVtime
p1399
I139
sVresponse
p1400
(dp1401
Vstatus
p1402
I204
sVcomment
p1403
g4
sVcookies
p1404
(lp1405
sVstatusText
p1406
VNo Content
p1407
sVcontent
p1408
(dp1409
VmimeType
p1410
Vtext/html; charset=UTF-8
p1411
sVcomment
p1412
g4
sVsize
p1413
I0
ssVheaders
p1414
(lp1415
sVheadersSize
p1416
I248
sVredirectURL
p1417
g4
sVbodySize
p1418
I0
sVhttpVersion
p1419
VHTTP/1.1
p1420
ssa(dp1421
Vcomment
p1422
g4
sVserverIPAddress
p1423
V216.58.216.193
p1424
sVpageref
p1425
VDelirium Tremens Beer
p1426
sVstartedDateTime
p1427
V2017-04-16T08:38:27.745-05:00
p1428
sVcache
p1429
(dp1430
sVrequest
p1431
(dp1432
Vcomment
p1433
g4
sVcookies
p1434
(lp1435
sVurl
p1436
Vhttps://f-kinja--static-com.cdn.ampproject.org/r/s/f.kinja-static.com/assets/fonts/elizabeth-serif/elizabethserif-lightitalic-webfont.woff2?09162015
p1437
sVqueryString
p1438
(lp1439
(dp1440
Vname
p1441
V09162015
p1442
sVvalue
p1443
g4
sasVheaders
p1444
(lp1445
sVheadersSize
p1446
I713
sVbodySize
p1447
I0
sVmethod
p1448
VGET
p1449
sVhttpVersion
p1450
VHTTP/1.1
p1451
ssVtimings
p1452
(dp1453
Vcomment
p1454
g4
sVreceive
p1455
I29
sVsend
p1456
I0
sVssl
p1457
I651
sVconnect
p1458
I669
sVdns
p1459
I34
sVwait
p1460
I25
sVblocked
p1461
I0
ssVtime
p1462
I759
sVresponse
p1463
(dp1464
Vstatus
p1465
I200
sVcomment
p1466
g4
sVcookies
p1467
(lp1468
sVstatusText
p1469
VOK
p1470
sVcontent
p1471
(dp1472
VmimeType
p1473
Vbinary/octet-stream
p1474
sVcomment
p1475
g4
sVsize
p1476
I0
ssVheaders
p1477
(lp1478
sVheadersSize
p1479
I866
sVredirectURL
p1480
g4
sVbodySize
p1481
I34540
sVhttpVersion
p1482
VHTTP/1.1
p1483
ssa(dp1484
Vcomment
p1485
g4
sVserverIPAddress
p1486
V216.58.216.193
p1487
sVpageref
p1488
VDelirium Tremens Beer
p1489
sVstartedDateTime
p1490
V2017-04-16T08:38:27.747-05:00
p1491
sVcache
p1492
(dp1493
sVrequest
p1494
(dp1495
Vcomment
p1496
g4
sVcookies
p1497
(lp1498
sVurl
p1499
Vhttps://f-kinja--static-com.cdn.ampproject.org/r/s/f.kinja-static.com/assets/fonts/proxima/proxima_nova_cond_sbold-webfont.woff2?08252015
p1500
sVqueryString
p1501
(lp1502
(dp1503
Vname
p1504
V08252015
p1505
sVvalue
p1506
g4
sasVheaders
p1507
(lp1508
sVheadersSize
p1509
I702
sVbodySize
p1510
I0
sVmethod
p1511
VGET
p1512
sVhttpVersion
p1513
VHTTP/1.1
p1514
ssVtimings
p1515
(dp1516
Vcomment
p1517
g4
sVreceive
p1518
I23
sVsend
p1519
I0
sVssl
p1520
I660
sVconnect
p1521
I678
sVdns
p1522
I44
sVwait
p1523
I31
sVblocked
p1524
I0
ssVtime
p1525
I778
sVresponse
p1526
(dp1527
Vstatus
p1528
I200
sVcomment
p1529
g4
sVcookies
p1530
(lp1531
sVstatusText
p1532
VOK
p1533
sVcontent
p1534
(dp1535
VmimeType
p1536
Vbinary/octet-stream
p1537
sVcomment
p1538
g4
sVsize
p1539
I0
ssVheaders
p1540
(lp1541
sVheadersSize
p1542
I866
sVredirectURL
p1543
g4
sVbodySize
p1544
I28136
sVhttpVersion
p1545
VHTTP/1.1
p1546
ssa(dp1547
Vcomment
p1548
g4
sVserverIPAddress
p1549
V216.58.216.193
p1550
sVpageref
p1551
VDelirium Tremens Beer
p1552
sVstartedDateTime
p1553
V2017-04-16T08:38:27.747-05:00
p1554
sVcache
p1555
(dp1556
sVrequest
p1557
(dp1558
Vcomment
p1559
g4
sVcookies
p1560
(lp1561
sVurl
p1562
Vhttps://f-kinja--static-com.cdn.ampproject.org/r/s/f.kinja-static.com/assets/fonts/proxima/proxima_nova_cond_reg-webfont.woff2?08252015
p1563
sVqueryString
p1564
(lp1565
(dp1566
Vname
p1567
V08252015
p1568
sVvalue
p1569
g4
sasVheaders
p1570
(lp1571
sVheadersSize
p1572
I700
sVbodySize
p1573
I0
sVmethod
p1574
VGET
p1575
sVhttpVersion
p1576
VHTTP/1.1
p1577
ssVtimings
p1578
(dp1579
Vcomment
p1580
g4
sVreceive
p1581
I24
sVsend
p1582
I0
sVssl
p1583
I663
sVconnect
p1584
I677
sVdns
p1585
I39
sVwait
p1586
I29
sVblocked
p1587
I0
ssVtime
p1588
I771
sVresponse
p1589
(dp1590
Vstatus
p1591
I200
sVcomment
p1592
g4
sVcookies
p1593
(lp1594
sVstatusText
p1595
VOK
p1596
sVcontent
p1597
(dp1598
VmimeType
p1599
Vbinary/octet-stream
p1600
sVcomment
p1601
g4
sVsize
p1602
I0
ssVheaders
p1603
(lp1604
sVheadersSize
p1605
I866
sVredirectURL
p1606
g4
sVbodySize
p1607
I28044
sVhttpVersion
p1608
VHTTP/1.1
p1609
ssa(dp1610
Vcomment
p1611
g4
sVserverIPAddress
p1612
V216.58.216.193
p1613
sVpageref
p1614
VDelirium Tremens Beer
p1615
sVstartedDateTime
p1616
V2017-04-16T08:38:27.749-05:00
p1617
sVcache
p1618
(dp1619
sVrequest
p1620
(dp1621
Vcomment
p1622
g4
sVcookies
p1623
(lp1624
sVurl
p1625
Vhttps://f-kinja--static-com.cdn.ampproject.org/r/s/f.kinja-static.com/assets/fonts/elizabeth-serif/elizabethserif-light-webfont.woff2?09162015
p1626
sVqueryString
p1627
(lp1628
(dp1629
Vname
p1630
V09162015
p1631
sVvalue
p1632
g4
sasVheaders
p1633
(lp1634
sVheadersSize
p1635
I707
sVbodySize
p1636
I0
sVmethod
p1637
VGET
p1638
sVhttpVersion
p1639
VHTTP/1.1
p1640
ssVtimings
p1641
(dp1642
Vcomment
p1643
g4
sVreceive
p1644
I27
sVsend
p1645
I0
sVssl
p1646
I665
sVconnect
p1647
I681
sVdns
p1648
I34
sVwait
p1649
I28
sVblocked
p1650
I0
ssVtime
p1651
I771
sVresponse
p1652
(dp1653
Vstatus
p1654
I200
sVcomment
p1655
g4
sVcookies
p1656
(lp1657
sVstatusText
p1658
VOK
p1659
sVcontent
p1660
(dp1661
VmimeType
p1662
Vbinary/octet-stream
p1663
sVcomment
p1664
g4
sVsize
p1665
I0
ssVheaders
p1666
(lp1667
sVheadersSize
p1668
I866
sVredirectURL
p1669
g4
sVbodySize
p1670
I31076
sVhttpVersion
p1671
VHTTP/1.1
p1672
ssa(dp1673
Vcomment
p1674
g4
sVserverIPAddress
p1675
V216.58.216.196
p1676
sVpageref
p1677
VDelirium Tremens Beer
p1678
sVstartedDateTime
p1679
V2017-04-16T08:38:27.840-05:00
p1680
sVcache
p1681
(dp1682
sVrequest
p1683
(dp1684
Vcomment
p1685
g4
sVcookies
p1686
(lp1687
sVurl
p1688
Vhttps://www.google.com/gen_204?s=web&atyp=csi&ei=znPzWLaoNYmGjwTxtqrYCA&imc=14&imn=14&imp=8&adh=tv.278&xjs=init.41.15.sb_mob.30.pla.4.dvl.3.mbsf.1.jsa.1&ima=2&rt=prt.873,iml.953,xjsls.873,dcl.937,qiml.1145,xjses.1004,xjsee.1129,xjs.1129,ol.3598,aft.944,wsrt.399,cst.0,dnst.0,rqst.1145,rspt.1148,rqstt.52,unt.2,cstt.2,dit.1282
p1689
sVqueryString
p1690
(lp1691
(dp1692
Vname
p1693
g57
sVvalue
p1694
Vweb
p1695
sa(dp1696
Vname
p1697
Vatyp
p1698
sVvalue
p1699
Vcsi
p1700
sa(dp1701
Vname
p1702
Vei
p1703
sVvalue
p1704
VznPzWLaoNYmGjwTxtqrYCA
p1705
sa(dp1706
Vname
p1707
Vimc
p1708
sVvalue
p1709
V14
p1710
sa(dp1711
Vname
p1712
Vimn
p1713
sVvalue
p1714
V14
p1715
sa(dp1716
Vname
p1717
Vimp
p1718
sVvalue
p1719
V8
p1720
sa(dp1721
Vname
p1722
Vadh
p1723
sVvalue
p1724
Vtv.278
p1725
sa(dp1726
Vname
p1727
Vxjs
p1728
sVvalue
p1729
Vinit.41.15.sb_mob.30.pla.4.dvl.3.mbsf.1.jsa.1
p1730
sa(dp1731
Vname
p1732
Vima
p1733
sVvalue
p1734
g64
sa(dp1735
Vname
p1736
Vrt
p1737
sVvalue
p1738
Vprt.873,iml.953,xjsls.873,dcl.937,qiml.1145,xjses.1004,xjsee.1129,xjs.1129,ol.3598,aft.944,wsrt.399,cst.0,dnst.0,rqst.1145,rspt.1148,rqstt.52,unt.2,cstt.2,dit.1282
p1739
sasVheaders
p1740
(lp1741
sVheadersSize
p1742
I842
sVbodySize
p1743
I0
sVmethod
p1744
VGET
p1745
sVhttpVersion
p1746
VHTTP/1.1
p1747
ssVtimings
p1748
(dp1749
Vcomment
p1750
g4
sVreceive
p1751
I0
sVsend
p1752
I0
sVssl
p1753
I-1
sVconnect
p1754
I-1
sVdns
p1755
I-1
sVwait
p1756
I32
sVblocked
p1757
I-1
ssVtime
p1758
I32
sVresponse
p1759
(dp1760
Vstatus
p1761
I204
sVcomment
p1762
g4
sVcookies
p1763
(lp1764
sVstatusText
p1765
VNo Content
p1766
sVcontent
p1767
(dp1768
VmimeType
p1769
Vtext/html; charset=UTF-8
p1770
sVcomment
p1771
g4
sVsize
p1772
I0
ssVheaders
p1773
(lp1774
sVheadersSize
p1775
I248
sVredirectURL
p1776
g4
sVbodySize
p1777
I0
sVhttpVersion
p1778
VHTTP/1.1
p1779
ssasVversion
p1780
V1.2
p1781
sVpages
p1782
(lp1783
(dp1784
VpageTimings
p1785
(dp1786
Vcomment
p1787
g4
ssVcomment
p1788
g4
sVtitle
p1789
VDelirium Tremens Beer
p1790
sVid
p1791
VDelirium Tremens Beer
p1792
sVstartedDateTime
p1793
V2017-04-16T08:38:23.063-05:00
p1794
sasVcreator
p1795
(dp1796
Vcomment
p1797
g4
sVversion
p1798
V2.1.4
p1799
sVname
p1800
VBrowserMob Proxy
p1801
sss.