(dp0
Vlog
p1
(dp2
Vcomment
p3
V
p4
sVentries
p5
(lp6
(dp7
Vcomment
p8
g4
sVserverIPAddress
p9
V172.217.6.4
p10
sVpageref
p11
VConor McGregor
p12
sVstartedDateTime
p13
V2017-04-16T08:17:04.726-05:00
p14
sVcache
p15
(dp16
sVrequest
p17
(dp18
Vcomment
p19
g4
sVcookies
p20
(lp21
sVurl
p22
Vhttps://www.google.com/gen_204?atyp=i&ct=slh&cad=&ei=v27zWIj8LougjwSXy5GwAw&m=V&t=C&s=1&v=2&pv=0.3235701157621439&me=1:1492348611852,x:3,V,0,0,1280,944:0,N,1,v27zWIj8LougjwSXy5GwAw:0,R,1,24,8,155,1249,732:0,R,1,25,8,155,1249,732:0,R,1,28,8,168,1249,40:0,R,1,41,8,220,1249,178:0,R,1,44,0,236,1265,197:0,R,1,84,8,415,1249,40:0,R,1,85,24,415,1217,40:0,R,1,91,8,471,1249,20:0,R,1,96,8,499,1249,20:0,R,1,121,8,539,1249,295:0,R,1,122,0,584,1265,270:0,R,1,160,24,897,1217,114:5,B,3623:12864,e,U&zx=1492348624724
p23
sVqueryString
p24
(lp25
(dp26
Vname
p27
Vatyp
p28
sVvalue
p29
Vi
p30
sa(dp31
Vname
p32
Vct
p33
sVvalue
p34
Vslh
p35
sa(dp36
Vname
p37
Vcad
p38
sVvalue
p39
g4
sa(dp40
Vname
p41
Vei
p42
sVvalue
p43
Vv27zWIj8LougjwSXy5GwAw
p44
sa(dp45
Vname
p46
Vm
p47
sVvalue
p48
VV
p49
sa(dp50
Vname
p51
Vt
p52
sVvalue
p53
VC
p54
sa(dp55
Vname
p56
Vs
p57
sVvalue
p58
V1
p59
sa(dp60
Vname
p61
Vv
p62
sVvalue
p63
V2
p64
sa(dp65
Vname
p66
Vpv
p67
sVvalue
p68
V0.3235701157621439
p69
sa(dp70
Vname
p71
Vme
p72
sVvalue
p73
V1:1492348611852,x:3,V,0,0,1280,944:0,N,1,v27zWIj8LougjwSXy5GwAw:0,R,1,24,8,155,1249,732:0,R,1,25,8,155,1249,732:0,R,1,28,8,168,1249,40:0,R,1,41,8,220,1249,178:0,R,1,44,0,236,1265,197:0,R,1,84,8,415,1249,40:0,R,1,85,24,415,1217,40:0,R,1,91,8,471,1249,20:0,R,1,96,8,499,1249,20:0,R,1,121,8,539,1249,295:0,R,1,122,0,584,1265,270:0,R,1,160,24,897,1217,114:5,B,3623:12864,e,U
p74
sa(dp75
Vname
p76
Vzx
p77
sVvalue
p78
V1492348624724
p79
sasVheaders
p80
(lp81
sVheadersSize
p82
I1021
sVbodySize
p83
I0
sVmethod
p84
VGET
p85
sVhttpVersion
p86
VHTTP/1.1
p87
ssVtimings
p88
(dp89
Vcomment
p90
g4
sVreceive
p91
I0
sVsend
p92
I0
sVssl
p93
I-1
sVconnect
p94
I-1
sVdns
p95
I-1
sVwait
p96
I0
sVblocked
p97
I-1
ssVtime
p98
I0
sVresponse
p99
(dp100
Vstatus
p101
I0
sVcomment
p102
g4
sVcookies
p103
(lp104
sV_error
p105
VNo response received
p106
sVstatusText
p107
g4
sVcontent
p108
(dp109
VmimeType
p110
g4
sVcomment
p111
g4
sVsize
p112
I0
ssVheaders
p113
(lp114
sVheadersSize
p115
I-1
sVredirectURL
p116
g4
sVbodySize
p117
I-1
sVhttpVersion
p118
Vunknown
p119
ssa(dp120
Vcomment
p121
g4
sVserverIPAddress
p122
V172.217.6.4
p123
sVpageref
p124
VConor McGregor
p125
sVstartedDateTime
p126
V2017-04-16T08:17:04.730-05:00
p127
sVcache
p128
(dp129
sVrequest
p130
(dp131
Vcomment
p132
g4
sVcookies
p133
(lp134
sVurl
p135
Vhttp://www.google.com/
p136
sVqueryString
p137
(lp138
sVheaders
p139
(lp140
sVheadersSize
p141
I613
sVbodySize
p142
I0
sVmethod
p143
VGET
p144
sVhttpVersion
p145
VHTTP/1.1
p146
ssVtimings
p147
(dp148
Vcomment
p149
g4
sVreceive
p150
I0
sVsend
p151
I0
sVssl
p152
I-1
sVconnect
p153
I-1
sVdns
p154
I-1
sVwait
p155
I45
sVblocked
p156
I-1
ssVtime
p157
I45
sVresponse
p158
(dp159
Vstatus
p160
I302
sVcomment
p161
g4
sVcookies
p162
(lp163
sVstatusText
p164
VFound
p165
sVcontent
p166
(dp167
VmimeType
p168
Vtext/html; charset=UTF-8
p169
sVcomment
p170
g4
sVsize
p171
I0
ssVheaders
p172
(lp173
sVheadersSize
p174
I609
sVredirectURL
p175
Vhttps://www.google.com/?gws_rd=ssl
p176
sVbodySize
p177
I231
sVhttpVersion
p178
VHTTP/1.1
p179
ssa(dp180
Vcomment
p181
g4
sVserverIPAddress
p182
V172.217.6.4
p183
sVpageref
p184
VConor McGregor
p185
sVstartedDateTime
p186
V2017-04-16T08:17:04.781-05:00
p187
sVcache
p188
(dp189
sVrequest
p190
(dp191
Vcomment
p192
g4
sVcookies
p193
(lp194
sVurl
p195
Vhttps://www.google.com/?gws_rd=ssl
p196
sVqueryString
p197
(lp198
(dp199
Vname
p200
Vgws_rd
p201
sVvalue
p202
Vssl
p203
sasVheaders
p204
(lp205
sVheadersSize
p206
I607
sVbodySize
p207
I0
sVmethod
p208
VGET
p209
sVhttpVersion
p210
VHTTP/1.1
p211
ssVtimings
p212
(dp213
Vcomment
p214
g4
sVreceive
p215
I25
sVsend
p216
I0
sVssl
p217
I-1
sVconnect
p218
I-1
sVdns
p219
I-1
sVwait
p220
I65
sVblocked
p221
I-1
ssVtime
p222
I91
sVresponse
p223
(dp224
Vstatus
p225
I200
sVcomment
p226
g4
sVcookies
p227
(lp228
sVstatusText
p229
VOK
p230
sVcontent
p231
(dp232
VmimeType
p233
Vtext/html; charset=UTF-8
p234
sVcomment
p235
g4
sVsize
p236
I0
ssVheaders
p237
(lp238
sVheadersSize
p239
I721
sVredirectURL
p240
g4
sVbodySize
p241
I34291
sVhttpVersion
p242
VHTTP/1.1
p243
ssa(dp244
Vcomment
p245
g4
sVserverIPAddress
p246
V172.217.6.4
p247
sVpageref
p248
VConor McGregor
p249
sVstartedDateTime
p250
V2017-04-16T08:17:05.262-05:00
p251
sVcache
p252
(dp253
sVrequest
p254
(dp255
Vcomment
p256
g4
sVcookies
p257
(lp258
sVurl
p259
Vhttps://www.google.com/gen_204?s=mobilewebhp&atyp=csi&ei=z27zWNDiL6TjjwSL_Jm4Bg&imc=1&imn=1&imp=0&adh=&xjs=init.54.12.sb_mob.36.dvl.10.mbsf.2.async.2.foot.2&ima=1&rt=xjsls.13,prt.15,iml.15,dcl.57,xjses.109,xjsee.232,xjs.233,ol.386,aft.15,wsrt.143,cst.0,dnst.0,rqst.102,rspt.35,rqstt.56,unt.53,cstt.53,dit.192
p260
sVqueryString
p261
(lp262
(dp263
Vname
p264
g57
sVvalue
p265
Vmobilewebhp
p266
sa(dp267
Vname
p268
Vatyp
p269
sVvalue
p270
Vcsi
p271
sa(dp272
Vname
p273
Vei
p274
sVvalue
p275
Vz27zWNDiL6TjjwSL_Jm4Bg
p276
sa(dp277
Vname
p278
Vimc
p279
sVvalue
p280
g59
sa(dp281
Vname
p282
Vimn
p283
sVvalue
p284
g59
sa(dp285
Vname
p286
Vimp
p287
sVvalue
p288
V0
p289
sa(dp290
Vname
p291
Vadh
p292
sVvalue
p293
g4
sa(dp294
Vname
p295
Vxjs
p296
sVvalue
p297
Vinit.54.12.sb_mob.36.dvl.10.mbsf.2.async.2.foot.2
p298
sa(dp299
Vname
p300
Vima
p301
sVvalue
p302
g59
sa(dp303
Vname
p304
Vrt
p305
sVvalue
p306
Vxjsls.13,prt.15,iml.15,dcl.57,xjses.109,xjsee.232,xjs.233,ol.386,aft.15,wsrt.143,cst.0,dnst.0,rqst.102,rspt.35,rqstt.56,unt.53,cstt.53,dit.192
p307
sasVheaders
p308
(lp309
sVheadersSize
p310
I836
sVbodySize
p311
I0
sVmethod
p312
VGET
p313
sVhttpVersion
p314
VHTTP/1.1
p315
ssVtimings
p316
(dp317
Vcomment
p318
g4
sVreceive
p319
I0
sVsend
p320
I0
sVssl
p321
I-1
sVconnect
p322
I-1
sVdns
p323
I-1
sVwait
p324
I30
sVblocked
p325
I-1
ssVtime
p326
I30
sVresponse
p327
(dp328
Vstatus
p329
I204
sVcomment
p330
g4
sVcookies
p331
(lp332
sVstatusText
p333
VNo Content
p334
sVcontent
p335
(dp336
VmimeType
p337
Vtext/html; charset=UTF-8
p338
sVcomment
p339
g4
sVsize
p340
I0
ssVheaders
p341
(lp342
sVheadersSize
p343
I248
sVredirectURL
p344
g4
sVbodySize
p345
I0
sVhttpVersion
p346
VHTTP/1.1
p347
ssa(dp348
Vcomment
p349
g4
sVserverIPAddress
p350
V172.217.6.4
p351
sVpageref
p352
VConor McGregor
p353
sVstartedDateTime
p354
V2017-04-16T08:17:05.422-05:00
p355
sVcache
p356
(dp357
sVrequest
p358
(dp359
Vcomment
p360
g4
sVcookies
p361
(lp362
sVurl
p363
Vhttps://www.google.com/complete/search?client=mobile-gws-hp&hl=en&gs_rn=64&gs_ri=mobile-gws-hp&sla=1&pfq=colin%20kaepernick&gm=602&cp=0&gs_id=1&xhr=t&q=C&tch=1&ech=1&psi=z27zWNDiL6TjjwSL_Jm4Bg.1492348625054.1
p364
sVqueryString
p365
(lp366
(dp367
Vname
p368
Vclient
p369
sVvalue
p370
Vmobile-gws-hp
p371
sa(dp372
Vname
p373
Vhl
p374
sVvalue
p375
Ven
p376
sa(dp377
Vname
p378
Vgs_rn
p379
sVvalue
p380
V64
p381
sa(dp382
Vname
p383
Vgs_ri
p384
sVvalue
p385
Vmobile-gws-hp
p386
sa(dp387
Vname
p388
Vsla
p389
sVvalue
p390
g59
sa(dp391
Vname
p392
Vpfq
p393
sVvalue
p394
Vcolin kaepernick
p395
sa(dp396
Vname
p397
Vgm
p398
sVvalue
p399
V602
p400
sa(dp401
Vname
p402
Vcp
p403
sVvalue
p404
g289
sa(dp405
Vname
p406
Vgs_id
p407
sVvalue
p408
g59
sa(dp409
Vname
p410
Vxhr
p411
sVvalue
p412
g52
sa(dp413
Vname
p414
Vq
p415
sVvalue
p416
g54
sa(dp417
Vname
p418
Vtch
p419
sVvalue
p420
g59
sa(dp421
Vname
p422
Vech
p423
sVvalue
p424
g59
sa(dp425
Vname
p426
Vpsi
p427
sVvalue
p428
Vz27zWNDiL6TjjwSL_Jm4Bg.1492348625054.1
p429
sasVheaders
p430
(lp431
sVheadersSize
p432
I736
sVbodySize
p433
I0
sVmethod
p434
VGET
p435
sVhttpVersion
p436
VHTTP/1.1
p437
ssVtimings
p438
(dp439
Vcomment
p440
g4
sVreceive
p441
I0
sVsend
p442
I0
sVssl
p443
I-1
sVconnect
p444
I-1
sVdns
p445
I-1
sVwait
p446
I0
sVblocked
p447
I-1
ssVtime
p448
I0
sVresponse
p449
(dp450
Vstatus
p451
I0
sVcomment
p452
g4
sVcookies
p453
(lp454
sV_error
p455
VNo response received
p456
sVstatusText
p457
g4
sVcontent
p458
(dp459
VmimeType
p460
g4
sVcomment
p461
g4
sVsize
p462
I0
ssVheaders
p463
(lp464
sVheadersSize
p465
I-1
sVredirectURL
p466
g4
sVbodySize
p467
I-1
sVhttpVersion
p468
Vunknown
p469
ssa(dp470
Vcomment
p471
g4
sVserverIPAddress
p472
V172.217.6.4
p473
sVpageref
p474
VConor McGregor
p475
sVstartedDateTime
p476
V2017-04-16T08:17:05.507-05:00
p477
sVcache
p478
(dp479
sVrequest
p480
(dp481
Vcomment
p482
g4
sVcookies
p483
(lp484
sVurl
p485
Vhttps://www.google.com/search?site=&source=hp&ei=z27zWNDiL6TjjwSL_Jm4Bg&q=Conor+McGregor&oq=Conor+McGregor&gs_l=mobile-gws-hp.3...329.370.0.412.14.1.0.0.0.0.0.0..0.0....0...1c.1.64.mobile-gws-hp..14.0.0.m1ZXZ5tWhcY
p486
sVqueryString
p487
(lp488
(dp489
Vname
p490
Vsite
p491
sVvalue
p492
g4
sa(dp493
Vname
p494
Vsource
p495
sVvalue
p496
Vhp
p497
sa(dp498
Vname
p499
Vei
p500
sVvalue
p501
Vz27zWNDiL6TjjwSL_Jm4Bg
p502
sa(dp503
Vname
p504
g415
sVvalue
p505
VConor McGregor
p506
sa(dp507
Vname
p508
Voq
p509
sVvalue
p510
VConor McGregor
p511
sa(dp512
Vname
p513
Vgs_l
p514
sVvalue
p515
Vmobile-gws-hp.3...329.370.0.412.14.1.0.0.0.0.0.0..0.0....0...1c.1.64.mobile-gws-hp..14.0.0.m1ZXZ5tWhcY
p516
sasVheaders
p517
(lp518
sVheadersSize
p519
I832
sVbodySize
p520
I0
sVmethod
p521
VGET
p522
sVhttpVersion
p523
VHTTP/1.1
p524
ssVtimings
p525
(dp526
Vcomment
p527
g4
sVreceive
p528
I760
sVsend
p529
I0
sVssl
p530
I-1
sVconnect
p531
I-1
sVdns
p532
I-1
sVwait
p533
I87
sVblocked
p534
I-1
ssVtime
p535
I848
sVresponse
p536
(dp537
Vstatus
p538
I200
sVcomment
p539
g4
sVcookies
p540
(lp541
sVstatusText
p542
VOK
p543
sVcontent
p544
(dp545
VmimeType
p546
Vtext/html; charset=UTF-8
p547
sVcomment
p548
g4
sVsize
p549
I0
ssVheaders
p550
(lp551
sVheadersSize
p552
I363
sVredirectURL
p553
g4
sVbodySize
p554
I191302
sVhttpVersion
p555
VHTTP/1.1
p556
ssa(dp557
Vcomment
p558
g4
sVserverIPAddress
p559
V172.217.6.4
p560
sVpageref
p561
VConor McGregor
p562
sVstartedDateTime
p563
V2017-04-16T08:17:07.160-05:00
p564
sVcache
p565
(dp566
sVrequest
p567
(dp568
Vcomment
p569
g4
sVcookies
p570
(lp571
sVurl
p572
Vhttps://www.google.com/xjs/_/js/k=xjs.qs.en_US.pCBXVCvTH3s.O/m=syl,syj,syn,em3,em8,em6,em7,sym,aa,abd,sy2g,sy2k,sy29,sy2j,sy2d,sy2a,sy2c,sy2f,sy2l,sy2m,sy2n,emd,async,sybn,sybi,sybo,sy1f,sy45,sy46,sy9w,sybk,sybj,sybp,sy1g,sy30,sy47,sybm,sybl,sybq,sy1h,sybh,dvl,syep,foot,ipv6,sy32,emj,shm,sy5g,sy5i,sy5k,sykh,tl,sy2x,sy2y,sy2t,sy38,em12,vs,sy5j,sy5h,sy6u,sy66,sy67,sy7d,sy7j,sy4u,sy69,sy89,sy7e,sykk,sykl,tnv,bct,sy23,sy9m,syac,sy24,sy4g,sy9b,sy9n,syhz,syl6,ssc,sy1y,sya3,sy22,sy6i,sy25,sya2,sy6j,sy72,emb,sy26,em9,ema,sy31,sya4,sykr,strm,syh6,syl5,kac,kae,strx,sy6y,sycu,d3l,sy2u,sy34,sy6l,sy6k,sy6h,sy6m,qkx,sy4d,sy4f,sy4c,sy4e,sy4b,sy6w,shrb,syd7,dgm,syf5,syf6,syf8,sygb,syg9,kptm,sy99,syf4,syfc,syfn,syf7,syff,sy1i,sy68,sy8d,syfl,syfr,syfq,syfg,sy1j,sy4q,sy5o,sy5r,sy6n,sy6p,sy8h,syc7,syc8,syfb,syfj,syfs,syft,syg3,syg5,syg7,emn,emo,syg4,syg6,ivg,iuci,img,sy41,tcc,sygq,kpc,kpci,sy4h,vrml,syj7,syj8,syj2,syjc,syj6,syj3,syjg,syjh,syje,syjd,syjk,syji,syjf,syj0,emr,ems,emt,emu,emv,emx,emy,emz,em10,em11,udlg,sy5z,atn,sy4i,sya1,ampfp/am=gCP4LtMEBXQA2RUaq_oFBISzAFA/rt=j/d=0/t=zcms/rs=ACT90oFwm4NZCwIcuuiqmthdlECdBzkhRA
p573
sVqueryString
p574
(lp575
sVheaders
p576
(lp577
sVheadersSize
p578
I1636
sVbodySize
p579
I0
sVmethod
p580
VGET
p581
sVhttpVersion
p582
VHTTP/1.1
p583
ssVtimings
p584
(dp585
Vcomment
p586
g4
sVreceive
p587
I8
sVsend
p588
I0
sVssl
p589
I-1
sVconnect
p590
I-1
sVdns
p591
I-1
sVwait
p592
I33
sVblocked
p593
I-1
ssVtime
p594
I42
sVresponse
p595
(dp596
Vstatus
p597
I200
sVcomment
p598
g4
sVcookies
p599
(lp600
sVstatusText
p601
VOK
p602
sVcontent
p603
(dp604
VmimeType
p605
Vtext/javascript; charset=UTF-8
p606
sVcomment
p607
g4
sVsize
p608
I0
ssVheaders
p609
(lp610
sVheadersSize
p611
I464
sVredirectURL
p612
g4
sVbodySize
p613
I116330
sVhttpVersion
p614
VHTTP/1.1
p615
ssa(dp616
Vcomment
p617
g4
sVserverIPAddress
p618
V172.217.6.4
p619
sVpageref
p620
VConor McGregor
p621
sVstartedDateTime
p622
V2017-04-16T08:17:07.516-05:00
p623
sVcache
p624
(dp625
sVrequest
p626
(dp627
Vcomment
p628
g4
sVcookies
p629
(lp630
sVurl
p631
Vhttps://www.google.com/async/irc?vet=10ahUKEwi42JTth6nTAhUH1oMKHUqrDnkQo0EIoQI..i&ved=0ahUKEwi42JTth6nTAhUH1oMKHUqrDnkQo0EIoQI&ei=0G7zWLiwH4esjwTK1rrIBw&yv=2&async=iu:1,ved:0ahUKEwi42JTth6nTAhUH1oMKHUqrDnkQo0EIoQI,_id:irc_async,_pms:qs
p632
sVqueryString
p633
(lp634
(dp635
Vname
p636
Vvet
p637
sVvalue
p638
V10ahUKEwi42JTth6nTAhUH1oMKHUqrDnkQo0EIoQI..i
p639
sa(dp640
Vname
p641
Vved
p642
sVvalue
p643
V0ahUKEwi42JTth6nTAhUH1oMKHUqrDnkQo0EIoQI
p644
sa(dp645
Vname
p646
Vei
p647
sVvalue
p648
V0G7zWLiwH4esjwTK1rrIBw
p649
sa(dp650
Vname
p651
Vyv
p652
sVvalue
p653
g64
sa(dp654
Vname
p655
Vasync
p656
sVvalue
p657
Viu:1,ved:0ahUKEwi42JTth6nTAhUH1oMKHUqrDnkQo0EIoQI,_id:irc_async,_pms:qs
p658
sasVheaders
p659
(lp660
sVheadersSize
p661
I752
sVbodySize
p662
I0
sVmethod
p663
VGET
p664
sVhttpVersion
p665
VHTTP/1.1
p666
ssVtimings
p667
(dp668
Vcomment
p669
g4
sVreceive
p670
I1
sVsend
p671
I0
sVssl
p672
I-1
sVconnect
p673
I-1
sVdns
p674
I-1
sVwait
p675
I38
sVblocked
p676
I-1
ssVtime
p677
I39
sVresponse
p678
(dp679
Vstatus
p680
I200
sVcomment
p681
g4
sVcookies
p682
(lp683
sVstatusText
p684
VOK
p685
sVcontent
p686
(dp687
VmimeType
p688
Vtext/html; charset=UTF-8
p689
sVcomment
p690
g4
sVsize
p691
I0
ssVheaders
p692
(lp693
sVheadersSize
p694
I383
sVredirectURL
p695
g4
sVbodySize
p696
I7794
sVhttpVersion
p697
VHTTP/1.1
p698
ssa(dp699
Vcomment
p700
g4
sVserverIPAddress
p701
V172.217.6.4
p702
sVpageref
p703
VConor McGregor
p704
sVstartedDateTime
p705
V2017-04-16T08:17:07.532-05:00
p706
sVcache
p707
(dp708
sVrequest
p709
(dp710
Vcomment
p711
g4
sVcookies
p712
(lp713
sVurl
p714
Vhttps://www.google.com/gen_204?atyp=i&ct=&cad=&vet=10ahUKEwi42JTth6nTAhUH1oMKHUqrDnkQ5W0IkQEoAg..s&ei=0G7zWLiwH4esjwTK1rrIBw&zx=1492348627529
p715
sVqueryString
p716
(lp717
(dp718
Vname
p719
Vatyp
p720
sVvalue
p721
g30
sa(dp722
Vname
p723
Vct
p724
sVvalue
p725
g4
sa(dp726
Vname
p727
Vcad
p728
sVvalue
p729
g4
sa(dp730
Vname
p731
Vvet
p732
sVvalue
p733
V10ahUKEwi42JTth6nTAhUH1oMKHUqrDnkQ5W0IkQEoAg..s
p734
sa(dp735
Vname
p736
Vei
p737
sVvalue
p738
V0G7zWLiwH4esjwTK1rrIBw
p739
sa(dp740
Vname
p741
Vzx
p742
sVvalue
p743
V1492348627529
p744
sasVheaders
p745
(lp746
sVheadersSize
p747
I658
sVbodySize
p748
I0
sVmethod
p749
VGET
p750
sVhttpVersion
p751
VHTTP/1.1
p752
ssVtimings
p753
(dp754
Vcomment
p755
g4
sVreceive
p756
I0
sVsend
p757
I0
sVssl
p758
I-1
sVconnect
p759
I-1
sVdns
p760
I-1
sVwait
p761
I28
sVblocked
p762
I-1
ssVtime
p763
I28
sVresponse
p764
(dp765
Vstatus
p766
I204
sVcomment
p767
g4
sVcookies
p768
(lp769
sVstatusText
p770
VNo Content
p771
sVcontent
p772
(dp773
VmimeType
p774
Vtext/html; charset=UTF-8
p775
sVcomment
p776
g4
sVsize
p777
I0
ssVheaders
p778
(lp779
sVheadersSize
p780
I248
sVredirectURL
p781
g4
sVbodySize
p782
I0
sVhttpVersion
p783
VHTTP/1.1
p784
ssa(dp785
Vcomment
p786
g4
sVserverIPAddress
p787
V172.217.6.4
p788
sVpageref
p789
VConor McGregor
p790
sVstartedDateTime
p791
V2017-04-16T08:17:07.536-05:00
p792
sVcache
p793
(dp794
sVrequest
p795
(dp796
Vcomment
p797
g4
sVcookies
p798
(lp799
sVurl
p800
Vhttps://www.google.com/gen_204?atyp=i&ct=&cad=&vet=10ahUKEwi42JTth6nTAhUH1oMKHUqrDnkQ5W0IlAEoAw..s&ei=0G7zWLiwH4esjwTK1rrIBw&zx=1492348627534
p801
sVqueryString
p802
(lp803
(dp804
Vname
p805
Vatyp
p806
sVvalue
p807
g30
sa(dp808
Vname
p809
Vct
p810
sVvalue
p811
g4
sa(dp812
Vname
p813
Vcad
p814
sVvalue
p815
g4
sa(dp816
Vname
p817
Vvet
p818
sVvalue
p819
V10ahUKEwi42JTth6nTAhUH1oMKHUqrDnkQ5W0IlAEoAw..s
p820
sa(dp821
Vname
p822
Vei
p823
sVvalue
p824
V0G7zWLiwH4esjwTK1rrIBw
p825
sa(dp826
Vname
p827
Vzx
p828
sVvalue
p829
V1492348627534
p830
sasVheaders
p831
(lp832
sVheadersSize
p833
I658
sVbodySize
p834
I0
sVmethod
p835
VGET
p836
sVhttpVersion
p837
VHTTP/1.1
p838
ssVtimings
p839
(dp840
Vcomment
p841
g4
sVreceive
p842
I0
sVsend
p843
I0
sVssl
p844
I-1
sVconnect
p845
I-1
sVdns
p846
I-1
sVwait
p847
I30
sVblocked
p848
I-1
ssVtime
p849
I31
sVresponse
p850
(dp851
Vstatus
p852
I204
sVcomment
p853
g4
sVcookies
p854
(lp855
sVstatusText
p856
VNo Content
p857
sVcontent
p858
(dp859
VmimeType
p860
Vtext/html; charset=UTF-8
p861
sVcomment
p862
g4
sVsize
p863
I0
ssVheaders
p864
(lp865
sVheadersSize
p866
I248
sVredirectURL
p867
g4
sVbodySize
p868
I0
sVhttpVersion
p869
VHTTP/1.1
p870
ssa(dp871
Vcomment
p872
g4
sVserverIPAddress
p873
V172.217.6.4
p874
sVpageref
p875
VConor McGregor
p876
sVstartedDateTime
p877
V2017-04-16T08:17:07.539-05:00
p878
sVcache
p879
(dp880
sVrequest
p881
(dp882
Vcomment
p883
g4
sVcookies
p884
(lp885
sVurl
p886
Vhttps://www.google.com/gen_204?atyp=i&ct=&cad=&vet=10ahUKEwi42JTth6nTAhUH1oMKHUqrDnkQ5W0IlwEoBA..s&ei=0G7zWLiwH4esjwTK1rrIBw&zx=1492348627538
p887
sVqueryString
p888
(lp889
(dp890
Vname
p891
Vatyp
p892
sVvalue
p893
g30
sa(dp894
Vname
p895
Vct
p896
sVvalue
p897
g4
sa(dp898
Vname
p899
Vcad
p900
sVvalue
p901
g4
sa(dp902
Vname
p903
Vvet
p904
sVvalue
p905
V10ahUKEwi42JTth6nTAhUH1oMKHUqrDnkQ5W0IlwEoBA..s
p906
sa(dp907
Vname
p908
Vei
p909
sVvalue
p910
V0G7zWLiwH4esjwTK1rrIBw
p911
sa(dp912
Vname
p913
Vzx
p914
sVvalue
p915
V1492348627538
p916
sasVheaders
p917
(lp918
sVheadersSize
p919
I658
sVbodySize
p920
I0
sVmethod
p921
VGET
p922
sVhttpVersion
p923
VHTTP/1.1
p924
ssVtimings
p925
(dp926
Vcomment
p927
g4
sVreceive
p928
I0
sVsend
p929
I0
sVssl
p930
I-1
sVconnect
p931
I-1
sVdns
p932
I-1
sVwait
p933
I29
sVblocked
p934
I-1
ssVtime
p935
I29
sVresponse
p936
(dp937
Vstatus
p938
I204
sVcomment
p939
g4
sVcookies
p940
(lp941
sVstatusText
p942
VNo Content
p943
sVcontent
p944
(dp945
VmimeType
p946
Vtext/html; charset=UTF-8
p947
sVcomment
p948
g4
sVsize
p949
I0
ssVheaders
p950
(lp951
sVheadersSize
p952
I248
sVredirectURL
p953
g4
sVbodySize
p954
I0
sVhttpVersion
p955
VHTTP/1.1
p956
ssa(dp957
Vcomment
p958
g4
sVserverIPAddress
p959
V172.217.6.4
p960
sVpageref
p961
VConor McGregor
p962
sVstartedDateTime
p963
V2017-04-16T08:17:07.564-05:00
p964
sVcache
p965
(dp966
sVrequest
p967
(dp968
Vcomment
p969
g4
sVcookies
p970
(lp971
sVurl
p972
Vhttps://www.google.com/gen_204?atyp=i&ct=&cad=&vet=10ahUKEwi42JTth6nTAhUH1oMKHUqrDnkQ5W0ImgEoBQ..s&ei=0G7zWLiwH4esjwTK1rrIBw&zx=1492348627555
p973
sVqueryString
p974
(lp975
(dp976
Vname
p977
Vatyp
p978
sVvalue
p979
g30
sa(dp980
Vname
p981
Vct
p982
sVvalue
p983
g4
sa(dp984
Vname
p985
Vcad
p986
sVvalue
p987
g4
sa(dp988
Vname
p989
Vvet
p990
sVvalue
p991
V10ahUKEwi42JTth6nTAhUH1oMKHUqrDnkQ5W0ImgEoBQ..s
p992
sa(dp993
Vname
p994
Vei
p995
sVvalue
p996
V0G7zWLiwH4esjwTK1rrIBw
p997
sa(dp998
Vname
p999
Vzx
p1000
sVvalue
p1001
V1492348627555
p1002
sasVheaders
p1003
(lp1004
sVheadersSize
p1005
I658
sVbodySize
p1006
I0
sVmethod
p1007
VGET
p1008
sVhttpVersion
p1009
VHTTP/1.1
p1010
ssVtimings
p1011
(dp1012
Vcomment
p1013
g4
sVreceive
p1014
I0
sVsend
p1015
I0
sVssl
p1016
I-1
sVconnect
p1017
I-1
sVdns
p1018
I-1
sVwait
p1019
I40
sVblocked
p1020
I-1
ssVtime
p1021
I40
sVresponse
p1022
(dp1023
Vstatus
p1024
I204
sVcomment
p1025
g4
sVcookies
p1026
(lp1027
sVstatusText
p1028
VNo Content
p1029
sVcontent
p1030
(dp1031
VmimeType
p1032
Vtext/html; charset=UTF-8
p1033
sVcomment
p1034
g4
sVsize
p1035
I0
ssVheaders
p1036
(lp1037
sVheadersSize
p1038
I248
sVredirectURL
p1039
g4
sVbodySize
p1040
I0
sVhttpVersion
p1041
VHTTP/1.1
p1042
ssa(dp1043
Vcomment
p1044
g4
sVserverIPAddress
p1045
V172.217.6.4
p1046
sVpageref
p1047
VConor McGregor
p1048
sVstartedDateTime
p1049
V2017-04-16T08:17:07.564-05:00
p1050
sVcache
p1051
(dp1052
sVrequest
p1053
(dp1054
Vcomment
p1055
g4
sVcookies
p1056
(lp1057
sVurl
p1058
Vhttps://www.google.com/gen_204?atyp=i&ct=&cad=&vet=10ahUKEwi42JTth6nTAhUH1oMKHUqrDnkQ5W0InQEoBg..s&ei=0G7zWLiwH4esjwTK1rrIBw&zx=1492348627558
p1059
sVqueryString
p1060
(lp1061
(dp1062
Vname
p1063
Vatyp
p1064
sVvalue
p1065
g30
sa(dp1066
Vname
p1067
Vct
p1068
sVvalue
p1069
g4
sa(dp1070
Vname
p1071
Vcad
p1072
sVvalue
p1073
g4
sa(dp1074
Vname
p1075
Vvet
p1076
sVvalue
p1077
V10ahUKEwi42JTth6nTAhUH1oMKHUqrDnkQ5W0InQEoBg..s
p1078
sa(dp1079
Vname
p1080
Vei
p1081
sVvalue
p1082
V0G7zWLiwH4esjwTK1rrIBw
p1083
sa(dp1084
Vname
p1085
Vzx
p1086
sVvalue
p1087
V1492348627558
p1088
sasVheaders
p1089
(lp1090
sVheadersSize
p1091
I658
sVbodySize
p1092
I0
sVmethod
p1093
VGET
p1094
sVhttpVersion
p1095
VHTTP/1.1
p1096
ssVtimings
p1097
(dp1098
Vcomment
p1099
g4
sVreceive
p1100
I0
sVsend
p1101
I0
sVssl
p1102
I-1
sVconnect
p1103
I-1
sVdns
p1104
I-1
sVwait
p1105
I39
sVblocked
p1106
I-1
ssVtime
p1107
I40
sVresponse
p1108
(dp1109
Vstatus
p1110
I204
sVcomment
p1111
g4
sVcookies
p1112
(lp1113
sVstatusText
p1114
VNo Content
p1115
sVcontent
p1116
(dp1117
VmimeType
p1118
Vtext/html; charset=UTF-8
p1119
sVcomment
p1120
g4
sVsize
p1121
I0
ssVheaders
p1122
(lp1123
sVheadersSize
p1124
I248
sVredirectURL
p1125
g4
sVbodySize
p1126
I0
sVhttpVersion
p1127
VHTTP/1.1
p1128
ssa(dp1129
Vcomment
p1130
g4
sVserverIPAddress
p1131
V172.217.6.4
p1132
sVpageref
p1133
VConor McGregor
p1134
sVstartedDateTime
p1135
V2017-04-16T08:17:07.612-05:00
p1136
sVcache
p1137
(dp1138
sVrequest
p1139
(dp1140
Vcomment
p1141
g4
sVcookies
p1142
(lp1143
sVurl
p1144
Vhttps://www.google.com/gen_204?atyp=i&ct=&cad=&vet=10ahUKEwi42JTth6nTAhUH1oMKHUqrDnkQ5W0IowEoCA..s&ei=0G7zWLiwH4esjwTK1rrIBw&zx=1492348627564
p1145
sVqueryString
p1146
(lp1147
(dp1148
Vname
p1149
Vatyp
p1150
sVvalue
p1151
g30
sa(dp1152
Vname
p1153
Vct
p1154
sVvalue
p1155
g4
sa(dp1156
Vname
p1157
Vcad
p1158
sVvalue
p1159
g4
sa(dp1160
Vname
p1161
Vvet
p1162
sVvalue
p1163
V10ahUKEwi42JTth6nTAhUH1oMKHUqrDnkQ5W0IowEoCA..s
p1164
sa(dp1165
Vname
p1166
Vei
p1167
sVvalue
p1168
V0G7zWLiwH4esjwTK1rrIBw
p1169
sa(dp1170
Vname
p1171
Vzx
p1172
sVvalue
p1173
V1492348627564
p1174
sasVheaders
p1175
(lp1176
sVheadersSize
p1177
I658
sVbodySize
p1178
I0
sVmethod
p1179
VGET
p1180
sVhttpVersion
p1181
VHTTP/1.1
p1182
ssVtimings
p1183
(dp1184
Vcomment
p1185
g4
sVreceive
p1186
I0
sVsend
p1187
I0
sVssl
p1188
I25
sVconnect
p1189
I44
sVdns
p1190
I0
sVwait
p1191
I29
sVblocked
p1192
I0
ssVtime
p1193
I74
sVresponse
p1194
(dp1195
Vstatus
p1196
I204
sVcomment
p1197
g4
sVcookies
p1198
(lp1199
sVstatusText
p1200
VNo Content
p1201
sVcontent
p1202
(dp1203
VmimeType
p1204
Vtext/html; charset=UTF-8
p1205
sVcomment
p1206
g4
sVsize
p1207
I0
ssVheaders
p1208
(lp1209
sVheadersSize
p1210
I248
sVredirectURL
p1211
g4
sVbodySize
p1212
I0
sVhttpVersion
p1213
VHTTP/1.1
p1214
ssa(dp1215
Vcomment
p1216
g4
sVserverIPAddress
p1217
V172.217.6.4
p1218
sVpageref
p1219
VConor McGregor
p1220
sVstartedDateTime
p1221
V2017-04-16T08:17:07.612-05:00
p1222
sVcache
p1223
(dp1224
sVrequest
p1225
(dp1226
Vcomment
p1227
g4
sVcookies
p1228
(lp1229
sVurl
p1230
Vhttps://www.google.com/gen_204?atyp=i&ct=&cad=&vet=10ahUKEwi42JTth6nTAhUH1oMKHUqrDnkQ5W0IoAEoBw..s&ei=0G7zWLiwH4esjwTK1rrIBw&zx=1492348627561
p1231
sVqueryString
p1232
(lp1233
(dp1234
Vname
p1235
Vatyp
p1236
sVvalue
p1237
g30
sa(dp1238
Vname
p1239
Vct
p1240
sVvalue
p1241
g4
sa(dp1242
Vname
p1243
Vcad
p1244
sVvalue
p1245
g4
sa(dp1246
Vname
p1247
Vvet
p1248
sVvalue
p1249
V10ahUKEwi42JTth6nTAhUH1oMKHUqrDnkQ5W0IoAEoBw..s
p1250
sa(dp1251
Vname
p1252
Vei
p1253
sVvalue
p1254
V0G7zWLiwH4esjwTK1rrIBw
p1255
sa(dp1256
Vname
p1257
Vzx
p1258
sVvalue
p1259
V1492348627561
p1260
sasVheaders
p1261
(lp1262
sVheadersSize
p1263
I658
sVbodySize
p1264
I0
sVmethod
p1265
VGET
p1266
sVhttpVersion
p1267
VHTTP/1.1
p1268
ssVtimings
p1269
(dp1270
Vcomment
p1271
g4
sVreceive
p1272
I0
sVsend
p1273
I0
sVssl
p1274
I27
sVconnect
p1275
I44
sVdns
p1276
I0
sVwait
p1277
I29
sVblocked
p1278
I0
ssVtime
p1279
I74
sVresponse
p1280
(dp1281
Vstatus
p1282
I204
sVcomment
p1283
g4
sVcookies
p1284
(lp1285
sVstatusText
p1286
VNo Content
p1287
sVcontent
p1288
(dp1289
VmimeType
p1290
Vtext/html; charset=UTF-8
p1291
sVcomment
p1292
g4
sVsize
p1293
I0
ssVheaders
p1294
(lp1295
sVheadersSize
p1296
I248
sVredirectURL
p1297
g4
sVbodySize
p1298
I0
sVhttpVersion
p1299
VHTTP/1.1
p1300
ssa(dp1301
Vcomment
p1302
g4
sVserverIPAddress
p1303
V172.217.6.4
p1304
sVpageref
p1305
VConor McGregor
p1306
sVstartedDateTime
p1307
V2017-04-16T08:17:07.698-05:00
p1308
sVcache
p1309
(dp1310
sVrequest
p1311
(dp1312
Vcomment
p1313
g4
sVcookies
p1314
(lp1315
sVurl
p1316
Vhttps://www.google.com/async/ampfp?vet=10ahUKEwi42JTth6nTAhUH1oMKHUqrDnkQtZoBCJ8C..i&ei=0G7zWLiwH4esjwTK1rrIBw&yv=2&async=_id:ampfp-async,_pms:qs
p1317
sVqueryString
p1318
(lp1319
(dp1320
Vname
p1321
Vvet
p1322
sVvalue
p1323
V10ahUKEwi42JTth6nTAhUH1oMKHUqrDnkQtZoBCJ8C..i
p1324
sa(dp1325
Vname
p1326
Vei
p1327
sVvalue
p1328
V0G7zWLiwH4esjwTK1rrIBw
p1329
sa(dp1330
Vname
p1331
Vyv
p1332
sVvalue
p1333
g64
sa(dp1334
Vname
p1335
Vasync
p1336
sVvalue
p1337
V_id:ampfp-async,_pms:qs
p1338
sasVheaders
p1339
(lp1340
sVheadersSize
p1341
I662
sVbodySize
p1342
I0
sVmethod
p1343
VGET
p1344
sVhttpVersion
p1345
VHTTP/1.1
p1346
ssVtimings
p1347
(dp1348
Vcomment
p1349
g4
sVreceive
p1350
I0
sVsend
p1351
I0
sVssl
p1352
I-1
sVconnect
p1353
I-1
sVdns
p1354
I-1
sVwait
p1355
I56
sVblocked
p1356
I-1
ssVtime
p1357
I57
sVresponse
p1358
(dp1359
Vstatus
p1360
I200
sVcomment
p1361
g4
sVcookies
p1362
(lp1363
sVstatusText
p1364
VOK
p1365
sVcontent
p1366
(dp1367
VmimeType
p1368
Vtext/html; charset=UTF-8
p1369
sVcomment
p1370
g4
sVsize
p1371
I0
ssVheaders
p1372
(lp1373
sVheadersSize
p1374
I383
sVredirectURL
p1375
g4
sVbodySize
p1376
I4525
sVhttpVersion
p1377
VHTTP/1.1
p1378
ssa(dp1379
Vcomment
p1380
g4
sVserverIPAddress
p1381
V216.58.216.193
p1382
sVpageref
p1383
VConor McGregor
p1384
sVstartedDateTime
p1385
V2017-04-16T08:17:07.702-05:00
p1386
sVcache
p1387
(dp1388
sVrequest
p1389
(dp1390
Vcomment
p1391
g4
sVcookies
p1392
(lp1393
sVurl
p1394
Vhttps://cdn.ampproject.org/preconnect.gif?0.23832491092387198
p1395
sVqueryString
p1396
(lp1397
(dp1398
Vname
p1399
V0.23832491092387198
p1400
sVvalue
p1401
g4
sasVheaders
p1402
(lp1403
sVheadersSize
p1404
I376
sVbodySize
p1405
I0
sVmethod
p1406
VGET
p1407
sVhttpVersion
p1408
VHTTP/1.1
p1409
ssVtimings
p1410
(dp1411
Vcomment
p1412
g4
sVreceive
p1413
I0
sVsend
p1414
I0
sVssl
p1415
I-1
sVconnect
p1416
I-1
sVdns
p1417
I-1
sVwait
p1418
I39
sVblocked
p1419
I-1
ssVtime
p1420
I39
sVresponse
p1421
(dp1422
Vstatus
p1423
I200
sVcomment
p1424
g4
sVcookies
p1425
(lp1426
sVstatusText
p1427
VOK
p1428
sVcontent
p1429
(dp1430
VmimeType
p1431
Vimage/gif
p1432
sVcomment
p1433
g4
sVsize
p1434
I0
ssVheaders
p1435
(lp1436
sVheadersSize
p1437
I826
sVredirectURL
p1438
g4
sVbodySize
p1439
I37
sVhttpVersion
p1440
VHTTP/1.1
p1441
ssa(dp1442
Vcomment
p1443
g4
sVserverIPAddress
p1444
V216.58.216.206
p1445
sVpageref
p1446
VConor McGregor
p1447
sVstartedDateTime
p1448
V2017-04-16T08:17:07.757-05:00
p1449
sVcache
p1450
(dp1451
sVrequest
p1452
(dp1453
Vcomment
p1454
g4
sVcookies
p1455
(lp1456
sVurl
p1457
Vhttps://encrypted-tbn0.gstatic.com/images?q=tbn:ANd9GcTIuarsw4NJlxRS3fUwi_IyZUO3D9iGgm-rd8QwOpWYKOaNPbSsrwMOjdJf
p1458
sVqueryString
p1459
(lp1460
(dp1461
Vname
p1462
g415
sVvalue
p1463
Vtbn:ANd9GcTIuarsw4NJlxRS3fUwi_IyZUO3D9iGgm-rd8QwOpWYKOaNPbSsrwMOjdJf
p1464
sasVheaders
p1465
(lp1466
sVheadersSize
p1467
I427
sVbodySize
p1468
I0
sVmethod
p1469
VGET
p1470
sVhttpVersion
p1471
VHTTP/1.1
p1472
ssVtimings
p1473
(dp1474
Vcomment
p1475
g4
sVreceive
p1476
I3
sVsend
p1477
I0
sVssl
p1478
I-1
sVconnect
p1479
I-1
sVdns
p1480
I-1
sVwait
p1481
I16
sVblocked
p1482
I-1
ssVtime
p1483
I20
sVresponse
p1484
(dp1485
Vstatus
p1486
I200
sVcomment
p1487
g4
sVcookies
p1488
(lp1489
sVstatusText
p1490
VOK
p1491
sVcontent
p1492
(dp1493
VmimeType
p1494
Vimage/jpeg
p1495
sVcomment
p1496
g4
sVsize
p1497
I0
ssVheaders
p1498
(lp1499
sVheadersSize
p1500
I428
sVredirectURL
p1501
g4
sVbodySize
p1502
I5258
sVhttpVersion
p1503
VHTTP/1.1
p1504
ssa(dp1505
Vcomment
p1506
g4
sVserverIPAddress
p1507
V172.217.6.4
p1508
sVpageref
p1509
VConor McGregor
p1510
sVstartedDateTime
p1511
V2017-04-16T08:17:07.994-05:00
p1512
sVcache
p1513
(dp1514
sVrequest
p1515
(dp1516
Vcomment
p1517
g4
sVcookies
p1518
(lp1519
sVurl
p1520
Vhttps://www.google.com/async/log_amp_item_set?vet=10ahUKEwjMj5vuh6nTAhUp1oMKHbZLCEUQooQBCAE..i&ei=0G7zWLiwH4esjwTK1rrIBw&yv=2&async=num_items:1,_fmt:jspb
p1521
sVqueryString
p1522
(lp1523
(dp1524
Vname
p1525
Vvet
p1526
sVvalue
p1527
V10ahUKEwjMj5vuh6nTAhUp1oMKHbZLCEUQooQBCAE..i
p1528
sa(dp1529
Vname
p1530
Vei
p1531
sVvalue
p1532
V0G7zWLiwH4esjwTK1rrIBw
p1533
sa(dp1534
Vname
p1535
Vyv
p1536
sVvalue
p1537
g64
sa(dp1538
Vname
p1539
Vasync
p1540
sVvalue
p1541
Vnum_items:1,_fmt:jspb
p1542
sasVheaders
p1543
(lp1544
sVheadersSize
p1545
I670
sVbodySize
p1546
I0
sVmethod
p1547
VGET
p1548
sVhttpVersion
p1549
VHTTP/1.1
p1550
ssVtimings
p1551
(dp1552
Vcomment
p1553
g4
sVreceive
p1554
I0
sVsend
p1555
I0
sVssl
p1556
I-1
sVconnect
p1557
I-1
sVdns
p1558
I-1
sVwait
p1559
I36
sVblocked
p1560
I-1
ssVtime
p1561
I37
sVresponse
p1562
(dp1563
Vstatus
p1564
I200
sVcomment
p1565
g4
sVcookies
p1566
(lp1567
sVstatusText
p1568
VOK
p1569
sVcontent
p1570
(dp1571
VmimeType
p1572
Vapplication/json; charset=UTF-8
p1573
sVcomment
p1574
g4
sVsize
p1575
I0
ssVheaders
p1576
(lp1577
sVheadersSize
p1578
I417
sVredirectURL
p1579
g4
sVbodySize
p1580
I132
sVhttpVersion
p1581
VHTTP/1.1
p1582
ssa(dp1583
Vcomment
p1584
g4
sVserverIPAddress
p1585
V216.58.216.193
p1586
sVpageref
p1587
VConor McGregor
p1588
sVstartedDateTime
p1589
V2017-04-16T08:17:08.003-05:00
p1590
sVcache
p1591
(dp1592
sVrequest
p1593
(dp1594
Vcomment
p1595
g4
sVcookies
p1596
(lp1597
sVurl
p1598
Vhttps://www-forbes-com.cdn.ampproject.org/v/s/www.forbes.com/sites/mattconnolly/2017/04/16/ufc-on-fox-demetrious-johnson-singles-out-conor-mcgregor-digs-at-jon-jones-after-making-1m-demand/amp/?amp_js_v=9
p1599
sVqueryString
p1600
(lp1601
(dp1602
Vname
p1603
Vamp_js_v
p1604
sVvalue
p1605
V9
p1606
sasVheaders
p1607
(lp1608
sVheadersSize
p1609
I609
sVbodySize
p1610
I0
sVmethod
p1611
VGET
p1612
sVhttpVersion
p1613
VHTTP/1.1
p1614
ssVtimings
p1615
(dp1616
Vcomment
p1617
g4
sVreceive
p1618
I1
sVsend
p1619
I0
sVssl
p1620
I-1
sVconnect
p1621
I-1
sVdns
p1622
I-1
sVwait
p1623
I130
sVblocked
p1624
I-1
ssVtime
p1625
I132
sVresponse
p1626
(dp1627
Vstatus
p1628
I200
sVcomment
p1629
g4
sVcookies
p1630
(lp1631
sVstatusText
p1632
VOK
p1633
sVcontent
p1634
(dp1635
VmimeType
p1636
Vtext/html
p1637
sVcomment
p1638
g4
sVsize
p1639
I0
ssVheaders
p1640
(lp1641
sVheadersSize
p1642
I862
sVredirectURL
p1643
g4
sVbodySize
p1644
I17262
sVhttpVersion
p1645
VHTTP/1.1
p1646
ssa(dp1647
Vcomment
p1648
g4
sVserverIPAddress
p1649
V216.58.216.193
p1650
sVpageref
p1651
VConor McGregor
p1652
sVstartedDateTime
p1653
V2017-04-16T08:17:08.452-05:00
p1654
sVcache
p1655
(dp1656
sVrequest
p1657
(dp1658
Vcomment
p1659
g4
sVcookies
p1660
(lp1661
sVurl
p1662
Vhttps://specials--images-forbesimg-com.cdn.ampproject.org/ii/w1200/specials-images.forbesimg.com/imageserve/668966586/960x0.jpg?fit=scale
p1663
sVqueryString
p1664
(lp1665
(dp1666
Vname
p1667
Vfit
p1668
sVvalue
p1669
Vscale
p1670
sasVheaders
p1671
(lp1672
sVheadersSize
p1673
I471
sVbodySize
p1674
I0
sVmethod
p1675
VGET
p1676
sVhttpVersion
p1677
VHTTP/1.1
p1678
ssVtimings
p1679
(dp1680
Vcomment
p1681
g4
sVreceive
p1682
I15
sVsend
p1683
I0
sVssl
p1684
I-1
sVconnect
p1685
I-1
sVdns
p1686
I-1
sVwait
p1687
I32
sVblocked
p1688
I-1
ssVtime
p1689
I48
sVresponse
p1690
(dp1691
Vstatus
p1692
I200
sVcomment
p1693
g4
sVcookies
p1694
(lp1695
sVstatusText
p1696
VOK
p1697
sVcontent
p1698
(dp1699
VmimeType
p1700
Vimage/jpeg
p1701
sVcomment
p1702
g4
sVsize
p1703
I0
ssVheaders
p1704
(lp1705
sVheadersSize
p1706
I849
sVredirectURL
p1707
g4
sVbodySize
p1708
I66893
sVhttpVersion
p1709
VHTTP/1.1
p1710
ssa(dp1711
Vcomment
p1712
g4
sVserverIPAddress
p1713
V216.58.216.193
p1714
sVpageref
p1715
VConor McGregor
p1716
sVstartedDateTime
p1717
V2017-04-16T08:17:08.767-05:00
p1718
sVcache
p1719
(dp1720
sVrequest
p1721
(dp1722
Vcomment
p1723
g4
sVcookies
p1724
(lp1725
sVurl
p1726
Vhttps://0-gravatar-com.cdn.ampproject.org/i/0.gravatar.com/avatar/3c26ec13fe08ae4c9aaa28d7a64d84d4?s=62&d=mm&r=g
p1727
sVqueryString
p1728
(lp1729
(dp1730
Vname
p1731
g57
sVvalue
p1732
V62
p1733
sa(dp1734
Vname
p1735
Vd
p1736
sVvalue
p1737
Vmm
p1738
sa(dp1739
Vname
p1740
Vr
p1741
sVvalue
p1742
Vg
p1743
sasVheaders
p1744
(lp1745
sVheadersSize
p1746
I446
sVbodySize
p1747
I0
sVmethod
p1748
VGET
p1749
sVhttpVersion
p1750
VHTTP/1.1
p1751
ssVtimings
p1752
(dp1753
Vcomment
p1754
g4
sVreceive
p1755
I0
sVsend
p1756
I0
sVssl
p1757
I242
sVconnect
p1758
I271
sVdns
p1759
I44
sVwait
p1760
I68
sVblocked
p1761
I0
ssVtime
p1762
I384
sVresponse
p1763
(dp1764
Vstatus
p1765
I200
sVcomment
p1766
g4
sVcookies
p1767
(lp1768
sVstatusText
p1769
VOK
p1770
sVcontent
p1771
(dp1772
VmimeType
p1773
Vimage/jpeg
p1774
sVcomment
p1775
g4
sVsize
p1776
I0
ssVheaders
p1777
(lp1778
sVheadersSize
p1779
I844
sVredirectURL
p1780
g4
sVbodySize
p1781
I1193
sVhttpVersion
p1782
VHTTP/1.1
p1783
ssa(dp1784
Vcomment
p1785
g4
sVserverIPAddress
p1786
V172.217.6.4
p1787
sVpageref
p1788
VConor McGregor
p1789
sVstartedDateTime
p1790
V2017-04-16T08:17:08.889-05:00
p1791
sVcache
p1792
(dp1793
sVrequest
p1794
(dp1795
Vcomment
p1796
g4
sVcookies
p1797
(lp1798
sVurl
p1799
Vhttps://www.google.com/gen_204?s=web&atyp=csi&ei=0G7zWLiwH4esjwTK1rrIBw&imc=74&imn=74&imp=33&adh=&xjs=init.63.14.sb_mob.50.dvl.5.c.2.mbsf.2.jsa.1&ima=21&rt=prt.936,iml.1213,xjsls.937,qiml.1254,dcl.1060,xjses.1287,xjsee.1546,xjs.1547,ol.3243,aft.1213,wsrt.100,cst.0,dnst.0,rqst.853,rspt.764,rqstt.2,unt.2,cstt.2,dit.1087
p1800
sVqueryString
p1801
(lp1802
(dp1803
Vname
p1804
g57
sVvalue
p1805
Vweb
p1806
sa(dp1807
Vname
p1808
Vatyp
p1809
sVvalue
p1810
Vcsi
p1811
sa(dp1812
Vname
p1813
Vei
p1814
sVvalue
p1815
V0G7zWLiwH4esjwTK1rrIBw
p1816
sa(dp1817
Vname
p1818
Vimc
p1819
sVvalue
p1820
V74
p1821
sa(dp1822
Vname
p1823
Vimn
p1824
sVvalue
p1825
V74
p1826
sa(dp1827
Vname
p1828
Vimp
p1829
sVvalue
p1830
V33
p1831
sa(dp1832
Vname
p1833
Vadh
p1834
sVvalue
p1835
g4
sa(dp1836
Vname
p1837
Vxjs
p1838
sVvalue
p1839
Vinit.63.14.sb_mob.50.dvl.5.c.2.mbsf.2.jsa.1
p1840
sa(dp1841
Vname
p1842
Vima
p1843
sVvalue
p1844
V21
p1845
sa(dp1846
Vname
p1847
Vrt
p1848
sVvalue
p1849
Vprt.936,iml.1213,xjsls.937,qiml.1254,dcl.1060,xjses.1287,xjsee.1546,xjs.1547,ol.3243,aft.1213,wsrt.100,cst.0,dnst.0,rqst.853,rspt.764,rqstt.2,unt.2,cstt.2,dit.1087
p1850
sasVheaders
p1851
(lp1852
sVheadersSize
p1853
I836
sVbodySize
p1854
I0
sVmethod
p1855
VGET
p1856
sVhttpVersion
p1857
VHTTP/1.1
p1858
ssVtimings
p1859
(dp1860
Vcomment
p1861
g4
sVreceive
p1862
I0
sVsend
p1863
I0
sVssl
p1864
I-1
sVconnect
p1865
I-1
sVdns
p1866
I-1
sVwait
p1867
I26
sVblocked
p1868
I-1
ssVtime
p1869
I27
sVresponse
p1870
(dp1871
Vstatus
p1872
I204
sVcomment
p1873
g4
sVcookies
p1874
(lp1875
sVstatusText
p1876
VNo Content
p1877
sVcontent
p1878
(dp1879
VmimeType
p1880
Vtext/html; charset=UTF-8
p1881
sVcomment
p1882
g4
sVsize
p1883
I0
ssVheaders
p1884
(lp1885
sVheadersSize
p1886
I248
sVredirectURL
p1887
g4
sVbodySize
p1888
I0
sVhttpVersion
p1889
VHTTP/1.1
p1890
ssa(dp1891
Vcomment
p1892
g4
sVserverIPAddress
p1893
V172.217.6.4
p1894
sVpageref
p1895
VConor McGregor
p1896
sVstartedDateTime
p1897
V2017-04-16T08:17:09.629-05:00
p1898
sVcache
p1899
(dp1900
sVrequest
p1901
(dp1902
Vcomment
p1903
g4
sVcookies
p1904
(lp1905
sVurl
p1906
Vhttps://www.google.com/gen_204?atyp=i&ct=slh&cad=&ei=v27zWIj8LougjwSXy5GwAw&m=V&t=C&s=1&v=2&pv=0.3235701157621439&me=1:1492348611852,x:3,V,0,0,1280,944:0,N,1,v27zWIj8LougjwSXy5GwAw:0,R,1,24,8,155,1249,732:0,R,1,25,8,155,1249,732:0,R,1,28,8,168,1249,40:0,R,1,41,8,220,1249,178:0,R,1,44,0,236,1265,197:0,R,1,84,8,415,1249,40:0,R,1,85,24,415,1217,40:0,R,1,91,8,471,1249,20:0,R,1,96,8,499,1249,20:0,R,1,121,8,539,1249,295:0,R,1,122,0,584,1265,270:0,R,1,160,24,897,1217,114:5,B,3623:12864,e,U&zx=1492348629628
p1907
sVqueryString
p1908
(lp1909
(dp1910
Vname
p1911
Vatyp
p1912
sVvalue
p1913
g30
sa(dp1914
Vname
p1915
Vct
p1916
sVvalue
p1917
Vslh
p1918
sa(dp1919
Vname
p1920
Vcad
p1921
sVvalue
p1922
g4
sa(dp1923
Vname
p1924
Vei
p1925
sVvalue
p1926
Vv27zWIj8LougjwSXy5GwAw
p1927
sa(dp1928
Vname
p1929
g47
sVvalue
p1930
g49
sa(dp1931
Vname
p1932
g52
sVvalue
p1933
g54
sa(dp1934
Vname
p1935
g57
sVvalue
p1936
g59
sa(dp1937
Vname
p1938
g62
sVvalue
p1939
g64
sa(dp1940
Vname
p1941
Vpv
p1942
sVvalue
p1943
V0.3235701157621439
p1944
sa(dp1945
Vname
p1946
Vme
p1947
sVvalue
p1948
V1:1492348611852,x:3,V,0,0,1280,944:0,N,1,v27zWIj8LougjwSXy5GwAw:0,R,1,24,8,155,1249,732:0,R,1,25,8,155,1249,732:0,R,1,28,8,168,1249,40:0,R,1,41,8,220,1249,178:0,R,1,44,0,236,1265,197:0,R,1,84,8,415,1249,40:0,R,1,85,24,415,1217,40:0,R,1,91,8,471,1249,20:0,R,1,96,8,499,1249,20:0,R,1,121,8,539,1249,295:0,R,1,122,0,584,1265,270:0,R,1,160,24,897,1217,114:5,B,3623:12864,e,U
p1949
sa(dp1950
Vname
p1951
Vzx
p1952
sVvalue
p1953
V1492348629628
p1954
sasVheaders
p1955
(lp1956
sVheadersSize
p1957
I1021
sVbodySize
p1958
I0
sVmethod
p1959
VGET
p1960
sVhttpVersion
p1961
VHTTP/1.1
p1962
ssVtimings
p1963
(dp1964
Vcomment
p1965
g4
sVreceive
p1966
I0
sVsend
p1967
I0
sVssl
p1968
I-1
sVconnect
p1969
I-1
sVdns
p1970
I-1
sVwait
p1971
I28
sVblocked
p1972
I-1
ssVtime
p1973
I29
sVresponse
p1974
(dp1975
Vstatus
p1976
I204
sVcomment
p1977
g4
sVcookies
p1978
(lp1979
sVstatusText
p1980
VNo Content
p1981
sVcontent
p1982
(dp1983
VmimeType
p1984
Vtext/html; charset=UTF-8
p1985
sVcomment
p1986
g4
sVsize
p1987
I0
ssVheaders
p1988
(lp1989
sVheadersSize
p1990
I248
sVredirectURL
p1991
g4
sVbodySize
p1992
I0
sVhttpVersion
p1993
VHTTP/1.1
p1994
ssasVversion
p1995
V1.2
p1996
sVpages
p1997
(lp1998
(dp1999
VpageTimings
p2000
(dp2001
Vcomment
p2002
g4
ssVcomment
p2003
g4
sVtitle
p2004
VConor McGregor
p2005
sVid
p2006
VConor McGregor
p2007
sVstartedDateTime
p2008
V2017-04-16T08:17:04.716-05:00
p2009
sasVcreator
p2010
(dp2011
Vcomment
p2012
g4
sVversion
p2013
V2.1.4
p2014
sVname
p2015
VBrowserMob Proxy
p2016
sss.