(dp0
Vlog
p1
(dp2
Vcomment
p3
V
p4
sVentries
p5
(lp6
(dp7
Vcomment
p8
g4
sVserverIPAddress
p9
V172.217.6.4
p10
sVpageref
p11
VBen Simmons
p12
sVstartedDateTime
p13
V2017-04-16T08:29:02.441-05:00
p14
sVcache
p15
(dp16
sVrequest
p17
(dp18
Vcomment
p19
g4
sVcookies
p20
(lp21
sVurl
p22
Vhttps://www.google.com/gen_204?atyp=i&ct=slh&cad=&ei=iXHzWNK2MYmcjwTlprX4Bw&m=V&t=C&s=1&v=2&pv=0.26723701262739796&me=1:1492349325116,x:3,V,0,0,1280,944:0,N,1,iXHzWNK2MYmcjwTlprX4Bw:0,R,1,24,8,155,1249,647:0,R,1,25,8,155,1249,647:0,R,1,28,8,168,1249,40:0,R,1,41,8,220,1249,178:0,R,1,44,0,236,1265,197:0,R,1,84,8,415,1249,20:0,R,1,85,24,415,1217,20:0,R,1,93,8,451,1249,20:0,R,1,96,8,479,1249,20:0,R,1,145,24,812,1217,115:6,B,3405:17314,e,U&zx=1492349342439
p23
sVqueryString
p24
(lp25
(dp26
Vname
p27
Vatyp
p28
sVvalue
p29
Vi
p30
sa(dp31
Vname
p32
Vct
p33
sVvalue
p34
Vslh
p35
sa(dp36
Vname
p37
Vcad
p38
sVvalue
p39
g4
sa(dp40
Vname
p41
Vei
p42
sVvalue
p43
ViXHzWNK2MYmcjwTlprX4Bw
p44
sa(dp45
Vname
p46
Vm
p47
sVvalue
p48
VV
p49
sa(dp50
Vname
p51
Vt
p52
sVvalue
p53
VC
p54
sa(dp55
Vname
p56
Vs
p57
sVvalue
p58
V1
p59
sa(dp60
Vname
p61
Vv
p62
sVvalue
p63
V2
p64
sa(dp65
Vname
p66
Vpv
p67
sVvalue
p68
V0.26723701262739796
p69
sa(dp70
Vname
p71
Vme
p72
sVvalue
p73
V1:1492349325116,x:3,V,0,0,1280,944:0,N,1,iXHzWNK2MYmcjwTlprX4Bw:0,R,1,24,8,155,1249,647:0,R,1,25,8,155,1249,647:0,R,1,28,8,168,1249,40:0,R,1,41,8,220,1249,178:0,R,1,44,0,236,1265,197:0,R,1,84,8,415,1249,20:0,R,1,85,24,415,1217,20:0,R,1,93,8,451,1249,20:0,R,1,96,8,479,1249,20:0,R,1,145,24,812,1217,115:6,B,3405:17314,e,U
p74
sa(dp75
Vname
p76
Vzx
p77
sVvalue
p78
V1492349342439
p79
sasVheaders
p80
(lp81
sVheadersSize
p82
I972
sVbodySize
p83
I0
sVmethod
p84
VGET
p85
sVhttpVersion
p86
VHTTP/1.1
p87
ssVtimings
p88
(dp89
Vcomment
p90
g4
sVreceive
p91
I0
sVsend
p92
I0
sVssl
p93
I-1
sVconnect
p94
I-1
sVdns
p95
I-1
sVwait
p96
I0
sVblocked
p97
I-1
ssVtime
p98
I0
sVresponse
p99
(dp100
Vstatus
p101
I0
sVcomment
p102
g4
sVcookies
p103
(lp104
sV_error
p105
VNo response received
p106
sVstatusText
p107
g4
sVcontent
p108
(dp109
VmimeType
p110
g4
sVcomment
p111
g4
sVsize
p112
I0
ssVheaders
p113
(lp114
sVheadersSize
p115
I-1
sVredirectURL
p116
g4
sVbodySize
p117
I-1
sVhttpVersion
p118
Vunknown
p119
ssa(dp120
Vcomment
p121
g4
sVserverIPAddress
p122
V172.217.6.4
p123
sVpageref
p124
VBen Simmons
p125
sVstartedDateTime
p126
V2017-04-16T08:29:02.443-05:00
p127
sVcache
p128
(dp129
sVrequest
p130
(dp131
Vcomment
p132
g4
sVcookies
p133
(lp134
sVurl
p135
Vhttps://www.google.com/gen_204?atyp=i&ct=slh&cad=&ei=Z3HzWJnXGMaijwSWv6joDA&m=V&t=C&s=1&v=2&pv=0.5523630610067068&me=1:1492349292217,x:4,V,0,0,1280,944:0,N,1,Z3HzWJnXGMaijwSWv6joDA:0,R,1,24,8,155,1249,712:0,R,1,25,8,155,1249,712:0,R,1,28,8,168,1249,40:0,R,1,41,8,220,1249,178:0,R,1,44,0,236,1265,197:0,R,1,84,8,415,1249,20:0,R,1,85,24,415,1217,20:0,R,1,91,8,451,1249,20:0,R,1,101,8,479,1249,20:0,R,1,111,8,519,1249,295:0,R,1,112,0,564,1265,270:0,R,1,147,24,877,1217,94:5,B,3474:13943,e,U&zx=1492349342442
p136
sVqueryString
p137
(lp138
(dp139
Vname
p140
Vatyp
p141
sVvalue
p142
g30
sa(dp143
Vname
p144
Vct
p145
sVvalue
p146
Vslh
p147
sa(dp148
Vname
p149
Vcad
p150
sVvalue
p151
g4
sa(dp152
Vname
p153
Vei
p154
sVvalue
p155
VZ3HzWJnXGMaijwSWv6joDA
p156
sa(dp157
Vname
p158
g47
sVvalue
p159
g49
sa(dp160
Vname
p161
g52
sVvalue
p162
g54
sa(dp163
Vname
p164
g57
sVvalue
p165
g59
sa(dp166
Vname
p167
g62
sVvalue
p168
g64
sa(dp169
Vname
p170
Vpv
p171
sVvalue
p172
V0.5523630610067068
p173
sa(dp174
Vname
p175
Vme
p176
sVvalue
p177
V1:1492349292217,x:4,V,0,0,1280,944:0,N,1,Z3HzWJnXGMaijwSWv6joDA:0,R,1,24,8,155,1249,712:0,R,1,25,8,155,1249,712:0,R,1,28,8,168,1249,40:0,R,1,41,8,220,1249,178:0,R,1,44,0,236,1265,197:0,R,1,84,8,415,1249,20:0,R,1,85,24,415,1217,20:0,R,1,91,8,451,1249,20:0,R,1,101,8,479,1249,20:0,R,1,111,8,519,1249,295:0,R,1,112,0,564,1265,270:0,R,1,147,24,877,1217,94:5,B,3474:13943,e,U
p178
sa(dp179
Vname
p180
Vzx
p181
sVvalue
p182
V1492349342442
p183
sasVheaders
p184
(lp185
sVheadersSize
p186
I1021
sVbodySize
p187
I0
sVmethod
p188
VGET
p189
sVhttpVersion
p190
VHTTP/1.1
p191
ssVtimings
p192
(dp193
Vcomment
p194
g4
sVreceive
p195
I0
sVsend
p196
I0
sVssl
p197
I-1
sVconnect
p198
I-1
sVdns
p199
I-1
sVwait
p200
I0
sVblocked
p201
I-1
ssVtime
p202
I0
sVresponse
p203
(dp204
Vstatus
p205
I0
sVcomment
p206
g4
sVcookies
p207
(lp208
sV_error
p209
VNo response received
p210
sVstatusText
p211
g4
sVcontent
p212
(dp213
VmimeType
p214
g4
sVcomment
p215
g4
sVsize
p216
I0
ssVheaders
p217
(lp218
sVheadersSize
p219
I-1
sVredirectURL
p220
g4
sVbodySize
p221
I-1
sVhttpVersion
p222
Vunknown
p223
ssa(dp224
Vcomment
p225
g4
sVserverIPAddress
p226
V172.217.6.4
p227
sVpageref
p228
VBen Simmons
p229
sVstartedDateTime
p230
V2017-04-16T08:29:02.444-05:00
p231
sVcache
p232
(dp233
sVrequest
p234
(dp235
Vcomment
p236
g4
sVcookies
p237
(lp238
sVurl
p239
Vhttps://www.google.com/gen_204?atyp=i&ct=slh&cad=&ei=eXHzWOnfM4LejwSdqJiwBA&m=V&t=C&s=1&v=2&pv=0.9222008428454901&me=1:1492349308454,x:6,V,0,0,1280,944:0,N,1,eXHzWOnfM4LejwSdqJiwBA:0,R,1,24,8,155,1249,251:0,R,1,34,8,416,1249,615:0,R,1,35,8,416,1249,615:0,R,1,38,8,429,1249,40:0,R,1,51,8,481,1249,146:0,R,1,54,0,497,1265,165:0,R,1,94,8,644,1249,20:0,R,1,95,24,644,1217,20:0,R,1,101,8,680,1249,20:0,R,1,103,8,708,1249,20:2,B,3857:13665,e,U&zx=1492349342442
p240
sVqueryString
p241
(lp242
(dp243
Vname
p244
Vatyp
p245
sVvalue
p246
g30
sa(dp247
Vname
p248
Vct
p249
sVvalue
p250
Vslh
p251
sa(dp252
Vname
p253
Vcad
p254
sVvalue
p255
g4
sa(dp256
Vname
p257
Vei
p258
sVvalue
p259
VeXHzWOnfM4LejwSdqJiwBA
p260
sa(dp261
Vname
p262
g47
sVvalue
p263
g49
sa(dp264
Vname
p265
g52
sVvalue
p266
g54
sa(dp267
Vname
p268
g57
sVvalue
p269
g59
sa(dp270
Vname
p271
g62
sVvalue
p272
g64
sa(dp273
Vname
p274
Vpv
p275
sVvalue
p276
V0.9222008428454901
p277
sa(dp278
Vname
p279
Vme
p280
sVvalue
p281
V1:1492349308454,x:6,V,0,0,1280,944:0,N,1,eXHzWOnfM4LejwSdqJiwBA:0,R,1,24,8,155,1249,251:0,R,1,34,8,416,1249,615:0,R,1,35,8,416,1249,615:0,R,1,38,8,429,1249,40:0,R,1,51,8,481,1249,146:0,R,1,54,0,497,1265,165:0,R,1,94,8,644,1249,20:0,R,1,95,24,644,1217,20:0,R,1,101,8,680,1249,20:0,R,1,103,8,708,1249,20:2,B,3857:13665,e,U
p282
sa(dp283
Vname
p284
Vzx
p285
sVvalue
p286
V1492349342442
p287
sasVheaders
p288
(lp289
sVheadersSize
p290
I971
sVbodySize
p291
I0
sVmethod
p292
VGET
p293
sVhttpVersion
p294
VHTTP/1.1
p295
ssVtimings
p296
(dp297
Vcomment
p298
g4
sVreceive
p299
I0
sVsend
p300
I0
sVssl
p301
I-1
sVconnect
p302
I-1
sVdns
p303
I-1
sVwait
p304
I0
sVblocked
p305
I-1
ssVtime
p306
I0
sVresponse
p307
(dp308
Vstatus
p309
I0
sVcomment
p310
g4
sVcookies
p311
(lp312
sV_error
p313
VNo response received
p314
sVstatusText
p315
g4
sVcontent
p316
(dp317
VmimeType
p318
g4
sVcomment
p319
g4
sVsize
p320
I0
ssVheaders
p321
(lp322
sVheadersSize
p323
I-1
sVredirectURL
p324
g4
sVbodySize
p325
I-1
sVhttpVersion
p326
Vunknown
p327
ssa(dp328
Vcomment
p329
g4
sVserverIPAddress
p330
V172.217.6.4
p331
sVpageref
p332
VBen Simmons
p333
sVstartedDateTime
p334
V2017-04-16T08:29:02.448-05:00
p335
sVcache
p336
(dp337
sVrequest
p338
(dp339
Vcomment
p340
g4
sVcookies
p341
(lp342
sVurl
p343
Vhttps://www.google.com/gen_204?atyp=i&ct=slh&cad=&ei=BXHzWIP8Meq-jwTI64z4DQ&m=V&t=C&s=1&v=2&pv=0.8802857241403822&me=1:1492349192964,x:2,V,0,0,1280,944:0,N,1,BXHzWIP8Meq-jwTI64z4DQ:0,R,1,24,8,155,1249,281:0,R,1,25,8,155,1249,261:0,R,1,26,8,155,1249,261:0,R,1,27,8,155,1249,110:0,R,1,42,8,446,1249,251:0,R,1,52,8,707,1249,301:0,R,1,53,8,707,1249,301:0,R,1,57,1142,707,115,107:0,R,1,66,8,741,1134,40:0,R,1,78,8,831,1249,40:0,R,1,79,24,831,1217,40:0,R,1,82,8,887,1249,20:0,R,1,84,8,915,1249,20:1,B,3492:19394,e,U&zx=1492349342443
p344
sVqueryString
p345
(lp346
(dp347
Vname
p348
Vatyp
p349
sVvalue
p350
g30
sa(dp351
Vname
p352
Vct
p353
sVvalue
p354
Vslh
p355
sa(dp356
Vname
p357
Vcad
p358
sVvalue
p359
g4
sa(dp360
Vname
p361
Vei
p362
sVvalue
p363
VBXHzWIP8Meq-jwTI64z4DQ
p364
sa(dp365
Vname
p366
g47
sVvalue
p367
g49
sa(dp368
Vname
p369
g52
sVvalue
p370
g54
sa(dp371
Vname
p372
g57
sVvalue
p373
g59
sa(dp374
Vname
p375
g62
sVvalue
p376
g64
sa(dp377
Vname
p378
Vpv
p379
sVvalue
p380
V0.8802857241403822
p381
sa(dp382
Vname
p383
Vme
p384
sVvalue
p385
V1:1492349192964,x:2,V,0,0,1280,944:0,N,1,BXHzWIP8Meq-jwTI64z4DQ:0,R,1,24,8,155,1249,281:0,R,1,25,8,155,1249,261:0,R,1,26,8,155,1249,261:0,R,1,27,8,155,1249,110:0,R,1,42,8,446,1249,251:0,R,1,52,8,707,1249,301:0,R,1,53,8,707,1249,301:0,R,1,57,1142,707,115,107:0,R,1,66,8,741,1134,40:0,R,1,78,8,831,1249,40:0,R,1,79,24,831,1217,40:0,R,1,82,8,887,1249,20:0,R,1,84,8,915,1249,20:1,B,3492:19394,e,U
p386
sa(dp387
Vname
p388
Vzx
p389
sVvalue
p390
V1492349342443
p391
sasVheaders
p392
(lp393
sVheadersSize
p394
I1043
sVbodySize
p395
I0
sVmethod
p396
VGET
p397
sVhttpVersion
p398
VHTTP/1.1
p399
ssVtimings
p400
(dp401
Vcomment
p402
g4
sVreceive
p403
I0
sVsend
p404
I0
sVssl
p405
I-1
sVconnect
p406
I-1
sVdns
p407
I-1
sVwait
p408
I0
sVblocked
p409
I-1
ssVtime
p410
I0
sVresponse
p411
(dp412
Vstatus
p413
I0
sVcomment
p414
g4
sVcookies
p415
(lp416
sV_error
p417
VNo response received
p418
sVstatusText
p419
g4
sVcontent
p420
(dp421
VmimeType
p422
g4
sVcomment
p423
g4
sVsize
p424
I0
ssVheaders
p425
(lp426
sVheadersSize
p427
I-1
sVredirectURL
p428
g4
sVbodySize
p429
I-1
sVhttpVersion
p430
Vunknown
p431
ssa(dp432
Vcomment
p433
g4
sVserverIPAddress
p434
V172.217.6.4
p435
sVpageref
p436
VBen Simmons
p437
sVstartedDateTime
p438
V2017-04-16T08:29:02.449-05:00
p439
sVcache
p440
(dp441
sVrequest
p442
(dp443
Vcomment
p444
g4
sVcookies
p445
(lp446
sVurl
p447
Vhttp://www.google.com/
p448
sVqueryString
p449
(lp450
sVheaders
p451
(lp452
sVheadersSize
p453
I613
sVbodySize
p454
I0
sVmethod
p455
VGET
p456
sVhttpVersion
p457
VHTTP/1.1
p458
ssVtimings
p459
(dp460
Vcomment
p461
g4
sVreceive
p462
I0
sVsend
p463
I0
sVssl
p464
I-1
sVconnect
p465
I-1
sVdns
p466
I-1
sVwait
p467
I41
sVblocked
p468
I-1
ssVtime
p469
I41
sVresponse
p470
(dp471
Vstatus
p472
I302
sVcomment
p473
g4
sVcookies
p474
(lp475
sVstatusText
p476
VFound
p477
sVcontent
p478
(dp479
VmimeType
p480
Vtext/html; charset=UTF-8
p481
sVcomment
p482
g4
sVsize
p483
I0
ssVheaders
p484
(lp485
sVheadersSize
p486
I609
sVredirectURL
p487
Vhttps://www.google.com/?gws_rd=ssl
p488
sVbodySize
p489
I231
sVhttpVersion
p490
VHTTP/1.1
p491
ssa(dp492
Vcomment
p493
g4
sVserverIPAddress
p494
V172.217.6.4
p495
sVpageref
p496
VBen Simmons
p497
sVstartedDateTime
p498
V2017-04-16T08:29:02.494-05:00
p499
sVcache
p500
(dp501
sVrequest
p502
(dp503
Vcomment
p504
g4
sVcookies
p505
(lp506
sVurl
p507
Vhttps://www.google.com/?gws_rd=ssl
p508
sVqueryString
p509
(lp510
(dp511
Vname
p512
Vgws_rd
p513
sVvalue
p514
Vssl
p515
sasVheaders
p516
(lp517
sVheadersSize
p518
I607
sVbodySize
p519
I0
sVmethod
p520
VGET
p521
sVhttpVersion
p522
VHTTP/1.1
p523
ssVtimings
p524
(dp525
Vcomment
p526
g4
sVreceive
p527
I42
sVsend
p528
I0
sVssl
p529
I-1
sVconnect
p530
I-1
sVdns
p531
I-1
sVwait
p532
I78
sVblocked
p533
I-1
ssVtime
p534
I121
sVresponse
p535
(dp536
Vstatus
p537
I200
sVcomment
p538
g4
sVcookies
p539
(lp540
sVstatusText
p541
VOK
p542
sVcontent
p543
(dp544
VmimeType
p545
Vtext/html; charset=UTF-8
p546
sVcomment
p547
g4
sVsize
p548
I0
ssVheaders
p549
(lp550
sVheadersSize
p551
I721
sVredirectURL
p552
g4
sVbodySize
p553
I34295
sVhttpVersion
p554
VHTTP/1.1
p555
ssa(dp556
Vcomment
p557
g4
sVserverIPAddress
p558
V172.217.6.4
p559
sVpageref
p560
VBen Simmons
p561
sVstartedDateTime
p562
V2017-04-16T08:29:02.792-05:00
p563
sVcache
p564
(dp565
sVrequest
p566
(dp567
Vcomment
p568
g4
sVcookies
p569
(lp570
sVurl
p571
Vhttps://www.google.com/gen_204?s=mobilewebhp&atyp=csi&ei=nXHzWMb6HYvSjwSg3JCIBA&imc=1&imn=1&imp=0&adh=&xjs=init.23.12.sb_mob.17.dvl.2.jsa.1.mbsf.1.async.1&ima=1&rt=xjsls.19,prt.19,iml.19,dcl.59,xjses.82,xjsee.162,xjs.163,ol.199,aft.19,wsrt.150,cst.0,dnst.0,rqst.123,rspt.44,rqstt.55,unt.52,cstt.52,dit.208
p572
sVqueryString
p573
(lp574
(dp575
Vname
p576
g57
sVvalue
p577
Vmobilewebhp
p578
sa(dp579
Vname
p580
Vatyp
p581
sVvalue
p582
Vcsi
p583
sa(dp584
Vname
p585
Vei
p586
sVvalue
p587
VnXHzWMb6HYvSjwSg3JCIBA
p588
sa(dp589
Vname
p590
Vimc
p591
sVvalue
p592
g59
sa(dp593
Vname
p594
Vimn
p595
sVvalue
p596
g59
sa(dp597
Vname
p598
Vimp
p599
sVvalue
p600
V0
p601
sa(dp602
Vname
p603
Vadh
p604
sVvalue
p605
g4
sa(dp606
Vname
p607
Vxjs
p608
sVvalue
p609
Vinit.23.12.sb_mob.17.dvl.2.jsa.1.mbsf.1.async.1
p610
sa(dp611
Vname
p612
Vima
p613
sVvalue
p614
g59
sa(dp615
Vname
p616
Vrt
p617
sVvalue
p618
Vxjsls.19,prt.19,iml.19,dcl.59,xjses.82,xjsee.162,xjs.163,ol.199,aft.19,wsrt.150,cst.0,dnst.0,rqst.123,rspt.44,rqstt.55,unt.52,cstt.52,dit.208
p619
sasVheaders
p620
(lp621
sVheadersSize
p622
I833
sVbodySize
p623
I0
sVmethod
p624
VGET
p625
sVhttpVersion
p626
VHTTP/1.1
p627
ssVtimings
p628
(dp629
Vcomment
p630
g4
sVreceive
p631
I0
sVsend
p632
I0
sVssl
p633
I-1
sVconnect
p634
I-1
sVdns
p635
I-1
sVwait
p636
I37
sVblocked
p637
I-1
ssVtime
p638
I37
sVresponse
p639
(dp640
Vstatus
p641
I204
sVcomment
p642
g4
sVcookies
p643
(lp644
sVstatusText
p645
VNo Content
p646
sVcontent
p647
(dp648
VmimeType
p649
Vtext/html; charset=UTF-8
p650
sVcomment
p651
g4
sVsize
p652
I0
ssVheaders
p653
(lp654
sVheadersSize
p655
I248
sVredirectURL
p656
g4
sVbodySize
p657
I0
sVhttpVersion
p658
VHTTP/1.1
p659
ssa(dp660
Vcomment
p661
g4
sVserverIPAddress
p662
V172.217.6.4
p663
sVpageref
p664
VBen Simmons
p665
sVstartedDateTime
p666
V2017-04-16T08:29:02.920-05:00
p667
sVcache
p668
(dp669
sVrequest
p670
(dp671
Vcomment
p672
g4
sVcookies
p673
(lp674
sVurl
p675
Vhttps://www.google.com/complete/search?client=mobile-gws-hp&hl=en&gs_rn=64&gs_ri=mobile-gws-hp&sla=1&pfq=buddy%20hield&gm=602&cp=0&gs_id=1&xhr=t&q=B&tch=1&ech=1&psi=nXHzWMb6HYvSjwSg3JCIBA.1492349342728.1
p676
sVqueryString
p677
(lp678
(dp679
Vname
p680
Vclient
p681
sVvalue
p682
Vmobile-gws-hp
p683
sa(dp684
Vname
p685
Vhl
p686
sVvalue
p687
Ven
p688
sa(dp689
Vname
p690
Vgs_rn
p691
sVvalue
p692
V64
p693
sa(dp694
Vname
p695
Vgs_ri
p696
sVvalue
p697
Vmobile-gws-hp
p698
sa(dp699
Vname
p700
Vsla
p701
sVvalue
p702
g59
sa(dp703
Vname
p704
Vpfq
p705
sVvalue
p706
Vbuddy hield
p707
sa(dp708
Vname
p709
Vgm
p710
sVvalue
p711
V602
p712
sa(dp713
Vname
p714
Vcp
p715
sVvalue
p716
g601
sa(dp717
Vname
p718
Vgs_id
p719
sVvalue
p720
g59
sa(dp721
Vname
p722
Vxhr
p723
sVvalue
p724
g52
sa(dp725
Vname
p726
Vq
p727
sVvalue
p728
VB
p729
sa(dp730
Vname
p731
Vtch
p732
sVvalue
p733
g59
sa(dp734
Vname
p735
Vech
p736
sVvalue
p737
g59
sa(dp738
Vname
p739
Vpsi
p740
sVvalue
p741
VnXHzWMb6HYvSjwSg3JCIBA.1492349342728.1
p742
sasVheaders
p743
(lp744
sVheadersSize
p745
I731
sVbodySize
p746
I0
sVmethod
p747
VGET
p748
sVhttpVersion
p749
VHTTP/1.1
p750
ssVtimings
p751
(dp752
Vcomment
p753
g4
sVreceive
p754
I0
sVsend
p755
I0
sVssl
p756
I-1
sVconnect
p757
I-1
sVdns
p758
I-1
sVwait
p759
I0
sVblocked
p760
I-1
ssVtime
p761
I0
sVresponse
p762
(dp763
Vstatus
p764
I0
sVcomment
p765
g4
sVcookies
p766
(lp767
sV_error
p768
VNo response received
p769
sVstatusText
p770
g4
sVcontent
p771
(dp772
VmimeType
p773
g4
sVcomment
p774
g4
sVsize
p775
I0
ssVheaders
p776
(lp777
sVheadersSize
p778
I-1
sVredirectURL
p779
g4
sVbodySize
p780
I-1
sVhttpVersion
p781
Vunknown
p782
ssa(dp783
Vcomment
p784
g4
sVserverIPAddress
p785
V172.217.6.4
p786
sVpageref
p787
VBen Simmons
p788
sVstartedDateTime
p789
V2017-04-16T08:29:02.979-05:00
p790
sVcache
p791
(dp792
sVrequest
p793
(dp794
Vcomment
p795
g4
sVcookies
p796
(lp797
sVurl
p798
Vhttps://www.google.com/search?site=&source=hp&ei=nXHzWMb6HYvSjwSg3JCIBA&q=Ben+Simmons&oq=Ben+Simmons&gs_l=mobile-gws-hp.3...173.201.0.226.11.1.0.0.0.0.0.0..0.0....0...1c.1.64.mobile-gws-hp..11.0.0.c1qSWBUjZ74
p799
sVqueryString
p800
(lp801
(dp802
Vname
p803
Vsite
p804
sVvalue
p805
g4
sa(dp806
Vname
p807
Vsource
p808
sVvalue
p809
Vhp
p810
sa(dp811
Vname
p812
Vei
p813
sVvalue
p814
VnXHzWMb6HYvSjwSg3JCIBA
p815
sa(dp816
Vname
p817
g727
sVvalue
p818
VBen Simmons
p819
sa(dp820
Vname
p821
Voq
p822
sVvalue
p823
VBen Simmons
p824
sa(dp825
Vname
p826
Vgs_l
p827
sVvalue
p828
Vmobile-gws-hp.3...173.201.0.226.11.1.0.0.0.0.0.0..0.0....0...1c.1.64.mobile-gws-hp..11.0.0.c1qSWBUjZ74
p829
sasVheaders
p830
(lp831
sVheadersSize
p832
I826
sVbodySize
p833
I0
sVmethod
p834
VGET
p835
sVhttpVersion
p836
VHTTP/1.1
p837
ssVtimings
p838
(dp839
Vcomment
p840
g4
sVreceive
p841
I739
sVsend
p842
I0
sVssl
p843
I-1
sVconnect
p844
I-1
sVdns
p845
I-1
sVwait
p846
I143
sVblocked
p847
I-1
ssVtime
p848
I883
sVresponse
p849
(dp850
Vstatus
p851
I200
sVcomment
p852
g4
sVcookies
p853
(lp854
sVstatusText
p855
VOK
p856
sVcontent
p857
(dp858
VmimeType
p859
Vtext/html; charset=UTF-8
p860
sVcomment
p861
g4
sVsize
p862
I0
ssVheaders
p863
(lp864
sVheadersSize
p865
I363
sVredirectURL
p866
g4
sVbodySize
p867
I153922
sVhttpVersion
p868
VHTTP/1.1
p869
ssa(dp870
Vcomment
p871
g4
sVserverIPAddress
p872
V172.217.6.4
p873
sVpageref
p874
VBen Simmons
p875
sVstartedDateTime
p876
V2017-04-16T08:29:04.488-05:00
p877
sVcache
p878
(dp879
sVrequest
p880
(dp881
Vcomment
p882
g4
sVcookies
p883
(lp884
sVurl
p885
Vhttps://www.google.com/async/irc?vet=10ahUKEwjC3aPDiqnTAhUl6YMKHah1BuYQo0EIgwI..i&ved=0ahUKEwjC3aPDiqnTAhUl6YMKHah1BuYQo0EIgwI&ei=nXHzWIKbPKXSjwSo65mwDg&yv=2&async=iu:1,ved:0ahUKEwjC3aPDiqnTAhUl6YMKHah1BuYQo0EIgwI,_id:irc_async,_pms:qs
p886
sVqueryString
p887
(lp888
(dp889
Vname
p890
Vvet
p891
sVvalue
p892
V10ahUKEwjC3aPDiqnTAhUl6YMKHah1BuYQo0EIgwI..i
p893
sa(dp894
Vname
p895
Vved
p896
sVvalue
p897
V0ahUKEwjC3aPDiqnTAhUl6YMKHah1BuYQo0EIgwI
p898
sa(dp899
Vname
p900
Vei
p901
sVvalue
p902
VnXHzWIKbPKXSjwSo65mwDg
p903
sa(dp904
Vname
p905
Vyv
p906
sVvalue
p907
g64
sa(dp908
Vname
p909
Vasync
p910
sVvalue
p911
Viu:1,ved:0ahUKEwjC3aPDiqnTAhUl6YMKHah1BuYQo0EIgwI,_id:irc_async,_pms:qs
p912
sasVheaders
p913
(lp914
sVheadersSize
p915
I752
sVbodySize
p916
I0
sVmethod
p917
VGET
p918
sVhttpVersion
p919
VHTTP/1.1
p920
ssVtimings
p921
(dp922
Vcomment
p923
g4
sVreceive
p924
I2
sVsend
p925
I0
sVssl
p926
I-1
sVconnect
p927
I-1
sVdns
p928
I-1
sVwait
p929
I37
sVblocked
p930
I-1
ssVtime
p931
I40
sVresponse
p932
(dp933
Vstatus
p934
I200
sVcomment
p935
g4
sVcookies
p936
(lp937
sVstatusText
p938
VOK
p939
sVcontent
p940
(dp941
VmimeType
p942
Vtext/html; charset=UTF-8
p943
sVcomment
p944
g4
sVsize
p945
I0
ssVheaders
p946
(lp947
sVheadersSize
p948
I383
sVredirectURL
p949
g4
sVbodySize
p950
I7792
sVhttpVersion
p951
VHTTP/1.1
p952
ssa(dp953
Vcomment
p954
g4
sVserverIPAddress
p955
V172.217.0.14
p956
sVpageref
p957
VBen Simmons
p958
sVstartedDateTime
p959
V2017-04-16T08:29:04.595-05:00
p960
sVcache
p961
(dp962
sVrequest
p963
(dp964
Vcomment
p965
g4
sVcookies
p966
(lp967
sVurl
p968
Vhttps://encrypted-tbn0.gstatic.com/images?q=tbn:ANd9GcThL50A4mYeoL5ZXJKlNhWcGTn0IomE32PBVcO-4PxC0AHRrluCnwJqeg-V
p969
sVqueryString
p970
(lp971
(dp972
Vname
p973
g727
sVvalue
p974
Vtbn:ANd9GcThL50A4mYeoL5ZXJKlNhWcGTn0IomE32PBVcO-4PxC0AHRrluCnwJqeg-V
p975
sasVheaders
p976
(lp977
sVheadersSize
p978
I427
sVbodySize
p979
I0
sVmethod
p980
VGET
p981
sVhttpVersion
p982
VHTTP/1.1
p983
ssVtimings
p984
(dp985
Vcomment
p986
g4
sVreceive
p987
I0
sVsend
p988
I0
sVssl
p989
I-1
sVconnect
p990
I-1
sVdns
p991
I-1
sVwait
p992
I27
sVblocked
p993
I-1
ssVtime
p994
I28
sVresponse
p995
(dp996
Vstatus
p997
I200
sVcomment
p998
g4
sVcookies
p999
(lp1000
sVstatusText
p1001
VOK
p1002
sVcontent
p1003
(dp1004
VmimeType
p1005
Vimage/jpeg
p1006
sVcomment
p1007
g4
sVsize
p1008
I0
ssVheaders
p1009
(lp1010
sVheadersSize
p1011
I428
sVredirectURL
p1012
g4
sVbodySize
p1013
I6443
sVhttpVersion
p1014
VHTTP/1.1
p1015
ssa(dp1016
Vcomment
p1017
g4
sVserverIPAddress
p1018
V172.217.0.14
p1019
sVpageref
p1020
VBen Simmons
p1021
sVstartedDateTime
p1022
V2017-04-16T08:29:04.596-05:00
p1023
sVcache
p1024
(dp1025
sVrequest
p1026
(dp1027
Vcomment
p1028
g4
sVcookies
p1029
(lp1030
sVurl
p1031
Vhttps://encrypted-tbn2.gstatic.com/images?q=tbn:ANd9GcTu-FQ1g7_REluDlRv9RDDgvfcmLygPNRCoUqH1tsOAzKwN3pdYKT-jbDKn
p1032
sVqueryString
p1033
(lp1034
(dp1035
Vname
p1036
g727
sVvalue
p1037
Vtbn:ANd9GcTu-FQ1g7_REluDlRv9RDDgvfcmLygPNRCoUqH1tsOAzKwN3pdYKT-jbDKn
p1038
sasVheaders
p1039
(lp1040
sVheadersSize
p1041
I427
sVbodySize
p1042
I0
sVmethod
p1043
VGET
p1044
sVhttpVersion
p1045
VHTTP/1.1
p1046
ssVtimings
p1047
(dp1048
Vcomment
p1049
g4
sVreceive
p1050
I0
sVsend
p1051
I0
sVssl
p1052
I-1
sVconnect
p1053
I-1
sVdns
p1054
I-1
sVwait
p1055
I27
sVblocked
p1056
I-1
ssVtime
p1057
I27
sVresponse
p1058
(dp1059
Vstatus
p1060
I200
sVcomment
p1061
g4
sVcookies
p1062
(lp1063
sVstatusText
p1064
VOK
p1065
sVcontent
p1066
(dp1067
VmimeType
p1068
Vimage/jpeg
p1069
sVcomment
p1070
g4
sVsize
p1071
I0
ssVheaders
p1072
(lp1073
sVheadersSize
p1074
I428
sVredirectURL
p1075
g4
sVbodySize
p1076
I4824
sVhttpVersion
p1077
VHTTP/1.1
p1078
ssa(dp1079
Vcomment
p1080
g4
sVserverIPAddress
p1081
V172.217.0.14
p1082
sVpageref
p1083
VBen Simmons
p1084
sVstartedDateTime
p1085
V2017-04-16T08:29:04.947-05:00
p1086
sVcache
p1087
(dp1088
sVrequest
p1089
(dp1090
Vcomment
p1091
g4
sVcookies
p1092
(lp1093
sVurl
p1094
Vhttps://encrypted-tbn0.gstatic.com/images?q=tbn:ANd9GcQI2hX4gxqr2ZC9UbX4AVnrDxO2elLo0CGFmr-RcMCDoSU1f0wXRYNuiOV_
p1095
sVqueryString
p1096
(lp1097
(dp1098
Vname
p1099
g727
sVvalue
p1100
Vtbn:ANd9GcQI2hX4gxqr2ZC9UbX4AVnrDxO2elLo0CGFmr-RcMCDoSU1f0wXRYNuiOV_
p1101
sasVheaders
p1102
(lp1103
sVheadersSize
p1104
I427
sVbodySize
p1105
I0
sVmethod
p1106
VGET
p1107
sVhttpVersion
p1108
VHTTP/1.1
p1109
ssVtimings
p1110
(dp1111
Vcomment
p1112
g4
sVreceive
p1113
I5
sVsend
p1114
I0
sVssl
p1115
I-1
sVconnect
p1116
I-1
sVdns
p1117
I-1
sVwait
p1118
I21
sVblocked
p1119
I-1
ssVtime
p1120
I28
sVresponse
p1121
(dp1122
Vstatus
p1123
I200
sVcomment
p1124
g4
sVcookies
p1125
(lp1126
sVstatusText
p1127
VOK
p1128
sVcontent
p1129
(dp1130
VmimeType
p1131
Vimage/jpeg
p1132
sVcomment
p1133
g4
sVsize
p1134
I0
ssVheaders
p1135
(lp1136
sVheadersSize
p1137
I428
sVredirectURL
p1138
g4
sVbodySize
p1139
I7210
sVhttpVersion
p1140
VHTTP/1.1
p1141
ssa(dp1142
Vcomment
p1143
g4
sVserverIPAddress
p1144
V216.58.216.193
p1145
sVpageref
p1146
VBen Simmons
p1147
sVstartedDateTime
p1148
V2017-04-16T08:29:04.948-05:00
p1149
sVcache
p1150
(dp1151
sVrequest
p1152
(dp1153
Vcomment
p1154
g4
sVcookies
p1155
(lp1156
sVurl
p1157
Vhttps://cdn.ampproject.org/preconnect.gif?0.09861956419169515
p1158
sVqueryString
p1159
(lp1160
(dp1161
Vname
p1162
V0.09861956419169515
p1163
sVvalue
p1164
g4
sasVheaders
p1165
(lp1166
sVheadersSize
p1167
I376
sVbodySize
p1168
I0
sVmethod
p1169
VGET
p1170
sVhttpVersion
p1171
VHTTP/1.1
p1172
ssVtimings
p1173
(dp1174
Vcomment
p1175
g4
sVreceive
p1176
I0
sVsend
p1177
I0
sVssl
p1178
I-1
sVconnect
p1179
I-1
sVdns
p1180
I-1
sVwait
p1181
I29
sVblocked
p1182
I-1
ssVtime
p1183
I29
sVresponse
p1184
(dp1185
Vstatus
p1186
I200
sVcomment
p1187
g4
sVcookies
p1188
(lp1189
sVstatusText
p1190
VOK
p1191
sVcontent
p1192
(dp1193
VmimeType
p1194
Vimage/gif
p1195
sVcomment
p1196
g4
sVsize
p1197
I0
ssVheaders
p1198
(lp1199
sVheadersSize
p1200
I826
sVredirectURL
p1201
g4
sVbodySize
p1202
I37
sVhttpVersion
p1203
VHTTP/1.1
p1204
ssa(dp1205
Vcomment
p1206
g4
sVserverIPAddress
p1207
V172.217.0.14
p1208
sVpageref
p1209
VBen Simmons
p1210
sVstartedDateTime
p1211
V2017-04-16T08:29:04.948-05:00
p1212
sVcache
p1213
(dp1214
sVrequest
p1215
(dp1216
Vcomment
p1217
g4
sVcookies
p1218
(lp1219
sVurl
p1220
Vhttps://encrypted-tbn1.gstatic.com/images?q=tbn:ANd9GcRhozsCw3NBmMU1cD7Z3M69SCHLyQUtvLIWBUXsIHU1vs1_vD2TbhQfm5X2Bg
p1221
sVqueryString
p1222
(lp1223
(dp1224
Vname
p1225
g727
sVvalue
p1226
Vtbn:ANd9GcRhozsCw3NBmMU1cD7Z3M69SCHLyQUtvLIWBUXsIHU1vs1_vD2TbhQfm5X2Bg
p1227
sasVheaders
p1228
(lp1229
sVheadersSize
p1230
I429
sVbodySize
p1231
I0
sVmethod
p1232
VGET
p1233
sVhttpVersion
p1234
VHTTP/1.1
p1235
ssVtimings
p1236
(dp1237
Vcomment
p1238
g4
sVreceive
p1239
I0
sVsend
p1240
I0
sVssl
p1241
I-1
sVconnect
p1242
I-1
sVdns
p1243
I-1
sVwait
p1244
I34
sVblocked
p1245
I-1
ssVtime
p1246
I35
sVresponse
p1247
(dp1248
Vstatus
p1249
I200
sVcomment
p1250
g4
sVcookies
p1251
(lp1252
sVstatusText
p1253
VOK
p1254
sVcontent
p1255
(dp1256
VmimeType
p1257
Vimage/jpeg
p1258
sVcomment
p1259
g4
sVsize
p1260
I0
ssVheaders
p1261
(lp1262
sVheadersSize
p1263
I428
sVredirectURL
p1264
g4
sVbodySize
p1265
I5709
sVhttpVersion
p1266
VHTTP/1.1
p1267
ssa(dp1268
Vcomment
p1269
g4
sVserverIPAddress
p1270
V172.217.6.4
p1271
sVpageref
p1272
VBen Simmons
p1273
sVstartedDateTime
p1274
V2017-04-16T08:29:04.949-05:00
p1275
sVcache
p1276
(dp1277
sVrequest
p1278
(dp1279
Vcomment
p1280
g4
sVcookies
p1281
(lp1282
sVurl
p1283
Vhttps://www.google.com/async/ampfp?vet=10ahUKEwjC3aPDiqnTAhUl6YMKHah1BuYQtZoBCIEC..i&ei=nXHzWIKbPKXSjwSo65mwDg&yv=2&async=_id:ampfp-async,_pms:qs
p1284
sVqueryString
p1285
(lp1286
(dp1287
Vname
p1288
Vvet
p1289
sVvalue
p1290
V10ahUKEwjC3aPDiqnTAhUl6YMKHah1BuYQtZoBCIEC..i
p1291
sa(dp1292
Vname
p1293
Vei
p1294
sVvalue
p1295
VnXHzWIKbPKXSjwSo65mwDg
p1296
sa(dp1297
Vname
p1298
Vyv
p1299
sVvalue
p1300
g64
sa(dp1301
Vname
p1302
Vasync
p1303
sVvalue
p1304
V_id:ampfp-async,_pms:qs
p1305
sasVheaders
p1306
(lp1307
sVheadersSize
p1308
I662
sVbodySize
p1309
I0
sVmethod
p1310
VGET
p1311
sVhttpVersion
p1312
VHTTP/1.1
p1313
ssVtimings
p1314
(dp1315
Vcomment
p1316
g4
sVreceive
p1317
I1
sVsend
p1318
I0
sVssl
p1319
I-1
sVconnect
p1320
I-1
sVdns
p1321
I-1
sVwait
p1322
I40
sVblocked
p1323
I-1
ssVtime
p1324
I42
sVresponse
p1325
(dp1326
Vstatus
p1327
I200
sVcomment
p1328
g4
sVcookies
p1329
(lp1330
sVstatusText
p1331
VOK
p1332
sVcontent
p1333
(dp1334
VmimeType
p1335
Vtext/html; charset=UTF-8
p1336
sVcomment
p1337
g4
sVsize
p1338
I0
ssVheaders
p1339
(lp1340
sVheadersSize
p1341
I383
sVredirectURL
p1342
g4
sVbodySize
p1343
I4527
sVhttpVersion
p1344
VHTTP/1.1
p1345
ssa(dp1346
Vcomment
p1347
g4
sVserverIPAddress
p1348
V172.217.6.4
p1349
sVpageref
p1350
VBen Simmons
p1351
sVstartedDateTime
p1352
V2017-04-16T08:29:04.982-05:00
p1353
sVcache
p1354
(dp1355
sVrequest
p1356
(dp1357
Vcomment
p1358
g4
sVcookies
p1359
(lp1360
sVurl
p1361
Vhttps://www.google.com/gen_204?atyp=i&ct=&cad=&vet=10ahUKEwjC3aPDiqnTAhUl6YMKHah1BuYQ5W0IggEoBg..s&ei=nXHzWIKbPKXSjwSo65mwDg&zx=1492349344506
p1362
sVqueryString
p1363
(lp1364
(dp1365
Vname
p1366
Vatyp
p1367
sVvalue
p1368
g30
sa(dp1369
Vname
p1370
Vct
p1371
sVvalue
p1372
g4
sa(dp1373
Vname
p1374
Vcad
p1375
sVvalue
p1376
g4
sa(dp1377
Vname
p1378
Vvet
p1379
sVvalue
p1380
V10ahUKEwjC3aPDiqnTAhUl6YMKHah1BuYQ5W0IggEoBg..s
p1381
sa(dp1382
Vname
p1383
Vei
p1384
sVvalue
p1385
VnXHzWIKbPKXSjwSo65mwDg
p1386
sa(dp1387
Vname
p1388
Vzx
p1389
sVvalue
p1390
V1492349344506
p1391
sasVheaders
p1392
(lp1393
sVheadersSize
p1394
I658
sVbodySize
p1395
I0
sVmethod
p1396
VGET
p1397
sVhttpVersion
p1398
VHTTP/1.1
p1399
ssVtimings
p1400
(dp1401
Vcomment
p1402
g4
sVreceive
p1403
I0
sVsend
p1404
I0
sVssl
p1405
I21
sVconnect
p1406
I35
sVdns
p1407
I436
sVwait
p1408
I28
sVblocked
p1409
I0
ssVtime
p1410
I500
sVresponse
p1411
(dp1412
Vstatus
p1413
I204
sVcomment
p1414
g4
sVcookies
p1415
(lp1416
sVstatusText
p1417
VNo Content
p1418
sVcontent
p1419
(dp1420
VmimeType
p1421
Vtext/html; charset=UTF-8
p1422
sVcomment
p1423
g4
sVsize
p1424
I0
ssVheaders
p1425
(lp1426
sVheadersSize
p1427
I248
sVredirectURL
p1428
g4
sVbodySize
p1429
I0
sVhttpVersion
p1430
VHTTP/1.1
p1431
ssa(dp1432
Vcomment
p1433
g4
sVserverIPAddress
p1434
V172.217.6.4
p1435
sVpageref
p1436
VBen Simmons
p1437
sVstartedDateTime
p1438
V2017-04-16T08:29:04.988-05:00
p1439
sVcache
p1440
(dp1441
sVrequest
p1442
(dp1443
Vcomment
p1444
g4
sVcookies
p1445
(lp1446
sVurl
p1447
Vhttps://www.google.com/gen_204?atyp=i&ct=&cad=&vet=10ahUKEwjC3aPDiqnTAhUl6YMKHah1BuYQ5W0IeSgD..s&ei=nXHzWIKbPKXSjwSo65mwDg&zx=1492349344495
p1448
sVqueryString
p1449
(lp1450
(dp1451
Vname
p1452
Vatyp
p1453
sVvalue
p1454
g30
sa(dp1455
Vname
p1456
Vct
p1457
sVvalue
p1458
g4
sa(dp1459
Vname
p1460
Vcad
p1461
sVvalue
p1462
g4
sa(dp1463
Vname
p1464
Vvet
p1465
sVvalue
p1466
V10ahUKEwjC3aPDiqnTAhUl6YMKHah1BuYQ5W0IeSgD..s
p1467
sa(dp1468
Vname
p1469
Vei
p1470
sVvalue
p1471
VnXHzWIKbPKXSjwSo65mwDg
p1472
sa(dp1473
Vname
p1474
Vzx
p1475
sVvalue
p1476
V1492349344495
p1477
sasVheaders
p1478
(lp1479
sVheadersSize
p1480
I656
sVbodySize
p1481
I0
sVmethod
p1482
VGET
p1483
sVhttpVersion
p1484
VHTTP/1.1
p1485
ssVtimings
p1486
(dp1487
Vcomment
p1488
g4
sVreceive
p1489
I0
sVsend
p1490
I0
sVssl
p1491
I21
sVconnect
p1492
I41
sVdns
p1493
I447
sVwait
p1494
I42
sVblocked
p1495
I0
ssVtime
p1496
I531
sVresponse
p1497
(dp1498
Vstatus
p1499
I204
sVcomment
p1500
g4
sVcookies
p1501
(lp1502
sVstatusText
p1503
VNo Content
p1504
sVcontent
p1505
(dp1506
VmimeType
p1507
Vtext/html; charset=UTF-8
p1508
sVcomment
p1509
g4
sVsize
p1510
I0
ssVheaders
p1511
(lp1512
sVheadersSize
p1513
I248
sVredirectURL
p1514
g4
sVbodySize
p1515
I0
sVhttpVersion
p1516
VHTTP/1.1
p1517
ssa(dp1518
Vcomment
p1519
g4
sVserverIPAddress
p1520
V172.217.6.4
p1521
sVpageref
p1522
VBen Simmons
p1523
sVstartedDateTime
p1524
V2017-04-16T08:29:04.989-05:00
p1525
sVcache
p1526
(dp1527
sVrequest
p1528
(dp1529
Vcomment
p1530
g4
sVcookies
p1531
(lp1532
sVurl
p1533
Vhttps://www.google.com/gen_204?atyp=i&ct=&cad=&vet=10ahUKEwjC3aPDiqnTAhUl6YMKHah1BuYQ5W0IdigC..s&ei=nXHzWIKbPKXSjwSo65mwDg&zx=1492349344493
p1534
sVqueryString
p1535
(lp1536
(dp1537
Vname
p1538
Vatyp
p1539
sVvalue
p1540
g30
sa(dp1541
Vname
p1542
Vct
p1543
sVvalue
p1544
g4
sa(dp1545
Vname
p1546
Vcad
p1547
sVvalue
p1548
g4
sa(dp1549
Vname
p1550
Vvet
p1551
sVvalue
p1552
V10ahUKEwjC3aPDiqnTAhUl6YMKHah1BuYQ5W0IdigC..s
p1553
sa(dp1554
Vname
p1555
Vei
p1556
sVvalue
p1557
VnXHzWIKbPKXSjwSo65mwDg
p1558
sa(dp1559
Vname
p1560
Vzx
p1561
sVvalue
p1562
V1492349344493
p1563
sasVheaders
p1564
(lp1565
sVheadersSize
p1566
I656
sVbodySize
p1567
I0
sVmethod
p1568
VGET
p1569
sVhttpVersion
p1570
VHTTP/1.1
p1571
ssVtimings
p1572
(dp1573
Vcomment
p1574
g4
sVreceive
p1575
I0
sVsend
p1576
I0
sVssl
p1577
I21
sVconnect
p1578
I40
sVdns
p1579
I449
sVwait
p1580
I41
sVblocked
p1581
I0
ssVtime
p1582
I532
sVresponse
p1583
(dp1584
Vstatus
p1585
I204
sVcomment
p1586
g4
sVcookies
p1587
(lp1588
sVstatusText
p1589
VNo Content
p1590
sVcontent
p1591
(dp1592
VmimeType
p1593
Vtext/html; charset=UTF-8
p1594
sVcomment
p1595
g4
sVsize
p1596
I0
ssVheaders
p1597
(lp1598
sVheadersSize
p1599
I248
sVredirectURL
p1600
g4
sVbodySize
p1601
I0
sVhttpVersion
p1602
VHTTP/1.1
p1603
ssa(dp1604
Vcomment
p1605
g4
sVserverIPAddress
p1606
V172.217.6.4
p1607
sVpageref
p1608
VBen Simmons
p1609
sVstartedDateTime
p1610
V2017-04-16T08:29:04.989-05:00
p1611
sVcache
p1612
(dp1613
sVrequest
p1614
(dp1615
Vcomment
p1616
g4
sVcookies
p1617
(lp1618
sVurl
p1619
Vhttps://www.google.com/gen_204?atyp=i&ct=&cad=&vet=10ahUKEwjC3aPDiqnTAhUl6YMKHah1BuYQ5W0IfCgE..s&ei=nXHzWIKbPKXSjwSo65mwDg&zx=1492349344499
p1620
sVqueryString
p1621
(lp1622
(dp1623
Vname
p1624
Vatyp
p1625
sVvalue
p1626
g30
sa(dp1627
Vname
p1628
Vct
p1629
sVvalue
p1630
g4
sa(dp1631
Vname
p1632
Vcad
p1633
sVvalue
p1634
g4
sa(dp1635
Vname
p1636
Vvet
p1637
sVvalue
p1638
V10ahUKEwjC3aPDiqnTAhUl6YMKHah1BuYQ5W0IfCgE..s
p1639
sa(dp1640
Vname
p1641
Vei
p1642
sVvalue
p1643
VnXHzWIKbPKXSjwSo65mwDg
p1644
sa(dp1645
Vname
p1646
Vzx
p1647
sVvalue
p1648
V1492349344499
p1649
sasVheaders
p1650
(lp1651
sVheadersSize
p1652
I656
sVbodySize
p1653
I0
sVmethod
p1654
VGET
p1655
sVhttpVersion
p1656
VHTTP/1.1
p1657
ssVtimings
p1658
(dp1659
Vcomment
p1660
g4
sVreceive
p1661
I0
sVsend
p1662
I0
sVssl
p1663
I24
sVconnect
p1664
I41
sVdns
p1665
I443
sVwait
p1666
I41
sVblocked
p1667
I0
ssVtime
p1668
I527
sVresponse
p1669
(dp1670
Vstatus
p1671
I204
sVcomment
p1672
g4
sVcookies
p1673
(lp1674
sVstatusText
p1675
VNo Content
p1676
sVcontent
p1677
(dp1678
VmimeType
p1679
Vtext/html; charset=UTF-8
p1680
sVcomment
p1681
g4
sVsize
p1682
I0
ssVheaders
p1683
(lp1684
sVheadersSize
p1685
I248
sVredirectURL
p1686
g4
sVbodySize
p1687
I0
sVhttpVersion
p1688
VHTTP/1.1
p1689
ssa(dp1690
Vcomment
p1691
g4
sVserverIPAddress
p1692
V172.217.6.4
p1693
sVpageref
p1694
VBen Simmons
p1695
sVstartedDateTime
p1696
V2017-04-16T08:29:04.989-05:00
p1697
sVcache
p1698
(dp1699
sVrequest
p1700
(dp1701
Vcomment
p1702
g4
sVcookies
p1703
(lp1704
sVurl
p1705
Vhttps://www.google.com/gen_204?atyp=i&ct=&cad=&vet=10ahUKEwjC3aPDiqnTAhUl6YMKHah1BuYQ5W0IfygF..s&ei=nXHzWIKbPKXSjwSo65mwDg&zx=1492349344502
p1706
sVqueryString
p1707
(lp1708
(dp1709
Vname
p1710
Vatyp
p1711
sVvalue
p1712
g30
sa(dp1713
Vname
p1714
Vct
p1715
sVvalue
p1716
g4
sa(dp1717
Vname
p1718
Vcad
p1719
sVvalue
p1720
g4
sa(dp1721
Vname
p1722
Vvet
p1723
sVvalue
p1724
V10ahUKEwjC3aPDiqnTAhUl6YMKHah1BuYQ5W0IfygF..s
p1725
sa(dp1726
Vname
p1727
Vei
p1728
sVvalue
p1729
VnXHzWIKbPKXSjwSo65mwDg
p1730
sa(dp1731
Vname
p1732
Vzx
p1733
sVvalue
p1734
V1492349344502
p1735
sasVheaders
p1736
(lp1737
sVheadersSize
p1738
I656
sVbodySize
p1739
I0
sVmethod
p1740
VGET
p1741
sVhttpVersion
p1742
VHTTP/1.1
p1743
ssVtimings
p1744
(dp1745
Vcomment
p1746
g4
sVreceive
p1747
I0
sVsend
p1748
I0
sVssl
p1749
I23
sVconnect
p1750
I42
sVdns
p1751
I440
sVwait
p1752
I41
sVblocked
p1753
I0
ssVtime
p1754
I524
sVresponse
p1755
(dp1756
Vstatus
p1757
I204
sVcomment
p1758
g4
sVcookies
p1759
(lp1760
sVstatusText
p1761
VNo Content
p1762
sVcontent
p1763
(dp1764
VmimeType
p1765
Vtext/html; charset=UTF-8
p1766
sVcomment
p1767
g4
sVsize
p1768
I0
ssVheaders
p1769
(lp1770
sVheadersSize
p1771
I248
sVredirectURL
p1772
g4
sVbodySize
p1773
I0
sVhttpVersion
p1774
VHTTP/1.1
p1775
ssa(dp1776
Vcomment
p1777
g4
sVserverIPAddress
p1778
V172.217.6.4
p1779
sVpageref
p1780
VBen Simmons
p1781
sVstartedDateTime
p1782
V2017-04-16T08:29:05.084-05:00
p1783
sVcache
p1784
(dp1785
sVrequest
p1786
(dp1787
Vcomment
p1788
g4
sVcookies
p1789
(lp1790
sVurl
p1791
Vhttps://www.google.com/async/log_amp_item_set?vet=10ahUKEwjJnpvEiqnTAhVr4YMKHYeoCh0QooQBCAE..i&ei=nXHzWIKbPKXSjwSo65mwDg&yv=2&async=num_items:10,_fmt:jspb
p1792
sVqueryString
p1793
(lp1794
(dp1795
Vname
p1796
Vvet
p1797
sVvalue
p1798
V10ahUKEwjJnpvEiqnTAhVr4YMKHYeoCh0QooQBCAE..i
p1799
sa(dp1800
Vname
p1801
Vei
p1802
sVvalue
p1803
VnXHzWIKbPKXSjwSo65mwDg
p1804
sa(dp1805
Vname
p1806
Vyv
p1807
sVvalue
p1808
g64
sa(dp1809
Vname
p1810
Vasync
p1811
sVvalue
p1812
Vnum_items:10,_fmt:jspb
p1813
sasVheaders
p1814
(lp1815
sVheadersSize
p1816
I671
sVbodySize
p1817
I0
sVmethod
p1818
VGET
p1819
sVhttpVersion
p1820
VHTTP/1.1
p1821
ssVtimings
p1822
(dp1823
Vcomment
p1824
g4
sVreceive
p1825
I0
sVsend
p1826
I0
sVssl
p1827
I-1
sVconnect
p1828
I-1
sVdns
p1829
I-1
sVwait
p1830
I32
sVblocked
p1831
I-1
ssVtime
p1832
I32
sVresponse
p1833
(dp1834
Vstatus
p1835
I200
sVcomment
p1836
g4
sVcookies
p1837
(lp1838
sVstatusText
p1839
VOK
p1840
sVcontent
p1841
(dp1842
VmimeType
p1843
Vapplication/json; charset=UTF-8
p1844
sVcomment
p1845
g4
sVsize
p1846
I0
ssVheaders
p1847
(lp1848
sVheadersSize
p1849
I417
sVredirectURL
p1850
g4
sVbodySize
p1851
I181
sVhttpVersion
p1852
VHTTP/1.1
p1853
ssa(dp1854
Vcomment
p1855
g4
sVserverIPAddress
p1856
V216.58.216.193
p1857
sVpageref
p1858
VBen Simmons
p1859
sVstartedDateTime
p1860
V2017-04-16T08:29:05.373-05:00
p1861
sVcache
p1862
(dp1863
sVrequest
p1864
(dp1865
Vcomment
p1866
g4
sVcookies
p1867
(lp1868
sVurl
p1869
Vhttps://www-philly-com.cdn.ampproject.org/v/www.philly.com/philly/columnists/bob_ford/20170416_Will_there_be_Magic_for_76ers_in_putting_Ben_Simmons_at_the_point____Bob_Ford.html?amphtml=y&amp_js_v=9
p1870
sVqueryString
p1871
(lp1872
(dp1873
Vname
p1874
Vamphtml
p1875
sVvalue
p1876
Vy
p1877
sa(dp1878
Vname
p1879
Vamp_js_v
p1880
sVvalue
p1881
V9
p1882
sasVheaders
p1883
(lp1884
sVheadersSize
p1885
I603
sVbodySize
p1886
I0
sVmethod
p1887
VGET
p1888
sVhttpVersion
p1889
VHTTP/1.1
p1890
ssVtimings
p1891
(dp1892
Vcomment
p1893
g4
sVreceive
p1894
I2
sVsend
p1895
I0
sVssl
p1896
I220
sVconnect
p1897
I237
sVdns
p1898
I40
sVwait
p1899
I67
sVblocked
p1900
I0
ssVtime
p1901
I347
sVresponse
p1902
(dp1903
Vstatus
p1904
I200
sVcomment
p1905
g4
sVcookies
p1906
(lp1907
sVstatusText
p1908
VOK
p1909
sVcontent
p1910
(dp1911
VmimeType
p1912
Vtext/html
p1913
sVcomment
p1914
g4
sVsize
p1915
I0
ssVheaders
p1916
(lp1917
sVheadersSize
p1918
I861
sVredirectURL
p1919
g4
sVbodySize
p1920
I8466
sVhttpVersion
p1921
VHTTP/1.1
p1922
ssa(dp1923
Vcomment
p1924
g4
sVserverIPAddress
p1925
V216.58.216.193
p1926
sVpageref
p1927
VBen Simmons
p1928
sVstartedDateTime
p1929
V2017-04-16T08:29:06.194-05:00
p1930
sVcache
p1931
(dp1932
sVrequest
p1933
(dp1934
Vcomment
p1935
g4
sVcookies
p1936
(lp1937
sVurl
p1938
Vhttps://media-philly-com.cdn.ampproject.org/ii/w390/media.philly.com/binary/phillydotcom-logo-dark.svg
p1939
sVqueryString
p1940
(lp1941
sVheaders
p1942
(lp1943
sVheadersSize
p1944
I592
sVbodySize
p1945
I0
sVmethod
p1946
VGET
p1947
sVhttpVersion
p1948
VHTTP/1.1
p1949
ssVtimings
p1950
(dp1951
Vcomment
p1952
g4
sVreceive
p1953
I0
sVsend
p1954
I0
sVssl
p1955
I500
sVconnect
p1956
I520
sVdns
p1957
I63
sVwait
p1958
I34
sVblocked
p1959
I0
ssVtime
p1960
I619
sVresponse
p1961
(dp1962
Vstatus
p1963
I200
sVcomment
p1964
g4
sVcookies
p1965
(lp1966
sVstatusText
p1967
VOK
p1968
sVcontent
p1969
(dp1970
VmimeType
p1971
Vimage/svg+xml
p1972
sVcomment
p1973
g4
sVsize
p1974
I0
ssVheaders
p1975
(lp1976
sVheadersSize
p1977
I879
sVredirectURL
p1978
g4
sVbodySize
p1979
I5475
sVhttpVersion
p1980
VHTTP/1.1
p1981
ssa(dp1982
Vcomment
p1983
g4
sVserverIPAddress
p1984
V216.58.216.193
p1985
sVpageref
p1986
VBen Simmons
p1987
sVstartedDateTime
p1988
V2017-04-16T08:29:06.197-05:00
p1989
sVcache
p1990
(dp1991
sVrequest
p1992
(dp1993
Vcomment
p1994
g4
sVcookies
p1995
(lp1996
sVurl
p1997
Vhttps://media-philly-com.cdn.ampproject.org/i/media.philly.com/images/1200*850/RS_phillyThumb2_1200x800_20170415_SIXR14_HH_376209241.JPG
p1998
sVqueryString
p1999
(lp2000
sVheaders
p2001
(lp2002
sVheadersSize
p2003
I626
sVbodySize
p2004
I0
sVmethod
p2005
VGET
p2006
sVhttpVersion
p2007
VHTTP/1.1
p2008
ssVtimings
p2009
(dp2010
Vcomment
p2011
g4
sVreceive
p2012
I33
sVsend
p2013
I0
sVssl
p2014
I505
sVconnect
p2015
I524
sVdns
p2016
I62
sVwait
p2017
I29
sVblocked
p2018
I0
ssVtime
p2019
I650
sVresponse
p2020
(dp2021
Vstatus
p2022
I200
sVcomment
p2023
g4
sVcookies
p2024
(lp2025
sVstatusText
p2026
VOK
p2027
sVcontent
p2028
(dp2029
VmimeType
p2030
Vimage/jpeg
p2031
sVcomment
p2032
g4
sVsize
p2033
I0
ssVheaders
p2034
(lp2035
sVheadersSize
p2036
I848
sVredirectURL
p2037
g4
sVbodySize
p2038
I70599
sVhttpVersion
p2039
VHTTP/1.1
p2040
ssa(dp2041
Vcomment
p2042
g4
sVserverIPAddress
p2043
V172.217.6.4
p2044
sVpageref
p2045
VBen Simmons
p2046
sVstartedDateTime
p2047
V2017-04-16T08:29:06.285-05:00
p2048
sVcache
p2049
(dp2050
sVrequest
p2051
(dp2052
Vcomment
p2053
g4
sVcookies
p2054
(lp2055
sVurl
p2056
Vhttps://www.google.com/gen_204?s=web&atyp=csi&ei=nXHzWIKbPKXSjwSo65mwDg&imc=59&imn=59&imp=26&adh=&xjs=init.40.14.sb_mob.29.dvl.4.TG8rFw.1.c.1.mbsf.1&ima=19&rt=prt.731,iml.886,xjsls.731,qiml.1000,dcl.843,xjses.920,xjsee.1108,xjs.1110,ol.3129,aft.886,wsrt.160,cst.0,dnst.0,rqst.885,rspt.741,rqstt.3,unt.3,cstt.3,dit.953
p2057
sVqueryString
p2058
(lp2059
(dp2060
Vname
p2061
g57
sVvalue
p2062
Vweb
p2063
sa(dp2064
Vname
p2065
Vatyp
p2066
sVvalue
p2067
Vcsi
p2068
sa(dp2069
Vname
p2070
Vei
p2071
sVvalue
p2072
VnXHzWIKbPKXSjwSo65mwDg
p2073
sa(dp2074
Vname
p2075
Vimc
p2076
sVvalue
p2077
V59
p2078
sa(dp2079
Vname
p2080
Vimn
p2081
sVvalue
p2082
V59
p2083
sa(dp2084
Vname
p2085
Vimp
p2086
sVvalue
p2087
V26
p2088
sa(dp2089
Vname
p2090
Vadh
p2091
sVvalue
p2092
g4
sa(dp2093
Vname
p2094
Vxjs
p2095
sVvalue
p2096
Vinit.40.14.sb_mob.29.dvl.4.TG8rFw.1.c.1.mbsf.1
p2097
sa(dp2098
Vname
p2099
Vima
p2100
sVvalue
p2101
V19
p2102
sa(dp2103
Vname
p2104
Vrt
p2105
sVvalue
p2106
Vprt.731,iml.886,xjsls.731,qiml.1000,dcl.843,xjses.920,xjsee.1108,xjs.1110,ol.3129,aft.886,wsrt.160,cst.0,dnst.0,rqst.885,rspt.741,rqstt.3,unt.3,cstt.3,dit.953
p2107
sasVheaders
p2108
(lp2109
sVheadersSize
p2110
I834
sVbodySize
p2111
I0
sVmethod
p2112
VGET
p2113
sVhttpVersion
p2114
VHTTP/1.1
p2115
ssVtimings
p2116
(dp2117
Vcomment
p2118
g4
sVreceive
p2119
I0
sVsend
p2120
I0
sVssl
p2121
I-1
sVconnect
p2122
I-1
sVdns
p2123
I-1
sVwait
p2124
I29
sVblocked
p2125
I-1
ssVtime
p2126
I29
sVresponse
p2127
(dp2128
Vstatus
p2129
I204
sVcomment
p2130
g4
sVcookies
p2131
(lp2132
sVstatusText
p2133
VNo Content
p2134
sVcontent
p2135
(dp2136
VmimeType
p2137
Vtext/html; charset=UTF-8
p2138
sVcomment
p2139
g4
sVsize
p2140
I0
ssVheaders
p2141
(lp2142
sVheadersSize
p2143
I248
sVredirectURL
p2144
g4
sVbodySize
p2145
I0
sVhttpVersion
p2146
VHTTP/1.1
p2147
ssa(dp2148
Vcomment
p2149
g4
sVserverIPAddress
p2150
V172.217.6.4
p2151
sVpageref
p2152
VBen Simmons
p2153
sVstartedDateTime
p2154
V2017-04-16T08:29:06.559-05:00
p2155
sVcache
p2156
(dp2157
sVrequest
p2158
(dp2159
Vcomment
p2160
g4
sVcookies
p2161
(lp2162
sVurl
p2163
Vhttps://www.google.com/gen_204?atyp=i&ct=slh&cad=&ei=Z3HzWJnXGMaijwSWv6joDA&m=V&t=C&s=1&v=2&pv=0.5523630610067068&me=1:1492349292217,x:4,V,0,0,1280,944:0,N,1,Z3HzWJnXGMaijwSWv6joDA:0,R,1,24,8,155,1249,712:0,R,1,25,8,155,1249,712:0,R,1,28,8,168,1249,40:0,R,1,41,8,220,1249,178:0,R,1,44,0,236,1265,197:0,R,1,84,8,415,1249,20:0,R,1,85,24,415,1217,20:0,R,1,91,8,451,1249,20:0,R,1,101,8,479,1249,20:0,R,1,111,8,519,1249,295:0,R,1,112,0,564,1265,270:0,R,1,147,24,877,1217,94:5,B,3474:13943,e,U&zx=1492349346538
p2164
sVqueryString
p2165
(lp2166
(dp2167
Vname
p2168
Vatyp
p2169
sVvalue
p2170
g30
sa(dp2171
Vname
p2172
Vct
p2173
sVvalue
p2174
Vslh
p2175
sa(dp2176
Vname
p2177
Vcad
p2178
sVvalue
p2179
g4
sa(dp2180
Vname
p2181
Vei
p2182
sVvalue
p2183
VZ3HzWJnXGMaijwSWv6joDA
p2184
sa(dp2185
Vname
p2186
g47
sVvalue
p2187
g49
sa(dp2188
Vname
p2189
g52
sVvalue
p2190
g54
sa(dp2191
Vname
p2192
g57
sVvalue
p2193
g59
sa(dp2194
Vname
p2195
g62
sVvalue
p2196
g64
sa(dp2197
Vname
p2198
Vpv
p2199
sVvalue
p2200
V0.5523630610067068
p2201
sa(dp2202
Vname
p2203
Vme
p2204
sVvalue
p2205
V1:1492349292217,x:4,V,0,0,1280,944:0,N,1,Z3HzWJnXGMaijwSWv6joDA:0,R,1,24,8,155,1249,712:0,R,1,25,8,155,1249,712:0,R,1,28,8,168,1249,40:0,R,1,41,8,220,1249,178:0,R,1,44,0,236,1265,197:0,R,1,84,8,415,1249,20:0,R,1,85,24,415,1217,20:0,R,1,91,8,451,1249,20:0,R,1,101,8,479,1249,20:0,R,1,111,8,519,1249,295:0,R,1,112,0,564,1265,270:0,R,1,147,24,877,1217,94:5,B,3474:13943,e,U
p2206
sa(dp2207
Vname
p2208
Vzx
p2209
sVvalue
p2210
V1492349346538
p2211
sasVheaders
p2212
(lp2213
sVheadersSize
p2214
I1021
sVbodySize
p2215
I0
sVmethod
p2216
VGET
p2217
sVhttpVersion
p2218
VHTTP/1.1
p2219
ssVtimings
p2220
(dp2221
Vcomment
p2222
g4
sVreceive
p2223
I0
sVsend
p2224
I0
sVssl
p2225
I-1
sVconnect
p2226
I-1
sVdns
p2227
I-1
sVwait
p2228
I40
sVblocked
p2229
I-1
ssVtime
p2230
I40
sVresponse
p2231
(dp2232
Vstatus
p2233
I204
sVcomment
p2234
g4
sVcookies
p2235
(lp2236
sVstatusText
p2237
VNo Content
p2238
sVcontent
p2239
(dp2240
VmimeType
p2241
Vtext/html; charset=UTF-8
p2242
sVcomment
p2243
g4
sVsize
p2244
I0
ssVheaders
p2245
(lp2246
sVheadersSize
p2247
I248
sVredirectURL
p2248
g4
sVbodySize
p2249
I0
sVhttpVersion
p2250
VHTTP/1.1
p2251
ssasVversion
p2252
V1.2
p2253
sVpages
p2254
(lp2255
(dp2256
VpageTimings
p2257
(dp2258
Vcomment
p2259
g4
ssVcomment
p2260
g4
sVtitle
p2261
VBen Simmons
p2262
sVid
p2263
VBen Simmons
p2264
sVstartedDateTime
p2265
V2017-04-16T08:29:02.432-05:00
p2266
sasVcreator
p2267
(dp2268
Vcomment
p2269
g4
sVversion
p2270
V2.1.4
p2271
sVname
p2272
VBrowserMob Proxy
p2273
sss.