(dp0
Vlog
p1
(dp2
Vcomment
p3
V
p4
sVentries
p5
(lp6
(dp7
Vcomment
p8
g4
sVserverIPAddress
p9
V172.217.6.4
p10
sVpageref
p11
VThe Shallows
p12
sVstartedDateTime
p13
V2017-04-16T08:41:59.544-05:00
p14
sVcache
p15
(dp16
sVrequest
p17
(dp18
Vcomment
p19
g4
sVcookies
p20
(lp21
sVurl
p22
Vhttps://www.google.com/gen_204?atyp=i&ct=slh&cad=&ei=kHTzWPTzEoq0jwSl0KawBw&m=V&t=C&s=1&v=2&pv=0.8126619140901198&me=1:1492350099120,x:2,V,0,0,1280,944:0,N,1,kHTzWPTzEoq0jwSl0KawBw:0,R,1,24,8,155,1249,866:0,R,1,25,8,155,1249,866:0,R,1,29,1186,155,71,116:0,R,1,38,8,193,1178,40:0,R,1,50,8,271,1249,48:0,R,1,52,8,319,1249,72:0,R,1,58,8,408,1249,20:0,R,1,59,24,408,1217,20:0,R,1,69,8,444,1249,20:0,R,1,75,8,472,1249,20:0,R,1,99,8,797,1249,151:3,B,4504:20417,e,U&zx=1492350119542
p23
sVqueryString
p24
(lp25
(dp26
Vname
p27
Vatyp
p28
sVvalue
p29
Vi
p30
sa(dp31
Vname
p32
Vct
p33
sVvalue
p34
Vslh
p35
sa(dp36
Vname
p37
Vcad
p38
sVvalue
p39
g4
sa(dp40
Vname
p41
Vei
p42
sVvalue
p43
VkHTzWPTzEoq0jwSl0KawBw
p44
sa(dp45
Vname
p46
Vm
p47
sVvalue
p48
VV
p49
sa(dp50
Vname
p51
Vt
p52
sVvalue
p53
VC
p54
sa(dp55
Vname
p56
Vs
p57
sVvalue
p58
V1
p59
sa(dp60
Vname
p61
Vv
p62
sVvalue
p63
V2
p64
sa(dp65
Vname
p66
Vpv
p67
sVvalue
p68
V0.8126619140901198
p69
sa(dp70
Vname
p71
Vme
p72
sVvalue
p73
V1:1492350099120,x:2,V,0,0,1280,944:0,N,1,kHTzWPTzEoq0jwSl0KawBw:0,R,1,24,8,155,1249,866:0,R,1,25,8,155,1249,866:0,R,1,29,1186,155,71,116:0,R,1,38,8,193,1178,40:0,R,1,50,8,271,1249,48:0,R,1,52,8,319,1249,72:0,R,1,58,8,408,1249,20:0,R,1,59,24,408,1217,20:0,R,1,69,8,444,1249,20:0,R,1,75,8,472,1249,20:0,R,1,99,8,797,1249,151:3,B,4504:20417,e,U
p74
sa(dp75
Vname
p76
Vzx
p77
sVvalue
p78
V1492350119542
p79
sasVheaders
p80
(lp81
sVheadersSize
p82
I992
sVbodySize
p83
I0
sVmethod
p84
VGET
p85
sVhttpVersion
p86
VHTTP/1.1
p87
ssVtimings
p88
(dp89
Vcomment
p90
g4
sVreceive
p91
I0
sVsend
p92
I0
sVssl
p93
I-1
sVconnect
p94
I-1
sVdns
p95
I-1
sVwait
p96
I0
sVblocked
p97
I-1
ssVtime
p98
I0
sVresponse
p99
(dp100
Vstatus
p101
I0
sVcomment
p102
g4
sVcookies
p103
(lp104
sV_error
p105
VNo response received
p106
sVstatusText
p107
g4
sVcontent
p108
(dp109
VmimeType
p110
g4
sVcomment
p111
g4
sVsize
p112
I0
ssVheaders
p113
(lp114
sVheadersSize
p115
I-1
sVredirectURL
p116
g4
sVbodySize
p117
I-1
sVhttpVersion
p118
Vunknown
p119
ssa(dp120
Vcomment
p121
g4
sVserverIPAddress
p122
V172.217.6.4
p123
sVpageref
p124
VThe Shallows
p125
sVstartedDateTime
p126
V2017-04-16T08:41:59.545-05:00
p127
sVcache
p128
(dp129
sVrequest
p130
(dp131
Vcomment
p132
g4
sVcookies
p133
(lp134
sVurl
p135
Vhttps://www.google.com/gen_204?atyp=i&ct=slh&cad=&ei=d3TzWK6wMKbUjwTI3aaACQ&m=V&t=C&s=1&v=2&pv=0.862083874440354&me=1:1492350075123,x:1,V,0,0,1280,944:0,N,1,d3TzWK6wMKbUjwTI3aaACQ:0,R,1,25,24,155,1217,114:0,R,1,27,8,290,1249,210:0,R,1,28,8,290,1249,48:0,R,1,30,8,339,1249,80:0,R,1,34,8,420,1249,80:0,R,1,39,24,510,1217,189:0,R,1,47,24,720,1217,199:2,B,3360:21224,e,U&zx=1492350119543
p136
sVqueryString
p137
(lp138
(dp139
Vname
p140
Vatyp
p141
sVvalue
p142
g30
sa(dp143
Vname
p144
Vct
p145
sVvalue
p146
Vslh
p147
sa(dp148
Vname
p149
Vcad
p150
sVvalue
p151
g4
sa(dp152
Vname
p153
Vei
p154
sVvalue
p155
Vd3TzWK6wMKbUjwTI3aaACQ
p156
sa(dp157
Vname
p158
g47
sVvalue
p159
g49
sa(dp160
Vname
p161
g52
sVvalue
p162
g54
sa(dp163
Vname
p164
g57
sVvalue
p165
g59
sa(dp166
Vname
p167
g62
sVvalue
p168
g64
sa(dp169
Vname
p170
Vpv
p171
sVvalue
p172
V0.862083874440354
p173
sa(dp174
Vname
p175
Vme
p176
sVvalue
p177
V1:1492350075123,x:1,V,0,0,1280,944:0,N,1,d3TzWK6wMKbUjwTI3aaACQ:0,R,1,25,24,155,1217,114:0,R,1,27,8,290,1249,210:0,R,1,28,8,290,1249,48:0,R,1,30,8,339,1249,80:0,R,1,34,8,420,1249,80:0,R,1,39,24,510,1217,189:0,R,1,47,24,720,1217,199:2,B,3360:21224,e,U
p178
sa(dp179
Vname
p180
Vzx
p181
sVvalue
p182
V1492350119543
p183
sasVheaders
p184
(lp185
sVheadersSize
p186
I900
sVbodySize
p187
I0
sVmethod
p188
VGET
p189
sVhttpVersion
p190
VHTTP/1.1
p191
ssVtimings
p192
(dp193
Vcomment
p194
g4
sVreceive
p195
I0
sVsend
p196
I0
sVssl
p197
I-1
sVconnect
p198
I-1
sVdns
p199
I-1
sVwait
p200
I0
sVblocked
p201
I-1
ssVtime
p202
I0
sVresponse
p203
(dp204
Vstatus
p205
I0
sVcomment
p206
g4
sVcookies
p207
(lp208
sV_error
p209
VNo response received
p210
sVstatusText
p211
g4
sVcontent
p212
(dp213
VmimeType
p214
g4
sVcomment
p215
g4
sVsize
p216
I0
ssVheaders
p217
(lp218
sVheadersSize
p219
I-1
sVredirectURL
p220
g4
sVbodySize
p221
I-1
sVhttpVersion
p222
Vunknown
p223
ssa(dp224
Vcomment
p225
g4
sVserverIPAddress
p226
V172.217.6.4
p227
sVpageref
p228
VThe Shallows
p229
sVstartedDateTime
p230
V2017-04-16T08:41:59.549-05:00
p231
sVcache
p232
(dp233
sVrequest
p234
(dp235
Vcomment
p236
g4
sVcookies
p237
(lp238
sVurl
p239
Vhttp://www.google.com/
p240
sVqueryString
p241
(lp242
sVheaders
p243
(lp244
sVheadersSize
p245
I613
sVbodySize
p246
I0
sVmethod
p247
VGET
p248
sVhttpVersion
p249
VHTTP/1.1
p250
ssVtimings
p251
(dp252
Vcomment
p253
g4
sVreceive
p254
I0
sVsend
p255
I0
sVssl
p256
I-1
sVconnect
p257
I-1
sVdns
p258
I-1
sVwait
p259
I38
sVblocked
p260
I-1
ssVtime
p261
I38
sVresponse
p262
(dp263
Vstatus
p264
I302
sVcomment
p265
g4
sVcookies
p266
(lp267
sVstatusText
p268
VFound
p269
sVcontent
p270
(dp271
VmimeType
p272
Vtext/html; charset=UTF-8
p273
sVcomment
p274
g4
sVsize
p275
I0
ssVheaders
p276
(lp277
sVheadersSize
p278
I609
sVredirectURL
p279
Vhttps://www.google.com/?gws_rd=ssl
p280
sVbodySize
p281
I231
sVhttpVersion
p282
VHTTP/1.1
p283
ssa(dp284
Vcomment
p285
g4
sVserverIPAddress
p286
V172.217.6.4
p287
sVpageref
p288
VThe Shallows
p289
sVstartedDateTime
p290
V2017-04-16T08:41:59.545-05:00
p291
sVcache
p292
(dp293
sVrequest
p294
(dp295
Vcomment
p296
g4
sVcookies
p297
(lp298
sVurl
p299
Vhttps://www.google.com
p300
sVqueryString
p301
(lp302
sVheaders
p303
(lp304
sVheadersSize
p305
I0
sVbodySize
p306
I0
sVmethod
p307
VCONNECT
p308
sVhttpVersion
p309
VHTTP/1.1
p310
ssVtimings
p311
(dp312
Vcomment
p313
g4
sVreceive
p314
I0
sVsend
p315
I0
sVssl
p316
I-1
sVconnect
p317
I42
sVdns
p318
I0
sVwait
p319
I0
sVblocked
p320
I0
ssVtime
p321
I42
sVresponse
p322
(dp323
Vstatus
p324
I0
sVcomment
p325
g4
sVcookies
p326
(lp327
sV_error
p328
VUnable to connect to host
p329
sVstatusText
p330
g4
sVcontent
p331
(dp332
VmimeType
p333
g4
sVcomment
p334
g4
sVsize
p335
I0
ssVheaders
p336
(lp337
sVheadersSize
p338
I-1
sVredirectURL
p339
g4
sVbodySize
p340
I-1
sVhttpVersion
p341
Vunknown
p342
ssa(dp343
Vcomment
p344
g4
sVserverIPAddress
p345
V172.217.6.4
p346
sVpageref
p347
VThe Shallows
p348
sVstartedDateTime
p349
V2017-04-16T08:41:59.644-05:00
p350
sVcache
p351
(dp352
sVrequest
p353
(dp354
Vcomment
p355
g4
sVcookies
p356
(lp357
sVurl
p358
Vhttps://www.google.com/?gws_rd=ssl
p359
sVqueryString
p360
(lp361
(dp362
Vname
p363
Vgws_rd
p364
sVvalue
p365
Vssl
p366
sasVheaders
p367
(lp368
sVheadersSize
p369
I607
sVbodySize
p370
I0
sVmethod
p371
VGET
p372
sVhttpVersion
p373
VHTTP/1.1
p374
ssVtimings
p375
(dp376
Vcomment
p377
g4
sVreceive
p378
I20
sVsend
p379
I0
sVssl
p380
I22
sVconnect
p381
I50
sVdns
p382
I0
sVwait
p383
I74
sVblocked
p384
I0
ssVtime
p385
I145
sVresponse
p386
(dp387
Vstatus
p388
I200
sVcomment
p389
g4
sVcookies
p390
(lp391
sVstatusText
p392
VOK
p393
sVcontent
p394
(dp395
VmimeType
p396
Vtext/html; charset=UTF-8
p397
sVcomment
p398
g4
sVsize
p399
I0
ssVheaders
p400
(lp401
sVheadersSize
p402
I721
sVredirectURL
p403
g4
sVbodySize
p404
I34287
sVhttpVersion
p405
VHTTP/1.1
p406
ssa(dp407
Vcomment
p408
g4
sVserverIPAddress
p409
V172.217.6.4
p410
sVpageref
p411
VThe Shallows
p412
sVstartedDateTime
p413
V2017-04-16T08:41:59.975-05:00
p414
sVcache
p415
(dp416
sVrequest
p417
(dp418
Vcomment
p419
g4
sVcookies
p420
(lp421
sVurl
p422
Vhttps://www.google.com/gen_204?s=mobilewebhp&atyp=csi&ei=pnTzWOirJuKsjwTdlo9Q&imc=1&imn=1&imp=0&adh=&xjs=init.30.12.sb_mob.24.dvl.3.c.1.jsa.1.mbsf.1&ima=1&rt=xjsls.29,prt.29,iml.29,dcl.49,xjses.101,xjsee.196,xjs.196,ol.234,aft.29,wsrt.195,cst.0,dnst.0,rqst.97,rspt.98,rqstt.102,unt.47,cstt.47,dit.239
p423
sVqueryString
p424
(lp425
(dp426
Vname
p427
g57
sVvalue
p428
Vmobilewebhp
p429
sa(dp430
Vname
p431
Vatyp
p432
sVvalue
p433
Vcsi
p434
sa(dp435
Vname
p436
Vei
p437
sVvalue
p438
VpnTzWOirJuKsjwTdlo9Q
p439
sa(dp440
Vname
p441
Vimc
p442
sVvalue
p443
g59
sa(dp444
Vname
p445
Vimn
p446
sVvalue
p447
g59
sa(dp448
Vname
p449
Vimp
p450
sVvalue
p451
V0
p452
sa(dp453
Vname
p454
Vadh
p455
sVvalue
p456
g4
sa(dp457
Vname
p458
Vxjs
p459
sVvalue
p460
Vinit.30.12.sb_mob.24.dvl.3.c.1.jsa.1.mbsf.1
p461
sa(dp462
Vname
p463
Vima
p464
sVvalue
p465
g59
sa(dp466
Vname
p467
Vrt
p468
sVvalue
p469
Vxjsls.29,prt.29,iml.29,dcl.49,xjses.101,xjsee.196,xjs.196,ol.234,aft.29,wsrt.195,cst.0,dnst.0,rqst.97,rspt.98,rqstt.102,unt.47,cstt.47,dit.239
p470
sasVheaders
p471
(lp472
sVheadersSize
p473
I828
sVbodySize
p474
I0
sVmethod
p475
VGET
p476
sVhttpVersion
p477
VHTTP/1.1
p478
ssVtimings
p479
(dp480
Vcomment
p481
g4
sVreceive
p482
I0
sVsend
p483
I0
sVssl
p484
I-1
sVconnect
p485
I-1
sVdns
p486
I-1
sVwait
p487
I35
sVblocked
p488
I-1
ssVtime
p489
I35
sVresponse
p490
(dp491
Vstatus
p492
I204
sVcomment
p493
g4
sVcookies
p494
(lp495
sVstatusText
p496
VNo Content
p497
sVcontent
p498
(dp499
VmimeType
p500
Vtext/html; charset=UTF-8
p501
sVcomment
p502
g4
sVsize
p503
I0
ssVheaders
p504
(lp505
sVheadersSize
p506
I248
sVredirectURL
p507
g4
sVbodySize
p508
I0
sVhttpVersion
p509
VHTTP/1.1
p510
ssa(dp511
Vcomment
p512
g4
sVserverIPAddress
p513
V172.217.6.4
p514
sVpageref
p515
VThe Shallows
p516
sVstartedDateTime
p517
V2017-04-16T08:42:00.129-05:00
p518
sVcache
p519
(dp520
sVrequest
p521
(dp522
Vcomment
p523
g4
sVcookies
p524
(lp525
sVurl
p526
Vhttps://www.google.com/complete/search?client=mobile-gws-hp&hl=en&gs_rn=64&gs_ri=mobile-gws-hp&sla=1&pfq=tired%20hands%20brewing&gm=602&cp=0&gs_id=1&xhr=t&q=T&tch=1&ech=1&psi=pnTzWOirJuKsjwTdlo9Q.1492350119904.1
p527
sVqueryString
p528
(lp529
(dp530
Vname
p531
Vclient
p532
sVvalue
p533
Vmobile-gws-hp
p534
sa(dp535
Vname
p536
Vhl
p537
sVvalue
p538
Ven
p539
sa(dp540
Vname
p541
Vgs_rn
p542
sVvalue
p543
V64
p544
sa(dp545
Vname
p546
Vgs_ri
p547
sVvalue
p548
Vmobile-gws-hp
p549
sa(dp550
Vname
p551
Vsla
p552
sVvalue
p553
g59
sa(dp554
Vname
p555
Vpfq
p556
sVvalue
p557
Vtired hands brewing
p558
sa(dp559
Vname
p560
Vgm
p561
sVvalue
p562
V602
p563
sa(dp564
Vname
p565
Vcp
p566
sVvalue
p567
g452
sa(dp568
Vname
p569
Vgs_id
p570
sVvalue
p571
g59
sa(dp572
Vname
p573
Vxhr
p574
sVvalue
p575
g52
sa(dp576
Vname
p577
Vq
p578
sVvalue
p579
VT
p580
sa(dp581
Vname
p582
Vtch
p583
sVvalue
p584
g59
sa(dp585
Vname
p586
Vech
p587
sVvalue
p588
g59
sa(dp589
Vname
p590
Vpsi
p591
sVvalue
p592
VpnTzWOirJuKsjwTdlo9Q.1492350119904.1
p593
sasVheaders
p594
(lp595
sVheadersSize
p596
I739
sVbodySize
p597
I0
sVmethod
p598
VGET
p599
sVhttpVersion
p600
VHTTP/1.1
p601
ssVtimings
p602
(dp603
Vcomment
p604
g4
sVreceive
p605
I0
sVsend
p606
I0
sVssl
p607
I-1
sVconnect
p608
I-1
sVdns
p609
I-1
sVwait
p610
I0
sVblocked
p611
I-1
ssVtime
p612
I0
sVresponse
p613
(dp614
Vstatus
p615
I0
sVcomment
p616
g4
sVcookies
p617
(lp618
sV_error
p619
VNo response received
p620
sVstatusText
p621
g4
sVcontent
p622
(dp623
VmimeType
p624
g4
sVcomment
p625
g4
sVsize
p626
I0
ssVheaders
p627
(lp628
sVheadersSize
p629
I-1
sVredirectURL
p630
g4
sVbodySize
p631
I-1
sVhttpVersion
p632
Vunknown
p633
ssa(dp634
Vcomment
p635
g4
sVserverIPAddress
p636
V172.217.6.4
p637
sVpageref
p638
VThe Shallows
p639
sVstartedDateTime
p640
V2017-04-16T08:42:00.248-05:00
p641
sVcache
p642
(dp643
sVrequest
p644
(dp645
Vcomment
p646
g4
sVcookies
p647
(lp648
sVurl
p649
Vhttps://www.google.com/search?site=&source=hp&ei=pnTzWOirJuKsjwTdlo9Q&q=The+Shallows&oq=The+Shallows&gs_l=mobile-gws-hp.3...199.240.0.267.12.1.0.0.0.0.0.0..0.0....0...1c.1.64.mobile-gws-hp..12.0.0.AIm6l9jWnpg
p650
sVqueryString
p651
(lp652
(dp653
Vname
p654
Vsite
p655
sVvalue
p656
g4
sa(dp657
Vname
p658
Vsource
p659
sVvalue
p660
Vhp
p661
sa(dp662
Vname
p663
Vei
p664
sVvalue
p665
VpnTzWOirJuKsjwTdlo9Q
p666
sa(dp667
Vname
p668
g578
sVvalue
p669
VThe Shallows
p670
sa(dp671
Vname
p672
Voq
p673
sVvalue
p674
VThe Shallows
p675
sa(dp676
Vname
p677
Vgs_l
p678
sVvalue
p679
Vmobile-gws-hp.3...199.240.0.267.12.1.0.0.0.0.0.0..0.0....0...1c.1.64.mobile-gws-hp..12.0.0.AIm6l9jWnpg
p680
sasVheaders
p681
(lp682
sVheadersSize
p683
I826
sVbodySize
p684
I0
sVmethod
p685
VGET
p686
sVhttpVersion
p687
VHTTP/1.1
p688
ssVtimings
p689
(dp690
Vcomment
p691
g4
sVreceive
p692
I922
sVsend
p693
I0
sVssl
p694
I16
sVconnect
p695
I46
sVdns
p696
I0
sVwait
p697
I106
sVblocked
p698
I0
ssVtime
p699
I1075
sVresponse
p700
(dp701
Vstatus
p702
I200
sVcomment
p703
g4
sVcookies
p704
(lp705
sVstatusText
p706
VOK
p707
sVcontent
p708
(dp709
VmimeType
p710
Vtext/html; charset=UTF-8
p711
sVcomment
p712
g4
sVsize
p713
I0
ssVheaders
p714
(lp715
sVheadersSize
p716
I363
sVredirectURL
p717
g4
sVbodySize
p718
I203275
sVhttpVersion
p719
VHTTP/1.1
p720
ssa(dp721
Vcomment
p722
g4
sVserverIPAddress
p723
V172.217.6.4
p724
sVpageref
p725
VThe Shallows
p726
sVstartedDateTime
p727
V2017-04-16T08:42:01.270-05:00
p728
sVcache
p729
(dp730
sVrequest
p731
(dp732
Vcomment
p733
g4
sVcookies
p734
(lp735
sVurl
p736
Vhttps://www.google.com/gen_204?atyp=i&ct=&cad=udla=1&ei=p3TzWIekDoKfjwSQi6mQAw&b=0&act=p&ps=0&zx=1492350121215
p737
sVqueryString
p738
(lp739
(dp740
Vname
p741
Vatyp
p742
sVvalue
p743
g30
sa(dp744
Vname
p745
Vct
p746
sVvalue
p747
g4
sa(dp748
Vname
p749
Vcad
p750
sVvalue
p751
Vudla=1
p752
sa(dp753
Vname
p754
Vei
p755
sVvalue
p756
Vp3TzWIekDoKfjwSQi6mQAw
p757
sa(dp758
Vname
p759
Vb
p760
sVvalue
p761
g452
sa(dp762
Vname
p763
Vact
p764
sVvalue
p765
Vp
p766
sa(dp767
Vname
p768
Vps
p769
sVvalue
p770
g452
sa(dp771
Vname
p772
Vzx
p773
sVvalue
p774
V1492350121215
p775
sasVheaders
p776
(lp777
sVheadersSize
p778
I627
sVbodySize
p779
I0
sVmethod
p780
VGET
p781
sVhttpVersion
p782
VHTTP/1.1
p783
ssVtimings
p784
(dp785
Vcomment
p786
g4
sVreceive
p787
I0
sVsend
p788
I1
sVssl
p789
I27
sVconnect
p790
I50
sVdns
p791
I0
sVwait
p792
I35
sVblocked
p793
I0
ssVtime
p794
I87
sVresponse
p795
(dp796
Vstatus
p797
I204
sVcomment
p798
g4
sVcookies
p799
(lp800
sVstatusText
p801
VNo Content
p802
sVcontent
p803
(dp804
VmimeType
p805
Vtext/html; charset=UTF-8
p806
sVcomment
p807
g4
sVsize
p808
I0
ssVheaders
p809
(lp810
sVheadersSize
p811
I248
sVredirectURL
p812
g4
sVbodySize
p813
I0
sVhttpVersion
p814
VHTTP/1.1
p815
ssa(dp816
Vcomment
p817
g4
sVserverIPAddress
p818
V172.217.6.4
p819
sVpageref
p820
VThe Shallows
p821
sVstartedDateTime
p822
V2017-04-16T08:42:01.974-05:00
p823
sVcache
p824
(dp825
sVrequest
p826
(dp827
Vcomment
p828
g4
sVcookies
p829
(lp830
sVurl
p831
Vhttps://www.google.com/xjs/_/js/k=xjs.qs.en_US.pCBXVCvTH3s.O/m=syl,syj,syn,em3,em8,em6,em7,sym,aa,abd,sy2g,sy2k,sy29,sy2j,sy2d,sy2a,sy2c,sy2f,sy2l,sy2m,sy2n,emd,async,sybn,sybi,sybo,sy1f,sy45,sy46,sy9w,sybk,sybj,sybp,sy1g,sy30,sy47,sybm,sybl,sybq,sy1h,sybh,dvl,syep,foot,ipv6,sy32,emj,shm,sy5g,sy5i,sy5k,sykh,tl,sy2x,sy2y,sy2t,sy38,em12,vs,sy5j,sy5h,sy6u,sy66,sy67,sy7d,sy7j,sy4u,sy69,sy89,sy7e,sykk,sykl,tnv,bct,sy48,sy3a,sy3c,sy5b,sy4x,sy4z,sy56,syea,sy4y,syci,syeb,sy4v,sy5d,sya3,sy40,sy76,sye9,syec,sye4,sy5a,sy51,sy5e,sya2,sy65,sye2,sy31,sy4t,sy4w,sy52,sy91,sy9l,sya4,sye6,syg5,sygv,sy5f,sy23,sy3b,sy4h,sy53,sy6d,sydt,sygs,sygw,sygu,sy2u,sygt,sy24,sy34,sygx,kpoe,sy4d,sy4f,sy4c,sy4e,sy4b,sy6w,shrb,sy4g,syd7,dgm,sy9m,sy9n,tbhm,sy1y,syac,sy25,sy99,syl6,emb,em9,ema,sy22,syl7,tbm,syf5,syf6,syf8,sygb,syg9,kptm,syf4,sy26,syfc,syfn,syf7,syff,sy1i,sy6i,sy68,sy8d,sy9b,syfl,syfr,syfq,syfg,sy1j,sy4q,sy5o,sy5r,sy6j,sy6n,sy6p,sy8h,syc7,syc8,syfb,syfj,syfs,syft,syg3,syg7,emn,emo,syg4,syg6,ivg,syhz,ssc,iuci,img,sy41,tcc,sy72,sykr,strm,sygq,kpc,kpci,kpor,kpcb,vrml,sy5x,qif,sy5z,atn,sy4i,sya1,ampfp/am=gCP4LtMEBXQA2RUaq_oFBISzAFA/rt=j/d=0/t=zcms/rs=ACT90oFwm4NZCwIcuuiqmthdlECdBzkhRA
p832
sVqueryString
p833
(lp834
sVheaders
p835
(lp836
sVheadersSize
p837
I1696
sVbodySize
p838
I0
sVmethod
p839
VGET
p840
sVhttpVersion
p841
VHTTP/1.1
p842
ssVtimings
p843
(dp844
Vcomment
p845
g4
sVreceive
p846
I66
sVsend
p847
I0
sVssl
p848
I-1
sVconnect
p849
I-1
sVdns
p850
I-1
sVwait
p851
I17
sVblocked
p852
I-1
ssVtime
p853
I84
sVresponse
p854
(dp855
Vstatus
p856
I200
sVcomment
p857
g4
sVcookies
p858
(lp859
sVstatusText
p860
VOK
p861
sVcontent
p862
(dp863
VmimeType
p864
Vtext/javascript; charset=UTF-8
p865
sVcomment
p866
g4
sVsize
p867
I0
ssVheaders
p868
(lp869
sVheadersSize
p870
I464
sVredirectURL
p871
g4
sVbodySize
p872
I288586
sVhttpVersion
p873
VHTTP/1.1
p874
ssa(dp875
Vcomment
p876
g4
sVserverIPAddress
p877
V172.217.6.4
p878
sVpageref
p879
VThe Shallows
p880
sVstartedDateTime
p881
V2017-04-16T08:42:02.441-05:00
p882
sVcache
p883
(dp884
sVrequest
p885
(dp886
Vcomment
p887
g4
sVcookies
p888
(lp889
sVurl
p890
Vhttps://www.google.com/gen_204?atyp=i&ct=&cad=&uact=1&vet=10ahUKEwjHk_O1janTAhWCz4MKHZBFCjIQ9V8IKigA..s&ei=p3TzWIekDoKfjwSQi6mQAw&zx=1492350122440
p891
sVqueryString
p892
(lp893
(dp894
Vname
p895
Vatyp
p896
sVvalue
p897
g30
sa(dp898
Vname
p899
Vct
p900
sVvalue
p901
g4
sa(dp902
Vname
p903
Vcad
p904
sVvalue
p905
g4
sa(dp906
Vname
p907
Vuact
p908
sVvalue
p909
g59
sa(dp910
Vname
p911
Vvet
p912
sVvalue
p913
V10ahUKEwjHk_O1janTAhWCz4MKHZBFCjIQ9V8IKigA..s
p914
sa(dp915
Vname
p916
Vei
p917
sVvalue
p918
Vp3TzWIekDoKfjwSQi6mQAw
p919
sa(dp920
Vname
p921
Vzx
p922
sVvalue
p923
V1492350122440
p924
sasVheaders
p925
(lp926
sVheadersSize
p927
I663
sVbodySize
p928
I0
sVmethod
p929
VGET
p930
sVhttpVersion
p931
VHTTP/1.1
p932
ssVtimings
p933
(dp934
Vcomment
p935
g4
sVreceive
p936
I0
sVsend
p937
I0
sVssl
p938
I-1
sVconnect
p939
I-1
sVdns
p940
I-1
sVwait
p941
I32
sVblocked
p942
I-1
ssVtime
p943
I32
sVresponse
p944
(dp945
Vstatus
p946
I204
sVcomment
p947
g4
sVcookies
p948
(lp949
sVstatusText
p950
VNo Content
p951
sVcontent
p952
(dp953
VmimeType
p954
Vtext/html; charset=UTF-8
p955
sVcomment
p956
g4
sVsize
p957
I0
ssVheaders
p958
(lp959
sVheadersSize
p960
I248
sVredirectURL
p961
g4
sVbodySize
p962
I0
sVhttpVersion
p963
VHTTP/1.1
p964
ssa(dp965
Vcomment
p966
g4
sVserverIPAddress
p967
V172.217.6.4
p968
sVpageref
p969
VThe Shallows
p970
sVstartedDateTime
p971
V2017-04-16T08:42:02.445-05:00
p972
sVcache
p973
(dp974
sVrequest
p975
(dp976
Vcomment
p977
g4
sVcookies
p978
(lp979
sVurl
p980
Vhttps://www.google.com/gen_204?atyp=i&ct=&cad=&uact=1&vet=10ahUKEwjHk_O1janTAhWCz4MKHZBFCjIQ9V8IKygB..s&ei=p3TzWIekDoKfjwSQi6mQAw&zx=1492350122442
p981
sVqueryString
p982
(lp983
(dp984
Vname
p985
Vatyp
p986
sVvalue
p987
g30
sa(dp988
Vname
p989
Vct
p990
sVvalue
p991
g4
sa(dp992
Vname
p993
Vcad
p994
sVvalue
p995
g4
sa(dp996
Vname
p997
Vuact
p998
sVvalue
p999
g59
sa(dp1000
Vname
p1001
Vvet
p1002
sVvalue
p1003
V10ahUKEwjHk_O1janTAhWCz4MKHZBFCjIQ9V8IKygB..s
p1004
sa(dp1005
Vname
p1006
Vei
p1007
sVvalue
p1008
Vp3TzWIekDoKfjwSQi6mQAw
p1009
sa(dp1010
Vname
p1011
Vzx
p1012
sVvalue
p1013
V1492350122442
p1014
sasVheaders
p1015
(lp1016
sVheadersSize
p1017
I663
sVbodySize
p1018
I0
sVmethod
p1019
VGET
p1020
sVhttpVersion
p1021
VHTTP/1.1
p1022
ssVtimings
p1023
(dp1024
Vcomment
p1025
g4
sVreceive
p1026
I0
sVsend
p1027
I0
sVssl
p1028
I-1
sVconnect
p1029
I-1
sVdns
p1030
I-1
sVwait
p1031
I27
sVblocked
p1032
I-1
ssVtime
p1033
I28
sVresponse
p1034
(dp1035
Vstatus
p1036
I204
sVcomment
p1037
g4
sVcookies
p1038
(lp1039
sVstatusText
p1040
VNo Content
p1041
sVcontent
p1042
(dp1043
VmimeType
p1044
Vtext/html; charset=UTF-8
p1045
sVcomment
p1046
g4
sVsize
p1047
I0
ssVheaders
p1048
(lp1049
sVheadersSize
p1050
I248
sVredirectURL
p1051
g4
sVbodySize
p1052
I0
sVhttpVersion
p1053
VHTTP/1.1
p1054
ssa(dp1055
Vcomment
p1056
g4
sVserverIPAddress
p1057
V172.217.6.4
p1058
sVpageref
p1059
VThe Shallows
p1060
sVstartedDateTime
p1061
V2017-04-16T08:42:02.479-05:00
p1062
sVcache
p1063
(dp1064
sVrequest
p1065
(dp1066
Vcomment
p1067
g4
sVcookies
p1068
(lp1069
sVurl
p1070
Vhttps://www.google.com/gen_204?atyp=i&ct=&cad=&vet=10ahUKEwjHk_O1janTAhWCz4MKHZBFCjIQ5W0IOSgC..s&ei=p3TzWIekDoKfjwSQi6mQAw&zx=1492350122478
p1071
sVqueryString
p1072
(lp1073
(dp1074
Vname
p1075
Vatyp
p1076
sVvalue
p1077
g30
sa(dp1078
Vname
p1079
Vct
p1080
sVvalue
p1081
g4
sa(dp1082
Vname
p1083
Vcad
p1084
sVvalue
p1085
g4
sa(dp1086
Vname
p1087
Vvet
p1088
sVvalue
p1089
V10ahUKEwjHk_O1janTAhWCz4MKHZBFCjIQ5W0IOSgC..s
p1090
sa(dp1091
Vname
p1092
Vei
p1093
sVvalue
p1094
Vp3TzWIekDoKfjwSQi6mQAw
p1095
sa(dp1096
Vname
p1097
Vzx
p1098
sVvalue
p1099
V1492350122478
p1100
sasVheaders
p1101
(lp1102
sVheadersSize
p1103
I656
sVbodySize
p1104
I0
sVmethod
p1105
VGET
p1106
sVhttpVersion
p1107
VHTTP/1.1
p1108
ssVtimings
p1109
(dp1110
Vcomment
p1111
g4
sVreceive
p1112
I0
sVsend
p1113
I0
sVssl
p1114
I-1
sVconnect
p1115
I-1
sVdns
p1116
I-1
sVwait
p1117
I42
sVblocked
p1118
I-1
ssVtime
p1119
I43
sVresponse
p1120
(dp1121
Vstatus
p1122
I204
sVcomment
p1123
g4
sVcookies
p1124
(lp1125
sVstatusText
p1126
VNo Content
p1127
sVcontent
p1128
(dp1129
VmimeType
p1130
Vtext/html; charset=UTF-8
p1131
sVcomment
p1132
g4
sVsize
p1133
I0
ssVheaders
p1134
(lp1135
sVheadersSize
p1136
I248
sVredirectURL
p1137
g4
sVbodySize
p1138
I0
sVhttpVersion
p1139
VHTTP/1.1
p1140
ssa(dp1141
Vcomment
p1142
g4
sVserverIPAddress
p1143
V172.217.6.4
p1144
sVpageref
p1145
VThe Shallows
p1146
sVstartedDateTime
p1147
V2017-04-16T08:42:02.481-05:00
p1148
sVcache
p1149
(dp1150
sVrequest
p1151
(dp1152
Vcomment
p1153
g4
sVcookies
p1154
(lp1155
sVurl
p1156
Vhttps://www.google.com/gen_204?atyp=i&ct=&cad=&vet=10ahUKEwjHk_O1janTAhWCz4MKHZBFCjIQ5W0IPCgD..s&ei=p3TzWIekDoKfjwSQi6mQAw&zx=1492350122480
p1157
sVqueryString
p1158
(lp1159
(dp1160
Vname
p1161
Vatyp
p1162
sVvalue
p1163
g30
sa(dp1164
Vname
p1165
Vct
p1166
sVvalue
p1167
g4
sa(dp1168
Vname
p1169
Vcad
p1170
sVvalue
p1171
g4
sa(dp1172
Vname
p1173
Vvet
p1174
sVvalue
p1175
V10ahUKEwjHk_O1janTAhWCz4MKHZBFCjIQ5W0IPCgD..s
p1176
sa(dp1177
Vname
p1178
Vei
p1179
sVvalue
p1180
Vp3TzWIekDoKfjwSQi6mQAw
p1181
sa(dp1182
Vname
p1183
Vzx
p1184
sVvalue
p1185
V1492350122480
p1186
sasVheaders
p1187
(lp1188
sVheadersSize
p1189
I656
sVbodySize
p1190
I0
sVmethod
p1191
VGET
p1192
sVhttpVersion
p1193
VHTTP/1.1
p1194
ssVtimings
p1195
(dp1196
Vcomment
p1197
g4
sVreceive
p1198
I0
sVsend
p1199
I0
sVssl
p1200
I-1
sVconnect
p1201
I-1
sVdns
p1202
I-1
sVwait
p1203
I42
sVblocked
p1204
I-1
ssVtime
p1205
I42
sVresponse
p1206
(dp1207
Vstatus
p1208
I204
sVcomment
p1209
g4
sVcookies
p1210
(lp1211
sVstatusText
p1212
VNo Content
p1213
sVcontent
p1214
(dp1215
VmimeType
p1216
Vtext/html; charset=UTF-8
p1217
sVcomment
p1218
g4
sVsize
p1219
I0
ssVheaders
p1220
(lp1221
sVheadersSize
p1222
I248
sVredirectURL
p1223
g4
sVbodySize
p1224
I0
sVhttpVersion
p1225
VHTTP/1.1
p1226
ssa(dp1227
Vcomment
p1228
g4
sVserverIPAddress
p1229
V172.217.6.4
p1230
sVpageref
p1231
VThe Shallows
p1232
sVstartedDateTime
p1233
V2017-04-16T08:42:02.510-05:00
p1234
sVcache
p1235
(dp1236
sVrequest
p1237
(dp1238
Vcomment
p1239
g4
sVcookies
p1240
(lp1241
sVurl
p1242
Vhttps://www.google.com/gen_204?atyp=i&ct=&cad=&uact=1&vet=10ahUKEwjHk_O1janTAhWCz4MKHZBFCjIQ9V8ILCgC..s&ei=p3TzWIekDoKfjwSQi6mQAw&zx=1492350122447
p1243
sVqueryString
p1244
(lp1245
(dp1246
Vname
p1247
Vatyp
p1248
sVvalue
p1249
g30
sa(dp1250
Vname
p1251
Vct
p1252
sVvalue
p1253
g4
sa(dp1254
Vname
p1255
Vcad
p1256
sVvalue
p1257
g4
sa(dp1258
Vname
p1259
Vuact
p1260
sVvalue
p1261
g59
sa(dp1262
Vname
p1263
Vvet
p1264
sVvalue
p1265
V10ahUKEwjHk_O1janTAhWCz4MKHZBFCjIQ9V8ILCgC..s
p1266
sa(dp1267
Vname
p1268
Vei
p1269
sVvalue
p1270
Vp3TzWIekDoKfjwSQi6mQAw
p1271
sa(dp1272
Vname
p1273
Vzx
p1274
sVvalue
p1275
V1492350122447
p1276
sasVheaders
p1277
(lp1278
sVheadersSize
p1279
I663
sVbodySize
p1280
I0
sVmethod
p1281
VGET
p1282
sVhttpVersion
p1283
VHTTP/1.1
p1284
ssVtimings
p1285
(dp1286
Vcomment
p1287
g4
sVreceive
p1288
I0
sVsend
p1289
I0
sVssl
p1290
I36
sVconnect
p1291
I60
sVdns
p1292
I0
sVwait
p1293
I27
sVblocked
p1294
I0
ssVtime
p1295
I88
sVresponse
p1296
(dp1297
Vstatus
p1298
I204
sVcomment
p1299
g4
sVcookies
p1300
(lp1301
sVstatusText
p1302
VNo Content
p1303
sVcontent
p1304
(dp1305
VmimeType
p1306
Vtext/html; charset=UTF-8
p1307
sVcomment
p1308
g4
sVsize
p1309
I0
ssVheaders
p1310
(lp1311
sVheadersSize
p1312
I248
sVredirectURL
p1313
g4
sVbodySize
p1314
I0
sVhttpVersion
p1315
VHTTP/1.1
p1316
ssa(dp1317
Vcomment
p1318
g4
sVserverIPAddress
p1319
V172.217.6.4
p1320
sVpageref
p1321
VThe Shallows
p1322
sVstartedDateTime
p1323
V2017-04-16T08:42:02.518-05:00
p1324
sVcache
p1325
(dp1326
sVrequest
p1327
(dp1328
Vcomment
p1329
g4
sVcookies
p1330
(lp1331
sVurl
p1332
Vhttps://www.google.com/async/irc?vet=10ahUKEwjHk_O1janTAhWCz4MKHZBFCjIQo0EI-QI..i&ved=0ahUKEwjHk_O1janTAhWCz4MKHZBFCjIQo0EI-QI&ei=p3TzWIekDoKfjwSQi6mQAw&yv=2&async=iu:1,ved:0ahUKEwjHk_O1janTAhWCz4MKHZBFCjIQo0EI-QI,_id:irc_async,_pms:qs
p1333
sVqueryString
p1334
(lp1335
(dp1336
Vname
p1337
Vvet
p1338
sVvalue
p1339
V10ahUKEwjHk_O1janTAhWCz4MKHZBFCjIQo0EI-QI..i
p1340
sa(dp1341
Vname
p1342
Vved
p1343
sVvalue
p1344
V0ahUKEwjHk_O1janTAhWCz4MKHZBFCjIQo0EI-QI
p1345
sa(dp1346
Vname
p1347
Vei
p1348
sVvalue
p1349
Vp3TzWIekDoKfjwSQi6mQAw
p1350
sa(dp1351
Vname
p1352
Vyv
p1353
sVvalue
p1354
g64
sa(dp1355
Vname
p1356
Vasync
p1357
sVvalue
p1358
Viu:1,ved:0ahUKEwjHk_O1janTAhWCz4MKHZBFCjIQo0EI-QI,_id:irc_async,_pms:qs
p1359
sasVheaders
p1360
(lp1361
sVheadersSize
p1362
I752
sVbodySize
p1363
I0
sVmethod
p1364
VGET
p1365
sVhttpVersion
p1366
VHTTP/1.1
p1367
ssVtimings
p1368
(dp1369
Vcomment
p1370
g4
sVreceive
p1371
I0
sVsend
p1372
I0
sVssl
p1373
I34
sVconnect
p1374
I49
sVdns
p1375
I0
sVwait
p1376
I53
sVblocked
p1377
I0
ssVtime
p1378
I104
sVresponse
p1379
(dp1380
Vstatus
p1381
I200
sVcomment
p1382
g4
sVcookies
p1383
(lp1384
sVstatusText
p1385
VOK
p1386
sVcontent
p1387
(dp1388
VmimeType
p1389
Vtext/html; charset=UTF-8
p1390
sVcomment
p1391
g4
sVsize
p1392
I0
ssVheaders
p1393
(lp1394
sVheadersSize
p1395
I383
sVredirectURL
p1396
g4
sVbodySize
p1397
I7793
sVhttpVersion
p1398
VHTTP/1.1
p1399
ssa(dp1400
Vcomment
p1401
g4
sVserverIPAddress
p1402
V172.217.6.4
p1403
sVpageref
p1404
VThe Shallows
p1405
sVstartedDateTime
p1406
V2017-04-16T08:42:02.523-05:00
p1407
sVcache
p1408
(dp1409
sVrequest
p1410
(dp1411
Vcomment
p1412
g4
sVcookies
p1413
(lp1414
sVurl
p1415
Vhttps://www.google.com/gen_204?atyp=i&ct=&cad=&vet=10ahUKEwjHk_O1janTAhWCz4MKHZBFCjIQ5W0IRSgG..s&ei=p3TzWIekDoKfjwSQi6mQAw&zx=1492350122486
p1416
sVqueryString
p1417
(lp1418
(dp1419
Vname
p1420
Vatyp
p1421
sVvalue
p1422
g30
sa(dp1423
Vname
p1424
Vct
p1425
sVvalue
p1426
g4
sa(dp1427
Vname
p1428
Vcad
p1429
sVvalue
p1430
g4
sa(dp1431
Vname
p1432
Vvet
p1433
sVvalue
p1434
V10ahUKEwjHk_O1janTAhWCz4MKHZBFCjIQ5W0IRSgG..s
p1435
sa(dp1436
Vname
p1437
Vei
p1438
sVvalue
p1439
Vp3TzWIekDoKfjwSQi6mQAw
p1440
sa(dp1441
Vname
p1442
Vzx
p1443
sVvalue
p1444
V1492350122486
p1445
sasVheaders
p1446
(lp1447
sVheadersSize
p1448
I656
sVbodySize
p1449
I0
sVmethod
p1450
VGET
p1451
sVhttpVersion
p1452
VHTTP/1.1
p1453
ssVtimings
p1454
(dp1455
Vcomment
p1456
g4
sVreceive
p1457
I0
sVsend
p1458
I0
sVssl
p1459
I-1
sVconnect
p1460
I-1
sVdns
p1461
I-1
sVwait
p1462
I36
sVblocked
p1463
I-1
ssVtime
p1464
I37
sVresponse
p1465
(dp1466
Vstatus
p1467
I204
sVcomment
p1468
g4
sVcookies
p1469
(lp1470
sVstatusText
p1471
VNo Content
p1472
sVcontent
p1473
(dp1474
VmimeType
p1475
Vtext/html; charset=UTF-8
p1476
sVcomment
p1477
g4
sVsize
p1478
I0
ssVheaders
p1479
(lp1480
sVheadersSize
p1481
I248
sVredirectURL
p1482
g4
sVbodySize
p1483
I0
sVhttpVersion
p1484
VHTTP/1.1
p1485
ssa(dp1486
Vcomment
p1487
g4
sVserverIPAddress
p1488
V172.217.6.4
p1489
sVpageref
p1490
VThe Shallows
p1491
sVstartedDateTime
p1492
V2017-04-16T08:42:02.524-05:00
p1493
sVcache
p1494
(dp1495
sVrequest
p1496
(dp1497
Vcomment
p1498
g4
sVcookies
p1499
(lp1500
sVurl
p1501
Vhttps://www.google.com/gen_204?atyp=i&ct=&cad=&vet=10ahUKEwjHk_O1janTAhWCz4MKHZBFCjIQ5W0ISCgH..s&ei=p3TzWIekDoKfjwSQi6mQAw&zx=1492350122490
p1502
sVqueryString
p1503
(lp1504
(dp1505
Vname
p1506
Vatyp
p1507
sVvalue
p1508
g30
sa(dp1509
Vname
p1510
Vct
p1511
sVvalue
p1512
g4
sa(dp1513
Vname
p1514
Vcad
p1515
sVvalue
p1516
g4
sa(dp1517
Vname
p1518
Vvet
p1519
sVvalue
p1520
V10ahUKEwjHk_O1janTAhWCz4MKHZBFCjIQ5W0ISCgH..s
p1521
sa(dp1522
Vname
p1523
Vei
p1524
sVvalue
p1525
Vp3TzWIekDoKfjwSQi6mQAw
p1526
sa(dp1527
Vname
p1528
Vzx
p1529
sVvalue
p1530
V1492350122490
p1531
sasVheaders
p1532
(lp1533
sVheadersSize
p1534
I656
sVbodySize
p1535
I0
sVmethod
p1536
VGET
p1537
sVhttpVersion
p1538
VHTTP/1.1
p1539
ssVtimings
p1540
(dp1541
Vcomment
p1542
g4
sVreceive
p1543
I0
sVsend
p1544
I0
sVssl
p1545
I-1
sVconnect
p1546
I-1
sVdns
p1547
I-1
sVwait
p1548
I36
sVblocked
p1549
I-1
ssVtime
p1550
I36
sVresponse
p1551
(dp1552
Vstatus
p1553
I204
sVcomment
p1554
g4
sVcookies
p1555
(lp1556
sVstatusText
p1557
VNo Content
p1558
sVcontent
p1559
(dp1560
VmimeType
p1561
Vtext/html; charset=UTF-8
p1562
sVcomment
p1563
g4
sVsize
p1564
I0
ssVheaders
p1565
(lp1566
sVheadersSize
p1567
I248
sVredirectURL
p1568
g4
sVbodySize
p1569
I0
sVhttpVersion
p1570
VHTTP/1.1
p1571
ssa(dp1572
Vcomment
p1573
g4
sVserverIPAddress
p1574
V172.217.6.4
p1575
sVpageref
p1576
VThe Shallows
p1577
sVstartedDateTime
p1578
V2017-04-16T08:42:02.539-05:00
p1579
sVcache
p1580
(dp1581
sVrequest
p1582
(dp1583
Vcomment
p1584
g4
sVcookies
p1585
(lp1586
sVurl
p1587
Vhttps://www.google.com/gen_204?atyp=i&ct=&cad=&vet=10ahUKEwjHk_O1janTAhWCz4MKHZBFCjIQ5W0ISygI..s&ei=p3TzWIekDoKfjwSQi6mQAw&zx=1492350122495
p1588
sVqueryString
p1589
(lp1590
(dp1591
Vname
p1592
Vatyp
p1593
sVvalue
p1594
g30
sa(dp1595
Vname
p1596
Vct
p1597
sVvalue
p1598
g4
sa(dp1599
Vname
p1600
Vcad
p1601
sVvalue
p1602
g4
sa(dp1603
Vname
p1604
Vvet
p1605
sVvalue
p1606
V10ahUKEwjHk_O1janTAhWCz4MKHZBFCjIQ5W0ISygI..s
p1607
sa(dp1608
Vname
p1609
Vei
p1610
sVvalue
p1611
Vp3TzWIekDoKfjwSQi6mQAw
p1612
sa(dp1613
Vname
p1614
Vzx
p1615
sVvalue
p1616
V1492350122495
p1617
sasVheaders
p1618
(lp1619
sVheadersSize
p1620
I656
sVbodySize
p1621
I0
sVmethod
p1622
VGET
p1623
sVhttpVersion
p1624
VHTTP/1.1
p1625
ssVtimings
p1626
(dp1627
Vcomment
p1628
g4
sVreceive
p1629
I0
sVsend
p1630
I0
sVssl
p1631
I-1
sVconnect
p1632
I-1
sVdns
p1633
I-1
sVwait
p1634
I33
sVblocked
p1635
I-1
ssVtime
p1636
I33
sVresponse
p1637
(dp1638
Vstatus
p1639
I204
sVcomment
p1640
g4
sVcookies
p1641
(lp1642
sVstatusText
p1643
VNo Content
p1644
sVcontent
p1645
(dp1646
VmimeType
p1647
Vtext/html; charset=UTF-8
p1648
sVcomment
p1649
g4
sVsize
p1650
I0
ssVheaders
p1651
(lp1652
sVheadersSize
p1653
I248
sVredirectURL
p1654
g4
sVbodySize
p1655
I0
sVhttpVersion
p1656
VHTTP/1.1
p1657
ssa(dp1658
Vcomment
p1659
g4
sVserverIPAddress
p1660
V172.217.6.4
p1661
sVpageref
p1662
VThe Shallows
p1663
sVstartedDateTime
p1664
V2017-04-16T08:42:02.546-05:00
p1665
sVcache
p1666
(dp1667
sVrequest
p1668
(dp1669
Vcomment
p1670
g4
sVcookies
p1671
(lp1672
sVurl
p1673
Vhttps://www.google.com/gen_204?atyp=i&ct=&cad=&vet=10ahUKEwjHk_O1janTAhWCz4MKHZBFCjIQ5W0IPygE..s&ei=p3TzWIekDoKfjwSQi6mQAw&zx=1492350122482
p1674
sVqueryString
p1675
(lp1676
(dp1677
Vname
p1678
Vatyp
p1679
sVvalue
p1680
g30
sa(dp1681
Vname
p1682
Vct
p1683
sVvalue
p1684
g4
sa(dp1685
Vname
p1686
Vcad
p1687
sVvalue
p1688
g4
sa(dp1689
Vname
p1690
Vvet
p1691
sVvalue
p1692
V10ahUKEwjHk_O1janTAhWCz4MKHZBFCjIQ5W0IPygE..s
p1693
sa(dp1694
Vname
p1695
Vei
p1696
sVvalue
p1697
Vp3TzWIekDoKfjwSQi6mQAw
p1698
sa(dp1699
Vname
p1700
Vzx
p1701
sVvalue
p1702
V1492350122482
p1703
sasVheaders
p1704
(lp1705
sVheadersSize
p1706
I656
sVbodySize
p1707
I0
sVmethod
p1708
VGET
p1709
sVhttpVersion
p1710
VHTTP/1.1
p1711
ssVtimings
p1712
(dp1713
Vcomment
p1714
g4
sVreceive
p1715
I0
sVsend
p1716
I0
sVssl
p1717
I29
sVconnect
p1718
I62
sVdns
p1719
I0
sVwait
p1720
I28
sVblocked
p1721
I0
ssVtime
p1722
I90
sVresponse
p1723
(dp1724
Vstatus
p1725
I204
sVcomment
p1726
g4
sVcookies
p1727
(lp1728
sVstatusText
p1729
VNo Content
p1730
sVcontent
p1731
(dp1732
VmimeType
p1733
Vtext/html; charset=UTF-8
p1734
sVcomment
p1735
g4
sVsize
p1736
I0
ssVheaders
p1737
(lp1738
sVheadersSize
p1739
I248
sVredirectURL
p1740
g4
sVbodySize
p1741
I0
sVhttpVersion
p1742
VHTTP/1.1
p1743
ssa(dp1744
Vcomment
p1745
g4
sVserverIPAddress
p1746
V172.217.6.4
p1747
sVpageref
p1748
VThe Shallows
p1749
sVstartedDateTime
p1750
V2017-04-16T08:42:02.546-05:00
p1751
sVcache
p1752
(dp1753
sVrequest
p1754
(dp1755
Vcomment
p1756
g4
sVcookies
p1757
(lp1758
sVurl
p1759
Vhttps://www.google.com/gen_204?atyp=i&ct=&cad=&vet=10ahUKEwjHk_O1janTAhWCz4MKHZBFCjIQ5W0IQigF..s&ei=p3TzWIekDoKfjwSQi6mQAw&zx=1492350122483
p1760
sVqueryString
p1761
(lp1762
(dp1763
Vname
p1764
Vatyp
p1765
sVvalue
p1766
g30
sa(dp1767
Vname
p1768
Vct
p1769
sVvalue
p1770
g4
sa(dp1771
Vname
p1772
Vcad
p1773
sVvalue
p1774
g4
sa(dp1775
Vname
p1776
Vvet
p1777
sVvalue
p1778
V10ahUKEwjHk_O1janTAhWCz4MKHZBFCjIQ5W0IQigF..s
p1779
sa(dp1780
Vname
p1781
Vei
p1782
sVvalue
p1783
Vp3TzWIekDoKfjwSQi6mQAw
p1784
sa(dp1785
Vname
p1786
Vzx
p1787
sVvalue
p1788
V1492350122483
p1789
sasVheaders
p1790
(lp1791
sVheadersSize
p1792
I656
sVbodySize
p1793
I0
sVmethod
p1794
VGET
p1795
sVhttpVersion
p1796
VHTTP/1.1
p1797
ssVtimings
p1798
(dp1799
Vcomment
p1800
g4
sVreceive
p1801
I0
sVsend
p1802
I0
sVssl
p1803
I29
sVconnect
p1804
I60
sVdns
p1805
I0
sVwait
p1806
I28
sVblocked
p1807
I0
ssVtime
p1808
I88
sVresponse
p1809
(dp1810
Vstatus
p1811
I204
sVcomment
p1812
g4
sVcookies
p1813
(lp1814
sVstatusText
p1815
VNo Content
p1816
sVcontent
p1817
(dp1818
VmimeType
p1819
Vtext/html; charset=UTF-8
p1820
sVcomment
p1821
g4
sVsize
p1822
I0
ssVheaders
p1823
(lp1824
sVheadersSize
p1825
I248
sVredirectURL
p1826
g4
sVbodySize
p1827
I0
sVhttpVersion
p1828
VHTTP/1.1
p1829
ssa(dp1830
Vcomment
p1831
g4
sVserverIPAddress
p1832
V216.58.216.193
p1833
sVpageref
p1834
VThe Shallows
p1835
sVstartedDateTime
p1836
V2017-04-16T08:42:02.652-05:00
p1837
sVcache
p1838
(dp1839
sVrequest
p1840
(dp1841
Vcomment
p1842
g4
sVcookies
p1843
(lp1844
sVurl
p1845
Vhttps://cdn.ampproject.org/preconnect.gif?0.4473943584358674
p1846
sVqueryString
p1847
(lp1848
(dp1849
Vname
p1850
V0.4473943584358674
p1851
sVvalue
p1852
g4
sasVheaders
p1853
(lp1854
sVheadersSize
p1855
I375
sVbodySize
p1856
I0
sVmethod
p1857
VGET
p1858
sVhttpVersion
p1859
VHTTP/1.1
p1860
ssVtimings
p1861
(dp1862
Vcomment
p1863
g4
sVreceive
p1864
I0
sVsend
p1865
I0
sVssl
p1866
I-1
sVconnect
p1867
I-1
sVdns
p1868
I-1
sVwait
p1869
I29
sVblocked
p1870
I-1
ssVtime
p1871
I29
sVresponse
p1872
(dp1873
Vstatus
p1874
I200
sVcomment
p1875
g4
sVcookies
p1876
(lp1877
sVstatusText
p1878
VOK
p1879
sVcontent
p1880
(dp1881
VmimeType
p1882
Vimage/gif
p1883
sVcomment
p1884
g4
sVsize
p1885
I0
ssVheaders
p1886
(lp1887
sVheadersSize
p1888
I826
sVredirectURL
p1889
g4
sVbodySize
p1890
I37
sVhttpVersion
p1891
VHTTP/1.1
p1892
ssa(dp1893
Vcomment
p1894
g4
sVserverIPAddress
p1895
V216.58.216.206
p1896
sVpageref
p1897
VThe Shallows
p1898
sVstartedDateTime
p1899
V2017-04-16T08:42:02.669-05:00
p1900
sVcache
p1901
(dp1902
sVrequest
p1903
(dp1904
Vcomment
p1905
g4
sVcookies
p1906
(lp1907
sVurl
p1908
Vhttps://encrypted-tbn0.gstatic.com/images?q=tbn:ANd9GcTP3qPr6xnVlmc25nvAbIIbSYi5ctQaMIVwZjLVQDScD3qNvXwD-xFSsmzo
p1909
sVqueryString
p1910
(lp1911
(dp1912
Vname
p1913
g578
sVvalue
p1914
Vtbn:ANd9GcTP3qPr6xnVlmc25nvAbIIbSYi5ctQaMIVwZjLVQDScD3qNvXwD-xFSsmzo
p1915
sasVheaders
p1916
(lp1917
sVheadersSize
p1918
I427
sVbodySize
p1919
I0
sVmethod
p1920
VGET
p1921
sVhttpVersion
p1922
VHTTP/1.1
p1923
ssVtimings
p1924
(dp1925
Vcomment
p1926
g4
sVreceive
p1927
I2
sVsend
p1928
I0
sVssl
p1929
I-1
sVconnect
p1930
I-1
sVdns
p1931
I-1
sVwait
p1932
I25
sVblocked
p1933
I-1
ssVtime
p1934
I28
sVresponse
p1935
(dp1936
Vstatus
p1937
I200
sVcomment
p1938
g4
sVcookies
p1939
(lp1940
sVstatusText
p1941
VOK
p1942
sVcontent
p1943
(dp1944
VmimeType
p1945
Vimage/jpeg
p1946
sVcomment
p1947
g4
sVsize
p1948
I0
ssVheaders
p1949
(lp1950
sVheadersSize
p1951
I425
sVredirectURL
p1952
g4
sVbodySize
p1953
I7239
sVhttpVersion
p1954
VHTTP/1.1
p1955
ssa(dp1956
Vcomment
p1957
g4
sVserverIPAddress
p1958
V172.217.6.4
p1959
sVpageref
p1960
VThe Shallows
p1961
sVstartedDateTime
p1962
V2017-04-16T08:42:02.828-05:00
p1963
sVcache
p1964
(dp1965
sVrequest
p1966
(dp1967
Vcomment
p1968
g4
sVcookies
p1969
(lp1970
sVurl
p1971
Vhttps://www.google.com/gen_204?s=web&atyp=csi&ei=p3TzWIekDoKfjwSQi6mQAw&imc=64&imn=64&imp=25&adh=&xjs=init.71.14.sb_mob.59.dvl.6.mbsf.2.c.1.r.1&ima=10&rt=prt.1001,iml.1199,xjsls.1001,dcl.1159,xjses.1304,xjsee.1592,xjs.1593,qiml.2486,ol.2445,aft.1193,wsrt.169,cst.0,dnst.0,rqst.1032,rspt.1033,rqstt.50,unt.2,cstt.2,dit.1205
p1972
sVqueryString
p1973
(lp1974
(dp1975
Vname
p1976
g57
sVvalue
p1977
Vweb
p1978
sa(dp1979
Vname
p1980
Vatyp
p1981
sVvalue
p1982
Vcsi
p1983
sa(dp1984
Vname
p1985
Vei
p1986
sVvalue
p1987
Vp3TzWIekDoKfjwSQi6mQAw
p1988
sa(dp1989
Vname
p1990
Vimc
p1991
sVvalue
p1992
V64
p1993
sa(dp1994
Vname
p1995
Vimn
p1996
sVvalue
p1997
V64
p1998
sa(dp1999
Vname
p2000
Vimp
p2001
sVvalue
p2002
V25
p2003
sa(dp2004
Vname
p2005
Vadh
p2006
sVvalue
p2007
g4
sa(dp2008
Vname
p2009
Vxjs
p2010
sVvalue
p2011
Vinit.71.14.sb_mob.59.dvl.6.mbsf.2.c.1.r.1
p2012
sa(dp2013
Vname
p2014
Vima
p2015
sVvalue
p2016
V10
p2017
sa(dp2018
Vname
p2019
Vrt
p2020
sVvalue
p2021
Vprt.1001,iml.1199,xjsls.1001,dcl.1159,xjses.1304,xjsee.1592,xjs.1593,qiml.2486,ol.2445,aft.1193,wsrt.169,cst.0,dnst.0,rqst.1032,rspt.1033,rqstt.50,unt.2,cstt.2,dit.1205
p2022
sasVheaders
p2023
(lp2024
sVheadersSize
p2025
I839
sVbodySize
p2026
I0
sVmethod
p2027
VGET
p2028
sVhttpVersion
p2029
VHTTP/1.1
p2030
ssVtimings
p2031
(dp2032
Vcomment
p2033
g4
sVreceive
p2034
I0
sVsend
p2035
I0
sVssl
p2036
I-1
sVconnect
p2037
I-1
sVdns
p2038
I-1
sVwait
p2039
I26
sVblocked
p2040
I-1
ssVtime
p2041
I26
sVresponse
p2042
(dp2043
Vstatus
p2044
I204
sVcomment
p2045
g4
sVcookies
p2046
(lp2047
sVstatusText
p2048
VNo Content
p2049
sVcontent
p2050
(dp2051
VmimeType
p2052
Vtext/html; charset=UTF-8
p2053
sVcomment
p2054
g4
sVsize
p2055
I0
ssVheaders
p2056
(lp2057
sVheadersSize
p2058
I248
sVredirectURL
p2059
g4
sVbodySize
p2060
I0
sVhttpVersion
p2061
VHTTP/1.1
p2062
ssa(dp2063
Vcomment
p2064
g4
sVserverIPAddress
p2065
V172.217.6.4
p2066
sVpageref
p2067
VThe Shallows
p2068
sVstartedDateTime
p2069
V2017-04-16T08:42:04.633-05:00
p2070
sVcache
p2071
(dp2072
sVrequest
p2073
(dp2074
Vcomment
p2075
g4
sVcookies
p2076
(lp2077
sVurl
p2078
Vhttps://www.google.com/gen_204?atyp=i&ct=slh&cad=&ei=kHTzWPTzEoq0jwSl0KawBw&m=V&t=C&s=1&v=2&pv=0.8126619140901198&me=1:1492350099120,x:2,V,0,0,1280,944:0,N,1,kHTzWPTzEoq0jwSl0KawBw:0,R,1,24,8,155,1249,866:0,R,1,25,8,155,1249,866:0,R,1,29,1186,155,71,116:0,R,1,38,8,193,1178,40:0,R,1,50,8,271,1249,48:0,R,1,52,8,319,1249,72:0,R,1,58,8,408,1249,20:0,R,1,59,24,408,1217,20:0,R,1,69,8,444,1249,20:0,R,1,75,8,472,1249,20:0,R,1,99,8,797,1249,151:3,B,4504:20417,e,U&zx=1492350124632
p2079
sVqueryString
p2080
(lp2081
(dp2082
Vname
p2083
Vatyp
p2084
sVvalue
p2085
g30
sa(dp2086
Vname
p2087
Vct
p2088
sVvalue
p2089
Vslh
p2090
sa(dp2091
Vname
p2092
Vcad
p2093
sVvalue
p2094
g4
sa(dp2095
Vname
p2096
Vei
p2097
sVvalue
p2098
VkHTzWPTzEoq0jwSl0KawBw
p2099
sa(dp2100
Vname
p2101
g47
sVvalue
p2102
g49
sa(dp2103
Vname
p2104
g52
sVvalue
p2105
g54
sa(dp2106
Vname
p2107
g57
sVvalue
p2108
g59
sa(dp2109
Vname
p2110
g62
sVvalue
p2111
g64
sa(dp2112
Vname
p2113
Vpv
p2114
sVvalue
p2115
V0.8126619140901198
p2116
sa(dp2117
Vname
p2118
Vme
p2119
sVvalue
p2120
V1:1492350099120,x:2,V,0,0,1280,944:0,N,1,kHTzWPTzEoq0jwSl0KawBw:0,R,1,24,8,155,1249,866:0,R,1,25,8,155,1249,866:0,R,1,29,1186,155,71,116:0,R,1,38,8,193,1178,40:0,R,1,50,8,271,1249,48:0,R,1,52,8,319,1249,72:0,R,1,58,8,408,1249,20:0,R,1,59,24,408,1217,20:0,R,1,69,8,444,1249,20:0,R,1,75,8,472,1249,20:0,R,1,99,8,797,1249,151:3,B,4504:20417,e,U
p2121
sa(dp2122
Vname
p2123
Vzx
p2124
sVvalue
p2125
V1492350124632
p2126
sasVheaders
p2127
(lp2128
sVheadersSize
p2129
I992
sVbodySize
p2130
I0
sVmethod
p2131
VGET
p2132
sVhttpVersion
p2133
VHTTP/1.1
p2134
ssVtimings
p2135
(dp2136
Vcomment
p2137
g4
sVreceive
p2138
I0
sVsend
p2139
I0
sVssl
p2140
I-1
sVconnect
p2141
I-1
sVdns
p2142
I-1
sVwait
p2143
I199
sVblocked
p2144
I-1
ssVtime
p2145
I200
sVresponse
p2146
(dp2147
Vstatus
p2148
I204
sVcomment
p2149
g4
sVcookies
p2150
(lp2151
sVstatusText
p2152
VNo Content
p2153
sVcontent
p2154
(dp2155
VmimeType
p2156
Vtext/html; charset=UTF-8
p2157
sVcomment
p2158
g4
sVsize
p2159
I0
ssVheaders
p2160
(lp2161
sVheadersSize
p2162
I248
sVredirectURL
p2163
g4
sVbodySize
p2164
I0
sVhttpVersion
p2165
VHTTP/1.1
p2166
ssasVversion
p2167
V1.2
p2168
sVpages
p2169
(lp2170
(dp2171
VpageTimings
p2172
(dp2173
Vcomment
p2174
g4
ssVcomment
p2175
g4
sVtitle
p2176
VThe Shallows
p2177
sVid
p2178
VThe Shallows
p2179
sVstartedDateTime
p2180
V2017-04-16T08:41:59.535-05:00
p2181
sasVcreator
p2182
(dp2183
Vcomment
p2184
g4
sVversion
p2185
V2.1.4
p2186
sVname
p2187
VBrowserMob Proxy
p2188
sss.