(dp0
Vlog
p1
(dp2
Vcomment
p3
V
p4
sVentries
p5
(lp6
(dp7
Vcomment
p8
g4
sVserverIPAddress
p9
V172.217.6.4
p10
sVpageref
p11
VVolvo
p12
sVstartedDateTime
p13
V2017-04-16T08:47:49.049-05:00
p14
sVcache
p15
(dp16
sVrequest
p17
(dp18
Vcomment
p19
g4
sVcookies
p20
(lp21
sVurl
p22
Vhttps://www.google.com/gen_204?atyp=i&ct=slh&cad=&ei=8XXzWKG2E-GwjwT3iIC4AQ&m=V&t=C&s=1&v=2&pv=0.48027439534246896&me=1:1492350452708,x:2,V,0,0,1280,944:0,N,1,8XXzWKG2E-GwjwT3iIC4AQ:0,R,1,24,8,155,1249,337:0,R,1,25,8,155,1249,317:0,R,1,26,8,155,1249,90:0,R,1,47,8,502,1249,393:0,R,1,48,8,502,1249,393:0,R,1,51,0,566,1265,349:0,R,1,73,8,905,1249,359:0,R,1,74,8,905,1249,359:0,R,1,78,1141,905,116,116:0,R,1,87,8,943,1133,40:1,B,3697:16336,e,U&zx=1492350469048
p23
sVqueryString
p24
(lp25
(dp26
Vname
p27
Vatyp
p28
sVvalue
p29
Vi
p30
sa(dp31
Vname
p32
Vct
p33
sVvalue
p34
Vslh
p35
sa(dp36
Vname
p37
Vcad
p38
sVvalue
p39
g4
sa(dp40
Vname
p41
Vei
p42
sVvalue
p43
V8XXzWKG2E-GwjwT3iIC4AQ
p44
sa(dp45
Vname
p46
Vm
p47
sVvalue
p48
VV
p49
sa(dp50
Vname
p51
Vt
p52
sVvalue
p53
VC
p54
sa(dp55
Vname
p56
Vs
p57
sVvalue
p58
V1
p59
sa(dp60
Vname
p61
Vv
p62
sVvalue
p63
V2
p64
sa(dp65
Vname
p66
Vpv
p67
sVvalue
p68
V0.48027439534246896
p69
sa(dp70
Vname
p71
Vme
p72
sVvalue
p73
V1:1492350452708,x:2,V,0,0,1280,944:0,N,1,8XXzWKG2E-GwjwT3iIC4AQ:0,R,1,24,8,155,1249,337:0,R,1,25,8,155,1249,317:0,R,1,26,8,155,1249,90:0,R,1,47,8,502,1249,393:0,R,1,48,8,502,1249,393:0,R,1,51,0,566,1265,349:0,R,1,73,8,905,1249,359:0,R,1,74,8,905,1249,359:0,R,1,78,1141,905,116,116:0,R,1,87,8,943,1133,40:1,B,3697:16336,e,U
p74
sa(dp75
Vname
p76
Vzx
p77
sVvalue
p78
V1492350469048
p79
sasVheaders
p80
(lp81
sVheadersSize
p82
I974
sVbodySize
p83
I0
sVmethod
p84
VGET
p85
sVhttpVersion
p86
VHTTP/1.1
p87
ssVtimings
p88
(dp89
Vcomment
p90
g4
sVreceive
p91
I0
sVsend
p92
I0
sVssl
p93
I-1
sVconnect
p94
I-1
sVdns
p95
I-1
sVwait
p96
I0
sVblocked
p97
I-1
ssVtime
p98
I0
sVresponse
p99
(dp100
Vstatus
p101
I0
sVcomment
p102
g4
sVcookies
p103
(lp104
sV_error
p105
VNo response received
p106
sVstatusText
p107
g4
sVcontent
p108
(dp109
VmimeType
p110
g4
sVcomment
p111
g4
sVsize
p112
I0
ssVheaders
p113
(lp114
sVheadersSize
p115
I-1
sVredirectURL
p116
g4
sVbodySize
p117
I-1
sVhttpVersion
p118
Vunknown
p119
ssa(dp120
Vcomment
p121
g4
sVserverIPAddress
p122
V172.217.6.4
p123
sVpageref
p124
VVolvo
p125
sVstartedDateTime
p126
V2017-04-16T08:47:49.053-05:00
p127
sVcache
p128
(dp129
sVrequest
p130
(dp131
Vcomment
p132
g4
sVcookies
p133
(lp134
sVurl
p135
Vhttp://www.google.com/
p136
sVqueryString
p137
(lp138
sVheaders
p139
(lp140
sVheadersSize
p141
I613
sVbodySize
p142
I0
sVmethod
p143
VGET
p144
sVhttpVersion
p145
VHTTP/1.1
p146
ssVtimings
p147
(dp148
Vcomment
p149
g4
sVreceive
p150
I0
sVsend
p151
I0
sVssl
p152
I-1
sVconnect
p153
I-1
sVdns
p154
I-1
sVwait
p155
I35
sVblocked
p156
I-1
ssVtime
p157
I35
sVresponse
p158
(dp159
Vstatus
p160
I302
sVcomment
p161
g4
sVcookies
p162
(lp163
sVstatusText
p164
VFound
p165
sVcontent
p166
(dp167
VmimeType
p168
Vtext/html; charset=UTF-8
p169
sVcomment
p170
g4
sVsize
p171
I0
ssVheaders
p172
(lp173
sVheadersSize
p174
I609
sVredirectURL
p175
Vhttps://www.google.com/?gws_rd=ssl
p176
sVbodySize
p177
I231
sVhttpVersion
p178
VHTTP/1.1
p179
ssa(dp180
Vcomment
p181
g4
sVserverIPAddress
p182
V172.217.6.4
p183
sVpageref
p184
VVolvo
p185
sVstartedDateTime
p186
V2017-04-16T08:47:49.093-05:00
p187
sVcache
p188
(dp189
sVrequest
p190
(dp191
Vcomment
p192
g4
sVcookies
p193
(lp194
sVurl
p195
Vhttps://www.google.com/?gws_rd=ssl
p196
sVqueryString
p197
(lp198
(dp199
Vname
p200
Vgws_rd
p201
sVvalue
p202
Vssl
p203
sasVheaders
p204
(lp205
sVheadersSize
p206
I607
sVbodySize
p207
I0
sVmethod
p208
VGET
p209
sVhttpVersion
p210
VHTTP/1.1
p211
ssVtimings
p212
(dp213
Vcomment
p214
g4
sVreceive
p215
I18
sVsend
p216
I0
sVssl
p217
I-1
sVconnect
p218
I-1
sVdns
p219
I-1
sVwait
p220
I420
sVblocked
p221
I-1
ssVtime
p222
I438
sVresponse
p223
(dp224
Vstatus
p225
I200
sVcomment
p226
g4
sVcookies
p227
(lp228
sVstatusText
p229
VOK
p230
sVcontent
p231
(dp232
VmimeType
p233
Vtext/html; charset=UTF-8
p234
sVcomment
p235
g4
sVsize
p236
I0
ssVheaders
p237
(lp238
sVheadersSize
p239
I721
sVredirectURL
p240
g4
sVbodySize
p241
I34292
sVhttpVersion
p242
VHTTP/1.1
p243
ssa(dp244
Vcomment
p245
g4
sVserverIPAddress
p246
V172.217.6.4
p247
sVpageref
p248
VVolvo
p249
sVstartedDateTime
p250
V2017-04-16T08:47:50.983-05:00
p251
sVcache
p252
(dp253
sVrequest
p254
(dp255
Vcomment
p256
g4
sVcookies
p257
(lp258
sVurl
p259
Vhttps://www.google.com/gen_204?atyp=i&ct=slh&cad=&ei=8XXzWKG2E-GwjwT3iIC4AQ&s=2&v=2&pv=0.48027439534246896&me=16:1492350470979,e,H&zx=1492350470981
p260
sVqueryString
p261
(lp262
(dp263
Vname
p264
Vatyp
p265
sVvalue
p266
g30
sa(dp267
Vname
p268
Vct
p269
sVvalue
p270
Vslh
p271
sa(dp272
Vname
p273
Vcad
p274
sVvalue
p275
g4
sa(dp276
Vname
p277
Vei
p278
sVvalue
p279
V8XXzWKG2E-GwjwT3iIC4AQ
p280
sa(dp281
Vname
p282
g57
sVvalue
p283
g64
sa(dp284
Vname
p285
g62
sVvalue
p286
g64
sa(dp287
Vname
p288
Vpv
p289
sVvalue
p290
V0.48027439534246896
p291
sa(dp292
Vname
p293
Vme
p294
sVvalue
p295
V16:1492350470979,e,H
p296
sa(dp297
Vname
p298
Vzx
p299
sVvalue
p300
V1492350470981
p301
sasVheaders
p302
(lp303
sVheadersSize
p304
I664
sVbodySize
p305
I0
sVmethod
p306
VGET
p307
sVhttpVersion
p308
VHTTP/1.1
p309
ssVtimings
p310
(dp311
Vcomment
p312
g4
sVreceive
p313
I0
sVsend
p314
I0
sVssl
p315
I-1
sVconnect
p316
I-1
sVdns
p317
I-1
sVwait
p318
I27
sVblocked
p319
I-1
ssVtime
p320
I27
sVresponse
p321
(dp322
Vstatus
p323
I204
sVcomment
p324
g4
sVcookies
p325
(lp326
sVstatusText
p327
VNo Content
p328
sVcontent
p329
(dp330
VmimeType
p331
Vtext/html; charset=UTF-8
p332
sVcomment
p333
g4
sVsize
p334
I0
ssVheaders
p335
(lp336
sVheadersSize
p337
I248
sVredirectURL
p338
g4
sVbodySize
p339
I0
sVhttpVersion
p340
VHTTP/1.1
p341
ssa(dp342
Vcomment
p343
g4
sVserverIPAddress
p344
V172.217.6.4
p345
sVpageref
p346
VVolvo
p347
sVstartedDateTime
p348
V2017-04-16T08:47:51.333-05:00
p349
sVcache
p350
(dp351
sVrequest
p352
(dp353
Vcomment
p354
g4
sVcookies
p355
(lp356
sVurl
p357
Vhttps://www.google.com/gen_204?s=mobilewebhp&atyp=csi&ei=BHbzWN2xFqa7jwTJvrfABg&imc=1&imn=1&imp=0&adh=&xjs=init.34.12.sb_mob.25.dvl.4.c.1.jsa.1.mbsf.1&ima=1&rt=xjsls.10,prt.11,iml.11,dcl.37,xjses.102,xjsee.199,xjs.199,ol.232,aft.11,wsrt.2045,cst.0,dnst.0,rqst.440,rspt.19,rqstt.46,unt.43,cstt.43,dit.2066
p358
sVqueryString
p359
(lp360
(dp361
Vname
p362
g57
sVvalue
p363
Vmobilewebhp
p364
sa(dp365
Vname
p366
Vatyp
p367
sVvalue
p368
Vcsi
p369
sa(dp370
Vname
p371
Vei
p372
sVvalue
p373
VBHbzWN2xFqa7jwTJvrfABg
p374
sa(dp375
Vname
p376
Vimc
p377
sVvalue
p378
g59
sa(dp379
Vname
p380
Vimn
p381
sVvalue
p382
g59
sa(dp383
Vname
p384
Vimp
p385
sVvalue
p386
V0
p387
sa(dp388
Vname
p389
Vadh
p390
sVvalue
p391
g4
sa(dp392
Vname
p393
Vxjs
p394
sVvalue
p395
Vinit.34.12.sb_mob.25.dvl.4.c.1.jsa.1.mbsf.1
p396
sa(dp397
Vname
p398
Vima
p399
sVvalue
p400
g59
sa(dp401
Vname
p402
Vrt
p403
sVvalue
p404
Vxjsls.10,prt.11,iml.11,dcl.37,xjses.102,xjsee.199,xjs.199,ol.232,aft.11,wsrt.2045,cst.0,dnst.0,rqst.440,rspt.19,rqstt.46,unt.43,cstt.43,dit.2066
p405
sasVheaders
p406
(lp407
sVheadersSize
p408
I832
sVbodySize
p409
I0
sVmethod
p410
VGET
p411
sVhttpVersion
p412
VHTTP/1.1
p413
ssVtimings
p414
(dp415
Vcomment
p416
g4
sVreceive
p417
I0
sVsend
p418
I0
sVssl
p419
I-1
sVconnect
p420
I-1
sVdns
p421
I-1
sVwait
p422
I28
sVblocked
p423
I-1
ssVtime
p424
I28
sVresponse
p425
(dp426
Vstatus
p427
I204
sVcomment
p428
g4
sVcookies
p429
(lp430
sVstatusText
p431
VNo Content
p432
sVcontent
p433
(dp434
VmimeType
p435
Vtext/html; charset=UTF-8
p436
sVcomment
p437
g4
sVsize
p438
I0
ssVheaders
p439
(lp440
sVheadersSize
p441
I248
sVredirectURL
p442
g4
sVbodySize
p443
I0
sVhttpVersion
p444
VHTTP/1.1
p445
ssa(dp446
Vcomment
p447
g4
sVserverIPAddress
p448
V172.217.6.4
p449
sVpageref
p450
VVolvo
p451
sVstartedDateTime
p452
V2017-04-16T08:47:51.479-05:00
p453
sVcache
p454
(dp455
sVrequest
p456
(dp457
Vcomment
p458
g4
sVcookies
p459
(lp460
sVurl
p461
Vhttps://www.google.com/complete/search?client=mobile-gws-hp&hl=en&gs_rn=64&gs_ri=mobile-gws-hp&sla=1&gm=602&cp=0&gs_id=1&xhr=t&q=V&tch=1&ech=1&psi=BHbzWN2xFqa7jwTJvrfABg.1492350471259.1
p462
sVqueryString
p463
(lp464
(dp465
Vname
p466
Vclient
p467
sVvalue
p468
Vmobile-gws-hp
p469
sa(dp470
Vname
p471
Vhl
p472
sVvalue
p473
Ven
p474
sa(dp475
Vname
p476
Vgs_rn
p477
sVvalue
p478
V64
p479
sa(dp480
Vname
p481
Vgs_ri
p482
sVvalue
p483
Vmobile-gws-hp
p484
sa(dp485
Vname
p486
Vsla
p487
sVvalue
p488
g59
sa(dp489
Vname
p490
Vgm
p491
sVvalue
p492
V602
p493
sa(dp494
Vname
p495
Vcp
p496
sVvalue
p497
g387
sa(dp498
Vname
p499
Vgs_id
p500
sVvalue
p501
g59
sa(dp502
Vname
p503
Vxhr
p504
sVvalue
p505
g52
sa(dp506
Vname
p507
Vq
p508
sVvalue
p509
g49
sa(dp510
Vname
p511
Vtch
p512
sVvalue
p513
g59
sa(dp514
Vname
p515
Vech
p516
sVvalue
p517
g59
sa(dp518
Vname
p519
Vpsi
p520
sVvalue
p521
VBHbzWN2xFqa7jwTJvrfABg.1492350471259.1
p522
sasVheaders
p523
(lp524
sVheadersSize
p525
I713
sVbodySize
p526
I0
sVmethod
p527
VGET
p528
sVhttpVersion
p529
VHTTP/1.1
p530
ssVtimings
p531
(dp532
Vcomment
p533
g4
sVreceive
p534
I0
sVsend
p535
I0
sVssl
p536
I-1
sVconnect
p537
I-1
sVdns
p538
I-1
sVwait
p539
I0
sVblocked
p540
I-1
ssVtime
p541
I0
sVresponse
p542
(dp543
Vstatus
p544
I0
sVcomment
p545
g4
sVcookies
p546
(lp547
sV_error
p548
VNo response received
p549
sVstatusText
p550
g4
sVcontent
p551
(dp552
VmimeType
p553
g4
sVcomment
p554
g4
sVsize
p555
I0
ssVheaders
p556
(lp557
sVheadersSize
p558
I-1
sVredirectURL
p559
g4
sVbodySize
p560
I-1
sVhttpVersion
p561
Vunknown
p562
ssa(dp563
Vcomment
p564
g4
sVserverIPAddress
p565
V172.217.6.4
p566
sVpageref
p567
VVolvo
p568
sVstartedDateTime
p569
V2017-04-16T08:47:51.531-05:00
p570
sVcache
p571
(dp572
sVrequest
p573
(dp574
Vcomment
p575
g4
sVcookies
p576
(lp577
sVurl
p578
Vhttps://www.google.com/search?site=&source=hp&ei=BHbzWN2xFqa7jwTJvrfABg&q=Volvo&oq=Volvo&gs_l=mobile-gws-hp.3...194.208.0.241.5.1.0.0.0.0.0.0..0.0....0...1c.1.64.mobile-gws-hp..5.0.0.JbtfGiPl8GM
p579
sVqueryString
p580
(lp581
(dp582
Vname
p583
Vsite
p584
sVvalue
p585
g4
sa(dp586
Vname
p587
Vsource
p588
sVvalue
p589
Vhp
p590
sa(dp591
Vname
p592
Vei
p593
sVvalue
p594
VBHbzWN2xFqa7jwTJvrfABg
p595
sa(dp596
Vname
p597
g508
sVvalue
p598
VVolvo
p599
sa(dp600
Vname
p601
Voq
p602
sVvalue
p603
VVolvo
p604
sa(dp605
Vname
p606
Vgs_l
p607
sVvalue
p608
Vmobile-gws-hp.3...194.208.0.241.5.1.0.0.0.0.0.0..0.0....0...1c.1.64.mobile-gws-hp..5.0.0.JbtfGiPl8GM
p609
sasVheaders
p610
(lp611
sVheadersSize
p612
I812
sVbodySize
p613
I0
sVmethod
p614
VGET
p615
sVhttpVersion
p616
VHTTP/1.1
p617
ssVtimings
p618
(dp619
Vcomment
p620
g4
sVreceive
p621
I1498
sVsend
p622
I0
sVssl
p623
I-1
sVconnect
p624
I-1
sVdns
p625
I-1
sVwait
p626
I113
sVblocked
p627
I-1
ssVtime
p628
I1612
sVresponse
p629
(dp630
Vstatus
p631
I200
sVcomment
p632
g4
sVcookies
p633
(lp634
sVstatusText
p635
VOK
p636
sVcontent
p637
(dp638
VmimeType
p639
Vtext/html; charset=UTF-8
p640
sVcomment
p641
g4
sVsize
p642
I0
ssVheaders
p643
(lp644
sVheadersSize
p645
I363
sVredirectURL
p646
g4
sVbodySize
p647
I116903
sVhttpVersion
p648
VHTTP/1.1
p649
ssa(dp650
Vcomment
p651
g4
sVserverIPAddress
p652
V172.217.6.4
p653
sVpageref
p654
VVolvo
p655
sVstartedDateTime
p656
V2017-04-16T08:47:53.102-05:00
p657
sVcache
p658
(dp659
sVrequest
p660
(dp661
Vcomment
p662
g4
sVcookies
p663
(lp664
sVurl
p665
Vhttps://www.google.com/gen_204?atyp=i&ct=&cad=udla=1&ei=BnbzWP-oH6vLjwSAy63QCA&b=0&act=p&ps=0&zx=1492350473099
p666
sVqueryString
p667
(lp668
(dp669
Vname
p670
Vatyp
p671
sVvalue
p672
g30
sa(dp673
Vname
p674
Vct
p675
sVvalue
p676
g4
sa(dp677
Vname
p678
Vcad
p679
sVvalue
p680
Vudla=1
p681
sa(dp682
Vname
p683
Vei
p684
sVvalue
p685
VBnbzWP-oH6vLjwSAy63QCA
p686
sa(dp687
Vname
p688
Vb
p689
sVvalue
p690
g387
sa(dp691
Vname
p692
Vact
p693
sVvalue
p694
Vp
p695
sa(dp696
Vname
p697
Vps
p698
sVvalue
p699
g387
sa(dp700
Vname
p701
Vzx
p702
sVvalue
p703
V1492350473099
p704
sasVheaders
p705
(lp706
sVheadersSize
p707
I627
sVbodySize
p708
I0
sVmethod
p709
VGET
p710
sVhttpVersion
p711
VHTTP/1.1
p712
ssVtimings
p713
(dp714
Vcomment
p715
g4
sVreceive
p716
I0
sVsend
p717
I0
sVssl
p718
I-1
sVconnect
p719
I-1
sVdns
p720
I-1
sVwait
p721
I29
sVblocked
p722
I-1
ssVtime
p723
I29
sVresponse
p724
(dp725
Vstatus
p726
I204
sVcomment
p727
g4
sVcookies
p728
(lp729
sVstatusText
p730
VNo Content
p731
sVcontent
p732
(dp733
VmimeType
p734
Vtext/html; charset=UTF-8
p735
sVcomment
p736
g4
sVsize
p737
I0
ssVheaders
p738
(lp739
sVheadersSize
p740
I248
sVredirectURL
p741
g4
sVbodySize
p742
I0
sVhttpVersion
p743
VHTTP/1.1
p744
ssa(dp745
Vcomment
p746
g4
sVserverIPAddress
p747
V172.217.6.4
p748
sVpageref
p749
VVolvo
p750
sVstartedDateTime
p751
V2017-04-16T08:47:54.908-05:00
p752
sVcache
p753
(dp754
sVrequest
p755
(dp756
Vcomment
p757
g4
sVcookies
p758
(lp759
sVurl
p760
Vhttps://www.google.com/xjs/_/js/k=xjs.qs.en_US.pCBXVCvTH3s.O/m=syl,syj,syn,em3,em8,em6,em7,sym,aa,abd,sy2g,sy2k,sy29,sy2j,sy2d,sy2a,sy2c,sy2f,sy2l,sy2m,sy2n,emd,async,sybn,sybi,sybo,sy1f,sy45,sy46,sy9w,sybk,sybj,sybp,sy1g,sy30,sy47,sybm,sybl,sybq,sy1h,sybh,dvl,syep,foot,ipv6,sy32,emj,shm,sy5g,sy5i,sy5k,sykh,tl,sy2x,sy2y,sy2t,sy38,em12,vs,sy5j,sy5h,sy6u,sy66,sy67,sy7d,sy7j,sy4u,sy69,sy89,sy7e,sykk,sykl,tnv,sy23,sy24,sy4g,adinfo,attl,sy8y,add,apmf,bct,sy5o,sy5r,sy2u,sy5u,sy5t,sy33,sy34,sy2w,sy31,sy2z,sy7l,sy4v,sy6z,sy4l,sy37,sy2r,sy35,sy6q,sy7t,sy50,sy71,sy7f,sy7o,syah,syai,syak,syal,alc,sy1r,syaj,flum,sy4d,sy4f,sy4c,sy4e,sy4b,syd7,dgm,sy1y,sy3x,sy22,sy6p,sy3w,sy6i,syav,syaw,syb0,sy2o,sy6j,syb1,syaz,sy25,syao,sy2v,sy36,sy3z,syau,syb2,syb3,syay,syax,sy8x,syag,syb7,emb,em9,ema,sy2i,sy6k,syam,syaq,syat,syb4,syb5,syb6,sybc,sybg,lrl,lcm,mexp,sy48,sy3a,sy3c,sy5b,sy4x,sybd,sybe,sybt,sy2p,sy56,sybf,sybr,sybs,mlm,sy4z,sy4y,sy5d,sy5e,llmr,akpc,sy9m,syac,sy9b,sy9n,syhz,syl6,ssc,gldm,sy6n,flpm,sy5a,syan,syap,flmm,rltl,syi0,cpn,sy7y,sy7u,sy7w,sy87,sy7p,sy81,sy7q,sy7s,sy7z,sy82,sy85,sy83,sy26,sy5n,syas,syb8,syba,sybb,inf,sy5x,qif,rliv,skp,llmu,sy6l,sy6h,sy6m,qkx,syf5,sy99,syf4,syfc,syfn,syf7,syff,sy1i,sy68,sy8d,syf6,syfl,syfr,syfq,syfg,sy1j,sy4q,sy8h,syc7,syc8,syfb,syfj,syfs,syft,syg3,syg5,syg7,emn,emo,syg4,syg6,ivg,iuci,img,sy6w,shrb,sy41,tcc,sygq,kpc,kpci,sy4h,vrml,sy6y,sycu,d3l,sya3,sya2,sy72,sya4,sykr,strm,sy5z,atn,sy4i,sya1,ampfp/am=gCP4LtMEBXQA2RUaq_oFBISzAFA/rt=j/d=0/t=zcms/rs=ACT90oFwm4NZCwIcuuiqmthdlECdBzkhRA
p761
sVqueryString
p762
(lp763
sVheaders
p764
(lp765
sVheadersSize
p766
I2044
sVbodySize
p767
I0
sVmethod
p768
VGET
p769
sVhttpVersion
p770
VHTTP/1.1
p771
ssVtimings
p772
(dp773
Vcomment
p774
g4
sVreceive
p775
I34
sVsend
p776
I0
sVssl
p777
I-1
sVconnect
p778
I-1
sVdns
p779
I-1
sVwait
p780
I108
sVblocked
p781
I-1
ssVtime
p782
I143
sVresponse
p783
(dp784
Vstatus
p785
I200
sVcomment
p786
g4
sVcookies
p787
(lp788
sVstatusText
p789
VOK
p790
sVcontent
p791
(dp792
VmimeType
p793
Vtext/javascript; charset=UTF-8
p794
sVcomment
p795
g4
sVsize
p796
I0
ssVheaders
p797
(lp798
sVheadersSize
p799
I452
sVredirectURL
p800
g4
sVbodySize
p801
I200882
sVhttpVersion
p802
VHTTP/1.1
p803
ssa(dp804
Vcomment
p805
g4
sVserverIPAddress
p806
V172.217.6.4
p807
sVpageref
p808
VVolvo
p809
sVstartedDateTime
p810
V2017-04-16T08:47:55.223-05:00
p811
sVcache
p812
(dp813
sVrequest
p814
(dp815
Vcomment
p816
g4
sVcookies
p817
(lp818
sVurl
p819
Vhttps://www.google.com/gen_204?atyp=i&ct=phandle&cad=0,det:0&ei=BnbzWP-oH6vLjwSAy63QCA&zx=1492350475218
p820
sVqueryString
p821
(lp822
(dp823
Vname
p824
Vatyp
p825
sVvalue
p826
g30
sa(dp827
Vname
p828
Vct
p829
sVvalue
p830
Vphandle
p831
sa(dp832
Vname
p833
Vcad
p834
sVvalue
p835
V0,det:0
p836
sa(dp837
Vname
p838
Vei
p839
sVvalue
p840
VBnbzWP-oH6vLjwSAy63QCA
p841
sa(dp842
Vname
p843
Vzx
p844
sVvalue
p845
V1492350475218
p846
sasVheaders
p847
(lp848
sVheadersSize
p849
I620
sVbodySize
p850
I0
sVmethod
p851
VGET
p852
sVhttpVersion
p853
VHTTP/1.1
p854
ssVtimings
p855
(dp856
Vcomment
p857
g4
sVreceive
p858
I0
sVsend
p859
I0
sVssl
p860
I-1
sVconnect
p861
I-1
sVdns
p862
I-1
sVwait
p863
I31
sVblocked
p864
I-1
ssVtime
p865
I31
sVresponse
p866
(dp867
Vstatus
p868
I204
sVcomment
p869
g4
sVcookies
p870
(lp871
sVstatusText
p872
VNo Content
p873
sVcontent
p874
(dp875
VmimeType
p876
Vtext/html; charset=UTF-8
p877
sVcomment
p878
g4
sVsize
p879
I0
ssVheaders
p880
(lp881
sVheadersSize
p882
I248
sVredirectURL
p883
g4
sVbodySize
p884
I0
sVhttpVersion
p885
VHTTP/1.1
p886
ssa(dp887
Vcomment
p888
g4
sVserverIPAddress
p889
V172.217.6.4
p890
sVpageref
p891
VVolvo
p892
sVstartedDateTime
p893
V2017-04-16T08:47:55.344-05:00
p894
sVcache
p895
(dp896
sVrequest
p897
(dp898
Vcomment
p899
g4
sVcookies
p900
(lp901
sVurl
p902
Vhttps://www.google.com/async/irc?vet=10ahUKEwj_w7PdjqnTAhWr5YMKHYBlC4oQo0EItgI..i&ved=0ahUKEwj_w7PdjqnTAhWr5YMKHYBlC4oQo0EItgI&ei=BnbzWP-oH6vLjwSAy63QCA&yv=2&async=iu:1,ved:0ahUKEwj_w7PdjqnTAhWr5YMKHYBlC4oQo0EItgI,_id:irc_async,_pms:qs
p903
sVqueryString
p904
(lp905
(dp906
Vname
p907
Vvet
p908
sVvalue
p909
V10ahUKEwj_w7PdjqnTAhWr5YMKHYBlC4oQo0EItgI..i
p910
sa(dp911
Vname
p912
Vved
p913
sVvalue
p914
V0ahUKEwj_w7PdjqnTAhWr5YMKHYBlC4oQo0EItgI
p915
sa(dp916
Vname
p917
Vei
p918
sVvalue
p919
VBnbzWP-oH6vLjwSAy63QCA
p920
sa(dp921
Vname
p922
Vyv
p923
sVvalue
p924
g64
sa(dp925
Vname
p926
Vasync
p927
sVvalue
p928
Viu:1,ved:0ahUKEwj_w7PdjqnTAhWr5YMKHYBlC4oQo0EItgI,_id:irc_async,_pms:qs
p929
sasVheaders
p930
(lp931
sVheadersSize
p932
I752
sVbodySize
p933
I0
sVmethod
p934
VGET
p935
sVhttpVersion
p936
VHTTP/1.1
p937
ssVtimings
p938
(dp939
Vcomment
p940
g4
sVreceive
p941
I2
sVsend
p942
I0
sVssl
p943
I-1
sVconnect
p944
I-1
sVdns
p945
I-1
sVwait
p946
I41
sVblocked
p947
I-1
ssVtime
p948
I43
sVresponse
p949
(dp950
Vstatus
p951
I200
sVcomment
p952
g4
sVcookies
p953
(lp954
sVstatusText
p955
VOK
p956
sVcontent
p957
(dp958
VmimeType
p959
Vtext/html; charset=UTF-8
p960
sVcomment
p961
g4
sVsize
p962
I0
ssVheaders
p963
(lp964
sVheadersSize
p965
I383
sVredirectURL
p966
g4
sVbodySize
p967
I7788
sVhttpVersion
p968
VHTTP/1.1
p969
ssa(dp970
Vcomment
p971
g4
sVserverIPAddress
p972
V172.217.6.4
p973
sVpageref
p974
VVolvo
p975
sVstartedDateTime
p976
V2017-04-16T08:47:55.464-05:00
p977
sVcache
p978
(dp979
sVrequest
p980
(dp981
Vcomment
p982
g4
sVcookies
p983
(lp984
sVurl
p985
Vhttps://www.google.com/async/ampfp?vet=10ahUKEwj_w7PdjqnTAhWr5YMKHYBlC4oQtZoBCLQC..i&ei=BnbzWP-oH6vLjwSAy63QCA&yv=2&async=_id:ampfp-async,_pms:qs
p986
sVqueryString
p987
(lp988
(dp989
Vname
p990
Vvet
p991
sVvalue
p992
V10ahUKEwj_w7PdjqnTAhWr5YMKHYBlC4oQtZoBCLQC..i
p993
sa(dp994
Vname
p995
Vei
p996
sVvalue
p997
VBnbzWP-oH6vLjwSAy63QCA
p998
sa(dp999
Vname
p1000
Vyv
p1001
sVvalue
p1002
g64
sa(dp1003
Vname
p1004
Vasync
p1005
sVvalue
p1006
V_id:ampfp-async,_pms:qs
p1007
sasVheaders
p1008
(lp1009
sVheadersSize
p1010
I662
sVbodySize
p1011
I0
sVmethod
p1012
VGET
p1013
sVhttpVersion
p1014
VHTTP/1.1
p1015
ssVtimings
p1016
(dp1017
Vcomment
p1018
g4
sVreceive
p1019
I1
sVsend
p1020
I1
sVssl
p1021
I-1
sVconnect
p1022
I-1
sVdns
p1023
I-1
sVwait
p1024
I33
sVblocked
p1025
I-1
ssVtime
p1026
I35
sVresponse
p1027
(dp1028
Vstatus
p1029
I200
sVcomment
p1030
g4
sVcookies
p1031
(lp1032
sVstatusText
p1033
VOK
p1034
sVcontent
p1035
(dp1036
VmimeType
p1037
Vtext/html; charset=UTF-8
p1038
sVcomment
p1039
g4
sVsize
p1040
I0
ssVheaders
p1041
(lp1042
sVheadersSize
p1043
I383
sVredirectURL
p1044
g4
sVbodySize
p1045
I4524
sVhttpVersion
p1046
VHTTP/1.1
p1047
ssa(dp1048
Vcomment
p1049
g4
sVserverIPAddress
p1050
V216.58.216.193
p1051
sVpageref
p1052
VVolvo
p1053
sVstartedDateTime
p1054
V2017-04-16T08:47:55.467-05:00
p1055
sVcache
p1056
(dp1057
sVrequest
p1058
(dp1059
Vcomment
p1060
g4
sVcookies
p1061
(lp1062
sVurl
p1063
Vhttps://cdn.ampproject.org/preconnect.gif?0.8508808481202167
p1064
sVqueryString
p1065
(lp1066
(dp1067
Vname
p1068
V0.8508808481202167
p1069
sVvalue
p1070
g4
sasVheaders
p1071
(lp1072
sVheadersSize
p1073
I375
sVbodySize
p1074
I0
sVmethod
p1075
VGET
p1076
sVhttpVersion
p1077
VHTTP/1.1
p1078
ssVtimings
p1079
(dp1080
Vcomment
p1081
g4
sVreceive
p1082
I0
sVsend
p1083
I0
sVssl
p1084
I-1
sVconnect
p1085
I-1
sVdns
p1086
I-1
sVwait
p1087
I30
sVblocked
p1088
I-1
ssVtime
p1089
I30
sVresponse
p1090
(dp1091
Vstatus
p1092
I200
sVcomment
p1093
g4
sVcookies
p1094
(lp1095
sVstatusText
p1096
VOK
p1097
sVcontent
p1098
(dp1099
VmimeType
p1100
Vimage/gif
p1101
sVcomment
p1102
g4
sVsize
p1103
I0
ssVheaders
p1104
(lp1105
sVheadersSize
p1106
I826
sVredirectURL
p1107
g4
sVbodySize
p1108
I37
sVhttpVersion
p1109
VHTTP/1.1
p1110
ssa(dp1111
Vcomment
p1112
g4
sVserverIPAddress
p1113
V172.217.6.4
p1114
sVpageref
p1115
VVolvo
p1116
sVstartedDateTime
p1117
V2017-04-16T08:47:55.569-05:00
p1118
sVcache
p1119
(dp1120
sVrequest
p1121
(dp1122
Vcomment
p1123
g4
sVcookies
p1124
(lp1125
sVurl
p1126
Vhttps://www.google.com/gen_204/local?ei=BnbzWP-oH6vLjwSAy63QCA&tm_n=pt&tm=2105
p1127
sVqueryString
p1128
(lp1129
(dp1130
Vname
p1131
Vei
p1132
sVvalue
p1133
VBnbzWP-oH6vLjwSAy63QCA
p1134
sa(dp1135
Vname
p1136
Vtm_n
p1137
sVvalue
p1138
Vpt
p1139
sa(dp1140
Vname
p1141
Vtm
p1142
sVvalue
p1143
V2105
p1144
sasVheaders
p1145
(lp1146
sVheadersSize
p1147
I846
sVbodySize
p1148
I0
sVmethod
p1149
VPOST
p1150
sVhttpVersion
p1151
VHTTP/1.1
p1152
ssVtimings
p1153
(dp1154
Vcomment
p1155
g4
sVreceive
p1156
I0
sVsend
p1157
I0
sVssl
p1158
I-1
sVconnect
p1159
I-1
sVdns
p1160
I-1
sVwait
p1161
I30
sVblocked
p1162
I-1
ssVtime
p1163
I30
sVresponse
p1164
(dp1165
Vstatus
p1166
I204
sVcomment
p1167
g4
sVcookies
p1168
(lp1169
sVstatusText
p1170
VNo Content
p1171
sVcontent
p1172
(dp1173
VmimeType
p1174
Vtext/html; charset=UTF-8
p1175
sVcomment
p1176
g4
sVsize
p1177
I0
ssVheaders
p1178
(lp1179
sVheadersSize
p1180
I290
sVredirectURL
p1181
g4
sVbodySize
p1182
I0
sVhttpVersion
p1183
VHTTP/1.1
p1184
ssa(dp1185
Vcomment
p1186
g4
sVserverIPAddress
p1187
V172.217.6.4
p1188
sVpageref
p1189
VVolvo
p1190
sVstartedDateTime
p1191
V2017-04-16T08:47:55.590-05:00
p1192
sVcache
p1193
(dp1194
sVrequest
p1195
(dp1196
Vcomment
p1197
g4
sVcookies
p1198
(lp1199
sVurl
p1200
Vhttps://www.google.com/async/lcl_akp?vet=10ahUKEwj_w7PdjqnTAhWr5YMKHYBlC4oQ30oIUzAB..i&ved=0ahUKEwj_w7PdjqnTAhWr5YMKHYBlC4oQkW0IVTAB&ei=BnbzWP-oH6vLjwSAy63QCA&yv=2&tbs=lf_od:-1,lf_oh:-1,lf_oa:-1,lp:-D!32200!!1!!!0!2|-S!11!0!2|-F!3!0!3,lf_pqs:EAE,lf:1,lf_ui:4&async=id:akp_14351573848354361832,ludocids:14351573848354361832,f:rln,ui:4,_id:p0_uid_2_BnbzWP-oH6vLjwSAy63QCA,_pms:qs
p1201
sVqueryString
p1202
(lp1203
(dp1204
Vname
p1205
Vvet
p1206
sVvalue
p1207
V10ahUKEwj_w7PdjqnTAhWr5YMKHYBlC4oQ30oIUzAB..i
p1208
sa(dp1209
Vname
p1210
Vved
p1211
sVvalue
p1212
V0ahUKEwj_w7PdjqnTAhWr5YMKHYBlC4oQkW0IVTAB
p1213
sa(dp1214
Vname
p1215
Vei
p1216
sVvalue
p1217
VBnbzWP-oH6vLjwSAy63QCA
p1218
sa(dp1219
Vname
p1220
Vyv
p1221
sVvalue
p1222
g64
sa(dp1223
Vname
p1224
Vtbs
p1225
sVvalue
p1226
Vlf_od:-1,lf_oh:-1,lf_oa:-1,lp:-D!32200!!1!!!0!2|-S!11!0!2|-F!3!0!3,lf_pqs:EAE,lf:1,lf_ui:4
p1227
sa(dp1228
Vname
p1229
Vasync
p1230
sVvalue
p1231
Vid:akp_14351573848354361832,ludocids:14351573848354361832,f:rln,ui:4,_id:p0_uid_2_BnbzWP-oH6vLjwSAy63QCA,_pms:qs
p1232
sasVheaders
p1233
(lp1234
sVheadersSize
p1235
I894
sVbodySize
p1236
I0
sVmethod
p1237
VGET
p1238
sVhttpVersion
p1239
VHTTP/1.1
p1240
ssVtimings
p1241
(dp1242
Vcomment
p1243
g4
sVreceive
p1244
I28
sVsend
p1245
I0
sVssl
p1246
I-1
sVconnect
p1247
I-1
sVdns
p1248
I-1
sVwait
p1249
I314
sVblocked
p1250
I-1
ssVtime
p1251
I343
sVresponse
p1252
(dp1253
Vstatus
p1254
I200
sVcomment
p1255
g4
sVcookies
p1256
(lp1257
sVstatusText
p1258
VOK
p1259
sVcontent
p1260
(dp1261
VmimeType
p1262
Vtext/html; charset=UTF-8
p1263
sVcomment
p1264
g4
sVsize
p1265
I0
ssVheaders
p1266
(lp1267
sVheadersSize
p1268
I383
sVredirectURL
p1269
g4
sVbodySize
p1270
I37221
sVhttpVersion
p1271
VHTTP/1.1
p1272
ssa(dp1273
Vcomment
p1274
g4
sVserverIPAddress
p1275
V172.217.6.4
p1276
sVpageref
p1277
VVolvo
p1278
sVstartedDateTime
p1279
V2017-04-16T08:47:55.607-05:00
p1280
sVcache
p1281
(dp1282
sVrequest
p1283
(dp1284
Vcomment
p1285
g4
sVcookies
p1286
(lp1287
sVurl
p1288
Vhttps://www.google.com/gen_204/local?ei=BnbzWP-oH6vLjwSAy63QCA&tm_n=lrl_init&tm=5
p1289
sVqueryString
p1290
(lp1291
(dp1292
Vname
p1293
Vei
p1294
sVvalue
p1295
VBnbzWP-oH6vLjwSAy63QCA
p1296
sa(dp1297
Vname
p1298
Vtm_n
p1299
sVvalue
p1300
Vlrl_init
p1301
sa(dp1302
Vname
p1303
Vtm
p1304
sVvalue
p1305
V5
p1306
sasVheaders
p1307
(lp1308
sVheadersSize
p1309
I849
sVbodySize
p1310
I0
sVmethod
p1311
VPOST
p1312
sVhttpVersion
p1313
VHTTP/1.1
p1314
ssVtimings
p1315
(dp1316
Vcomment
p1317
g4
sVreceive
p1318
I0
sVsend
p1319
I0
sVssl
p1320
I-1
sVconnect
p1321
I-1
sVdns
p1322
I-1
sVwait
p1323
I33
sVblocked
p1324
I-1
ssVtime
p1325
I34
sVresponse
p1326
(dp1327
Vstatus
p1328
I204
sVcomment
p1329
g4
sVcookies
p1330
(lp1331
sVstatusText
p1332
VNo Content
p1333
sVcontent
p1334
(dp1335
VmimeType
p1336
Vtext/html; charset=UTF-8
p1337
sVcomment
p1338
g4
sVsize
p1339
I0
ssVheaders
p1340
(lp1341
sVheadersSize
p1342
I290
sVredirectURL
p1343
g4
sVbodySize
p1344
I0
sVhttpVersion
p1345
VHTTP/1.1
p1346
ssa(dp1347
Vcomment
p1348
g4
sVserverIPAddress
p1349
V172.217.6.4
p1350
sVpageref
p1351
VVolvo
p1352
sVstartedDateTime
p1353
V2017-04-16T08:47:55.633-05:00
p1354
sVcache
p1355
(dp1356
sVrequest
p1357
(dp1358
Vcomment
p1359
g4
sVcookies
p1360
(lp1361
sVurl
p1362
Vhttps://www.google.com/async/lcl_akp?vet=10ahUKEwj_w7PdjqnTAhWr5YMKHYBlC4oQ30oIXDAC..i&ved=0ahUKEwj_w7PdjqnTAhWr5YMKHYBlC4oQkW0IXjAC&ei=BnbzWP-oH6vLjwSAy63QCA&yv=2&tbs=lf_od:-1,lf_oh:-1,lf_oa:-1,lp:-D!32200!!1!!!0!2|-S!11!0!2|-F!3!0!3,lf_pqs:EAE,lf:1,lf_ui:4&async=id:akp_10673527824373865422,ludocids:10673527824373865422,f:rln,ui:4,_id:p0_uid_3_BnbzWP-oH6vLjwSAy63QCA,_pms:qs
p1363
sVqueryString
p1364
(lp1365
(dp1366
Vname
p1367
Vvet
p1368
sVvalue
p1369
V10ahUKEwj_w7PdjqnTAhWr5YMKHYBlC4oQ30oIXDAC..i
p1370
sa(dp1371
Vname
p1372
Vved
p1373
sVvalue
p1374
V0ahUKEwj_w7PdjqnTAhWr5YMKHYBlC4oQkW0IXjAC
p1375
sa(dp1376
Vname
p1377
Vei
p1378
sVvalue
p1379
VBnbzWP-oH6vLjwSAy63QCA
p1380
sa(dp1381
Vname
p1382
Vyv
p1383
sVvalue
p1384
g64
sa(dp1385
Vname
p1386
Vtbs
p1387
sVvalue
p1388
Vlf_od:-1,lf_oh:-1,lf_oa:-1,lp:-D!32200!!1!!!0!2|-S!11!0!2|-F!3!0!3,lf_pqs:EAE,lf:1,lf_ui:4
p1389
sa(dp1390
Vname
p1391
Vasync
p1392
sVvalue
p1393
Vid:akp_10673527824373865422,ludocids:10673527824373865422,f:rln,ui:4,_id:p0_uid_3_BnbzWP-oH6vLjwSAy63QCA,_pms:qs
p1394
sasVheaders
p1395
(lp1396
sVheadersSize
p1397
I894
sVbodySize
p1398
I0
sVmethod
p1399
VGET
p1400
sVhttpVersion
p1401
VHTTP/1.1
p1402
ssVtimings
p1403
(dp1404
Vcomment
p1405
g4
sVreceive
p1406
I22
sVsend
p1407
I0
sVssl
p1408
I22
sVconnect
p1409
I37
sVdns
p1410
I0
sVwait
p1411
I290
sVblocked
p1412
I0
ssVtime
p1413
I350
sVresponse
p1414
(dp1415
Vstatus
p1416
I200
sVcomment
p1417
g4
sVcookies
p1418
(lp1419
sVstatusText
p1420
VOK
p1421
sVcontent
p1422
(dp1423
VmimeType
p1424
Vtext/html; charset=UTF-8
p1425
sVcomment
p1426
g4
sVsize
p1427
I0
ssVheaders
p1428
(lp1429
sVheadersSize
p1430
I383
sVredirectURL
p1431
g4
sVbodySize
p1432
I40458
sVhttpVersion
p1433
VHTTP/1.1
p1434
ssa(dp1435
Vcomment
p1436
g4
sVserverIPAddress
p1437
V172.217.6.4
p1438
sVpageref
p1439
VVolvo
p1440
sVstartedDateTime
p1441
V2017-04-16T08:47:55.633-05:00
p1442
sVcache
p1443
(dp1444
sVrequest
p1445
(dp1446
Vcomment
p1447
g4
sVcookies
p1448
(lp1449
sVurl
p1450
Vhttps://www.google.com/async/lcl_akp?vet=10ahUKEwj_w7PdjqnTAhWr5YMKHYBlC4oQ30oIZTAD..i&ved=0ahUKEwj_w7PdjqnTAhWr5YMKHYBlC4oQkW0IZzAD&ei=BnbzWP-oH6vLjwSAy63QCA&yv=2&tbs=lf_od:-1,lf_oh:-1,lf_oa:-1,lp:-D!32200!!1!!!0!2|-S!11!0!2|-F!3!0!3,lf_pqs:EAE,lf:1,lf_ui:4&async=id:akp_12297450535143661677,ludocids:12297450535143661677,f:rln,ui:4,_id:p0_uid_4_BnbzWP-oH6vLjwSAy63QCA,_pms:qs
p1451
sVqueryString
p1452
(lp1453
(dp1454
Vname
p1455
Vvet
p1456
sVvalue
p1457
V10ahUKEwj_w7PdjqnTAhWr5YMKHYBlC4oQ30oIZTAD..i
p1458
sa(dp1459
Vname
p1460
Vved
p1461
sVvalue
p1462
V0ahUKEwj_w7PdjqnTAhWr5YMKHYBlC4oQkW0IZzAD
p1463
sa(dp1464
Vname
p1465
Vei
p1466
sVvalue
p1467
VBnbzWP-oH6vLjwSAy63QCA
p1468
sa(dp1469
Vname
p1470
Vyv
p1471
sVvalue
p1472
g64
sa(dp1473
Vname
p1474
Vtbs
p1475
sVvalue
p1476
Vlf_od:-1,lf_oh:-1,lf_oa:-1,lp:-D!32200!!1!!!0!2|-S!11!0!2|-F!3!0!3,lf_pqs:EAE,lf:1,lf_ui:4
p1477
sa(dp1478
Vname
p1479
Vasync
p1480
sVvalue
p1481
Vid:akp_12297450535143661677,ludocids:12297450535143661677,f:rln,ui:4,_id:p0_uid_4_BnbzWP-oH6vLjwSAy63QCA,_pms:qs
p1482
sasVheaders
p1483
(lp1484
sVheadersSize
p1485
I894
sVbodySize
p1486
I0
sVmethod
p1487
VGET
p1488
sVhttpVersion
p1489
VHTTP/1.1
p1490
ssVtimings
p1491
(dp1492
Vcomment
p1493
g4
sVreceive
p1494
I21
sVsend
p1495
I0
sVssl
p1496
I21
sVconnect
p1497
I35
sVdns
p1498
I0
sVwait
p1499
I241
sVblocked
p1500
I0
ssVtime
p1501
I298
sVresponse
p1502
(dp1503
Vstatus
p1504
I200
sVcomment
p1505
g4
sVcookies
p1506
(lp1507
sVstatusText
p1508
VOK
p1509
sVcontent
p1510
(dp1511
VmimeType
p1512
Vtext/html; charset=UTF-8
p1513
sVcomment
p1514
g4
sVsize
p1515
I0
ssVheaders
p1516
(lp1517
sVheadersSize
p1518
I383
sVredirectURL
p1519
g4
sVbodySize
p1520
I41745
sVhttpVersion
p1521
VHTTP/1.1
p1522
ssa(dp1523
Vcomment
p1524
g4
sVserverIPAddress
p1525
V172.217.6.4
p1526
sVpageref
p1527
VVolvo
p1528
sVstartedDateTime
p1529
V2017-04-16T08:47:55.675-05:00
p1530
sVcache
p1531
(dp1532
sVrequest
p1533
(dp1534
Vcomment
p1535
g4
sVcookies
p1536
(lp1537
sVurl
p1538
Vhttps://www.google.com/async/log_amp_item_set?vet=10ahUKEwiBp6PfjqnTAhWk8YMKHQt-BmcQooQBCAE..i&ei=BnbzWP-oH6vLjwSAy63QCA&yv=2&async=num_items:3,_fmt:jspb
p1539
sVqueryString
p1540
(lp1541
(dp1542
Vname
p1543
Vvet
p1544
sVvalue
p1545
V10ahUKEwiBp6PfjqnTAhWk8YMKHQt-BmcQooQBCAE..i
p1546
sa(dp1547
Vname
p1548
Vei
p1549
sVvalue
p1550
VBnbzWP-oH6vLjwSAy63QCA
p1551
sa(dp1552
Vname
p1553
Vyv
p1554
sVvalue
p1555
g64
sa(dp1556
Vname
p1557
Vasync
p1558
sVvalue
p1559
Vnum_items:3,_fmt:jspb
p1560
sasVheaders
p1561
(lp1562
sVheadersSize
p1563
I670
sVbodySize
p1564
I0
sVmethod
p1565
VGET
p1566
sVhttpVersion
p1567
VHTTP/1.1
p1568
ssVtimings
p1569
(dp1570
Vcomment
p1571
g4
sVreceive
p1572
I0
sVsend
p1573
I0
sVssl
p1574
I21
sVconnect
p1575
I46
sVdns
p1576
I0
sVwait
p1577
I55
sVblocked
p1578
I0
ssVtime
p1579
I102
sVresponse
p1580
(dp1581
Vstatus
p1582
I200
sVcomment
p1583
g4
sVcookies
p1584
(lp1585
sVstatusText
p1586
VOK
p1587
sVcontent
p1588
(dp1589
VmimeType
p1590
Vapplication/json; charset=UTF-8
p1591
sVcomment
p1592
g4
sVsize
p1593
I0
ssVheaders
p1594
(lp1595
sVheadersSize
p1596
I417
sVredirectURL
p1597
g4
sVbodySize
p1598
I148
sVhttpVersion
p1599
VHTTP/1.1
p1600
ssa(dp1601
Vcomment
p1602
g4
sVserverIPAddress
p1603
V172.217.6.4
p1604
sVpageref
p1605
VVolvo
p1606
sVstartedDateTime
p1607
V2017-04-16T08:47:55.961-05:00
p1608
sVcache
p1609
(dp1610
sVrequest
p1611
(dp1612
Vcomment
p1613
g4
sVcookies
p1614
(lp1615
sVurl
p1616
Vhttps://www.google.com/maps/vt/data=RfCSdfNZ0LFPrHSm0ublXdzhdrDFhtmHhN1u-gM,eTwvPeAlw6hfNbWMiHRkBMIO-TDzWaTCNdoIRdg8k91DYCwA0tb2J6-nQEBbHrfM8VYXWI5VY1PExRX-GwNlZX-53JF8p8udXsVG73U-bRCDz9Bpfu_GDDTfJiMbeBvTJSjLY8D1lcX1oLxoMMB_k3KifO1zzbjJp23Pavb8kpMy0KuR5dd8-xsqX_ooE4Blyp1xdoKoz4iurz8YODgM6ANIcy_evkDP51-wvgVO3eu9Rj5BCP2pB_IGvLma1s940SkMa6Jt5ew4ilg3hqbydg-5yFnBelzIjzzj182H0a1pG9joZtEwKr8fgJ77mB69N7uA816wrbH5VJ-wV-jtgnqAv38IV2xK9l5lfzdkD8v0jlbPQB0JFONPtVm28olDg2aToizueLPsINBv2wg_2XBSf_30_wqZOjd2zghFhNbmPeT4h40jLFi7KwDj0eBoyyWK7WIQ4qc?h=120&w=1024&scale=2
p1617
sVqueryString
p1618
(lp1619
(dp1620
Vname
p1621
Vh
p1622
sVvalue
p1623
V120
p1624
sa(dp1625
Vname
p1626
Vw
p1627
sVvalue
p1628
V1024
p1629
sa(dp1630
Vname
p1631
Vscale
p1632
sVvalue
p1633
g64
sasVheaders
p1634
(lp1635
sVheadersSize
p1636
I1073
sVbodySize
p1637
I0
sVmethod
p1638
VGET
p1639
sVhttpVersion
p1640
VHTTP/1.1
p1641
ssVtimings
p1642
(dp1643
Vcomment
p1644
g4
sVreceive
p1645
I19
sVsend
p1646
I0
sVssl
p1647
I-1
sVconnect
p1648
I-1
sVdns
p1649
I-1
sVwait
p1650
I85
sVblocked
p1651
I-1
ssVtime
p1652
I104
sVresponse
p1653
(dp1654
Vstatus
p1655
I200
sVcomment
p1656
g4
sVcookies
p1657
(lp1658
sVstatusText
p1659
VOK
p1660
sVcontent
p1661
(dp1662
VmimeType
p1663
Vimage/png
p1664
sVcomment
p1665
g4
sVsize
p1666
I0
ssVheaders
p1667
(lp1668
sVheadersSize
p1669
I479
sVredirectURL
p1670
g4
sVbodySize
p1671
I59592
sVhttpVersion
p1672
VHTTP/1.1
p1673
ssa(dp1674
Vcomment
p1675
g4
sVserverIPAddress
p1676
V172.217.6.4
p1677
sVpageref
p1678
VVolvo
p1679
sVstartedDateTime
p1680
V2017-04-16T08:47:55.963-05:00
p1681
sVcache
p1682
(dp1683
sVrequest
p1684
(dp1685
Vcomment
p1686
g4
sVcookies
p1687
(lp1688
sVurl
p1689
Vhttps://www.google.com/maps/vt/data=fyhx5vRTk6iZCJTK-4FW6WKsGg,izbxivl5PINCsiv4B8CV9unRMMBAjIG52OB99kxAQoFq2hu1l7osxSBVW1ZosDIuTl-HFA_RCsLTkorMLaBkrTJyTLP5BjJDVRKqnhDqPHt-GbN8QBTR9sAZanXyIZgRm2QTfSQLq9TfAnv5wjpip3a1OtL75DkLHdwg8gcS8shkxM5IFz8x4S-Yp7RU1ZiSGtahzfQhGanNiBakgwDv4v4eG2vFirbMGQpLOsnRIh9SXYh6SGi0kiSFO2gsi1nynrjYpLKyM5OxuLqZzRYHOvRzBYDejtKptX1jBe58Tlobzcj5skziDVOadA?h=120&w=1024&scale=2
p1690
sVqueryString
p1691
(lp1692
(dp1693
Vname
p1694
g1622
sVvalue
p1695
V120
p1696
sa(dp1697
Vname
p1698
g1627
sVvalue
p1699
V1024
p1700
sa(dp1701
Vname
p1702
Vscale
p1703
sVvalue
p1704
g64
sasVheaders
p1705
(lp1706
sVheadersSize
p1707
I915
sVbodySize
p1708
I0
sVmethod
p1709
VGET
p1710
sVhttpVersion
p1711
VHTTP/1.1
p1712
ssVtimings
p1713
(dp1714
Vcomment
p1715
g4
sVreceive
p1716
I0
sVsend
p1717
I0
sVssl
p1718
I-1
sVconnect
p1719
I-1
sVdns
p1720
I-1
sVwait
p1721
I57
sVblocked
p1722
I-1
ssVtime
p1723
I57
sVresponse
p1724
(dp1725
Vstatus
p1726
I200
sVcomment
p1727
g4
sVcookies
p1728
(lp1729
sVstatusText
p1730
VOK
p1731
sVcontent
p1732
(dp1733
VmimeType
p1734
Vimage/png
p1735
sVcomment
p1736
g4
sVsize
p1737
I0
ssVheaders
p1738
(lp1739
sVheadersSize
p1740
I458
sVredirectURL
p1741
g4
sVbodySize
p1742
I1722
sVhttpVersion
p1743
VHTTP/1.1
p1744
ssa(dp1745
Vcomment
p1746
g4
sVserverIPAddress
p1747
V216.58.216.193
p1748
sVpageref
p1749
VVolvo
p1750
sVstartedDateTime
p1751
V2017-04-16T08:47:55.986-05:00
p1752
sVcache
p1753
(dp1754
sVrequest
p1755
(dp1756
Vcomment
p1757
g4
sVcookies
p1758
(lp1759
sVurl
p1760
Vhttps://www-wsj-com.cdn.ampproject.org/v/www.wsj.com/amp/articles/why-the-volvo-v90-station-wagon-is-the-most-practical-of-exotic-cars-1492184785?amp_js_v=9
p1761
sVqueryString
p1762
(lp1763
(dp1764
Vname
p1765
Vamp_js_v
p1766
sVvalue
p1767
V9
p1768
sasVheaders
p1769
(lp1770
sVheadersSize
p1771
I561
sVbodySize
p1772
I0
sVmethod
p1773
VGET
p1774
sVhttpVersion
p1775
VHTTP/1.1
p1776
ssVtimings
p1777
(dp1778
Vcomment
p1779
g4
sVreceive
p1780
I0
sVsend
p1781
I0
sVssl
p1782
I294
sVconnect
p1783
I312
sVdns
p1784
I35
sVwait
p1785
I32
sVblocked
p1786
I0
ssVtime
p1787
I380
sVresponse
p1788
(dp1789
Vstatus
p1790
I302
sVcomment
p1791
g4
sVcookies
p1792
(lp1793
sVstatusText
p1794
VFound
p1795
sVcontent
p1796
(dp1797
VmimeType
p1798
Vtext/html; charset=UTF-8
p1799
sVcomment
p1800
g4
sVsize
p1801
I0
ssVheaders
p1802
(lp1803
sVheadersSize
p1804
I420
sVredirectURL
p1805
Vhttps://www-wsj-com.cdn.ampproject.org/v/s/www.wsj.com/amp/articles/why-the-volvo-v90-station-wagon-is-the-most-practical-of-exotic-cars-1492184785?amp_js_v=9
p1806
sVbodySize
p1807
I355
sVhttpVersion
p1808
VHTTP/1.1
p1809
ssa(dp1810
Vcomment
p1811
g4
sVserverIPAddress
p1812
V216.58.216.193
p1813
sVpageref
p1814
VVolvo
p1815
sVstartedDateTime
p1816
V2017-04-16T08:47:56.020-05:00
p1817
sVcache
p1818
(dp1819
sVrequest
p1820
(dp1821
Vcomment
p1822
g4
sVcookies
p1823
(lp1824
sVurl
p1825
Vhttps://www-wsj-com.cdn.ampproject.org/v/s/www.wsj.com/amp/articles/why-the-volvo-v90-station-wagon-is-the-most-practical-of-exotic-cars-1492184785?amp_js_v=9
p1826
sVqueryString
p1827
(lp1828
(dp1829
Vname
p1830
Vamp_js_v
p1831
sVvalue
p1832
g1768
sasVheaders
p1833
(lp1834
sVheadersSize
p1835
I563
sVbodySize
p1836
I0
sVmethod
p1837
VGET
p1838
sVhttpVersion
p1839
VHTTP/1.1
p1840
ssVtimings
p1841
(dp1842
Vcomment
p1843
g4
sVreceive
p1844
I2
sVsend
p1845
I0
sVssl
p1846
I-1
sVconnect
p1847
I-1
sVdns
p1848
I-1
sVwait
p1849
I93
sVblocked
p1850
I-1
ssVtime
p1851
I95
sVresponse
p1852
(dp1853
Vstatus
p1854
I200
sVcomment
p1855
g4
sVcookies
p1856
(lp1857
sVstatusText
p1858
VOK
p1859
sVcontent
p1860
(dp1861
VmimeType
p1862
Vtext/html
p1863
sVcomment
p1864
g4
sVsize
p1865
I0
ssVheaders
p1866
(lp1867
sVheadersSize
p1868
I859
sVredirectURL
p1869
g4
sVbodySize
p1870
I9725
sVhttpVersion
p1871
VHTTP/1.1
p1872
ssa(dp1873
Vcomment
p1874
g4
sVserverIPAddress
p1875
V172.217.6.4
p1876
sVpageref
p1877
VVolvo
p1878
sVstartedDateTime
p1879
V2017-04-16T08:47:56.071-05:00
p1880
sVcache
p1881
(dp1882
sVrequest
p1883
(dp1884
Vcomment
p1885
g4
sVcookies
p1886
(lp1887
sVurl
p1888
Vhttps://www.google.com/gen_204/local?ei=BnbzWP-oH6vLjwSAy63QCA&tm_n=lcsm-ns&tm=110
p1889
sVqueryString
p1890
(lp1891
(dp1892
Vname
p1893
Vei
p1894
sVvalue
p1895
VBnbzWP-oH6vLjwSAy63QCA
p1896
sa(dp1897
Vname
p1898
Vtm_n
p1899
sVvalue
p1900
Vlcsm-ns
p1901
sa(dp1902
Vname
p1903
Vtm
p1904
sVvalue
p1905
V110
p1906
sasVheaders
p1907
(lp1908
sVheadersSize
p1909
I850
sVbodySize
p1910
I0
sVmethod
p1911
VPOST
p1912
sVhttpVersion
p1913
VHTTP/1.1
p1914
ssVtimings
p1915
(dp1916
Vcomment
p1917
g4
sVreceive
p1918
I0
sVsend
p1919
I0
sVssl
p1920
I-1
sVconnect
p1921
I-1
sVdns
p1922
I-1
sVwait
p1923
I37
sVblocked
p1924
I-1
ssVtime
p1925
I37
sVresponse
p1926
(dp1927
Vstatus
p1928
I204
sVcomment
p1929
g4
sVcookies
p1930
(lp1931
sVstatusText
p1932
VNo Content
p1933
sVcontent
p1934
(dp1935
VmimeType
p1936
Vtext/html; charset=UTF-8
p1937
sVcomment
p1938
g4
sVsize
p1939
I0
ssVheaders
p1940
(lp1941
sVheadersSize
p1942
I290
sVredirectURL
p1943
g4
sVbodySize
p1944
I0
sVhttpVersion
p1945
VHTTP/1.1
p1946
ssa(dp1947
Vcomment
p1948
g4
sVserverIPAddress
p1949
V216.58.216.193
p1950
sVpageref
p1951
VVolvo
p1952
sVstartedDateTime
p1953
V2017-04-16T08:47:56.614-05:00
p1954
sVcache
p1955
(dp1956
sVrequest
p1957
(dp1958
Vcomment
p1959
g4
sVcookies
p1960
(lp1961
sVurl
p1962
Vhttps://asset-wsj-net.cdn.ampproject.org/r/s/asset.wsj.net/fonts.wsj.net/fonts/amp/WhitneySSm-Book-Bas.woff
p1963
sVqueryString
p1964
(lp1965
sVheaders
p1966
(lp1967
sVheadersSize
p1968
I659
sVbodySize
p1969
I0
sVmethod
p1970
VGET
p1971
sVhttpVersion
p1972
VHTTP/1.1
p1973
ssVtimings
p1974
(dp1975
Vcomment
p1976
g4
sVreceive
p1977
I23
sVsend
p1978
I0
sVssl
p1979
I411
sVconnect
p1980
I426
sVdns
p1981
I35
sVwait
p1982
I27
sVblocked
p1983
I0
ssVtime
p1984
I513
sVresponse
p1985
(dp1986
Vstatus
p1987
I200
sVcomment
p1988
g4
sVcookies
p1989
(lp1990
sVstatusText
p1991
VOK
p1992
sVcontent
p1993
(dp1994
VmimeType
p1995
Vapplication/font-woff
p1996
sVcomment
p1997
g4
sVsize
p1998
I0
ssVheaders
p1999
(lp2000
sVheadersSize
p2001
I868
sVredirectURL
p2002
g4
sVbodySize
p2003
I43568
sVhttpVersion
p2004
VHTTP/1.1
p2005
ssa(dp2006
Vcomment
p2007
g4
sVserverIPAddress
p2008
V216.58.216.193
p2009
sVpageref
p2010
VVolvo
p2011
sVstartedDateTime
p2012
V2017-04-16T08:47:56.618-05:00
p2013
sVcache
p2014
(dp2015
sVrequest
p2016
(dp2017
Vcomment
p2018
g4
sVcookies
p2019
(lp2020
sVurl
p2021
Vhttps://asset-wsj-net.cdn.ampproject.org/r/s/asset.wsj.net/fonts.wsj.net/fonts/amp/ChronicleDisp-Semibold.woff
p2022
sVqueryString
p2023
(lp2024
sVheaders
p2025
(lp2026
sVheadersSize
p2027
I662
sVbodySize
p2028
I0
sVmethod
p2029
VGET
p2030
sVhttpVersion
p2031
VHTTP/1.1
p2032
ssVtimings
p2033
(dp2034
Vcomment
p2035
g4
sVreceive
p2036
I32
sVsend
p2037
I0
sVssl
p2038
I413
sVconnect
p2039
I430
sVdns
p2040
I34
sVwait
p2041
I27
sVblocked
p2042
I0
ssVtime
p2043
I524
sVresponse
p2044
(dp2045
Vstatus
p2046
I200
sVcomment
p2047
g4
sVcookies
p2048
(lp2049
sVstatusText
p2050
VOK
p2051
sVcontent
p2052
(dp2053
VmimeType
p2054
Vapplication/font-woff
p2055
sVcomment
p2056
g4
sVsize
p2057
I0
ssVheaders
p2058
(lp2059
sVheadersSize
p2060
I868
sVredirectURL
p2061
g4
sVbodySize
p2062
I28408
sVhttpVersion
p2063
VHTTP/1.1
p2064
ssa(dp2065
Vcomment
p2066
g4
sVserverIPAddress
p2067
V216.58.216.193
p2068
sVpageref
p2069
VVolvo
p2070
sVstartedDateTime
p2071
V2017-04-16T08:47:56.914-05:00
p2072
sVcache
p2073
(dp2074
sVrequest
p2075
(dp2076
Vcomment
p2077
g4
sVcookies
p2078
(lp2079
sVurl
p2080
Vhttps://s-wsj-net.cdn.ampproject.org/ii/w1200/s/s.wsj.net/media/wsj_amp_masthead_lg.png
p2081
sVqueryString
p2082
(lp2083
sVheaders
p2084
(lp2085
sVheadersSize
p2086
I537
sVbodySize
p2087
I0
sVmethod
p2088
VGET
p2089
sVhttpVersion
p2090
VHTTP/1.1
p2091
ssVtimings
p2092
(dp2093
Vcomment
p2094
g4
sVreceive
p2095
I2
sVsend
p2096
I0
sVssl
p2097
I436
sVconnect
p2098
I514
sVdns
p2099
I80
sVwait
p2100
I24
sVblocked
p2101
I0
ssVtime
p2102
I621
sVresponse
p2103
(dp2104
Vstatus
p2105
I200
sVcomment
p2106
g4
sVcookies
p2107
(lp2108
sVstatusText
p2109
VOK
p2110
sVcontent
p2111
(dp2112
VmimeType
p2113
Vimage/png
p2114
sVcomment
p2115
g4
sVsize
p2116
I0
ssVheaders
p2117
(lp2118
sVheadersSize
p2119
I823
sVredirectURL
p2120
g4
sVbodySize
p2121
I3582
sVhttpVersion
p2122
VHTTP/1.1
p2123
ssa(dp2124
Vcomment
p2125
g4
sVserverIPAddress
p2126
V216.58.216.193
p2127
sVpageref
p2128
VVolvo
p2129
sVstartedDateTime
p2130
V2017-04-16T08:47:56.923-05:00
p2131
sVcache
p2132
(dp2133
sVrequest
p2134
(dp2135
Vcomment
p2136
g4
sVcookies
p2137
(lp2138
sVurl
p2139
Vhttps://s-wsj-net.cdn.ampproject.org/ii/w82/s/s.wsj.net/media/ampFacebook.png
p2140
sVqueryString
p2141
(lp2142
sVheaders
p2143
(lp2144
sVheadersSize
p2145
I527
sVbodySize
p2146
I0
sVmethod
p2147
VGET
p2148
sVhttpVersion
p2149
VHTTP/1.1
p2150
ssVtimings
p2151
(dp2152
Vcomment
p2153
g4
sVreceive
p2154
I0
sVsend
p2155
I0
sVssl
p2156
I439
sVconnect
p2157
I519
sVdns
p2158
I76
sVwait
p2159
I32
sVblocked
p2160
I0
ssVtime
p2161
I628
sVresponse
p2162
(dp2163
Vstatus
p2164
I200
sVcomment
p2165
g4
sVcookies
p2166
(lp2167
sVstatusText
p2168
VOK
p2169
sVcontent
p2170
(dp2171
VmimeType
p2172
Vimage/png
p2173
sVcomment
p2174
g4
sVsize
p2175
I0
ssVheaders
p2176
(lp2177
sVheadersSize
p2178
I823
sVredirectURL
p2179
g4
sVbodySize
p2180
I1423
sVhttpVersion
p2181
VHTTP/1.1
p2182
ssa(dp2183
Vcomment
p2184
g4
sVserverIPAddress
p2185
V216.58.216.193
p2186
sVpageref
p2187
VVolvo
p2188
sVstartedDateTime
p2189
V2017-04-16T08:47:56.923-05:00
p2190
sVcache
p2191
(dp2192
sVrequest
p2193
(dp2194
Vcomment
p2195
g4
sVcookies
p2196
(lp2197
sVurl
p2198
Vhttps://s-wsj-net.cdn.ampproject.org/ii/w82/s/s.wsj.net/media/ampTwitter.png
p2199
sVqueryString
p2200
(lp2201
sVheaders
p2202
(lp2203
sVheadersSize
p2204
I526
sVbodySize
p2205
I0
sVmethod
p2206
VGET
p2207
sVhttpVersion
p2208
VHTTP/1.1
p2209
ssVtimings
p2210
(dp2211
Vcomment
p2212
g4
sVreceive
p2213
I0
sVsend
p2214
I0
sVssl
p2215
I443
sVconnect
p2216
I522
sVdns
p2217
I75
sVwait
p2218
I28
sVblocked
p2219
I0
ssVtime
p2220
I627
sVresponse
p2221
(dp2222
Vstatus
p2223
I200
sVcomment
p2224
g4
sVcookies
p2225
(lp2226
sVstatusText
p2227
VOK
p2228
sVcontent
p2229
(dp2230
VmimeType
p2231
Vimage/png
p2232
sVcomment
p2233
g4
sVsize
p2234
I0
ssVheaders
p2235
(lp2236
sVheadersSize
p2237
I821
sVredirectURL
p2238
g4
sVbodySize
p2239
I739
sVhttpVersion
p2240
VHTTP/1.1
p2241
ssa(dp2242
Vcomment
p2243
g4
sVserverIPAddress
p2244
V216.58.216.193
p2245
sVpageref
p2246
VVolvo
p2247
sVstartedDateTime
p2248
V2017-04-16T08:47:56.927-05:00
p2249
sVcache
p2250
(dp2251
sVrequest
p2252
(dp2253
Vcomment
p2254
g4
sVcookies
p2255
(lp2256
sVurl
p2257
Vhttps://s-wsj-net.cdn.ampproject.org/ii/w82/s/s.wsj.net/media/ampWhatsapp.png
p2258
sVqueryString
p2259
(lp2260
sVheaders
p2261
(lp2262
sVheadersSize
p2263
I527
sVbodySize
p2264
I0
sVmethod
p2265
VGET
p2266
sVhttpVersion
p2267
VHTTP/1.1
p2268
ssVtimings
p2269
(dp2270
Vcomment
p2271
g4
sVreceive
p2272
I0
sVsend
p2273
I0
sVssl
p2274
I306
sVconnect
p2275
I319
sVdns
p2276
I0
sVwait
p2277
I29
sVblocked
p2278
I0
ssVtime
p2279
I348
sVresponse
p2280
(dp2281
Vstatus
p2282
I200
sVcomment
p2283
g4
sVcookies
p2284
(lp2285
sVstatusText
p2286
VOK
p2287
sVcontent
p2288
(dp2289
VmimeType
p2290
Vimage/png
p2291
sVcomment
p2292
g4
sVsize
p2293
I0
ssVheaders
p2294
(lp2295
sVheadersSize
p2296
I822
sVredirectURL
p2297
g4
sVbodySize
p2298
I885
sVhttpVersion
p2299
VHTTP/1.1
p2300
ssa(dp2301
Vcomment
p2302
g4
sVserverIPAddress
p2303
V216.58.216.193
p2304
sVpageref
p2305
VVolvo
p2306
sVstartedDateTime
p2307
V2017-04-16T08:47:56.931-05:00
p2308
sVcache
p2309
(dp2310
sVrequest
p2311
(dp2312
Vcomment
p2313
g4
sVcookies
p2314
(lp2315
sVurl
p2316
Vhttps://s-wsj-net.cdn.ampproject.org/ii/w82/s/s.wsj.net/media/ampEmail.png
p2317
sVqueryString
p2318
(lp2319
sVheaders
p2320
(lp2321
sVheadersSize
p2322
I524
sVbodySize
p2323
I0
sVmethod
p2324
VGET
p2325
sVhttpVersion
p2326
VHTTP/1.1
p2327
ssVtimings
p2328
(dp2329
Vcomment
p2330
g4
sVreceive
p2331
I0
sVsend
p2332
I0
sVssl
p2333
I450
sVconnect
p2334
I531
sVdns
p2335
I73
sVwait
p2336
I26
sVblocked
p2337
I0
ssVtime
p2338
I631
sVresponse
p2339
(dp2340
Vstatus
p2341
I200
sVcomment
p2342
g4
sVcookies
p2343
(lp2344
sVstatusText
p2345
VOK
p2346
sVcontent
p2347
(dp2348
VmimeType
p2349
Vimage/png
p2350
sVcomment
p2351
g4
sVsize
p2352
I0
ssVheaders
p2353
(lp2354
sVheadersSize
p2355
I822
sVredirectURL
p2356
g4
sVbodySize
p2357
I766
sVhttpVersion
p2358
VHTTP/1.1
p2359
ssa(dp2360
Vcomment
p2361
g4
sVserverIPAddress
p2362
V216.58.216.193
p2363
sVpageref
p2364
VVolvo
p2365
sVstartedDateTime
p2366
V2017-04-16T08:47:56.996-05:00
p2367
sVcache
p2368
(dp2369
sVrequest
p2370
(dp2371
Vcomment
p2372
g4
sVcookies
p2373
(lp2374
sVurl
p2375
Vhttps://si-wsj-net.cdn.ampproject.org/ii/w1200/s/si.wsj.net/public/resources/images/OD-BN613_RUMBLE_P_20170411115304.jpg
p2376
sVqueryString
p2377
(lp2378
sVheaders
p2379
(lp2380
sVheadersSize
p2381
I570
sVbodySize
p2382
I0
sVmethod
p2383
VGET
p2384
sVhttpVersion
p2385
VHTTP/1.1
p2386
ssVtimings
p2387
(dp2388
Vcomment
p2389
g4
sVreceive
p2390
I30
sVsend
p2391
I0
sVssl
p2392
I516
sVconnect
p2393
I596
sVdns
p2394
I78
sVwait
p2395
I73
sVblocked
p2396
I0
ssVtime
p2397
I779
sVresponse
p2398
(dp2399
Vstatus
p2400
I200
sVcomment
p2401
g4
sVcookies
p2402
(lp2403
sVstatusText
p2404
VOK
p2405
sVcontent
p2406
(dp2407
VmimeType
p2408
Vimage/jpeg
p2409
sVcomment
p2410
g4
sVsize
p2411
I0
ssVheaders
p2412
(lp2413
sVheadersSize
p2414
I849
sVredirectURL
p2415
g4
sVbodySize
p2416
I54428
sVhttpVersion
p2417
VHTTP/1.1
p2418
ssa(dp2419
Vcomment
p2420
g4
sVserverIPAddress
p2421
V172.217.6.4
p2422
sVpageref
p2423
VVolvo
p2424
sVstartedDateTime
p2425
V2017-04-16T08:47:57.130-05:00
p2426
sVcache
p2427
(dp2428
sVrequest
p2429
(dp2430
Vcomment
p2431
g4
sVcookies
p2432
(lp2433
sVurl
p2434
Vhttps://www.google.com/gen_204?s=web&atyp=csi&ei=BnbzWP-oH6vLjwSAy63QCA&imc=36&imn=36&imp=10&adh=tv.285,t.285&xjs=init.44.14.sb_mob.28.dvl.8.async.2.c.1.mbsf.1&ima=3&rt=prt.1624,iml.1669,xjsls.1625,qiml.1866,dcl.1674,xjses.3086,xjsee.3239,xjs.3239,ol.5452,aft.1624,wsrt.127,cst.0,dnst.0,rqst.1613,rspt.1499,rqstt.3,unt.2,cstt.2,dit.1769
p2435
sVqueryString
p2436
(lp2437
(dp2438
Vname
p2439
g57
sVvalue
p2440
Vweb
p2441
sa(dp2442
Vname
p2443
Vatyp
p2444
sVvalue
p2445
Vcsi
p2446
sa(dp2447
Vname
p2448
Vei
p2449
sVvalue
p2450
VBnbzWP-oH6vLjwSAy63QCA
p2451
sa(dp2452
Vname
p2453
Vimc
p2454
sVvalue
p2455
V36
p2456
sa(dp2457
Vname
p2458
Vimn
p2459
sVvalue
p2460
V36
p2461
sa(dp2462
Vname
p2463
Vimp
p2464
sVvalue
p2465
V10
p2466
sa(dp2467
Vname
p2468
Vadh
p2469
sVvalue
p2470
Vtv.285,t.285
p2471
sa(dp2472
Vname
p2473
Vxjs
p2474
sVvalue
p2475
Vinit.44.14.sb_mob.28.dvl.8.async.2.c.1.mbsf.1
p2476
sa(dp2477
Vname
p2478
Vima
p2479
sVvalue
p2480
V3
p2481
sa(dp2482
Vname
p2483
Vrt
p2484
sVvalue
p2485
Vprt.1624,iml.1669,xjsls.1625,qiml.1866,dcl.1674,xjses.3086,xjsee.3239,xjs.3239,ol.5452,aft.1624,wsrt.127,cst.0,dnst.0,rqst.1613,rspt.1499,rqstt.3,unt.2,cstt.2,dit.1769
p2486
sasVheaders
p2487
(lp2488
sVheadersSize
p2489
I853
sVbodySize
p2490
I0
sVmethod
p2491
VGET
p2492
sVhttpVersion
p2493
VHTTP/1.1
p2494
ssVtimings
p2495
(dp2496
Vcomment
p2497
g4
sVreceive
p2498
I0
sVsend
p2499
I0
sVssl
p2500
I-1
sVconnect
p2501
I-1
sVdns
p2502
I-1
sVwait
p2503
I24
sVblocked
p2504
I-1
ssVtime
p2505
I25
sVresponse
p2506
(dp2507
Vstatus
p2508
I204
sVcomment
p2509
g4
sVcookies
p2510
(lp2511
sVstatusText
p2512
VNo Content
p2513
sVcontent
p2514
(dp2515
VmimeType
p2516
Vtext/html; charset=UTF-8
p2517
sVcomment
p2518
g4
sVsize
p2519
I0
ssVheaders
p2520
(lp2521
sVheadersSize
p2522
I248
sVredirectURL
p2523
g4
sVbodySize
p2524
I0
sVhttpVersion
p2525
VHTTP/1.1
p2526
ssa(dp2527
Vcomment
p2528
g4
sVserverIPAddress
p2529
V172.217.6.4
p2530
sVpageref
p2531
VVolvo
p2532
sVstartedDateTime
p2533
V2017-04-16T08:47:57.430-05:00
p2534
sVcache
p2535
(dp2536
sVrequest
p2537
(dp2538
Vcomment
p2539
g4
sVcookies
p2540
(lp2541
sVurl
p2542
Vhttps://www.google.com/gen_204?atyp=i&ct=slh&cad=&ei=8XXzWKG2E-GwjwT3iIC4AQ&s=2&v=2&pv=0.48027439534246896&me=16:1492350470979,e,H&zx=1492350477429
p2543
sVqueryString
p2544
(lp2545
(dp2546
Vname
p2547
Vatyp
p2548
sVvalue
p2549
g30
sa(dp2550
Vname
p2551
Vct
p2552
sVvalue
p2553
Vslh
p2554
sa(dp2555
Vname
p2556
Vcad
p2557
sVvalue
p2558
g4
sa(dp2559
Vname
p2560
Vei
p2561
sVvalue
p2562
V8XXzWKG2E-GwjwT3iIC4AQ
p2563
sa(dp2564
Vname
p2565
g57
sVvalue
p2566
g64
sa(dp2567
Vname
p2568
g62
sVvalue
p2569
g64
sa(dp2570
Vname
p2571
Vpv
p2572
sVvalue
p2573
V0.48027439534246896
p2574
sa(dp2575
Vname
p2576
Vme
p2577
sVvalue
p2578
V16:1492350470979,e,H
p2579
sa(dp2580
Vname
p2581
Vzx
p2582
sVvalue
p2583
V1492350477429
p2584
sasVheaders
p2585
(lp2586
sVheadersSize
p2587
I664
sVbodySize
p2588
I0
sVmethod
p2589
VGET
p2590
sVhttpVersion
p2591
VHTTP/1.1
p2592
ssVtimings
p2593
(dp2594
Vcomment
p2595
g4
sVreceive
p2596
I0
sVsend
p2597
I0
sVssl
p2598
I-1
sVconnect
p2599
I-1
sVdns
p2600
I-1
sVwait
p2601
I29
sVblocked
p2602
I-1
ssVtime
p2603
I30
sVresponse
p2604
(dp2605
Vstatus
p2606
I204
sVcomment
p2607
g4
sVcookies
p2608
(lp2609
sVstatusText
p2610
VNo Content
p2611
sVcontent
p2612
(dp2613
VmimeType
p2614
Vtext/html; charset=UTF-8
p2615
sVcomment
p2616
g4
sVsize
p2617
I0
ssVheaders
p2618
(lp2619
sVheadersSize
p2620
I248
sVredirectURL
p2621
g4
sVbodySize
p2622
I0
sVhttpVersion
p2623
VHTTP/1.1
p2624
ssasVversion
p2625
V1.2
p2626
sVpages
p2627
(lp2628
(dp2629
VpageTimings
p2630
(dp2631
Vcomment
p2632
g4
ssVcomment
p2633
g4
sVtitle
p2634
VVolvo
p2635
sVid
p2636
VVolvo
p2637
sVstartedDateTime
p2638
V2017-04-16T08:47:49.041-05:00
p2639
sasVcreator
p2640
(dp2641
Vcomment
p2642
g4
sVversion
p2643
V2.1.4
p2644
sVname
p2645
VBrowserMob Proxy
p2646
sss.