(dp0
Vlog
p1
(dp2
Vcomment
p3
V
p4
sVentries
p5
(lp6
(dp7
Vcomment
p8
g4
sVserverIPAddress
p9
V216.58.216.196
p10
sVpageref
p11
VDavid Ross
p12
sVstartedDateTime
p13
V2017-04-16T08:23:42.369-05:00
p14
sVcache
p15
(dp16
sVrequest
p17
(dp18
Vcomment
p19
g4
sVcookies
p20
(lp21
sVurl
p22
Vhttps://www.google.com/gen_204?atyp=i&ct=slh&cad=&ei=UXDzWPr8N6qijwSRuYvwBA&s=2&v=2&pv=0.3333314943202711&me=19:1492349015967,V,0,0,0,0:6401,e,U&zx=1492349022368
p23
sVqueryString
p24
(lp25
(dp26
Vname
p27
Vatyp
p28
sVvalue
p29
Vi
p30
sa(dp31
Vname
p32
Vct
p33
sVvalue
p34
Vslh
p35
sa(dp36
Vname
p37
Vcad
p38
sVvalue
p39
g4
sa(dp40
Vname
p41
Vei
p42
sVvalue
p43
VUXDzWPr8N6qijwSRuYvwBA
p44
sa(dp45
Vname
p46
Vs
p47
sVvalue
p48
V2
p49
sa(dp50
Vname
p51
Vv
p52
sVvalue
p53
g49
sa(dp54
Vname
p55
Vpv
p56
sVvalue
p57
V0.3333314943202711
p58
sa(dp59
Vname
p60
Vme
p61
sVvalue
p62
V19:1492349015967,V,0,0,0,0:6401,e,U
p63
sa(dp64
Vname
p65
Vzx
p66
sVvalue
p67
V1492349022368
p68
sasVheaders
p69
(lp70
sVheadersSize
p71
I678
sVbodySize
p72
I0
sVmethod
p73
VGET
p74
sVhttpVersion
p75
VHTTP/1.1
p76
ssVtimings
p77
(dp78
Vcomment
p79
g4
sVreceive
p80
I0
sVsend
p81
I0
sVssl
p82
I-1
sVconnect
p83
I-1
sVdns
p84
I-1
sVwait
p85
I0
sVblocked
p86
I-1
ssVtime
p87
I0
sVresponse
p88
(dp89
Vstatus
p90
I0
sVcomment
p91
g4
sVcookies
p92
(lp93
sV_error
p94
VNo response received
p95
sVstatusText
p96
g4
sVcontent
p97
(dp98
VmimeType
p99
g4
sVcomment
p100
g4
sVsize
p101
I0
ssVheaders
p102
(lp103
sVheadersSize
p104
I-1
sVredirectURL
p105
g4
sVbodySize
p106
I-1
sVhttpVersion
p107
Vunknown
p108
ssa(dp109
Vcomment
p110
g4
sVserverIPAddress
p111
V216.58.216.196
p112
sVpageref
p113
VDavid Ross
p114
sVstartedDateTime
p115
V2017-04-16T08:23:42.372-05:00
p116
sVcache
p117
(dp118
sVrequest
p119
(dp120
Vcomment
p121
g4
sVcookies
p122
(lp123
sVurl
p124
Vhttp://www.google.com/
p125
sVqueryString
p126
(lp127
sVheaders
p128
(lp129
sVheadersSize
p130
I613
sVbodySize
p131
I0
sVmethod
p132
VGET
p133
sVhttpVersion
p134
VHTTP/1.1
p135
ssVtimings
p136
(dp137
Vcomment
p138
g4
sVreceive
p139
I0
sVsend
p140
I0
sVssl
p141
I-1
sVconnect
p142
I-1
sVdns
p143
I-1
sVwait
p144
I263
sVblocked
p145
I-1
ssVtime
p146
I264
sVresponse
p147
(dp148
Vstatus
p149
I302
sVcomment
p150
g4
sVcookies
p151
(lp152
sVstatusText
p153
VFound
p154
sVcontent
p155
(dp156
VmimeType
p157
Vtext/html; charset=UTF-8
p158
sVcomment
p159
g4
sVsize
p160
I0
ssVheaders
p161
(lp162
sVheadersSize
p163
I609
sVredirectURL
p164
Vhttps://www.google.com/?gws_rd=ssl
p165
sVbodySize
p166
I231
sVhttpVersion
p167
VHTTP/1.1
p168
ssa(dp169
Vcomment
p170
g4
sVserverIPAddress
p171
V216.58.216.196
p172
sVpageref
p173
VDavid Ross
p174
sVstartedDateTime
p175
V2017-04-16T08:23:42.639-05:00
p176
sVcache
p177
(dp178
sVrequest
p179
(dp180
Vcomment
p181
g4
sVcookies
p182
(lp183
sVurl
p184
Vhttps://www.google.com/?gws_rd=ssl
p185
sVqueryString
p186
(lp187
(dp188
Vname
p189
Vgws_rd
p190
sVvalue
p191
Vssl
p192
sasVheaders
p193
(lp194
sVheadersSize
p195
I607
sVbodySize
p196
I0
sVmethod
p197
VGET
p198
sVhttpVersion
p199
VHTTP/1.1
p200
ssVtimings
p201
(dp202
Vcomment
p203
g4
sVreceive
p204
I14
sVsend
p205
I0
sVssl
p206
I-1
sVconnect
p207
I-1
sVdns
p208
I-1
sVwait
p209
I84
sVblocked
p210
I-1
ssVtime
p211
I98
sVresponse
p212
(dp213
Vstatus
p214
I200
sVcomment
p215
g4
sVcookies
p216
(lp217
sVstatusText
p218
VOK
p219
sVcontent
p220
(dp221
VmimeType
p222
Vtext/html; charset=UTF-8
p223
sVcomment
p224
g4
sVsize
p225
I0
ssVheaders
p226
(lp227
sVheadersSize
p228
I721
sVredirectURL
p229
g4
sVbodySize
p230
I34290
sVhttpVersion
p231
VHTTP/1.1
p232
ssa(dp233
Vcomment
p234
g4
sVserverIPAddress
p235
V216.58.216.196
p236
sVpageref
p237
VDavid Ross
p238
sVstartedDateTime
p239
V2017-04-16T08:23:42.730-05:00
p240
sVcache
p241
(dp242
sVrequest
p243
(dp244
Vcomment
p245
g4
sVcookies
p246
(lp247
sVurl
p248
Vhttps://www.google.com/gen_204?atyp=i&ct=slh&cad=&ei=UXDzWPr8N6qijwSRuYvwBA&s=3&v=2&pv=0.3333314943202711&me=21:1492349022727,e,H&zx=1492349022729
p249
sVqueryString
p250
(lp251
(dp252
Vname
p253
Vatyp
p254
sVvalue
p255
g30
sa(dp256
Vname
p257
Vct
p258
sVvalue
p259
Vslh
p260
sa(dp261
Vname
p262
Vcad
p263
sVvalue
p264
g4
sa(dp265
Vname
p266
Vei
p267
sVvalue
p268
VUXDzWPr8N6qijwSRuYvwBA
p269
sa(dp270
Vname
p271
g47
sVvalue
p272
V3
p273
sa(dp274
Vname
p275
g52
sVvalue
p276
g49
sa(dp277
Vname
p278
Vpv
p279
sVvalue
p280
V0.3333314943202711
p281
sa(dp282
Vname
p283
Vme
p284
sVvalue
p285
V21:1492349022727,e,H
p286
sa(dp287
Vname
p288
Vzx
p289
sVvalue
p290
V1492349022729
p291
sasVheaders
p292
(lp293
sVheadersSize
p294
I663
sVbodySize
p295
I0
sVmethod
p296
VGET
p297
sVhttpVersion
p298
VHTTP/1.1
p299
ssVtimings
p300
(dp301
Vcomment
p302
g4
sVreceive
p303
I0
sVsend
p304
I0
sVssl
p305
I-1
sVconnect
p306
I-1
sVdns
p307
I-1
sVwait
p308
I47
sVblocked
p309
I-1
ssVtime
p310
I47
sVresponse
p311
(dp312
Vstatus
p313
I204
sVcomment
p314
g4
sVcookies
p315
(lp316
sVstatusText
p317
VNo Content
p318
sVcontent
p319
(dp320
VmimeType
p321
Vtext/html; charset=UTF-8
p322
sVcomment
p323
g4
sVsize
p324
I0
ssVheaders
p325
(lp326
sVheadersSize
p327
I248
sVredirectURL
p328
g4
sVbodySize
p329
I0
sVhttpVersion
p330
VHTTP/1.1
p331
ssa(dp332
Vcomment
p333
g4
sVserverIPAddress
p334
V216.58.216.196
p335
sVpageref
p336
VDavid Ross
p337
sVstartedDateTime
p338
V2017-04-16T08:23:43.107-05:00
p339
sVcache
p340
(dp341
sVrequest
p342
(dp343
Vcomment
p344
g4
sVcookies
p345
(lp346
sVurl
p347
Vhttps://www.google.com/gen_204?s=mobilewebhp&atyp=csi&ei=XXDzWOGaJ6ikjwTxiaqQDg&imc=1&imn=1&imp=0&adh=&xjs=init.26.12.sb_mob.17.dvl.5.c.1.jsa.1.mbsf.1&ima=1&rt=xjsls.20,prt.21,iml.21,dcl.101,xjses.157,xjsee.248,xjs.249,ol.354,aft.21,wsrt.378,cst.0,dnst.0,rqst.100,rspt.13,rqstt.271,unt.270,cstt.270,dit.471
p348
sVqueryString
p349
(lp350
(dp351
Vname
p352
g47
sVvalue
p353
Vmobilewebhp
p354
sa(dp355
Vname
p356
Vatyp
p357
sVvalue
p358
Vcsi
p359
sa(dp360
Vname
p361
Vei
p362
sVvalue
p363
VXXDzWOGaJ6ikjwTxiaqQDg
p364
sa(dp365
Vname
p366
Vimc
p367
sVvalue
p368
V1
p369
sa(dp370
Vname
p371
Vimn
p372
sVvalue
p373
g369
sa(dp374
Vname
p375
Vimp
p376
sVvalue
p377
V0
p378
sa(dp379
Vname
p380
Vadh
p381
sVvalue
p382
g4
sa(dp383
Vname
p384
Vxjs
p385
sVvalue
p386
Vinit.26.12.sb_mob.17.dvl.5.c.1.jsa.1.mbsf.1
p387
sa(dp388
Vname
p389
Vima
p390
sVvalue
p391
g369
sa(dp392
Vname
p393
Vrt
p394
sVvalue
p395
Vxjsls.20,prt.21,iml.21,dcl.101,xjses.157,xjsee.248,xjs.249,ol.354,aft.21,wsrt.378,cst.0,dnst.0,rqst.100,rspt.13,rqstt.271,unt.270,cstt.270,dit.471
p396
sasVheaders
p397
(lp398
sVheadersSize
p399
I834
sVbodySize
p400
I0
sVmethod
p401
VGET
p402
sVhttpVersion
p403
VHTTP/1.1
p404
ssVtimings
p405
(dp406
Vcomment
p407
g4
sVreceive
p408
I0
sVsend
p409
I0
sVssl
p410
I-1
sVconnect
p411
I-1
sVdns
p412
I-1
sVwait
p413
I31
sVblocked
p414
I-1
ssVtime
p415
I31
sVresponse
p416
(dp417
Vstatus
p418
I204
sVcomment
p419
g4
sVcookies
p420
(lp421
sVstatusText
p422
VNo Content
p423
sVcontent
p424
(dp425
VmimeType
p426
Vtext/html; charset=UTF-8
p427
sVcomment
p428
g4
sVsize
p429
I0
ssVheaders
p430
(lp431
sVheadersSize
p432
I248
sVredirectURL
p433
g4
sVbodySize
p434
I0
sVhttpVersion
p435
VHTTP/1.1
p436
ssa(dp437
Vcomment
p438
g4
sVserverIPAddress
p439
V216.58.216.196
p440
sVpageref
p441
VDavid Ross
p442
sVstartedDateTime
p443
V2017-04-16T08:23:43.199-05:00
p444
sVcache
p445
(dp446
sVrequest
p447
(dp448
Vcomment
p449
g4
sVcookies
p450
(lp451
sVurl
p452
Vhttps://www.google.com/complete/search?client=mobile-gws-hp&hl=en&gs_rn=64&gs_ri=mobile-gws-hp&sla=1&pfq=david%20ortiz&gm=602&cp=0&gs_id=1&xhr=t&q=D&tch=1&ech=1&psi=XXDzWOGaJ6ikjwTxiaqQDg.1492349022970.1
p453
sVqueryString
p454
(lp455
(dp456
Vname
p457
Vclient
p458
sVvalue
p459
Vmobile-gws-hp
p460
sa(dp461
Vname
p462
Vhl
p463
sVvalue
p464
Ven
p465
sa(dp466
Vname
p467
Vgs_rn
p468
sVvalue
p469
V64
p470
sa(dp471
Vname
p472
Vgs_ri
p473
sVvalue
p474
Vmobile-gws-hp
p475
sa(dp476
Vname
p477
Vsla
p478
sVvalue
p479
g369
sa(dp480
Vname
p481
Vpfq
p482
sVvalue
p483
Vdavid ortiz
p484
sa(dp485
Vname
p486
Vgm
p487
sVvalue
p488
V602
p489
sa(dp490
Vname
p491
Vcp
p492
sVvalue
p493
g378
sa(dp494
Vname
p495
Vgs_id
p496
sVvalue
p497
g369
sa(dp498
Vname
p499
Vxhr
p500
sVvalue
p501
Vt
p502
sa(dp503
Vname
p504
Vq
p505
sVvalue
p506
VD
p507
sa(dp508
Vname
p509
Vtch
p510
sVvalue
p511
g369
sa(dp512
Vname
p513
Vech
p514
sVvalue
p515
g369
sa(dp516
Vname
p517
Vpsi
p518
sVvalue
p519
VXXDzWOGaJ6ikjwTxiaqQDg.1492349022970.1
p520
sasVheaders
p521
(lp522
sVheadersSize
p523
I731
sVbodySize
p524
I0
sVmethod
p525
VGET
p526
sVhttpVersion
p527
VHTTP/1.1
p528
ssVtimings
p529
(dp530
Vcomment
p531
g4
sVreceive
p532
I0
sVsend
p533
I0
sVssl
p534
I-1
sVconnect
p535
I-1
sVdns
p536
I-1
sVwait
p537
I0
sVblocked
p538
I-1
ssVtime
p539
I0
sVresponse
p540
(dp541
Vstatus
p542
I0
sVcomment
p543
g4
sVcookies
p544
(lp545
sV_error
p546
VNo response received
p547
sVstatusText
p548
g4
sVcontent
p549
(dp550
VmimeType
p551
g4
sVcomment
p552
g4
sVsize
p553
I0
ssVheaders
p554
(lp555
sVheadersSize
p556
I-1
sVredirectURL
p557
g4
sVbodySize
p558
I-1
sVhttpVersion
p559
Vunknown
p560
ssa(dp561
Vcomment
p562
g4
sVserverIPAddress
p563
V216.58.216.196
p564
sVpageref
p565
VDavid Ross
p566
sVstartedDateTime
p567
V2017-04-16T08:23:43.268-05:00
p568
sVcache
p569
(dp570
sVrequest
p571
(dp572
Vcomment
p573
g4
sVcookies
p574
(lp575
sVurl
p576
Vhttps://www.google.com/search?site=&source=hp&ei=XXDzWOGaJ6ikjwTxiaqQDg&q=David+Ross&oq=David+Ross&gs_l=mobile-gws-hp.3...210.238.0.271.10.1.0.0.0.0.0.0..0.0....0...1c.1.64.mobile-gws-hp..10.0.0.8dRGp5dzbyU
p577
sVqueryString
p578
(lp579
(dp580
Vname
p581
Vsite
p582
sVvalue
p583
g4
sa(dp584
Vname
p585
Vsource
p586
sVvalue
p587
Vhp
p588
sa(dp589
Vname
p590
Vei
p591
sVvalue
p592
VXXDzWOGaJ6ikjwTxiaqQDg
p593
sa(dp594
Vname
p595
g505
sVvalue
p596
VDavid Ross
p597
sa(dp598
Vname
p599
Voq
p600
sVvalue
p601
VDavid Ross
p602
sa(dp603
Vname
p604
Vgs_l
p605
sVvalue
p606
Vmobile-gws-hp.3...210.238.0.271.10.1.0.0.0.0.0.0..0.0....0...1c.1.64.mobile-gws-hp..10.0.0.8dRGp5dzbyU
p607
sasVheaders
p608
(lp609
sVheadersSize
p610
I824
sVbodySize
p611
I0
sVmethod
p612
VGET
p613
sVhttpVersion
p614
VHTTP/1.1
p615
ssVtimings
p616
(dp617
Vcomment
p618
g4
sVreceive
p619
I900
sVsend
p620
I0
sVssl
p621
I-1
sVconnect
p622
I-1
sVdns
p623
I-1
sVwait
p624
I144
sVblocked
p625
I-1
ssVtime
p626
I1044
sVresponse
p627
(dp628
Vstatus
p629
I200
sVcomment
p630
g4
sVcookies
p631
(lp632
sVstatusText
p633
VOK
p634
sVcontent
p635
(dp636
VmimeType
p637
Vtext/html; charset=UTF-8
p638
sVcomment
p639
g4
sVsize
p640
I0
ssVheaders
p641
(lp642
sVheadersSize
p643
I363
sVredirectURL
p644
g4
sVbodySize
p645
I177827
sVhttpVersion
p646
VHTTP/1.1
p647
ssa(dp648
Vcomment
p649
g4
sVserverIPAddress
p650
V216.58.216.196
p651
sVpageref
p652
VDavid Ross
p653
sVstartedDateTime
p654
V2017-04-16T08:23:44.229-05:00
p655
sVcache
p656
(dp657
sVrequest
p658
(dp659
Vcomment
p660
g4
sVcookies
p661
(lp662
sVurl
p663
Vhttps://www.google.com/gen_204?atyp=i&ct=&cad=udla=1&ei=XnDzWKuPEsTHjwTa5pT4Dw&b=0&act=p&ps=0&zx=1492349024227
p664
sVqueryString
p665
(lp666
(dp667
Vname
p668
Vatyp
p669
sVvalue
p670
g30
sa(dp671
Vname
p672
Vct
p673
sVvalue
p674
g4
sa(dp675
Vname
p676
Vcad
p677
sVvalue
p678
Vudla=1
p679
sa(dp680
Vname
p681
Vei
p682
sVvalue
p683
VXnDzWKuPEsTHjwTa5pT4Dw
p684
sa(dp685
Vname
p686
Vb
p687
sVvalue
p688
g378
sa(dp689
Vname
p690
Vact
p691
sVvalue
p692
Vp
p693
sa(dp694
Vname
p695
Vps
p696
sVvalue
p697
g378
sa(dp698
Vname
p699
Vzx
p700
sVvalue
p701
V1492349024227
p702
sasVheaders
p703
(lp704
sVheadersSize
p705
I627
sVbodySize
p706
I0
sVmethod
p707
VGET
p708
sVhttpVersion
p709
VHTTP/1.1
p710
ssVtimings
p711
(dp712
Vcomment
p713
g4
sVreceive
p714
I0
sVsend
p715
I0
sVssl
p716
I-1
sVconnect
p717
I-1
sVdns
p718
I-1
sVwait
p719
I39
sVblocked
p720
I-1
ssVtime
p721
I39
sVresponse
p722
(dp723
Vstatus
p724
I204
sVcomment
p725
g4
sVcookies
p726
(lp727
sVstatusText
p728
VNo Content
p729
sVcontent
p730
(dp731
VmimeType
p732
Vtext/html; charset=UTF-8
p733
sVcomment
p734
g4
sVsize
p735
I0
ssVheaders
p736
(lp737
sVheadersSize
p738
I248
sVredirectURL
p739
g4
sVbodySize
p740
I0
sVhttpVersion
p741
VHTTP/1.1
p742
ssa(dp743
Vcomment
p744
g4
sVserverIPAddress
p745
V216.58.216.196
p746
sVpageref
p747
VDavid Ross
p748
sVstartedDateTime
p749
V2017-04-16T08:23:44.824-05:00
p750
sVcache
p751
(dp752
sVrequest
p753
(dp754
Vcomment
p755
g4
sVcookies
p756
(lp757
sVurl
p758
Vhttps://www.google.com/xjs/_/js/k=xjs.qs.en_US.pCBXVCvTH3s.O/m=syl,syj,syn,em3,em8,em6,em7,sym,aa,abd,sy2g,sy2k,sy29,sy2j,sy2d,sy2a,sy2c,sy2f,sy2l,sy2m,sy2n,emd,async,sybn,sybi,sybo,sy1f,sy45,sy46,sy9w,sybk,sybj,sybp,sy1g,sy30,sy47,sybm,sybl,sybq,sy1h,sybh,dvl,syep,foot,ipv6,sy32,emj,shm,sy5g,sy5i,sy5k,sykh,tl,sy2x,sy2y,sy2t,sy38,em12,vs,sy5j,sy5h,sy6u,sy66,sy67,sy7d,sy7j,sy4u,sy69,sy89,sy7e,sykk,sykl,tnv,bct,sy1y,sy23,sy2u,sy22,sy6i,sy34,sy31,sy6j,sy25,sy6l,sy6k,sy6h,emb,em9,ema,sy6m,qkx,sy4d,sy4f,sy4c,sy4e,sy24,sy4b,sy6w,shrb,sy4g,syd7,dgm,syf5,syf6,syf8,sygb,syg9,kptm,sy99,syf4,sy26,syfc,syfn,syf7,syff,sy1i,sy68,sy8d,sy9b,syfl,syfr,syfq,syfg,sy1j,sy4q,sy5o,sy5r,sy6n,sy6p,sy8h,syc7,syc8,syfb,syfj,syfs,syft,syg3,syg5,syg7,emn,emo,syg4,syg6,ivg,sy9m,syac,sy9n,syhz,syl6,ssc,iuci,img,sy41,tcc,sygq,kpc,kpci,sy4h,vrml,sy6y,sycu,d3l,sya3,sya2,sy72,sya4,sykr,strm,twt,sy5z,atn,sy4i,sya1,ampfp/am=gCP4LtMEBXQA2RUaq_oFBISzAFA/rt=j/d=0/t=zcms/rs=ACT90oFwm4NZCwIcuuiqmthdlECdBzkhRA
p759
sVqueryString
p760
(lp761
sVheaders
p762
(lp763
sVheadersSize
p764
I1500
sVbodySize
p765
I0
sVmethod
p766
VGET
p767
sVhttpVersion
p768
VHTTP/1.1
p769
ssVtimings
p770
(dp771
Vcomment
p772
g4
sVreceive
p773
I37
sVsend
p774
I0
sVssl
p775
I-1
sVconnect
p776
I-1
sVdns
p777
I-1
sVwait
p778
I99
sVblocked
p779
I-1
ssVtime
p780
I136
sVresponse
p781
(dp782
Vstatus
p783
I200
sVcomment
p784
g4
sVcookies
p785
(lp786
sVstatusText
p787
VOK
p788
sVcontent
p789
(dp790
VmimeType
p791
Vtext/javascript; charset=UTF-8
p792
sVcomment
p793
g4
sVsize
p794
I0
ssVheaders
p795
(lp796
sVheadersSize
p797
I452
sVredirectURL
p798
g4
sVbodySize
p799
I112372
sVhttpVersion
p800
VHTTP/1.1
p801
ssa(dp802
Vcomment
p803
g4
sVserverIPAddress
p804
V216.58.216.196
p805
sVpageref
p806
VDavid Ross
p807
sVstartedDateTime
p808
V2017-04-16T08:23:45.136-05:00
p809
sVcache
p810
(dp811
sVrequest
p812
(dp813
Vcomment
p814
g4
sVcookies
p815
(lp816
sVurl
p817
Vhttps://www.google.com/async/irc?vet=10ahUKEwirtuuqianTAhXE44MKHVozBf8Qo0EInQI..i&ved=0ahUKEwirtuuqianTAhXE44MKHVozBf8Qo0EInQI&ei=XnDzWKuPEsTHjwTa5pT4Dw&yv=2&async=iu:1,ved:0ahUKEwirtuuqianTAhXE44MKHVozBf8Qo0EInQI,_id:irc_async,_pms:qs
p818
sVqueryString
p819
(lp820
(dp821
Vname
p822
Vvet
p823
sVvalue
p824
V10ahUKEwirtuuqianTAhXE44MKHVozBf8Qo0EInQI..i
p825
sa(dp826
Vname
p827
Vved
p828
sVvalue
p829
V0ahUKEwirtuuqianTAhXE44MKHVozBf8Qo0EInQI
p830
sa(dp831
Vname
p832
Vei
p833
sVvalue
p834
VXnDzWKuPEsTHjwTa5pT4Dw
p835
sa(dp836
Vname
p837
Vyv
p838
sVvalue
p839
g49
sa(dp840
Vname
p841
Vasync
p842
sVvalue
p843
Viu:1,ved:0ahUKEwirtuuqianTAhXE44MKHVozBf8Qo0EInQI,_id:irc_async,_pms:qs
p844
sasVheaders
p845
(lp846
sVheadersSize
p847
I752
sVbodySize
p848
I0
sVmethod
p849
VGET
p850
sVhttpVersion
p851
VHTTP/1.1
p852
ssVtimings
p853
(dp854
Vcomment
p855
g4
sVreceive
p856
I1
sVsend
p857
I0
sVssl
p858
I-1
sVconnect
p859
I-1
sVdns
p860
I-1
sVwait
p861
I35
sVblocked
p862
I-1
ssVtime
p863
I36
sVresponse
p864
(dp865
Vstatus
p866
I200
sVcomment
p867
g4
sVcookies
p868
(lp869
sVstatusText
p870
VOK
p871
sVcontent
p872
(dp873
VmimeType
p874
Vtext/html; charset=UTF-8
p875
sVcomment
p876
g4
sVsize
p877
I0
ssVheaders
p878
(lp879
sVheadersSize
p880
I383
sVredirectURL
p881
g4
sVbodySize
p882
I7789
sVhttpVersion
p883
VHTTP/1.1
p884
ssa(dp885
Vcomment
p886
g4
sVserverIPAddress
p887
V216.58.216.196
p888
sVpageref
p889
VDavid Ross
p890
sVstartedDateTime
p891
V2017-04-16T08:23:45.150-05:00
p892
sVcache
p893
(dp894
sVrequest
p895
(dp896
Vcomment
p897
g4
sVcookies
p898
(lp899
sVurl
p900
Vhttps://www.google.com/gen_204?atyp=i&ct=&cad=&vet=10ahUKEwirtuuqianTAhXE44MKHVozBf8Q5W0IMygC..s&ei=XnDzWKuPEsTHjwTa5pT4Dw&zx=1492349025149
p901
sVqueryString
p902
(lp903
(dp904
Vname
p905
Vatyp
p906
sVvalue
p907
g30
sa(dp908
Vname
p909
Vct
p910
sVvalue
p911
g4
sa(dp912
Vname
p913
Vcad
p914
sVvalue
p915
g4
sa(dp916
Vname
p917
Vvet
p918
sVvalue
p919
V10ahUKEwirtuuqianTAhXE44MKHVozBf8Q5W0IMygC..s
p920
sa(dp921
Vname
p922
Vei
p923
sVvalue
p924
VXnDzWKuPEsTHjwTa5pT4Dw
p925
sa(dp926
Vname
p927
Vzx
p928
sVvalue
p929
V1492349025149
p930
sasVheaders
p931
(lp932
sVheadersSize
p933
I656
sVbodySize
p934
I0
sVmethod
p935
VGET
p936
sVhttpVersion
p937
VHTTP/1.1
p938
ssVtimings
p939
(dp940
Vcomment
p941
g4
sVreceive
p942
I0
sVsend
p943
I0
sVssl
p944
I-1
sVconnect
p945
I-1
sVdns
p946
I-1
sVwait
p947
I27
sVblocked
p948
I-1
ssVtime
p949
I28
sVresponse
p950
(dp951
Vstatus
p952
I204
sVcomment
p953
g4
sVcookies
p954
(lp955
sVstatusText
p956
VNo Content
p957
sVcontent
p958
(dp959
VmimeType
p960
Vtext/html; charset=UTF-8
p961
sVcomment
p962
g4
sVsize
p963
I0
ssVheaders
p964
(lp965
sVheadersSize
p966
I248
sVredirectURL
p967
g4
sVbodySize
p968
I0
sVhttpVersion
p969
VHTTP/1.1
p970
ssa(dp971
Vcomment
p972
g4
sVserverIPAddress
p973
V216.58.216.196
p974
sVpageref
p975
VDavid Ross
p976
sVstartedDateTime
p977
V2017-04-16T08:23:45.157-05:00
p978
sVcache
p979
(dp980
sVrequest
p981
(dp982
Vcomment
p983
g4
sVcookies
p984
(lp985
sVurl
p986
Vhttps://www.google.com/gen_204?atyp=i&ct=&cad=&vet=10ahUKEwirtuuqianTAhXE44MKHVozBf8Q5W0INigD..s&ei=XnDzWKuPEsTHjwTa5pT4Dw&zx=1492349025154
p987
sVqueryString
p988
(lp989
(dp990
Vname
p991
Vatyp
p992
sVvalue
p993
g30
sa(dp994
Vname
p995
Vct
p996
sVvalue
p997
g4
sa(dp998
Vname
p999
Vcad
p1000
sVvalue
p1001
g4
sa(dp1002
Vname
p1003
Vvet
p1004
sVvalue
p1005
V10ahUKEwirtuuqianTAhXE44MKHVozBf8Q5W0INigD..s
p1006
sa(dp1007
Vname
p1008
Vei
p1009
sVvalue
p1010
VXnDzWKuPEsTHjwTa5pT4Dw
p1011
sa(dp1012
Vname
p1013
Vzx
p1014
sVvalue
p1015
V1492349025154
p1016
sasVheaders
p1017
(lp1018
sVheadersSize
p1019
I656
sVbodySize
p1020
I0
sVmethod
p1021
VGET
p1022
sVhttpVersion
p1023
VHTTP/1.1
p1024
ssVtimings
p1025
(dp1026
Vcomment
p1027
g4
sVreceive
p1028
I0
sVsend
p1029
I0
sVssl
p1030
I-1
sVconnect
p1031
I-1
sVdns
p1032
I-1
sVwait
p1033
I29
sVblocked
p1034
I-1
ssVtime
p1035
I29
sVresponse
p1036
(dp1037
Vstatus
p1038
I204
sVcomment
p1039
g4
sVcookies
p1040
(lp1041
sVstatusText
p1042
VNo Content
p1043
sVcontent
p1044
(dp1045
VmimeType
p1046
Vtext/html; charset=UTF-8
p1047
sVcomment
p1048
g4
sVsize
p1049
I0
ssVheaders
p1050
(lp1051
sVheadersSize
p1052
I248
sVredirectURL
p1053
g4
sVbodySize
p1054
I0
sVhttpVersion
p1055
VHTTP/1.1
p1056
ssa(dp1057
Vcomment
p1058
g4
sVserverIPAddress
p1059
V216.58.216.196
p1060
sVpageref
p1061
VDavid Ross
p1062
sVstartedDateTime
p1063
V2017-04-16T08:23:45.161-05:00
p1064
sVcache
p1065
(dp1066
sVrequest
p1067
(dp1068
Vcomment
p1069
g4
sVcookies
p1070
(lp1071
sVurl
p1072
Vhttps://www.google.com/gen_204?atyp=i&ct=&cad=&vet=10ahUKEwirtuuqianTAhXE44MKHVozBf8Q5W0IOSgE..s&ei=XnDzWKuPEsTHjwTa5pT4Dw&zx=1492349025160
p1073
sVqueryString
p1074
(lp1075
(dp1076
Vname
p1077
Vatyp
p1078
sVvalue
p1079
g30
sa(dp1080
Vname
p1081
Vct
p1082
sVvalue
p1083
g4
sa(dp1084
Vname
p1085
Vcad
p1086
sVvalue
p1087
g4
sa(dp1088
Vname
p1089
Vvet
p1090
sVvalue
p1091
V10ahUKEwirtuuqianTAhXE44MKHVozBf8Q5W0IOSgE..s
p1092
sa(dp1093
Vname
p1094
Vei
p1095
sVvalue
p1096
VXnDzWKuPEsTHjwTa5pT4Dw
p1097
sa(dp1098
Vname
p1099
Vzx
p1100
sVvalue
p1101
V1492349025160
p1102
sasVheaders
p1103
(lp1104
sVheadersSize
p1105
I656
sVbodySize
p1106
I0
sVmethod
p1107
VGET
p1108
sVhttpVersion
p1109
VHTTP/1.1
p1110
ssVtimings
p1111
(dp1112
Vcomment
p1113
g4
sVreceive
p1114
I0
sVsend
p1115
I0
sVssl
p1116
I-1
sVconnect
p1117
I-1
sVdns
p1118
I-1
sVwait
p1119
I34
sVblocked
p1120
I-1
ssVtime
p1121
I34
sVresponse
p1122
(dp1123
Vstatus
p1124
I204
sVcomment
p1125
g4
sVcookies
p1126
(lp1127
sVstatusText
p1128
VNo Content
p1129
sVcontent
p1130
(dp1131
VmimeType
p1132
Vtext/html; charset=UTF-8
p1133
sVcomment
p1134
g4
sVsize
p1135
I0
ssVheaders
p1136
(lp1137
sVheadersSize
p1138
I248
sVredirectURL
p1139
g4
sVbodySize
p1140
I0
sVhttpVersion
p1141
VHTTP/1.1
p1142
ssa(dp1143
Vcomment
p1144
g4
sVserverIPAddress
p1145
V216.58.216.196
p1146
sVpageref
p1147
VDavid Ross
p1148
sVstartedDateTime
p1149
V2017-04-16T08:23:45.174-05:00
p1150
sVcache
p1151
(dp1152
sVrequest
p1153
(dp1154
Vcomment
p1155
g4
sVcookies
p1156
(lp1157
sVurl
p1158
Vhttps://www.google.com/gen_204?atyp=i&ct=&cad=&vet=10ahUKEwirtuuqianTAhXE44MKHVozBf8Q5W0IQigH..s&ei=XnDzWKuPEsTHjwTa5pT4Dw&zx=1492349025168
p1159
sVqueryString
p1160
(lp1161
(dp1162
Vname
p1163
Vatyp
p1164
sVvalue
p1165
g30
sa(dp1166
Vname
p1167
Vct
p1168
sVvalue
p1169
g4
sa(dp1170
Vname
p1171
Vcad
p1172
sVvalue
p1173
g4
sa(dp1174
Vname
p1175
Vvet
p1176
sVvalue
p1177
V10ahUKEwirtuuqianTAhXE44MKHVozBf8Q5W0IQigH..s
p1178
sa(dp1179
Vname
p1180
Vei
p1181
sVvalue
p1182
VXnDzWKuPEsTHjwTa5pT4Dw
p1183
sa(dp1184
Vname
p1185
Vzx
p1186
sVvalue
p1187
V1492349025168
p1188
sasVheaders
p1189
(lp1190
sVheadersSize
p1191
I656
sVbodySize
p1192
I0
sVmethod
p1193
VGET
p1194
sVhttpVersion
p1195
VHTTP/1.1
p1196
ssVtimings
p1197
(dp1198
Vcomment
p1199
g4
sVreceive
p1200
I0
sVsend
p1201
I0
sVssl
p1202
I-1
sVconnect
p1203
I-1
sVdns
p1204
I-1
sVwait
p1205
I26
sVblocked
p1206
I-1
ssVtime
p1207
I27
sVresponse
p1208
(dp1209
Vstatus
p1210
I204
sVcomment
p1211
g4
sVcookies
p1212
(lp1213
sVstatusText
p1214
VNo Content
p1215
sVcontent
p1216
(dp1217
VmimeType
p1218
Vtext/html; charset=UTF-8
p1219
sVcomment
p1220
g4
sVsize
p1221
I0
ssVheaders
p1222
(lp1223
sVheadersSize
p1224
I248
sVredirectURL
p1225
g4
sVbodySize
p1226
I0
sVhttpVersion
p1227
VHTTP/1.1
p1228
ssa(dp1229
Vcomment
p1230
g4
sVserverIPAddress
p1231
V216.58.216.196
p1232
sVpageref
p1233
VDavid Ross
p1234
sVstartedDateTime
p1235
V2017-04-16T08:23:45.184-05:00
p1236
sVcache
p1237
(dp1238
sVrequest
p1239
(dp1240
Vcomment
p1241
g4
sVcookies
p1242
(lp1243
sVurl
p1244
Vhttps://www.google.com/gen_204?atyp=i&ct=&cad=&vet=10ahUKEwirtuuqianTAhXE44MKHVozBf8Q5W0IRSgI..s&ei=XnDzWKuPEsTHjwTa5pT4Dw&zx=1492349025173
p1245
sVqueryString
p1246
(lp1247
(dp1248
Vname
p1249
Vatyp
p1250
sVvalue
p1251
g30
sa(dp1252
Vname
p1253
Vct
p1254
sVvalue
p1255
g4
sa(dp1256
Vname
p1257
Vcad
p1258
sVvalue
p1259
g4
sa(dp1260
Vname
p1261
Vvet
p1262
sVvalue
p1263
V10ahUKEwirtuuqianTAhXE44MKHVozBf8Q5W0IRSgI..s
p1264
sa(dp1265
Vname
p1266
Vei
p1267
sVvalue
p1268
VXnDzWKuPEsTHjwTa5pT4Dw
p1269
sa(dp1270
Vname
p1271
Vzx
p1272
sVvalue
p1273
V1492349025173
p1274
sasVheaders
p1275
(lp1276
sVheadersSize
p1277
I656
sVbodySize
p1278
I0
sVmethod
p1279
VGET
p1280
sVhttpVersion
p1281
VHTTP/1.1
p1282
ssVtimings
p1283
(dp1284
Vcomment
p1285
g4
sVreceive
p1286
I0
sVsend
p1287
I0
sVssl
p1288
I-1
sVconnect
p1289
I-1
sVdns
p1290
I-1
sVwait
p1291
I45
sVblocked
p1292
I-1
ssVtime
p1293
I45
sVresponse
p1294
(dp1295
Vstatus
p1296
I204
sVcomment
p1297
g4
sVcookies
p1298
(lp1299
sVstatusText
p1300
VNo Content
p1301
sVcontent
p1302
(dp1303
VmimeType
p1304
Vtext/html; charset=UTF-8
p1305
sVcomment
p1306
g4
sVsize
p1307
I0
ssVheaders
p1308
(lp1309
sVheadersSize
p1310
I248
sVredirectURL
p1311
g4
sVbodySize
p1312
I0
sVhttpVersion
p1313
VHTTP/1.1
p1314
ssa(dp1315
Vcomment
p1316
g4
sVserverIPAddress
p1317
V216.58.216.196
p1318
sVpageref
p1319
VDavid Ross
p1320
sVstartedDateTime
p1321
V2017-04-16T08:23:45.187-05:00
p1322
sVcache
p1323
(dp1324
sVrequest
p1325
(dp1326
Vcomment
p1327
g4
sVcookies
p1328
(lp1329
sVurl
p1330
Vhttps://www.google.com/gen_204?atyp=i&ct=&cad=&vet=10ahUKEwirtuuqianTAhXE44MKHVozBf8Q5W0ISCgJ..s&ei=XnDzWKuPEsTHjwTa5pT4Dw&zx=1492349025177
p1331
sVqueryString
p1332
(lp1333
(dp1334
Vname
p1335
Vatyp
p1336
sVvalue
p1337
g30
sa(dp1338
Vname
p1339
Vct
p1340
sVvalue
p1341
g4
sa(dp1342
Vname
p1343
Vcad
p1344
sVvalue
p1345
g4
sa(dp1346
Vname
p1347
Vvet
p1348
sVvalue
p1349
V10ahUKEwirtuuqianTAhXE44MKHVozBf8Q5W0ISCgJ..s
p1350
sa(dp1351
Vname
p1352
Vei
p1353
sVvalue
p1354
VXnDzWKuPEsTHjwTa5pT4Dw
p1355
sa(dp1356
Vname
p1357
Vzx
p1358
sVvalue
p1359
V1492349025177
p1360
sasVheaders
p1361
(lp1362
sVheadersSize
p1363
I656
sVbodySize
p1364
I0
sVmethod
p1365
VGET
p1366
sVhttpVersion
p1367
VHTTP/1.1
p1368
ssVtimings
p1369
(dp1370
Vcomment
p1371
g4
sVreceive
p1372
I0
sVsend
p1373
I0
sVssl
p1374
I-1
sVconnect
p1375
I-1
sVdns
p1376
I-1
sVwait
p1377
I42
sVblocked
p1378
I-1
ssVtime
p1379
I42
sVresponse
p1380
(dp1381
Vstatus
p1382
I204
sVcomment
p1383
g4
sVcookies
p1384
(lp1385
sVstatusText
p1386
VNo Content
p1387
sVcontent
p1388
(dp1389
VmimeType
p1390
Vtext/html; charset=UTF-8
p1391
sVcomment
p1392
g4
sVsize
p1393
I0
ssVheaders
p1394
(lp1395
sVheadersSize
p1396
I248
sVredirectURL
p1397
g4
sVbodySize
p1398
I0
sVhttpVersion
p1399
VHTTP/1.1
p1400
ssa(dp1401
Vcomment
p1402
g4
sVserverIPAddress
p1403
V216.58.216.196
p1404
sVpageref
p1405
VDavid Ross
p1406
sVstartedDateTime
p1407
V2017-04-16T08:23:45.209-05:00
p1408
sVcache
p1409
(dp1410
sVrequest
p1411
(dp1412
Vcomment
p1413
g4
sVcookies
p1414
(lp1415
sVurl
p1416
Vhttps://www.google.com/gen_204?atyp=i&ct=&cad=&vet=10ahUKEwirtuuqianTAhXE44MKHVozBf8Q5W0IPCgF..s&ei=XnDzWKuPEsTHjwTa5pT4Dw&zx=1492349025163
p1417
sVqueryString
p1418
(lp1419
(dp1420
Vname
p1421
Vatyp
p1422
sVvalue
p1423
g30
sa(dp1424
Vname
p1425
Vct
p1426
sVvalue
p1427
g4
sa(dp1428
Vname
p1429
Vcad
p1430
sVvalue
p1431
g4
sa(dp1432
Vname
p1433
Vvet
p1434
sVvalue
p1435
V10ahUKEwirtuuqianTAhXE44MKHVozBf8Q5W0IPCgF..s
p1436
sa(dp1437
Vname
p1438
Vei
p1439
sVvalue
p1440
VXnDzWKuPEsTHjwTa5pT4Dw
p1441
sa(dp1442
Vname
p1443
Vzx
p1444
sVvalue
p1445
V1492349025163
p1446
sasVheaders
p1447
(lp1448
sVheadersSize
p1449
I656
sVbodySize
p1450
I0
sVmethod
p1451
VGET
p1452
sVhttpVersion
p1453
VHTTP/1.1
p1454
ssVtimings
p1455
(dp1456
Vcomment
p1457
g4
sVreceive
p1458
I0
sVsend
p1459
I0
sVssl
p1460
I23
sVconnect
p1461
I42
sVdns
p1462
I0
sVwait
p1463
I27
sVblocked
p1464
I0
ssVtime
p1465
I70
sVresponse
p1466
(dp1467
Vstatus
p1468
I204
sVcomment
p1469
g4
sVcookies
p1470
(lp1471
sVstatusText
p1472
VNo Content
p1473
sVcontent
p1474
(dp1475
VmimeType
p1476
Vtext/html; charset=UTF-8
p1477
sVcomment
p1478
g4
sVsize
p1479
I0
ssVheaders
p1480
(lp1481
sVheadersSize
p1482
I248
sVredirectURL
p1483
g4
sVbodySize
p1484
I0
sVhttpVersion
p1485
VHTTP/1.1
p1486
ssa(dp1487
Vcomment
p1488
g4
sVserverIPAddress
p1489
V216.58.216.196
p1490
sVpageref
p1491
VDavid Ross
p1492
sVstartedDateTime
p1493
V2017-04-16T08:23:45.223-05:00
p1494
sVcache
p1495
(dp1496
sVrequest
p1497
(dp1498
Vcomment
p1499
g4
sVcookies
p1500
(lp1501
sVurl
p1502
Vhttps://www.google.com/gen_204?atyp=i&ct=&cad=&vet=10ahUKEwirtuuqianTAhXE44MKHVozBf8Q5W0IPygG..s&ei=XnDzWKuPEsTHjwTa5pT4Dw&zx=1492349025166
p1503
sVqueryString
p1504
(lp1505
(dp1506
Vname
p1507
Vatyp
p1508
sVvalue
p1509
g30
sa(dp1510
Vname
p1511
Vct
p1512
sVvalue
p1513
g4
sa(dp1514
Vname
p1515
Vcad
p1516
sVvalue
p1517
g4
sa(dp1518
Vname
p1519
Vvet
p1520
sVvalue
p1521
V10ahUKEwirtuuqianTAhXE44MKHVozBf8Q5W0IPygG..s
p1522
sa(dp1523
Vname
p1524
Vei
p1525
sVvalue
p1526
VXnDzWKuPEsTHjwTa5pT4Dw
p1527
sa(dp1528
Vname
p1529
Vzx
p1530
sVvalue
p1531
V1492349025166
p1532
sasVheaders
p1533
(lp1534
sVheadersSize
p1535
I656
sVbodySize
p1536
I0
sVmethod
p1537
VGET
p1538
sVhttpVersion
p1539
VHTTP/1.1
p1540
ssVtimings
p1541
(dp1542
Vcomment
p1543
g4
sVreceive
p1544
I0
sVsend
p1545
I0
sVssl
p1546
I34
sVconnect
p1547
I50
sVdns
p1548
I0
sVwait
p1549
I455
sVblocked
p1550
I0
ssVtime
p1551
I507
sVresponse
p1552
(dp1553
Vstatus
p1554
I204
sVcomment
p1555
g4
sVcookies
p1556
(lp1557
sVstatusText
p1558
VNo Content
p1559
sVcontent
p1560
(dp1561
VmimeType
p1562
Vtext/html; charset=UTF-8
p1563
sVcomment
p1564
g4
sVsize
p1565
I0
ssVheaders
p1566
(lp1567
sVheadersSize
p1568
I248
sVredirectURL
p1569
g4
sVbodySize
p1570
I0
sVhttpVersion
p1571
VHTTP/1.1
p1572
ssa(dp1573
Vcomment
p1574
g4
sVserverIPAddress
p1575
V216.58.216.196
p1576
sVpageref
p1577
VDavid Ross
p1578
sVstartedDateTime
p1579
V2017-04-16T08:23:45.374-05:00
p1580
sVcache
p1581
(dp1582
sVrequest
p1583
(dp1584
Vcomment
p1585
g4
sVcookies
p1586
(lp1587
sVurl
p1588
Vhttps://www.google.com/async/ampfp?vet=10ahUKEwirtuuqianTAhXE44MKHVozBf8QtZoBCJsC..i&ei=XnDzWKuPEsTHjwTa5pT4Dw&yv=2&async=_id:ampfp-async,_pms:qs
p1589
sVqueryString
p1590
(lp1591
(dp1592
Vname
p1593
Vvet
p1594
sVvalue
p1595
V10ahUKEwirtuuqianTAhXE44MKHVozBf8QtZoBCJsC..i
p1596
sa(dp1597
Vname
p1598
Vei
p1599
sVvalue
p1600
VXnDzWKuPEsTHjwTa5pT4Dw
p1601
sa(dp1602
Vname
p1603
Vyv
p1604
sVvalue
p1605
g49
sa(dp1606
Vname
p1607
Vasync
p1608
sVvalue
p1609
V_id:ampfp-async,_pms:qs
p1610
sasVheaders
p1611
(lp1612
sVheadersSize
p1613
I662
sVbodySize
p1614
I0
sVmethod
p1615
VGET
p1616
sVhttpVersion
p1617
VHTTP/1.1
p1618
ssVtimings
p1619
(dp1620
Vcomment
p1621
g4
sVreceive
p1622
I0
sVsend
p1623
I0
sVssl
p1624
I-1
sVconnect
p1625
I-1
sVdns
p1626
I-1
sVwait
p1627
I36
sVblocked
p1628
I-1
ssVtime
p1629
I37
sVresponse
p1630
(dp1631
Vstatus
p1632
I200
sVcomment
p1633
g4
sVcookies
p1634
(lp1635
sVstatusText
p1636
VOK
p1637
sVcontent
p1638
(dp1639
VmimeType
p1640
Vtext/html; charset=UTF-8
p1641
sVcomment
p1642
g4
sVsize
p1643
I0
ssVheaders
p1644
(lp1645
sVheadersSize
p1646
I383
sVredirectURL
p1647
g4
sVbodySize
p1648
I4524
sVhttpVersion
p1649
VHTTP/1.1
p1650
ssa(dp1651
Vcomment
p1652
g4
sVserverIPAddress
p1653
V216.58.216.193
p1654
sVpageref
p1655
VDavid Ross
p1656
sVstartedDateTime
p1657
V2017-04-16T08:23:45.376-05:00
p1658
sVcache
p1659
(dp1660
sVrequest
p1661
(dp1662
Vcomment
p1663
g4
sVcookies
p1664
(lp1665
sVurl
p1666
Vhttps://cdn.ampproject.org/preconnect.gif?0.47093389837043187
p1667
sVqueryString
p1668
(lp1669
(dp1670
Vname
p1671
V0.47093389837043187
p1672
sVvalue
p1673
g4
sasVheaders
p1674
(lp1675
sVheadersSize
p1676
I376
sVbodySize
p1677
I0
sVmethod
p1678
VGET
p1679
sVhttpVersion
p1680
VHTTP/1.1
p1681
ssVtimings
p1682
(dp1683
Vcomment
p1684
g4
sVreceive
p1685
I0
sVsend
p1686
I0
sVssl
p1687
I-1
sVconnect
p1688
I-1
sVdns
p1689
I-1
sVwait
p1690
I29
sVblocked
p1691
I-1
ssVtime
p1692
I29
sVresponse
p1693
(dp1694
Vstatus
p1695
I200
sVcomment
p1696
g4
sVcookies
p1697
(lp1698
sVstatusText
p1699
VOK
p1700
sVcontent
p1701
(dp1702
VmimeType
p1703
Vimage/gif
p1704
sVcomment
p1705
g4
sVsize
p1706
I0
ssVheaders
p1707
(lp1708
sVheadersSize
p1709
I826
sVredirectURL
p1710
g4
sVbodySize
p1711
I37
sVhttpVersion
p1712
VHTTP/1.1
p1713
ssa(dp1714
Vcomment
p1715
g4
sVserverIPAddress
p1716
V216.58.216.196
p1717
sVpageref
p1718
VDavid Ross
p1719
sVstartedDateTime
p1720
V2017-04-16T08:23:46.530-05:00
p1721
sVcache
p1722
(dp1723
sVrequest
p1724
(dp1725
Vcomment
p1726
g4
sVcookies
p1727
(lp1728
sVurl
p1729
Vhttps://www.google.com/async/log_amp_item_set?vet=10ahUKEwjCi-qrianTAhXD7YMKHYgLA-gQooQBCAE..i&ei=XnDzWKuPEsTHjwTa5pT4Dw&yv=2&async=num_items:10,_fmt:jspb
p1730
sVqueryString
p1731
(lp1732
(dp1733
Vname
p1734
Vvet
p1735
sVvalue
p1736
V10ahUKEwjCi-qrianTAhXD7YMKHYgLA-gQooQBCAE..i
p1737
sa(dp1738
Vname
p1739
Vei
p1740
sVvalue
p1741
VXnDzWKuPEsTHjwTa5pT4Dw
p1742
sa(dp1743
Vname
p1744
Vyv
p1745
sVvalue
p1746
g49
sa(dp1747
Vname
p1748
Vasync
p1749
sVvalue
p1750
Vnum_items:10,_fmt:jspb
p1751
sasVheaders
p1752
(lp1753
sVheadersSize
p1754
I671
sVbodySize
p1755
I0
sVmethod
p1756
VGET
p1757
sVhttpVersion
p1758
VHTTP/1.1
p1759
ssVtimings
p1760
(dp1761
Vcomment
p1762
g4
sVreceive
p1763
I0
sVsend
p1764
I0
sVssl
p1765
I-1
sVconnect
p1766
I-1
sVdns
p1767
I-1
sVwait
p1768
I44
sVblocked
p1769
I-1
ssVtime
p1770
I45
sVresponse
p1771
(dp1772
Vstatus
p1773
I200
sVcomment
p1774
g4
sVcookies
p1775
(lp1776
sVstatusText
p1777
VOK
p1778
sVcontent
p1779
(dp1780
VmimeType
p1781
Vapplication/json; charset=UTF-8
p1782
sVcomment
p1783
g4
sVsize
p1784
I0
ssVheaders
p1785
(lp1786
sVheadersSize
p1787
I417
sVredirectURL
p1788
g4
sVbodySize
p1789
I183
sVhttpVersion
p1790
VHTTP/1.1
p1791
ssa(dp1792
Vcomment
p1793
g4
sVserverIPAddress
p1794
V172.217.0.1
p1795
sVpageref
p1796
VDavid Ross
p1797
sVstartedDateTime
p1798
V2017-04-16T08:23:47.088-05:00
p1799
sVcache
p1800
(dp1801
sVrequest
p1802
(dp1803
Vcomment
p1804
g4
sVcookies
p1805
(lp1806
sVurl
p1807
Vhttps://www-chicagotribune-com.cdn.ampproject.org/v/www.chicagotribune.com/sports/columnists/ct-david-ross-cubs-ring-ceremony-spt-0413-20170412-story,amp.html?amp_js_v=9
p1808
sVqueryString
p1809
(lp1810
(dp1811
Vname
p1812
Vamp_js_v
p1813
sVvalue
p1814
V9
p1815
sasVheaders
p1816
(lp1817
sVheadersSize
p1818
I574
sVbodySize
p1819
I0
sVmethod
p1820
VGET
p1821
sVhttpVersion
p1822
VHTTP/1.1
p1823
ssVtimings
p1824
(dp1825
Vcomment
p1826
g4
sVreceive
p1827
I11
sVsend
p1828
I0
sVssl
p1829
I466
sVconnect
p1830
I498
sVdns
p1831
I44
sVwait
p1832
I22
sVblocked
p1833
I0
ssVtime
p1834
I577
sVresponse
p1835
(dp1836
Vstatus
p1837
I200
sVcomment
p1838
g4
sVcookies
p1839
(lp1840
sVstatusText
p1841
VOK
p1842
sVcontent
p1843
(dp1844
VmimeType
p1845
Vtext/html
p1846
sVcomment
p1847
g4
sVsize
p1848
I0
ssVheaders
p1849
(lp1850
sVheadersSize
p1851
I862
sVredirectURL
p1852
g4
sVbodySize
p1853
I11954
sVhttpVersion
p1854
VHTTP/1.1
p1855
ssa(dp1856
Vcomment
p1857
g4
sVserverIPAddress
p1858
V216.58.216.196
p1859
sVpageref
p1860
VDavid Ross
p1861
sVstartedDateTime
p1862
V2017-04-16T08:23:47.374-05:00
p1863
sVcache
p1864
(dp1865
sVrequest
p1866
(dp1867
Vcomment
p1868
g4
sVcookies
p1869
(lp1870
sVurl
p1871
Vhttps://www.google.com/gen_204?atyp=i&ct=slh&cad=&ei=UXDzWPr8N6qijwSRuYvwBA&s=2&v=2&pv=0.3333314943202711&me=19:1492349015967,V,0,0,0,0:6401,e,U&zx=1492349027373
p1872
sVqueryString
p1873
(lp1874
(dp1875
Vname
p1876
Vatyp
p1877
sVvalue
p1878
g30
sa(dp1879
Vname
p1880
Vct
p1881
sVvalue
p1882
Vslh
p1883
sa(dp1884
Vname
p1885
Vcad
p1886
sVvalue
p1887
g4
sa(dp1888
Vname
p1889
Vei
p1890
sVvalue
p1891
VUXDzWPr8N6qijwSRuYvwBA
p1892
sa(dp1893
Vname
p1894
g47
sVvalue
p1895
g49
sa(dp1896
Vname
p1897
g52
sVvalue
p1898
g49
sa(dp1899
Vname
p1900
Vpv
p1901
sVvalue
p1902
V0.3333314943202711
p1903
sa(dp1904
Vname
p1905
Vme
p1906
sVvalue
p1907
V19:1492349015967,V,0,0,0,0:6401,e,U
p1908
sa(dp1909
Vname
p1910
Vzx
p1911
sVvalue
p1912
V1492349027373
p1913
sasVheaders
p1914
(lp1915
sVheadersSize
p1916
I678
sVbodySize
p1917
I0
sVmethod
p1918
VGET
p1919
sVhttpVersion
p1920
VHTTP/1.1
p1921
ssVtimings
p1922
(dp1923
Vcomment
p1924
g4
sVreceive
p1925
I0
sVsend
p1926
I0
sVssl
p1927
I-1
sVconnect
p1928
I-1
sVdns
p1929
I-1
sVwait
p1930
I44
sVblocked
p1931
I-1
ssVtime
p1932
I44
sVresponse
p1933
(dp1934
Vstatus
p1935
I204
sVcomment
p1936
g4
sVcookies
p1937
(lp1938
sVstatusText
p1939
VNo Content
p1940
sVcontent
p1941
(dp1942
VmimeType
p1943
Vtext/html; charset=UTF-8
p1944
sVcomment
p1945
g4
sVsize
p1946
I0
ssVheaders
p1947
(lp1948
sVheadersSize
p1949
I248
sVredirectURL
p1950
g4
sVbodySize
p1951
I0
sVhttpVersion
p1952
VHTTP/1.1
p1953
ssa(dp1954
Vcomment
p1955
g4
sVserverIPAddress
p1956
V172.217.0.1
p1957
sVpageref
p1958
VDavid Ross
p1959
sVstartedDateTime
p1960
V2017-04-16T08:23:47.742-05:00
p1961
sVcache
p1962
(dp1963
sVrequest
p1964
(dp1965
Vcomment
p1966
g4
sVcookies
p1967
(lp1968
sVurl
p1969
Vhttps://www-trbimg-com.cdn.ampproject.org/i/www.trbimg.com/img-53fc0090/turbine/chinews-david-haughs-in-the-wake-of-20130507/140/140x140
p1970
sVqueryString
p1971
(lp1972
sVheaders
p1973
(lp1974
sVheadersSize
p1975
I597
sVbodySize
p1976
I0
sVmethod
p1977
VGET
p1978
sVhttpVersion
p1979
VHTTP/1.1
p1980
ssVtimings
p1981
(dp1982
Vcomment
p1983
g4
sVreceive
p1984
I0
sVsend
p1985
I0
sVssl
p1986
I396
sVconnect
p1987
I413
sVdns
p1988
I30
sVwait
p1989
I28
sVblocked
p1990
I0
ssVtime
p1991
I472
sVresponse
p1992
(dp1993
Vstatus
p1994
I200
sVcomment
p1995
g4
sVcookies
p1996
(lp1997
sVstatusText
p1998
VOK
p1999
sVcontent
p2000
(dp2001
VmimeType
p2002
Vimage/jpeg
p2003
sVcomment
p2004
g4
sVsize
p2005
I0
ssVheaders
p2006
(lp2007
sVheadersSize
p2008
I849
sVredirectURL
p2009
g4
sVbodySize
p2010
I2819
sVhttpVersion
p2011
VHTTP/1.1
p2012
ssa(dp2013
Vcomment
p2014
g4
sVserverIPAddress
p2015
V172.217.0.1
p2016
sVpageref
p2017
VDavid Ross
p2018
sVstartedDateTime
p2019
V2017-04-16T08:23:47.745-05:00
p2020
sVcache
p2021
(dp2022
sVrequest
p2023
(dp2024
Vcomment
p2025
g4
sVcookies
p2026
(lp2027
sVurl
p2028
Vhttps://www-trbimg-com.cdn.ampproject.org/i/www.trbimg.com/img-58eef893/turbine/ct-david-ross-cubs-ring-ceremony-spt-0413-2017-001/1600/1600x900
p2029
sVqueryString
p2030
(lp2031
sVheaders
p2032
(lp2033
sVheadersSize
p2034
I605
sVbodySize
p2035
I0
sVmethod
p2036
VGET
p2037
sVhttpVersion
p2038
VHTTP/1.1
p2039
ssVtimings
p2040
(dp2041
Vcomment
p2042
g4
sVreceive
p2043
I47
sVsend
p2044
I0
sVssl
p2045
I399
sVconnect
p2046
I415
sVdns
p2047
I32
sVwait
p2048
I186
sVblocked
p2049
I0
ssVtime
p2050
I681
sVresponse
p2051
(dp2052
Vstatus
p2053
I200
sVcomment
p2054
g4
sVcookies
p2055
(lp2056
sVstatusText
p2057
VOK
p2058
sVcontent
p2059
(dp2060
VmimeType
p2061
Vimage/jpeg
p2062
sVcomment
p2063
g4
sVsize
p2064
I0
ssVheaders
p2065
(lp2066
sVheadersSize
p2067
I851
sVredirectURL
p2068
g4
sVbodySize
p2069
I141179
sVhttpVersion
p2070
VHTTP/1.1
p2071
ssa(dp2072
Vcomment
p2073
g4
sVserverIPAddress
p2074
V216.58.216.196
p2075
sVpageref
p2076
VDavid Ross
p2077
sVstartedDateTime
p2078
V2017-04-16T08:23:47.999-05:00
p2079
sVcache
p2080
(dp2081
sVrequest
p2082
(dp2083
Vcomment
p2084
g4
sVcookies
p2085
(lp2086
sVurl
p2087
Vhttps://www.google.com/gen_204?s=web&atyp=csi&ei=XnDzWKuPEsTHjwTa5pT4Dw&imc=60&imn=60&imp=36&adh=&xjs=init.41.14.sb_mob.29.dvl.5.jsa.2.async.2.c.1&ima=21&rt=prt.802,iml.953,xjsls.803,dcl.951,qiml.1247,xjses.1060,xjsee.1260,xjs.1261,ol.4432,aft.814,wsrt.292,cst.0,dnst.0,rqst.1046,rspt.901,rqstt.7,unt.6,cstt.6,dit.1166
p2088
sVqueryString
p2089
(lp2090
(dp2091
Vname
p2092
g47
sVvalue
p2093
Vweb
p2094
sa(dp2095
Vname
p2096
Vatyp
p2097
sVvalue
p2098
Vcsi
p2099
sa(dp2100
Vname
p2101
Vei
p2102
sVvalue
p2103
VXnDzWKuPEsTHjwTa5pT4Dw
p2104
sa(dp2105
Vname
p2106
Vimc
p2107
sVvalue
p2108
V60
p2109
sa(dp2110
Vname
p2111
Vimn
p2112
sVvalue
p2113
V60
p2114
sa(dp2115
Vname
p2116
Vimp
p2117
sVvalue
p2118
V36
p2119
sa(dp2120
Vname
p2121
Vadh
p2122
sVvalue
p2123
g4
sa(dp2124
Vname
p2125
Vxjs
p2126
sVvalue
p2127
Vinit.41.14.sb_mob.29.dvl.5.jsa.2.async.2.c.1
p2128
sa(dp2129
Vname
p2130
Vima
p2131
sVvalue
p2132
V21
p2133
sa(dp2134
Vname
p2135
Vrt
p2136
sVvalue
p2137
Vprt.802,iml.953,xjsls.803,dcl.951,qiml.1247,xjses.1060,xjsee.1260,xjs.1261,ol.4432,aft.814,wsrt.292,cst.0,dnst.0,rqst.1046,rspt.901,rqstt.7,unt.6,cstt.6,dit.1166
p2138
sasVheaders
p2139
(lp2140
sVheadersSize
p2141
I835
sVbodySize
p2142
I0
sVmethod
p2143
VGET
p2144
sVhttpVersion
p2145
VHTTP/1.1
p2146
ssVtimings
p2147
(dp2148
Vcomment
p2149
g4
sVreceive
p2150
I0
sVsend
p2151
I0
sVssl
p2152
I-1
sVconnect
p2153
I-1
sVdns
p2154
I-1
sVwait
p2155
I26
sVblocked
p2156
I-1
ssVtime
p2157
I26
sVresponse
p2158
(dp2159
Vstatus
p2160
I204
sVcomment
p2161
g4
sVcookies
p2162
(lp2163
sVstatusText
p2164
VNo Content
p2165
sVcontent
p2166
(dp2167
VmimeType
p2168
Vtext/html; charset=UTF-8
p2169
sVcomment
p2170
g4
sVsize
p2171
I0
ssVheaders
p2172
(lp2173
sVheadersSize
p2174
I248
sVredirectURL
p2175
g4
sVbodySize
p2176
I0
sVhttpVersion
p2177
VHTTP/1.1
p2178
ssasVversion
p2179
V1.2
p2180
sVpages
p2181
(lp2182
(dp2183
VpageTimings
p2184
(dp2185
Vcomment
p2186
g4
ssVcomment
p2187
g4
sVtitle
p2188
VDavid Ross
p2189
sVid
p2190
VDavid Ross
p2191
sVstartedDateTime
p2192
V2017-04-16T08:23:42.361-05:00
p2193
sasVcreator
p2194
(dp2195
Vcomment
p2196
g4
sVversion
p2197
V2.1.4
p2198
sVname
p2199
VBrowserMob Proxy
p2200
sss.