(dp0
Vlog
p1
(dp2
Vcomment
p3
V
p4
sVentries
p5
(lp6
(dp7
Vcomment
p8
g4
sVserverIPAddress
p9
V216.58.216.196
p10
sVpageref
p11
VSingapore
p12
sVstartedDateTime
p13
V2017-04-16T08:52:51.979-05:00
p14
sVcache
p15
(dp16
sVrequest
p17
(dp18
Vcomment
p19
g4
sVcookies
p20
(lp21
sVurl
p22
Vhttps://www.google.com/gen_204?atyp=i&ct=slh&cad=&ei=JHfzWInyGcyCjwTyt4eIDw&m=V&t=C&s=1&v=2&pv=0.28354793324712124&me=1:1492350759987,x:1,V,0,0,1280,944:0,N,1,JHfzWInyGcyCjwTyt4eIDw:0,R,1,24,8,155,1249,678:0,R,1,25,8,155,1249,678:0,R,1,36,8,155,1249,116:0,R,1,48,8,284,1249,40:0,R,1,55,8,399,1249,40:0,R,1,56,24,399,1217,40:0,R,1,59,8,455,1249,20:0,R,1,63,8,483,1249,20:0,R,1,74,8,523,1249,213:0,R,1,75,8,572,1249,164:0,R,1,88,8,736,1249,30:0,R,1,158,24,843,1217,135:2,B,3243:11982,e,U&zx=1492350771975
p23
sVqueryString
p24
(lp25
(dp26
Vname
p27
Vatyp
p28
sVvalue
p29
Vi
p30
sa(dp31
Vname
p32
Vct
p33
sVvalue
p34
Vslh
p35
sa(dp36
Vname
p37
Vcad
p38
sVvalue
p39
g4
sa(dp40
Vname
p41
Vei
p42
sVvalue
p43
VJHfzWInyGcyCjwTyt4eIDw
p44
sa(dp45
Vname
p46
Vm
p47
sVvalue
p48
VV
p49
sa(dp50
Vname
p51
Vt
p52
sVvalue
p53
VC
p54
sa(dp55
Vname
p56
Vs
p57
sVvalue
p58
V1
p59
sa(dp60
Vname
p61
Vv
p62
sVvalue
p63
V2
p64
sa(dp65
Vname
p66
Vpv
p67
sVvalue
p68
V0.28354793324712124
p69
sa(dp70
Vname
p71
Vme
p72
sVvalue
p73
V1:1492350759987,x:1,V,0,0,1280,944:0,N,1,JHfzWInyGcyCjwTyt4eIDw:0,R,1,24,8,155,1249,678:0,R,1,25,8,155,1249,678:0,R,1,36,8,155,1249,116:0,R,1,48,8,284,1249,40:0,R,1,55,8,399,1249,40:0,R,1,56,24,399,1217,40:0,R,1,59,8,455,1249,20:0,R,1,63,8,483,1249,20:0,R,1,74,8,523,1249,213:0,R,1,75,8,572,1249,164:0,R,1,88,8,736,1249,30:0,R,1,158,24,843,1217,135:2,B,3243:11982,e,U
p74
sa(dp75
Vname
p76
Vzx
p77
sVvalue
p78
V1492350771975
p79
sasVheaders
p80
(lp81
sVheadersSize
p82
I1019
sVbodySize
p83
I0
sVmethod
p84
VGET
p85
sVhttpVersion
p86
VHTTP/1.1
p87
ssVtimings
p88
(dp89
Vcomment
p90
g4
sVreceive
p91
I0
sVsend
p92
I0
sVssl
p93
I-1
sVconnect
p94
I-1
sVdns
p95
I-1
sVwait
p96
I0
sVblocked
p97
I-1
ssVtime
p98
I0
sVresponse
p99
(dp100
Vstatus
p101
I0
sVcomment
p102
g4
sVcookies
p103
(lp104
sV_error
p105
VNo response received
p106
sVstatusText
p107
g4
sVcontent
p108
(dp109
VmimeType
p110
g4
sVcomment
p111
g4
sVsize
p112
I0
ssVheaders
p113
(lp114
sVheadersSize
p115
I-1
sVredirectURL
p116
g4
sVbodySize
p117
I-1
sVhttpVersion
p118
Vunknown
p119
ssa(dp120
Vcomment
p121
g4
sVserverIPAddress
p122
V216.58.216.196
p123
sVpageref
p124
VSingapore
p125
sVstartedDateTime
p126
V2017-04-16T08:52:51.980-05:00
p127
sVcache
p128
(dp129
sVrequest
p130
(dp131
Vcomment
p132
g4
sVcookies
p133
(lp134
sVurl
p135
Vhttps://www.google.com/gen_204?atyp=i&ct=slh&cad=&ei=C3fzWMD8EoewjwScrbe4Dw&s=2&v=2&pv=0.8407868215942033&me=18:1492350756816,e,H&zx=1492350771977
p136
sVqueryString
p137
(lp138
(dp139
Vname
p140
Vatyp
p141
sVvalue
p142
g30
sa(dp143
Vname
p144
Vct
p145
sVvalue
p146
Vslh
p147
sa(dp148
Vname
p149
Vcad
p150
sVvalue
p151
g4
sa(dp152
Vname
p153
Vei
p154
sVvalue
p155
VC3fzWMD8EoewjwScrbe4Dw
p156
sa(dp157
Vname
p158
g57
sVvalue
p159
g64
sa(dp160
Vname
p161
g62
sVvalue
p162
g64
sa(dp163
Vname
p164
Vpv
p165
sVvalue
p166
V0.8407868215942033
p167
sa(dp168
Vname
p169
Vme
p170
sVvalue
p171
V18:1492350756816,e,H
p172
sa(dp173
Vname
p174
Vzx
p175
sVvalue
p176
V1492350771977
p177
sasVheaders
p178
(lp179
sVheadersSize
p180
I663
sVbodySize
p181
I0
sVmethod
p182
VGET
p183
sVhttpVersion
p184
VHTTP/1.1
p185
ssVtimings
p186
(dp187
Vcomment
p188
g4
sVreceive
p189
I0
sVsend
p190
I0
sVssl
p191
I-1
sVconnect
p192
I-1
sVdns
p193
I-1
sVwait
p194
I0
sVblocked
p195
I-1
ssVtime
p196
I0
sVresponse
p197
(dp198
Vstatus
p199
I0
sVcomment
p200
g4
sVcookies
p201
(lp202
sV_error
p203
VNo response received
p204
sVstatusText
p205
g4
sVcontent
p206
(dp207
VmimeType
p208
g4
sVcomment
p209
g4
sVsize
p210
I0
ssVheaders
p211
(lp212
sVheadersSize
p213
I-1
sVredirectURL
p214
g4
sVbodySize
p215
I-1
sVhttpVersion
p216
Vunknown
p217
ssa(dp218
Vcomment
p219
g4
sVserverIPAddress
p220
V216.58.216.196
p221
sVpageref
p222
VSingapore
p223
sVstartedDateTime
p224
V2017-04-16T08:52:51.988-05:00
p225
sVcache
p226
(dp227
sVrequest
p228
(dp229
Vcomment
p230
g4
sVcookies
p231
(lp232
sVurl
p233
Vhttps://www.google.com/gen_204?atyp=i&ct=slh&cad=&ei=gnbzWP3JEMHSjwSaz6n4Dw&m=V&t=C&s=1&v=2&pv=0.2296723393945379&me=1:1492350599216,x:2,V,0,0,1280,944:0,N,1,gnbzWP3JEMHSjwSaz6n4Dw:0,R,1,24,8,155,1249,445:0,R,1,26,8,155,1197,445:0,R,1,28,95,155,1024,120:0,R,1,68,8,351,1197,83:0,R,1,77,8,435,1197,83:0,R,1,86,8,518,1197,82:0,R,1,97,24,610,1217,115:0,R,1,104,8,746,1249,700:0,R,1,111,8,928,1249,332:0,R,1,112,0,929,1265,351:2,B,3554:14824,e,U&zx=1492350771977
p234
sVqueryString
p235
(lp236
(dp237
Vname
p238
Vatyp
p239
sVvalue
p240
g30
sa(dp241
Vname
p242
Vct
p243
sVvalue
p244
Vslh
p245
sa(dp246
Vname
p247
Vcad
p248
sVvalue
p249
g4
sa(dp250
Vname
p251
Vei
p252
sVvalue
p253
VgnbzWP3JEMHSjwSaz6n4Dw
p254
sa(dp255
Vname
p256
g47
sVvalue
p257
g49
sa(dp258
Vname
p259
g52
sVvalue
p260
g54
sa(dp261
Vname
p262
g57
sVvalue
p263
g59
sa(dp264
Vname
p265
g62
sVvalue
p266
g64
sa(dp267
Vname
p268
Vpv
p269
sVvalue
p270
V0.2296723393945379
p271
sa(dp272
Vname
p273
Vme
p274
sVvalue
p275
V1:1492350599216,x:2,V,0,0,1280,944:0,N,1,gnbzWP3JEMHSjwSaz6n4Dw:0,R,1,24,8,155,1249,445:0,R,1,26,8,155,1197,445:0,R,1,28,95,155,1024,120:0,R,1,68,8,351,1197,83:0,R,1,77,8,435,1197,83:0,R,1,86,8,518,1197,82:0,R,1,97,24,610,1217,115:0,R,1,104,8,746,1249,700:0,R,1,111,8,928,1249,332:0,R,1,112,0,929,1265,351:2,B,3554:14824,e,U
p276
sa(dp277
Vname
p278
Vzx
p279
sVvalue
p280
V1492350771977
p281
sasVheaders
p282
(lp283
sVheadersSize
p284
I975
sVbodySize
p285
I0
sVmethod
p286
VGET
p287
sVhttpVersion
p288
VHTTP/1.1
p289
ssVtimings
p290
(dp291
Vcomment
p292
g4
sVreceive
p293
I0
sVsend
p294
I0
sVssl
p295
I-1
sVconnect
p296
I-1
sVdns
p297
I-1
sVwait
p298
I0
sVblocked
p299
I-1
ssVtime
p300
I0
sVresponse
p301
(dp302
Vstatus
p303
I0
sVcomment
p304
g4
sVcookies
p305
(lp306
sV_error
p307
VNo response received
p308
sVstatusText
p309
g4
sVcontent
p310
(dp311
VmimeType
p312
g4
sVcomment
p313
g4
sVsize
p314
I0
ssVheaders
p315
(lp316
sVheadersSize
p317
I-1
sVredirectURL
p318
g4
sVbodySize
p319
I-1
sVhttpVersion
p320
Vunknown
p321
ssa(dp322
Vcomment
p323
g4
sVserverIPAddress
p324
V216.58.216.196
p325
sVpageref
p326
VSingapore
p327
sVstartedDateTime
p328
V2017-04-16T08:52:51.993-05:00
p329
sVcache
p330
(dp331
sVrequest
p332
(dp333
Vcomment
p334
g4
sVcookies
p335
(lp336
sVurl
p337
Vhttp://www.google.com/
p338
sVqueryString
p339
(lp340
sVheaders
p341
(lp342
sVheadersSize
p343
I613
sVbodySize
p344
I0
sVmethod
p345
VGET
p346
sVhttpVersion
p347
VHTTP/1.1
p348
ssVtimings
p349
(dp350
Vcomment
p351
g4
sVreceive
p352
I0
sVsend
p353
I0
sVssl
p354
I-1
sVconnect
p355
I-1
sVdns
p356
I-1
sVwait
p357
I291
sVblocked
p358
I-1
ssVtime
p359
I292
sVresponse
p360
(dp361
Vstatus
p362
I302
sVcomment
p363
g4
sVcookies
p364
(lp365
sVstatusText
p366
VFound
p367
sVcontent
p368
(dp369
VmimeType
p370
Vtext/html; charset=UTF-8
p371
sVcomment
p372
g4
sVsize
p373
I0
ssVheaders
p374
(lp375
sVheadersSize
p376
I609
sVredirectURL
p377
Vhttps://www.google.com/?gws_rd=ssl
p378
sVbodySize
p379
I231
sVhttpVersion
p380
VHTTP/1.1
p381
ssa(dp382
Vcomment
p383
g4
sVserverIPAddress
p384
V216.58.216.196
p385
sVpageref
p386
VSingapore
p387
sVstartedDateTime
p388
V2017-04-16T08:52:51.984-05:00
p389
sVcache
p390
(dp391
sVrequest
p392
(dp393
Vcomment
p394
g4
sVcookies
p395
(lp396
sVurl
p397
Vhttps://www.google.com
p398
sVqueryString
p399
(lp400
sVheaders
p401
(lp402
sVheadersSize
p403
I0
sVbodySize
p404
I0
sVmethod
p405
VCONNECT
p406
sVhttpVersion
p407
VHTTP/1.1
p408
ssVtimings
p409
(dp410
Vcomment
p411
g4
sVreceive
p412
I0
sVsend
p413
I0
sVssl
p414
I-1
sVconnect
p415
I162
sVdns
p416
I5
sVwait
p417
I0
sVblocked
p418
I0
ssVtime
p419
I168
sVresponse
p420
(dp421
Vstatus
p422
I0
sVcomment
p423
g4
sVcookies
p424
(lp425
sV_error
p426
VUnable to connect to host
p427
sVstatusText
p428
g4
sVcontent
p429
(dp430
VmimeType
p431
g4
sVcomment
p432
g4
sVsize
p433
I0
ssVheaders
p434
(lp435
sVheadersSize
p436
I-1
sVredirectURL
p437
g4
sVbodySize
p438
I-1
sVhttpVersion
p439
Vunknown
p440
ssa(dp441
Vcomment
p442
g4
sVserverIPAddress
p443
V216.58.216.196
p444
sVpageref
p445
VSingapore
p446
sVstartedDateTime
p447
V2017-04-16T08:52:52.457-05:00
p448
sVcache
p449
(dp450
sVrequest
p451
(dp452
Vcomment
p453
g4
sVcookies
p454
(lp455
sVurl
p456
Vhttps://www.google.com/?gws_rd=ssl
p457
sVqueryString
p458
(lp459
(dp460
Vname
p461
Vgws_rd
p462
sVvalue
p463
Vssl
p464
sasVheaders
p465
(lp466
sVheadersSize
p467
I607
sVbodySize
p468
I0
sVmethod
p469
VGET
p470
sVhttpVersion
p471
VHTTP/1.1
p472
ssVtimings
p473
(dp474
Vcomment
p475
g4
sVreceive
p476
I29
sVsend
p477
I0
sVssl
p478
I143
sVconnect
p479
I164
sVdns
p480
I0
sVwait
p481
I173
sVblocked
p482
I0
ssVtime
p483
I367
sVresponse
p484
(dp485
Vstatus
p486
I200
sVcomment
p487
g4
sVcookies
p488
(lp489
sVstatusText
p490
VOK
p491
sVcontent
p492
(dp493
VmimeType
p494
Vtext/html; charset=UTF-8
p495
sVcomment
p496
g4
sVsize
p497
I0
ssVheaders
p498
(lp499
sVheadersSize
p500
I721
sVredirectURL
p501
g4
sVbodySize
p502
I34294
sVhttpVersion
p503
VHTTP/1.1
p504
ssa(dp505
Vcomment
p506
g4
sVserverIPAddress
p507
V216.58.216.196
p508
sVpageref
p509
VSingapore
p510
sVstartedDateTime
p511
V2017-04-16T08:52:52.674-05:00
p512
sVcache
p513
(dp514
sVrequest
p515
(dp516
Vcomment
p517
g4
sVcookies
p518
(lp519
sVurl
p520
Vhttps://www.google.com/gen_204?atyp=i&ct=slh&cad=&ei=JHfzWInyGcyCjwTyt4eIDw&s=2&v=2&pv=0.28354793324712124&me=18:1492350772632,e,H&zx=1492350772634
p521
sVqueryString
p522
(lp523
(dp524
Vname
p525
Vatyp
p526
sVvalue
p527
g30
sa(dp528
Vname
p529
Vct
p530
sVvalue
p531
Vslh
p532
sa(dp533
Vname
p534
Vcad
p535
sVvalue
p536
g4
sa(dp537
Vname
p538
Vei
p539
sVvalue
p540
VJHfzWInyGcyCjwTyt4eIDw
p541
sa(dp542
Vname
p543
g57
sVvalue
p544
g64
sa(dp545
Vname
p546
g62
sVvalue
p547
g64
sa(dp548
Vname
p549
Vpv
p550
sVvalue
p551
V0.28354793324712124
p552
sa(dp553
Vname
p554
Vme
p555
sVvalue
p556
V18:1492350772632,e,H
p557
sa(dp558
Vname
p559
Vzx
p560
sVvalue
p561
V1492350772634
p562
sasVheaders
p563
(lp564
sVheadersSize
p565
I664
sVbodySize
p566
I0
sVmethod
p567
VGET
p568
sVhttpVersion
p569
VHTTP/1.1
p570
ssVtimings
p571
(dp572
Vcomment
p573
g4
sVreceive
p574
I0
sVsend
p575
I0
sVssl
p576
I23
sVconnect
p577
I37
sVdns
p578
I0
sVwait
p579
I153
sVblocked
p580
I0
ssVtime
p581
I191
sVresponse
p582
(dp583
Vstatus
p584
I204
sVcomment
p585
g4
sVcookies
p586
(lp587
sVstatusText
p588
VNo Content
p589
sVcontent
p590
(dp591
VmimeType
p592
Vtext/html; charset=UTF-8
p593
sVcomment
p594
g4
sVsize
p595
I0
ssVheaders
p596
(lp597
sVheadersSize
p598
I248
sVredirectURL
p599
g4
sVbodySize
p600
I0
sVhttpVersion
p601
VHTTP/1.1
p602
ssa(dp603
Vcomment
p604
g4
sVserverIPAddress
p605
V216.58.216.196
p606
sVpageref
p607
VSingapore
p608
sVstartedDateTime
p609
V2017-04-16T08:52:52.905-05:00
p610
sVcache
p611
(dp612
sVrequest
p613
(dp614
Vcomment
p615
g4
sVcookies
p616
(lp617
sVurl
p618
Vhttps://www.google.com/gen_204?s=mobilewebhp&atyp=csi&ei=M3fzWOStGujZjwSOqYvAAg&imc=1&imn=1&imp=0&adh=&xjs=init.34.12.sb_mob.26.dvl.3.c.1.jsa.1.mbsf.1&ima=1&rt=xjsls.15,prt.16,iml.16,dcl.45,xjses.96,xjsee.200,xjs.201,ol.243,aft.16,wsrt.681,cst.0,dnst.0,rqst.204,rspt.205,rqstt.485,unt.316,cstt.316,dit.715
p619
sVqueryString
p620
(lp621
(dp622
Vname
p623
g57
sVvalue
p624
Vmobilewebhp
p625
sa(dp626
Vname
p627
Vatyp
p628
sVvalue
p629
Vcsi
p630
sa(dp631
Vname
p632
Vei
p633
sVvalue
p634
VM3fzWOStGujZjwSOqYvAAg
p635
sa(dp636
Vname
p637
Vimc
p638
sVvalue
p639
g59
sa(dp640
Vname
p641
Vimn
p642
sVvalue
p643
g59
sa(dp644
Vname
p645
Vimp
p646
sVvalue
p647
V0
p648
sa(dp649
Vname
p650
Vadh
p651
sVvalue
p652
g4
sa(dp653
Vname
p654
Vxjs
p655
sVvalue
p656
Vinit.34.12.sb_mob.26.dvl.3.c.1.jsa.1.mbsf.1
p657
sa(dp658
Vname
p659
Vima
p660
sVvalue
p661
g59
sa(dp662
Vname
p663
Vrt
p664
sVvalue
p665
Vxjsls.15,prt.16,iml.16,dcl.45,xjses.96,xjsee.200,xjs.201,ol.243,aft.16,wsrt.681,cst.0,dnst.0,rqst.204,rspt.205,rqstt.485,unt.316,cstt.316,dit.715
p666
sasVheaders
p667
(lp668
sVheadersSize
p669
I833
sVbodySize
p670
I0
sVmethod
p671
VGET
p672
sVhttpVersion
p673
VHTTP/1.1
p674
ssVtimings
p675
(dp676
Vcomment
p677
g4
sVreceive
p678
I0
sVsend
p679
I0
sVssl
p680
I-1
sVconnect
p681
I-1
sVdns
p682
I-1
sVwait
p683
I124
sVblocked
p684
I-1
ssVtime
p685
I124
sVresponse
p686
(dp687
Vstatus
p688
I204
sVcomment
p689
g4
sVcookies
p690
(lp691
sVstatusText
p692
VNo Content
p693
sVcontent
p694
(dp695
VmimeType
p696
Vtext/html; charset=UTF-8
p697
sVcomment
p698
g4
sVsize
p699
I0
ssVheaders
p700
(lp701
sVheadersSize
p702
I248
sVredirectURL
p703
g4
sVbodySize
p704
I0
sVhttpVersion
p705
VHTTP/1.1
p706
ssa(dp707
Vcomment
p708
g4
sVserverIPAddress
p709
V216.58.216.196
p710
sVpageref
p711
VSingapore
p712
sVstartedDateTime
p713
V2017-04-16T08:52:53.273-05:00
p714
sVcache
p715
(dp716
sVrequest
p717
(dp718
Vcomment
p719
g4
sVcookies
p720
(lp721
sVurl
p722
Vhttps://www.google.com/complete/search?client=mobile-gws-hp&hl=en&gs_rn=64&gs_ri=mobile-gws-hp&sla=1&pfq=steak&gm=602&cp=0&gs_id=1&xhr=t&q=S&tch=1&ech=1&psi=M3fzWOStGujZjwSOqYvAAg.1492350772819.1
p723
sVqueryString
p724
(lp725
(dp726
Vname
p727
Vclient
p728
sVvalue
p729
Vmobile-gws-hp
p730
sa(dp731
Vname
p732
Vhl
p733
sVvalue
p734
Ven
p735
sa(dp736
Vname
p737
Vgs_rn
p738
sVvalue
p739
V64
p740
sa(dp741
Vname
p742
Vgs_ri
p743
sVvalue
p744
Vmobile-gws-hp
p745
sa(dp746
Vname
p747
Vsla
p748
sVvalue
p749
g59
sa(dp750
Vname
p751
Vpfq
p752
sVvalue
p753
Vsteak
p754
sa(dp755
Vname
p756
Vgm
p757
sVvalue
p758
V602
p759
sa(dp760
Vname
p761
Vcp
p762
sVvalue
p763
g648
sa(dp764
Vname
p765
Vgs_id
p766
sVvalue
p767
g59
sa(dp768
Vname
p769
Vxhr
p770
sVvalue
p771
g52
sa(dp772
Vname
p773
Vq
p774
sVvalue
p775
VS
p776
sa(dp777
Vname
p778
Vtch
p779
sVvalue
p780
g59
sa(dp781
Vname
p782
Vech
p783
sVvalue
p784
g59
sa(dp785
Vname
p786
Vpsi
p787
sVvalue
p788
VM3fzWOStGujZjwSOqYvAAg.1492350772819.1
p789
sasVheaders
p790
(lp791
sVheadersSize
p792
I723
sVbodySize
p793
I0
sVmethod
p794
VGET
p795
sVhttpVersion
p796
VHTTP/1.1
p797
ssVtimings
p798
(dp799
Vcomment
p800
g4
sVreceive
p801
I0
sVsend
p802
I0
sVssl
p803
I-1
sVconnect
p804
I-1
sVdns
p805
I-1
sVwait
p806
I0
sVblocked
p807
I-1
ssVtime
p808
I0
sVresponse
p809
(dp810
Vstatus
p811
I0
sVcomment
p812
g4
sVcookies
p813
(lp814
sV_error
p815
VNo response received
p816
sVstatusText
p817
g4
sVcontent
p818
(dp819
VmimeType
p820
g4
sVcomment
p821
g4
sVsize
p822
I0
ssVheaders
p823
(lp824
sVheadersSize
p825
I-1
sVredirectURL
p826
g4
sVbodySize
p827
I-1
sVhttpVersion
p828
Vunknown
p829
ssa(dp830
Vcomment
p831
g4
sVserverIPAddress
p832
V216.58.216.196
p833
sVpageref
p834
VSingapore
p835
sVstartedDateTime
p836
V2017-04-16T08:52:53.686-05:00
p837
sVcache
p838
(dp839
sVrequest
p840
(dp841
Vcomment
p842
g4
sVcookies
p843
(lp844
sVurl
p845
Vhttps://www.google.com/complete/search?client=mobile-gws-hp&hl=en&gs_rn=64&gs_ri=mobile-gws-hp&sla=1&gm=602&cp=0&gs_id=h&xhr=t&q=Singapore&tch=1&ech=2&psi=M3fzWOStGujZjwSOqYvAAg.1492350772819.1
p846
sVqueryString
p847
(lp848
(dp849
Vname
p850
Vclient
p851
sVvalue
p852
Vmobile-gws-hp
p853
sa(dp854
Vname
p855
Vhl
p856
sVvalue
p857
Ven
p858
sa(dp859
Vname
p860
Vgs_rn
p861
sVvalue
p862
V64
p863
sa(dp864
Vname
p865
Vgs_ri
p866
sVvalue
p867
Vmobile-gws-hp
p868
sa(dp869
Vname
p870
Vsla
p871
sVvalue
p872
g59
sa(dp873
Vname
p874
Vgm
p875
sVvalue
p876
V602
p877
sa(dp878
Vname
p879
Vcp
p880
sVvalue
p881
g648
sa(dp882
Vname
p883
Vgs_id
p884
sVvalue
p885
Vh
p886
sa(dp887
Vname
p888
Vxhr
p889
sVvalue
p890
g52
sa(dp891
Vname
p892
g774
sVvalue
p893
VSingapore
p894
sa(dp895
Vname
p896
Vtch
p897
sVvalue
p898
g59
sa(dp899
Vname
p900
Vech
p901
sVvalue
p902
g64
sa(dp903
Vname
p904
Vpsi
p905
sVvalue
p906
VM3fzWOStGujZjwSOqYvAAg.1492350772819.1
p907
sasVheaders
p908
(lp909
sVheadersSize
p910
I721
sVbodySize
p911
I0
sVmethod
p912
VGET
p913
sVhttpVersion
p914
VHTTP/1.1
p915
ssVtimings
p916
(dp917
Vcomment
p918
g4
sVreceive
p919
I0
sVsend
p920
I0
sVssl
p921
I-1
sVconnect
p922
I-1
sVdns
p923
I-1
sVwait
p924
I0
sVblocked
p925
I-1
ssVtime
p926
I0
sVresponse
p927
(dp928
Vstatus
p929
I0
sVcomment
p930
g4
sVcookies
p931
(lp932
sV_error
p933
VNo response received
p934
sVstatusText
p935
g4
sVcontent
p936
(dp937
VmimeType
p938
g4
sVcomment
p939
g4
sVsize
p940
I0
ssVheaders
p941
(lp942
sVheadersSize
p943
I-1
sVredirectURL
p944
g4
sVbodySize
p945
I-1
sVhttpVersion
p946
Vunknown
p947
ssa(dp948
Vcomment
p949
g4
sVserverIPAddress
p950
V216.58.216.196
p951
sVpageref
p952
VSingapore
p953
sVstartedDateTime
p954
V2017-04-16T08:52:54.301-05:00
p955
sVcache
p956
(dp957
sVrequest
p958
(dp959
Vcomment
p960
g4
sVcookies
p961
(lp962
sVurl
p963
Vhttps://www.google.com/search?site=&source=hp&ei=M3fzWOStGujZjwSOqYvAAg&q=Singapore&oq=Singapore&gs_l=mobile-gws-hp.3...422.486.0.840.9.2.0.0.0.0.0.0..0.0....0...1c.1.64.mobile-gws-hp..9.0.0.08KJF9H-504
p964
sVqueryString
p965
(lp966
(dp967
Vname
p968
Vsite
p969
sVvalue
p970
g4
sa(dp971
Vname
p972
Vsource
p973
sVvalue
p974
Vhp
p975
sa(dp976
Vname
p977
Vei
p978
sVvalue
p979
VM3fzWOStGujZjwSOqYvAAg
p980
sa(dp981
Vname
p982
g774
sVvalue
p983
VSingapore
p984
sa(dp985
Vname
p986
Voq
p987
sVvalue
p988
VSingapore
p989
sa(dp990
Vname
p991
Vgs_l
p992
sVvalue
p993
Vmobile-gws-hp.3...422.486.0.840.9.2.0.0.0.0.0.0..0.0....0...1c.1.64.mobile-gws-hp..9.0.0.08KJF9H-504
p994
sasVheaders
p995
(lp996
sVheadersSize
p997
I820
sVbodySize
p998
I0
sVmethod
p999
VGET
p1000
sVhttpVersion
p1001
VHTTP/1.1
p1002
ssVtimings
p1003
(dp1004
Vcomment
p1005
g4
sVreceive
p1006
I1902
sVsend
p1007
I0
sVssl
p1008
I463
sVconnect
p1009
I603
sVdns
p1010
I0
sVwait
p1011
I689
sVblocked
p1012
I0
ssVtime
p1013
I3195
sVresponse
p1014
(dp1015
Vstatus
p1016
I200
sVcomment
p1017
g4
sVcookies
p1018
(lp1019
sVstatusText
p1020
VOK
p1021
sVcontent
p1022
(dp1023
VmimeType
p1024
Vtext/html; charset=UTF-8
p1025
sVcomment
p1026
g4
sVsize
p1027
I0
ssVheaders
p1028
(lp1029
sVheadersSize
p1030
I363
sVredirectURL
p1031
g4
sVbodySize
p1032
I197327
sVhttpVersion
p1033
VHTTP/1.1
p1034
ssa(dp1035
Vcomment
p1036
g4
sVserverIPAddress
p1037
V216.58.216.196
p1038
sVpageref
p1039
VSingapore
p1040
sVstartedDateTime
p1041
V2017-04-16T08:52:59.920-05:00
p1042
sVcache
p1043
(dp1044
sVrequest
p1045
(dp1046
Vcomment
p1047
g4
sVcookies
p1048
(lp1049
sVurl
p1050
Vhttps://www.google.com/maps/vt/data=RfCSdfNZ0LFPrHSm0ublXdzhdrDFhtmHhN1u-gM,4xetnwbTMhi2eJMIKXM1wE68J4MhLC7a37Gsp8L93-RJz9pFG-rNsCYt6-AQH9attqXsfH0RjoPJyj87lziCUYGD0OUyPmaFLLspIdIvO_6A2tIimLu7qR-Aw4vz_JD0CAWy45vls7lrwz3qoNdrsk2xaawiuYp2YoqIepErDnqpBIrRSZl95ZcZlCWWNmAOTzhJpdM4eUp59g?scale=2&h=95&w=1023
p1051
sVqueryString
p1052
(lp1053
(dp1054
Vname
p1055
Vscale
p1056
sVvalue
p1057
g64
sa(dp1058
Vname
p1059
g886
sVvalue
p1060
V95
p1061
sa(dp1062
Vname
p1063
Vw
p1064
sVvalue
p1065
V1023
p1066
sasVheaders
p1067
(lp1068
sVheadersSize
p1069
I819
sVbodySize
p1070
I0
sVmethod
p1071
VGET
p1072
sVhttpVersion
p1073
VHTTP/1.1
p1074
ssVtimings
p1075
(dp1076
Vcomment
p1077
g4
sVreceive
p1078
I21
sVsend
p1079
I0
sVssl
p1080
I-1
sVconnect
p1081
I-1
sVdns
p1082
I-1
sVwait
p1083
I79
sVblocked
p1084
I-1
ssVtime
p1085
I101
sVresponse
p1086
(dp1087
Vstatus
p1088
I200
sVcomment
p1089
g4
sVcookies
p1090
(lp1091
sVstatusText
p1092
VOK
p1093
sVcontent
p1094
(dp1095
VmimeType
p1096
Vimage/png
p1097
sVcomment
p1098
g4
sVsize
p1099
I0
ssVheaders
p1100
(lp1101
sVheadersSize
p1102
I479
sVredirectURL
p1103
g4
sVbodySize
p1104
I34448
sVhttpVersion
p1105
VHTTP/1.1
p1106
ssa(dp1107
Vcomment
p1108
g4
sVserverIPAddress
p1109
V216.58.216.196
p1110
sVpageref
p1111
VSingapore
p1112
sVstartedDateTime
p1113
V2017-04-16T08:53:00.054-05:00
p1114
sVcache
p1115
(dp1116
sVrequest
p1117
(dp1118
Vcomment
p1119
g4
sVcookies
p1120
(lp1121
sVurl
p1122
Vhttps://www.google.com/gen_204?s=lu&atyp=csi&ei=NXfzWKy3MuXVjwTMnr7wAw&ima=11&rt=lmap.5029,aft.5028,wsrt.6224,cst.0,dnst.0,rqst.2593,rspt.2595,rqstt.610,unt.4,cstt.4,dit.6015
p1123
sVqueryString
p1124
(lp1125
(dp1126
Vname
p1127
g57
sVvalue
p1128
Vlu
p1129
sa(dp1130
Vname
p1131
Vatyp
p1132
sVvalue
p1133
Vcsi
p1134
sa(dp1135
Vname
p1136
Vei
p1137
sVvalue
p1138
VNXfzWKy3MuXVjwTMnr7wAw
p1139
sa(dp1140
Vname
p1141
Vima
p1142
sVvalue
p1143
V11
p1144
sa(dp1145
Vname
p1146
Vrt
p1147
sVvalue
p1148
Vlmap.5029,aft.5028,wsrt.6224,cst.0,dnst.0,rqst.2593,rspt.2595,rqstt.610,unt.4,cstt.4,dit.6015
p1149
sasVheaders
p1150
(lp1151
sVheadersSize
p1152
I691
sVbodySize
p1153
I0
sVmethod
p1154
VGET
p1155
sVhttpVersion
p1156
VHTTP/1.1
p1157
ssVtimings
p1158
(dp1159
Vcomment
p1160
g4
sVreceive
p1161
I0
sVsend
p1162
I0
sVssl
p1163
I-1
sVconnect
p1164
I-1
sVdns
p1165
I-1
sVwait
p1166
I27
sVblocked
p1167
I-1
ssVtime
p1168
I28
sVresponse
p1169
(dp1170
Vstatus
p1171
I204
sVcomment
p1172
g4
sVcookies
p1173
(lp1174
sVstatusText
p1175
VNo Content
p1176
sVcontent
p1177
(dp1178
VmimeType
p1179
Vtext/html; charset=UTF-8
p1180
sVcomment
p1181
g4
sVsize
p1182
I0
ssVheaders
p1183
(lp1184
sVheadersSize
p1185
I248
sVredirectURL
p1186
g4
sVbodySize
p1187
I0
sVhttpVersion
p1188
VHTTP/1.1
p1189
ssa(dp1190
Vcomment
p1191
g4
sVserverIPAddress
p1192
V216.58.216.196
p1193
sVpageref
p1194
VSingapore
p1195
sVstartedDateTime
p1196
V2017-04-16T08:53:00.309-05:00
p1197
sVcache
p1198
(dp1199
sVrequest
p1200
(dp1201
Vcomment
p1202
g4
sVcookies
p1203
(lp1204
sVurl
p1205
Vhttps://www.google.com/async/irc?vet=10ahUKEwjspYTuj6nTAhXl6oMKHUyPDz4Qo0EIiwI..i&ved=0ahUKEwjspYTuj6nTAhXl6oMKHUyPDz4Qo0EIiwI&ei=NXfzWKy3MuXVjwTMnr7wAw&yv=2&async=iu:1,ved:0ahUKEwjspYTuj6nTAhXl6oMKHUyPDz4Qo0EIiwI,_id:irc_async,_pms:qs
p1206
sVqueryString
p1207
(lp1208
(dp1209
Vname
p1210
Vvet
p1211
sVvalue
p1212
V10ahUKEwjspYTuj6nTAhXl6oMKHUyPDz4Qo0EIiwI..i
p1213
sa(dp1214
Vname
p1215
Vved
p1216
sVvalue
p1217
V0ahUKEwjspYTuj6nTAhXl6oMKHUyPDz4Qo0EIiwI
p1218
sa(dp1219
Vname
p1220
Vei
p1221
sVvalue
p1222
VNXfzWKy3MuXVjwTMnr7wAw
p1223
sa(dp1224
Vname
p1225
Vyv
p1226
sVvalue
p1227
g64
sa(dp1228
Vname
p1229
Vasync
p1230
sVvalue
p1231
Viu:1,ved:0ahUKEwjspYTuj6nTAhXl6oMKHUyPDz4Qo0EIiwI,_id:irc_async,_pms:qs
p1232
sasVheaders
p1233
(lp1234
sVheadersSize
p1235
I752
sVbodySize
p1236
I0
sVmethod
p1237
VGET
p1238
sVhttpVersion
p1239
VHTTP/1.1
p1240
ssVtimings
p1241
(dp1242
Vcomment
p1243
g4
sVreceive
p1244
I3
sVsend
p1245
I0
sVssl
p1246
I-1
sVconnect
p1247
I-1
sVdns
p1248
I-1
sVwait
p1249
I37
sVblocked
p1250
I-1
ssVtime
p1251
I40
sVresponse
p1252
(dp1253
Vstatus
p1254
I200
sVcomment
p1255
g4
sVcookies
p1256
(lp1257
sVstatusText
p1258
VOK
p1259
sVcontent
p1260
(dp1261
VmimeType
p1262
Vtext/html; charset=UTF-8
p1263
sVcomment
p1264
g4
sVsize
p1265
I0
ssVheaders
p1266
(lp1267
sVheadersSize
p1268
I383
sVredirectURL
p1269
g4
sVbodySize
p1270
I7793
sVhttpVersion
p1271
VHTTP/1.1
p1272
ssa(dp1273
Vcomment
p1274
g4
sVserverIPAddress
p1275
V216.58.216.206
p1276
sVpageref
p1277
VSingapore
p1278
sVstartedDateTime
p1279
V2017-04-16T08:53:00.346-05:00
p1280
sVcache
p1281
(dp1282
sVrequest
p1283
(dp1284
Vcomment
p1285
g4
sVcookies
p1286
(lp1287
sVurl
p1288
Vhttps://encrypted-tbn2.gstatic.com/images?q=tbn:ANd9GcSKj6b1KP5eeXWwbdoBwce2QMqWB6q2AmI9Gl1a_TI3lsaaChU2SvH_cwrPG3rRqlKr9cM
p1289
sVqueryString
p1290
(lp1291
(dp1292
Vname
p1293
g774
sVvalue
p1294
Vtbn:ANd9GcSKj6b1KP5eeXWwbdoBwce2QMqWB6q2AmI9Gl1a_TI3lsaaChU2SvH_cwrPG3rRqlKr9cM
p1295
sasVheaders
p1296
(lp1297
sVheadersSize
p1298
I438
sVbodySize
p1299
I0
sVmethod
p1300
VGET
p1301
sVhttpVersion
p1302
VHTTP/1.1
p1303
ssVtimings
p1304
(dp1305
Vcomment
p1306
g4
sVreceive
p1307
I1
sVsend
p1308
I0
sVssl
p1309
I-1
sVconnect
p1310
I-1
sVdns
p1311
I-1
sVwait
p1312
I23
sVblocked
p1313
I-1
ssVtime
p1314
I25
sVresponse
p1315
(dp1316
Vstatus
p1317
I200
sVcomment
p1318
g4
sVcookies
p1319
(lp1320
sVstatusText
p1321
VOK
p1322
sVcontent
p1323
(dp1324
VmimeType
p1325
Vimage/jpeg
p1326
sVcomment
p1327
g4
sVsize
p1328
I0
ssVheaders
p1329
(lp1330
sVheadersSize
p1331
I427
sVredirectURL
p1332
g4
sVbodySize
p1333
I4793
sVhttpVersion
p1334
VHTTP/1.1
p1335
ssa(dp1336
Vcomment
p1337
g4
sVserverIPAddress
p1338
V216.58.216.196
p1339
sVpageref
p1340
VSingapore
p1341
sVstartedDateTime
p1342
V2017-04-16T08:53:00.350-05:00
p1343
sVcache
p1344
(dp1345
sVrequest
p1346
(dp1347
Vcomment
p1348
g4
sVcookies
p1349
(lp1350
sVurl
p1351
Vhttps://www.google.com/gen_204?atyp=i&ct=&cad=&vet=10ahUKEwjspYTuj6nTAhXl6oMKHUyPDz4QtxAIXygEMAw..s&ei=NXfzWKy3MuXVjwTMnr7wAw&zx=1492350780349
p1352
sVqueryString
p1353
(lp1354
(dp1355
Vname
p1356
Vatyp
p1357
sVvalue
p1358
g30
sa(dp1359
Vname
p1360
Vct
p1361
sVvalue
p1362
g4
sa(dp1363
Vname
p1364
Vcad
p1365
sVvalue
p1366
g4
sa(dp1367
Vname
p1368
Vvet
p1369
sVvalue
p1370
V10ahUKEwjspYTuj6nTAhXl6oMKHUyPDz4QtxAIXygEMAw..s
p1371
sa(dp1372
Vname
p1373
Vei
p1374
sVvalue
p1375
VNXfzWKy3MuXVjwTMnr7wAw
p1376
sa(dp1377
Vname
p1378
Vzx
p1379
sVvalue
p1380
V1492350780349
p1381
sasVheaders
p1382
(lp1383
sVheadersSize
p1384
I659
sVbodySize
p1385
I0
sVmethod
p1386
VGET
p1387
sVhttpVersion
p1388
VHTTP/1.1
p1389
ssVtimings
p1390
(dp1391
Vcomment
p1392
g4
sVreceive
p1393
I0
sVsend
p1394
I0
sVssl
p1395
I-1
sVconnect
p1396
I-1
sVdns
p1397
I-1
sVwait
p1398
I35
sVblocked
p1399
I-1
ssVtime
p1400
I35
sVresponse
p1401
(dp1402
Vstatus
p1403
I204
sVcomment
p1404
g4
sVcookies
p1405
(lp1406
sVstatusText
p1407
VNo Content
p1408
sVcontent
p1409
(dp1410
VmimeType
p1411
Vtext/html; charset=UTF-8
p1412
sVcomment
p1413
g4
sVsize
p1414
I0
ssVheaders
p1415
(lp1416
sVheadersSize
p1417
I248
sVredirectURL
p1418
g4
sVbodySize
p1419
I0
sVhttpVersion
p1420
VHTTP/1.1
p1421
ssa(dp1422
Vcomment
p1423
g4
sVserverIPAddress
p1424
V216.58.216.206
p1425
sVpageref
p1426
VSingapore
p1427
sVstartedDateTime
p1428
V2017-04-16T08:53:00.353-05:00
p1429
sVcache
p1430
(dp1431
sVrequest
p1432
(dp1433
Vcomment
p1434
g4
sVcookies
p1435
(lp1436
sVurl
p1437
Vhttps://encrypted-tbn3.gstatic.com/images?q=tbn:ANd9GcTIhfPaH_LLnhGR8r-cuJRWm0jHWJIc4PYFBh3__YRDE9xExd3VOAnX9utC5Gx0PTKV7kc
p1438
sVqueryString
p1439
(lp1440
(dp1441
Vname
p1442
g774
sVvalue
p1443
Vtbn:ANd9GcTIhfPaH_LLnhGR8r-cuJRWm0jHWJIc4PYFBh3__YRDE9xExd3VOAnX9utC5Gx0PTKV7kc
p1444
sasVheaders
p1445
(lp1446
sVheadersSize
p1447
I438
sVbodySize
p1448
I0
sVmethod
p1449
VGET
p1450
sVhttpVersion
p1451
VHTTP/1.1
p1452
ssVtimings
p1453
(dp1454
Vcomment
p1455
g4
sVreceive
p1456
I5
sVsend
p1457
I0
sVssl
p1458
I-1
sVconnect
p1459
I-1
sVdns
p1460
I-1
sVwait
p1461
I24
sVblocked
p1462
I-1
ssVtime
p1463
I30
sVresponse
p1464
(dp1465
Vstatus
p1466
I200
sVcomment
p1467
g4
sVcookies
p1468
(lp1469
sVstatusText
p1470
VOK
p1471
sVcontent
p1472
(dp1473
VmimeType
p1474
Vimage/jpeg
p1475
sVcomment
p1476
g4
sVsize
p1477
I0
ssVheaders
p1478
(lp1479
sVheadersSize
p1480
I429
sVredirectURL
p1481
g4
sVbodySize
p1482
I4971
sVhttpVersion
p1483
VHTTP/1.1
p1484
ssa(dp1485
Vcomment
p1486
g4
sVserverIPAddress
p1487
V216.58.216.206
p1488
sVpageref
p1489
VSingapore
p1490
sVstartedDateTime
p1491
V2017-04-16T08:53:00.358-05:00
p1492
sVcache
p1493
(dp1494
sVrequest
p1495
(dp1496
Vcomment
p1497
g4
sVcookies
p1498
(lp1499
sVurl
p1500
Vhttps://encrypted-tbn0.gstatic.com/images?q=tbn:ANd9GcTrepJ1V33PJXqIpgCH3P0G5w4OWsh2w_CW_jRKWiVSHfoBJ4XzsxfDIuG1PsogPXRSUAE
p1501
sVqueryString
p1502
(lp1503
(dp1504
Vname
p1505
g774
sVvalue
p1506
Vtbn:ANd9GcTrepJ1V33PJXqIpgCH3P0G5w4OWsh2w_CW_jRKWiVSHfoBJ4XzsxfDIuG1PsogPXRSUAE
p1507
sasVheaders
p1508
(lp1509
sVheadersSize
p1510
I438
sVbodySize
p1511
I0
sVmethod
p1512
VGET
p1513
sVhttpVersion
p1514
VHTTP/1.1
p1515
ssVtimings
p1516
(dp1517
Vcomment
p1518
g4
sVreceive
p1519
I0
sVsend
p1520
I0
sVssl
p1521
I-1
sVconnect
p1522
I-1
sVdns
p1523
I-1
sVwait
p1524
I25
sVblocked
p1525
I-1
ssVtime
p1526
I25
sVresponse
p1527
(dp1528
Vstatus
p1529
I200
sVcomment
p1530
g4
sVcookies
p1531
(lp1532
sVstatusText
p1533
VOK
p1534
sVcontent
p1535
(dp1536
VmimeType
p1537
Vimage/jpeg
p1538
sVcomment
p1539
g4
sVsize
p1540
I0
ssVheaders
p1541
(lp1542
sVheadersSize
p1543
I407
sVredirectURL
p1544
g4
sVbodySize
p1545
I3453
sVhttpVersion
p1546
VHTTP/1.1
p1547
ssa(dp1548
Vcomment
p1549
g4
sVserverIPAddress
p1550
V216.58.216.206
p1551
sVpageref
p1552
VSingapore
p1553
sVstartedDateTime
p1554
V2017-04-16T08:53:00.364-05:00
p1555
sVcache
p1556
(dp1557
sVrequest
p1558
(dp1559
Vcomment
p1560
g4
sVcookies
p1561
(lp1562
sVurl
p1563
Vhttps://encrypted-tbn0.gstatic.com/images?q=tbn:ANd9GcTFLFbfDEo44AP6MfVjSSY9lpebk5sF6PJfR4sokVQkbU50ZiB3tRYM-T3Z2KKI0viXQhQ
p1564
sVqueryString
p1565
(lp1566
(dp1567
Vname
p1568
g774
sVvalue
p1569
Vtbn:ANd9GcTFLFbfDEo44AP6MfVjSSY9lpebk5sF6PJfR4sokVQkbU50ZiB3tRYM-T3Z2KKI0viXQhQ
p1570
sasVheaders
p1571
(lp1572
sVheadersSize
p1573
I438
sVbodySize
p1574
I0
sVmethod
p1575
VGET
p1576
sVhttpVersion
p1577
VHTTP/1.1
p1578
ssVtimings
p1579
(dp1580
Vcomment
p1581
g4
sVreceive
p1582
I1
sVsend
p1583
I0
sVssl
p1584
I-1
sVconnect
p1585
I-1
sVdns
p1586
I-1
sVwait
p1587
I20
sVblocked
p1588
I-1
ssVtime
p1589
I22
sVresponse
p1590
(dp1591
Vstatus
p1592
I200
sVcomment
p1593
g4
sVcookies
p1594
(lp1595
sVstatusText
p1596
VOK
p1597
sVcontent
p1598
(dp1599
VmimeType
p1600
Vimage/jpeg
p1601
sVcomment
p1602
g4
sVsize
p1603
I0
ssVheaders
p1604
(lp1605
sVheadersSize
p1606
I428
sVredirectURL
p1607
g4
sVbodySize
p1608
I4989
sVhttpVersion
p1609
VHTTP/1.1
p1610
ssa(dp1611
Vcomment
p1612
g4
sVserverIPAddress
p1613
V216.58.216.196
p1614
sVpageref
p1615
VSingapore
p1616
sVstartedDateTime
p1617
V2017-04-16T08:53:00.383-05:00
p1618
sVcache
p1619
(dp1620
sVrequest
p1621
(dp1622
Vcomment
p1623
g4
sVcookies
p1624
(lp1625
sVurl
p1626
Vhttps://www.google.com/gen_204?atyp=i&ct=&cad=&uact=1&vet=10ahUKEwjspYTuj6nTAhXl6oMKHUyPDz4Q9V8INCgA..s&ei=NXfzWKy3MuXVjwTMnr7wAw&zx=1492350780331
p1627
sVqueryString
p1628
(lp1629
(dp1630
Vname
p1631
Vatyp
p1632
sVvalue
p1633
g30
sa(dp1634
Vname
p1635
Vct
p1636
sVvalue
p1637
g4
sa(dp1638
Vname
p1639
Vcad
p1640
sVvalue
p1641
g4
sa(dp1642
Vname
p1643
Vuact
p1644
sVvalue
p1645
g59
sa(dp1646
Vname
p1647
Vvet
p1648
sVvalue
p1649
V10ahUKEwjspYTuj6nTAhXl6oMKHUyPDz4Q9V8INCgA..s
p1650
sa(dp1651
Vname
p1652
Vei
p1653
sVvalue
p1654
VNXfzWKy3MuXVjwTMnr7wAw
p1655
sa(dp1656
Vname
p1657
Vzx
p1658
sVvalue
p1659
V1492350780331
p1660
sasVheaders
p1661
(lp1662
sVheadersSize
p1663
I663
sVbodySize
p1664
I0
sVmethod
p1665
VGET
p1666
sVhttpVersion
p1667
VHTTP/1.1
p1668
ssVtimings
p1669
(dp1670
Vcomment
p1671
g4
sVreceive
p1672
I0
sVsend
p1673
I0
sVssl
p1674
I27
sVconnect
p1675
I50
sVdns
p1676
I0
sVwait
p1677
I33
sVblocked
p1678
I0
ssVtime
p1679
I84
sVresponse
p1680
(dp1681
Vstatus
p1682
I204
sVcomment
p1683
g4
sVcookies
p1684
(lp1685
sVstatusText
p1686
VNo Content
p1687
sVcontent
p1688
(dp1689
VmimeType
p1690
Vtext/html; charset=UTF-8
p1691
sVcomment
p1692
g4
sVsize
p1693
I0
ssVheaders
p1694
(lp1695
sVheadersSize
p1696
I248
sVredirectURL
p1697
g4
sVbodySize
p1698
I0
sVhttpVersion
p1699
VHTTP/1.1
p1700
ssa(dp1701
Vcomment
p1702
g4
sVserverIPAddress
p1703
V216.58.216.196
p1704
sVpageref
p1705
VSingapore
p1706
sVstartedDateTime
p1707
V2017-04-16T08:53:00.387-05:00
p1708
sVcache
p1709
(dp1710
sVrequest
p1711
(dp1712
Vcomment
p1713
g4
sVcookies
p1714
(lp1715
sVurl
p1716
Vhttps://www.google.com/gen_204?atyp=i&ct=&cad=&vet=10ahUKEwjspYTuj6nTAhXl6oMKHUyPDz4QtxAIZSgHMAw..s&ei=NXfzWKy3MuXVjwTMnr7wAw&zx=1492350780363
p1717
sVqueryString
p1718
(lp1719
(dp1720
Vname
p1721
Vatyp
p1722
sVvalue
p1723
g30
sa(dp1724
Vname
p1725
Vct
p1726
sVvalue
p1727
g4
sa(dp1728
Vname
p1729
Vcad
p1730
sVvalue
p1731
g4
sa(dp1732
Vname
p1733
Vvet
p1734
sVvalue
p1735
V10ahUKEwjspYTuj6nTAhXl6oMKHUyPDz4QtxAIZSgHMAw..s
p1736
sa(dp1737
Vname
p1738
Vei
p1739
sVvalue
p1740
VNXfzWKy3MuXVjwTMnr7wAw
p1741
sa(dp1742
Vname
p1743
Vzx
p1744
sVvalue
p1745
V1492350780363
p1746
sasVheaders
p1747
(lp1748
sVheadersSize
p1749
I659
sVbodySize
p1750
I0
sVmethod
p1751
VGET
p1752
sVhttpVersion
p1753
VHTTP/1.1
p1754
ssVtimings
p1755
(dp1756
Vcomment
p1757
g4
sVreceive
p1758
I0
sVsend
p1759
I0
sVssl
p1760
I-1
sVconnect
p1761
I-1
sVdns
p1762
I-1
sVwait
p1763
I45
sVblocked
p1764
I-1
ssVtime
p1765
I45
sVresponse
p1766
(dp1767
Vstatus
p1768
I204
sVcomment
p1769
g4
sVcookies
p1770
(lp1771
sVstatusText
p1772
VNo Content
p1773
sVcontent
p1774
(dp1775
VmimeType
p1776
Vtext/html; charset=UTF-8
p1777
sVcomment
p1778
g4
sVsize
p1779
I0
ssVheaders
p1780
(lp1781
sVheadersSize
p1782
I248
sVredirectURL
p1783
g4
sVbodySize
p1784
I0
sVhttpVersion
p1785
VHTTP/1.1
p1786
ssa(dp1787
Vcomment
p1788
g4
sVserverIPAddress
p1789
V216.58.216.196
p1790
sVpageref
p1791
VSingapore
p1792
sVstartedDateTime
p1793
V2017-04-16T08:53:00.388-05:00
p1794
sVcache
p1795
(dp1796
sVrequest
p1797
(dp1798
Vcomment
p1799
g4
sVcookies
p1800
(lp1801
sVurl
p1802
Vhttps://www.google.com/gen_204?atyp=i&ct=&cad=&uact=1&vet=10ahUKEwjspYTuj6nTAhXl6oMKHUyPDz4Q9V8INSgB..s&ei=NXfzWKy3MuXVjwTMnr7wAw&zx=1492350780333
p1803
sVqueryString
p1804
(lp1805
(dp1806
Vname
p1807
Vatyp
p1808
sVvalue
p1809
g30
sa(dp1810
Vname
p1811
Vct
p1812
sVvalue
p1813
g4
sa(dp1814
Vname
p1815
Vcad
p1816
sVvalue
p1817
g4
sa(dp1818
Vname
p1819
Vuact
p1820
sVvalue
p1821
g59
sa(dp1822
Vname
p1823
Vvet
p1824
sVvalue
p1825
V10ahUKEwjspYTuj6nTAhXl6oMKHUyPDz4Q9V8INSgB..s
p1826
sa(dp1827
Vname
p1828
Vei
p1829
sVvalue
p1830
VNXfzWKy3MuXVjwTMnr7wAw
p1831
sa(dp1832
Vname
p1833
Vzx
p1834
sVvalue
p1835
V1492350780333
p1836
sasVheaders
p1837
(lp1838
sVheadersSize
p1839
I663
sVbodySize
p1840
I0
sVmethod
p1841
VGET
p1842
sVhttpVersion
p1843
VHTTP/1.1
p1844
ssVtimings
p1845
(dp1846
Vcomment
p1847
g4
sVreceive
p1848
I0
sVsend
p1849
I0
sVssl
p1850
I31
sVconnect
p1851
I51
sVdns
p1852
I0
sVwait
p1853
I44
sVblocked
p1854
I0
ssVtime
p1855
I96
sVresponse
p1856
(dp1857
Vstatus
p1858
I204
sVcomment
p1859
g4
sVcookies
p1860
(lp1861
sVstatusText
p1862
VNo Content
p1863
sVcontent
p1864
(dp1865
VmimeType
p1866
Vtext/html; charset=UTF-8
p1867
sVcomment
p1868
g4
sVsize
p1869
I0
ssVheaders
p1870
(lp1871
sVheadersSize
p1872
I248
sVredirectURL
p1873
g4
sVbodySize
p1874
I0
sVhttpVersion
p1875
VHTTP/1.1
p1876
ssa(dp1877
Vcomment
p1878
g4
sVserverIPAddress
p1879
V216.58.216.196
p1880
sVpageref
p1881
VSingapore
p1882
sVstartedDateTime
p1883
V2017-04-16T08:53:00.391-05:00
p1884
sVcache
p1885
(dp1886
sVrequest
p1887
(dp1888
Vcomment
p1889
g4
sVcookies
p1890
(lp1891
sVurl
p1892
Vhttps://www.google.com/gen_204?atyp=i&ct=&cad=&vet=10ahUKEwjspYTuj6nTAhXl6oMKHUyPDz4QtxAIXSgDMAw..s&ei=NXfzWKy3MuXVjwTMnr7wAw&zx=1492350780346
p1893
sVqueryString
p1894
(lp1895
(dp1896
Vname
p1897
Vatyp
p1898
sVvalue
p1899
g30
sa(dp1900
Vname
p1901
Vct
p1902
sVvalue
p1903
g4
sa(dp1904
Vname
p1905
Vcad
p1906
sVvalue
p1907
g4
sa(dp1908
Vname
p1909
Vvet
p1910
sVvalue
p1911
V10ahUKEwjspYTuj6nTAhXl6oMKHUyPDz4QtxAIXSgDMAw..s
p1912
sa(dp1913
Vname
p1914
Vei
p1915
sVvalue
p1916
VNXfzWKy3MuXVjwTMnr7wAw
p1917
sa(dp1918
Vname
p1919
Vzx
p1920
sVvalue
p1921
V1492350780346
p1922
sasVheaders
p1923
(lp1924
sVheadersSize
p1925
I659
sVbodySize
p1926
I0
sVmethod
p1927
VGET
p1928
sVhttpVersion
p1929
VHTTP/1.1
p1930
ssVtimings
p1931
(dp1932
Vcomment
p1933
g4
sVreceive
p1934
I0
sVsend
p1935
I0
sVssl
p1936
I23
sVconnect
p1937
I41
sVdns
p1938
I0
sVwait
p1939
I41
sVblocked
p1940
I0
ssVtime
p1941
I83
sVresponse
p1942
(dp1943
Vstatus
p1944
I204
sVcomment
p1945
g4
sVcookies
p1946
(lp1947
sVstatusText
p1948
VNo Content
p1949
sVcontent
p1950
(dp1951
VmimeType
p1952
Vtext/html; charset=UTF-8
p1953
sVcomment
p1954
g4
sVsize
p1955
I0
ssVheaders
p1956
(lp1957
sVheadersSize
p1958
I248
sVredirectURL
p1959
g4
sVbodySize
p1960
I0
sVhttpVersion
p1961
VHTTP/1.1
p1962
ssa(dp1963
Vcomment
p1964
g4
sVserverIPAddress
p1965
V216.58.216.196
p1966
sVpageref
p1967
VSingapore
p1968
sVstartedDateTime
p1969
V2017-04-16T08:53:00.398-05:00
p1970
sVcache
p1971
(dp1972
sVrequest
p1973
(dp1974
Vcomment
p1975
g4
sVcookies
p1976
(lp1977
sVurl
p1978
Vhttps://www.google.com/gen_204?atyp=i&ct=&cad=&vet=10ahUKEwjspYTuj6nTAhXl6oMKHUyPDz4QtxAIYSgFMAw..s&ei=NXfzWKy3MuXVjwTMnr7wAw&zx=1492350780352
p1979
sVqueryString
p1980
(lp1981
(dp1982
Vname
p1983
Vatyp
p1984
sVvalue
p1985
g30
sa(dp1986
Vname
p1987
Vct
p1988
sVvalue
p1989
g4
sa(dp1990
Vname
p1991
Vcad
p1992
sVvalue
p1993
g4
sa(dp1994
Vname
p1995
Vvet
p1996
sVvalue
p1997
V10ahUKEwjspYTuj6nTAhXl6oMKHUyPDz4QtxAIYSgFMAw..s
p1998
sa(dp1999
Vname
p2000
Vei
p2001
sVvalue
p2002
VNXfzWKy3MuXVjwTMnr7wAw
p2003
sa(dp2004
Vname
p2005
Vzx
p2006
sVvalue
p2007
V1492350780352
p2008
sasVheaders
p2009
(lp2010
sVheadersSize
p2011
I659
sVbodySize
p2012
I0
sVmethod
p2013
VGET
p2014
sVhttpVersion
p2015
VHTTP/1.1
p2016
ssVtimings
p2017
(dp2018
Vcomment
p2019
g4
sVreceive
p2020
I0
sVsend
p2021
I0
sVssl
p2022
I21
sVconnect
p2023
I40
sVdns
p2024
I0
sVwait
p2025
I34
sVblocked
p2026
I0
ssVtime
p2027
I75
sVresponse
p2028
(dp2029
Vstatus
p2030
I204
sVcomment
p2031
g4
sVcookies
p2032
(lp2033
sVstatusText
p2034
VNo Content
p2035
sVcontent
p2036
(dp2037
VmimeType
p2038
Vtext/html; charset=UTF-8
p2039
sVcomment
p2040
g4
sVsize
p2041
I0
ssVheaders
p2042
(lp2043
sVheadersSize
p2044
I248
sVredirectURL
p2045
g4
sVbodySize
p2046
I0
sVhttpVersion
p2047
VHTTP/1.1
p2048
ssa(dp2049
Vcomment
p2050
g4
sVserverIPAddress
p2051
V216.58.216.206
p2052
sVpageref
p2053
VSingapore
p2054
sVstartedDateTime
p2055
V2017-04-16T08:53:00.398-05:00
p2056
sVcache
p2057
(dp2058
sVrequest
p2059
(dp2060
Vcomment
p2061
g4
sVcookies
p2062
(lp2063
sVurl
p2064
Vhttps://encrypted-tbn2.gstatic.com/images?q=tbn:ANd9GcTXbvUb8LGIcqJurTozXlO4_tdKLCv3acKIqWBBvd293-Ae0FaLnvY
p2065
sVqueryString
p2066
(lp2067
(dp2068
Vname
p2069
g774
sVvalue
p2070
Vtbn:ANd9GcTXbvUb8LGIcqJurTozXlO4_tdKLCv3acKIqWBBvd293-Ae0FaLnvY
p2071
sasVheaders
p2072
(lp2073
sVheadersSize
p2074
I422
sVbodySize
p2075
I0
sVmethod
p2076
VGET
p2077
sVhttpVersion
p2078
VHTTP/1.1
p2079
ssVtimings
p2080
(dp2081
Vcomment
p2082
g4
sVreceive
p2083
I1
sVsend
p2084
I0
sVssl
p2085
I24
sVconnect
p2086
I45
sVdns
p2087
I1
sVwait
p2088
I23
sVblocked
p2089
I0
ssVtime
p2090
I71
sVresponse
p2091
(dp2092
Vstatus
p2093
I200
sVcomment
p2094
g4
sVcookies
p2095
(lp2096
sVstatusText
p2097
VOK
p2098
sVcontent
p2099
(dp2100
VmimeType
p2101
Vimage/jpeg
p2102
sVcomment
p2103
g4
sVsize
p2104
I0
ssVheaders
p2105
(lp2106
sVheadersSize
p2107
I407
sVredirectURL
p2108
g4
sVbodySize
p2109
I4474
sVhttpVersion
p2110
VHTTP/1.1
p2111
ssa(dp2112
Vcomment
p2113
g4
sVserverIPAddress
p2114
V216.58.216.196
p2115
sVpageref
p2116
VSingapore
p2117
sVstartedDateTime
p2118
V2017-04-16T08:53:00.408-05:00
p2119
sVcache
p2120
(dp2121
sVrequest
p2122
(dp2123
Vcomment
p2124
g4
sVcookies
p2125
(lp2126
sVurl
p2127
Vhttps://www.google.com/gen_204?atyp=i&ct=&cad=&vet=10ahUKEwjspYTuj6nTAhXl6oMKHUyPDz4QtxAIYygGMAw..s&ei=NXfzWKy3MuXVjwTMnr7wAw&zx=1492350780359
p2128
sVqueryString
p2129
(lp2130
(dp2131
Vname
p2132
Vatyp
p2133
sVvalue
p2134
g30
sa(dp2135
Vname
p2136
Vct
p2137
sVvalue
p2138
g4
sa(dp2139
Vname
p2140
Vcad
p2141
sVvalue
p2142
g4
sa(dp2143
Vname
p2144
Vvet
p2145
sVvalue
p2146
V10ahUKEwjspYTuj6nTAhXl6oMKHUyPDz4QtxAIYygGMAw..s
p2147
sa(dp2148
Vname
p2149
Vei
p2150
sVvalue
p2151
VNXfzWKy3MuXVjwTMnr7wAw
p2152
sa(dp2153
Vname
p2154
Vzx
p2155
sVvalue
p2156
V1492350780359
p2157
sasVheaders
p2158
(lp2159
sVheadersSize
p2160
I659
sVbodySize
p2161
I0
sVmethod
p2162
VGET
p2163
sVhttpVersion
p2164
VHTTP/1.1
p2165
ssVtimings
p2166
(dp2167
Vcomment
p2168
g4
sVreceive
p2169
I0
sVsend
p2170
I0
sVssl
p2171
I25
sVconnect
p2172
I45
sVdns
p2173
I0
sVwait
p2174
I28
sVblocked
p2175
I0
ssVtime
p2176
I74
sVresponse
p2177
(dp2178
Vstatus
p2179
I204
sVcomment
p2180
g4
sVcookies
p2181
(lp2182
sVstatusText
p2183
VNo Content
p2184
sVcontent
p2185
(dp2186
VmimeType
p2187
Vtext/html; charset=UTF-8
p2188
sVcomment
p2189
g4
sVsize
p2190
I0
ssVheaders
p2191
(lp2192
sVheadersSize
p2193
I248
sVredirectURL
p2194
g4
sVbodySize
p2195
I0
sVhttpVersion
p2196
VHTTP/1.1
p2197
ssa(dp2198
Vcomment
p2199
g4
sVserverIPAddress
p2200
V216.58.216.196
p2201
sVpageref
p2202
VSingapore
p2203
sVstartedDateTime
p2204
V2017-04-16T08:53:00.419-05:00
p2205
sVcache
p2206
(dp2207
sVrequest
p2208
(dp2209
Vcomment
p2210
g4
sVcookies
p2211
(lp2212
sVurl
p2213
Vhttps://www.google.com/gen_204?atyp=i&ct=&cad=&vet=10ahUKEwjspYTuj6nTAhXl6oMKHUyPDz4QlpQBCGcoCDAM..s&ei=NXfzWKy3MuXVjwTMnr7wAw&zx=1492350780366
p2214
sVqueryString
p2215
(lp2216
(dp2217
Vname
p2218
Vatyp
p2219
sVvalue
p2220
g30
sa(dp2221
Vname
p2222
Vct
p2223
sVvalue
p2224
g4
sa(dp2225
Vname
p2226
Vcad
p2227
sVvalue
p2228
g4
sa(dp2229
Vname
p2230
Vvet
p2231
sVvalue
p2232
V10ahUKEwjspYTuj6nTAhXl6oMKHUyPDz4QlpQBCGcoCDAM..s
p2233
sa(dp2234
Vname
p2235
Vei
p2236
sVvalue
p2237
VNXfzWKy3MuXVjwTMnr7wAw
p2238
sa(dp2239
Vname
p2240
Vzx
p2241
sVvalue
p2242
V1492350780366
p2243
sasVheaders
p2244
(lp2245
sVheadersSize
p2246
I660
sVbodySize
p2247
I0
sVmethod
p2248
VGET
p2249
sVhttpVersion
p2250
VHTTP/1.1
p2251
ssVtimings
p2252
(dp2253
Vcomment
p2254
g4
sVreceive
p2255
I0
sVsend
p2256
I0
sVssl
p2257
I-1
sVconnect
p2258
I-1
sVdns
p2259
I-1
sVwait
p2260
I30
sVblocked
p2261
I-1
ssVtime
p2262
I30
sVresponse
p2263
(dp2264
Vstatus
p2265
I204
sVcomment
p2266
g4
sVcookies
p2267
(lp2268
sVstatusText
p2269
VNo Content
p2270
sVcontent
p2271
(dp2272
VmimeType
p2273
Vtext/html; charset=UTF-8
p2274
sVcomment
p2275
g4
sVsize
p2276
I0
ssVheaders
p2277
(lp2278
sVheadersSize
p2279
I248
sVredirectURL
p2280
g4
sVbodySize
p2281
I0
sVhttpVersion
p2282
VHTTP/1.1
p2283
ssa(dp2284
Vcomment
p2285
g4
sVserverIPAddress
p2286
V216.58.216.196
p2287
sVpageref
p2288
VSingapore
p2289
sVstartedDateTime
p2290
V2017-04-16T08:53:00.487-05:00
p2291
sVcache
p2292
(dp2293
sVrequest
p2294
(dp2295
Vcomment
p2296
g4
sVcookies
p2297
(lp2298
sVurl
p2299
Vhttps://www.google.com/async/ampfp?vet=10ahUKEwjspYTuj6nTAhXl6oMKHUyPDz4QtZoBCIkC..i&ei=NXfzWKy3MuXVjwTMnr7wAw&yv=2&async=_id:ampfp-async,_pms:qs
p2300
sVqueryString
p2301
(lp2302
(dp2303
Vname
p2304
Vvet
p2305
sVvalue
p2306
V10ahUKEwjspYTuj6nTAhXl6oMKHUyPDz4QtZoBCIkC..i
p2307
sa(dp2308
Vname
p2309
Vei
p2310
sVvalue
p2311
VNXfzWKy3MuXVjwTMnr7wAw
p2312
sa(dp2313
Vname
p2314
Vyv
p2315
sVvalue
p2316
g64
sa(dp2317
Vname
p2318
Vasync
p2319
sVvalue
p2320
V_id:ampfp-async,_pms:qs
p2321
sasVheaders
p2322
(lp2323
sVheadersSize
p2324
I662
sVbodySize
p2325
I0
sVmethod
p2326
VGET
p2327
sVhttpVersion
p2328
VHTTP/1.1
p2329
ssVtimings
p2330
(dp2331
Vcomment
p2332
g4
sVreceive
p2333
I3
sVsend
p2334
I0
sVssl
p2335
I-1
sVconnect
p2336
I-1
sVdns
p2337
I-1
sVwait
p2338
I57
sVblocked
p2339
I-1
ssVtime
p2340
I60
sVresponse
p2341
(dp2342
Vstatus
p2343
I200
sVcomment
p2344
g4
sVcookies
p2345
(lp2346
sVstatusText
p2347
VOK
p2348
sVcontent
p2349
(dp2350
VmimeType
p2351
Vtext/html; charset=UTF-8
p2352
sVcomment
p2353
g4
sVsize
p2354
I0
ssVheaders
p2355
(lp2356
sVheadersSize
p2357
I383
sVredirectURL
p2358
g4
sVbodySize
p2359
I4527
sVhttpVersion
p2360
VHTTP/1.1
p2361
ssa(dp2362
Vcomment
p2363
g4
sVserverIPAddress
p2364
V216.58.216.193
p2365
sVpageref
p2366
VSingapore
p2367
sVstartedDateTime
p2368
V2017-04-16T08:53:00.488-05:00
p2369
sVcache
p2370
(dp2371
sVrequest
p2372
(dp2373
Vcomment
p2374
g4
sVcookies
p2375
(lp2376
sVurl
p2377
Vhttps://cdn.ampproject.org/preconnect.gif?0.8340446564562858
p2378
sVqueryString
p2379
(lp2380
(dp2381
Vname
p2382
V0.8340446564562858
p2383
sVvalue
p2384
g4
sasVheaders
p2385
(lp2386
sVheadersSize
p2387
I375
sVbodySize
p2388
I0
sVmethod
p2389
VGET
p2390
sVhttpVersion
p2391
VHTTP/1.1
p2392
ssVtimings
p2393
(dp2394
Vcomment
p2395
g4
sVreceive
p2396
I0
sVsend
p2397
I0
sVssl
p2398
I-1
sVconnect
p2399
I-1
sVdns
p2400
I-1
sVwait
p2401
I27
sVblocked
p2402
I-1
ssVtime
p2403
I28
sVresponse
p2404
(dp2405
Vstatus
p2406
I200
sVcomment
p2407
g4
sVcookies
p2408
(lp2409
sVstatusText
p2410
VOK
p2411
sVcontent
p2412
(dp2413
VmimeType
p2414
Vimage/gif
p2415
sVcomment
p2416
g4
sVsize
p2417
I0
ssVheaders
p2418
(lp2419
sVheadersSize
p2420
I826
sVredirectURL
p2421
g4
sVbodySize
p2422
I37
sVhttpVersion
p2423
VHTTP/1.1
p2424
ssa(dp2425
Vcomment
p2426
g4
sVserverIPAddress
p2427
V216.58.216.206
p2428
sVpageref
p2429
VSingapore
p2430
sVstartedDateTime
p2431
V2017-04-16T08:53:00.504-05:00
p2432
sVcache
p2433
(dp2434
sVrequest
p2435
(dp2436
Vcomment
p2437
g4
sVcookies
p2438
(lp2439
sVurl
p2440
Vhttps://encrypted-tbn2.gstatic.com/images?q=tbn:ANd9GcRC67gT59iBz3HQYDq4TLrSx2UOV4wb7AxrX7gA5JWULwMRykRFjUi6cYsQZA
p2441
sVqueryString
p2442
(lp2443
(dp2444
Vname
p2445
g774
sVvalue
p2446
Vtbn:ANd9GcRC67gT59iBz3HQYDq4TLrSx2UOV4wb7AxrX7gA5JWULwMRykRFjUi6cYsQZA
p2447
sasVheaders
p2448
(lp2449
sVheadersSize
p2450
I429
sVbodySize
p2451
I0
sVmethod
p2452
VGET
p2453
sVhttpVersion
p2454
VHTTP/1.1
p2455
ssVtimings
p2456
(dp2457
Vcomment
p2458
g4
sVreceive
p2459
I5
sVsend
p2460
I0
sVssl
p2461
I-1
sVconnect
p2462
I-1
sVdns
p2463
I-1
sVwait
p2464
I30
sVblocked
p2465
I-1
ssVtime
p2466
I35
sVresponse
p2467
(dp2468
Vstatus
p2469
I200
sVcomment
p2470
g4
sVcookies
p2471
(lp2472
sVstatusText
p2473
VOK
p2474
sVcontent
p2475
(dp2476
VmimeType
p2477
Vimage/jpeg
p2478
sVcomment
p2479
g4
sVsize
p2480
I0
ssVheaders
p2481
(lp2482
sVheadersSize
p2483
I407
sVredirectURL
p2484
g4
sVbodySize
p2485
I8639
sVhttpVersion
p2486
VHTTP/1.1
p2487
ssa(dp2488
Vcomment
p2489
g4
sVserverIPAddress
p2490
V216.58.216.206
p2491
sVpageref
p2492
VSingapore
p2493
sVstartedDateTime
p2494
V2017-04-16T08:53:00.506-05:00
p2495
sVcache
p2496
(dp2497
sVrequest
p2498
(dp2499
Vcomment
p2500
g4
sVcookies
p2501
(lp2502
sVurl
p2503
Vhttps://encrypted-tbn1.gstatic.com/images?q=tbn:ANd9GcSnrleesQWgkYZ7hS12Z09JbxY6ojIzE0hqQiKy14d2OWYASlRFH5CREIS9
p2504
sVqueryString
p2505
(lp2506
(dp2507
Vname
p2508
g774
sVvalue
p2509
Vtbn:ANd9GcSnrleesQWgkYZ7hS12Z09JbxY6ojIzE0hqQiKy14d2OWYASlRFH5CREIS9
p2510
sasVheaders
p2511
(lp2512
sVheadersSize
p2513
I427
sVbodySize
p2514
I0
sVmethod
p2515
VGET
p2516
sVhttpVersion
p2517
VHTTP/1.1
p2518
ssVtimings
p2519
(dp2520
Vcomment
p2521
g4
sVreceive
p2522
I9
sVsend
p2523
I0
sVssl
p2524
I-1
sVconnect
p2525
I-1
sVdns
p2526
I-1
sVwait
p2527
I28
sVblocked
p2528
I-1
ssVtime
p2529
I38
sVresponse
p2530
(dp2531
Vstatus
p2532
I200
sVcomment
p2533
g4
sVcookies
p2534
(lp2535
sVstatusText
p2536
VOK
p2537
sVcontent
p2538
(dp2539
VmimeType
p2540
Vimage/jpeg
p2541
sVcomment
p2542
g4
sVsize
p2543
I0
ssVheaders
p2544
(lp2545
sVheadersSize
p2546
I430
sVredirectURL
p2547
g4
sVbodySize
p2548
I11125
sVhttpVersion
p2549
VHTTP/1.1
p2550
ssa(dp2551
Vcomment
p2552
g4
sVserverIPAddress
p2553
V216.58.216.206
p2554
sVpageref
p2555
VSingapore
p2556
sVstartedDateTime
p2557
V2017-04-16T08:53:00.506-05:00
p2558
sVcache
p2559
(dp2560
sVrequest
p2561
(dp2562
Vcomment
p2563
g4
sVcookies
p2564
(lp2565
sVurl
p2566
Vhttps://encrypted-tbn0.gstatic.com/images?q=tbn:ANd9GcSuM4J6dq-ni1wdRdMs1z4O81DWSjSsi-qa0bUia6thTtYEZQHa5S-gjNNr
p2567
sVqueryString
p2568
(lp2569
(dp2570
Vname
p2571
g774
sVvalue
p2572
Vtbn:ANd9GcSuM4J6dq-ni1wdRdMs1z4O81DWSjSsi-qa0bUia6thTtYEZQHa5S-gjNNr
p2573
sasVheaders
p2574
(lp2575
sVheadersSize
p2576
I427
sVbodySize
p2577
I0
sVmethod
p2578
VGET
p2579
sVhttpVersion
p2580
VHTTP/1.1
p2581
ssVtimings
p2582
(dp2583
Vcomment
p2584
g4
sVreceive
p2585
I5
sVsend
p2586
I0
sVssl
p2587
I-1
sVconnect
p2588
I-1
sVdns
p2589
I-1
sVwait
p2590
I18
sVblocked
p2591
I-1
ssVtime
p2592
I23
sVresponse
p2593
(dp2594
Vstatus
p2595
I200
sVcomment
p2596
g4
sVcookies
p2597
(lp2598
sVstatusText
p2599
VOK
p2600
sVcontent
p2601
(dp2602
VmimeType
p2603
Vimage/jpeg
p2604
sVcomment
p2605
g4
sVsize
p2606
I0
ssVheaders
p2607
(lp2608
sVheadersSize
p2609
I428
sVredirectURL
p2610
g4
sVbodySize
p2611
I9832
sVhttpVersion
p2612
VHTTP/1.1
p2613
ssa(dp2614
Vcomment
p2615
g4
sVserverIPAddress
p2616
V216.58.216.196
p2617
sVpageref
p2618
VSingapore
p2619
sVstartedDateTime
p2620
V2017-04-16T08:53:00.654-05:00
p2621
sVcache
p2622
(dp2623
sVrequest
p2624
(dp2625
Vcomment
p2626
g4
sVcookies
p2627
(lp2628
sVurl
p2629
Vhttps://www.google.com/async/log_amp_item_set?vet=10ahUKEwj9stzwj6nTAhXByoMKHc2SCykQooQBCAE..i&ei=NXfzWKy3MuXVjwTMnr7wAw&yv=2&async=num_items:1,_fmt:jspb
p2630
sVqueryString
p2631
(lp2632
(dp2633
Vname
p2634
Vvet
p2635
sVvalue
p2636
V10ahUKEwj9stzwj6nTAhXByoMKHc2SCykQooQBCAE..i
p2637
sa(dp2638
Vname
p2639
Vei
p2640
sVvalue
p2641
VNXfzWKy3MuXVjwTMnr7wAw
p2642
sa(dp2643
Vname
p2644
Vyv
p2645
sVvalue
p2646
g64
sa(dp2647
Vname
p2648
Vasync
p2649
sVvalue
p2650
Vnum_items:1,_fmt:jspb
p2651
sasVheaders
p2652
(lp2653
sVheadersSize
p2654
I670
sVbodySize
p2655
I0
sVmethod
p2656
VGET
p2657
sVhttpVersion
p2658
VHTTP/1.1
p2659
ssVtimings
p2660
(dp2661
Vcomment
p2662
g4
sVreceive
p2663
I0
sVsend
p2664
I0
sVssl
p2665
I-1
sVconnect
p2666
I-1
sVdns
p2667
I-1
sVwait
p2668
I38
sVblocked
p2669
I-1
ssVtime
p2670
I38
sVresponse
p2671
(dp2672
Vstatus
p2673
I200
sVcomment
p2674
g4
sVcookies
p2675
(lp2676
sVstatusText
p2677
VOK
p2678
sVcontent
p2679
(dp2680
VmimeType
p2681
Vapplication/json; charset=UTF-8
p2682
sVcomment
p2683
g4
sVsize
p2684
I0
ssVheaders
p2685
(lp2686
sVheadersSize
p2687
I417
sVredirectURL
p2688
g4
sVbodySize
p2689
I132
sVhttpVersion
p2690
VHTTP/1.1
p2691
ssa(dp2692
Vcomment
p2693
g4
sVserverIPAddress
p2694
V216.58.216.193
p2695
sVpageref
p2696
VSingapore
p2697
sVstartedDateTime
p2698
V2017-04-16T08:53:01.276-05:00
p2699
sVcache
p2700
(dp2701
sVrequest
p2702
(dp2703
Vcomment
p2704
g4
sVcookies
p2705
(lp2706
sVurl
p2707
Vhttps://m-ndtv-com.cdn.ampproject.org/v/m.ndtv.com/world-news/singapore-minister-applauds-sikh-community-for-its-vibrant-culture-on-vaisakhi-1681879?amp=1&akamai-rum=off&amp_js_v=9
p2708
sVqueryString
p2709
(lp2710
(dp2711
Vname
p2712
Vamp
p2713
sVvalue
p2714
g59
sa(dp2715
Vname
p2716
Vakamai-rum
p2717
sVvalue
p2718
Voff
p2719
sa(dp2720
Vname
p2721
Vamp_js_v
p2722
sVvalue
p2723
V9
p2724
sasVheaders
p2725
(lp2726
sVheadersSize
p2727
I585
sVbodySize
p2728
I0
sVmethod
p2729
VGET
p2730
sVhttpVersion
p2731
VHTTP/1.1
p2732
ssVtimings
p2733
(dp2734
Vcomment
p2735
g4
sVreceive
p2736
I6
sVsend
p2737
I0
sVssl
p2738
I565
sVconnect
p2739
I580
sVdns
p2740
I34
sVwait
p2741
I93
sVblocked
p2742
I0
ssVtime
p2743
I715
sVresponse
p2744
(dp2745
Vstatus
p2746
I200
sVcomment
p2747
g4
sVcookies
p2748
(lp2749
sVstatusText
p2750
VOK
p2751
sVcontent
p2752
(dp2753
VmimeType
p2754
Vtext/html
p2755
sVcomment
p2756
g4
sVsize
p2757
I0
ssVheaders
p2758
(lp2759
sVheadersSize
p2760
I861
sVredirectURL
p2761
g4
sVbodySize
p2762
I13692
sVhttpVersion
p2763
VHTTP/1.1
p2764
ssa(dp2765
Vcomment
p2766
g4
sVserverIPAddress
p2767
V216.58.216.193
p2768
sVpageref
p2769
VSingapore
p2770
sVstartedDateTime
p2771
V2017-04-16T08:53:01.396-05:00
p2772
sVcache
p2773
(dp2774
sVrequest
p2775
(dp2776
Vcomment
p2777
g4
sVcookies
p2778
(lp2779
sVurl
p2780
Vhttps://m-ndtv-com.cdn.ampproject.org/i/m.ndtv.com/static/images/bg_mainMenu.png
p2781
sVqueryString
p2782
(lp2783
sVheaders
p2784
(lp2785
sVheadersSize
p2786
I552
sVbodySize
p2787
I0
sVmethod
p2788
VGET
p2789
sVhttpVersion
p2790
VHTTP/1.1
p2791
ssVtimings
p2792
(dp2793
Vcomment
p2794
g4
sVreceive
p2795
I7
sVsend
p2796
I0
sVssl
p2797
I-1
sVconnect
p2798
I-1
sVdns
p2799
I-1
sVwait
p2800
I31
sVblocked
p2801
I-1
ssVtime
p2802
I38
sVresponse
p2803
(dp2804
Vstatus
p2805
I200
sVcomment
p2806
g4
sVcookies
p2807
(lp2808
sVstatusText
p2809
VOK
p2810
sVcontent
p2811
(dp2812
VmimeType
p2813
Vimage/png
p2814
sVcomment
p2815
g4
sVsize
p2816
I0
ssVheaders
p2817
(lp2818
sVheadersSize
p2819
I824
sVredirectURL
p2820
g4
sVbodySize
p2821
I15435
sVhttpVersion
p2822
VHTTP/1.1
p2823
ssa(dp2824
Vcomment
p2825
g4
sVserverIPAddress
p2826
V216.58.216.193
p2827
sVpageref
p2828
VSingapore
p2829
sVstartedDateTime
p2830
V2017-04-16T08:53:01.443-05:00
p2831
sVcache
p2832
(dp2833
sVrequest
p2834
(dp2835
Vcomment
p2836
g4
sVcookies
p2837
(lp2838
sVurl
p2839
Vhttps://m-ndtv-com.cdn.ampproject.org/i/m.ndtv.com/static/images/sprite-social.png?ver=2
p2840
sVqueryString
p2841
(lp2842
(dp2843
Vname
p2844
Vver
p2845
sVvalue
p2846
g64
sasVheaders
p2847
(lp2848
sVheadersSize
p2849
I560
sVbodySize
p2850
I0
sVmethod
p2851
VGET
p2852
sVhttpVersion
p2853
VHTTP/1.1
p2854
ssVtimings
p2855
(dp2856
Vcomment
p2857
g4
sVreceive
p2858
I1
sVsend
p2859
I0
sVssl
p2860
I28
sVconnect
p2861
I43
sVdns
p2862
I0
sVwait
p2863
I28
sVblocked
p2864
I0
ssVtime
p2865
I73
sVresponse
p2866
(dp2867
Vstatus
p2868
I200
sVcomment
p2869
g4
sVcookies
p2870
(lp2871
sVstatusText
p2872
VOK
p2873
sVcontent
p2874
(dp2875
VmimeType
p2876
Vimage/png
p2877
sVcomment
p2878
g4
sVsize
p2879
I0
ssVheaders
p2880
(lp2881
sVheadersSize
p2882
I823
sVredirectURL
p2883
g4
sVbodySize
p2884
I4936
sVhttpVersion
p2885
VHTTP/1.1
p2886
ssa(dp2887
Vcomment
p2888
g4
sVserverIPAddress
p2889
V216.58.216.193
p2890
sVpageref
p2891
VSingapore
p2892
sVstartedDateTime
p2893
V2017-04-16T08:53:01.443-05:00
p2894
sVcache
p2895
(dp2896
sVrequest
p2897
(dp2898
Vcomment
p2899
g4
sVcookies
p2900
(lp2901
sVurl
p2902
Vhttps://m-ndtv-com.cdn.ampproject.org/i/m.ndtv.com/static/images/sprite_english_new.png?ver=10
p2903
sVqueryString
p2904
(lp2905
(dp2906
Vname
p2907
Vver
p2908
sVvalue
p2909
V10
p2910
sasVheaders
p2911
(lp2912
sVheadersSize
p2913
I566
sVbodySize
p2914
I0
sVmethod
p2915
VGET
p2916
sVhttpVersion
p2917
VHTTP/1.1
p2918
ssVtimings
p2919
(dp2920
Vcomment
p2921
g4
sVreceive
p2922
I42
sVsend
p2923
I0
sVssl
p2924
I29
sVconnect
p2925
I43
sVdns
p2926
I0
sVwait
p2927
I30
sVblocked
p2928
I0
ssVtime
p2929
I117
sVresponse
p2930
(dp2931
Vstatus
p2932
I200
sVcomment
p2933
g4
sVcookies
p2934
(lp2935
sVstatusText
p2936
VOK
p2937
sVcontent
p2938
(dp2939
VmimeType
p2940
Vimage/png
p2941
sVcomment
p2942
g4
sVsize
p2943
I0
ssVheaders
p2944
(lp2945
sVheadersSize
p2946
I824
sVredirectURL
p2947
g4
sVbodySize
p2948
I40743
sVhttpVersion
p2949
VHTTP/1.1
p2950
ssa(dp2951
Vcomment
p2952
g4
sVserverIPAddress
p2953
V216.58.216.196
p2954
sVpageref
p2955
VSingapore
p2956
sVstartedDateTime
p2957
V2017-04-16T08:53:01.619-05:00
p2958
sVcache
p2959
(dp2960
sVrequest
p2961
(dp2962
Vcomment
p2963
g4
sVcookies
p2964
(lp2965
sVurl
p2966
Vhttps://www.google.com/gen_204?s=amp&atyp=csi&ei=NXfzWKy3MuXVjwTMnr7wAw&ampexp=011492014732688&action=Prerender&rt=msr.149,is.807,mbv.904,e_is.904
p2967
sVqueryString
p2968
(lp2969
(dp2970
Vname
p2971
g57
sVvalue
p2972
Vamp
p2973
sa(dp2974
Vname
p2975
Vatyp
p2976
sVvalue
p2977
Vcsi
p2978
sa(dp2979
Vname
p2980
Vei
p2981
sVvalue
p2982
VNXfzWKy3MuXVjwTMnr7wAw
p2983
sa(dp2984
Vname
p2985
Vampexp
p2986
sVvalue
p2987
V011492014732688
p2988
sa(dp2989
Vname
p2990
Vaction
p2991
sVvalue
p2992
VPrerender
p2993
sa(dp2994
Vname
p2995
Vrt
p2996
sVvalue
p2997
Vmsr.149,is.807,mbv.904,e_is.904
p2998
sasVheaders
p2999
(lp3000
sVheadersSize
p3001
I663
sVbodySize
p3002
I0
sVmethod
p3003
VGET
p3004
sVhttpVersion
p3005
VHTTP/1.1
p3006
ssVtimings
p3007
(dp3008
Vcomment
p3009
g4
sVreceive
p3010
I0
sVsend
p3011
I0
sVssl
p3012
I-1
sVconnect
p3013
I-1
sVdns
p3014
I-1
sVwait
p3015
I25
sVblocked
p3016
I-1
ssVtime
p3017
I25
sVresponse
p3018
(dp3019
Vstatus
p3020
I204
sVcomment
p3021
g4
sVcookies
p3022
(lp3023
sVstatusText
p3024
VNo Content
p3025
sVcontent
p3026
(dp3027
VmimeType
p3028
Vtext/html; charset=UTF-8
p3029
sVcomment
p3030
g4
sVsize
p3031
I0
ssVheaders
p3032
(lp3033
sVheadersSize
p3034
I248
sVredirectURL
p3035
g4
sVbodySize
p3036
I0
sVhttpVersion
p3037
VHTTP/1.1
p3038
ssa(dp3039
Vcomment
p3040
g4
sVserverIPAddress
p3041
V216.58.216.193
p3042
sVpageref
p3043
VSingapore
p3044
sVstartedDateTime
p3045
V2017-04-16T08:53:01.871-05:00
p3046
sVcache
p3047
(dp3048
sVrequest
p3049
(dp3050
Vcomment
p3051
g4
sVcookies
p3052
(lp3053
sVurl
p3054
Vhttps://i-ndtvimg-com.cdn.ampproject.org/ii/w1000/s/i.ndtvimg.com/i/2017-04/ng-chee-meng-foreign-minister-singapore_650x400_81492272825.jpg
p3055
sVqueryString
p3056
(lp3057
sVheaders
p3058
(lp3059
sVheadersSize
p3060
I611
sVbodySize
p3061
I0
sVmethod
p3062
VGET
p3063
sVhttpVersion
p3064
VHTTP/1.1
p3065
ssVtimings
p3066
(dp3067
Vcomment
p3068
g4
sVreceive
p3069
I9
sVsend
p3070
I0
sVssl
p3071
I270
sVconnect
p3072
I287
sVdns
p3073
I33
sVwait
p3074
I30
sVblocked
p3075
I0
ssVtime
p3076
I361
sVresponse
p3077
(dp3078
Vstatus
p3079
I200
sVcomment
p3080
g4
sVcookies
p3081
(lp3082
sVstatusText
p3083
VOK
p3084
sVcontent
p3085
(dp3086
VmimeType
p3087
Vimage/jpeg
p3088
sVcomment
p3089
g4
sVsize
p3090
I0
ssVheaders
p3091
(lp3092
sVheadersSize
p3093
I849
sVredirectURL
p3094
g4
sVbodySize
p3095
I17476
sVhttpVersion
p3096
VHTTP/1.1
p3097
ssa(dp3098
Vcomment
p3099
g4
sVserverIPAddress
p3100
V216.58.216.196
p3101
sVpageref
p3102
VSingapore
p3103
sVstartedDateTime
p3104
V2017-04-16T08:53:01.931-05:00
p3105
sVcache
p3106
(dp3107
sVrequest
p3108
(dp3109
Vcomment
p3110
g4
sVcookies
p3111
(lp3112
sVurl
p3113
Vhttps://www.google.com/gen_204?s=web&atyp=csi&ei=NXfzWKy3MuXVjwTMnr7wAw&imc=45&imn=45&imp=22&adh=&xjs=init.40.15.sb_mob.29.dvl.3.trex.2.c.1.mbsf.1&ima=11&rt=prt.4677,iml.5028,xjsls.4678,dcl.4713,xjses.4774,xjsee.4921,xjs.4921,qiml.5687,ol.6914,aft.5028,wsrt.1316,cst.0,dnst.0,rqst.2593,rspt.2595,rqstt.610,unt.4,cstt.4,dit.6015
p3114
sVqueryString
p3115
(lp3116
(dp3117
Vname
p3118
g57
sVvalue
p3119
Vweb
p3120
sa(dp3121
Vname
p3122
Vatyp
p3123
sVvalue
p3124
Vcsi
p3125
sa(dp3126
Vname
p3127
Vei
p3128
sVvalue
p3129
VNXfzWKy3MuXVjwTMnr7wAw
p3130
sa(dp3131
Vname
p3132
Vimc
p3133
sVvalue
p3134
V45
p3135
sa(dp3136
Vname
p3137
Vimn
p3138
sVvalue
p3139
V45
p3140
sa(dp3141
Vname
p3142
Vimp
p3143
sVvalue
p3144
V22
p3145
sa(dp3146
Vname
p3147
Vadh
p3148
sVvalue
p3149
g4
sa(dp3150
Vname
p3151
Vxjs
p3152
sVvalue
p3153
Vinit.40.15.sb_mob.29.dvl.3.trex.2.c.1.mbsf.1
p3154
sa(dp3155
Vname
p3156
Vima
p3157
sVvalue
p3158
V11
p3159
sa(dp3160
Vname
p3161
Vrt
p3162
sVvalue
p3163
Vprt.4677,iml.5028,xjsls.4678,dcl.4713,xjses.4774,xjsee.4921,xjs.4921,qiml.5687,ol.6914,aft.5028,wsrt.1316,cst.0,dnst.0,rqst.2593,rspt.2595,rqstt.610,unt.4,cstt.4,dit.6015
p3164
sasVheaders
p3165
(lp3166
sVheadersSize
p3167
I844
sVbodySize
p3168
I0
sVmethod
p3169
VGET
p3170
sVhttpVersion
p3171
VHTTP/1.1
p3172
ssVtimings
p3173
(dp3174
Vcomment
p3175
g4
sVreceive
p3176
I0
sVsend
p3177
I0
sVssl
p3178
I-1
sVconnect
p3179
I-1
sVdns
p3180
I-1
sVwait
p3181
I31
sVblocked
p3182
I-1
ssVtime
p3183
I31
sVresponse
p3184
(dp3185
Vstatus
p3186
I204
sVcomment
p3187
g4
sVcookies
p3188
(lp3189
sVstatusText
p3190
VNo Content
p3191
sVcontent
p3192
(dp3193
VmimeType
p3194
Vtext/html; charset=UTF-8
p3195
sVcomment
p3196
g4
sVsize
p3197
I0
ssVheaders
p3198
(lp3199
sVheadersSize
p3200
I248
sVredirectURL
p3201
g4
sVbodySize
p3202
I0
sVhttpVersion
p3203
VHTTP/1.1
p3204
ssa(dp3205
Vcomment
p3206
g4
sVserverIPAddress
p3207
V216.58.216.196
p3208
sVpageref
p3209
VSingapore
p3210
sVstartedDateTime
p3211
V2017-04-16T08:53:01.940-05:00
p3212
sVcache
p3213
(dp3214
sVrequest
p3215
(dp3216
Vcomment
p3217
g4
sVcookies
p3218
(lp3219
sVurl
p3220
Vhttps://www.google.com/gen_204?s=amp&atyp=csi&ei=NXfzWKy3MuXVjwTMnr7wAw&ampexp=011492014732688&action=Prerender&rt=pc.1
p3221
sVqueryString
p3222
(lp3223
(dp3224
Vname
p3225
g57
sVvalue
p3226
Vamp
p3227
sa(dp3228
Vname
p3229
Vatyp
p3230
sVvalue
p3231
Vcsi
p3232
sa(dp3233
Vname
p3234
Vei
p3235
sVvalue
p3236
VNXfzWKy3MuXVjwTMnr7wAw
p3237
sa(dp3238
Vname
p3239
Vampexp
p3240
sVvalue
p3241
V011492014732688
p3242
sa(dp3243
Vname
p3244
Vaction
p3245
sVvalue
p3246
VPrerender
p3247
sa(dp3248
Vname
p3249
Vrt
p3250
sVvalue
p3251
Vpc.1
p3252
sasVheaders
p3253
(lp3254
sVheadersSize
p3255
I636
sVbodySize
p3256
I0
sVmethod
p3257
VGET
p3258
sVhttpVersion
p3259
VHTTP/1.1
p3260
ssVtimings
p3261
(dp3262
Vcomment
p3263
g4
sVreceive
p3264
I0
sVsend
p3265
I0
sVssl
p3266
I-1
sVconnect
p3267
I-1
sVdns
p3268
I-1
sVwait
p3269
I30
sVblocked
p3270
I-1
ssVtime
p3271
I30
sVresponse
p3272
(dp3273
Vstatus
p3274
I204
sVcomment
p3275
g4
sVcookies
p3276
(lp3277
sVstatusText
p3278
VNo Content
p3279
sVcontent
p3280
(dp3281
VmimeType
p3282
Vtext/html; charset=UTF-8
p3283
sVcomment
p3284
g4
sVsize
p3285
I0
ssVheaders
p3286
(lp3287
sVheadersSize
p3288
I248
sVredirectURL
p3289
g4
sVbodySize
p3290
I0
sVhttpVersion
p3291
VHTTP/1.1
p3292
ssa(dp3293
Vcomment
p3294
g4
sVserverIPAddress
p3295
V216.58.216.196
p3296
sVpageref
p3297
VSingapore
p3298
sVstartedDateTime
p3299
V2017-04-16T08:53:02.442-05:00
p3300
sVcache
p3301
(dp3302
sVrequest
p3303
(dp3304
Vcomment
p3305
g4
sVcookies
p3306
(lp3307
sVurl
p3308
Vhttps://www.google.com/gen_204?atyp=i&ct=slh&cad=&ei=JHfzWInyGcyCjwTyt4eIDw&s=2&v=2&pv=0.28354793324712124&me=18:1492350772632,e,H&zx=1492350782441
p3309
sVqueryString
p3310
(lp3311
(dp3312
Vname
p3313
Vatyp
p3314
sVvalue
p3315
g30
sa(dp3316
Vname
p3317
Vct
p3318
sVvalue
p3319
Vslh
p3320
sa(dp3321
Vname
p3322
Vcad
p3323
sVvalue
p3324
g4
sa(dp3325
Vname
p3326
Vei
p3327
sVvalue
p3328
VJHfzWInyGcyCjwTyt4eIDw
p3329
sa(dp3330
Vname
p3331
g57
sVvalue
p3332
g64
sa(dp3333
Vname
p3334
g62
sVvalue
p3335
g64
sa(dp3336
Vname
p3337
Vpv
p3338
sVvalue
p3339
V0.28354793324712124
p3340
sa(dp3341
Vname
p3342
Vme
p3343
sVvalue
p3344
V18:1492350772632,e,H
p3345
sa(dp3346
Vname
p3347
Vzx
p3348
sVvalue
p3349
V1492350782441
p3350
sasVheaders
p3351
(lp3352
sVheadersSize
p3353
I664
sVbodySize
p3354
I0
sVmethod
p3355
VGET
p3356
sVhttpVersion
p3357
VHTTP/1.1
p3358
ssVtimings
p3359
(dp3360
Vcomment
p3361
g4
sVreceive
p3362
I0
sVsend
p3363
I0
sVssl
p3364
I-1
sVconnect
p3365
I-1
sVdns
p3366
I-1
sVwait
p3367
I32
sVblocked
p3368
I-1
ssVtime
p3369
I32
sVresponse
p3370
(dp3371
Vstatus
p3372
I204
sVcomment
p3373
g4
sVcookies
p3374
(lp3375
sVstatusText
p3376
VNo Content
p3377
sVcontent
p3378
(dp3379
VmimeType
p3380
Vtext/html; charset=UTF-8
p3381
sVcomment
p3382
g4
sVsize
p3383
I0
ssVheaders
p3384
(lp3385
sVheadersSize
p3386
I248
sVredirectURL
p3387
g4
sVbodySize
p3388
I0
sVhttpVersion
p3389
VHTTP/1.1
p3390
ssa(dp3391
Vcomment
p3392
g4
sVserverIPAddress
p3393
V216.58.216.196
p3394
sVpageref
p3395
VSingapore
p3396
sVstartedDateTime
p3397
V2017-04-16T08:53:02.445-05:00
p3398
sVcache
p3399
(dp3400
sVrequest
p3401
(dp3402
Vcomment
p3403
g4
sVcookies
p3404
(lp3405
sVurl
p3406
Vhttps://www.google.com/gen_204?s=amp&atyp=csi&ei=NXfzWKy3MuXVjwTMnr7wAw&ampexp=011492014732688&action=Prerender&rt=ol.1275
p3407
sVqueryString
p3408
(lp3409
(dp3410
Vname
p3411
g57
sVvalue
p3412
Vamp
p3413
sa(dp3414
Vname
p3415
Vatyp
p3416
sVvalue
p3417
Vcsi
p3418
sa(dp3419
Vname
p3420
Vei
p3421
sVvalue
p3422
VNXfzWKy3MuXVjwTMnr7wAw
p3423
sa(dp3424
Vname
p3425
Vampexp
p3426
sVvalue
p3427
V011492014732688
p3428
sa(dp3429
Vname
p3430
Vaction
p3431
sVvalue
p3432
VPrerender
p3433
sa(dp3434
Vname
p3435
Vrt
p3436
sVvalue
p3437
Vol.1275
p3438
sasVheaders
p3439
(lp3440
sVheadersSize
p3441
I639
sVbodySize
p3442
I0
sVmethod
p3443
VGET
p3444
sVhttpVersion
p3445
VHTTP/1.1
p3446
ssVtimings
p3447
(dp3448
Vcomment
p3449
g4
sVreceive
p3450
I0
sVsend
p3451
I0
sVssl
p3452
I-1
sVconnect
p3453
I-1
sVdns
p3454
I-1
sVwait
p3455
I40
sVblocked
p3456
I-1
ssVtime
p3457
I40
sVresponse
p3458
(dp3459
Vstatus
p3460
I204
sVcomment
p3461
g4
sVcookies
p3462
(lp3463
sVstatusText
p3464
VNo Content
p3465
sVcontent
p3466
(dp3467
VmimeType
p3468
Vtext/html; charset=UTF-8
p3469
sVcomment
p3470
g4
sVsize
p3471
I0
ssVheaders
p3472
(lp3473
sVheadersSize
p3474
I248
sVredirectURL
p3475
g4
sVbodySize
p3476
I0
sVhttpVersion
p3477
VHTTP/1.1
p3478
ssasVversion
p3479
V1.2
p3480
sVpages
p3481
(lp3482
(dp3483
VpageTimings
p3484
(dp3485
Vcomment
p3486
g4
ssVcomment
p3487
g4
sVtitle
p3488
VSingapore
p3489
sVid
p3490
VSingapore
p3491
sVstartedDateTime
p3492
V2017-04-16T08:52:51.958-05:00
p3493
sasVcreator
p3494
(dp3495
Vcomment
p3496
g4
sVversion
p3497
V2.1.4
p3498
sVname
p3499
VBrowserMob Proxy
p3500
sss.