(dp0
Vlog
p1
(dp2
Vcomment
p3
V
p4
sVentries
p5
(lp6
(dp7
Vcomment
p8
g4
sVserverIPAddress
p9
V216.58.216.196
p10
sVpageref
p11
VDuke Blue Devils
p12
sVstartedDateTime
p13
V2017-04-16T08:35:34.762-05:00
p14
sVcache
p15
(dp16
sVrequest
p17
(dp18
Vcomment
p19
g4
sVcookies
p20
(lp21
sVurl
p22
Vhttps://www.google.com/gen_204?atyp=i&ct=slh&cad=&ei=F3PzWJbUI6nqjwTpm5HwDA&m=V&t=C&s=1&v=2&pv=0.2045523543149862&me=1:1492349722630,x:1,V,0,0,1280,944:0,N,1,F3PzWJbUI6nqjwTpm5HwDA:0,R,1,24,0,155,1197,700:0,R,1,25,0,155,1197,698:0,R,1,79,8,863,1264,309:0,R,1,80,8,907,1264,265:0,R,1,81,0,907,1280,285:4,B,4667:12125,e,U&zx=1492349734761
p23
sVqueryString
p24
(lp25
(dp26
Vname
p27
Vatyp
p28
sVvalue
p29
Vi
p30
sa(dp31
Vname
p32
Vct
p33
sVvalue
p34
Vslh
p35
sa(dp36
Vname
p37
Vcad
p38
sVvalue
p39
g4
sa(dp40
Vname
p41
Vei
p42
sVvalue
p43
VF3PzWJbUI6nqjwTpm5HwDA
p44
sa(dp45
Vname
p46
Vm
p47
sVvalue
p48
VV
p49
sa(dp50
Vname
p51
Vt
p52
sVvalue
p53
VC
p54
sa(dp55
Vname
p56
Vs
p57
sVvalue
p58
V1
p59
sa(dp60
Vname
p61
Vv
p62
sVvalue
p63
V2
p64
sa(dp65
Vname
p66
Vpv
p67
sVvalue
p68
V0.2045523543149862
p69
sa(dp70
Vname
p71
Vme
p72
sVvalue
p73
V1:1492349722630,x:1,V,0,0,1280,944:0,N,1,F3PzWJbUI6nqjwTpm5HwDA:0,R,1,24,0,155,1197,700:0,R,1,25,0,155,1197,698:0,R,1,79,8,863,1264,309:0,R,1,80,8,907,1264,265:0,R,1,81,0,907,1280,285:4,B,4667:12125,e,U
p74
sa(dp75
Vname
p76
Vzx
p77
sVvalue
p78
V1492349734761
p79
sasVheaders
p80
(lp81
sVheadersSize
p82
I853
sVbodySize
p83
I0
sVmethod
p84
VGET
p85
sVhttpVersion
p86
VHTTP/1.1
p87
ssVtimings
p88
(dp89
Vcomment
p90
g4
sVreceive
p91
I0
sVsend
p92
I0
sVssl
p93
I-1
sVconnect
p94
I-1
sVdns
p95
I-1
sVwait
p96
I0
sVblocked
p97
I-1
ssVtime
p98
I0
sVresponse
p99
(dp100
Vstatus
p101
I0
sVcomment
p102
g4
sVcookies
p103
(lp104
sV_error
p105
VNo response received
p106
sVstatusText
p107
g4
sVcontent
p108
(dp109
VmimeType
p110
g4
sVcomment
p111
g4
sVsize
p112
I0
ssVheaders
p113
(lp114
sVheadersSize
p115
I-1
sVredirectURL
p116
g4
sVbodySize
p117
I-1
sVhttpVersion
p118
Vunknown
p119
ssa(dp120
Vcomment
p121
g4
sVserverIPAddress
p122
V216.58.216.196
p123
sVpageref
p124
VDuke Blue Devils
p125
sVstartedDateTime
p126
V2017-04-16T08:35:34.768-05:00
p127
sVcache
p128
(dp129
sVrequest
p130
(dp131
Vcomment
p132
g4
sVcookies
p133
(lp134
sVurl
p135
Vhttp://www.google.com/
p136
sVqueryString
p137
(lp138
sVheaders
p139
(lp140
sVheadersSize
p141
I613
sVbodySize
p142
I0
sVmethod
p143
VGET
p144
sVhttpVersion
p145
VHTTP/1.1
p146
ssVtimings
p147
(dp148
Vcomment
p149
g4
sVreceive
p150
I0
sVsend
p151
I0
sVssl
p152
I-1
sVconnect
p153
I-1
sVdns
p154
I-1
sVwait
p155
I53
sVblocked
p156
I-1
ssVtime
p157
I53
sVresponse
p158
(dp159
Vstatus
p160
I302
sVcomment
p161
g4
sVcookies
p162
(lp163
sVstatusText
p164
VFound
p165
sVcontent
p166
(dp167
VmimeType
p168
Vtext/html; charset=UTF-8
p169
sVcomment
p170
g4
sVsize
p171
I0
ssVheaders
p172
(lp173
sVheadersSize
p174
I609
sVredirectURL
p175
Vhttps://www.google.com/?gws_rd=ssl
p176
sVbodySize
p177
I231
sVhttpVersion
p178
VHTTP/1.1
p179
ssa(dp180
Vcomment
p181
g4
sVserverIPAddress
p182
V216.58.216.196
p183
sVpageref
p184
VDuke Blue Devils
p185
sVstartedDateTime
p186
V2017-04-16T08:35:34.826-05:00
p187
sVcache
p188
(dp189
sVrequest
p190
(dp191
Vcomment
p192
g4
sVcookies
p193
(lp194
sVurl
p195
Vhttps://www.google.com/?gws_rd=ssl
p196
sVqueryString
p197
(lp198
(dp199
Vname
p200
Vgws_rd
p201
sVvalue
p202
Vssl
p203
sasVheaders
p204
(lp205
sVheadersSize
p206
I607
sVbodySize
p207
I0
sVmethod
p208
VGET
p209
sVhttpVersion
p210
VHTTP/1.1
p211
ssVtimings
p212
(dp213
Vcomment
p214
g4
sVreceive
p215
I56
sVsend
p216
I0
sVssl
p217
I-1
sVconnect
p218
I-1
sVdns
p219
I-1
sVwait
p220
I119
sVblocked
p221
I-1
ssVtime
p222
I176
sVresponse
p223
(dp224
Vstatus
p225
I200
sVcomment
p226
g4
sVcookies
p227
(lp228
sVstatusText
p229
VOK
p230
sVcontent
p231
(dp232
VmimeType
p233
Vtext/html; charset=UTF-8
p234
sVcomment
p235
g4
sVsize
p236
I0
ssVheaders
p237
(lp238
sVheadersSize
p239
I721
sVredirectURL
p240
g4
sVbodySize
p241
I34291
sVhttpVersion
p242
VHTTP/1.1
p243
ssa(dp244
Vcomment
p245
g4
sVserverIPAddress
p246
V216.58.216.196
p247
sVpageref
p248
VDuke Blue Devils
p249
sVstartedDateTime
p250
V2017-04-16T08:35:35.416-05:00
p251
sVcache
p252
(dp253
sVrequest
p254
(dp255
Vcomment
p256
g4
sVcookies
p257
(lp258
sVurl
p259
Vhttps://www.google.com/gen_204?s=mobilewebhp&atyp=csi&ei=JXPzWL39M6GijwTJloS4Ag&imc=1&imn=1&imp=0&adh=&xjs=init.41.12.sb_mob.30.dvl.4.jsa.2.c.1.mbsf.1&ima=1&rt=xjsls.50,prt.50,iml.50,dcl.73,xjses.155,xjsee.281,xjs.282,ol.432,aft.50,wsrt.219,cst.0,dnst.0,rqst.178,rspt.58,rqstt.65,unt.63,cstt.63,dit.286
p260
sVqueryString
p261
(lp262
(dp263
Vname
p264
g57
sVvalue
p265
Vmobilewebhp
p266
sa(dp267
Vname
p268
Vatyp
p269
sVvalue
p270
Vcsi
p271
sa(dp272
Vname
p273
Vei
p274
sVvalue
p275
VJXPzWL39M6GijwTJloS4Ag
p276
sa(dp277
Vname
p278
Vimc
p279
sVvalue
p280
g59
sa(dp281
Vname
p282
Vimn
p283
sVvalue
p284
g59
sa(dp285
Vname
p286
Vimp
p287
sVvalue
p288
V0
p289
sa(dp290
Vname
p291
Vadh
p292
sVvalue
p293
g4
sa(dp294
Vname
p295
Vxjs
p296
sVvalue
p297
Vinit.41.12.sb_mob.30.dvl.4.jsa.2.c.1.mbsf.1
p298
sa(dp299
Vname
p300
Vima
p301
sVvalue
p302
g59
sa(dp303
Vname
p304
Vrt
p305
sVvalue
p306
Vxjsls.50,prt.50,iml.50,dcl.73,xjses.155,xjsee.281,xjs.282,ol.432,aft.50,wsrt.219,cst.0,dnst.0,rqst.178,rspt.58,rqstt.65,unt.63,cstt.63,dit.286
p307
sasVheaders
p308
(lp309
sVheadersSize
p310
I830
sVbodySize
p311
I0
sVmethod
p312
VGET
p313
sVhttpVersion
p314
VHTTP/1.1
p315
ssVtimings
p316
(dp317
Vcomment
p318
g4
sVreceive
p319
I0
sVsend
p320
I0
sVssl
p321
I-1
sVconnect
p322
I-1
sVdns
p323
I-1
sVwait
p324
I26
sVblocked
p325
I-1
ssVtime
p326
I27
sVresponse
p327
(dp328
Vstatus
p329
I204
sVcomment
p330
g4
sVcookies
p331
(lp332
sVstatusText
p333
VNo Content
p334
sVcontent
p335
(dp336
VmimeType
p337
Vtext/html; charset=UTF-8
p338
sVcomment
p339
g4
sVsize
p340
I0
ssVheaders
p341
(lp342
sVheadersSize
p343
I248
sVredirectURL
p344
g4
sVbodySize
p345
I0
sVhttpVersion
p346
VHTTP/1.1
p347
ssa(dp348
Vcomment
p349
g4
sVserverIPAddress
p350
V216.58.216.196
p351
sVpageref
p352
VDuke Blue Devils
p353
sVstartedDateTime
p354
V2017-04-16T08:35:35.555-05:00
p355
sVcache
p356
(dp357
sVrequest
p358
(dp359
Vcomment
p360
g4
sVcookies
p361
(lp362
sVurl
p363
Vhttps://www.google.com/complete/search?client=mobile-gws-hp&hl=en&gs_rn=64&gs_ri=mobile-gws-hp&sla=1&pfq=dallas%20chaparrals&gm=602&cp=0&gs_id=1&xhr=t&q=D&tch=1&ech=1&psi=JXPzWL39M6GijwTJloS4Ag.1492349735220.1
p364
sVqueryString
p365
(lp366
(dp367
Vname
p368
Vclient
p369
sVvalue
p370
Vmobile-gws-hp
p371
sa(dp372
Vname
p373
Vhl
p374
sVvalue
p375
Ven
p376
sa(dp377
Vname
p378
Vgs_rn
p379
sVvalue
p380
V64
p381
sa(dp382
Vname
p383
Vgs_ri
p384
sVvalue
p385
Vmobile-gws-hp
p386
sa(dp387
Vname
p388
Vsla
p389
sVvalue
p390
g59
sa(dp391
Vname
p392
Vpfq
p393
sVvalue
p394
Vdallas chaparrals
p395
sa(dp396
Vname
p397
Vgm
p398
sVvalue
p399
V602
p400
sa(dp401
Vname
p402
Vcp
p403
sVvalue
p404
g289
sa(dp405
Vname
p406
Vgs_id
p407
sVvalue
p408
g59
sa(dp409
Vname
p410
Vxhr
p411
sVvalue
p412
g52
sa(dp413
Vname
p414
Vq
p415
sVvalue
p416
VD
p417
sa(dp418
Vname
p419
Vtch
p420
sVvalue
p421
g59
sa(dp422
Vname
p423
Vech
p424
sVvalue
p425
g59
sa(dp426
Vname
p427
Vpsi
p428
sVvalue
p429
VJXPzWL39M6GijwTJloS4Ag.1492349735220.1
p430
sasVheaders
p431
(lp432
sVheadersSize
p433
I737
sVbodySize
p434
I0
sVmethod
p435
VGET
p436
sVhttpVersion
p437
VHTTP/1.1
p438
ssVtimings
p439
(dp440
Vcomment
p441
g4
sVreceive
p442
I0
sVsend
p443
I0
sVssl
p444
I-1
sVconnect
p445
I-1
sVdns
p446
I-1
sVwait
p447
I0
sVblocked
p448
I-1
ssVtime
p449
I0
sVresponse
p450
(dp451
Vstatus
p452
I0
sVcomment
p453
g4
sVcookies
p454
(lp455
sV_error
p456
VNo response received
p457
sVstatusText
p458
g4
sVcontent
p459
(dp460
VmimeType
p461
g4
sVcomment
p462
g4
sVsize
p463
I0
ssVheaders
p464
(lp465
sVheadersSize
p466
I-1
sVredirectURL
p467
g4
sVbodySize
p468
I-1
sVhttpVersion
p469
Vunknown
p470
ssa(dp471
Vcomment
p472
g4
sVserverIPAddress
p473
V216.58.216.196
p474
sVpageref
p475
VDuke Blue Devils
p476
sVstartedDateTime
p477
V2017-04-16T08:35:35.664-05:00
p478
sVcache
p479
(dp480
sVrequest
p481
(dp482
Vcomment
p483
g4
sVcookies
p484
(lp485
sVurl
p486
Vhttps://www.google.com/search?site=&source=hp&ei=JXPzWL39M6GijwTJloS4Ag&q=Duke+Blue+Devils&oq=Duke+Blue+Devils&gs_l=mobile-gws-hp.3...301.350.0.406.16.1.0.0.0.0.0.0..0.0....0...1c.1.64.mobile-gws-hp..16.0.0.jqiHQBRJi-I
p487
sVqueryString
p488
(lp489
(dp490
Vname
p491
Vsite
p492
sVvalue
p493
g4
sa(dp494
Vname
p495
Vsource
p496
sVvalue
p497
Vhp
p498
sa(dp499
Vname
p500
Vei
p501
sVvalue
p502
VJXPzWL39M6GijwTJloS4Ag
p503
sa(dp504
Vname
p505
g415
sVvalue
p506
VDuke Blue Devils
p507
sa(dp508
Vname
p509
Voq
p510
sVvalue
p511
VDuke Blue Devils
p512
sa(dp513
Vname
p514
Vgs_l
p515
sVvalue
p516
Vmobile-gws-hp.3...301.350.0.406.16.1.0.0.0.0.0.0..0.0....0...1c.1.64.mobile-gws-hp..16.0.0.jqiHQBRJi-I
p517
sasVheaders
p518
(lp519
sVheadersSize
p520
I836
sVbodySize
p521
I0
sVmethod
p522
VGET
p523
sVhttpVersion
p524
VHTTP/1.1
p525
ssVtimings
p526
(dp527
Vcomment
p528
g4
sVreceive
p529
I1170
sVsend
p530
I0
sVssl
p531
I-1
sVconnect
p532
I-1
sVdns
p533
I-1
sVwait
p534
I91
sVblocked
p535
I-1
ssVtime
p536
I1262
sVresponse
p537
(dp538
Vstatus
p539
I200
sVcomment
p540
g4
sVcookies
p541
(lp542
sVstatusText
p543
VOK
p544
sVcontent
p545
(dp546
VmimeType
p547
Vtext/html; charset=UTF-8
p548
sVcomment
p549
g4
sVsize
p550
I0
ssVheaders
p551
(lp552
sVheadersSize
p553
I363
sVredirectURL
p554
g4
sVbodySize
p555
I100449
sVhttpVersion
p556
VHTTP/1.1
p557
ssa(dp558
Vcomment
p559
g4
sVserverIPAddress
p560
V216.58.216.196
p561
sVpageref
p562
VDuke Blue Devils
p563
sVstartedDateTime
p564
V2017-04-16T08:35:37.577-05:00
p565
sVcache
p566
(dp567
sVrequest
p568
(dp569
Vcomment
p570
g4
sVcookies
p571
(lp572
sVurl
p573
Vhttps://www.google.com/xjs/_/js/k=xjs.qs.en_US.pCBXVCvTH3s.O/m=syl,syj,syn,em3,em8,em6,em7,sym,aa,abd,sy2g,sy2k,sy29,sy2j,sy2d,sy2a,sy2c,sy2f,sy2l,sy2m,sy2n,emd,async,sybn,sybi,sybo,sy1f,sy45,sy46,sy9w,sybk,sybj,sybp,sy1g,sy30,sy47,sybm,sybl,sybq,sy1h,sybh,dvl,syep,foot,ipv6,sy32,emj,shm,sy5g,sy5i,sy5k,sykh,tl,sy2x,sy2y,sy2t,sy38,em12,vs,sy5j,sy5h,sy6u,sy66,sy67,sy7d,sy7j,sy4u,sy69,sy89,sy7e,sykk,sykl,tnv,bct,sy1y,sy23,sy2u,sy22,sy6i,sy34,sy31,sy6j,sy25,sy6l,sy6k,sy6h,emb,em9,ema,sy6m,qkx,sy4d,sy4f,sy4c,sy4e,sy24,sy4b,sy6w,shrb,sy4g,syd7,dgm,syf5,syf6,syf8,sygb,syg9,kptm,sy99,syf4,sy26,syfc,syfn,syf7,syff,sy1i,sy68,sy8d,sy9b,syfl,syfr,syfq,syfg,sy1j,sy4q,sy5o,sy5r,sy6n,sy6p,sy8h,syc7,syc8,syfb,syfj,syfs,syft,syg3,syg5,syg7,emn,emo,syg4,syg6,ivg,sy9m,syac,sy9n,syhz,syl6,ssc,iuci,img,sy41,tcc,sy6y,sycu,d3l,syj7,syj8,syj2,syjc,syj6,syj3,syjg,syjh,syje,syjd,syjk,syji,syjf,syj0,emr,ems,emt,emu,emv,emx,emy,emz,em10,em11,udlg,sy5z,atn,sya3,sy4h,sya2,sy4i,sya1,sya4,ampfp/am=gCP4LtMEBXQA2RUaq_oFBISzAFA/rt=j/d=0/t=zcms/rs=ACT90oFwm4NZCwIcuuiqmthdlECdBzkhRA
p574
sVqueryString
p575
(lp576
sVheaders
p577
(lp578
sVheadersSize
p579
I1579
sVbodySize
p580
I0
sVmethod
p581
VGET
p582
sVhttpVersion
p583
VHTTP/1.1
p584
ssVtimings
p585
(dp586
Vcomment
p587
g4
sVreceive
p588
I52
sVsend
p589
I2
sVssl
p590
I-1
sVconnect
p591
I-1
sVdns
p592
I-1
sVwait
p593
I17
sVblocked
p594
I-1
ssVtime
p595
I73
sVresponse
p596
(dp597
Vstatus
p598
I200
sVcomment
p599
g4
sVcookies
p600
(lp601
sVstatusText
p602
VOK
p603
sVcontent
p604
(dp605
VmimeType
p606
Vtext/javascript; charset=UTF-8
p607
sVcomment
p608
g4
sVsize
p609
I0
ssVheaders
p610
(lp611
sVheadersSize
p612
I465
sVredirectURL
p613
g4
sVbodySize
p614
I112179
sVhttpVersion
p615
VHTTP/1.1
p616
ssa(dp617
Vcomment
p618
g4
sVserverIPAddress
p619
V216.58.216.196
p620
sVpageref
p621
VDuke Blue Devils
p622
sVstartedDateTime
p623
V2017-04-16T08:35:37.971-05:00
p624
sVcache
p625
(dp626
sVrequest
p627
(dp628
Vcomment
p629
g4
sVcookies
p630
(lp631
sVurl
p632
Vhttps://www.google.com/async/irc?vet=10ahUKEwjXqsL-i6nTAhXh1IMKHbhTBuUQo0EIvQE..i&ved=0ahUKEwjXqsL-i6nTAhXh1IMKHbhTBuUQo0EIvQE&ei=JnPzWNf_J-GpjwS4p5moDg&yv=2&async=iu:1,ved:0ahUKEwjXqsL-i6nTAhXh1IMKHbhTBuUQo0EIvQE,_id:irc_async,_pms:qs
p633
sVqueryString
p634
(lp635
(dp636
Vname
p637
Vvet
p638
sVvalue
p639
V10ahUKEwjXqsL-i6nTAhXh1IMKHbhTBuUQo0EIvQE..i
p640
sa(dp641
Vname
p642
Vved
p643
sVvalue
p644
V0ahUKEwjXqsL-i6nTAhXh1IMKHbhTBuUQo0EIvQE
p645
sa(dp646
Vname
p647
Vei
p648
sVvalue
p649
VJnPzWNf_J-GpjwS4p5moDg
p650
sa(dp651
Vname
p652
Vyv
p653
sVvalue
p654
g64
sa(dp655
Vname
p656
Vasync
p657
sVvalue
p658
Viu:1,ved:0ahUKEwjXqsL-i6nTAhXh1IMKHbhTBuUQo0EIvQE,_id:irc_async,_pms:qs
p659
sasVheaders
p660
(lp661
sVheadersSize
p662
I752
sVbodySize
p663
I0
sVmethod
p664
VGET
p665
sVhttpVersion
p666
VHTTP/1.1
p667
ssVtimings
p668
(dp669
Vcomment
p670
g4
sVreceive
p671
I2
sVsend
p672
I0
sVssl
p673
I-1
sVconnect
p674
I-1
sVdns
p675
I-1
sVwait
p676
I37
sVblocked
p677
I-1
ssVtime
p678
I40
sVresponse
p679
(dp680
Vstatus
p681
I200
sVcomment
p682
g4
sVcookies
p683
(lp684
sVstatusText
p685
VOK
p686
sVcontent
p687
(dp688
VmimeType
p689
Vtext/html; charset=UTF-8
p690
sVcomment
p691
g4
sVsize
p692
I0
ssVheaders
p693
(lp694
sVheadersSize
p695
I383
sVredirectURL
p696
g4
sVbodySize
p697
I7794
sVhttpVersion
p698
VHTTP/1.1
p699
ssa(dp700
Vcomment
p701
g4
sVserverIPAddress
p702
V216.58.216.196
p703
sVpageref
p704
VDuke Blue Devils
p705
sVstartedDateTime
p706
V2017-04-16T08:35:38.001-05:00
p707
sVcache
p708
(dp709
sVrequest
p710
(dp711
Vcomment
p712
g4
sVcookies
p713
(lp714
sVurl
p715
Vhttps://www.google.com/gen_204?atyp=i&ct=&cad=&vet=10ahUKEwjXqsL-i6nTAhXh1IMKHbhTBuUQ5W0IPSgC..s&ei=JnPzWNf_J-GpjwS4p5moDg&zx=1492349738000
p716
sVqueryString
p717
(lp718
(dp719
Vname
p720
Vatyp
p721
sVvalue
p722
g30
sa(dp723
Vname
p724
Vct
p725
sVvalue
p726
g4
sa(dp727
Vname
p728
Vcad
p729
sVvalue
p730
g4
sa(dp731
Vname
p732
Vvet
p733
sVvalue
p734
V10ahUKEwjXqsL-i6nTAhXh1IMKHbhTBuUQ5W0IPSgC..s
p735
sa(dp736
Vname
p737
Vei
p738
sVvalue
p739
VJnPzWNf_J-GpjwS4p5moDg
p740
sa(dp741
Vname
p742
Vzx
p743
sVvalue
p744
V1492349738000
p745
sasVheaders
p746
(lp747
sVheadersSize
p748
I656
sVbodySize
p749
I0
sVmethod
p750
VGET
p751
sVhttpVersion
p752
VHTTP/1.1
p753
ssVtimings
p754
(dp755
Vcomment
p756
g4
sVreceive
p757
I0
sVsend
p758
I0
sVssl
p759
I-1
sVconnect
p760
I-1
sVdns
p761
I-1
sVwait
p762
I31
sVblocked
p763
I-1
ssVtime
p764
I31
sVresponse
p765
(dp766
Vstatus
p767
I204
sVcomment
p768
g4
sVcookies
p769
(lp770
sVstatusText
p771
VNo Content
p772
sVcontent
p773
(dp774
VmimeType
p775
Vtext/html; charset=UTF-8
p776
sVcomment
p777
g4
sVsize
p778
I0
ssVheaders
p779
(lp780
sVheadersSize
p781
I248
sVredirectURL
p782
g4
sVbodySize
p783
I0
sVhttpVersion
p784
VHTTP/1.1
p785
ssa(dp786
Vcomment
p787
g4
sVserverIPAddress
p788
V216.58.216.196
p789
sVpageref
p790
VDuke Blue Devils
p791
sVstartedDateTime
p792
V2017-04-16T08:35:38.012-05:00
p793
sVcache
p794
(dp795
sVrequest
p796
(dp797
Vcomment
p798
g4
sVcookies
p799
(lp800
sVurl
p801
Vhttps://www.google.com/gen_204?atyp=i&ct=&cad=&vet=10ahUKEwjXqsL-i6nTAhXh1IMKHbhTBuUQ5W0IRigF..s&ei=JnPzWNf_J-GpjwS4p5moDg&zx=1492349738010
p802
sVqueryString
p803
(lp804
(dp805
Vname
p806
Vatyp
p807
sVvalue
p808
g30
sa(dp809
Vname
p810
Vct
p811
sVvalue
p812
g4
sa(dp813
Vname
p814
Vcad
p815
sVvalue
p816
g4
sa(dp817
Vname
p818
Vvet
p819
sVvalue
p820
V10ahUKEwjXqsL-i6nTAhXh1IMKHbhTBuUQ5W0IRigF..s
p821
sa(dp822
Vname
p823
Vei
p824
sVvalue
p825
VJnPzWNf_J-GpjwS4p5moDg
p826
sa(dp827
Vname
p828
Vzx
p829
sVvalue
p830
V1492349738010
p831
sasVheaders
p832
(lp833
sVheadersSize
p834
I656
sVbodySize
p835
I0
sVmethod
p836
VGET
p837
sVhttpVersion
p838
VHTTP/1.1
p839
ssVtimings
p840
(dp841
Vcomment
p842
g4
sVreceive
p843
I0
sVsend
p844
I0
sVssl
p845
I-1
sVconnect
p846
I-1
sVdns
p847
I-1
sVwait
p848
I47
sVblocked
p849
I-1
ssVtime
p850
I47
sVresponse
p851
(dp852
Vstatus
p853
I204
sVcomment
p854
g4
sVcookies
p855
(lp856
sVstatusText
p857
VNo Content
p858
sVcontent
p859
(dp860
VmimeType
p861
Vtext/html; charset=UTF-8
p862
sVcomment
p863
g4
sVsize
p864
I0
ssVheaders
p865
(lp866
sVheadersSize
p867
I248
sVredirectURL
p868
g4
sVbodySize
p869
I0
sVhttpVersion
p870
VHTTP/1.1
p871
ssa(dp872
Vcomment
p873
g4
sVserverIPAddress
p874
V216.58.216.196
p875
sVpageref
p876
VDuke Blue Devils
p877
sVstartedDateTime
p878
V2017-04-16T08:35:38.041-05:00
p879
sVcache
p880
(dp881
sVrequest
p882
(dp883
Vcomment
p884
g4
sVcookies
p885
(lp886
sVurl
p887
Vhttps://www.google.com/gen_204?atyp=i&ct=&cad=&vet=10ahUKEwjXqsL-i6nTAhXh1IMKHbhTBuUQ5W0IQCgD..s&ei=JnPzWNf_J-GpjwS4p5moDg&zx=1492349738004
p888
sVqueryString
p889
(lp890
(dp891
Vname
p892
Vatyp
p893
sVvalue
p894
g30
sa(dp895
Vname
p896
Vct
p897
sVvalue
p898
g4
sa(dp899
Vname
p900
Vcad
p901
sVvalue
p902
g4
sa(dp903
Vname
p904
Vvet
p905
sVvalue
p906
V10ahUKEwjXqsL-i6nTAhXh1IMKHbhTBuUQ5W0IQCgD..s
p907
sa(dp908
Vname
p909
Vei
p910
sVvalue
p911
VJnPzWNf_J-GpjwS4p5moDg
p912
sa(dp913
Vname
p914
Vzx
p915
sVvalue
p916
V1492349738004
p917
sasVheaders
p918
(lp919
sVheadersSize
p920
I656
sVbodySize
p921
I0
sVmethod
p922
VGET
p923
sVhttpVersion
p924
VHTTP/1.1
p925
ssVtimings
p926
(dp927
Vcomment
p928
g4
sVreceive
p929
I0
sVsend
p930
I0
sVssl
p931
I19
sVconnect
p932
I32
sVdns
p933
I1
sVwait
p934
I37
sVblocked
p935
I0
ssVtime
p936
I72
sVresponse
p937
(dp938
Vstatus
p939
I204
sVcomment
p940
g4
sVcookies
p941
(lp942
sVstatusText
p943
VNo Content
p944
sVcontent
p945
(dp946
VmimeType
p947
Vtext/html; charset=UTF-8
p948
sVcomment
p949
g4
sVsize
p950
I0
ssVheaders
p951
(lp952
sVheadersSize
p953
I248
sVredirectURL
p954
g4
sVbodySize
p955
I0
sVhttpVersion
p956
VHTTP/1.1
p957
ssa(dp958
Vcomment
p959
g4
sVserverIPAddress
p960
V216.58.216.196
p961
sVpageref
p962
VDuke Blue Devils
p963
sVstartedDateTime
p964
V2017-04-16T08:35:38.041-05:00
p965
sVcache
p966
(dp967
sVrequest
p968
(dp969
Vcomment
p970
g4
sVcookies
p971
(lp972
sVurl
p973
Vhttps://www.google.com/gen_204?atyp=i&ct=&cad=&vet=10ahUKEwjXqsL-i6nTAhXh1IMKHbhTBuUQ5W0IQygE..s&ei=JnPzWNf_J-GpjwS4p5moDg&zx=1492349738006
p974
sVqueryString
p975
(lp976
(dp977
Vname
p978
Vatyp
p979
sVvalue
p980
g30
sa(dp981
Vname
p982
Vct
p983
sVvalue
p984
g4
sa(dp985
Vname
p986
Vcad
p987
sVvalue
p988
g4
sa(dp989
Vname
p990
Vvet
p991
sVvalue
p992
V10ahUKEwjXqsL-i6nTAhXh1IMKHbhTBuUQ5W0IQygE..s
p993
sa(dp994
Vname
p995
Vei
p996
sVvalue
p997
VJnPzWNf_J-GpjwS4p5moDg
p998
sa(dp999
Vname
p1000
Vzx
p1001
sVvalue
p1002
V1492349738006
p1003
sasVheaders
p1004
(lp1005
sVheadersSize
p1006
I656
sVbodySize
p1007
I0
sVmethod
p1008
VGET
p1009
sVhttpVersion
p1010
VHTTP/1.1
p1011
ssVtimings
p1012
(dp1013
Vcomment
p1014
g4
sVreceive
p1015
I0
sVsend
p1016
I0
sVssl
p1017
I20
sVconnect
p1018
I32
sVdns
p1019
I0
sVwait
p1020
I38
sVblocked
p1021
I0
ssVtime
p1022
I70
sVresponse
p1023
(dp1024
Vstatus
p1025
I204
sVcomment
p1026
g4
sVcookies
p1027
(lp1028
sVstatusText
p1029
VNo Content
p1030
sVcontent
p1031
(dp1032
VmimeType
p1033
Vtext/html; charset=UTF-8
p1034
sVcomment
p1035
g4
sVsize
p1036
I0
ssVheaders
p1037
(lp1038
sVheadersSize
p1039
I248
sVredirectURL
p1040
g4
sVbodySize
p1041
I0
sVhttpVersion
p1042
VHTTP/1.1
p1043
ssa(dp1044
Vcomment
p1045
g4
sVserverIPAddress
p1046
V216.58.216.196
p1047
sVpageref
p1048
VDuke Blue Devils
p1049
sVstartedDateTime
p1050
V2017-04-16T08:35:38.066-05:00
p1051
sVcache
p1052
(dp1053
sVrequest
p1054
(dp1055
Vcomment
p1056
g4
sVcookies
p1057
(lp1058
sVurl
p1059
Vhttps://www.google.com/gen_204?atyp=i&ct=&cad=&vet=10ahUKEwjXqsL-i6nTAhXh1IMKHbhTBuUQ5W0ISSgG..s&ei=JnPzWNf_J-GpjwS4p5moDg&zx=1492349738013
p1060
sVqueryString
p1061
(lp1062
(dp1063
Vname
p1064
Vatyp
p1065
sVvalue
p1066
g30
sa(dp1067
Vname
p1068
Vct
p1069
sVvalue
p1070
g4
sa(dp1071
Vname
p1072
Vcad
p1073
sVvalue
p1074
g4
sa(dp1075
Vname
p1076
Vvet
p1077
sVvalue
p1078
V10ahUKEwjXqsL-i6nTAhXh1IMKHbhTBuUQ5W0ISSgG..s
p1079
sa(dp1080
Vname
p1081
Vei
p1082
sVvalue
p1083
VJnPzWNf_J-GpjwS4p5moDg
p1084
sa(dp1085
Vname
p1086
Vzx
p1087
sVvalue
p1088
V1492349738013
p1089
sasVheaders
p1090
(lp1091
sVheadersSize
p1092
I656
sVbodySize
p1093
I0
sVmethod
p1094
VGET
p1095
sVhttpVersion
p1096
VHTTP/1.1
p1097
ssVtimings
p1098
(dp1099
Vcomment
p1100
g4
sVreceive
p1101
I0
sVsend
p1102
I0
sVssl
p1103
I31
sVconnect
p1104
I48
sVdns
p1105
I0
sVwait
p1106
I26
sVblocked
p1107
I0
ssVtime
p1108
I75
sVresponse
p1109
(dp1110
Vstatus
p1111
I204
sVcomment
p1112
g4
sVcookies
p1113
(lp1114
sVstatusText
p1115
VNo Content
p1116
sVcontent
p1117
(dp1118
VmimeType
p1119
Vtext/html; charset=UTF-8
p1120
sVcomment
p1121
g4
sVsize
p1122
I0
ssVheaders
p1123
(lp1124
sVheadersSize
p1125
I248
sVredirectURL
p1126
g4
sVbodySize
p1127
I0
sVhttpVersion
p1128
VHTTP/1.1
p1129
ssa(dp1130
Vcomment
p1131
g4
sVserverIPAddress
p1132
V216.58.216.196
p1133
sVpageref
p1134
VDuke Blue Devils
p1135
sVstartedDateTime
p1136
V2017-04-16T08:35:38.086-05:00
p1137
sVcache
p1138
(dp1139
sVrequest
p1140
(dp1141
Vcomment
p1142
g4
sVcookies
p1143
(lp1144
sVurl
p1145
Vhttps://www.google.com/gen_204?atyp=i&ct=&cad=&vet=10ahUKEwjXqsL-i6nTAhXh1IMKHbhTBuUQ5W0ITCgH..s&ei=JnPzWNf_J-GpjwS4p5moDg&zx=1492349738016
p1146
sVqueryString
p1147
(lp1148
(dp1149
Vname
p1150
Vatyp
p1151
sVvalue
p1152
g30
sa(dp1153
Vname
p1154
Vct
p1155
sVvalue
p1156
g4
sa(dp1157
Vname
p1158
Vcad
p1159
sVvalue
p1160
g4
sa(dp1161
Vname
p1162
Vvet
p1163
sVvalue
p1164
V10ahUKEwjXqsL-i6nTAhXh1IMKHbhTBuUQ5W0ITCgH..s
p1165
sa(dp1166
Vname
p1167
Vei
p1168
sVvalue
p1169
VJnPzWNf_J-GpjwS4p5moDg
p1170
sa(dp1171
Vname
p1172
Vzx
p1173
sVvalue
p1174
V1492349738016
p1175
sasVheaders
p1176
(lp1177
sVheadersSize
p1178
I656
sVbodySize
p1179
I0
sVmethod
p1180
VGET
p1181
sVhttpVersion
p1182
VHTTP/1.1
p1183
ssVtimings
p1184
(dp1185
Vcomment
p1186
g4
sVreceive
p1187
I0
sVsend
p1188
I0
sVssl
p1189
I26
sVconnect
p1190
I63
sVdns
p1191
I0
sVwait
p1192
I47
sVblocked
p1193
I0
ssVtime
p1194
I110
sVresponse
p1195
(dp1196
Vstatus
p1197
I204
sVcomment
p1198
g4
sVcookies
p1199
(lp1200
sVstatusText
p1201
VNo Content
p1202
sVcontent
p1203
(dp1204
VmimeType
p1205
Vtext/html; charset=UTF-8
p1206
sVcomment
p1207
g4
sVsize
p1208
I0
ssVheaders
p1209
(lp1210
sVheadersSize
p1211
I248
sVredirectURL
p1212
g4
sVbodySize
p1213
I0
sVhttpVersion
p1214
VHTTP/1.1
p1215
ssa(dp1216
Vcomment
p1217
g4
sVserverIPAddress
p1218
V216.58.216.196
p1219
sVpageref
p1220
VDuke Blue Devils
p1221
sVstartedDateTime
p1222
V2017-04-16T08:35:38.110-05:00
p1223
sVcache
p1224
(dp1225
sVrequest
p1226
(dp1227
Vcomment
p1228
g4
sVcookies
p1229
(lp1230
sVurl
p1231
Vhttps://www.google.com/async/ampfp?vet=10ahUKEwjXqsL-i6nTAhXh1IMKHbhTBuUQtZoBCLsB..i&ei=JnPzWNf_J-GpjwS4p5moDg&yv=2&async=_id:ampfp-async,_pms:qs
p1232
sVqueryString
p1233
(lp1234
(dp1235
Vname
p1236
Vvet
p1237
sVvalue
p1238
V10ahUKEwjXqsL-i6nTAhXh1IMKHbhTBuUQtZoBCLsB..i
p1239
sa(dp1240
Vname
p1241
Vei
p1242
sVvalue
p1243
VJnPzWNf_J-GpjwS4p5moDg
p1244
sa(dp1245
Vname
p1246
Vyv
p1247
sVvalue
p1248
g64
sa(dp1249
Vname
p1250
Vasync
p1251
sVvalue
p1252
V_id:ampfp-async,_pms:qs
p1253
sasVheaders
p1254
(lp1255
sVheadersSize
p1256
I662
sVbodySize
p1257
I0
sVmethod
p1258
VGET
p1259
sVhttpVersion
p1260
VHTTP/1.1
p1261
ssVtimings
p1262
(dp1263
Vcomment
p1264
g4
sVreceive
p1265
I1
sVsend
p1266
I0
sVssl
p1267
I-1
sVconnect
p1268
I-1
sVdns
p1269
I-1
sVwait
p1270
I45
sVblocked
p1271
I-1
ssVtime
p1272
I46
sVresponse
p1273
(dp1274
Vstatus
p1275
I200
sVcomment
p1276
g4
sVcookies
p1277
(lp1278
sVstatusText
p1279
VOK
p1280
sVcontent
p1281
(dp1282
VmimeType
p1283
Vtext/html; charset=UTF-8
p1284
sVcomment
p1285
g4
sVsize
p1286
I0
ssVheaders
p1287
(lp1288
sVheadersSize
p1289
I383
sVredirectURL
p1290
g4
sVbodySize
p1291
I4528
sVhttpVersion
p1292
VHTTP/1.1
p1293
ssa(dp1294
Vcomment
p1295
g4
sVserverIPAddress
p1296
V216.58.216.193
p1297
sVpageref
p1298
VDuke Blue Devils
p1299
sVstartedDateTime
p1300
V2017-04-16T08:35:38.114-05:00
p1301
sVcache
p1302
(dp1303
sVrequest
p1304
(dp1305
Vcomment
p1306
g4
sVcookies
p1307
(lp1308
sVurl
p1309
Vhttps://cdn.ampproject.org/preconnect.gif?0.3257616242006275
p1310
sVqueryString
p1311
(lp1312
(dp1313
Vname
p1314
V0.3257616242006275
p1315
sVvalue
p1316
g4
sasVheaders
p1317
(lp1318
sVheadersSize
p1319
I375
sVbodySize
p1320
I0
sVmethod
p1321
VGET
p1322
sVhttpVersion
p1323
VHTTP/1.1
p1324
ssVtimings
p1325
(dp1326
Vcomment
p1327
g4
sVreceive
p1328
I0
sVsend
p1329
I0
sVssl
p1330
I-1
sVconnect
p1331
I-1
sVdns
p1332
I-1
sVwait
p1333
I40
sVblocked
p1334
I-1
ssVtime
p1335
I41
sVresponse
p1336
(dp1337
Vstatus
p1338
I200
sVcomment
p1339
g4
sVcookies
p1340
(lp1341
sVstatusText
p1342
VOK
p1343
sVcontent
p1344
(dp1345
VmimeType
p1346
Vimage/gif
p1347
sVcomment
p1348
g4
sVsize
p1349
I0
ssVheaders
p1350
(lp1351
sVheadersSize
p1352
I826
sVredirectURL
p1353
g4
sVbodySize
p1354
I37
sVhttpVersion
p1355
VHTTP/1.1
p1356
ssa(dp1357
Vcomment
p1358
g4
sVserverIPAddress
p1359
V172.217.0.14
p1360
sVpageref
p1361
VDuke Blue Devils
p1362
sVstartedDateTime
p1363
V2017-04-16T08:35:38.131-05:00
p1364
sVcache
p1365
(dp1366
sVrequest
p1367
(dp1368
Vcomment
p1369
g4
sVcookies
p1370
(lp1371
sVurl
p1372
Vhttps://encrypted-tbn0.gstatic.com/images?q=tbn:ANd9GcSbOC2JGT6oCpEP2y9IJ3o_7kKvAGCmiuOOJUKAfhMazQPSviKgdEy3k10
p1373
sVqueryString
p1374
(lp1375
(dp1376
Vname
p1377
g415
sVvalue
p1378
Vtbn:ANd9GcSbOC2JGT6oCpEP2y9IJ3o_7kKvAGCmiuOOJUKAfhMazQPSviKgdEy3k10
p1379
sasVheaders
p1380
(lp1381
sVheadersSize
p1382
I426
sVbodySize
p1383
I0
sVmethod
p1384
VGET
p1385
sVhttpVersion
p1386
VHTTP/1.1
p1387
ssVtimings
p1388
(dp1389
Vcomment
p1390
g4
sVreceive
p1391
I0
sVsend
p1392
I0
sVssl
p1393
I-1
sVconnect
p1394
I-1
sVdns
p1395
I-1
sVwait
p1396
I28
sVblocked
p1397
I-1
ssVtime
p1398
I30
sVresponse
p1399
(dp1400
Vstatus
p1401
I200
sVcomment
p1402
g4
sVcookies
p1403
(lp1404
sVstatusText
p1405
VOK
p1406
sVcontent
p1407
(dp1408
VmimeType
p1409
Vimage/jpeg
p1410
sVcomment
p1411
g4
sVsize
p1412
I0
ssVheaders
p1413
(lp1414
sVheadersSize
p1415
I415
sVredirectURL
p1416
g4
sVbodySize
p1417
I4237
sVhttpVersion
p1418
VHTTP/1.1
p1419
ssa(dp1420
Vcomment
p1421
g4
sVserverIPAddress
p1422
V216.58.216.206
p1423
sVpageref
p1424
VDuke Blue Devils
p1425
sVstartedDateTime
p1426
V2017-04-16T08:35:38.131-05:00
p1427
sVcache
p1428
(dp1429
sVrequest
p1430
(dp1431
Vcomment
p1432
g4
sVcookies
p1433
(lp1434
sVurl
p1435
Vhttps://encrypted-tbn1.gstatic.com/images?q=tbn:ANd9GcTigUe0JPMpf-K-v7AgmsOsAsZG7Z0EHr3yWC42ZdAZ21n92hbVmTXMRxQ
p1436
sVqueryString
p1437
(lp1438
(dp1439
Vname
p1440
g415
sVvalue
p1441
Vtbn:ANd9GcTigUe0JPMpf-K-v7AgmsOsAsZG7Z0EHr3yWC42ZdAZ21n92hbVmTXMRxQ
p1442
sasVheaders
p1443
(lp1444
sVheadersSize
p1445
I426
sVbodySize
p1446
I0
sVmethod
p1447
VGET
p1448
sVhttpVersion
p1449
VHTTP/1.1
p1450
ssVtimings
p1451
(dp1452
Vcomment
p1453
g4
sVreceive
p1454
I0
sVsend
p1455
I0
sVssl
p1456
I-1
sVconnect
p1457
I-1
sVdns
p1458
I-1
sVwait
p1459
I39
sVblocked
p1460
I-1
ssVtime
p1461
I39
sVresponse
p1462
(dp1463
Vstatus
p1464
I200
sVcomment
p1465
g4
sVcookies
p1466
(lp1467
sVstatusText
p1468
VOK
p1469
sVcontent
p1470
(dp1471
VmimeType
p1472
Vimage/jpeg
p1473
sVcomment
p1474
g4
sVsize
p1475
I0
ssVheaders
p1476
(lp1477
sVheadersSize
p1478
I415
sVredirectURL
p1479
g4
sVbodySize
p1480
I1914
sVhttpVersion
p1481
VHTTP/1.1
p1482
ssa(dp1483
Vcomment
p1484
g4
sVserverIPAddress
p1485
V216.58.216.196
p1486
sVpageref
p1487
VDuke Blue Devils
p1488
sVstartedDateTime
p1489
V2017-04-16T08:35:38.315-05:00
p1490
sVcache
p1491
(dp1492
sVrequest
p1493
(dp1494
Vcomment
p1495
g4
sVcookies
p1496
(lp1497
sVurl
p1498
Vhttps://www.google.com/async/log_amp_item_set?vet=10ahUKEwjx_tf_i6nTAhUJ6YMKHd9_A04QooQBCAE..i&ei=JnPzWNf_J-GpjwS4p5moDg&yv=2&async=num_items:2,_fmt:jspb
p1499
sVqueryString
p1500
(lp1501
(dp1502
Vname
p1503
Vvet
p1504
sVvalue
p1505
V10ahUKEwjx_tf_i6nTAhUJ6YMKHd9_A04QooQBCAE..i
p1506
sa(dp1507
Vname
p1508
Vei
p1509
sVvalue
p1510
VJnPzWNf_J-GpjwS4p5moDg
p1511
sa(dp1512
Vname
p1513
Vyv
p1514
sVvalue
p1515
g64
sa(dp1516
Vname
p1517
Vasync
p1518
sVvalue
p1519
Vnum_items:2,_fmt:jspb
p1520
sasVheaders
p1521
(lp1522
sVheadersSize
p1523
I670
sVbodySize
p1524
I0
sVmethod
p1525
VGET
p1526
sVhttpVersion
p1527
VHTTP/1.1
p1528
ssVtimings
p1529
(dp1530
Vcomment
p1531
g4
sVreceive
p1532
I0
sVsend
p1533
I0
sVssl
p1534
I-1
sVconnect
p1535
I-1
sVdns
p1536
I-1
sVwait
p1537
I44
sVblocked
p1538
I-1
ssVtime
p1539
I44
sVresponse
p1540
(dp1541
Vstatus
p1542
I200
sVcomment
p1543
g4
sVcookies
p1544
(lp1545
sVstatusText
p1546
VOK
p1547
sVcontent
p1548
(dp1549
VmimeType
p1550
Vapplication/json; charset=UTF-8
p1551
sVcomment
p1552
g4
sVsize
p1553
I0
ssVheaders
p1554
(lp1555
sVheadersSize
p1556
I417
sVredirectURL
p1557
g4
sVbodySize
p1558
I141
sVhttpVersion
p1559
VHTTP/1.1
p1560
ssa(dp1561
Vcomment
p1562
g4
sVserverIPAddress
p1563
V216.58.216.193
p1564
sVpageref
p1565
VDuke Blue Devils
p1566
sVstartedDateTime
p1567
V2017-04-16T08:35:38.615-05:00
p1568
sVcache
p1569
(dp1570
sVrequest
p1571
(dp1572
Vcomment
p1573
g4
sVcookies
p1574
(lp1575
sVurl
p1576
Vhttps://www-dukebasketballreport-com.cdn.ampproject.org/v/www.dukebasketballreport.com/platform/amp/2017/4/15/15312206/duke-recruiting-meet-the-carters-basketball-wendell-carter?amp_js_v=9
p1577
sVqueryString
p1578
(lp1579
(dp1580
Vname
p1581
Vamp_js_v
p1582
sVvalue
p1583
V9
p1584
sasVheaders
p1585
(lp1586
sVheadersSize
p1587
I593
sVbodySize
p1588
I0
sVmethod
p1589
VGET
p1590
sVhttpVersion
p1591
VHTTP/1.1
p1592
ssVtimings
p1593
(dp1594
Vcomment
p1595
g4
sVreceive
p1596
I1
sVsend
p1597
I0
sVssl
p1598
I233
sVconnect
p1599
I248
sVdns
p1600
I32
sVwait
p1601
I71
sVblocked
p1602
I0
ssVtime
p1603
I354
sVresponse
p1604
(dp1605
Vstatus
p1606
I200
sVcomment
p1607
g4
sVcookies
p1608
(lp1609
sVstatusText
p1610
VOK
p1611
sVcontent
p1612
(dp1613
VmimeType
p1614
Vtext/html
p1615
sVcomment
p1616
g4
sVsize
p1617
I0
ssVheaders
p1618
(lp1619
sVheadersSize
p1620
I859
sVredirectURL
p1621
g4
sVbodySize
p1622
I7800
sVhttpVersion
p1623
VHTTP/1.1
p1624
ssa(dp1625
Vcomment
p1626
g4
sVserverIPAddress
p1627
V216.58.216.196
p1628
sVpageref
p1629
VDuke Blue Devils
p1630
sVstartedDateTime
p1631
V2017-04-16T08:35:40.200-05:00
p1632
sVcache
p1633
(dp1634
sVrequest
p1635
(dp1636
Vcomment
p1637
g4
sVcookies
p1638
(lp1639
sVurl
p1640
Vhttps://www.google.com/gen_204?atyp=i&ct=slh&cad=&ei=F3PzWJbUI6nqjwTpm5HwDA&m=V&t=C&s=1&v=2&pv=0.2045523543149862&me=1:1492349722630,x:1,V,0,0,1280,944:0,N,1,F3PzWJbUI6nqjwTpm5HwDA:0,R,1,24,0,155,1197,700:0,R,1,25,0,155,1197,698:0,R,1,79,8,863,1264,309:0,R,1,80,8,907,1264,265:0,R,1,81,0,907,1280,285:4,B,4667:12125,e,U&zx=1492349740199
p1641
sVqueryString
p1642
(lp1643
(dp1644
Vname
p1645
Vatyp
p1646
sVvalue
p1647
g30
sa(dp1648
Vname
p1649
Vct
p1650
sVvalue
p1651
Vslh
p1652
sa(dp1653
Vname
p1654
Vcad
p1655
sVvalue
p1656
g4
sa(dp1657
Vname
p1658
Vei
p1659
sVvalue
p1660
VF3PzWJbUI6nqjwTpm5HwDA
p1661
sa(dp1662
Vname
p1663
g47
sVvalue
p1664
g49
sa(dp1665
Vname
p1666
g52
sVvalue
p1667
g54
sa(dp1668
Vname
p1669
g57
sVvalue
p1670
g59
sa(dp1671
Vname
p1672
g62
sVvalue
p1673
g64
sa(dp1674
Vname
p1675
Vpv
p1676
sVvalue
p1677
V0.2045523543149862
p1678
sa(dp1679
Vname
p1680
Vme
p1681
sVvalue
p1682
V1:1492349722630,x:1,V,0,0,1280,944:0,N,1,F3PzWJbUI6nqjwTpm5HwDA:0,R,1,24,0,155,1197,700:0,R,1,25,0,155,1197,698:0,R,1,79,8,863,1264,309:0,R,1,80,8,907,1264,265:0,R,1,81,0,907,1280,285:4,B,4667:12125,e,U
p1683
sa(dp1684
Vname
p1685
Vzx
p1686
sVvalue
p1687
V1492349740199
p1688
sasVheaders
p1689
(lp1690
sVheadersSize
p1691
I853
sVbodySize
p1692
I0
sVmethod
p1693
VGET
p1694
sVhttpVersion
p1695
VHTTP/1.1
p1696
ssVtimings
p1697
(dp1698
Vcomment
p1699
g4
sVreceive
p1700
I0
sVsend
p1701
I0
sVssl
p1702
I-1
sVconnect
p1703
I-1
sVdns
p1704
I-1
sVwait
p1705
I35
sVblocked
p1706
I-1
ssVtime
p1707
I36
sVresponse
p1708
(dp1709
Vstatus
p1710
I204
sVcomment
p1711
g4
sVcookies
p1712
(lp1713
sVstatusText
p1714
VNo Content
p1715
sVcontent
p1716
(dp1717
VmimeType
p1718
Vtext/html; charset=UTF-8
p1719
sVcomment
p1720
g4
sVsize
p1721
I0
ssVheaders
p1722
(lp1723
sVheadersSize
p1724
I248
sVredirectURL
p1725
g4
sVbodySize
p1726
I0
sVhttpVersion
p1727
VHTTP/1.1
p1728
ssa(dp1729
Vcomment
p1730
g4
sVserverIPAddress
p1731
V216.58.216.193
p1732
sVpageref
p1733
VDuke Blue Devils
p1734
sVstartedDateTime
p1735
V2017-04-16T08:35:40.362-05:00
p1736
sVcache
p1737
(dp1738
sVrequest
p1739
(dp1740
Vcomment
p1741
g4
sVcookies
p1742
(lp1743
sVurl
p1744
Vhttps://cdn0-vox--cdn-com.cdn.ampproject.org/i/s/cdn0.vox-cdn.com/thumbor/i41Weos9y8cOoFHs0L6wLWGknCg=/0x0:4843x3229/1310x873/cdn0.vox-cdn.com/uploads/chorus_image/image/54272323/usa_today_9979579.0.jpg
p1745
sVqueryString
p1746
(lp1747
sVheaders
p1748
(lp1749
sVheadersSize
p1750
I682
sVbodySize
p1751
I0
sVmethod
p1752
VGET
p1753
sVhttpVersion
p1754
VHTTP/1.1
p1755
ssVtimings
p1756
(dp1757
Vcomment
p1758
g4
sVreceive
p1759
I75
sVsend
p1760
I0
sVssl
p1761
I-1
sVconnect
p1762
I-1
sVdns
p1763
I-1
sVwait
p1764
I140
sVblocked
p1765
I-1
ssVtime
p1766
I216
sVresponse
p1767
(dp1768
Vstatus
p1769
I200
sVcomment
p1770
g4
sVcookies
p1771
(lp1772
sVstatusText
p1773
VOK
p1774
sVcontent
p1775
(dp1776
VmimeType
p1777
Vimage/jpeg
p1778
sVcomment
p1779
g4
sVsize
p1780
I0
ssVheaders
p1781
(lp1782
sVheadersSize
p1783
I851
sVredirectURL
p1784
g4
sVbodySize
p1785
I143463
sVhttpVersion
p1786
VHTTP/1.1
p1787
ssa(dp1788
Vcomment
p1789
g4
sVserverIPAddress
p1790
V216.58.216.196
p1791
sVpageref
p1792
VDuke Blue Devils
p1793
sVstartedDateTime
p1794
V2017-04-16T08:35:40.380-05:00
p1795
sVcache
p1796
(dp1797
sVrequest
p1798
(dp1799
Vcomment
p1800
g4
sVcookies
p1801
(lp1802
sVurl
p1803
Vhttps://www.google.com/gen_204?s=web&atyp=csi&ei=JnPzWNf_J-GpjwS4p5moDg&imc=26&imn=26&imp=18&adh=&xjs=init.127.14.sb_mob.93.dvl.24.jsa.3.c.2.mbsf.2&ima=9&rt=prt.527,iml.583,xjsls.528,dcl.660,xjses.744,xjsee.1116,xjs.1118,qiml.1873,ol.3926,aft.582,wsrt.781,cst.0,dnst.0,rqst.1263,rspt.1170,rqstt.3,unt.2,cstt.2,dit.1381
p1804
sVqueryString
p1805
(lp1806
(dp1807
Vname
p1808
g57
sVvalue
p1809
Vweb
p1810
sa(dp1811
Vname
p1812
Vatyp
p1813
sVvalue
p1814
Vcsi
p1815
sa(dp1816
Vname
p1817
Vei
p1818
sVvalue
p1819
VJnPzWNf_J-GpjwS4p5moDg
p1820
sa(dp1821
Vname
p1822
Vimc
p1823
sVvalue
p1824
V26
p1825
sa(dp1826
Vname
p1827
Vimn
p1828
sVvalue
p1829
V26
p1830
sa(dp1831
Vname
p1832
Vimp
p1833
sVvalue
p1834
V18
p1835
sa(dp1836
Vname
p1837
Vadh
p1838
sVvalue
p1839
g4
sa(dp1840
Vname
p1841
Vxjs
p1842
sVvalue
p1843
Vinit.127.14.sb_mob.93.dvl.24.jsa.3.c.2.mbsf.2
p1844
sa(dp1845
Vname
p1846
Vima
p1847
sVvalue
p1848
g1584
sa(dp1849
Vname
p1850
Vrt
p1851
sVvalue
p1852
Vprt.527,iml.583,xjsls.528,dcl.660,xjses.744,xjsee.1116,xjs.1118,qiml.1873,ol.3926,aft.582,wsrt.781,cst.0,dnst.0,rqst.1263,rspt.1170,rqstt.3,unt.2,cstt.2,dit.1381
p1853
sasVheaders
p1854
(lp1855
sVheadersSize
p1856
I835
sVbodySize
p1857
I0
sVmethod
p1858
VGET
p1859
sVhttpVersion
p1860
VHTTP/1.1
p1861
ssVtimings
p1862
(dp1863
Vcomment
p1864
g4
sVreceive
p1865
I0
sVsend
p1866
I0
sVssl
p1867
I-1
sVconnect
p1868
I-1
sVdns
p1869
I-1
sVwait
p1870
I30
sVblocked
p1871
I-1
ssVtime
p1872
I30
sVresponse
p1873
(dp1874
Vstatus
p1875
I204
sVcomment
p1876
g4
sVcookies
p1877
(lp1878
sVstatusText
p1879
VNo Content
p1880
sVcontent
p1881
(dp1882
VmimeType
p1883
Vtext/html; charset=UTF-8
p1884
sVcomment
p1885
g4
sVsize
p1886
I0
ssVheaders
p1887
(lp1888
sVheadersSize
p1889
I248
sVredirectURL
p1890
g4
sVbodySize
p1891
I0
sVhttpVersion
p1892
VHTTP/1.1
p1893
ssa(dp1894
Vcomment
p1895
g4
sVserverIPAddress
p1896
V216.58.216.193
p1897
sVpageref
p1898
VDuke Blue Devils
p1899
sVstartedDateTime
p1900
V2017-04-16T08:35:41.653-05:00
p1901
sVcache
p1902
(dp1903
sVrequest
p1904
(dp1905
Vcomment
p1906
g4
sVcookies
p1907
(lp1908
sVurl
p1909
Vhttps://cdn3-vox--cdn-com.cdn.ampproject.org/ii/w100/s/cdn3.vox-cdn.com/uploads/blog/sbnu_logo_minimal/417/large_dukebasketballreport.com.minimal.92996.png
p1910
sVqueryString
p1911
(lp1912
sVheaders
p1913
(lp1914
sVheadersSize
p1915
I635
sVbodySize
p1916
I0
sVmethod
p1917
VGET
p1918
sVhttpVersion
p1919
VHTTP/1.1
p1920
ssVtimings
p1921
(dp1922
Vcomment
p1923
g4
sVreceive
p1924
I16
sVsend
p1925
I0
sVssl
p1926
I1273
sVconnect
p1927
I1291
sVdns
p1928
I39
sVwait
p1929
I20
sVblocked
p1930
I0
ssVtime
p1931
I1368
sVresponse
p1932
(dp1933
Vstatus
p1934
I200
sVcomment
p1935
g4
sVcookies
p1936
(lp1937
sVstatusText
p1938
VOK
p1939
sVcontent
p1940
(dp1941
VmimeType
p1942
Vimage/png
p1943
sVcomment
p1944
g4
sVsize
p1945
I0
ssVheaders
p1946
(lp1947
sVheadersSize
p1948
I824
sVredirectURL
p1949
g4
sVbodySize
p1950
I5720
sVhttpVersion
p1951
VHTTP/1.1
p1952
ssasVversion
p1953
V1.2
p1954
sVpages
p1955
(lp1956
(dp1957
VpageTimings
p1958
(dp1959
Vcomment
p1960
g4
ssVcomment
p1961
g4
sVtitle
p1962
VDuke Blue Devils
p1963
sVid
p1964
VDuke Blue Devils
p1965
sVstartedDateTime
p1966
V2017-04-16T08:35:34.754-05:00
p1967
sasVcreator
p1968
(dp1969
Vcomment
p1970
g4
sVversion
p1971
V2.1.4
p1972
sVname
p1973
VBrowserMob Proxy
p1974
sss.