(dp0
Vlog
p1
(dp2
Vcomment
p3
V
p4
sVentries
p5
(lp6
(dp7
Vcomment
p8
g4
sVserverIPAddress
p9
V172.217.6.4
p10
sVpageref
p11
VBoiled Egg
p12
sVstartedDateTime
p13
V2017-04-16T08:45:42.035-05:00
p14
sVcache
p15
(dp16
sVrequest
p17
(dp18
Vcomment
p19
g4
sVcookies
p20
(lp21
sVurl
p22
Vhttps://www.google.com/gen_204?atyp=i&ct=slh&cad=&ei=bHXzWNDbFpu6jwTZk434AQ&m=V&t=C&s=1&v=2&pv=0.16029182115853324&me=1:1492350321479,x:1,V,0,0,1280,944:0,N,1,bHXzWNDbFpu6jwTZk434AQ:0,R,1,24,8,155,1249,43:0,R,1,41,8,198,1249,328:0,R,1,43,8,242,1249,284:0,R,1,44,0,242,1265,304:0,R,1,76,8,536,1249,513:0,R,1,77,8,536,1249,513:0,R,1,80,8,549,1249,40:0,R,1,93,8,601,1249,178:0,R,1,96,0,617,1265,197:0,R,1,136,8,796,1249,40:0,R,1,137,24,796,1217,40:2,B,4677:20551,e,U&zx=1492350342033
p23
sVqueryString
p24
(lp25
(dp26
Vname
p27
Vatyp
p28
sVvalue
p29
Vi
p30
sa(dp31
Vname
p32
Vct
p33
sVvalue
p34
Vslh
p35
sa(dp36
Vname
p37
Vcad
p38
sVvalue
p39
g4
sa(dp40
Vname
p41
Vei
p42
sVvalue
p43
VbHXzWNDbFpu6jwTZk434AQ
p44
sa(dp45
Vname
p46
Vm
p47
sVvalue
p48
VV
p49
sa(dp50
Vname
p51
Vt
p52
sVvalue
p53
VC
p54
sa(dp55
Vname
p56
Vs
p57
sVvalue
p58
V1
p59
sa(dp60
Vname
p61
Vv
p62
sVvalue
p63
V2
p64
sa(dp65
Vname
p66
Vpv
p67
sVvalue
p68
V0.16029182115853324
p69
sa(dp70
Vname
p71
Vme
p72
sVvalue
p73
V1:1492350321479,x:1,V,0,0,1280,944:0,N,1,bHXzWNDbFpu6jwTZk434AQ:0,R,1,24,8,155,1249,43:0,R,1,41,8,198,1249,328:0,R,1,43,8,242,1249,284:0,R,1,44,0,242,1265,304:0,R,1,76,8,536,1249,513:0,R,1,77,8,536,1249,513:0,R,1,80,8,549,1249,40:0,R,1,93,8,601,1249,178:0,R,1,96,0,617,1265,197:0,R,1,136,8,796,1249,40:0,R,1,137,24,796,1217,40:2,B,4677:20551,e,U
p74
sa(dp75
Vname
p76
Vzx
p77
sVvalue
p78
V1492350342033
p79
sasVheaders
p80
(lp81
sVheadersSize
p82
I997
sVbodySize
p83
I0
sVmethod
p84
VGET
p85
sVhttpVersion
p86
VHTTP/1.1
p87
ssVtimings
p88
(dp89
Vcomment
p90
g4
sVreceive
p91
I0
sVsend
p92
I0
sVssl
p93
I-1
sVconnect
p94
I-1
sVdns
p95
I-1
sVwait
p96
I0
sVblocked
p97
I-1
ssVtime
p98
I0
sVresponse
p99
(dp100
Vstatus
p101
I0
sVcomment
p102
g4
sVcookies
p103
(lp104
sV_error
p105
VNo response received
p106
sVstatusText
p107
g4
sVcontent
p108
(dp109
VmimeType
p110
g4
sVcomment
p111
g4
sVsize
p112
I0
ssVheaders
p113
(lp114
sVheadersSize
p115
I-1
sVredirectURL
p116
g4
sVbodySize
p117
I-1
sVhttpVersion
p118
Vunknown
p119
ssa(dp120
Vcomment
p121
g4
sVserverIPAddress
p122
V172.217.6.4
p123
sVpageref
p124
VBoiled Egg
p125
sVstartedDateTime
p126
V2017-04-16T08:45:42.041-05:00
p127
sVcache
p128
(dp129
sVrequest
p130
(dp131
Vcomment
p132
g4
sVcookies
p133
(lp134
sVurl
p135
Vhttp://www.google.com/
p136
sVqueryString
p137
(lp138
sVheaders
p139
(lp140
sVheadersSize
p141
I613
sVbodySize
p142
I0
sVmethod
p143
VGET
p144
sVhttpVersion
p145
VHTTP/1.1
p146
ssVtimings
p147
(dp148
Vcomment
p149
g4
sVreceive
p150
I0
sVsend
p151
I0
sVssl
p152
I-1
sVconnect
p153
I-1
sVdns
p154
I-1
sVwait
p155
I47
sVblocked
p156
I-1
ssVtime
p157
I47
sVresponse
p158
(dp159
Vstatus
p160
I302
sVcomment
p161
g4
sVcookies
p162
(lp163
sVstatusText
p164
VFound
p165
sVcontent
p166
(dp167
VmimeType
p168
Vtext/html; charset=UTF-8
p169
sVcomment
p170
g4
sVsize
p171
I0
ssVheaders
p172
(lp173
sVheadersSize
p174
I609
sVredirectURL
p175
Vhttps://www.google.com/?gws_rd=ssl
p176
sVbodySize
p177
I231
sVhttpVersion
p178
VHTTP/1.1
p179
ssa(dp180
Vcomment
p181
g4
sVserverIPAddress
p182
V172.217.6.4
p183
sVpageref
p184
VBoiled Egg
p185
sVstartedDateTime
p186
V2017-04-16T08:45:42.094-05:00
p187
sVcache
p188
(dp189
sVrequest
p190
(dp191
Vcomment
p192
g4
sVcookies
p193
(lp194
sVurl
p195
Vhttps://www.google.com/?gws_rd=ssl
p196
sVqueryString
p197
(lp198
(dp199
Vname
p200
Vgws_rd
p201
sVvalue
p202
Vssl
p203
sasVheaders
p204
(lp205
sVheadersSize
p206
I607
sVbodySize
p207
I0
sVmethod
p208
VGET
p209
sVhttpVersion
p210
VHTTP/1.1
p211
ssVtimings
p212
(dp213
Vcomment
p214
g4
sVreceive
p215
I1
sVsend
p216
I0
sVssl
p217
I-1
sVconnect
p218
I-1
sVdns
p219
I-1
sVwait
p220
I114
sVblocked
p221
I-1
ssVtime
p222
I116
sVresponse
p223
(dp224
Vstatus
p225
I200
sVcomment
p226
g4
sVcookies
p227
(lp228
sVstatusText
p229
VOK
p230
sVcontent
p231
(dp232
VmimeType
p233
Vtext/html; charset=UTF-8
p234
sVcomment
p235
g4
sVsize
p236
I0
ssVheaders
p237
(lp238
sVheadersSize
p239
I721
sVredirectURL
p240
g4
sVbodySize
p241
I34292
sVhttpVersion
p242
VHTTP/1.1
p243
ssa(dp244
Vcomment
p245
g4
sVserverIPAddress
p246
V172.217.6.4
p247
sVpageref
p248
VBoiled Egg
p249
sVstartedDateTime
p250
V2017-04-16T08:45:42.623-05:00
p251
sVcache
p252
(dp253
sVrequest
p254
(dp255
Vcomment
p256
g4
sVcookies
p257
(lp258
sVurl
p259
Vhttps://www.google.com/gen_204?s=mobilewebhp&atyp=csi&ei=hXXzWIPiBOXejwTc4LLwBA&imc=1&imn=1&imp=0&adh=&xjs=init.31.12.sb_mob.23.dvl.3.c.1.jsa.1.mbsf.1&ima=1&rt=xjsls.10,prt.10,iml.10,dcl.56,xjses.132,xjsee.244,xjs.245,ol.373,aft.10,wsrt.212,cst.0,dnst.0,rqst.124,rspt.8,rqstt.61,unt.58,cstt.58,dit.246
p260
sVqueryString
p261
(lp262
(dp263
Vname
p264
g57
sVvalue
p265
Vmobilewebhp
p266
sa(dp267
Vname
p268
Vatyp
p269
sVvalue
p270
Vcsi
p271
sa(dp272
Vname
p273
Vei
p274
sVvalue
p275
VhXXzWIPiBOXejwTc4LLwBA
p276
sa(dp277
Vname
p278
Vimc
p279
sVvalue
p280
g59
sa(dp281
Vname
p282
Vimn
p283
sVvalue
p284
g59
sa(dp285
Vname
p286
Vimp
p287
sVvalue
p288
V0
p289
sa(dp290
Vname
p291
Vadh
p292
sVvalue
p293
g4
sa(dp294
Vname
p295
Vxjs
p296
sVvalue
p297
Vinit.31.12.sb_mob.23.dvl.3.c.1.jsa.1.mbsf.1
p298
sa(dp299
Vname
p300
Vima
p301
sVvalue
p302
g59
sa(dp303
Vname
p304
Vrt
p305
sVvalue
p306
Vxjsls.10,prt.10,iml.10,dcl.56,xjses.132,xjsee.244,xjs.245,ol.373,aft.10,wsrt.212,cst.0,dnst.0,rqst.124,rspt.8,rqstt.61,unt.58,cstt.58,dit.246
p307
sasVheaders
p308
(lp309
sVheadersSize
p310
I829
sVbodySize
p311
I0
sVmethod
p312
VGET
p313
sVhttpVersion
p314
VHTTP/1.1
p315
ssVtimings
p316
(dp317
Vcomment
p318
g4
sVreceive
p319
I0
sVsend
p320
I0
sVssl
p321
I-1
sVconnect
p322
I-1
sVdns
p323
I-1
sVwait
p324
I37
sVblocked
p325
I-1
ssVtime
p326
I37
sVresponse
p327
(dp328
Vstatus
p329
I204
sVcomment
p330
g4
sVcookies
p331
(lp332
sVstatusText
p333
VNo Content
p334
sVcontent
p335
(dp336
VmimeType
p337
Vtext/html; charset=UTF-8
p338
sVcomment
p339
g4
sVsize
p340
I0
ssVheaders
p341
(lp342
sVheadersSize
p343
I248
sVredirectURL
p344
g4
sVbodySize
p345
I0
sVhttpVersion
p346
VHTTP/1.1
p347
ssa(dp348
Vcomment
p349
g4
sVserverIPAddress
p350
V172.217.6.4
p351
sVpageref
p352
VBoiled Egg
p353
sVstartedDateTime
p354
V2017-04-16T08:45:42.727-05:00
p355
sVcache
p356
(dp357
sVrequest
p358
(dp359
Vcomment
p360
g4
sVcookies
p361
(lp362
sVurl
p363
Vhttps://www.google.com/complete/search?client=mobile-gws-hp&hl=en&gs_rn=64&gs_ri=mobile-gws-hp&sla=1&pfq=big%20mac&gm=602&cp=0&gs_id=1&xhr=t&q=B&tch=1&ech=1&psi=hXXzWIPiBOXejwTc4LLwBA.1492350342456.1
p364
sVqueryString
p365
(lp366
(dp367
Vname
p368
Vclient
p369
sVvalue
p370
Vmobile-gws-hp
p371
sa(dp372
Vname
p373
Vhl
p374
sVvalue
p375
Ven
p376
sa(dp377
Vname
p378
Vgs_rn
p379
sVvalue
p380
V64
p381
sa(dp382
Vname
p383
Vgs_ri
p384
sVvalue
p385
Vmobile-gws-hp
p386
sa(dp387
Vname
p388
Vsla
p389
sVvalue
p390
g59
sa(dp391
Vname
p392
Vpfq
p393
sVvalue
p394
Vbig mac
p395
sa(dp396
Vname
p397
Vgm
p398
sVvalue
p399
V602
p400
sa(dp401
Vname
p402
Vcp
p403
sVvalue
p404
g289
sa(dp405
Vname
p406
Vgs_id
p407
sVvalue
p408
g59
sa(dp409
Vname
p410
Vxhr
p411
sVvalue
p412
g52
sa(dp413
Vname
p414
Vq
p415
sVvalue
p416
VB
p417
sa(dp418
Vname
p419
Vtch
p420
sVvalue
p421
g59
sa(dp422
Vname
p423
Vech
p424
sVvalue
p425
g59
sa(dp426
Vname
p427
Vpsi
p428
sVvalue
p429
VhXXzWIPiBOXejwTc4LLwBA.1492350342456.1
p430
sasVheaders
p431
(lp432
sVheadersSize
p433
I727
sVbodySize
p434
I0
sVmethod
p435
VGET
p436
sVhttpVersion
p437
VHTTP/1.1
p438
ssVtimings
p439
(dp440
Vcomment
p441
g4
sVreceive
p442
I0
sVsend
p443
I0
sVssl
p444
I-1
sVconnect
p445
I-1
sVdns
p446
I-1
sVwait
p447
I0
sVblocked
p448
I-1
ssVtime
p449
I0
sVresponse
p450
(dp451
Vstatus
p452
I0
sVcomment
p453
g4
sVcookies
p454
(lp455
sV_error
p456
VNo response received
p457
sVstatusText
p458
g4
sVcontent
p459
(dp460
VmimeType
p461
g4
sVcomment
p462
g4
sVsize
p463
I0
ssVheaders
p464
(lp465
sVheadersSize
p466
I-1
sVredirectURL
p467
g4
sVbodySize
p468
I-1
sVhttpVersion
p469
Vunknown
p470
ssa(dp471
Vcomment
p472
g4
sVserverIPAddress
p473
V172.217.6.4
p474
sVpageref
p475
VBoiled Egg
p476
sVstartedDateTime
p477
V2017-04-16T08:45:42.794-05:00
p478
sVcache
p479
(dp480
sVrequest
p481
(dp482
Vcomment
p483
g4
sVcookies
p484
(lp485
sVurl
p486
Vhttps://www.google.com/search?site=&source=hp&ei=hXXzWIPiBOXejwTc4LLwBA&q=Boiled+Egg&oq=Boiled+Egg&gs_l=mobile-gws-hp.3...245.273.0.308.10.1.0.0.0.0.0.0..0.0....0...1c.1.64.mobile-gws-hp..10.0.0._9EVovPOxkw
p487
sVqueryString
p488
(lp489
(dp490
Vname
p491
Vsite
p492
sVvalue
p493
g4
sa(dp494
Vname
p495
Vsource
p496
sVvalue
p497
Vhp
p498
sa(dp499
Vname
p500
Vei
p501
sVvalue
p502
VhXXzWIPiBOXejwTc4LLwBA
p503
sa(dp504
Vname
p505
g415
sVvalue
p506
VBoiled Egg
p507
sa(dp508
Vname
p509
Voq
p510
sVvalue
p511
VBoiled Egg
p512
sa(dp513
Vname
p514
Vgs_l
p515
sVvalue
p516
Vmobile-gws-hp.3...245.273.0.308.10.1.0.0.0.0.0.0..0.0....0...1c.1.64.mobile-gws-hp..10.0.0._9EVovPOxkw
p517
sasVheaders
p518
(lp519
sVheadersSize
p520
I824
sVbodySize
p521
I0
sVmethod
p522
VGET
p523
sVhttpVersion
p524
VHTTP/1.1
p525
ssVtimings
p526
(dp527
Vcomment
p528
g4
sVreceive
p529
I1080
sVsend
p530
I0
sVssl
p531
I-1
sVconnect
p532
I-1
sVdns
p533
I-1
sVwait
p534
I118
sVblocked
p535
I-1
ssVtime
p536
I1198
sVresponse
p537
(dp538
Vstatus
p539
I200
sVcomment
p540
g4
sVcookies
p541
(lp542
sVstatusText
p543
VOK
p544
sVcontent
p545
(dp546
VmimeType
p547
Vtext/html; charset=UTF-8
p548
sVcomment
p549
g4
sVsize
p550
I0
ssVheaders
p551
(lp552
sVheadersSize
p553
I363
sVredirectURL
p554
g4
sVbodySize
p555
I138744
sVhttpVersion
p556
VHTTP/1.1
p557
ssa(dp558
Vcomment
p559
g4
sVserverIPAddress
p560
V172.217.6.4
p561
sVpageref
p562
VBoiled Egg
p563
sVstartedDateTime
p564
V2017-04-16T08:45:45.111-05:00
p565
sVcache
p566
(dp567
sVrequest
p568
(dp569
Vcomment
p570
g4
sVcookies
p571
(lp572
sVurl
p573
Vhttps://www.google.com/async/irc?vet=10ahUKEwjzoYKgjqnTAhWl0YMKHTnzCtAQo0EIlQI..i&ved=0ahUKEwjzoYKgjqnTAhWl0YMKHTnzCtAQo0EIlQI&ei=hXXzWLPLL6WjjwS55quADQ&yv=2&async=iu:1,ved:0ahUKEwjzoYKgjqnTAhWl0YMKHTnzCtAQo0EIlQI,_id:irc_async,_pms:qs
p574
sVqueryString
p575
(lp576
(dp577
Vname
p578
Vvet
p579
sVvalue
p580
V10ahUKEwjzoYKgjqnTAhWl0YMKHTnzCtAQo0EIlQI..i
p581
sa(dp582
Vname
p583
Vved
p584
sVvalue
p585
V0ahUKEwjzoYKgjqnTAhWl0YMKHTnzCtAQo0EIlQI
p586
sa(dp587
Vname
p588
Vei
p589
sVvalue
p590
VhXXzWLPLL6WjjwS55quADQ
p591
sa(dp592
Vname
p593
Vyv
p594
sVvalue
p595
g64
sa(dp596
Vname
p597
Vasync
p598
sVvalue
p599
Viu:1,ved:0ahUKEwjzoYKgjqnTAhWl0YMKHTnzCtAQo0EIlQI,_id:irc_async,_pms:qs
p600
sasVheaders
p601
(lp602
sVheadersSize
p603
I752
sVbodySize
p604
I0
sVmethod
p605
VGET
p606
sVhttpVersion
p607
VHTTP/1.1
p608
ssVtimings
p609
(dp610
Vcomment
p611
g4
sVreceive
p612
I8
sVsend
p613
I0
sVssl
p614
I-1
sVconnect
p615
I-1
sVdns
p616
I-1
sVwait
p617
I39
sVblocked
p618
I-1
ssVtime
p619
I48
sVresponse
p620
(dp621
Vstatus
p622
I200
sVcomment
p623
g4
sVcookies
p624
(lp625
sVstatusText
p626
VOK
p627
sVcontent
p628
(dp629
VmimeType
p630
Vtext/html; charset=UTF-8
p631
sVcomment
p632
g4
sVsize
p633
I0
ssVheaders
p634
(lp635
sVheadersSize
p636
I383
sVredirectURL
p637
g4
sVbodySize
p638
I7789
sVhttpVersion
p639
VHTTP/1.1
p640
ssa(dp641
Vcomment
p642
g4
sVserverIPAddress
p643
V172.217.6.4
p644
sVpageref
p645
VBoiled Egg
p646
sVstartedDateTime
p647
V2017-04-16T08:45:45.122-05:00
p648
sVcache
p649
(dp650
sVrequest
p651
(dp652
Vcomment
p653
g4
sVcookies
p654
(lp655
sVurl
p656
Vhttps://www.google.com/gen_204?atyp=i&ct=&cad=&vet=10ahUKEwjzoYKgjqnTAhWl0YMKHTnzCtAQ5W0IbCgC..s&ei=hXXzWLPLL6WjjwS55quADQ&zx=1492350345120
p657
sVqueryString
p658
(lp659
(dp660
Vname
p661
Vatyp
p662
sVvalue
p663
g30
sa(dp664
Vname
p665
Vct
p666
sVvalue
p667
g4
sa(dp668
Vname
p669
Vcad
p670
sVvalue
p671
g4
sa(dp672
Vname
p673
Vvet
p674
sVvalue
p675
V10ahUKEwjzoYKgjqnTAhWl0YMKHTnzCtAQ5W0IbCgC..s
p676
sa(dp677
Vname
p678
Vei
p679
sVvalue
p680
VhXXzWLPLL6WjjwS55quADQ
p681
sa(dp682
Vname
p683
Vzx
p684
sVvalue
p685
V1492350345120
p686
sasVheaders
p687
(lp688
sVheadersSize
p689
I656
sVbodySize
p690
I0
sVmethod
p691
VGET
p692
sVhttpVersion
p693
VHTTP/1.1
p694
ssVtimings
p695
(dp696
Vcomment
p697
g4
sVreceive
p698
I0
sVsend
p699
I0
sVssl
p700
I-1
sVconnect
p701
I-1
sVdns
p702
I-1
sVwait
p703
I52
sVblocked
p704
I-1
ssVtime
p705
I52
sVresponse
p706
(dp707
Vstatus
p708
I204
sVcomment
p709
g4
sVcookies
p710
(lp711
sVstatusText
p712
VNo Content
p713
sVcontent
p714
(dp715
VmimeType
p716
Vtext/html; charset=UTF-8
p717
sVcomment
p718
g4
sVsize
p719
I0
ssVheaders
p720
(lp721
sVheadersSize
p722
I248
sVredirectURL
p723
g4
sVbodySize
p724
I0
sVhttpVersion
p725
VHTTP/1.1
p726
ssa(dp727
Vcomment
p728
g4
sVserverIPAddress
p729
V172.217.6.4
p730
sVpageref
p731
VBoiled Egg
p732
sVstartedDateTime
p733
V2017-04-16T08:45:45.123-05:00
p734
sVcache
p735
(dp736
sVrequest
p737
(dp738
Vcomment
p739
g4
sVcookies
p740
(lp741
sVurl
p742
Vhttps://www.google.com/gen_204?atyp=i&ct=&cad=&vet=10ahUKEwjzoYKgjqnTAhWl0YMKHTnzCtAQ5W0IbygD..s&ei=hXXzWLPLL6WjjwS55quADQ&zx=1492350345122
p743
sVqueryString
p744
(lp745
(dp746
Vname
p747
Vatyp
p748
sVvalue
p749
g30
sa(dp750
Vname
p751
Vct
p752
sVvalue
p753
g4
sa(dp754
Vname
p755
Vcad
p756
sVvalue
p757
g4
sa(dp758
Vname
p759
Vvet
p760
sVvalue
p761
V10ahUKEwjzoYKgjqnTAhWl0YMKHTnzCtAQ5W0IbygD..s
p762
sa(dp763
Vname
p764
Vei
p765
sVvalue
p766
VhXXzWLPLL6WjjwS55quADQ
p767
sa(dp768
Vname
p769
Vzx
p770
sVvalue
p771
V1492350345122
p772
sasVheaders
p773
(lp774
sVheadersSize
p775
I656
sVbodySize
p776
I0
sVmethod
p777
VGET
p778
sVhttpVersion
p779
VHTTP/1.1
p780
ssVtimings
p781
(dp782
Vcomment
p783
g4
sVreceive
p784
I0
sVsend
p785
I0
sVssl
p786
I-1
sVconnect
p787
I-1
sVdns
p788
I-1
sVwait
p789
I50
sVblocked
p790
I-1
ssVtime
p791
I50
sVresponse
p792
(dp793
Vstatus
p794
I204
sVcomment
p795
g4
sVcookies
p796
(lp797
sVstatusText
p798
VNo Content
p799
sVcontent
p800
(dp801
VmimeType
p802
Vtext/html; charset=UTF-8
p803
sVcomment
p804
g4
sVsize
p805
I0
ssVheaders
p806
(lp807
sVheadersSize
p808
I248
sVredirectURL
p809
g4
sVbodySize
p810
I0
sVhttpVersion
p811
VHTTP/1.1
p812
ssa(dp813
Vcomment
p814
g4
sVserverIPAddress
p815
V172.217.6.4
p816
sVpageref
p817
VBoiled Egg
p818
sVstartedDateTime
p819
V2017-04-16T08:45:45.125-05:00
p820
sVcache
p821
(dp822
sVrequest
p823
(dp824
Vcomment
p825
g4
sVcookies
p826
(lp827
sVurl
p828
Vhttps://www.google.com/gen_204?atyp=i&ct=&cad=&vet=10ahUKEwjzoYKgjqnTAhWl0YMKHTnzCtAQ5W0IcigE..s&ei=hXXzWLPLL6WjjwS55quADQ&zx=1492350345124
p829
sVqueryString
p830
(lp831
(dp832
Vname
p833
Vatyp
p834
sVvalue
p835
g30
sa(dp836
Vname
p837
Vct
p838
sVvalue
p839
g4
sa(dp840
Vname
p841
Vcad
p842
sVvalue
p843
g4
sa(dp844
Vname
p845
Vvet
p846
sVvalue
p847
V10ahUKEwjzoYKgjqnTAhWl0YMKHTnzCtAQ5W0IcigE..s
p848
sa(dp849
Vname
p850
Vei
p851
sVvalue
p852
VhXXzWLPLL6WjjwS55quADQ
p853
sa(dp854
Vname
p855
Vzx
p856
sVvalue
p857
V1492350345124
p858
sasVheaders
p859
(lp860
sVheadersSize
p861
I656
sVbodySize
p862
I0
sVmethod
p863
VGET
p864
sVhttpVersion
p865
VHTTP/1.1
p866
ssVtimings
p867
(dp868
Vcomment
p869
g4
sVreceive
p870
I0
sVsend
p871
I0
sVssl
p872
I-1
sVconnect
p873
I-1
sVdns
p874
I-1
sVwait
p875
I46
sVblocked
p876
I-1
ssVtime
p877
I46
sVresponse
p878
(dp879
Vstatus
p880
I204
sVcomment
p881
g4
sVcookies
p882
(lp883
sVstatusText
p884
VNo Content
p885
sVcontent
p886
(dp887
VmimeType
p888
Vtext/html; charset=UTF-8
p889
sVcomment
p890
g4
sVsize
p891
I0
ssVheaders
p892
(lp893
sVheadersSize
p894
I248
sVredirectURL
p895
g4
sVbodySize
p896
I0
sVhttpVersion
p897
VHTTP/1.1
p898
ssa(dp899
Vcomment
p900
g4
sVserverIPAddress
p901
V172.217.6.4
p902
sVpageref
p903
VBoiled Egg
p904
sVstartedDateTime
p905
V2017-04-16T08:45:45.265-05:00
p906
sVcache
p907
(dp908
sVrequest
p909
(dp910
Vcomment
p911
g4
sVcookies
p912
(lp913
sVurl
p914
Vhttps://www.google.com/async/ampfp?vet=10ahUKEwjzoYKgjqnTAhWl0YMKHTnzCtAQtZoBCJMC..i&ei=hXXzWLPLL6WjjwS55quADQ&yv=2&async=_id:ampfp-async,_pms:qs
p915
sVqueryString
p916
(lp917
(dp918
Vname
p919
Vvet
p920
sVvalue
p921
V10ahUKEwjzoYKgjqnTAhWl0YMKHTnzCtAQtZoBCJMC..i
p922
sa(dp923
Vname
p924
Vei
p925
sVvalue
p926
VhXXzWLPLL6WjjwS55quADQ
p927
sa(dp928
Vname
p929
Vyv
p930
sVvalue
p931
g64
sa(dp932
Vname
p933
Vasync
p934
sVvalue
p935
V_id:ampfp-async,_pms:qs
p936
sasVheaders
p937
(lp938
sVheadersSize
p939
I662
sVbodySize
p940
I0
sVmethod
p941
VGET
p942
sVhttpVersion
p943
VHTTP/1.1
p944
ssVtimings
p945
(dp946
Vcomment
p947
g4
sVreceive
p948
I2
sVsend
p949
I0
sVssl
p950
I-1
sVconnect
p951
I-1
sVdns
p952
I-1
sVwait
p953
I39
sVblocked
p954
I-1
ssVtime
p955
I42
sVresponse
p956
(dp957
Vstatus
p958
I200
sVcomment
p959
g4
sVcookies
p960
(lp961
sVstatusText
p962
VOK
p963
sVcontent
p964
(dp965
VmimeType
p966
Vtext/html; charset=UTF-8
p967
sVcomment
p968
g4
sVsize
p969
I0
ssVheaders
p970
(lp971
sVheadersSize
p972
I383
sVredirectURL
p973
g4
sVbodySize
p974
I4527
sVhttpVersion
p975
VHTTP/1.1
p976
ssa(dp977
Vcomment
p978
g4
sVserverIPAddress
p979
V216.58.216.193
p980
sVpageref
p981
VBoiled Egg
p982
sVstartedDateTime
p983
V2017-04-16T08:45:45.266-05:00
p984
sVcache
p985
(dp986
sVrequest
p987
(dp988
Vcomment
p989
g4
sVcookies
p990
(lp991
sVurl
p992
Vhttps://cdn.ampproject.org/preconnect.gif?0.8689161832227994
p993
sVqueryString
p994
(lp995
(dp996
Vname
p997
V0.8689161832227994
p998
sVvalue
p999
g4
sasVheaders
p1000
(lp1001
sVheadersSize
p1002
I375
sVbodySize
p1003
I0
sVmethod
p1004
VGET
p1005
sVhttpVersion
p1006
VHTTP/1.1
p1007
ssVtimings
p1008
(dp1009
Vcomment
p1010
g4
sVreceive
p1011
I0
sVsend
p1012
I0
sVssl
p1013
I-1
sVconnect
p1014
I-1
sVdns
p1015
I-1
sVwait
p1016
I29
sVblocked
p1017
I-1
ssVtime
p1018
I30
sVresponse
p1019
(dp1020
Vstatus
p1021
I200
sVcomment
p1022
g4
sVcookies
p1023
(lp1024
sVstatusText
p1025
VOK
p1026
sVcontent
p1027
(dp1028
VmimeType
p1029
Vimage/gif
p1030
sVcomment
p1031
g4
sVsize
p1032
I0
ssVheaders
p1033
(lp1034
sVheadersSize
p1035
I826
sVredirectURL
p1036
g4
sVbodySize
p1037
I37
sVhttpVersion
p1038
VHTTP/1.1
p1039
ssa(dp1040
Vcomment
p1041
g4
sVserverIPAddress
p1042
V216.58.216.206
p1043
sVpageref
p1044
VBoiled Egg
p1045
sVstartedDateTime
p1046
V2017-04-16T08:45:45.289-05:00
p1047
sVcache
p1048
(dp1049
sVrequest
p1050
(dp1051
Vcomment
p1052
g4
sVcookies
p1053
(lp1054
sVurl
p1055
Vhttps://encrypted-tbn2.gstatic.com/images?q=tbn:ANd9GcSsmVU6roSHf3wrJlmxQ46g0J776JvVAb_h5Je_J1wXXUCKYzdhnddhwP8n
p1056
sVqueryString
p1057
(lp1058
(dp1059
Vname
p1060
g415
sVvalue
p1061
Vtbn:ANd9GcSsmVU6roSHf3wrJlmxQ46g0J776JvVAb_h5Je_J1wXXUCKYzdhnddhwP8n
p1062
sasVheaders
p1063
(lp1064
sVheadersSize
p1065
I427
sVbodySize
p1066
I0
sVmethod
p1067
VGET
p1068
sVhttpVersion
p1069
VHTTP/1.1
p1070
ssVtimings
p1071
(dp1072
Vcomment
p1073
g4
sVreceive
p1074
I2
sVsend
p1075
I0
sVssl
p1076
I-1
sVconnect
p1077
I-1
sVdns
p1078
I-1
sVwait
p1079
I25
sVblocked
p1080
I-1
ssVtime
p1081
I28
sVresponse
p1082
(dp1083
Vstatus
p1084
I200
sVcomment
p1085
g4
sVcookies
p1086
(lp1087
sVstatusText
p1088
VOK
p1089
sVcontent
p1090
(dp1091
VmimeType
p1092
Vimage/jpeg
p1093
sVcomment
p1094
g4
sVsize
p1095
I0
ssVheaders
p1096
(lp1097
sVheadersSize
p1098
I428
sVredirectURL
p1099
g4
sVbodySize
p1100
I4240
sVhttpVersion
p1101
VHTTP/1.1
p1102
ssa(dp1103
Vcomment
p1104
g4
sVserverIPAddress
p1105
V216.58.216.206
p1106
sVpageref
p1107
VBoiled Egg
p1108
sVstartedDateTime
p1109
V2017-04-16T08:45:45.289-05:00
p1110
sVcache
p1111
(dp1112
sVrequest
p1113
(dp1114
Vcomment
p1115
g4
sVcookies
p1116
(lp1117
sVurl
p1118
Vhttps://encrypted-tbn3.gstatic.com/images?q=tbn:ANd9GcSj7CVD68bd3Ecq-fPy-T_dhTxN3H4iRzy2c5j-gav-Jmataf9Bkvbz_nkiPg
p1119
sVqueryString
p1120
(lp1121
(dp1122
Vname
p1123
g415
sVvalue
p1124
Vtbn:ANd9GcSj7CVD68bd3Ecq-fPy-T_dhTxN3H4iRzy2c5j-gav-Jmataf9Bkvbz_nkiPg
p1125
sasVheaders
p1126
(lp1127
sVheadersSize
p1128
I429
sVbodySize
p1129
I0
sVmethod
p1130
VGET
p1131
sVhttpVersion
p1132
VHTTP/1.1
p1133
ssVtimings
p1134
(dp1135
Vcomment
p1136
g4
sVreceive
p1137
I1
sVsend
p1138
I0
sVssl
p1139
I-1
sVconnect
p1140
I-1
sVdns
p1141
I-1
sVwait
p1142
I28
sVblocked
p1143
I-1
ssVtime
p1144
I30
sVresponse
p1145
(dp1146
Vstatus
p1147
I200
sVcomment
p1148
g4
sVcookies
p1149
(lp1150
sVstatusText
p1151
VOK
p1152
sVcontent
p1153
(dp1154
VmimeType
p1155
Vimage/jpeg
p1156
sVcomment
p1157
g4
sVsize
p1158
I0
ssVheaders
p1159
(lp1160
sVheadersSize
p1161
I428
sVredirectURL
p1162
g4
sVbodySize
p1163
I7058
sVhttpVersion
p1164
VHTTP/1.1
p1165
ssa(dp1166
Vcomment
p1167
g4
sVserverIPAddress
p1168
V216.58.216.206
p1169
sVpageref
p1170
VBoiled Egg
p1171
sVstartedDateTime
p1172
V2017-04-16T08:45:45.380-05:00
p1173
sVcache
p1174
(dp1175
sVrequest
p1176
(dp1177
Vcomment
p1178
g4
sVcookies
p1179
(lp1180
sVurl
p1181
Vhttps://encrypted-tbn0.gstatic.com/images?q=tbn:ANd9GcS5TRfoGTQu1hF7OTx8CR6LoZasXqqCFsWEqZKtknBpJvP5WEID6H6p4o3idg
p1182
sVqueryString
p1183
(lp1184
(dp1185
Vname
p1186
g415
sVvalue
p1187
Vtbn:ANd9GcS5TRfoGTQu1hF7OTx8CR6LoZasXqqCFsWEqZKtknBpJvP5WEID6H6p4o3idg
p1188
sasVheaders
p1189
(lp1190
sVheadersSize
p1191
I429
sVbodySize
p1192
I0
sVmethod
p1193
VGET
p1194
sVhttpVersion
p1195
VHTTP/1.1
p1196
ssVtimings
p1197
(dp1198
Vcomment
p1199
g4
sVreceive
p1200
I0
sVsend
p1201
I0
sVssl
p1202
I22
sVconnect
p1203
I46
sVdns
p1204
I41
sVwait
p1205
I42
sVblocked
p1206
I0
ssVtime
p1207
I130
sVresponse
p1208
(dp1209
Vstatus
p1210
I200
sVcomment
p1211
g4
sVcookies
p1212
(lp1213
sVstatusText
p1214
VOK
p1215
sVcontent
p1216
(dp1217
VmimeType
p1218
Vimage/jpeg
p1219
sVcomment
p1220
g4
sVsize
p1221
I0
ssVheaders
p1222
(lp1223
sVheadersSize
p1224
I428
sVredirectURL
p1225
g4
sVbodySize
p1226
I2999
sVhttpVersion
p1227
VHTTP/1.1
p1228
ssa(dp1229
Vcomment
p1230
g4
sVserverIPAddress
p1231
V172.217.6.4
p1232
sVpageref
p1233
VBoiled Egg
p1234
sVstartedDateTime
p1235
V2017-04-16T08:45:45.458-05:00
p1236
sVcache
p1237
(dp1238
sVrequest
p1239
(dp1240
Vcomment
p1241
g4
sVcookies
p1242
(lp1243
sVurl
p1244
Vhttps://www.google.com/async/log_amp_item_set?vet=10ahUKEwin85ihjqnTAhWF6IMKHUorBcQQooQBCAE..i&ei=hXXzWLPLL6WjjwS55quADQ&yv=2&async=num_items:1,_fmt:jspb
p1245
sVqueryString
p1246
(lp1247
(dp1248
Vname
p1249
Vvet
p1250
sVvalue
p1251
V10ahUKEwin85ihjqnTAhWF6IMKHUorBcQQooQBCAE..i
p1252
sa(dp1253
Vname
p1254
Vei
p1255
sVvalue
p1256
VhXXzWLPLL6WjjwS55quADQ
p1257
sa(dp1258
Vname
p1259
Vyv
p1260
sVvalue
p1261
g64
sa(dp1262
Vname
p1263
Vasync
p1264
sVvalue
p1265
Vnum_items:1,_fmt:jspb
p1266
sasVheaders
p1267
(lp1268
sVheadersSize
p1269
I670
sVbodySize
p1270
I0
sVmethod
p1271
VGET
p1272
sVhttpVersion
p1273
VHTTP/1.1
p1274
ssVtimings
p1275
(dp1276
Vcomment
p1277
g4
sVreceive
p1278
I0
sVsend
p1279
I0
sVssl
p1280
I-1
sVconnect
p1281
I-1
sVdns
p1282
I-1
sVwait
p1283
I42
sVblocked
p1284
I-1
ssVtime
p1285
I42
sVresponse
p1286
(dp1287
Vstatus
p1288
I200
sVcomment
p1289
g4
sVcookies
p1290
(lp1291
sVstatusText
p1292
VOK
p1293
sVcontent
p1294
(dp1295
VmimeType
p1296
Vapplication/json; charset=UTF-8
p1297
sVcomment
p1298
g4
sVsize
p1299
I0
ssVheaders
p1300
(lp1301
sVheadersSize
p1302
I417
sVredirectURL
p1303
g4
sVbodySize
p1304
I132
sVhttpVersion
p1305
VHTTP/1.1
p1306
ssa(dp1307
Vcomment
p1308
g4
sVserverIPAddress
p1309
V172.217.6.4
p1310
sVpageref
p1311
VBoiled Egg
p1312
sVstartedDateTime
p1313
V2017-04-16T08:45:45.540-05:00
p1314
sVcache
p1315
(dp1316
sVrequest
p1317
(dp1318
Vcomment
p1319
g4
sVcookies
p1320
(lp1321
sVurl
p1322
Vhttps://www.google.com/gen_204?atyp=i&ct=&cad=&vet=10ahUKEwjzoYKgjqnTAhWl0YMKHTnzCtAQ5W0IeCgG..s&ei=hXXzWLPLL6WjjwS55quADQ&zx=1492350345132
p1323
sVqueryString
p1324
(lp1325
(dp1326
Vname
p1327
Vatyp
p1328
sVvalue
p1329
g30
sa(dp1330
Vname
p1331
Vct
p1332
sVvalue
p1333
g4
sa(dp1334
Vname
p1335
Vcad
p1336
sVvalue
p1337
g4
sa(dp1338
Vname
p1339
Vvet
p1340
sVvalue
p1341
V10ahUKEwjzoYKgjqnTAhWl0YMKHTnzCtAQ5W0IeCgG..s
p1342
sa(dp1343
Vname
p1344
Vei
p1345
sVvalue
p1346
VhXXzWLPLL6WjjwS55quADQ
p1347
sa(dp1348
Vname
p1349
Vzx
p1350
sVvalue
p1351
V1492350345132
p1352
sasVheaders
p1353
(lp1354
sVheadersSize
p1355
I656
sVbodySize
p1356
I0
sVmethod
p1357
VGET
p1358
sVhttpVersion
p1359
VHTTP/1.1
p1360
ssVtimings
p1361
(dp1362
Vcomment
p1363
g4
sVreceive
p1364
I0
sVsend
p1365
I0
sVssl
p1366
I19
sVconnect
p1367
I36
sVdns
p1368
I366
sVwait
p1369
I28
sVblocked
p1370
I0
ssVtime
p1371
I432
sVresponse
p1372
(dp1373
Vstatus
p1374
I204
sVcomment
p1375
g4
sVcookies
p1376
(lp1377
sVstatusText
p1378
VNo Content
p1379
sVcontent
p1380
(dp1381
VmimeType
p1382
Vtext/html; charset=UTF-8
p1383
sVcomment
p1384
g4
sVsize
p1385
I0
ssVheaders
p1386
(lp1387
sVheadersSize
p1388
I248
sVredirectURL
p1389
g4
sVbodySize
p1390
I0
sVhttpVersion
p1391
VHTTP/1.1
p1392
ssa(dp1393
Vcomment
p1394
g4
sVserverIPAddress
p1395
V172.217.6.4
p1396
sVpageref
p1397
VBoiled Egg
p1398
sVstartedDateTime
p1399
V2017-04-16T08:45:45.541-05:00
p1400
sVcache
p1401
(dp1402
sVrequest
p1403
(dp1404
Vcomment
p1405
g4
sVcookies
p1406
(lp1407
sVurl
p1408
Vhttps://www.google.com/gen_204?atyp=i&ct=&cad=&vet=10ahUKEwjzoYKgjqnTAhWl0YMKHTnzCtAQ5W0IdSgF..s&ei=hXXzWLPLL6WjjwS55quADQ&zx=1492350345127
p1409
sVqueryString
p1410
(lp1411
(dp1412
Vname
p1413
Vatyp
p1414
sVvalue
p1415
g30
sa(dp1416
Vname
p1417
Vct
p1418
sVvalue
p1419
g4
sa(dp1420
Vname
p1421
Vcad
p1422
sVvalue
p1423
g4
sa(dp1424
Vname
p1425
Vvet
p1426
sVvalue
p1427
V10ahUKEwjzoYKgjqnTAhWl0YMKHTnzCtAQ5W0IdSgF..s
p1428
sa(dp1429
Vname
p1430
Vei
p1431
sVvalue
p1432
VhXXzWLPLL6WjjwS55quADQ
p1433
sa(dp1434
Vname
p1435
Vzx
p1436
sVvalue
p1437
V1492350345127
p1438
sasVheaders
p1439
(lp1440
sVheadersSize
p1441
I656
sVbodySize
p1442
I0
sVmethod
p1443
VGET
p1444
sVhttpVersion
p1445
VHTTP/1.1
p1446
ssVtimings
p1447
(dp1448
Vcomment
p1449
g4
sVreceive
p1450
I0
sVsend
p1451
I0
sVssl
p1452
I16
sVconnect
p1453
I36
sVdns
p1454
I371
sVwait
p1455
I27
sVblocked
p1456
I0
ssVtime
p1457
I436
sVresponse
p1458
(dp1459
Vstatus
p1460
I204
sVcomment
p1461
g4
sVcookies
p1462
(lp1463
sVstatusText
p1464
VNo Content
p1465
sVcontent
p1466
(dp1467
VmimeType
p1468
Vtext/html; charset=UTF-8
p1469
sVcomment
p1470
g4
sVsize
p1471
I0
ssVheaders
p1472
(lp1473
sVheadersSize
p1474
I248
sVredirectURL
p1475
g4
sVbodySize
p1476
I0
sVhttpVersion
p1477
VHTTP/1.1
p1478
ssa(dp1479
Vcomment
p1480
g4
sVserverIPAddress
p1481
V216.58.216.193
p1482
sVpageref
p1483
VBoiled Egg
p1484
sVstartedDateTime
p1485
V2017-04-16T08:45:46.839-05:00
p1486
sVcache
p1487
(dp1488
sVrequest
p1489
(dp1490
Vcomment
p1491
g4
sVcookies
p1492
(lp1493
sVurl
p1494
Vhttps://www-simplyrecipes-com.cdn.ampproject.org/v/www.simplyrecipes.com/recipes/how_to_make_perfect_hard_boiled_eggs/amp/?amp_js_v=9
p1495
sVqueryString
p1496
(lp1497
(dp1498
Vname
p1499
Vamp_js_v
p1500
sVvalue
p1501
V9
p1502
sasVheaders
p1503
(lp1504
sVheadersSize
p1505
I538
sVbodySize
p1506
I0
sVmethod
p1507
VGET
p1508
sVhttpVersion
p1509
VHTTP/1.1
p1510
ssVtimings
p1511
(dp1512
Vcomment
p1513
g4
sVreceive
p1514
I0
sVsend
p1515
I0
sVssl
p1516
I1321
sVconnect
p1517
I1336
sVdns
p1518
I36
sVwait
p1519
I77
sVblocked
p1520
I0
ssVtime
p1521
I1451
sVresponse
p1522
(dp1523
Vstatus
p1524
I200
sVcomment
p1525
g4
sVcookies
p1526
(lp1527
sVstatusText
p1528
VOK
p1529
sVcontent
p1530
(dp1531
VmimeType
p1532
Vtext/html
p1533
sVcomment
p1534
g4
sVsize
p1535
I0
ssVheaders
p1536
(lp1537
sVheadersSize
p1538
I862
sVredirectURL
p1539
g4
sVbodySize
p1540
I7061
sVhttpVersion
p1541
VHTTP/1.1
p1542
ssa(dp1543
Vcomment
p1544
g4
sVserverIPAddress
p1545
V216.58.216.202
p1546
sVpageref
p1547
VBoiled Egg
p1548
sVstartedDateTime
p1549
V2017-04-16T08:45:46.928-05:00
p1550
sVcache
p1551
(dp1552
sVrequest
p1553
(dp1554
Vcomment
p1555
g4
sVcookies
p1556
(lp1557
sVurl
p1558
Vhttps://fonts.googleapis.com/css?family=Lato:400,400i,900,900i%7CMerriweather:400,400i,700,700i
p1559
sVqueryString
p1560
(lp1561
(dp1562
Vname
p1563
Vfamily
p1564
sVvalue
p1565
VLato:400,400i,900,900i|Merriweather:400,400i,700,700i
p1566
sasVheaders
p1567
(lp1568
sVheadersSize
p1569
I535
sVbodySize
p1570
I0
sVmethod
p1571
VGET
p1572
sVhttpVersion
p1573
VHTTP/1.1
p1574
ssVtimings
p1575
(dp1576
Vcomment
p1577
g4
sVreceive
p1578
I0
sVsend
p1579
I0
sVssl
p1580
I-1
sVconnect
p1581
I-1
sVdns
p1582
I-1
sVwait
p1583
I41
sVblocked
p1584
I-1
ssVtime
p1585
I41
sVresponse
p1586
(dp1587
Vstatus
p1588
I200
sVcomment
p1589
g4
sVcookies
p1590
(lp1591
sVstatusText
p1592
VOK
p1593
sVcontent
p1594
(dp1595
VmimeType
p1596
Vtext/css; charset=utf-8
p1597
sVcomment
p1598
g4
sVsize
p1599
I0
ssVheaders
p1600
(lp1601
sVheadersSize
p1602
I405
sVredirectURL
p1603
g4
sVbodySize
p1604
I1153
sVhttpVersion
p1605
VHTTP/1.1
p1606
ssa(dp1607
Vcomment
p1608
g4
sVserverIPAddress
p1609
V216.58.216.193
p1610
sVpageref
p1611
VBoiled Egg
p1612
sVstartedDateTime
p1613
V2017-04-16T08:45:46.984-05:00
p1614
sVcache
p1615
(dp1616
sVrequest
p1617
(dp1618
Vcomment
p1619
g4
sVcookies
p1620
(lp1621
sVurl
p1622
Vhttps://www-simplyrecipes-com.cdn.ampproject.org/i/www.simplyrecipes.com/wp-content/themes/simply/assets/i/burger_me_red.svg
p1623
sVqueryString
p1624
(lp1625
sVheaders
p1626
(lp1627
sVheadersSize
p1628
I549
sVbodySize
p1629
I0
sVmethod
p1630
VGET
p1631
sVhttpVersion
p1632
VHTTP/1.1
p1633
ssVtimings
p1634
(dp1635
Vcomment
p1636
g4
sVreceive
p1637
I0
sVsend
p1638
I0
sVssl
p1639
I-1
sVconnect
p1640
I-1
sVdns
p1641
I-1
sVwait
p1642
I26
sVblocked
p1643
I-1
ssVtime
p1644
I27
sVresponse
p1645
(dp1646
Vstatus
p1647
I200
sVcomment
p1648
g4
sVcookies
p1649
(lp1650
sVstatusText
p1651
VOK
p1652
sVcontent
p1653
(dp1654
VmimeType
p1655
Vimage/svg+xml
p1656
sVcomment
p1657
g4
sVsize
p1658
I0
ssVheaders
p1659
(lp1660
sVheadersSize
p1661
I881
sVredirectURL
p1662
g4
sVbodySize
p1663
I182
sVhttpVersion
p1664
VHTTP/1.1
p1665
ssa(dp1666
Vcomment
p1667
g4
sVserverIPAddress
p1668
V216.58.216.193
p1669
sVpageref
p1670
VBoiled Egg
p1671
sVstartedDateTime
p1672
V2017-04-16T08:45:47.020-05:00
p1673
sVcache
p1674
(dp1675
sVrequest
p1676
(dp1677
Vcomment
p1678
g4
sVcookies
p1679
(lp1680
sVurl
p1681
Vhttps://www-simplyrecipes-com.cdn.ampproject.org/i/www.simplyrecipes.com/wp-content/themes/simply/assets/i/news.png
p1682
sVqueryString
p1683
(lp1684
sVheaders
p1685
(lp1686
sVheadersSize
p1687
I540
sVbodySize
p1688
I0
sVmethod
p1689
VGET
p1690
sVhttpVersion
p1691
VHTTP/1.1
p1692
ssVtimings
p1693
(dp1694
Vcomment
p1695
g4
sVreceive
p1696
I0
sVsend
p1697
I0
sVssl
p1698
I-1
sVconnect
p1699
I-1
sVdns
p1700
I-1
sVwait
p1701
I35
sVblocked
p1702
I-1
ssVtime
p1703
I35
sVresponse
p1704
(dp1705
Vstatus
p1706
I200
sVcomment
p1707
g4
sVcookies
p1708
(lp1709
sVstatusText
p1710
VOK
p1711
sVcontent
p1712
(dp1713
VmimeType
p1714
Vimage/png
p1715
sVcomment
p1716
g4
sVsize
p1717
I0
ssVheaders
p1718
(lp1719
sVheadersSize
p1720
I823
sVredirectURL
p1721
g4
sVbodySize
p1722
I302
sVhttpVersion
p1723
VHTTP/1.1
p1724
ssa(dp1725
Vcomment
p1726
g4
sVserverIPAddress
p1727
V216.58.216.195
p1728
sVpageref
p1729
VBoiled Egg
p1730
sVstartedDateTime
p1731
V2017-04-16T08:45:47.020-05:00
p1732
sVcache
p1733
(dp1734
sVrequest
p1735
(dp1736
Vcomment
p1737
g4
sVcookies
p1738
(lp1739
sVurl
p1740
Vhttps://fonts.gstatic.com/s/lato/v13/1KWMyx7m-L0fkQGwYhWwuuvvDin1pK8aKteLpeZ5c0A.woff2
p1741
sVqueryString
p1742
(lp1743
sVheaders
p1744
(lp1745
sVheadersSize
p1746
I585
sVbodySize
p1747
I0
sVmethod
p1748
VGET
p1749
sVhttpVersion
p1750
VHTTP/1.1
p1751
ssVtimings
p1752
(dp1753
Vcomment
p1754
g4
sVreceive
p1755
I0
sVsend
p1756
I0
sVssl
p1757
I-1
sVconnect
p1758
I-1
sVdns
p1759
I-1
sVwait
p1760
I32
sVblocked
p1761
I-1
ssVtime
p1762
I32
sVresponse
p1763
(dp1764
Vstatus
p1765
I200
sVcomment
p1766
g4
sVcookies
p1767
(lp1768
sVstatusText
p1769
VOK
p1770
sVcontent
p1771
(dp1772
VmimeType
p1773
Vfont/woff2
p1774
sVcomment
p1775
g4
sVsize
p1776
I0
ssVheaders
p1777
(lp1778
sVheadersSize
p1779
I432
sVredirectURL
p1780
g4
sVbodySize
p1781
I14668
sVhttpVersion
p1782
VHTTP/1.1
p1783
ssa(dp1784
Vcomment
p1785
g4
sVserverIPAddress
p1786
V216.58.216.195
p1787
sVpageref
p1788
VBoiled Egg
p1789
sVstartedDateTime
p1790
V2017-04-16T08:45:47.027-05:00
p1791
sVcache
p1792
(dp1793
sVrequest
p1794
(dp1795
Vcomment
p1796
g4
sVcookies
p1797
(lp1798
sVurl
p1799
Vhttps://fonts.gstatic.com/s/lato/v13/VNUH7ZAcagYBWsAiBBCEY5Bw1xU1rKptJj_0jans920.woff2
p1800
sVqueryString
p1801
(lp1802
sVheaders
p1803
(lp1804
sVheadersSize
p1805
I585
sVbodySize
p1806
I0
sVmethod
p1807
VGET
p1808
sVhttpVersion
p1809
VHTTP/1.1
p1810
ssVtimings
p1811
(dp1812
Vcomment
p1813
g4
sVreceive
p1814
I0
sVsend
p1815
I0
sVssl
p1816
I-1
sVconnect
p1817
I-1
sVdns
p1818
I-1
sVwait
p1819
I31
sVblocked
p1820
I-1
ssVtime
p1821
I32
sVresponse
p1822
(dp1823
Vstatus
p1824
I200
sVcomment
p1825
g4
sVcookies
p1826
(lp1827
sVstatusText
p1828
VOK
p1829
sVcontent
p1830
(dp1831
VmimeType
p1832
Vfont/woff2
p1833
sVcomment
p1834
g4
sVsize
p1835
I0
ssVheaders
p1836
(lp1837
sVheadersSize
p1838
I454
sVredirectURL
p1839
g4
sVbodySize
p1840
I14332
sVhttpVersion
p1841
VHTTP/1.1
p1842
ssa(dp1843
Vcomment
p1844
g4
sVserverIPAddress
p1845
V216.58.216.193
p1846
sVpageref
p1847
VBoiled Egg
p1848
sVstartedDateTime
p1849
V2017-04-16T08:45:47.068-05:00
p1850
sVcache
p1851
(dp1852
sVrequest
p1853
(dp1854
Vcomment
p1855
g4
sVcookies
p1856
(lp1857
sVurl
p1858
Vhttps://www-simplyrecipes-com.cdn.ampproject.org/i/www.simplyrecipes.com/wp-content/themes/simply/assets/i/pin.png
p1859
sVqueryString
p1860
(lp1861
sVheaders
p1862
(lp1863
sVheadersSize
p1864
I539
sVbodySize
p1865
I0
sVmethod
p1866
VGET
p1867
sVhttpVersion
p1868
VHTTP/1.1
p1869
ssVtimings
p1870
(dp1871
Vcomment
p1872
g4
sVreceive
p1873
I0
sVsend
p1874
I0
sVssl
p1875
I63
sVconnect
p1876
I78
sVdns
p1877
I0
sVwait
p1878
I36
sVblocked
p1879
I0
ssVtime
p1880
I115
sVresponse
p1881
(dp1882
Vstatus
p1883
I200
sVcomment
p1884
g4
sVcookies
p1885
(lp1886
sVstatusText
p1887
VOK
p1888
sVcontent
p1889
(dp1890
VmimeType
p1891
Vimage/png
p1892
sVcomment
p1893
g4
sVsize
p1894
I0
ssVheaders
p1895
(lp1896
sVheadersSize
p1897
I823
sVredirectURL
p1898
g4
sVbodySize
p1899
I481
sVhttpVersion
p1900
VHTTP/1.1
p1901
ssa(dp1902
Vcomment
p1903
g4
sVserverIPAddress
p1904
V216.58.216.193
p1905
sVpageref
p1906
VBoiled Egg
p1907
sVstartedDateTime
p1908
V2017-04-16T08:45:47.069-05:00
p1909
sVcache
p1910
(dp1911
sVrequest
p1912
(dp1913
Vcomment
p1914
g4
sVcookies
p1915
(lp1916
sVurl
p1917
Vhttps://www-simplyrecipes-com.cdn.ampproject.org/i/www.simplyrecipes.com/wp-content/themes/simply/assets/i/insta.png
p1918
sVqueryString
p1919
(lp1920
sVheaders
p1921
(lp1922
sVheadersSize
p1923
I541
sVbodySize
p1924
I0
sVmethod
p1925
VGET
p1926
sVhttpVersion
p1927
VHTTP/1.1
p1928
ssVtimings
p1929
(dp1930
Vcomment
p1931
g4
sVreceive
p1932
I0
sVsend
p1933
I0
sVssl
p1934
I56
sVconnect
p1935
I78
sVdns
p1936
I0
sVwait
p1937
I35
sVblocked
p1938
I0
ssVtime
p1939
I113
sVresponse
p1940
(dp1941
Vstatus
p1942
I200
sVcomment
p1943
g4
sVcookies
p1944
(lp1945
sVstatusText
p1946
VOK
p1947
sVcontent
p1948
(dp1949
VmimeType
p1950
Vimage/png
p1951
sVcomment
p1952
g4
sVsize
p1953
I0
ssVheaders
p1954
(lp1955
sVheadersSize
p1956
I823
sVredirectURL
p1957
g4
sVbodySize
p1958
I343
sVhttpVersion
p1959
VHTTP/1.1
p1960
ssa(dp1961
Vcomment
p1962
g4
sVserverIPAddress
p1963
V216.58.216.193
p1964
sVpageref
p1965
VBoiled Egg
p1966
sVstartedDateTime
p1967
V2017-04-16T08:45:47.069-05:00
p1968
sVcache
p1969
(dp1970
sVrequest
p1971
(dp1972
Vcomment
p1973
g4
sVcookies
p1974
(lp1975
sVurl
p1976
Vhttps://www-simplyrecipes-com.cdn.ampproject.org/i/www.simplyrecipes.com/wp-content/themes/simply/assets/i/snap.png
p1977
sVqueryString
p1978
(lp1979
sVheaders
p1980
(lp1981
sVheadersSize
p1982
I540
sVbodySize
p1983
I0
sVmethod
p1984
VGET
p1985
sVhttpVersion
p1986
VHTTP/1.1
p1987
ssVtimings
p1988
(dp1989
Vcomment
p1990
g4
sVreceive
p1991
I0
sVsend
p1992
I0
sVssl
p1993
I56
sVconnect
p1994
I78
sVdns
p1995
I0
sVwait
p1996
I28
sVblocked
p1997
I0
ssVtime
p1998
I107
sVresponse
p1999
(dp2000
Vstatus
p2001
I200
sVcomment
p2002
g4
sVcookies
p2003
(lp2004
sVstatusText
p2005
VOK
p2006
sVcontent
p2007
(dp2008
VmimeType
p2009
Vimage/png
p2010
sVcomment
p2011
g4
sVsize
p2012
I0
ssVheaders
p2013
(lp2014
sVheadersSize
p2015
I823
sVredirectURL
p2016
g4
sVbodySize
p2017
I373
sVhttpVersion
p2018
VHTTP/1.1
p2019
ssa(dp2020
Vcomment
p2021
g4
sVserverIPAddress
p2022
V216.58.216.193
p2023
sVpageref
p2024
VBoiled Egg
p2025
sVstartedDateTime
p2026
V2017-04-16T08:45:47.070-05:00
p2027
sVcache
p2028
(dp2029
sVrequest
p2030
(dp2031
Vcomment
p2032
g4
sVcookies
p2033
(lp2034
sVurl
p2035
Vhttps://www-simplyrecipes-com.cdn.ampproject.org/i/www.simplyrecipes.com/wp-content/themes/simply/assets/i/tw.png
p2036
sVqueryString
p2037
(lp2038
sVheaders
p2039
(lp2040
sVheadersSize
p2041
I538
sVbodySize
p2042
I0
sVmethod
p2043
VGET
p2044
sVhttpVersion
p2045
VHTTP/1.1
p2046
ssVtimings
p2047
(dp2048
Vcomment
p2049
g4
sVreceive
p2050
I0
sVsend
p2051
I0
sVssl
p2052
I60
sVconnect
p2053
I78
sVdns
p2054
I0
sVwait
p2055
I34
sVblocked
p2056
I0
ssVtime
p2057
I113
sVresponse
p2058
(dp2059
Vstatus
p2060
I200
sVcomment
p2061
g4
sVcookies
p2062
(lp2063
sVstatusText
p2064
VOK
p2065
sVcontent
p2066
(dp2067
VmimeType
p2068
Vimage/png
p2069
sVcomment
p2070
g4
sVsize
p2071
I0
ssVheaders
p2072
(lp2073
sVheadersSize
p2074
I823
sVredirectURL
p2075
g4
sVbodySize
p2076
I392
sVhttpVersion
p2077
VHTTP/1.1
p2078
ssa(dp2079
Vcomment
p2080
g4
sVserverIPAddress
p2081
V216.58.216.193
p2082
sVpageref
p2083
VBoiled Egg
p2084
sVstartedDateTime
p2085
V2017-04-16T08:45:47.072-05:00
p2086
sVcache
p2087
(dp2088
sVrequest
p2089
(dp2090
Vcomment
p2091
g4
sVcookies
p2092
(lp2093
sVurl
p2094
Vhttps://www-simplyrecipes-com.cdn.ampproject.org/i/www.simplyrecipes.com/wp-content/themes/simply/assets/i/fb.png
p2095
sVqueryString
p2096
(lp2097
sVheaders
p2098
(lp2099
sVheadersSize
p2100
I538
sVbodySize
p2101
I0
sVmethod
p2102
VGET
p2103
sVhttpVersion
p2104
VHTTP/1.1
p2105
ssVtimings
p2106
(dp2107
Vcomment
p2108
g4
sVreceive
p2109
I0
sVsend
p2110
I0
sVssl
p2111
I60
sVconnect
p2112
I80
sVdns
p2113
I0
sVwait
p2114
I32
sVblocked
p2115
I0
ssVtime
p2116
I113
sVresponse
p2117
(dp2118
Vstatus
p2119
I200
sVcomment
p2120
g4
sVcookies
p2121
(lp2122
sVstatusText
p2123
VOK
p2124
sVcontent
p2125
(dp2126
VmimeType
p2127
Vimage/png
p2128
sVcomment
p2129
g4
sVsize
p2130
I0
ssVheaders
p2131
(lp2132
sVheadersSize
p2133
I823
sVredirectURL
p2134
g4
sVbodySize
p2135
I235
sVhttpVersion
p2136
VHTTP/1.1
p2137
ssa(dp2138
Vcomment
p2139
g4
sVserverIPAddress
p2140
V216.58.216.193
p2141
sVpageref
p2142
VBoiled Egg
p2143
sVstartedDateTime
p2144
V2017-04-16T08:45:47.185-05:00
p2145
sVcache
p2146
(dp2147
sVrequest
p2148
(dp2149
Vcomment
p2150
g4
sVcookies
p2151
(lp2152
sVurl
p2153
Vhttps://www-simplyrecipes-com.cdn.ampproject.org/ii/w330/www.simplyrecipes.com/wp-content/themes/simply/assets/i/logo-full.svg
p2154
sVqueryString
p2155
(lp2156
sVheaders
p2157
(lp2158
sVheadersSize
p2159
I551
sVbodySize
p2160
I0
sVmethod
p2161
VGET
p2162
sVhttpVersion
p2163
VHTTP/1.1
p2164
ssVtimings
p2165
(dp2166
Vcomment
p2167
g4
sVreceive
p2168
I2
sVsend
p2169
I0
sVssl
p2170
I-1
sVconnect
p2171
I-1
sVdns
p2172
I-1
sVwait
p2173
I25
sVblocked
p2174
I-1
ssVtime
p2175
I27
sVresponse
p2176
(dp2177
Vstatus
p2178
I200
sVcomment
p2179
g4
sVcookies
p2180
(lp2181
sVstatusText
p2182
VOK
p2183
sVcontent
p2184
(dp2185
VmimeType
p2186
Vimage/svg+xml
p2187
sVcomment
p2188
g4
sVsize
p2189
I0
ssVheaders
p2190
(lp2191
sVheadersSize
p2192
I881
sVredirectURL
p2193
g4
sVbodySize
p2194
I6105
sVhttpVersion
p2195
VHTTP/1.1
p2196
ssa(dp2197
Vcomment
p2198
g4
sVserverIPAddress
p2199
V172.217.6.4
p2200
sVpageref
p2201
VBoiled Egg
p2202
sVstartedDateTime
p2203
V2017-04-16T08:45:47.365-05:00
p2204
sVcache
p2205
(dp2206
sVrequest
p2207
(dp2208
Vcomment
p2209
g4
sVcookies
p2210
(lp2211
sVurl
p2212
Vhttps://www.google.com/gen_204?atyp=i&ct=slh&cad=&ei=bHXzWNDbFpu6jwTZk434AQ&m=V&t=C&s=1&v=2&pv=0.16029182115853324&me=1:1492350321479,x:1,V,0,0,1280,944:0,N,1,bHXzWNDbFpu6jwTZk434AQ:0,R,1,24,8,155,1249,43:0,R,1,41,8,198,1249,328:0,R,1,43,8,242,1249,284:0,R,1,44,0,242,1265,304:0,R,1,76,8,536,1249,513:0,R,1,77,8,536,1249,513:0,R,1,80,8,549,1249,40:0,R,1,93,8,601,1249,178:0,R,1,96,0,617,1265,197:0,R,1,136,8,796,1249,40:0,R,1,137,24,796,1217,40:2,B,4677:20551,e,U&zx=1492350347361
p2213
sVqueryString
p2214
(lp2215
(dp2216
Vname
p2217
Vatyp
p2218
sVvalue
p2219
g30
sa(dp2220
Vname
p2221
Vct
p2222
sVvalue
p2223
Vslh
p2224
sa(dp2225
Vname
p2226
Vcad
p2227
sVvalue
p2228
g4
sa(dp2229
Vname
p2230
Vei
p2231
sVvalue
p2232
VbHXzWNDbFpu6jwTZk434AQ
p2233
sa(dp2234
Vname
p2235
g47
sVvalue
p2236
g49
sa(dp2237
Vname
p2238
g52
sVvalue
p2239
g54
sa(dp2240
Vname
p2241
g57
sVvalue
p2242
g59
sa(dp2243
Vname
p2244
g62
sVvalue
p2245
g64
sa(dp2246
Vname
p2247
Vpv
p2248
sVvalue
p2249
V0.16029182115853324
p2250
sa(dp2251
Vname
p2252
Vme
p2253
sVvalue
p2254
V1:1492350321479,x:1,V,0,0,1280,944:0,N,1,bHXzWNDbFpu6jwTZk434AQ:0,R,1,24,8,155,1249,43:0,R,1,41,8,198,1249,328:0,R,1,43,8,242,1249,284:0,R,1,44,0,242,1265,304:0,R,1,76,8,536,1249,513:0,R,1,77,8,536,1249,513:0,R,1,80,8,549,1249,40:0,R,1,93,8,601,1249,178:0,R,1,96,0,617,1265,197:0,R,1,136,8,796,1249,40:0,R,1,137,24,796,1217,40:2,B,4677:20551,e,U
p2255
sa(dp2256
Vname
p2257
Vzx
p2258
sVvalue
p2259
V1492350347361
p2260
sasVheaders
p2261
(lp2262
sVheadersSize
p2263
I997
sVbodySize
p2264
I0
sVmethod
p2265
VGET
p2266
sVhttpVersion
p2267
VHTTP/1.1
p2268
ssVtimings
p2269
(dp2270
Vcomment
p2271
g4
sVreceive
p2272
I0
sVsend
p2273
I0
sVssl
p2274
I-1
sVconnect
p2275
I-1
sVdns
p2276
I-1
sVwait
p2277
I29
sVblocked
p2278
I-1
ssVtime
p2279
I29
sVresponse
p2280
(dp2281
Vstatus
p2282
I204
sVcomment
p2283
g4
sVcookies
p2284
(lp2285
sVstatusText
p2286
VNo Content
p2287
sVcontent
p2288
(dp2289
VmimeType
p2290
Vtext/html; charset=UTF-8
p2291
sVcomment
p2292
g4
sVsize
p2293
I0
ssVheaders
p2294
(lp2295
sVheadersSize
p2296
I248
sVredirectURL
p2297
g4
sVbodySize
p2298
I0
sVhttpVersion
p2299
VHTTP/1.1
p2300
ssa(dp2301
Vcomment
p2302
g4
sVserverIPAddress
p2303
V216.58.216.193
p2304
sVpageref
p2305
VBoiled Egg
p2306
sVstartedDateTime
p2307
V2017-04-16T08:45:47.776-05:00
p2308
sVcache
p2309
(dp2310
sVrequest
p2311
(dp2312
Vcomment
p2313
g4
sVcookies
p2314
(lp2315
sVurl
p2316
Vhttps://assets-simplyrecipes-com.cdn.ampproject.org/ii/w1200/assets.simplyrecipes.com/wp-content/uploads/2014/07/hard-boiled-eggs-horiz-800.jpg
p2317
sVqueryString
p2318
(lp2319
sVheaders
p2320
(lp2321
sVheadersSize
p2322
I568
sVbodySize
p2323
I0
sVmethod
p2324
VGET
p2325
sVhttpVersion
p2326
VHTTP/1.1
p2327
ssVtimings
p2328
(dp2329
Vcomment
p2330
g4
sVreceive
p2331
I19
sVsend
p2332
I0
sVssl
p2333
I531
sVconnect
p2334
I550
sVdns
p2335
I34
sVwait
p2336
I29
sVblocked
p2337
I0
ssVtime
p2338
I634
sVresponse
p2339
(dp2340
Vstatus
p2341
I200
sVcomment
p2342
g4
sVcookies
p2343
(lp2344
sVstatusText
p2345
VOK
p2346
sVcontent
p2347
(dp2348
VmimeType
p2349
Vimage/jpeg
p2350
sVcomment
p2351
g4
sVsize
p2352
I0
ssVheaders
p2353
(lp2354
sVheadersSize
p2355
I850
sVredirectURL
p2356
g4
sVbodySize
p2357
I26528
sVhttpVersion
p2358
VHTTP/1.1
p2359
ssa(dp2360
Vcomment
p2361
g4
sVserverIPAddress
p2362
V172.217.6.4
p2363
sVpageref
p2364
VBoiled Egg
p2365
sVstartedDateTime
p2366
V2017-04-16T08:45:47.857-05:00
p2367
sVcache
p2368
(dp2369
sVrequest
p2370
(dp2371
Vcomment
p2372
g4
sVcookies
p2373
(lp2374
sVurl
p2375
Vhttps://www.google.com/gen_204?s=web&atyp=csi&ei=hXXzWLPLL6WjjwS55quADQ&imc=44&imn=44&imp=23&adh=&xjs=init.37.14.sb_mob.28.dvl.3.c.1.mbsf.1.jsa.1&ima=14&rt=prt.1139,iml.1316,xjsls.1139,dcl.1255,qiml.1507,xjses.1855,xjsee.1998,xjs.1999,ol.4913,aft.1303,wsrt.137,cst.0,dnst.0,rqst.1200,rspt.1080,rqstt.2,unt.2,cstt.2,dit.1303
p2376
sVqueryString
p2377
(lp2378
(dp2379
Vname
p2380
g57
sVvalue
p2381
Vweb
p2382
sa(dp2383
Vname
p2384
Vatyp
p2385
sVvalue
p2386
Vcsi
p2387
sa(dp2388
Vname
p2389
Vei
p2390
sVvalue
p2391
VhXXzWLPLL6WjjwS55quADQ
p2392
sa(dp2393
Vname
p2394
Vimc
p2395
sVvalue
p2396
V44
p2397
sa(dp2398
Vname
p2399
Vimn
p2400
sVvalue
p2401
V44
p2402
sa(dp2403
Vname
p2404
Vimp
p2405
sVvalue
p2406
V23
p2407
sa(dp2408
Vname
p2409
Vadh
p2410
sVvalue
p2411
g4
sa(dp2412
Vname
p2413
Vxjs
p2414
sVvalue
p2415
Vinit.37.14.sb_mob.28.dvl.3.c.1.mbsf.1.jsa.1
p2416
sa(dp2417
Vname
p2418
Vima
p2419
sVvalue
p2420
V14
p2421
sa(dp2422
Vname
p2423
Vrt
p2424
sVvalue
p2425
Vprt.1139,iml.1316,xjsls.1139,dcl.1255,qiml.1507,xjses.1855,xjsee.1998,xjs.1999,ol.4913,aft.1303,wsrt.137,cst.0,dnst.0,rqst.1200,rspt.1080,rqstt.2,unt.2,cstt.2,dit.1303
p2426
sasVheaders
p2427
(lp2428
sVheadersSize
p2429
I840
sVbodySize
p2430
I0
sVmethod
p2431
VGET
p2432
sVhttpVersion
p2433
VHTTP/1.1
p2434
ssVtimings
p2435
(dp2436
Vcomment
p2437
g4
sVreceive
p2438
I0
sVsend
p2439
I0
sVssl
p2440
I-1
sVconnect
p2441
I-1
sVdns
p2442
I-1
sVwait
p2443
I44
sVblocked
p2444
I-1
ssVtime
p2445
I45
sVresponse
p2446
(dp2447
Vstatus
p2448
I204
sVcomment
p2449
g4
sVcookies
p2450
(lp2451
sVstatusText
p2452
VNo Content
p2453
sVcontent
p2454
(dp2455
VmimeType
p2456
Vtext/html; charset=UTF-8
p2457
sVcomment
p2458
g4
sVsize
p2459
I0
ssVheaders
p2460
(lp2461
sVheadersSize
p2462
I248
sVredirectURL
p2463
g4
sVbodySize
p2464
I0
sVhttpVersion
p2465
VHTTP/1.1
p2466
ssasVversion
p2467
V1.2
p2468
sVpages
p2469
(lp2470
(dp2471
VpageTimings
p2472
(dp2473
Vcomment
p2474
g4
ssVcomment
p2475
g4
sVtitle
p2476
VBoiled Egg
p2477
sVid
p2478
VBoiled Egg
p2479
sVstartedDateTime
p2480
V2017-04-16T08:45:42.024-05:00
p2481
sasVcreator
p2482
(dp2483
Vcomment
p2484
g4
sVversion
p2485
V2.1.4
p2486
sVname
p2487
VBrowserMob Proxy
p2488
sss.