(dp0
Vlog
p1
(dp2
Vcomment
p3
V
p4
sVentries
p5
(lp6
(dp7
Vcomment
p8
g4
sVserverIPAddress
p9
V172.217.6.4
p10
sVpageref
p11
VBig Mac
p12
sVstartedDateTime
p13
V2017-04-16T08:43:43.060-05:00
p14
sVcache
p15
(dp16
sVrequest
p17
(dp18
Vcomment
p19
g4
sVcookies
p20
(lp21
sVurl
p22
Vhttps://www.google.com/gen_204?atyp=i&ct=slh&cad=&ei=d3TzWK6wMKbUjwTI3aaACQ&s=2&v=2&pv=0.862083874440354&me=13:1492350096791,e,H&zx=1492350223057
p23
sVqueryString
p24
(lp25
(dp26
Vname
p27
Vatyp
p28
sVvalue
p29
Vi
p30
sa(dp31
Vname
p32
Vct
p33
sVvalue
p34
Vslh
p35
sa(dp36
Vname
p37
Vcad
p38
sVvalue
p39
g4
sa(dp40
Vname
p41
Vei
p42
sVvalue
p43
Vd3TzWK6wMKbUjwTI3aaACQ
p44
sa(dp45
Vname
p46
Vs
p47
sVvalue
p48
V2
p49
sa(dp50
Vname
p51
Vv
p52
sVvalue
p53
g49
sa(dp54
Vname
p55
Vpv
p56
sVvalue
p57
V0.862083874440354
p58
sa(dp59
Vname
p60
Vme
p61
sVvalue
p62
V13:1492350096791,e,H
p63
sa(dp64
Vname
p65
Vzx
p66
sVvalue
p67
V1492350223057
p68
sasVheaders
p69
(lp70
sVheadersSize
p71
I662
sVbodySize
p72
I0
sVmethod
p73
VGET
p74
sVhttpVersion
p75
VHTTP/1.1
p76
ssVtimings
p77
(dp78
Vcomment
p79
g4
sVreceive
p80
I0
sVsend
p81
I0
sVssl
p82
I-1
sVconnect
p83
I-1
sVdns
p84
I-1
sVwait
p85
I0
sVblocked
p86
I-1
ssVtime
p87
I0
sVresponse
p88
(dp89
Vstatus
p90
I0
sVcomment
p91
g4
sVcookies
p92
(lp93
sV_error
p94
VNo response received
p95
sVstatusText
p96
g4
sVcontent
p97
(dp98
VmimeType
p99
g4
sVcomment
p100
g4
sVsize
p101
I0
ssVheaders
p102
(lp103
sVheadersSize
p104
I-1
sVredirectURL
p105
g4
sVbodySize
p106
I-1
sVhttpVersion
p107
Vunknown
p108
ssa(dp109
Vcomment
p110
g4
sVserverIPAddress
p111
V172.217.6.4
p112
sVpageref
p113
VBig Mac
p114
sVstartedDateTime
p115
V2017-04-16T08:43:43.060-05:00
p116
sVcache
p117
(dp118
sVrequest
p119
(dp120
Vcomment
p121
g4
sVcookies
p122
(lp123
sVurl
p124
Vhttps://www.google.com/gen_204?atyp=i&ct=slh&cad=&ei=A3XzWKPpHJWgjwSWpIPQBQ&m=V&t=C&s=1&v=2&pv=0.29369849972908935&me=1:1492350215844,x:2,V,0,0,1280,944:0,N,1,A3XzWKPpHJWgjwSWpIPQBQ:0,R,1,24,8,155,1249,1448:0,R,1,25,8,155,1249,1448:0,R,1,29,8,168,1249,40:0,R,1,48,8,267,1249,178:0,R,1,51,0,283,1265,197:0,R,1,91,8,445,1249,49:0,R,1,93,8,494,1249,72:0,R,1,101,8,583,1249,40:0,R,1,102,24,583,1217,40:0,R,1,105,8,639,1249,20:0,R,1,116,8,679,1249,278:0,R,1,117,8,728,1249,171:2,B,5639:7207,e,U&zx=1492350223056
p125
sVqueryString
p126
(lp127
(dp128
Vname
p129
Vatyp
p130
sVvalue
p131
g30
sa(dp132
Vname
p133
Vct
p134
sVvalue
p135
Vslh
p136
sa(dp137
Vname
p138
Vcad
p139
sVvalue
p140
g4
sa(dp141
Vname
p142
Vei
p143
sVvalue
p144
VA3XzWKPpHJWgjwSWpIPQBQ
p145
sa(dp146
Vname
p147
Vm
p148
sVvalue
p149
VV
p150
sa(dp151
Vname
p152
Vt
p153
sVvalue
p154
VC
p155
sa(dp156
Vname
p157
g47
sVvalue
p158
V1
p159
sa(dp160
Vname
p161
g52
sVvalue
p162
g49
sa(dp163
Vname
p164
Vpv
p165
sVvalue
p166
V0.29369849972908935
p167
sa(dp168
Vname
p169
Vme
p170
sVvalue
p171
V1:1492350215844,x:2,V,0,0,1280,944:0,N,1,A3XzWKPpHJWgjwSWpIPQBQ:0,R,1,24,8,155,1249,1448:0,R,1,25,8,155,1249,1448:0,R,1,29,8,168,1249,40:0,R,1,48,8,267,1249,178:0,R,1,51,0,283,1265,197:0,R,1,91,8,445,1249,49:0,R,1,93,8,494,1249,72:0,R,1,101,8,583,1249,40:0,R,1,102,24,583,1217,40:0,R,1,105,8,639,1249,20:0,R,1,116,8,679,1249,278:0,R,1,117,8,728,1249,171:2,B,5639:7207,e,U
p172
sa(dp173
Vname
p174
Vzx
p175
sVvalue
p176
V1492350223056
p177
sasVheaders
p178
(lp179
sVheadersSize
p180
I1023
sVbodySize
p181
I0
sVmethod
p182
VGET
p183
sVhttpVersion
p184
VHTTP/1.1
p185
ssVtimings
p186
(dp187
Vcomment
p188
g4
sVreceive
p189
I0
sVsend
p190
I0
sVssl
p191
I-1
sVconnect
p192
I-1
sVdns
p193
I-1
sVwait
p194
I0
sVblocked
p195
I-1
ssVtime
p196
I0
sVresponse
p197
(dp198
Vstatus
p199
I0
sVcomment
p200
g4
sVcookies
p201
(lp202
sV_error
p203
VNo response received
p204
sVstatusText
p205
g4
sVcontent
p206
(dp207
VmimeType
p208
g4
sVcomment
p209
g4
sVsize
p210
I0
ssVheaders
p211
(lp212
sVheadersSize
p213
I-1
sVredirectURL
p214
g4
sVbodySize
p215
I-1
sVhttpVersion
p216
Vunknown
p217
ssa(dp218
Vcomment
p219
g4
sVserverIPAddress
p220
V172.217.6.4
p221
sVpageref
p222
VBig Mac
p223
sVstartedDateTime
p224
V2017-04-16T08:43:43.061-05:00
p225
sVcache
p226
(dp227
sVrequest
p228
(dp229
Vcomment
p230
g4
sVcookies
p231
(lp232
sVurl
p233
Vhttps://www.google.com/gen_204?atyp=i&ct=slh&cad=&ei=1nTzWIvkGoLIjwTj-oXIBA&m=V&t=C&s=1&v=2&pv=0.9493251569752079&me=1:1492350169356,x:2,V,0,0,1280,944:0,N,1,1nTzWIvkGoLIjwTj-oXIBA:0,R,1,24,8,155,1249,284:0,R,1,47,8,449,1249,516:0,R,1,48,8,449,1249,516:0,R,1,52,1182,449,75,116:0,R,1,61,8,487,1174,40:0,R,1,73,8,565,1249,55:0,R,1,77,8,637,1249,20:0,R,1,78,24,637,1217,20:0,R,1,81,8,673,1249,20:0,R,1,86,8,701,1249,20:0,R,1,97,8,741,1249,151:0,R,1,98,8,790,1249,122:2,B,4218:11666,e,U&zx=1492350223058
p234
sVqueryString
p235
(lp236
(dp237
Vname
p238
Vatyp
p239
sVvalue
p240
g30
sa(dp241
Vname
p242
Vct
p243
sVvalue
p244
Vslh
p245
sa(dp246
Vname
p247
Vcad
p248
sVvalue
p249
g4
sa(dp250
Vname
p251
Vei
p252
sVvalue
p253
V1nTzWIvkGoLIjwTj-oXIBA
p254
sa(dp255
Vname
p256
g148
sVvalue
p257
g150
sa(dp258
Vname
p259
g153
sVvalue
p260
g155
sa(dp261
Vname
p262
g47
sVvalue
p263
g159
sa(dp264
Vname
p265
g52
sVvalue
p266
g49
sa(dp267
Vname
p268
Vpv
p269
sVvalue
p270
V0.9493251569752079
p271
sa(dp272
Vname
p273
Vme
p274
sVvalue
p275
V1:1492350169356,x:2,V,0,0,1280,944:0,N,1,1nTzWIvkGoLIjwTj-oXIBA:0,R,1,24,8,155,1249,284:0,R,1,47,8,449,1249,516:0,R,1,48,8,449,1249,516:0,R,1,52,1182,449,75,116:0,R,1,61,8,487,1174,40:0,R,1,73,8,565,1249,55:0,R,1,77,8,637,1249,20:0,R,1,78,24,637,1217,20:0,R,1,81,8,673,1249,20:0,R,1,86,8,701,1249,20:0,R,1,97,8,741,1249,151:0,R,1,98,8,790,1249,122:2,B,4218:11666,e,U
p276
sa(dp277
Vname
p278
Vzx
p279
sVvalue
p280
V1492350223058
p281
sasVheaders
p282
(lp283
sVheadersSize
p284
I1017
sVbodySize
p285
I0
sVmethod
p286
VGET
p287
sVhttpVersion
p288
VHTTP/1.1
p289
ssVtimings
p290
(dp291
Vcomment
p292
g4
sVreceive
p293
I0
sVsend
p294
I0
sVssl
p295
I-1
sVconnect
p296
I-1
sVdns
p297
I-1
sVwait
p298
I0
sVblocked
p299
I-1
ssVtime
p300
I0
sVresponse
p301
(dp302
Vstatus
p303
I0
sVcomment
p304
g4
sVcookies
p305
(lp306
sV_error
p307
VNo response received
p308
sVstatusText
p309
g4
sVcontent
p310
(dp311
VmimeType
p312
g4
sVcomment
p313
g4
sVsize
p314
I0
ssVheaders
p315
(lp316
sVheadersSize
p317
I-1
sVredirectURL
p318
g4
sVbodySize
p319
I-1
sVhttpVersion
p320
Vunknown
p321
ssa(dp322
Vcomment
p323
g4
sVserverIPAddress
p324
V172.217.6.4
p325
sVpageref
p326
VBig Mac
p327
sVstartedDateTime
p328
V2017-04-16T08:43:43.063-05:00
p329
sVcache
p330
(dp331
sVrequest
p332
(dp333
Vcomment
p334
g4
sVcookies
p335
(lp336
sVurl
p337
Vhttp://www.google.com/
p338
sVqueryString
p339
(lp340
sVheaders
p341
(lp342
sVheadersSize
p343
I613
sVbodySize
p344
I0
sVmethod
p345
VGET
p346
sVhttpVersion
p347
VHTTP/1.1
p348
ssVtimings
p349
(dp350
Vcomment
p351
g4
sVreceive
p352
I0
sVsend
p353
I0
sVssl
p354
I-1
sVconnect
p355
I-1
sVdns
p356
I-1
sVwait
p357
I39
sVblocked
p358
I-1
ssVtime
p359
I40
sVresponse
p360
(dp361
Vstatus
p362
I302
sVcomment
p363
g4
sVcookies
p364
(lp365
sVstatusText
p366
VFound
p367
sVcontent
p368
(dp369
VmimeType
p370
Vtext/html; charset=UTF-8
p371
sVcomment
p372
g4
sVsize
p373
I0
ssVheaders
p374
(lp375
sVheadersSize
p376
I609
sVredirectURL
p377
Vhttps://www.google.com/?gws_rd=ssl
p378
sVbodySize
p379
I231
sVhttpVersion
p380
VHTTP/1.1
p381
ssa(dp382
Vcomment
p383
g4
sVserverIPAddress
p384
V172.217.6.4
p385
sVpageref
p386
VBig Mac
p387
sVstartedDateTime
p388
V2017-04-16T08:43:43.112-05:00
p389
sVcache
p390
(dp391
sVrequest
p392
(dp393
Vcomment
p394
g4
sVcookies
p395
(lp396
sVurl
p397
Vhttps://www.google.com/?gws_rd=ssl
p398
sVqueryString
p399
(lp400
(dp401
Vname
p402
Vgws_rd
p403
sVvalue
p404
Vssl
p405
sasVheaders
p406
(lp407
sVheadersSize
p408
I607
sVbodySize
p409
I0
sVmethod
p410
VGET
p411
sVhttpVersion
p412
VHTTP/1.1
p413
ssVtimings
p414
(dp415
Vcomment
p416
g4
sVreceive
p417
I23
sVsend
p418
I0
sVssl
p419
I-1
sVconnect
p420
I-1
sVdns
p421
I-1
sVwait
p422
I65
sVblocked
p423
I-1
ssVtime
p424
I89
sVresponse
p425
(dp426
Vstatus
p427
I200
sVcomment
p428
g4
sVcookies
p429
(lp430
sVstatusText
p431
VOK
p432
sVcontent
p433
(dp434
VmimeType
p435
Vtext/html; charset=UTF-8
p436
sVcomment
p437
g4
sVsize
p438
I0
ssVheaders
p439
(lp440
sVheadersSize
p441
I721
sVredirectURL
p442
g4
sVbodySize
p443
I34290
sVhttpVersion
p444
VHTTP/1.1
p445
ssa(dp446
Vcomment
p447
g4
sVserverIPAddress
p448
V172.217.6.4
p449
sVpageref
p450
VBig Mac
p451
sVstartedDateTime
p452
V2017-04-16T08:43:43.554-05:00
p453
sVcache
p454
(dp455
sVrequest
p456
(dp457
Vcomment
p458
g4
sVcookies
p459
(lp460
sVurl
p461
Vhttps://www.google.com/gen_204?s=mobilewebhp&atyp=csi&ei=DnXzWJ7EBcTSjwSGpaqgBA&imc=1&imn=1&imp=0&adh=&xjs=init.36.12.sb_mob.18.mbsf.9.jsa.4.c.2.dvl.2&ima=1&rt=xjsls.19,prt.35,iml.35,dcl.66,xjses.116,xjsee.216,xjs.217,ol.339,aft.35,wsrt.155,cst.0,dnst.0,rqst.91,rspt.25,rqstt.58,unt.56,cstt.56,dit.201
p462
sVqueryString
p463
(lp464
(dp465
Vname
p466
g47
sVvalue
p467
Vmobilewebhp
p468
sa(dp469
Vname
p470
Vatyp
p471
sVvalue
p472
Vcsi
p473
sa(dp474
Vname
p475
Vei
p476
sVvalue
p477
VDnXzWJ7EBcTSjwSGpaqgBA
p478
sa(dp479
Vname
p480
Vimc
p481
sVvalue
p482
g159
sa(dp483
Vname
p484
Vimn
p485
sVvalue
p486
g159
sa(dp487
Vname
p488
Vimp
p489
sVvalue
p490
V0
p491
sa(dp492
Vname
p493
Vadh
p494
sVvalue
p495
g4
sa(dp496
Vname
p497
Vxjs
p498
sVvalue
p499
Vinit.36.12.sb_mob.18.mbsf.9.jsa.4.c.2.dvl.2
p500
sa(dp501
Vname
p502
Vima
p503
sVvalue
p504
g159
sa(dp505
Vname
p506
Vrt
p507
sVvalue
p508
Vxjsls.19,prt.35,iml.35,dcl.66,xjses.116,xjsee.216,xjs.217,ol.339,aft.35,wsrt.155,cst.0,dnst.0,rqst.91,rspt.25,rqstt.58,unt.56,cstt.56,dit.201
p509
sasVheaders
p510
(lp511
sVheadersSize
p512
I829
sVbodySize
p513
I0
sVmethod
p514
VGET
p515
sVhttpVersion
p516
VHTTP/1.1
p517
ssVtimings
p518
(dp519
Vcomment
p520
g4
sVreceive
p521
I0
sVsend
p522
I1
sVssl
p523
I-1
sVconnect
p524
I-1
sVdns
p525
I-1
sVwait
p526
I28
sVblocked
p527
I-1
ssVtime
p528
I30
sVresponse
p529
(dp530
Vstatus
p531
I204
sVcomment
p532
g4
sVcookies
p533
(lp534
sVstatusText
p535
VNo Content
p536
sVcontent
p537
(dp538
VmimeType
p539
Vtext/html; charset=UTF-8
p540
sVcomment
p541
g4
sVsize
p542
I0
ssVheaders
p543
(lp544
sVheadersSize
p545
I248
sVredirectURL
p546
g4
sVbodySize
p547
I0
sVhttpVersion
p548
VHTTP/1.1
p549
ssa(dp550
Vcomment
p551
g4
sVserverIPAddress
p552
V172.217.6.4
p553
sVpageref
p554
VBig Mac
p555
sVstartedDateTime
p556
V2017-04-16T08:43:43.688-05:00
p557
sVcache
p558
(dp559
sVrequest
p560
(dp561
Vcomment
p562
g4
sVcookies
p563
(lp564
sVurl
p565
Vhttps://www.google.com/complete/search?client=mobile-gws-hp&hl=en&gs_rn=64&gs_ri=mobile-gws-hp&sla=1&pfq=budweiser%20america&gm=602&cp=0&gs_id=1&xhr=t&q=B&tch=1&ech=1&psi=DnXzWJ7EBcTSjwSGpaqgBA.1492350223389.1
p566
sVqueryString
p567
(lp568
(dp569
Vname
p570
Vclient
p571
sVvalue
p572
Vmobile-gws-hp
p573
sa(dp574
Vname
p575
Vhl
p576
sVvalue
p577
Ven
p578
sa(dp579
Vname
p580
Vgs_rn
p581
sVvalue
p582
V64
p583
sa(dp584
Vname
p585
Vgs_ri
p586
sVvalue
p587
Vmobile-gws-hp
p588
sa(dp589
Vname
p590
Vsla
p591
sVvalue
p592
g159
sa(dp593
Vname
p594
Vpfq
p595
sVvalue
p596
Vbudweiser america
p597
sa(dp598
Vname
p599
Vgm
p600
sVvalue
p601
V602
p602
sa(dp603
Vname
p604
Vcp
p605
sVvalue
p606
g491
sa(dp607
Vname
p608
Vgs_id
p609
sVvalue
p610
g159
sa(dp611
Vname
p612
Vxhr
p613
sVvalue
p614
g153
sa(dp615
Vname
p616
Vq
p617
sVvalue
p618
VB
p619
sa(dp620
Vname
p621
Vtch
p622
sVvalue
p623
g159
sa(dp624
Vname
p625
Vech
p626
sVvalue
p627
g159
sa(dp628
Vname
p629
Vpsi
p630
sVvalue
p631
VDnXzWJ7EBcTSjwSGpaqgBA.1492350223389.1
p632
sasVheaders
p633
(lp634
sVheadersSize
p635
I737
sVbodySize
p636
I0
sVmethod
p637
VGET
p638
sVhttpVersion
p639
VHTTP/1.1
p640
ssVtimings
p641
(dp642
Vcomment
p643
g4
sVreceive
p644
I0
sVsend
p645
I0
sVssl
p646
I-1
sVconnect
p647
I-1
sVdns
p648
I-1
sVwait
p649
I0
sVblocked
p650
I-1
ssVtime
p651
I0
sVresponse
p652
(dp653
Vstatus
p654
I0
sVcomment
p655
g4
sVcookies
p656
(lp657
sV_error
p658
VNo response received
p659
sVstatusText
p660
g4
sVcontent
p661
(dp662
VmimeType
p663
g4
sVcomment
p664
g4
sVsize
p665
I0
ssVheaders
p666
(lp667
sVheadersSize
p668
I-1
sVredirectURL
p669
g4
sVbodySize
p670
I-1
sVhttpVersion
p671
Vunknown
p672
ssa(dp673
Vcomment
p674
g4
sVserverIPAddress
p675
V172.217.6.4
p676
sVpageref
p677
VBig Mac
p678
sVstartedDateTime
p679
V2017-04-16T08:43:43.760-05:00
p680
sVcache
p681
(dp682
sVrequest
p683
(dp684
Vcomment
p685
g4
sVcookies
p686
(lp687
sVurl
p688
Vhttps://www.google.com/search?site=&source=hp&ei=DnXzWJ7EBcTSjwSGpaqgBA&q=Big+Mac&oq=Big+Mac&gs_l=mobile-gws-hp.3...276.297.0.343.7.1.0.0.0.0.0.0..0.0....0...1c.1.64.mobile-gws-hp..7.0.0.ednHt6FMn78
p689
sVqueryString
p690
(lp691
(dp692
Vname
p693
Vsite
p694
sVvalue
p695
g4
sa(dp696
Vname
p697
Vsource
p698
sVvalue
p699
Vhp
p700
sa(dp701
Vname
p702
Vei
p703
sVvalue
p704
VDnXzWJ7EBcTSjwSGpaqgBA
p705
sa(dp706
Vname
p707
g617
sVvalue
p708
VBig Mac
p709
sa(dp710
Vname
p711
Voq
p712
sVvalue
p713
VBig Mac
p714
sa(dp715
Vname
p716
Vgs_l
p717
sVvalue
p718
Vmobile-gws-hp.3...276.297.0.343.7.1.0.0.0.0.0.0..0.0....0...1c.1.64.mobile-gws-hp..7.0.0.ednHt6FMn78
p719
sasVheaders
p720
(lp721
sVheadersSize
p722
I816
sVbodySize
p723
I0
sVmethod
p724
VGET
p725
sVhttpVersion
p726
VHTTP/1.1
p727
ssVtimings
p728
(dp729
Vcomment
p730
g4
sVreceive
p731
I825
sVsend
p732
I0
sVssl
p733
I-1
sVconnect
p734
I-1
sVdns
p735
I-1
sVwait
p736
I118
sVblocked
p737
I-1
ssVtime
p738
I944
sVresponse
p739
(dp740
Vstatus
p741
I200
sVcomment
p742
g4
sVcookies
p743
(lp744
sVstatusText
p745
VOK
p746
sVcontent
p747
(dp748
VmimeType
p749
Vtext/html; charset=UTF-8
p750
sVcomment
p751
g4
sVsize
p752
I0
ssVheaders
p753
(lp754
sVheadersSize
p755
I363
sVredirectURL
p756
g4
sVbodySize
p757
I113517
sVhttpVersion
p758
VHTTP/1.1
p759
ssa(dp760
Vcomment
p761
g4
sVserverIPAddress
p762
V172.217.6.4
p763
sVpageref
p764
VBig Mac
p765
sVstartedDateTime
p766
V2017-04-16T08:43:45.801-05:00
p767
sVcache
p768
(dp769
sVrequest
p770
(dp771
Vcomment
p772
g4
sVcookies
p773
(lp774
sVurl
p775
Vhttps://www.google.com/gen_204?atyp=i&ct=&cad=udla=1&ei=DnXzWKiDLsHUjwSNvbWoDA&b=0&act=p&ps=0&zx=1492350225800
p776
sVqueryString
p777
(lp778
(dp779
Vname
p780
Vatyp
p781
sVvalue
p782
g30
sa(dp783
Vname
p784
Vct
p785
sVvalue
p786
g4
sa(dp787
Vname
p788
Vcad
p789
sVvalue
p790
Vudla=1
p791
sa(dp792
Vname
p793
Vei
p794
sVvalue
p795
VDnXzWKiDLsHUjwSNvbWoDA
p796
sa(dp797
Vname
p798
Vb
p799
sVvalue
p800
g491
sa(dp801
Vname
p802
Vact
p803
sVvalue
p804
Vp
p805
sa(dp806
Vname
p807
Vps
p808
sVvalue
p809
g491
sa(dp810
Vname
p811
Vzx
p812
sVvalue
p813
V1492350225800
p814
sasVheaders
p815
(lp816
sVheadersSize
p817
I627
sVbodySize
p818
I0
sVmethod
p819
VGET
p820
sVhttpVersion
p821
VHTTP/1.1
p822
ssVtimings
p823
(dp824
Vcomment
p825
g4
sVreceive
p826
I0
sVsend
p827
I0
sVssl
p828
I-1
sVconnect
p829
I-1
sVdns
p830
I-1
sVwait
p831
I25
sVblocked
p832
I-1
ssVtime
p833
I25
sVresponse
p834
(dp835
Vstatus
p836
I204
sVcomment
p837
g4
sVcookies
p838
(lp839
sVstatusText
p840
VNo Content
p841
sVcontent
p842
(dp843
VmimeType
p844
Vtext/html; charset=UTF-8
p845
sVcomment
p846
g4
sVsize
p847
I0
ssVheaders
p848
(lp849
sVheadersSize
p850
I248
sVredirectURL
p851
g4
sVbodySize
p852
I0
sVhttpVersion
p853
VHTTP/1.1
p854
ssa(dp855
Vcomment
p856
g4
sVserverIPAddress
p857
V172.217.6.4
p858
sVpageref
p859
VBig Mac
p860
sVstartedDateTime
p861
V2017-04-16T08:43:46.421-05:00
p862
sVcache
p863
(dp864
sVrequest
p865
(dp866
Vcomment
p867
g4
sVcookies
p868
(lp869
sVurl
p870
Vhttps://www.google.com/xjs/_/js/k=xjs.qs.en_US.pCBXVCvTH3s.O/m=syl,syj,syn,em3,em8,em6,em7,sym,aa,abd,sy2g,sy2k,sy29,sy2j,sy2d,sy2a,sy2c,sy2f,sy2l,sy2m,sy2n,emd,async,sybn,sybi,sybo,sy1f,sy45,sy46,sy9w,sybk,sybj,sybp,sy1g,sy30,sy47,sybm,sybl,sybq,sy1h,sybh,dvl,syep,foot,ipv6,sy32,emj,shm,sy5g,sy5i,sy5k,sykh,tl,sy2x,sy2y,sy2t,sy38,em12,vs,sy5j,sy5h,sy6u,sy66,sy67,sy7d,sy7j,sy4u,sy69,sy89,sy7e,sykk,sykl,tnv,bct,sy1y,sy23,sy2u,sy22,sy6i,sy34,sy31,sy6j,sy25,sy6l,sy6k,sy6h,emb,em9,ema,sy6m,qkx,sy4d,sy4f,sy4c,sy4e,sy24,sy4b,sy6w,shrb,sy4g,syd7,dgm,syf5,syf6,syf8,sygb,syg9,kptm,sy99,syf4,sy26,syfc,syfn,syf7,syff,sy1i,sy68,sy8d,sy9b,syfl,syfr,syfq,syfg,sy1j,sy4q,sy5o,sy5r,sy6n,sy6p,sy8h,syc7,syc8,syfb,syfj,syfs,syft,syg3,syg5,syg7,emn,emo,syg4,syg6,ivg,sy9m,syac,sy9n,syhz,syl6,ssc,iuci,img,sy41,tcc,sygm,knf,sy6y,sycu,d3l,sy5z,atn,sya3,sy4h,sya2,sy4i,sya1,sya4,ampfp/am=gCP4LtMEBXQA2RUaq_oFBISzAFA/rt=j/d=0/t=zcms/rs=ACT90oFwm4NZCwIcuuiqmthdlECdBzkhRA
p871
sVqueryString
p872
(lp873
sVheaders
p874
(lp875
sVheadersSize
p876
I1471
sVbodySize
p877
I0
sVmethod
p878
VGET
p879
sVhttpVersion
p880
VHTTP/1.1
p881
ssVtimings
p882
(dp883
Vcomment
p884
g4
sVreceive
p885
I4
sVsend
p886
I0
sVssl
p887
I-1
sVconnect
p888
I-1
sVdns
p889
I-1
sVwait
p890
I105
sVblocked
p891
I-1
ssVtime
p892
I109
sVresponse
p893
(dp894
Vstatus
p895
I200
sVcomment
p896
g4
sVcookies
p897
(lp898
sVstatusText
p899
VOK
p900
sVcontent
p901
(dp902
VmimeType
p903
Vtext/javascript; charset=UTF-8
p904
sVcomment
p905
g4
sVsize
p906
I0
ssVheaders
p907
(lp908
sVheadersSize
p909
I452
sVredirectURL
p910
g4
sVbodySize
p911
I111642
sVhttpVersion
p912
VHTTP/1.1
p913
ssa(dp914
Vcomment
p915
g4
sVserverIPAddress
p916
V172.217.6.4
p917
sVpageref
p918
VBig Mac
p919
sVstartedDateTime
p920
V2017-04-16T08:43:46.732-05:00
p921
sVcache
p922
(dp923
sVrequest
p924
(dp925
Vcomment
p926
g4
sVcookies
p927
(lp928
sVurl
p929
Vhttps://www.google.com/async/irc?vet=10ahUKEwiowqHnjanTAhVB6oMKHY1eDcUQo0EIwgE..i&ved=0ahUKEwiowqHnjanTAhVB6oMKHY1eDcUQo0EIwgE&ei=DnXzWKiDLsHUjwSNvbWoDA&yv=2&async=iu:1,ved:0ahUKEwiowqHnjanTAhVB6oMKHY1eDcUQo0EIwgE,_id:irc_async,_pms:qs
p930
sVqueryString
p931
(lp932
(dp933
Vname
p934
Vvet
p935
sVvalue
p936
V10ahUKEwiowqHnjanTAhVB6oMKHY1eDcUQo0EIwgE..i
p937
sa(dp938
Vname
p939
Vved
p940
sVvalue
p941
V0ahUKEwiowqHnjanTAhVB6oMKHY1eDcUQo0EIwgE
p942
sa(dp943
Vname
p944
Vei
p945
sVvalue
p946
VDnXzWKiDLsHUjwSNvbWoDA
p947
sa(dp948
Vname
p949
Vyv
p950
sVvalue
p951
g49
sa(dp952
Vname
p953
Vasync
p954
sVvalue
p955
Viu:1,ved:0ahUKEwiowqHnjanTAhVB6oMKHY1eDcUQo0EIwgE,_id:irc_async,_pms:qs
p956
sasVheaders
p957
(lp958
sVheadersSize
p959
I752
sVbodySize
p960
I0
sVmethod
p961
VGET
p962
sVhttpVersion
p963
VHTTP/1.1
p964
ssVtimings
p965
(dp966
Vcomment
p967
g4
sVreceive
p968
I3
sVsend
p969
I0
sVssl
p970
I-1
sVconnect
p971
I-1
sVdns
p972
I-1
sVwait
p973
I36
sVblocked
p974
I-1
ssVtime
p975
I40
sVresponse
p976
(dp977
Vstatus
p978
I200
sVcomment
p979
g4
sVcookies
p980
(lp981
sVstatusText
p982
VOK
p983
sVcontent
p984
(dp985
VmimeType
p986
Vtext/html; charset=UTF-8
p987
sVcomment
p988
g4
sVsize
p989
I0
ssVheaders
p990
(lp991
sVheadersSize
p992
I383
sVredirectURL
p993
g4
sVbodySize
p994
I7792
sVhttpVersion
p995
VHTTP/1.1
p996
ssa(dp997
Vcomment
p998
g4
sVserverIPAddress
p999
V172.217.6.4
p1000
sVpageref
p1001
VBig Mac
p1002
sVstartedDateTime
p1003
V2017-04-16T08:43:46.762-05:00
p1004
sVcache
p1005
(dp1006
sVrequest
p1007
(dp1008
Vcomment
p1009
g4
sVcookies
p1010
(lp1011
sVurl
p1012
Vhttps://www.google.com/gen_204?atyp=i&ct=&cad=&vet=10ahUKEwiowqHnjanTAhVB6oMKHY1eDcUQ5W0IMygC..s&ei=DnXzWKiDLsHUjwSNvbWoDA&zx=1492350226758
p1013
sVqueryString
p1014
(lp1015
(dp1016
Vname
p1017
Vatyp
p1018
sVvalue
p1019
g30
sa(dp1020
Vname
p1021
Vct
p1022
sVvalue
p1023
g4
sa(dp1024
Vname
p1025
Vcad
p1026
sVvalue
p1027
g4
sa(dp1028
Vname
p1029
Vvet
p1030
sVvalue
p1031
V10ahUKEwiowqHnjanTAhVB6oMKHY1eDcUQ5W0IMygC..s
p1032
sa(dp1033
Vname
p1034
Vei
p1035
sVvalue
p1036
VDnXzWKiDLsHUjwSNvbWoDA
p1037
sa(dp1038
Vname
p1039
Vzx
p1040
sVvalue
p1041
V1492350226758
p1042
sasVheaders
p1043
(lp1044
sVheadersSize
p1045
I656
sVbodySize
p1046
I0
sVmethod
p1047
VGET
p1048
sVhttpVersion
p1049
VHTTP/1.1
p1050
ssVtimings
p1051
(dp1052
Vcomment
p1053
g4
sVreceive
p1054
I0
sVsend
p1055
I0
sVssl
p1056
I-1
sVconnect
p1057
I-1
sVdns
p1058
I-1
sVwait
p1059
I26
sVblocked
p1060
I-1
ssVtime
p1061
I26
sVresponse
p1062
(dp1063
Vstatus
p1064
I204
sVcomment
p1065
g4
sVcookies
p1066
(lp1067
sVstatusText
p1068
VNo Content
p1069
sVcontent
p1070
(dp1071
VmimeType
p1072
Vtext/html; charset=UTF-8
p1073
sVcomment
p1074
g4
sVsize
p1075
I0
ssVheaders
p1076
(lp1077
sVheadersSize
p1078
I248
sVredirectURL
p1079
g4
sVbodySize
p1080
I0
sVhttpVersion
p1081
VHTTP/1.1
p1082
ssa(dp1083
Vcomment
p1084
g4
sVserverIPAddress
p1085
V172.217.6.4
p1086
sVpageref
p1087
VBig Mac
p1088
sVstartedDateTime
p1089
V2017-04-16T08:43:46.776-05:00
p1090
sVcache
p1091
(dp1092
sVrequest
p1093
(dp1094
Vcomment
p1095
g4
sVcookies
p1096
(lp1097
sVurl
p1098
Vhttps://www.google.com/gen_204?atyp=i&ct=&cad=&vet=10ahUKEwiowqHnjanTAhVB6oMKHY1eDcUQ5W0IPCgF..s&ei=DnXzWKiDLsHUjwSNvbWoDA&zx=1492350226775
p1099
sVqueryString
p1100
(lp1101
(dp1102
Vname
p1103
Vatyp
p1104
sVvalue
p1105
g30
sa(dp1106
Vname
p1107
Vct
p1108
sVvalue
p1109
g4
sa(dp1110
Vname
p1111
Vcad
p1112
sVvalue
p1113
g4
sa(dp1114
Vname
p1115
Vvet
p1116
sVvalue
p1117
V10ahUKEwiowqHnjanTAhVB6oMKHY1eDcUQ5W0IPCgF..s
p1118
sa(dp1119
Vname
p1120
Vei
p1121
sVvalue
p1122
VDnXzWKiDLsHUjwSNvbWoDA
p1123
sa(dp1124
Vname
p1125
Vzx
p1126
sVvalue
p1127
V1492350226775
p1128
sasVheaders
p1129
(lp1130
sVheadersSize
p1131
I656
sVbodySize
p1132
I0
sVmethod
p1133
VGET
p1134
sVhttpVersion
p1135
VHTTP/1.1
p1136
ssVtimings
p1137
(dp1138
Vcomment
p1139
g4
sVreceive
p1140
I0
sVsend
p1141
I0
sVssl
p1142
I-1
sVconnect
p1143
I-1
sVdns
p1144
I-1
sVwait
p1145
I40
sVblocked
p1146
I-1
ssVtime
p1147
I40
sVresponse
p1148
(dp1149
Vstatus
p1150
I204
sVcomment
p1151
g4
sVcookies
p1152
(lp1153
sVstatusText
p1154
VNo Content
p1155
sVcontent
p1156
(dp1157
VmimeType
p1158
Vtext/html; charset=UTF-8
p1159
sVcomment
p1160
g4
sVsize
p1161
I0
ssVheaders
p1162
(lp1163
sVheadersSize
p1164
I248
sVredirectURL
p1165
g4
sVbodySize
p1166
I0
sVhttpVersion
p1167
VHTTP/1.1
p1168
ssa(dp1169
Vcomment
p1170
g4
sVserverIPAddress
p1171
V172.217.6.4
p1172
sVpageref
p1173
VBig Mac
p1174
sVstartedDateTime
p1175
V2017-04-16T08:43:46.820-05:00
p1176
sVcache
p1177
(dp1178
sVrequest
p1179
(dp1180
Vcomment
p1181
g4
sVcookies
p1182
(lp1183
sVurl
p1184
Vhttps://www.google.com/gen_204?atyp=i&ct=&cad=&vet=10ahUKEwiowqHnjanTAhVB6oMKHY1eDcUQ5W0IOSgE..s&ei=DnXzWKiDLsHUjwSNvbWoDA&zx=1492350226771
p1185
sVqueryString
p1186
(lp1187
(dp1188
Vname
p1189
Vatyp
p1190
sVvalue
p1191
g30
sa(dp1192
Vname
p1193
Vct
p1194
sVvalue
p1195
g4
sa(dp1196
Vname
p1197
Vcad
p1198
sVvalue
p1199
g4
sa(dp1200
Vname
p1201
Vvet
p1202
sVvalue
p1203
V10ahUKEwiowqHnjanTAhVB6oMKHY1eDcUQ5W0IOSgE..s
p1204
sa(dp1205
Vname
p1206
Vei
p1207
sVvalue
p1208
VDnXzWKiDLsHUjwSNvbWoDA
p1209
sa(dp1210
Vname
p1211
Vzx
p1212
sVvalue
p1213
V1492350226771
p1214
sasVheaders
p1215
(lp1216
sVheadersSize
p1217
I656
sVbodySize
p1218
I0
sVmethod
p1219
VGET
p1220
sVhttpVersion
p1221
VHTTP/1.1
p1222
ssVtimings
p1223
(dp1224
Vcomment
p1225
g4
sVreceive
p1226
I0
sVsend
p1227
I0
sVssl
p1228
I25
sVconnect
p1229
I45
sVdns
p1230
I0
sVwait
p1231
I31
sVblocked
p1232
I0
ssVtime
p1233
I77
sVresponse
p1234
(dp1235
Vstatus
p1236
I204
sVcomment
p1237
g4
sVcookies
p1238
(lp1239
sVstatusText
p1240
VNo Content
p1241
sVcontent
p1242
(dp1243
VmimeType
p1244
Vtext/html; charset=UTF-8
p1245
sVcomment
p1246
g4
sVsize
p1247
I0
ssVheaders
p1248
(lp1249
sVheadersSize
p1250
I248
sVredirectURL
p1251
g4
sVbodySize
p1252
I0
sVhttpVersion
p1253
VHTTP/1.1
p1254
ssa(dp1255
Vcomment
p1256
g4
sVserverIPAddress
p1257
V172.217.6.4
p1258
sVpageref
p1259
VBig Mac
p1260
sVstartedDateTime
p1261
V2017-04-16T08:43:46.820-05:00
p1262
sVcache
p1263
(dp1264
sVrequest
p1265
(dp1266
Vcomment
p1267
g4
sVcookies
p1268
(lp1269
sVurl
p1270
Vhttps://www.google.com/gen_204?atyp=i&ct=&cad=&vet=10ahUKEwiowqHnjanTAhVB6oMKHY1eDcUQ5W0INigD..s&ei=DnXzWKiDLsHUjwSNvbWoDA&zx=1492350226767
p1271
sVqueryString
p1272
(lp1273
(dp1274
Vname
p1275
Vatyp
p1276
sVvalue
p1277
g30
sa(dp1278
Vname
p1279
Vct
p1280
sVvalue
p1281
g4
sa(dp1282
Vname
p1283
Vcad
p1284
sVvalue
p1285
g4
sa(dp1286
Vname
p1287
Vvet
p1288
sVvalue
p1289
V10ahUKEwiowqHnjanTAhVB6oMKHY1eDcUQ5W0INigD..s
p1290
sa(dp1291
Vname
p1292
Vei
p1293
sVvalue
p1294
VDnXzWKiDLsHUjwSNvbWoDA
p1295
sa(dp1296
Vname
p1297
Vzx
p1298
sVvalue
p1299
V1492350226767
p1300
sasVheaders
p1301
(lp1302
sVheadersSize
p1303
I656
sVbodySize
p1304
I0
sVmethod
p1305
VGET
p1306
sVhttpVersion
p1307
VHTTP/1.1
p1308
ssVtimings
p1309
(dp1310
Vcomment
p1311
g4
sVreceive
p1312
I0
sVsend
p1313
I0
sVssl
p1314
I28
sVconnect
p1315
I48
sVdns
p1316
I0
sVwait
p1317
I27
sVblocked
p1318
I0
ssVtime
p1319
I75
sVresponse
p1320
(dp1321
Vstatus
p1322
I204
sVcomment
p1323
g4
sVcookies
p1324
(lp1325
sVstatusText
p1326
VNo Content
p1327
sVcontent
p1328
(dp1329
VmimeType
p1330
Vtext/html; charset=UTF-8
p1331
sVcomment
p1332
g4
sVsize
p1333
I0
ssVheaders
p1334
(lp1335
sVheadersSize
p1336
I248
sVredirectURL
p1337
g4
sVbodySize
p1338
I0
sVhttpVersion
p1339
VHTTP/1.1
p1340
ssa(dp1341
Vcomment
p1342
g4
sVserverIPAddress
p1343
V172.217.6.4
p1344
sVpageref
p1345
VBig Mac
p1346
sVstartedDateTime
p1347
V2017-04-16T08:43:46.840-05:00
p1348
sVcache
p1349
(dp1350
sVrequest
p1351
(dp1352
Vcomment
p1353
g4
sVcookies
p1354
(lp1355
sVurl
p1356
Vhttps://www.google.com/gen_204?atyp=i&ct=&cad=&vet=10ahUKEwiowqHnjanTAhVB6oMKHY1eDcUQ5W0IPygG..s&ei=DnXzWKiDLsHUjwSNvbWoDA&zx=1492350226781
p1357
sVqueryString
p1358
(lp1359
(dp1360
Vname
p1361
Vatyp
p1362
sVvalue
p1363
g30
sa(dp1364
Vname
p1365
Vct
p1366
sVvalue
p1367
g4
sa(dp1368
Vname
p1369
Vcad
p1370
sVvalue
p1371
g4
sa(dp1372
Vname
p1373
Vvet
p1374
sVvalue
p1375
V10ahUKEwiowqHnjanTAhVB6oMKHY1eDcUQ5W0IPygG..s
p1376
sa(dp1377
Vname
p1378
Vei
p1379
sVvalue
p1380
VDnXzWKiDLsHUjwSNvbWoDA
p1381
sa(dp1382
Vname
p1383
Vzx
p1384
sVvalue
p1385
V1492350226781
p1386
sasVheaders
p1387
(lp1388
sVheadersSize
p1389
I656
sVbodySize
p1390
I0
sVmethod
p1391
VGET
p1392
sVhttpVersion
p1393
VHTTP/1.1
p1394
ssVtimings
p1395
(dp1396
Vcomment
p1397
g4
sVreceive
p1398
I0
sVsend
p1399
I0
sVssl
p1400
I22
sVconnect
p1401
I48
sVdns
p1402
I0
sVwait
p1403
I26
sVblocked
p1404
I0
ssVtime
p1405
I76
sVresponse
p1406
(dp1407
Vstatus
p1408
I204
sVcomment
p1409
g4
sVcookies
p1410
(lp1411
sVstatusText
p1412
VNo Content
p1413
sVcontent
p1414
(dp1415
VmimeType
p1416
Vtext/html; charset=UTF-8
p1417
sVcomment
p1418
g4
sVsize
p1419
I0
ssVheaders
p1420
(lp1421
sVheadersSize
p1422
I248
sVredirectURL
p1423
g4
sVbodySize
p1424
I0
sVhttpVersion
p1425
VHTTP/1.1
p1426
ssa(dp1427
Vcomment
p1428
g4
sVserverIPAddress
p1429
V172.217.6.4
p1430
sVpageref
p1431
VBig Mac
p1432
sVstartedDateTime
p1433
V2017-04-16T08:43:46.858-05:00
p1434
sVcache
p1435
(dp1436
sVrequest
p1437
(dp1438
Vcomment
p1439
g4
sVcookies
p1440
(lp1441
sVurl
p1442
Vhttps://www.google.com/async/ampfp?vet=10ahUKEwiowqHnjanTAhVB6oMKHY1eDcUQtZoBCMAB..i&ei=DnXzWKiDLsHUjwSNvbWoDA&yv=2&async=_id:ampfp-async,_pms:qs
p1443
sVqueryString
p1444
(lp1445
(dp1446
Vname
p1447
Vvet
p1448
sVvalue
p1449
V10ahUKEwiowqHnjanTAhVB6oMKHY1eDcUQtZoBCMAB..i
p1450
sa(dp1451
Vname
p1452
Vei
p1453
sVvalue
p1454
VDnXzWKiDLsHUjwSNvbWoDA
p1455
sa(dp1456
Vname
p1457
Vyv
p1458
sVvalue
p1459
g49
sa(dp1460
Vname
p1461
Vasync
p1462
sVvalue
p1463
V_id:ampfp-async,_pms:qs
p1464
sasVheaders
p1465
(lp1466
sVheadersSize
p1467
I662
sVbodySize
p1468
I0
sVmethod
p1469
VGET
p1470
sVhttpVersion
p1471
VHTTP/1.1
p1472
ssVtimings
p1473
(dp1474
Vcomment
p1475
g4
sVreceive
p1476
I1
sVsend
p1477
I0
sVssl
p1478
I-1
sVconnect
p1479
I-1
sVdns
p1480
I-1
sVwait
p1481
I39
sVblocked
p1482
I-1
ssVtime
p1483
I41
sVresponse
p1484
(dp1485
Vstatus
p1486
I200
sVcomment
p1487
g4
sVcookies
p1488
(lp1489
sVstatusText
p1490
VOK
p1491
sVcontent
p1492
(dp1493
VmimeType
p1494
Vtext/html; charset=UTF-8
p1495
sVcomment
p1496
g4
sVsize
p1497
I0
ssVheaders
p1498
(lp1499
sVheadersSize
p1500
I383
sVredirectURL
p1501
g4
sVbodySize
p1502
I4528
sVhttpVersion
p1503
VHTTP/1.1
p1504
ssa(dp1505
Vcomment
p1506
g4
sVserverIPAddress
p1507
V216.58.216.193
p1508
sVpageref
p1509
VBig Mac
p1510
sVstartedDateTime
p1511
V2017-04-16T08:43:46.859-05:00
p1512
sVcache
p1513
(dp1514
sVrequest
p1515
(dp1516
Vcomment
p1517
g4
sVcookies
p1518
(lp1519
sVurl
p1520
Vhttps://cdn.ampproject.org/preconnect.gif?0.04556135992505295
p1521
sVqueryString
p1522
(lp1523
(dp1524
Vname
p1525
V0.04556135992505295
p1526
sVvalue
p1527
g4
sasVheaders
p1528
(lp1529
sVheadersSize
p1530
I376
sVbodySize
p1531
I0
sVmethod
p1532
VGET
p1533
sVhttpVersion
p1534
VHTTP/1.1
p1535
ssVtimings
p1536
(dp1537
Vcomment
p1538
g4
sVreceive
p1539
I0
sVsend
p1540
I0
sVssl
p1541
I-1
sVconnect
p1542
I-1
sVdns
p1543
I-1
sVwait
p1544
I30
sVblocked
p1545
I-1
ssVtime
p1546
I30
sVresponse
p1547
(dp1548
Vstatus
p1549
I200
sVcomment
p1550
g4
sVcookies
p1551
(lp1552
sVstatusText
p1553
VOK
p1554
sVcontent
p1555
(dp1556
VmimeType
p1557
Vimage/gif
p1558
sVcomment
p1559
g4
sVsize
p1560
I0
ssVheaders
p1561
(lp1562
sVheadersSize
p1563
I826
sVredirectURL
p1564
g4
sVbodySize
p1565
I37
sVhttpVersion
p1566
VHTTP/1.1
p1567
ssa(dp1568
Vcomment
p1569
g4
sVserverIPAddress
p1570
V216.58.216.206
p1571
sVpageref
p1572
VBig Mac
p1573
sVstartedDateTime
p1574
V2017-04-16T08:43:46.875-05:00
p1575
sVcache
p1576
(dp1577
sVrequest
p1578
(dp1579
Vcomment
p1580
g4
sVcookies
p1581
(lp1582
sVurl
p1583
Vhttps://encrypted-tbn0.gstatic.com/images?q=tbn:ANd9GcRWEpnavNnXK67z_EZN3vucnERXsa6IlP-5oRkoVyuNHfJNLCsNC__RPaEc
p1584
sVqueryString
p1585
(lp1586
(dp1587
Vname
p1588
g617
sVvalue
p1589
Vtbn:ANd9GcRWEpnavNnXK67z_EZN3vucnERXsa6IlP-5oRkoVyuNHfJNLCsNC__RPaEc
p1590
sasVheaders
p1591
(lp1592
sVheadersSize
p1593
I427
sVbodySize
p1594
I0
sVmethod
p1595
VGET
p1596
sVhttpVersion
p1597
VHTTP/1.1
p1598
ssVtimings
p1599
(dp1600
Vcomment
p1601
g4
sVreceive
p1602
I0
sVsend
p1603
I0
sVssl
p1604
I-1
sVconnect
p1605
I-1
sVdns
p1606
I-1
sVwait
p1607
I45
sVblocked
p1608
I-1
ssVtime
p1609
I46
sVresponse
p1610
(dp1611
Vstatus
p1612
I200
sVcomment
p1613
g4
sVcookies
p1614
(lp1615
sVstatusText
p1616
VOK
p1617
sVcontent
p1618
(dp1619
VmimeType
p1620
Vimage/jpeg
p1621
sVcomment
p1622
g4
sVsize
p1623
I0
ssVheaders
p1624
(lp1625
sVheadersSize
p1626
I428
sVredirectURL
p1627
g4
sVbodySize
p1628
I6734
sVhttpVersion
p1629
VHTTP/1.1
p1630
ssa(dp1631
Vcomment
p1632
g4
sVserverIPAddress
p1633
V216.58.216.206
p1634
sVpageref
p1635
VBig Mac
p1636
sVstartedDateTime
p1637
V2017-04-16T08:43:46.876-05:00
p1638
sVcache
p1639
(dp1640
sVrequest
p1641
(dp1642
Vcomment
p1643
g4
sVcookies
p1644
(lp1645
sVurl
p1646
Vhttps://encrypted-tbn3.gstatic.com/images?q=tbn:ANd9GcR3Yyo8XRTlPLLMPH79h3QTFkJUKmdr5ODpOPyyhTBw5yXtA1opBJGbuO4W
p1647
sVqueryString
p1648
(lp1649
(dp1650
Vname
p1651
g617
sVvalue
p1652
Vtbn:ANd9GcR3Yyo8XRTlPLLMPH79h3QTFkJUKmdr5ODpOPyyhTBw5yXtA1opBJGbuO4W
p1653
sasVheaders
p1654
(lp1655
sVheadersSize
p1656
I427
sVbodySize
p1657
I0
sVmethod
p1658
VGET
p1659
sVhttpVersion
p1660
VHTTP/1.1
p1661
ssVtimings
p1662
(dp1663
Vcomment
p1664
g4
sVreceive
p1665
I1
sVsend
p1666
I0
sVssl
p1667
I-1
sVconnect
p1668
I-1
sVdns
p1669
I-1
sVwait
p1670
I45
sVblocked
p1671
I-1
ssVtime
p1672
I47
sVresponse
p1673
(dp1674
Vstatus
p1675
I200
sVcomment
p1676
g4
sVcookies
p1677
(lp1678
sVstatusText
p1679
VOK
p1680
sVcontent
p1681
(dp1682
VmimeType
p1683
Vimage/jpeg
p1684
sVcomment
p1685
g4
sVsize
p1686
I0
ssVheaders
p1687
(lp1688
sVheadersSize
p1689
I429
sVredirectURL
p1690
g4
sVbodySize
p1691
I12382
sVhttpVersion
p1692
VHTTP/1.1
p1693
ssa(dp1694
Vcomment
p1695
g4
sVserverIPAddress
p1696
V216.58.216.206
p1697
sVpageref
p1698
VBig Mac
p1699
sVstartedDateTime
p1700
V2017-04-16T08:43:46.878-05:00
p1701
sVcache
p1702
(dp1703
sVrequest
p1704
(dp1705
Vcomment
p1706
g4
sVcookies
p1707
(lp1708
sVurl
p1709
Vhttps://encrypted-tbn0.gstatic.com/images?q=tbn:ANd9GcS4Qeo1jDGScIMrtJCQXwStlrpeAf-aJd4sZ3g6uT2yaf2JuIXgJ-AWOTYk2Q
p1710
sVqueryString
p1711
(lp1712
(dp1713
Vname
p1714
g617
sVvalue
p1715
Vtbn:ANd9GcS4Qeo1jDGScIMrtJCQXwStlrpeAf-aJd4sZ3g6uT2yaf2JuIXgJ-AWOTYk2Q
p1716
sasVheaders
p1717
(lp1718
sVheadersSize
p1719
I429
sVbodySize
p1720
I0
sVmethod
p1721
VGET
p1722
sVhttpVersion
p1723
VHTTP/1.1
p1724
ssVtimings
p1725
(dp1726
Vcomment
p1727
g4
sVreceive
p1728
I0
sVsend
p1729
I0
sVssl
p1730
I-1
sVconnect
p1731
I-1
sVdns
p1732
I-1
sVwait
p1733
I42
sVblocked
p1734
I-1
ssVtime
p1735
I43
sVresponse
p1736
(dp1737
Vstatus
p1738
I200
sVcomment
p1739
g4
sVcookies
p1740
(lp1741
sVstatusText
p1742
VOK
p1743
sVcontent
p1744
(dp1745
VmimeType
p1746
Vimage/jpeg
p1747
sVcomment
p1748
g4
sVsize
p1749
I0
ssVheaders
p1750
(lp1751
sVheadersSize
p1752
I428
sVredirectURL
p1753
g4
sVbodySize
p1754
I6690
sVhttpVersion
p1755
VHTTP/1.1
p1756
ssa(dp1757
Vcomment
p1758
g4
sVserverIPAddress
p1759
V216.58.216.206
p1760
sVpageref
p1761
VBig Mac
p1762
sVstartedDateTime
p1763
V2017-04-16T08:43:46.878-05:00
p1764
sVcache
p1765
(dp1766
sVrequest
p1767
(dp1768
Vcomment
p1769
g4
sVcookies
p1770
(lp1771
sVurl
p1772
Vhttps://encrypted-tbn3.gstatic.com/images?q=tbn:ANd9GcTnq_RxaPwVYKoG7bvCWxAfsggGwEgAT8xVnrO4AdIjBh4Ma3ouNkOAYQ7X
p1773
sVqueryString
p1774
(lp1775
(dp1776
Vname
p1777
g617
sVvalue
p1778
Vtbn:ANd9GcTnq_RxaPwVYKoG7bvCWxAfsggGwEgAT8xVnrO4AdIjBh4Ma3ouNkOAYQ7X
p1779
sasVheaders
p1780
(lp1781
sVheadersSize
p1782
I427
sVbodySize
p1783
I0
sVmethod
p1784
VGET
p1785
sVhttpVersion
p1786
VHTTP/1.1
p1787
ssVtimings
p1788
(dp1789
Vcomment
p1790
g4
sVreceive
p1791
I0
sVsend
p1792
I0
sVssl
p1793
I-1
sVconnect
p1794
I-1
sVdns
p1795
I-1
sVwait
p1796
I43
sVblocked
p1797
I-1
ssVtime
p1798
I44
sVresponse
p1799
(dp1800
Vstatus
p1801
I200
sVcomment
p1802
g4
sVcookies
p1803
(lp1804
sVstatusText
p1805
VOK
p1806
sVcontent
p1807
(dp1808
VmimeType
p1809
Vimage/jpeg
p1810
sVcomment
p1811
g4
sVsize
p1812
I0
ssVheaders
p1813
(lp1814
sVheadersSize
p1815
I428
sVredirectURL
p1816
g4
sVbodySize
p1817
I9218
sVhttpVersion
p1818
VHTTP/1.1
p1819
ssa(dp1820
Vcomment
p1821
g4
sVserverIPAddress
p1822
V172.217.6.4
p1823
sVpageref
p1824
VBig Mac
p1825
sVstartedDateTime
p1826
V2017-04-16T08:43:47.068-05:00
p1827
sVcache
p1828
(dp1829
sVrequest
p1830
(dp1831
Vcomment
p1832
g4
sVcookies
p1833
(lp1834
sVurl
p1835
Vhttps://www.google.com/async/log_amp_item_set?vet=10ahUKEwiFlt7ojanTAhUl1oMKHRUyCHYQooQBCAE..i&ei=DnXzWKiDLsHUjwSNvbWoDA&yv=2&async=num_items:1,_fmt:jspb
p1836
sVqueryString
p1837
(lp1838
(dp1839
Vname
p1840
Vvet
p1841
sVvalue
p1842
V10ahUKEwiFlt7ojanTAhUl1oMKHRUyCHYQooQBCAE..i
p1843
sa(dp1844
Vname
p1845
Vei
p1846
sVvalue
p1847
VDnXzWKiDLsHUjwSNvbWoDA
p1848
sa(dp1849
Vname
p1850
Vyv
p1851
sVvalue
p1852
g49
sa(dp1853
Vname
p1854
Vasync
p1855
sVvalue
p1856
Vnum_items:1,_fmt:jspb
p1857
sasVheaders
p1858
(lp1859
sVheadersSize
p1860
I670
sVbodySize
p1861
I0
sVmethod
p1862
VGET
p1863
sVhttpVersion
p1864
VHTTP/1.1
p1865
ssVtimings
p1866
(dp1867
Vcomment
p1868
g4
sVreceive
p1869
I0
sVsend
p1870
I0
sVssl
p1871
I-1
sVconnect
p1872
I-1
sVdns
p1873
I-1
sVwait
p1874
I32
sVblocked
p1875
I-1
ssVtime
p1876
I33
sVresponse
p1877
(dp1878
Vstatus
p1879
I200
sVcomment
p1880
g4
sVcookies
p1881
(lp1882
sVstatusText
p1883
VOK
p1884
sVcontent
p1885
(dp1886
VmimeType
p1887
Vapplication/json; charset=UTF-8
p1888
sVcomment
p1889
g4
sVsize
p1890
I0
ssVheaders
p1891
(lp1892
sVheadersSize
p1893
I417
sVredirectURL
p1894
g4
sVbodySize
p1895
I132
sVhttpVersion
p1896
VHTTP/1.1
p1897
ssa(dp1898
Vcomment
p1899
g4
sVserverIPAddress
p1900
V216.58.216.193
p1901
sVpageref
p1902
VBig Mac
p1903
sVstartedDateTime
p1904
V2017-04-16T08:43:47.578-05:00
p1905
sVcache
p1906
(dp1907
sVrequest
p1908
(dp1909
Vcomment
p1910
g4
sVcookies
p1911
(lp1912
sVurl
p1913
Vhttps://www-today-com.cdn.ampproject.org/v/www.today.com/amp/food/mcdonald-s-big-mac-now-comes-bigger-smaller-sizes-t107299?amp_js_v=9
p1914
sVqueryString
p1915
(lp1916
(dp1917
Vname
p1918
Vamp_js_v
p1919
sVvalue
p1920
V9
p1921
sasVheaders
p1922
(lp1923
sVheadersSize
p1924
I539
sVbodySize
p1925
I0
sVmethod
p1926
VGET
p1927
sVhttpVersion
p1928
VHTTP/1.1
p1929
ssVtimings
p1930
(dp1931
Vcomment
p1932
g4
sVreceive
p1933
I13
sVsend
p1934
I0
sVssl
p1935
I435
sVconnect
p1936
I451
sVdns
p1937
I48
sVwait
p1938
I108
sVblocked
p1939
I0
ssVtime
p1940
I623
sVresponse
p1941
(dp1942
Vstatus
p1943
I200
sVcomment
p1944
g4
sVcookies
p1945
(lp1946
sVstatusText
p1947
VOK
p1948
sVcontent
p1949
(dp1950
VmimeType
p1951
Vtext/html
p1952
sVcomment
p1953
g4
sVsize
p1954
I0
ssVheaders
p1955
(lp1956
sVheadersSize
p1957
I862
sVredirectURL
p1958
g4
sVbodySize
p1959
I23004
sVhttpVersion
p1960
VHTTP/1.1
p1961
ssa(dp1962
Vcomment
p1963
g4
sVserverIPAddress
p1964
V216.58.216.193
p1965
sVpageref
p1966
VBig Mac
p1967
sVstartedDateTime
p1968
V2017-04-16T08:43:48.340-05:00
p1969
sVcache
p1970
(dp1971
sVrequest
p1972
(dp1973
Vcomment
p1974
g4
sVcookies
p1975
(lp1976
sVurl
p1977
Vhttps://media4-s--nbcnews-com.cdn.ampproject.org/i/media4.s-nbcnews.com/j/newscms/2016_39/1161458/emiboscamp-headshot_156b19f76114945cc4fa79ce531d0dfd.today-inline-small.jpg
p1978
sVqueryString
p1979
(lp1980
sVheaders
p1981
(lp1982
sVheadersSize
p1983
I599
sVbodySize
p1984
I0
sVmethod
p1985
VGET
p1986
sVhttpVersion
p1987
VHTTP/1.1
p1988
ssVtimings
p1989
(dp1990
Vcomment
p1991
g4
sVreceive
p1992
I3
sVsend
p1993
I0
sVssl
p1994
I337
sVconnect
p1995
I358
sVdns
p1996
I65
sVwait
p1997
I47
sVblocked
p1998
I0
ssVtime
p1999
I474
sVresponse
p2000
(dp2001
Vstatus
p2002
I200
sVcomment
p2003
g4
sVcookies
p2004
(lp2005
sVstatusText
p2006
VOK
p2007
sVcontent
p2008
(dp2009
VmimeType
p2010
Vimage/jpeg
p2011
sVcomment
p2012
g4
sVsize
p2013
I0
ssVheaders
p2014
(lp2015
sVheadersSize
p2016
I849
sVredirectURL
p2017
g4
sVbodySize
p2018
I16520
sVhttpVersion
p2019
VHTTP/1.1
p2020
ssa(dp2021
Vcomment
p2022
g4
sVserverIPAddress
p2023
V172.217.6.4
p2024
sVpageref
p2025
VBig Mac
p2026
sVstartedDateTime
p2027
V2017-04-16T08:43:48.629-05:00
p2028
sVcache
p2029
(dp2030
sVrequest
p2031
(dp2032
Vcomment
p2033
g4
sVcookies
p2034
(lp2035
sVurl
p2036
Vhttps://www.google.com/gen_204?s=amp&atyp=csi&ei=DnXzWKiDLsHUjwSNvbWoDA&ampexp=011492014732688&action=Prerender&rt=msr.182,is.751,mbv.867,e_is.867
p2037
sVqueryString
p2038
(lp2039
(dp2040
Vname
p2041
g47
sVvalue
p2042
Vamp
p2043
sa(dp2044
Vname
p2045
Vatyp
p2046
sVvalue
p2047
Vcsi
p2048
sa(dp2049
Vname
p2050
Vei
p2051
sVvalue
p2052
VDnXzWKiDLsHUjwSNvbWoDA
p2053
sa(dp2054
Vname
p2055
Vampexp
p2056
sVvalue
p2057
V011492014732688
p2058
sa(dp2059
Vname
p2060
Vaction
p2061
sVvalue
p2062
VPrerender
p2063
sa(dp2064
Vname
p2065
Vrt
p2066
sVvalue
p2067
Vmsr.182,is.751,mbv.867,e_is.867
p2068
sasVheaders
p2069
(lp2070
sVheadersSize
p2071
I663
sVbodySize
p2072
I0
sVmethod
p2073
VGET
p2074
sVhttpVersion
p2075
VHTTP/1.1
p2076
ssVtimings
p2077
(dp2078
Vcomment
p2079
g4
sVreceive
p2080
I0
sVsend
p2081
I0
sVssl
p2082
I-1
sVconnect
p2083
I-1
sVdns
p2084
I-1
sVwait
p2085
I86
sVblocked
p2086
I-1
ssVtime
p2087
I86
sVresponse
p2088
(dp2089
Vstatus
p2090
I204
sVcomment
p2091
g4
sVcookies
p2092
(lp2093
sVstatusText
p2094
VNo Content
p2095
sVcontent
p2096
(dp2097
VmimeType
p2098
Vtext/html; charset=UTF-8
p2099
sVcomment
p2100
g4
sVsize
p2101
I0
ssVheaders
p2102
(lp2103
sVheadersSize
p2104
I248
sVredirectURL
p2105
g4
sVbodySize
p2106
I0
sVhttpVersion
p2107
VHTTP/1.1
p2108
ssa(dp2109
Vcomment
p2110
g4
sVserverIPAddress
p2111
V216.58.216.193
p2112
sVpageref
p2113
VBig Mac
p2114
sVstartedDateTime
p2115
V2017-04-16T08:43:48.650-05:00
p2116
sVcache
p2117
(dp2118
sVrequest
p2119
(dp2120
Vcomment
p2121
g4
sVcookies
p2122
(lp2123
sVurl
p2124
Vhttps://media1-s--nbcnews-com.cdn.ampproject.org/i/media1.s-nbcnews.com/j/newscms/2017_04/1189904/big-mac-different-sizes-mcdonalds-inline-170123_1f37eabab86e58283b9660a7fb23fe37.today-inline-med2x.jpg
p2125
sVqueryString
p2126
(lp2127
sVheaders
p2128
(lp2129
sVheadersSize
p2130
I627
sVbodySize
p2131
I0
sVmethod
p2132
VGET
p2133
sVhttpVersion
p2134
VHTTP/1.1
p2135
ssVtimings
p2136
(dp2137
Vcomment
p2138
g4
sVreceive
p2139
I40
sVsend
p2140
I0
sVssl
p2141
I682
sVconnect
p2142
I696
sVdns
p2143
I32
sVwait
p2144
I117
sVblocked
p2145
I0
ssVtime
p2146
I887
sVresponse
p2147
(dp2148
Vstatus
p2149
I200
sVcomment
p2150
g4
sVcookies
p2151
(lp2152
sVstatusText
p2153
VOK
p2154
sVcontent
p2155
(dp2156
VmimeType
p2157
Vimage/jpeg
p2158
sVcomment
p2159
g4
sVsize
p2160
I0
ssVheaders
p2161
(lp2162
sVheadersSize
p2163
I849
sVredirectURL
p2164
g4
sVbodySize
p2165
I88176
sVhttpVersion
p2166
VHTTP/1.1
p2167
ssa(dp2168
Vcomment
p2169
g4
sVserverIPAddress
p2170
V172.217.6.4
p2171
sVpageref
p2172
VBig Mac
p2173
sVstartedDateTime
p2174
V2017-04-16T08:43:48.848-05:00
p2175
sVcache
p2176
(dp2177
sVrequest
p2178
(dp2179
Vcomment
p2180
g4
sVcookies
p2181
(lp2182
sVurl
p2183
Vhttps://www.google.com/gen_204?s=web&atyp=csi&ei=DnXzWKiDLsHUjwSNvbWoDA&imc=30&imn=30&imp=20&adh=&xjs=init.72.14.sb_mob.50.dvl.12.c.2.mbsf.2.async.2&ima=8&rt=prt.1892,iml.2080,xjsls.1892,dcl.2008,qiml.2273,xjses.2262,xjsee.2488,xjs.2489,ol.4897,aft.2074,wsrt.168,cst.0,dnst.0,rqst.947,rspt.827,rqstt.2,unt.2,cstt.2,dit.2073
p2184
sVqueryString
p2185
(lp2186
(dp2187
Vname
p2188
g47
sVvalue
p2189
Vweb
p2190
sa(dp2191
Vname
p2192
Vatyp
p2193
sVvalue
p2194
Vcsi
p2195
sa(dp2196
Vname
p2197
Vei
p2198
sVvalue
p2199
VDnXzWKiDLsHUjwSNvbWoDA
p2200
sa(dp2201
Vname
p2202
Vimc
p2203
sVvalue
p2204
V30
p2205
sa(dp2206
Vname
p2207
Vimn
p2208
sVvalue
p2209
V30
p2210
sa(dp2211
Vname
p2212
Vimp
p2213
sVvalue
p2214
V20
p2215
sa(dp2216
Vname
p2217
Vadh
p2218
sVvalue
p2219
g4
sa(dp2220
Vname
p2221
Vxjs
p2222
sVvalue
p2223
Vinit.72.14.sb_mob.50.dvl.12.c.2.mbsf.2.async.2
p2224
sa(dp2225
Vname
p2226
Vima
p2227
sVvalue
p2228
V8
p2229
sa(dp2230
Vname
p2231
Vrt
p2232
sVvalue
p2233
Vprt.1892,iml.2080,xjsls.1892,dcl.2008,qiml.2273,xjses.2262,xjsee.2488,xjs.2489,ol.4897,aft.2074,wsrt.168,cst.0,dnst.0,rqst.947,rspt.827,rqstt.2,unt.2,cstt.2,dit.2073
p2234
sasVheaders
p2235
(lp2236
sVheadersSize
p2237
I840
sVbodySize
p2238
I0
sVmethod
p2239
VGET
p2240
sVhttpVersion
p2241
VHTTP/1.1
p2242
ssVtimings
p2243
(dp2244
Vcomment
p2245
g4
sVreceive
p2246
I0
sVsend
p2247
I0
sVssl
p2248
I-1
sVconnect
p2249
I-1
sVdns
p2250
I-1
sVwait
p2251
I31
sVblocked
p2252
I-1
ssVtime
p2253
I32
sVresponse
p2254
(dp2255
Vstatus
p2256
I204
sVcomment
p2257
g4
sVcookies
p2258
(lp2259
sVstatusText
p2260
VNo Content
p2261
sVcontent
p2262
(dp2263
VmimeType
p2264
Vtext/html; charset=UTF-8
p2265
sVcomment
p2266
g4
sVsize
p2267
I0
ssVheaders
p2268
(lp2269
sVheadersSize
p2270
I248
sVredirectURL
p2271
g4
sVbodySize
p2272
I0
sVhttpVersion
p2273
VHTTP/1.1
p2274
ssa(dp2275
Vcomment
p2276
g4
sVserverIPAddress
p2277
V172.217.6.4
p2278
sVpageref
p2279
VBig Mac
p2280
sVstartedDateTime
p2281
V2017-04-16T08:43:48.861-05:00
p2282
sVcache
p2283
(dp2284
sVrequest
p2285
(dp2286
Vcomment
p2287
g4
sVcookies
p2288
(lp2289
sVurl
p2290
Vhttps://www.google.com/gen_204?atyp=i&ct=slh&cad=&ei=A3XzWKPpHJWgjwSWpIPQBQ&m=V&t=C&s=1&v=2&pv=0.29369849972908935&me=1:1492350215844,x:2,V,0,0,1280,944:0,N,1,A3XzWKPpHJWgjwSWpIPQBQ:0,R,1,24,8,155,1249,1448:0,R,1,25,8,155,1249,1448:0,R,1,29,8,168,1249,40:0,R,1,48,8,267,1249,178:0,R,1,51,0,283,1265,197:0,R,1,91,8,445,1249,49:0,R,1,93,8,494,1249,72:0,R,1,101,8,583,1249,40:0,R,1,102,24,583,1217,40:0,R,1,105,8,639,1249,20:0,R,1,116,8,679,1249,278:0,R,1,117,8,728,1249,171:2,B,5639:7207,e,U&zx=1492350228842
p2291
sVqueryString
p2292
(lp2293
(dp2294
Vname
p2295
Vatyp
p2296
sVvalue
p2297
g30
sa(dp2298
Vname
p2299
Vct
p2300
sVvalue
p2301
Vslh
p2302
sa(dp2303
Vname
p2304
Vcad
p2305
sVvalue
p2306
g4
sa(dp2307
Vname
p2308
Vei
p2309
sVvalue
p2310
VA3XzWKPpHJWgjwSWpIPQBQ
p2311
sa(dp2312
Vname
p2313
g148
sVvalue
p2314
g150
sa(dp2315
Vname
p2316
g153
sVvalue
p2317
g155
sa(dp2318
Vname
p2319
g47
sVvalue
p2320
g159
sa(dp2321
Vname
p2322
g52
sVvalue
p2323
g49
sa(dp2324
Vname
p2325
Vpv
p2326
sVvalue
p2327
V0.29369849972908935
p2328
sa(dp2329
Vname
p2330
Vme
p2331
sVvalue
p2332
V1:1492350215844,x:2,V,0,0,1280,944:0,N,1,A3XzWKPpHJWgjwSWpIPQBQ:0,R,1,24,8,155,1249,1448:0,R,1,25,8,155,1249,1448:0,R,1,29,8,168,1249,40:0,R,1,48,8,267,1249,178:0,R,1,51,0,283,1265,197:0,R,1,91,8,445,1249,49:0,R,1,93,8,494,1249,72:0,R,1,101,8,583,1249,40:0,R,1,102,24,583,1217,40:0,R,1,105,8,639,1249,20:0,R,1,116,8,679,1249,278:0,R,1,117,8,728,1249,171:2,B,5639:7207,e,U
p2333
sa(dp2334
Vname
p2335
Vzx
p2336
sVvalue
p2337
V1492350228842
p2338
sasVheaders
p2339
(lp2340
sVheadersSize
p2341
I1023
sVbodySize
p2342
I0
sVmethod
p2343
VGET
p2344
sVhttpVersion
p2345
VHTTP/1.1
p2346
ssVtimings
p2347
(dp2348
Vcomment
p2349
g4
sVreceive
p2350
I0
sVsend
p2351
I0
sVssl
p2352
I-1
sVconnect
p2353
I-1
sVdns
p2354
I-1
sVwait
p2355
I39
sVblocked
p2356
I-1
ssVtime
p2357
I39
sVresponse
p2358
(dp2359
Vstatus
p2360
I204
sVcomment
p2361
g4
sVcookies
p2362
(lp2363
sVstatusText
p2364
VNo Content
p2365
sVcontent
p2366
(dp2367
VmimeType
p2368
Vtext/html; charset=UTF-8
p2369
sVcomment
p2370
g4
sVsize
p2371
I0
ssVheaders
p2372
(lp2373
sVheadersSize
p2374
I248
sVredirectURL
p2375
g4
sVbodySize
p2376
I0
sVhttpVersion
p2377
VHTTP/1.1
p2378
ssa(dp2379
Vcomment
p2380
g4
sVserverIPAddress
p2381
V172.217.6.4
p2382
sVpageref
p2383
VBig Mac
p2384
sVstartedDateTime
p2385
V2017-04-16T08:43:48.861-05:00
p2386
sVcache
p2387
(dp2388
sVrequest
p2389
(dp2390
Vcomment
p2391
g4
sVcookies
p2392
(lp2393
sVurl
p2394
Vhttps://www.google.com/gen_204?s=amp&atyp=csi&ei=DnXzWKiDLsHUjwSNvbWoDA&ampexp=011492014732688&action=Prerender&rt=pc.1
p2395
sVqueryString
p2396
(lp2397
(dp2398
Vname
p2399
g47
sVvalue
p2400
Vamp
p2401
sa(dp2402
Vname
p2403
Vatyp
p2404
sVvalue
p2405
Vcsi
p2406
sa(dp2407
Vname
p2408
Vei
p2409
sVvalue
p2410
VDnXzWKiDLsHUjwSNvbWoDA
p2411
sa(dp2412
Vname
p2413
Vampexp
p2414
sVvalue
p2415
V011492014732688
p2416
sa(dp2417
Vname
p2418
Vaction
p2419
sVvalue
p2420
VPrerender
p2421
sa(dp2422
Vname
p2423
Vrt
p2424
sVvalue
p2425
Vpc.1
p2426
sasVheaders
p2427
(lp2428
sVheadersSize
p2429
I636
sVbodySize
p2430
I0
sVmethod
p2431
VGET
p2432
sVhttpVersion
p2433
VHTTP/1.1
p2434
ssVtimings
p2435
(dp2436
Vcomment
p2437
g4
sVreceive
p2438
I0
sVsend
p2439
I0
sVssl
p2440
I-1
sVconnect
p2441
I-1
sVdns
p2442
I-1
sVwait
p2443
I44
sVblocked
p2444
I-1
ssVtime
p2445
I44
sVresponse
p2446
(dp2447
Vstatus
p2448
I204
sVcomment
p2449
g4
sVcookies
p2450
(lp2451
sVstatusText
p2452
VNo Content
p2453
sVcontent
p2454
(dp2455
VmimeType
p2456
Vtext/html; charset=UTF-8
p2457
sVcomment
p2458
g4
sVsize
p2459
I0
ssVheaders
p2460
(lp2461
sVheadersSize
p2462
I248
sVredirectURL
p2463
g4
sVbodySize
p2464
I0
sVhttpVersion
p2465
VHTTP/1.1
p2466
ssa(dp2467
Vcomment
p2468
g4
sVserverIPAddress
p2469
V172.217.6.4
p2470
sVpageref
p2471
VBig Mac
p2472
sVstartedDateTime
p2473
V2017-04-16T08:43:48.870-05:00
p2474
sVcache
p2475
(dp2476
sVrequest
p2477
(dp2478
Vcomment
p2479
g4
sVcookies
p2480
(lp2481
sVurl
p2482
Vhttps://www.google.com/gen_204?s=amp&atyp=csi&ei=DnXzWKiDLsHUjwSNvbWoDA&ampexp=011492014732688&action=Prerender&rt=ol.1767
p2483
sVqueryString
p2484
(lp2485
(dp2486
Vname
p2487
g47
sVvalue
p2488
Vamp
p2489
sa(dp2490
Vname
p2491
Vatyp
p2492
sVvalue
p2493
Vcsi
p2494
sa(dp2495
Vname
p2496
Vei
p2497
sVvalue
p2498
VDnXzWKiDLsHUjwSNvbWoDA
p2499
sa(dp2500
Vname
p2501
Vampexp
p2502
sVvalue
p2503
V011492014732688
p2504
sa(dp2505
Vname
p2506
Vaction
p2507
sVvalue
p2508
VPrerender
p2509
sa(dp2510
Vname
p2511
Vrt
p2512
sVvalue
p2513
Vol.1767
p2514
sasVheaders
p2515
(lp2516
sVheadersSize
p2517
I639
sVbodySize
p2518
I0
sVmethod
p2519
VGET
p2520
sVhttpVersion
p2521
VHTTP/1.1
p2522
ssVtimings
p2523
(dp2524
Vcomment
p2525
g4
sVreceive
p2526
I0
sVsend
p2527
I0
sVssl
p2528
I-1
sVconnect
p2529
I-1
sVdns
p2530
I-1
sVwait
p2531
I35
sVblocked
p2532
I-1
ssVtime
p2533
I35
sVresponse
p2534
(dp2535
Vstatus
p2536
I204
sVcomment
p2537
g4
sVcookies
p2538
(lp2539
sVstatusText
p2540
VNo Content
p2541
sVcontent
p2542
(dp2543
VmimeType
p2544
Vtext/html; charset=UTF-8
p2545
sVcomment
p2546
g4
sVsize
p2547
I0
ssVheaders
p2548
(lp2549
sVheadersSize
p2550
I248
sVredirectURL
p2551
g4
sVbodySize
p2552
I0
sVhttpVersion
p2553
VHTTP/1.1
p2554
ssasVversion
p2555
V1.2
p2556
sVpages
p2557
(lp2558
(dp2559
VpageTimings
p2560
(dp2561
Vcomment
p2562
g4
ssVcomment
p2563
g4
sVtitle
p2564
VBig Mac
p2565
sVid
p2566
VBig Mac
p2567
sVstartedDateTime
p2568
V2017-04-16T08:43:43.046-05:00
p2569
sasVcreator
p2570
(dp2571
Vcomment
p2572
g4
sVversion
p2573
V2.1.4
p2574
sVname
p2575
VBrowserMob Proxy
p2576
sss.