(dp0
Vlog
p1
(dp2
Vcomment
p3
V
p4
sVentries
p5
(lp6
(dp7
Vcomment
p8
g4
sVserverIPAddress
p9
V172.217.6.4
p10
sVpageref
p11
VJosh Jackson
p12
sVstartedDateTime
p13
V2017-04-16T08:30:16.364-05:00
p14
sVcache
p15
(dp16
sVrequest
p17
(dp18
Vcomment
p19
g4
sVcookies
p20
(lp21
sVurl
p22
Vhttps://www.google.com/gen_204?atyp=i&ct=slh&cad=&ei=1XHzWJdqrPiPBOX5hfAG&m=V&t=C&s=1&v=2&pv=0.2572702787736092&me=1:1492349399742,x:4,V,0,0,1280,944:0,N,1,1XHzWJdqrPiPBOX5hfAG:0,R,1,24,8,155,1249,251:0,R,1,34,8,416,1249,667:0,R,1,35,8,416,1249,667:0,R,1,38,8,429,1249,40:0,R,1,51,8,481,1249,178:0,R,1,54,0,497,1265,197:0,R,1,94,8,676,1249,40:0,R,1,95,24,676,1217,40:0,R,1,101,8,732,1249,20:0,R,1,103,8,760,1249,20:3,B,3246:16612,e,U&zx=1492349416362
p23
sVqueryString
p24
(lp25
(dp26
Vname
p27
Vatyp
p28
sVvalue
p29
Vi
p30
sa(dp31
Vname
p32
Vct
p33
sVvalue
p34
Vslh
p35
sa(dp36
Vname
p37
Vcad
p38
sVvalue
p39
g4
sa(dp40
Vname
p41
Vei
p42
sVvalue
p43
V1XHzWJdqrPiPBOX5hfAG
p44
sa(dp45
Vname
p46
Vm
p47
sVvalue
p48
VV
p49
sa(dp50
Vname
p51
Vt
p52
sVvalue
p53
VC
p54
sa(dp55
Vname
p56
Vs
p57
sVvalue
p58
V1
p59
sa(dp60
Vname
p61
Vv
p62
sVvalue
p63
V2
p64
sa(dp65
Vname
p66
Vpv
p67
sVvalue
p68
V0.2572702787736092
p69
sa(dp70
Vname
p71
Vme
p72
sVvalue
p73
V1:1492349399742,x:4,V,0,0,1280,944:0,N,1,1XHzWJdqrPiPBOX5hfAG:0,R,1,24,8,155,1249,251:0,R,1,34,8,416,1249,667:0,R,1,35,8,416,1249,667:0,R,1,38,8,429,1249,40:0,R,1,51,8,481,1249,178:0,R,1,54,0,497,1265,197:0,R,1,94,8,676,1249,40:0,R,1,95,24,676,1217,40:0,R,1,101,8,732,1249,20:0,R,1,103,8,760,1249,20:3,B,3246:16612,e,U
p74
sa(dp75
Vname
p76
Vzx
p77
sVvalue
p78
V1492349416362
p79
sasVheaders
p80
(lp81
sVheadersSize
p82
I967
sVbodySize
p83
I0
sVmethod
p84
VGET
p85
sVhttpVersion
p86
VHTTP/1.1
p87
ssVtimings
p88
(dp89
Vcomment
p90
g4
sVreceive
p91
I0
sVsend
p92
I0
sVssl
p93
I-1
sVconnect
p94
I-1
sVdns
p95
I-1
sVwait
p96
I0
sVblocked
p97
I-1
ssVtime
p98
I0
sVresponse
p99
(dp100
Vstatus
p101
I0
sVcomment
p102
g4
sVcookies
p103
(lp104
sV_error
p105
VNo response received
p106
sVstatusText
p107
g4
sVcontent
p108
(dp109
VmimeType
p110
g4
sVcomment
p111
g4
sVsize
p112
I0
ssVheaders
p113
(lp114
sVheadersSize
p115
I-1
sVredirectURL
p116
g4
sVbodySize
p117
I-1
sVhttpVersion
p118
Vunknown
p119
ssa(dp120
Vcomment
p121
g4
sVserverIPAddress
p122
V172.217.6.4
p123
sVpageref
p124
VJosh Jackson
p125
sVstartedDateTime
p126
V2017-04-16T08:30:16.364-05:00
p127
sVcache
p128
(dp129
sVrequest
p130
(dp131
Vcomment
p132
g4
sVcookies
p133
(lp134
sVurl
p135
Vhttps://www.google.com/gen_204?atyp=i&ct=slh&cad=&ei=q3HzWMbvD-LTjwTB4KfICA&m=V&t=C&s=1&v=2&pv=0.3112079168787465&me=1:1492349358460,x:1,V,0,0,1280,944:0,N,1,q3HzWMbvD-LTjwTB4KfICA:0,R,1,24,8,155,1249,445:0,R,1,28,8,268,1249,332:0,R,1,29,0,269,1265,351:0,R,1,60,8,610,1249,647:0,R,1,61,8,610,1249,647:0,R,1,64,8,623,1249,40:0,R,1,77,8,675,1249,178:0,R,1,80,0,691,1265,197:0,R,1,120,8,870,1249,20:0,R,1,121,24,870,1217,20:0,R,1,127,8,906,1249,20:0,R,1,136,8,934,1249,20:2,B,3782:21325,e,U&zx=1492349416363
p136
sVqueryString
p137
(lp138
(dp139
Vname
p140
Vatyp
p141
sVvalue
p142
g30
sa(dp143
Vname
p144
Vct
p145
sVvalue
p146
Vslh
p147
sa(dp148
Vname
p149
Vcad
p150
sVvalue
p151
g4
sa(dp152
Vname
p153
Vei
p154
sVvalue
p155
Vq3HzWMbvD-LTjwTB4KfICA
p156
sa(dp157
Vname
p158
g47
sVvalue
p159
g49
sa(dp160
Vname
p161
g52
sVvalue
p162
g54
sa(dp163
Vname
p164
g57
sVvalue
p165
g59
sa(dp166
Vname
p167
g62
sVvalue
p168
g64
sa(dp169
Vname
p170
Vpv
p171
sVvalue
p172
V0.3112079168787465
p173
sa(dp174
Vname
p175
Vme
p176
sVvalue
p177
V1:1492349358460,x:1,V,0,0,1280,944:0,N,1,q3HzWMbvD-LTjwTB4KfICA:0,R,1,24,8,155,1249,445:0,R,1,28,8,268,1249,332:0,R,1,29,0,269,1265,351:0,R,1,60,8,610,1249,647:0,R,1,61,8,610,1249,647:0,R,1,64,8,623,1249,40:0,R,1,77,8,675,1249,178:0,R,1,80,0,691,1265,197:0,R,1,120,8,870,1249,20:0,R,1,121,24,870,1217,20:0,R,1,127,8,906,1249,20:0,R,1,136,8,934,1249,20:2,B,3782:21325,e,U
p178
sa(dp179
Vname
p180
Vzx
p181
sVvalue
p182
V1492349416363
p183
sasVheaders
p184
(lp185
sVheadersSize
p186
I1021
sVbodySize
p187
I0
sVmethod
p188
VGET
p189
sVhttpVersion
p190
VHTTP/1.1
p191
ssVtimings
p192
(dp193
Vcomment
p194
g4
sVreceive
p195
I0
sVsend
p196
I0
sVssl
p197
I-1
sVconnect
p198
I-1
sVdns
p199
I-1
sVwait
p200
I0
sVblocked
p201
I-1
ssVtime
p202
I0
sVresponse
p203
(dp204
Vstatus
p205
I0
sVcomment
p206
g4
sVcookies
p207
(lp208
sV_error
p209
VNo response received
p210
sVstatusText
p211
g4
sVcontent
p212
(dp213
VmimeType
p214
g4
sVcomment
p215
g4
sVsize
p216
I0
ssVheaders
p217
(lp218
sVheadersSize
p219
I-1
sVredirectURL
p220
g4
sVbodySize
p221
I-1
sVhttpVersion
p222
Vunknown
p223
ssa(dp224
Vcomment
p225
g4
sVserverIPAddress
p226
V172.217.6.4
p227
sVpageref
p228
VJosh Jackson
p229
sVstartedDateTime
p230
V2017-04-16T08:30:16.365-05:00
p231
sVcache
p232
(dp233
sVrequest
p234
(dp235
Vcomment
p236
g4
sVcookies
p237
(lp238
sVurl
p239
Vhttps://www.google.com/gen_204?atyp=i&ct=slh&cad=&ei=w3HzWJjRH4uijwSyorDABA&m=V&t=C&s=1&v=2&pv=0.24343099472914476&me=1:1492349382301,x:1,V,0,0,1280,944:0,N,1,w3HzWJjRH4uijwSyorDABA:0,R,1,24,8,155,1249,647:0,R,1,25,8,155,1249,647:0,R,1,28,8,168,1249,40:0,R,1,41,8,220,1249,178:0,R,1,44,0,236,1265,197:0,R,1,84,8,415,1249,20:0,R,1,85,24,415,1217,20:0,R,1,91,8,451,1249,20:0,R,1,98,8,479,1249,20:0,R,1,150,8,812,1249,359:0,R,1,151,8,856,1249,315:0,R,1,152,0,856,1265,335:2,B,3809:15094,e,U&zx=1492349416364
p240
sVqueryString
p241
(lp242
(dp243
Vname
p244
Vatyp
p245
sVvalue
p246
g30
sa(dp247
Vname
p248
Vct
p249
sVvalue
p250
Vslh
p251
sa(dp252
Vname
p253
Vcad
p254
sVvalue
p255
g4
sa(dp256
Vname
p257
Vei
p258
sVvalue
p259
Vw3HzWJjRH4uijwSyorDABA
p260
sa(dp261
Vname
p262
g47
sVvalue
p263
g49
sa(dp264
Vname
p265
g52
sVvalue
p266
g54
sa(dp267
Vname
p268
g57
sVvalue
p269
g59
sa(dp270
Vname
p271
g62
sVvalue
p272
g64
sa(dp273
Vname
p274
Vpv
p275
sVvalue
p276
V0.24343099472914476
p277
sa(dp278
Vname
p279
Vme
p280
sVvalue
p281
V1:1492349382301,x:1,V,0,0,1280,944:0,N,1,w3HzWJjRH4uijwSyorDABA:0,R,1,24,8,155,1249,647:0,R,1,25,8,155,1249,647:0,R,1,28,8,168,1249,40:0,R,1,41,8,220,1249,178:0,R,1,44,0,236,1265,197:0,R,1,84,8,415,1249,20:0,R,1,85,24,415,1217,20:0,R,1,91,8,451,1249,20:0,R,1,98,8,479,1249,20:0,R,1,150,8,812,1249,359:0,R,1,151,8,856,1249,315:0,R,1,152,0,856,1265,335:2,B,3809:15094,e,U
p282
sa(dp283
Vname
p284
Vzx
p285
sVvalue
p286
V1492349416364
p287
sasVheaders
p288
(lp289
sVheadersSize
p290
I1021
sVbodySize
p291
I0
sVmethod
p292
VGET
p293
sVhttpVersion
p294
VHTTP/1.1
p295
ssVtimings
p296
(dp297
Vcomment
p298
g4
sVreceive
p299
I0
sVsend
p300
I0
sVssl
p301
I-1
sVconnect
p302
I-1
sVdns
p303
I-1
sVwait
p304
I0
sVblocked
p305
I-1
ssVtime
p306
I0
sVresponse
p307
(dp308
Vstatus
p309
I0
sVcomment
p310
g4
sVcookies
p311
(lp312
sV_error
p313
VNo response received
p314
sVstatusText
p315
g4
sVcontent
p316
(dp317
VmimeType
p318
g4
sVcomment
p319
g4
sVsize
p320
I0
ssVheaders
p321
(lp322
sVheadersSize
p323
I-1
sVredirectURL
p324
g4
sVbodySize
p325
I-1
sVhttpVersion
p326
Vunknown
p327
ssa(dp328
Vcomment
p329
g4
sVserverIPAddress
p330
V172.217.6.4
p331
sVpageref
p332
VJosh Jackson
p333
sVstartedDateTime
p334
V2017-04-16T08:30:16.366-05:00
p335
sVcache
p336
(dp337
sVrequest
p338
(dp339
Vcomment
p340
g4
sVcookies
p341
(lp342
sVurl
p343
Vhttps://www.google.com/gen_204?atyp=i&ct=slh&cad=&ei=BXHzWIP8Meq-jwTI64z4DQ&m=V&t=C&s=1&v=2&pv=0.8802857241403822&me=1:1492349192964,x:2,V,0,0,1280,944:0,N,1,BXHzWIP8Meq-jwTI64z4DQ:0,R,1,24,8,155,1249,281:0,R,1,25,8,155,1249,261:0,R,1,26,8,155,1249,261:0,R,1,27,8,155,1249,110:0,R,1,42,8,446,1249,251:0,R,1,52,8,707,1249,301:0,R,1,53,8,707,1249,301:0,R,1,57,1142,707,115,107:0,R,1,66,8,741,1134,40:0,R,1,78,8,831,1249,40:0,R,1,79,24,831,1217,40:0,R,1,82,8,887,1249,20:0,R,1,84,8,915,1249,20:1,B,3492:19394,e,U&zx=1492349416364
p344
sVqueryString
p345
(lp346
(dp347
Vname
p348
Vatyp
p349
sVvalue
p350
g30
sa(dp351
Vname
p352
Vct
p353
sVvalue
p354
Vslh
p355
sa(dp356
Vname
p357
Vcad
p358
sVvalue
p359
g4
sa(dp360
Vname
p361
Vei
p362
sVvalue
p363
VBXHzWIP8Meq-jwTI64z4DQ
p364
sa(dp365
Vname
p366
g47
sVvalue
p367
g49
sa(dp368
Vname
p369
g52
sVvalue
p370
g54
sa(dp371
Vname
p372
g57
sVvalue
p373
g59
sa(dp374
Vname
p375
g62
sVvalue
p376
g64
sa(dp377
Vname
p378
Vpv
p379
sVvalue
p380
V0.8802857241403822
p381
sa(dp382
Vname
p383
Vme
p384
sVvalue
p385
V1:1492349192964,x:2,V,0,0,1280,944:0,N,1,BXHzWIP8Meq-jwTI64z4DQ:0,R,1,24,8,155,1249,281:0,R,1,25,8,155,1249,261:0,R,1,26,8,155,1249,261:0,R,1,27,8,155,1249,110:0,R,1,42,8,446,1249,251:0,R,1,52,8,707,1249,301:0,R,1,53,8,707,1249,301:0,R,1,57,1142,707,115,107:0,R,1,66,8,741,1134,40:0,R,1,78,8,831,1249,40:0,R,1,79,24,831,1217,40:0,R,1,82,8,887,1249,20:0,R,1,84,8,915,1249,20:1,B,3492:19394,e,U
p386
sa(dp387
Vname
p388
Vzx
p389
sVvalue
p390
V1492349416364
p391
sasVheaders
p392
(lp393
sVheadersSize
p394
I1043
sVbodySize
p395
I0
sVmethod
p396
VGET
p397
sVhttpVersion
p398
VHTTP/1.1
p399
ssVtimings
p400
(dp401
Vcomment
p402
g4
sVreceive
p403
I0
sVsend
p404
I0
sVssl
p405
I-1
sVconnect
p406
I-1
sVdns
p407
I-1
sVwait
p408
I0
sVblocked
p409
I-1
ssVtime
p410
I0
sVresponse
p411
(dp412
Vstatus
p413
I0
sVcomment
p414
g4
sVcookies
p415
(lp416
sV_error
p417
VNo response received
p418
sVstatusText
p419
g4
sVcontent
p420
(dp421
VmimeType
p422
g4
sVcomment
p423
g4
sVsize
p424
I0
ssVheaders
p425
(lp426
sVheadersSize
p427
I-1
sVredirectURL
p428
g4
sVbodySize
p429
I-1
sVhttpVersion
p430
Vunknown
p431
ssa(dp432
Vcomment
p433
g4
sVserverIPAddress
p434
V172.217.6.4
p435
sVpageref
p436
VJosh Jackson
p437
sVstartedDateTime
p438
V2017-04-16T08:30:16.371-05:00
p439
sVcache
p440
(dp441
sVrequest
p442
(dp443
Vcomment
p444
g4
sVcookies
p445
(lp446
sVurl
p447
Vhttp://www.google.com/
p448
sVqueryString
p449
(lp450
sVheaders
p451
(lp452
sVheadersSize
p453
I613
sVbodySize
p454
I0
sVmethod
p455
VGET
p456
sVhttpVersion
p457
VHTTP/1.1
p458
ssVtimings
p459
(dp460
Vcomment
p461
g4
sVreceive
p462
I0
sVsend
p463
I0
sVssl
p464
I-1
sVconnect
p465
I-1
sVdns
p466
I-1
sVwait
p467
I42
sVblocked
p468
I-1
ssVtime
p469
I42
sVresponse
p470
(dp471
Vstatus
p472
I302
sVcomment
p473
g4
sVcookies
p474
(lp475
sVstatusText
p476
VFound
p477
sVcontent
p478
(dp479
VmimeType
p480
Vtext/html; charset=UTF-8
p481
sVcomment
p482
g4
sVsize
p483
I0
ssVheaders
p484
(lp485
sVheadersSize
p486
I609
sVredirectURL
p487
Vhttps://www.google.com/?gws_rd=ssl
p488
sVbodySize
p489
I231
sVhttpVersion
p490
VHTTP/1.1
p491
ssa(dp492
Vcomment
p493
g4
sVserverIPAddress
p494
V172.217.6.4
p495
sVpageref
p496
VJosh Jackson
p497
sVstartedDateTime
p498
V2017-04-16T08:30:16.423-05:00
p499
sVcache
p500
(dp501
sVrequest
p502
(dp503
Vcomment
p504
g4
sVcookies
p505
(lp506
sVurl
p507
Vhttps://www.google.com/?gws_rd=ssl
p508
sVqueryString
p509
(lp510
(dp511
Vname
p512
Vgws_rd
p513
sVvalue
p514
Vssl
p515
sasVheaders
p516
(lp517
sVheadersSize
p518
I607
sVbodySize
p519
I0
sVmethod
p520
VGET
p521
sVhttpVersion
p522
VHTTP/1.1
p523
ssVtimings
p524
(dp525
Vcomment
p526
g4
sVreceive
p527
I29
sVsend
p528
I0
sVssl
p529
I-1
sVconnect
p530
I-1
sVdns
p531
I-1
sVwait
p532
I86
sVblocked
p533
I-1
ssVtime
p534
I115
sVresponse
p535
(dp536
Vstatus
p537
I200
sVcomment
p538
g4
sVcookies
p539
(lp540
sVstatusText
p541
VOK
p542
sVcontent
p543
(dp544
VmimeType
p545
Vtext/html; charset=UTF-8
p546
sVcomment
p547
g4
sVsize
p548
I0
ssVheaders
p549
(lp550
sVheadersSize
p551
I721
sVredirectURL
p552
g4
sVbodySize
p553
I34293
sVhttpVersion
p554
VHTTP/1.1
p555
ssa(dp556
Vcomment
p557
g4
sVserverIPAddress
p558
V172.217.6.4
p559
sVpageref
p560
VJosh Jackson
p561
sVstartedDateTime
p562
V2017-04-16T08:30:16.748-05:00
p563
sVcache
p564
(dp565
sVrequest
p566
(dp567
Vcomment
p568
g4
sVcookies
p569
(lp570
sVurl
p571
Vhttps://www.google.com/gen_204?s=mobilewebhp&atyp=csi&ei=53HzWNDBGcz-jwSwkLawDw&imc=1&imn=1&imp=0&adh=&xjs=init.30.12.sb_mob.22.dvl.3.c.1.jsa.1.mbsf.1&ima=1&rt=xjsls.16,prt.17,iml.17,dcl.40,xjses.89,xjsee.181,xjs.182,ol.215,aft.17,wsrt.165,cst.0,dnst.0,rqst.117,rspt.30,rqstt.62,unt.56,cstt.56,dit.197
p572
sVqueryString
p573
(lp574
(dp575
Vname
p576
g57
sVvalue
p577
Vmobilewebhp
p578
sa(dp579
Vname
p580
Vatyp
p581
sVvalue
p582
Vcsi
p583
sa(dp584
Vname
p585
Vei
p586
sVvalue
p587
V53HzWNDBGcz-jwSwkLawDw
p588
sa(dp589
Vname
p590
Vimc
p591
sVvalue
p592
g59
sa(dp593
Vname
p594
Vimn
p595
sVvalue
p596
g59
sa(dp597
Vname
p598
Vimp
p599
sVvalue
p600
V0
p601
sa(dp602
Vname
p603
Vadh
p604
sVvalue
p605
g4
sa(dp606
Vname
p607
Vxjs
p608
sVvalue
p609
Vinit.30.12.sb_mob.22.dvl.3.c.1.jsa.1.mbsf.1
p610
sa(dp611
Vname
p612
Vima
p613
sVvalue
p614
g59
sa(dp615
Vname
p616
Vrt
p617
sVvalue
p618
Vxjsls.16,prt.17,iml.17,dcl.40,xjses.89,xjsee.181,xjs.182,ol.215,aft.17,wsrt.165,cst.0,dnst.0,rqst.117,rspt.30,rqstt.62,unt.56,cstt.56,dit.197
p619
sasVheaders
p620
(lp621
sVheadersSize
p622
I829
sVbodySize
p623
I0
sVmethod
p624
VGET
p625
sVhttpVersion
p626
VHTTP/1.1
p627
ssVtimings
p628
(dp629
Vcomment
p630
g4
sVreceive
p631
I0
sVsend
p632
I0
sVssl
p633
I-1
sVconnect
p634
I-1
sVdns
p635
I-1
sVwait
p636
I23
sVblocked
p637
I-1
ssVtime
p638
I23
sVresponse
p639
(dp640
Vstatus
p641
I204
sVcomment
p642
g4
sVcookies
p643
(lp644
sVstatusText
p645
VNo Content
p646
sVcontent
p647
(dp648
VmimeType
p649
Vtext/html; charset=UTF-8
p650
sVcomment
p651
g4
sVsize
p652
I0
ssVheaders
p653
(lp654
sVheadersSize
p655
I248
sVredirectURL
p656
g4
sVbodySize
p657
I0
sVhttpVersion
p658
VHTTP/1.1
p659
ssa(dp660
Vcomment
p661
g4
sVserverIPAddress
p662
V172.217.6.4
p663
sVpageref
p664
VJosh Jackson
p665
sVstartedDateTime
p666
V2017-04-16T08:30:16.907-05:00
p667
sVcache
p668
(dp669
sVrequest
p670
(dp671
Vcomment
p672
g4
sVcookies
p673
(lp674
sVurl
p675
Vhttps://www.google.com/complete/search?client=mobile-gws-hp&hl=en&gs_rn=64&gs_ri=mobile-gws-hp&sla=1&pfq=jose%20fernandez&gm=602&cp=0&gs_id=1&xhr=t&q=J&tch=1&ech=1&psi=53HzWNDBGcz-jwSwkLawDw.1492349416678.1
p676
sVqueryString
p677
(lp678
(dp679
Vname
p680
Vclient
p681
sVvalue
p682
Vmobile-gws-hp
p683
sa(dp684
Vname
p685
Vhl
p686
sVvalue
p687
Ven
p688
sa(dp689
Vname
p690
Vgs_rn
p691
sVvalue
p692
V64
p693
sa(dp694
Vname
p695
Vgs_ri
p696
sVvalue
p697
Vmobile-gws-hp
p698
sa(dp699
Vname
p700
Vsla
p701
sVvalue
p702
g59
sa(dp703
Vname
p704
Vpfq
p705
sVvalue
p706
Vjose fernandez
p707
sa(dp708
Vname
p709
Vgm
p710
sVvalue
p711
V602
p712
sa(dp713
Vname
p714
Vcp
p715
sVvalue
p716
g601
sa(dp717
Vname
p718
Vgs_id
p719
sVvalue
p720
g59
sa(dp721
Vname
p722
Vxhr
p723
sVvalue
p724
g52
sa(dp725
Vname
p726
Vq
p727
sVvalue
p728
VJ
p729
sa(dp730
Vname
p731
Vtch
p732
sVvalue
p733
g59
sa(dp734
Vname
p735
Vech
p736
sVvalue
p737
g59
sa(dp738
Vname
p739
Vpsi
p740
sVvalue
p741
V53HzWNDBGcz-jwSwkLawDw.1492349416678.1
p742
sasVheaders
p743
(lp744
sVheadersSize
p745
I734
sVbodySize
p746
I0
sVmethod
p747
VGET
p748
sVhttpVersion
p749
VHTTP/1.1
p750
ssVtimings
p751
(dp752
Vcomment
p753
g4
sVreceive
p754
I0
sVsend
p755
I0
sVssl
p756
I-1
sVconnect
p757
I-1
sVdns
p758
I-1
sVwait
p759
I0
sVblocked
p760
I-1
ssVtime
p761
I0
sVresponse
p762
(dp763
Vstatus
p764
I0
sVcomment
p765
g4
sVcookies
p766
(lp767
sV_error
p768
VNo response received
p769
sVstatusText
p770
g4
sVcontent
p771
(dp772
VmimeType
p773
g4
sVcomment
p774
g4
sVsize
p775
I0
ssVheaders
p776
(lp777
sVheadersSize
p778
I-1
sVredirectURL
p779
g4
sVbodySize
p780
I-1
sVhttpVersion
p781
Vunknown
p782
ssa(dp783
Vcomment
p784
g4
sVserverIPAddress
p785
V172.217.6.4
p786
sVpageref
p787
VJosh Jackson
p788
sVstartedDateTime
p789
V2017-04-16T08:30:16.967-05:00
p790
sVcache
p791
(dp792
sVrequest
p793
(dp794
Vcomment
p795
g4
sVcookies
p796
(lp797
sVurl
p798
Vhttps://www.google.com/search?site=&source=hp&ei=53HzWNDBGcz-jwSwkLawDw&q=Josh+Jackson&oq=Josh+Jackson&gs_l=mobile-gws-hp.3...206.240.0.264.12.1.0.0.0.0.0.0..0.0....0...1c.1.64.mobile-gws-hp..12.0.0.8TGnyoLfhjs
p799
sVqueryString
p800
(lp801
(dp802
Vname
p803
Vsite
p804
sVvalue
p805
g4
sa(dp806
Vname
p807
Vsource
p808
sVvalue
p809
Vhp
p810
sa(dp811
Vname
p812
Vei
p813
sVvalue
p814
V53HzWNDBGcz-jwSwkLawDw
p815
sa(dp816
Vname
p817
g727
sVvalue
p818
VJosh Jackson
p819
sa(dp820
Vname
p821
Voq
p822
sVvalue
p823
VJosh Jackson
p824
sa(dp825
Vname
p826
Vgs_l
p827
sVvalue
p828
Vmobile-gws-hp.3...206.240.0.264.12.1.0.0.0.0.0.0..0.0....0...1c.1.64.mobile-gws-hp..12.0.0.8TGnyoLfhjs
p829
sasVheaders
p830
(lp831
sVheadersSize
p832
I828
sVbodySize
p833
I0
sVmethod
p834
VGET
p835
sVhttpVersion
p836
VHTTP/1.1
p837
ssVtimings
p838
(dp839
Vcomment
p840
g4
sVreceive
p841
I901
sVsend
p842
I0
sVssl
p843
I-1
sVconnect
p844
I-1
sVdns
p845
I-1
sVwait
p846
I107
sVblocked
p847
I-1
ssVtime
p848
I1008
sVresponse
p849
(dp850
Vstatus
p851
I200
sVcomment
p852
g4
sVcookies
p853
(lp854
sVstatusText
p855
VOK
p856
sVcontent
p857
(dp858
VmimeType
p859
Vtext/html; charset=UTF-8
p860
sVcomment
p861
g4
sVsize
p862
I0
ssVheaders
p863
(lp864
sVheadersSize
p865
I363
sVredirectURL
p866
g4
sVbodySize
p867
I105143
sVhttpVersion
p868
VHTTP/1.1
p869
ssa(dp870
Vcomment
p871
g4
sVserverIPAddress
p872
V172.217.0.14
p873
sVpageref
p874
VJosh Jackson
p875
sVstartedDateTime
p876
V2017-04-16T08:30:18.052-05:00
p877
sVcache
p878
(dp879
sVrequest
p880
(dp881
Vcomment
p882
g4
sVcookies
p883
(lp884
sVurl
p885
Vhttps://encrypted-tbn1.gstatic.com/images?q=tbn:ANd9GcR98bf1DoP6YcdxRr-VvmpGPdTtyQ4PXXX-LfaB1bP7E9agc-8OWcb1Latms2p77CWNQs0&usqp=CAE
p886
sVqueryString
p887
(lp888
(dp889
Vname
p890
g727
sVvalue
p891
Vtbn:ANd9GcR98bf1DoP6YcdxRr-VvmpGPdTtyQ4PXXX-LfaB1bP7E9agc-8OWcb1Latms2p77CWNQs0
p892
sa(dp893
Vname
p894
Vusqp
p895
sVvalue
p896
VCAE
p897
sasVheaders
p898
(lp899
sVheadersSize
p900
I447
sVbodySize
p901
I0
sVmethod
p902
VGET
p903
sVhttpVersion
p904
VHTTP/1.1
p905
ssVtimings
p906
(dp907
Vcomment
p908
g4
sVreceive
p909
I2
sVsend
p910
I0
sVssl
p911
I-1
sVconnect
p912
I-1
sVdns
p913
I-1
sVwait
p914
I14
sVblocked
p915
I-1
ssVtime
p916
I17
sVresponse
p917
(dp918
Vstatus
p919
I200
sVcomment
p920
g4
sVcookies
p921
(lp922
sVstatusText
p923
VOK
p924
sVcontent
p925
(dp926
VmimeType
p927
Vimage/png
p928
sVcomment
p929
g4
sVsize
p930
I0
ssVheaders
p931
(lp932
sVheadersSize
p933
I427
sVredirectURL
p934
g4
sVbodySize
p935
I4042
sVhttpVersion
p936
VHTTP/1.1
p937
ssa(dp938
Vcomment
p939
g4
sVserverIPAddress
p940
V172.217.6.4
p941
sVpageref
p942
VJosh Jackson
p943
sVstartedDateTime
p944
V2017-04-16T08:30:18.642-05:00
p945
sVcache
p946
(dp947
sVrequest
p948
(dp949
Vcomment
p950
g4
sVcookies
p951
(lp952
sVurl
p953
Vhttps://www.google.com/async/irc?vet=10ahUKEwi958bmiqnTAhUl7oMKHYkeBDEQo0EI0AE..i&ved=0ahUKEwi958bmiqnTAhUl7oMKHYkeBDEQo0EI0AE&ei=53HzWP3XOqXcjwSJvZCIAw&yv=2&async=iu:1,ved:0ahUKEwi958bmiqnTAhUl7oMKHYkeBDEQo0EI0AE,_id:irc_async,_pms:qs
p954
sVqueryString
p955
(lp956
(dp957
Vname
p958
Vvet
p959
sVvalue
p960
V10ahUKEwi958bmiqnTAhUl7oMKHYkeBDEQo0EI0AE..i
p961
sa(dp962
Vname
p963
Vved
p964
sVvalue
p965
V0ahUKEwi958bmiqnTAhUl7oMKHYkeBDEQo0EI0AE
p966
sa(dp967
Vname
p968
Vei
p969
sVvalue
p970
V53HzWP3XOqXcjwSJvZCIAw
p971
sa(dp972
Vname
p973
Vyv
p974
sVvalue
p975
g64
sa(dp976
Vname
p977
Vasync
p978
sVvalue
p979
Viu:1,ved:0ahUKEwi958bmiqnTAhUl7oMKHYkeBDEQo0EI0AE,_id:irc_async,_pms:qs
p980
sasVheaders
p981
(lp982
sVheadersSize
p983
I752
sVbodySize
p984
I0
sVmethod
p985
VGET
p986
sVhttpVersion
p987
VHTTP/1.1
p988
ssVtimings
p989
(dp990
Vcomment
p991
g4
sVreceive
p992
I1
sVsend
p993
I0
sVssl
p994
I-1
sVconnect
p995
I-1
sVdns
p996
I-1
sVwait
p997
I55
sVblocked
p998
I-1
ssVtime
p999
I57
sVresponse
p1000
(dp1001
Vstatus
p1002
I200
sVcomment
p1003
g4
sVcookies
p1004
(lp1005
sVstatusText
p1006
VOK
p1007
sVcontent
p1008
(dp1009
VmimeType
p1010
Vtext/html; charset=UTF-8
p1011
sVcomment
p1012
g4
sVsize
p1013
I0
ssVheaders
p1014
(lp1015
sVheadersSize
p1016
I383
sVredirectURL
p1017
g4
sVbodySize
p1018
I7789
sVhttpVersion
p1019
VHTTP/1.1
p1020
ssa(dp1021
Vcomment
p1022
g4
sVserverIPAddress
p1023
V172.217.6.4
p1024
sVpageref
p1025
VJosh Jackson
p1026
sVstartedDateTime
p1027
V2017-04-16T08:30:18.707-05:00
p1028
sVcache
p1029
(dp1030
sVrequest
p1031
(dp1032
Vcomment
p1033
g4
sVcookies
p1034
(lp1035
sVurl
p1036
Vhttps://www.google.com/gen_204?atyp=i&ct=&cad=&vet=10ahUKEwi958bmiqnTAhUl7oMKHYkeBDEQ5W0IPSgC..s&ei=53HzWP3XOqXcjwSJvZCIAw&zx=1492349418656
p1037
sVqueryString
p1038
(lp1039
(dp1040
Vname
p1041
Vatyp
p1042
sVvalue
p1043
g30
sa(dp1044
Vname
p1045
Vct
p1046
sVvalue
p1047
g4
sa(dp1048
Vname
p1049
Vcad
p1050
sVvalue
p1051
g4
sa(dp1052
Vname
p1053
Vvet
p1054
sVvalue
p1055
V10ahUKEwi958bmiqnTAhUl7oMKHYkeBDEQ5W0IPSgC..s
p1056
sa(dp1057
Vname
p1058
Vei
p1059
sVvalue
p1060
V53HzWP3XOqXcjwSJvZCIAw
p1061
sa(dp1062
Vname
p1063
Vzx
p1064
sVvalue
p1065
V1492349418656
p1066
sasVheaders
p1067
(lp1068
sVheadersSize
p1069
I656
sVbodySize
p1070
I0
sVmethod
p1071
VGET
p1072
sVhttpVersion
p1073
VHTTP/1.1
p1074
ssVtimings
p1075
(dp1076
Vcomment
p1077
g4
sVreceive
p1078
I0
sVsend
p1079
I0
sVssl
p1080
I22
sVconnect
p1081
I34
sVdns
p1082
I4
sVwait
p1083
I30
sVblocked
p1084
I0
ssVtime
p1085
I70
sVresponse
p1086
(dp1087
Vstatus
p1088
I204
sVcomment
p1089
g4
sVcookies
p1090
(lp1091
sVstatusText
p1092
VNo Content
p1093
sVcontent
p1094
(dp1095
VmimeType
p1096
Vtext/html; charset=UTF-8
p1097
sVcomment
p1098
g4
sVsize
p1099
I0
ssVheaders
p1100
(lp1101
sVheadersSize
p1102
I248
sVredirectURL
p1103
g4
sVbodySize
p1104
I0
sVhttpVersion
p1105
VHTTP/1.1
p1106
ssa(dp1107
Vcomment
p1108
g4
sVserverIPAddress
p1109
V172.217.6.4
p1110
sVpageref
p1111
VJosh Jackson
p1112
sVstartedDateTime
p1113
V2017-04-16T08:30:18.708-05:00
p1114
sVcache
p1115
(dp1116
sVrequest
p1117
(dp1118
Vcomment
p1119
g4
sVcookies
p1120
(lp1121
sVurl
p1122
Vhttps://www.google.com/gen_204?atyp=i&ct=&cad=&vet=10ahUKEwi958bmiqnTAhUl7oMKHYkeBDEQ5W0IQygE..s&ei=53HzWP3XOqXcjwSJvZCIAw&zx=1492349418669
p1123
sVqueryString
p1124
(lp1125
(dp1126
Vname
p1127
Vatyp
p1128
sVvalue
p1129
g30
sa(dp1130
Vname
p1131
Vct
p1132
sVvalue
p1133
g4
sa(dp1134
Vname
p1135
Vcad
p1136
sVvalue
p1137
g4
sa(dp1138
Vname
p1139
Vvet
p1140
sVvalue
p1141
V10ahUKEwi958bmiqnTAhUl7oMKHYkeBDEQ5W0IQygE..s
p1142
sa(dp1143
Vname
p1144
Vei
p1145
sVvalue
p1146
V53HzWP3XOqXcjwSJvZCIAw
p1147
sa(dp1148
Vname
p1149
Vzx
p1150
sVvalue
p1151
V1492349418669
p1152
sasVheaders
p1153
(lp1154
sVheadersSize
p1155
I656
sVbodySize
p1156
I0
sVmethod
p1157
VGET
p1158
sVhttpVersion
p1159
VHTTP/1.1
p1160
ssVtimings
p1161
(dp1162
Vcomment
p1163
g4
sVreceive
p1164
I0
sVsend
p1165
I0
sVssl
p1166
I21
sVconnect
p1167
I34
sVdns
p1168
I0
sVwait
p1169
I30
sVblocked
p1170
I0
ssVtime
p1171
I64
sVresponse
p1172
(dp1173
Vstatus
p1174
I204
sVcomment
p1175
g4
sVcookies
p1176
(lp1177
sVstatusText
p1178
VNo Content
p1179
sVcontent
p1180
(dp1181
VmimeType
p1182
Vtext/html; charset=UTF-8
p1183
sVcomment
p1184
g4
sVsize
p1185
I0
ssVheaders
p1186
(lp1187
sVheadersSize
p1188
I248
sVredirectURL
p1189
g4
sVbodySize
p1190
I0
sVhttpVersion
p1191
VHTTP/1.1
p1192
ssa(dp1193
Vcomment
p1194
g4
sVserverIPAddress
p1195
V172.217.6.4
p1196
sVpageref
p1197
VJosh Jackson
p1198
sVstartedDateTime
p1199
V2017-04-16T08:30:18.710-05:00
p1200
sVcache
p1201
(dp1202
sVrequest
p1203
(dp1204
Vcomment
p1205
g4
sVcookies
p1206
(lp1207
sVurl
p1208
Vhttps://www.google.com/gen_204?atyp=i&ct=&cad=&vet=10ahUKEwi958bmiqnTAhUl7oMKHYkeBDEQ5W0IQCgD..s&ei=53HzWP3XOqXcjwSJvZCIAw&zx=1492349418661
p1209
sVqueryString
p1210
(lp1211
(dp1212
Vname
p1213
Vatyp
p1214
sVvalue
p1215
g30
sa(dp1216
Vname
p1217
Vct
p1218
sVvalue
p1219
g4
sa(dp1220
Vname
p1221
Vcad
p1222
sVvalue
p1223
g4
sa(dp1224
Vname
p1225
Vvet
p1226
sVvalue
p1227
V10ahUKEwi958bmiqnTAhUl7oMKHYkeBDEQ5W0IQCgD..s
p1228
sa(dp1229
Vname
p1230
Vei
p1231
sVvalue
p1232
V53HzWP3XOqXcjwSJvZCIAw
p1233
sa(dp1234
Vname
p1235
Vzx
p1236
sVvalue
p1237
V1492349418661
p1238
sasVheaders
p1239
(lp1240
sVheadersSize
p1241
I656
sVbodySize
p1242
I0
sVmethod
p1243
VGET
p1244
sVhttpVersion
p1245
VHTTP/1.1
p1246
ssVtimings
p1247
(dp1248
Vcomment
p1249
g4
sVreceive
p1250
I0
sVsend
p1251
I0
sVssl
p1252
I22
sVconnect
p1253
I36
sVdns
p1254
I0
sVwait
p1255
I27
sVblocked
p1256
I0
ssVtime
p1257
I64
sVresponse
p1258
(dp1259
Vstatus
p1260
I204
sVcomment
p1261
g4
sVcookies
p1262
(lp1263
sVstatusText
p1264
VNo Content
p1265
sVcontent
p1266
(dp1267
VmimeType
p1268
Vtext/html; charset=UTF-8
p1269
sVcomment
p1270
g4
sVsize
p1271
I0
ssVheaders
p1272
(lp1273
sVheadersSize
p1274
I248
sVredirectURL
p1275
g4
sVbodySize
p1276
I0
sVhttpVersion
p1277
VHTTP/1.1
p1278
ssa(dp1279
Vcomment
p1280
g4
sVserverIPAddress
p1281
V172.217.6.4
p1282
sVpageref
p1283
VJosh Jackson
p1284
sVstartedDateTime
p1285
V2017-04-16T08:30:18.712-05:00
p1286
sVcache
p1287
(dp1288
sVrequest
p1289
(dp1290
Vcomment
p1291
g4
sVcookies
p1292
(lp1293
sVurl
p1294
Vhttps://www.google.com/gen_204?atyp=i&ct=&cad=&vet=10ahUKEwi958bmiqnTAhUl7oMKHYkeBDEQ5W0IRigF..s&ei=53HzWP3XOqXcjwSJvZCIAw&zx=1492349418673
p1295
sVqueryString
p1296
(lp1297
(dp1298
Vname
p1299
Vatyp
p1300
sVvalue
p1301
g30
sa(dp1302
Vname
p1303
Vct
p1304
sVvalue
p1305
g4
sa(dp1306
Vname
p1307
Vcad
p1308
sVvalue
p1309
g4
sa(dp1310
Vname
p1311
Vvet
p1312
sVvalue
p1313
V10ahUKEwi958bmiqnTAhUl7oMKHYkeBDEQ5W0IRigF..s
p1314
sa(dp1315
Vname
p1316
Vei
p1317
sVvalue
p1318
V53HzWP3XOqXcjwSJvZCIAw
p1319
sa(dp1320
Vname
p1321
Vzx
p1322
sVvalue
p1323
V1492349418673
p1324
sasVheaders
p1325
(lp1326
sVheadersSize
p1327
I656
sVbodySize
p1328
I0
sVmethod
p1329
VGET
p1330
sVhttpVersion
p1331
VHTTP/1.1
p1332
ssVtimings
p1333
(dp1334
Vcomment
p1335
g4
sVreceive
p1336
I0
sVsend
p1337
I0
sVssl
p1338
I21
sVconnect
p1339
I35
sVdns
p1340
I0
sVwait
p1341
I30
sVblocked
p1342
I0
ssVtime
p1343
I66
sVresponse
p1344
(dp1345
Vstatus
p1346
I204
sVcomment
p1347
g4
sVcookies
p1348
(lp1349
sVstatusText
p1350
VNo Content
p1351
sVcontent
p1352
(dp1353
VmimeType
p1354
Vtext/html; charset=UTF-8
p1355
sVcomment
p1356
g4
sVsize
p1357
I0
ssVheaders
p1358
(lp1359
sVheadersSize
p1360
I248
sVredirectURL
p1361
g4
sVbodySize
p1362
I0
sVhttpVersion
p1363
VHTTP/1.1
p1364
ssa(dp1365
Vcomment
p1366
g4
sVserverIPAddress
p1367
V172.217.6.4
p1368
sVpageref
p1369
VJosh Jackson
p1370
sVstartedDateTime
p1371
V2017-04-16T08:30:18.712-05:00
p1372
sVcache
p1373
(dp1374
sVrequest
p1375
(dp1376
Vcomment
p1377
g4
sVcookies
p1378
(lp1379
sVurl
p1380
Vhttps://www.google.com/gen_204?atyp=i&ct=&cad=&vet=10ahUKEwi958bmiqnTAhUl7oMKHYkeBDEQ5W0ISSgG..s&ei=53HzWP3XOqXcjwSJvZCIAw&zx=1492349418676
p1381
sVqueryString
p1382
(lp1383
(dp1384
Vname
p1385
Vatyp
p1386
sVvalue
p1387
g30
sa(dp1388
Vname
p1389
Vct
p1390
sVvalue
p1391
g4
sa(dp1392
Vname
p1393
Vcad
p1394
sVvalue
p1395
g4
sa(dp1396
Vname
p1397
Vvet
p1398
sVvalue
p1399
V10ahUKEwi958bmiqnTAhUl7oMKHYkeBDEQ5W0ISSgG..s
p1400
sa(dp1401
Vname
p1402
Vei
p1403
sVvalue
p1404
V53HzWP3XOqXcjwSJvZCIAw
p1405
sa(dp1406
Vname
p1407
Vzx
p1408
sVvalue
p1409
V1492349418676
p1410
sasVheaders
p1411
(lp1412
sVheadersSize
p1413
I656
sVbodySize
p1414
I0
sVmethod
p1415
VGET
p1416
sVhttpVersion
p1417
VHTTP/1.1
p1418
ssVtimings
p1419
(dp1420
Vcomment
p1421
g4
sVreceive
p1422
I0
sVsend
p1423
I0
sVssl
p1424
I22
sVconnect
p1425
I33
sVdns
p1426
I0
sVwait
p1427
I29
sVblocked
p1428
I0
ssVtime
p1429
I63
sVresponse
p1430
(dp1431
Vstatus
p1432
I204
sVcomment
p1433
g4
sVcookies
p1434
(lp1435
sVstatusText
p1436
VNo Content
p1437
sVcontent
p1438
(dp1439
VmimeType
p1440
Vtext/html; charset=UTF-8
p1441
sVcomment
p1442
g4
sVsize
p1443
I0
ssVheaders
p1444
(lp1445
sVheadersSize
p1446
I248
sVredirectURL
p1447
g4
sVbodySize
p1448
I0
sVhttpVersion
p1449
VHTTP/1.1
p1450
ssa(dp1451
Vcomment
p1452
g4
sVserverIPAddress
p1453
V172.217.6.4
p1454
sVpageref
p1455
VJosh Jackson
p1456
sVstartedDateTime
p1457
V2017-04-16T08:30:18.777-05:00
p1458
sVcache
p1459
(dp1460
sVrequest
p1461
(dp1462
Vcomment
p1463
g4
sVcookies
p1464
(lp1465
sVurl
p1466
Vhttps://www.google.com/async/ampfp?vet=10ahUKEwi958bmiqnTAhUl7oMKHYkeBDEQtZoBCM4B..i&ei=53HzWP3XOqXcjwSJvZCIAw&yv=2&async=_id:ampfp-async,_pms:qs
p1467
sVqueryString
p1468
(lp1469
(dp1470
Vname
p1471
Vvet
p1472
sVvalue
p1473
V10ahUKEwi958bmiqnTAhUl7oMKHYkeBDEQtZoBCM4B..i
p1474
sa(dp1475
Vname
p1476
Vei
p1477
sVvalue
p1478
V53HzWP3XOqXcjwSJvZCIAw
p1479
sa(dp1480
Vname
p1481
Vyv
p1482
sVvalue
p1483
g64
sa(dp1484
Vname
p1485
Vasync
p1486
sVvalue
p1487
V_id:ampfp-async,_pms:qs
p1488
sasVheaders
p1489
(lp1490
sVheadersSize
p1491
I662
sVbodySize
p1492
I0
sVmethod
p1493
VGET
p1494
sVhttpVersion
p1495
VHTTP/1.1
p1496
ssVtimings
p1497
(dp1498
Vcomment
p1499
g4
sVreceive
p1500
I2
sVsend
p1501
I0
sVssl
p1502
I-1
sVconnect
p1503
I-1
sVdns
p1504
I-1
sVwait
p1505
I36
sVblocked
p1506
I-1
ssVtime
p1507
I39
sVresponse
p1508
(dp1509
Vstatus
p1510
I200
sVcomment
p1511
g4
sVcookies
p1512
(lp1513
sVstatusText
p1514
VOK
p1515
sVcontent
p1516
(dp1517
VmimeType
p1518
Vtext/html; charset=UTF-8
p1519
sVcomment
p1520
g4
sVsize
p1521
I0
ssVheaders
p1522
(lp1523
sVheadersSize
p1524
I383
sVredirectURL
p1525
g4
sVbodySize
p1526
I4527
sVhttpVersion
p1527
VHTTP/1.1
p1528
ssa(dp1529
Vcomment
p1530
g4
sVserverIPAddress
p1531
V216.58.216.193
p1532
sVpageref
p1533
VJosh Jackson
p1534
sVstartedDateTime
p1535
V2017-04-16T08:30:18.778-05:00
p1536
sVcache
p1537
(dp1538
sVrequest
p1539
(dp1540
Vcomment
p1541
g4
sVcookies
p1542
(lp1543
sVurl
p1544
Vhttps://cdn.ampproject.org/preconnect.gif?0.6338307913945267
p1545
sVqueryString
p1546
(lp1547
(dp1548
Vname
p1549
V0.6338307913945267
p1550
sVvalue
p1551
g4
sasVheaders
p1552
(lp1553
sVheadersSize
p1554
I375
sVbodySize
p1555
I0
sVmethod
p1556
VGET
p1557
sVhttpVersion
p1558
VHTTP/1.1
p1559
ssVtimings
p1560
(dp1561
Vcomment
p1562
g4
sVreceive
p1563
I0
sVsend
p1564
I0
sVssl
p1565
I-1
sVconnect
p1566
I-1
sVdns
p1567
I-1
sVwait
p1568
I33
sVblocked
p1569
I-1
ssVtime
p1570
I33
sVresponse
p1571
(dp1572
Vstatus
p1573
I200
sVcomment
p1574
g4
sVcookies
p1575
(lp1576
sVstatusText
p1577
VOK
p1578
sVcontent
p1579
(dp1580
VmimeType
p1581
Vimage/gif
p1582
sVcomment
p1583
g4
sVsize
p1584
I0
ssVheaders
p1585
(lp1586
sVheadersSize
p1587
I826
sVredirectURL
p1588
g4
sVbodySize
p1589
I37
sVhttpVersion
p1590
VHTTP/1.1
p1591
ssa(dp1592
Vcomment
p1593
g4
sVserverIPAddress
p1594
V172.217.0.14
p1595
sVpageref
p1596
VJosh Jackson
p1597
sVstartedDateTime
p1598
V2017-04-16T08:30:18.819-05:00
p1599
sVcache
p1600
(dp1601
sVrequest
p1602
(dp1603
Vcomment
p1604
g4
sVcookies
p1605
(lp1606
sVurl
p1607
Vhttps://encrypted-tbn0.gstatic.com/images?q=tbn:ANd9GcTquvQDDntd34oGVPOcmKzfzsh8Y3_m1863D7NtDCxxdWSCKTnwgO3mNBv1BA
p1608
sVqueryString
p1609
(lp1610
(dp1611
Vname
p1612
g727
sVvalue
p1613
Vtbn:ANd9GcTquvQDDntd34oGVPOcmKzfzsh8Y3_m1863D7NtDCxxdWSCKTnwgO3mNBv1BA
p1614
sasVheaders
p1615
(lp1616
sVheadersSize
p1617
I429
sVbodySize
p1618
I0
sVmethod
p1619
VGET
p1620
sVhttpVersion
p1621
VHTTP/1.1
p1622
ssVtimings
p1623
(dp1624
Vcomment
p1625
g4
sVreceive
p1626
I4
sVsend
p1627
I0
sVssl
p1628
I-1
sVconnect
p1629
I-1
sVdns
p1630
I-1
sVwait
p1631
I18
sVblocked
p1632
I-1
ssVtime
p1633
I23
sVresponse
p1634
(dp1635
Vstatus
p1636
I200
sVcomment
p1637
g4
sVcookies
p1638
(lp1639
sVstatusText
p1640
VOK
p1641
sVcontent
p1642
(dp1643
VmimeType
p1644
Vimage/jpeg
p1645
sVcomment
p1646
g4
sVsize
p1647
I0
ssVheaders
p1648
(lp1649
sVheadersSize
p1650
I429
sVredirectURL
p1651
g4
sVbodySize
p1652
I10198
sVhttpVersion
p1653
VHTTP/1.1
p1654
ssa(dp1655
Vcomment
p1656
g4
sVserverIPAddress
p1657
V172.217.0.14
p1658
sVpageref
p1659
VJosh Jackson
p1660
sVstartedDateTime
p1661
V2017-04-16T08:30:18.820-05:00
p1662
sVcache
p1663
(dp1664
sVrequest
p1665
(dp1666
Vcomment
p1667
g4
sVcookies
p1668
(lp1669
sVurl
p1670
Vhttps://encrypted-tbn1.gstatic.com/images?q=tbn:ANd9GcSWfSl5tOXszn3LLlLsUJcfkanbaAGkHyyCfSDC6o50dr64gFckLk0o_Nlg
p1671
sVqueryString
p1672
(lp1673
(dp1674
Vname
p1675
g727
sVvalue
p1676
Vtbn:ANd9GcSWfSl5tOXszn3LLlLsUJcfkanbaAGkHyyCfSDC6o50dr64gFckLk0o_Nlg
p1677
sasVheaders
p1678
(lp1679
sVheadersSize
p1680
I427
sVbodySize
p1681
I0
sVmethod
p1682
VGET
p1683
sVhttpVersion
p1684
VHTTP/1.1
p1685
ssVtimings
p1686
(dp1687
Vcomment
p1688
g4
sVreceive
p1689
I1
sVsend
p1690
I0
sVssl
p1691
I-1
sVconnect
p1692
I-1
sVdns
p1693
I-1
sVwait
p1694
I15
sVblocked
p1695
I-1
ssVtime
p1696
I17
sVresponse
p1697
(dp1698
Vstatus
p1699
I200
sVcomment
p1700
g4
sVcookies
p1701
(lp1702
sVstatusText
p1703
VOK
p1704
sVcontent
p1705
(dp1706
VmimeType
p1707
Vimage/jpeg
p1708
sVcomment
p1709
g4
sVsize
p1710
I0
ssVheaders
p1711
(lp1712
sVheadersSize
p1713
I428
sVredirectURL
p1714
g4
sVbodySize
p1715
I3630
sVhttpVersion
p1716
VHTTP/1.1
p1717
ssa(dp1718
Vcomment
p1719
g4
sVserverIPAddress
p1720
V172.217.0.14
p1721
sVpageref
p1722
VJosh Jackson
p1723
sVstartedDateTime
p1724
V2017-04-16T08:30:18.820-05:00
p1725
sVcache
p1726
(dp1727
sVrequest
p1728
(dp1729
Vcomment
p1730
g4
sVcookies
p1731
(lp1732
sVurl
p1733
Vhttps://encrypted-tbn1.gstatic.com/images?q=tbn:ANd9GcQeQ8bpCicH3hC_WI5C3WEQg3LoGjt2dJnRG3AHFVfYzbW6nqMC9EuGDp39
p1734
sVqueryString
p1735
(lp1736
(dp1737
Vname
p1738
g727
sVvalue
p1739
Vtbn:ANd9GcQeQ8bpCicH3hC_WI5C3WEQg3LoGjt2dJnRG3AHFVfYzbW6nqMC9EuGDp39
p1740
sasVheaders
p1741
(lp1742
sVheadersSize
p1743
I427
sVbodySize
p1744
I0
sVmethod
p1745
VGET
p1746
sVhttpVersion
p1747
VHTTP/1.1
p1748
ssVtimings
p1749
(dp1750
Vcomment
p1751
g4
sVreceive
p1752
I0
sVsend
p1753
I0
sVssl
p1754
I-1
sVconnect
p1755
I-1
sVdns
p1756
I-1
sVwait
p1757
I22
sVblocked
p1758
I-1
ssVtime
p1759
I22
sVresponse
p1760
(dp1761
Vstatus
p1762
I200
sVcomment
p1763
g4
sVcookies
p1764
(lp1765
sVstatusText
p1766
VOK
p1767
sVcontent
p1768
(dp1769
VmimeType
p1770
Vimage/jpeg
p1771
sVcomment
p1772
g4
sVsize
p1773
I0
ssVheaders
p1774
(lp1775
sVheadersSize
p1776
I428
sVredirectURL
p1777
g4
sVbodySize
p1778
I8900
sVhttpVersion
p1779
VHTTP/1.1
p1780
ssa(dp1781
Vcomment
p1782
g4
sVserverIPAddress
p1783
V172.217.6.4
p1784
sVpageref
p1785
VJosh Jackson
p1786
sVstartedDateTime
p1787
V2017-04-16T08:30:18.962-05:00
p1788
sVcache
p1789
(dp1790
sVrequest
p1791
(dp1792
Vcomment
p1793
g4
sVcookies
p1794
(lp1795
sVurl
p1796
Vhttps://www.google.com/async/log_amp_item_set?vet=10ahUKEwjckrXniqnTAhUH1oMKHUqrDnkQooQBCAE..i&ei=53HzWP3XOqXcjwSJvZCIAw&yv=2&async=num_items:2,_fmt:jspb
p1797
sVqueryString
p1798
(lp1799
(dp1800
Vname
p1801
Vvet
p1802
sVvalue
p1803
V10ahUKEwjckrXniqnTAhUH1oMKHUqrDnkQooQBCAE..i
p1804
sa(dp1805
Vname
p1806
Vei
p1807
sVvalue
p1808
V53HzWP3XOqXcjwSJvZCIAw
p1809
sa(dp1810
Vname
p1811
Vyv
p1812
sVvalue
p1813
g64
sa(dp1814
Vname
p1815
Vasync
p1816
sVvalue
p1817
Vnum_items:2,_fmt:jspb
p1818
sasVheaders
p1819
(lp1820
sVheadersSize
p1821
I670
sVbodySize
p1822
I0
sVmethod
p1823
VGET
p1824
sVhttpVersion
p1825
VHTTP/1.1
p1826
ssVtimings
p1827
(dp1828
Vcomment
p1829
g4
sVreceive
p1830
I0
sVsend
p1831
I0
sVssl
p1832
I-1
sVconnect
p1833
I-1
sVdns
p1834
I-1
sVwait
p1835
I52
sVblocked
p1836
I-1
ssVtime
p1837
I53
sVresponse
p1838
(dp1839
Vstatus
p1840
I200
sVcomment
p1841
g4
sVcookies
p1842
(lp1843
sVstatusText
p1844
VOK
p1845
sVcontent
p1846
(dp1847
VmimeType
p1848
Vapplication/json; charset=UTF-8
p1849
sVcomment
p1850
g4
sVsize
p1851
I0
ssVheaders
p1852
(lp1853
sVheadersSize
p1854
I417
sVredirectURL
p1855
g4
sVbodySize
p1856
I141
sVhttpVersion
p1857
VHTTP/1.1
p1858
ssa(dp1859
Vcomment
p1860
g4
sVserverIPAddress
p1861
V216.58.216.193
p1862
sVpageref
p1863
VJosh Jackson
p1864
sVstartedDateTime
p1865
V2017-04-16T08:30:19.639-05:00
p1866
sVcache
p1867
(dp1868
sVrequest
p1869
(dp1870
Vcomment
p1871
g4
sVcookies
p1872
(lp1873
sVurl
p1874
Vhttps://www-cbssports-com.cdn.ampproject.org/v/www.cbssports.com/nba/news/nba-mock-draft-suns-go-with-kansas-josh-jackson-at-no-2-ahead-of-lonzo-ball/amp/?amp_js_v=9
p1875
sVqueryString
p1876
(lp1877
(dp1878
Vname
p1879
Vamp_js_v
p1880
sVvalue
p1881
V9
p1882
sasVheaders
p1883
(lp1884
sVheadersSize
p1885
I570
sVbodySize
p1886
I0
sVmethod
p1887
VGET
p1888
sVhttpVersion
p1889
VHTTP/1.1
p1890
ssVtimings
p1891
(dp1892
Vcomment
p1893
g4
sVreceive
p1894
I16
sVsend
p1895
I0
sVssl
p1896
I617
sVconnect
p1897
I633
sVdns
p1898
I36
sVwait
p1899
I42
sVblocked
p1900
I0
ssVtime
p1901
I728
sVresponse
p1902
(dp1903
Vstatus
p1904
I200
sVcomment
p1905
g4
sVcookies
p1906
(lp1907
sVstatusText
p1908
VOK
p1909
sVcontent
p1910
(dp1911
VmimeType
p1912
Vtext/html
p1913
sVcomment
p1914
g4
sVsize
p1915
I0
ssVheaders
p1916
(lp1917
sVheadersSize
p1918
I860
sVredirectURL
p1919
g4
sVbodySize
p1920
I15462
sVhttpVersion
p1921
VHTTP/1.1
p1922
ssa(dp1923
Vcomment
p1924
g4
sVserverIPAddress
p1925
V172.217.6.4
p1926
sVpageref
p1927
VJosh Jackson
p1928
sVstartedDateTime
p1929
V2017-04-16T08:30:20.216-05:00
p1930
sVcache
p1931
(dp1932
sVrequest
p1933
(dp1934
Vcomment
p1935
g4
sVcookies
p1936
(lp1937
sVurl
p1938
Vhttps://www.google.com/gen_204?s=web&atyp=csi&ei=53HzWP3XOqXcjwSJvZCIAw&imc=33&imn=33&imp=16&adh=&xjs=init.41.14.sb_mob.32.dvl.3.mbsf.1.jsa.1.abd.1&ima=8&rt=prt.949,iml.1056,xjsls.950,dcl.1032,xjses.1114,xjsee.1306,xjs.1309,qiml.1897,ol.3120,aft.1056,wsrt.120,cst.0,dnst.0,rqst.1009,rspt.901,rqstt.2,unt.1,cstt.1,dit.1088
p1939
sVqueryString
p1940
(lp1941
(dp1942
Vname
p1943
g57
sVvalue
p1944
Vweb
p1945
sa(dp1946
Vname
p1947
Vatyp
p1948
sVvalue
p1949
Vcsi
p1950
sa(dp1951
Vname
p1952
Vei
p1953
sVvalue
p1954
V53HzWP3XOqXcjwSJvZCIAw
p1955
sa(dp1956
Vname
p1957
Vimc
p1958
sVvalue
p1959
V33
p1960
sa(dp1961
Vname
p1962
Vimn
p1963
sVvalue
p1964
V33
p1965
sa(dp1966
Vname
p1967
Vimp
p1968
sVvalue
p1969
V16
p1970
sa(dp1971
Vname
p1972
Vadh
p1973
sVvalue
p1974
g4
sa(dp1975
Vname
p1976
Vxjs
p1977
sVvalue
p1978
Vinit.41.14.sb_mob.32.dvl.3.mbsf.1.jsa.1.abd.1
p1979
sa(dp1980
Vname
p1981
Vima
p1982
sVvalue
p1983
V8
p1984
sa(dp1985
Vname
p1986
Vrt
p1987
sVvalue
p1988
Vprt.949,iml.1056,xjsls.950,dcl.1032,xjses.1114,xjsee.1306,xjs.1309,qiml.1897,ol.3120,aft.1056,wsrt.120,cst.0,dnst.0,rqst.1009,rspt.901,rqstt.2,unt.1,cstt.1,dit.1088
p1989
sasVheaders
p1990
(lp1991
sVheadersSize
p1992
I838
sVbodySize
p1993
I0
sVmethod
p1994
VGET
p1995
sVhttpVersion
p1996
VHTTP/1.1
p1997
ssVtimings
p1998
(dp1999
Vcomment
p2000
g4
sVreceive
p2001
I0
sVsend
p2002
I0
sVssl
p2003
I-1
sVconnect
p2004
I-1
sVdns
p2005
I-1
sVwait
p2006
I27
sVblocked
p2007
I-1
ssVtime
p2008
I27
sVresponse
p2009
(dp2010
Vstatus
p2011
I204
sVcomment
p2012
g4
sVcookies
p2013
(lp2014
sVstatusText
p2015
VNo Content
p2016
sVcontent
p2017
(dp2018
VmimeType
p2019
Vtext/html; charset=UTF-8
p2020
sVcomment
p2021
g4
sVsize
p2022
I0
ssVheaders
p2023
(lp2024
sVheadersSize
p2025
I248
sVredirectURL
p2026
g4
sVbodySize
p2027
I0
sVhttpVersion
p2028
VHTTP/1.1
p2029
ssa(dp2030
Vcomment
p2031
g4
sVserverIPAddress
p2032
V172.217.6.4
p2033
sVpageref
p2034
VJosh Jackson
p2035
sVstartedDateTime
p2036
V2017-04-16T08:30:20.738-05:00
p2037
sVcache
p2038
(dp2039
sVrequest
p2040
(dp2041
Vcomment
p2042
g4
sVcookies
p2043
(lp2044
sVurl
p2045
Vhttps://www.google.com/gen_204?atyp=i&ct=slh&cad=&ei=q3HzWMbvD-LTjwTB4KfICA&m=V&t=C&s=1&v=2&pv=0.3112079168787465&me=1:1492349358460,x:1,V,0,0,1280,944:0,N,1,q3HzWMbvD-LTjwTB4KfICA:0,R,1,24,8,155,1249,445:0,R,1,28,8,268,1249,332:0,R,1,29,0,269,1265,351:0,R,1,60,8,610,1249,647:0,R,1,61,8,610,1249,647:0,R,1,64,8,623,1249,40:0,R,1,77,8,675,1249,178:0,R,1,80,0,691,1265,197:0,R,1,120,8,870,1249,20:0,R,1,121,24,870,1217,20:0,R,1,127,8,906,1249,20:0,R,1,136,8,934,1249,20:2,B,3782:21325,e,U&zx=1492349420736
p2046
sVqueryString
p2047
(lp2048
(dp2049
Vname
p2050
Vatyp
p2051
sVvalue
p2052
g30
sa(dp2053
Vname
p2054
Vct
p2055
sVvalue
p2056
Vslh
p2057
sa(dp2058
Vname
p2059
Vcad
p2060
sVvalue
p2061
g4
sa(dp2062
Vname
p2063
Vei
p2064
sVvalue
p2065
Vq3HzWMbvD-LTjwTB4KfICA
p2066
sa(dp2067
Vname
p2068
g47
sVvalue
p2069
g49
sa(dp2070
Vname
p2071
g52
sVvalue
p2072
g54
sa(dp2073
Vname
p2074
g57
sVvalue
p2075
g59
sa(dp2076
Vname
p2077
g62
sVvalue
p2078
g64
sa(dp2079
Vname
p2080
Vpv
p2081
sVvalue
p2082
V0.3112079168787465
p2083
sa(dp2084
Vname
p2085
Vme
p2086
sVvalue
p2087
V1:1492349358460,x:1,V,0,0,1280,944:0,N,1,q3HzWMbvD-LTjwTB4KfICA:0,R,1,24,8,155,1249,445:0,R,1,28,8,268,1249,332:0,R,1,29,0,269,1265,351:0,R,1,60,8,610,1249,647:0,R,1,61,8,610,1249,647:0,R,1,64,8,623,1249,40:0,R,1,77,8,675,1249,178:0,R,1,80,0,691,1265,197:0,R,1,120,8,870,1249,20:0,R,1,121,24,870,1217,20:0,R,1,127,8,906,1249,20:0,R,1,136,8,934,1249,20:2,B,3782:21325,e,U
p2088
sa(dp2089
Vname
p2090
Vzx
p2091
sVvalue
p2092
V1492349420736
p2093
sasVheaders
p2094
(lp2095
sVheadersSize
p2096
I1021
sVbodySize
p2097
I0
sVmethod
p2098
VGET
p2099
sVhttpVersion
p2100
VHTTP/1.1
p2101
ssVtimings
p2102
(dp2103
Vcomment
p2104
g4
sVreceive
p2105
I0
sVsend
p2106
I0
sVssl
p2107
I-1
sVconnect
p2108
I-1
sVdns
p2109
I-1
sVwait
p2110
I35
sVblocked
p2111
I-1
ssVtime
p2112
I35
sVresponse
p2113
(dp2114
Vstatus
p2115
I204
sVcomment
p2116
g4
sVcookies
p2117
(lp2118
sVstatusText
p2119
VNo Content
p2120
sVcontent
p2121
(dp2122
VmimeType
p2123
Vtext/html; charset=UTF-8
p2124
sVcomment
p2125
g4
sVsize
p2126
I0
ssVheaders
p2127
(lp2128
sVheadersSize
p2129
I248
sVredirectURL
p2130
g4
sVbodySize
p2131
I0
sVhttpVersion
p2132
VHTTP/1.1
p2133
ssasVversion
p2134
V1.2
p2135
sVpages
p2136
(lp2137
(dp2138
VpageTimings
p2139
(dp2140
Vcomment
p2141
g4
ssVcomment
p2142
g4
sVtitle
p2143
VJosh Jackson
p2144
sVid
p2145
VJosh Jackson
p2146
sVstartedDateTime
p2147
V2017-04-16T08:30:16.352-05:00
p2148
sasVcreator
p2149
(dp2150
Vcomment
p2151
g4
sVversion
p2152
V2.1.4
p2153
sVname
p2154
VBrowserMob Proxy
p2155
sss.