(dp0
Vlog
p1
(dp2
Vcomment
p3
V
p4
sVentries
p5
(lp6
(dp7
Vcomment
p8
g4
sVserverIPAddress
p9
V216.58.216.196
p10
sVpageref
p11
VGene Wilder
p12
sVstartedDateTime
p13
V2017-04-16T08:09:42.290-05:00
p14
sVcache
p15
(dp16
sVrequest
p17
(dp18
Vcomment
p19
g4
sVcookies
p20
(lp21
sVurl
p22
Vhttps://www.google.com/gen_204?atyp=i&ct=slh&cad=&ei=Am3zWMWlM6i0jwTkz5GACg&m=V&t=C&s=1&v=2&pv=0.8248374213702722&me=1:1492348165637,x:1,V,0,0,1280,944:0,N,1,Am3zWMWlM6i0jwTkz5GACg:0,R,1,24,8,155,1249,685:0,R,1,31,8,337,1249,317:0,R,1,32,0,338,1265,336:0,R,1,42,8,654,1249,186:0,R,1,104,24,850,1217,199:2,B,2942:16649,e,U&zx=1492348182289
p23
sVqueryString
p24
(lp25
(dp26
Vname
p27
Vatyp
p28
sVvalue
p29
Vi
p30
sa(dp31
Vname
p32
Vct
p33
sVvalue
p34
Vslh
p35
sa(dp36
Vname
p37
Vcad
p38
sVvalue
p39
g4
sa(dp40
Vname
p41
Vei
p42
sVvalue
p43
VAm3zWMWlM6i0jwTkz5GACg
p44
sa(dp45
Vname
p46
Vm
p47
sVvalue
p48
VV
p49
sa(dp50
Vname
p51
Vt
p52
sVvalue
p53
VC
p54
sa(dp55
Vname
p56
Vs
p57
sVvalue
p58
V1
p59
sa(dp60
Vname
p61
Vv
p62
sVvalue
p63
V2
p64
sa(dp65
Vname
p66
Vpv
p67
sVvalue
p68
V0.8248374213702722
p69
sa(dp70
Vname
p71
Vme
p72
sVvalue
p73
V1:1492348165637,x:1,V,0,0,1280,944:0,N,1,Am3zWMWlM6i0jwTkz5GACg:0,R,1,24,8,155,1249,685:0,R,1,31,8,337,1249,317:0,R,1,32,0,338,1265,336:0,R,1,42,8,654,1249,186:0,R,1,104,24,850,1217,199:2,B,2942:16649,e,U
p74
sa(dp75
Vname
p76
Vzx
p77
sVvalue
p78
V1492348182289
p79
sasVheaders
p80
(lp81
sVheadersSize
p82
I855
sVbodySize
p83
I0
sVmethod
p84
VGET
p85
sVhttpVersion
p86
VHTTP/1.1
p87
ssVtimings
p88
(dp89
Vcomment
p90
g4
sVreceive
p91
I0
sVsend
p92
I0
sVssl
p93
I-1
sVconnect
p94
I-1
sVdns
p95
I-1
sVwait
p96
I0
sVblocked
p97
I-1
ssVtime
p98
I0
sVresponse
p99
(dp100
Vstatus
p101
I0
sVcomment
p102
g4
sVcookies
p103
(lp104
sV_error
p105
VNo response received
p106
sVstatusText
p107
g4
sVcontent
p108
(dp109
VmimeType
p110
g4
sVcomment
p111
g4
sVsize
p112
I0
ssVheaders
p113
(lp114
sVheadersSize
p115
I-1
sVredirectURL
p116
g4
sVbodySize
p117
I-1
sVhttpVersion
p118
Vunknown
p119
ssa(dp120
Vcomment
p121
g4
sVserverIPAddress
p122
V216.58.216.196
p123
sVpageref
p124
VGene Wilder
p125
sVstartedDateTime
p126
V2017-04-16T08:09:42.294-05:00
p127
sVcache
p128
(dp129
sVrequest
p130
(dp131
Vcomment
p132
g4
sVcookies
p133
(lp134
sVurl
p135
Vhttp://www.google.com/
p136
sVqueryString
p137
(lp138
sVheaders
p139
(lp140
sVheadersSize
p141
I613
sVbodySize
p142
I0
sVmethod
p143
VGET
p144
sVhttpVersion
p145
VHTTP/1.1
p146
ssVtimings
p147
(dp148
Vcomment
p149
g4
sVreceive
p150
I0
sVsend
p151
I0
sVssl
p152
I-1
sVconnect
p153
I-1
sVdns
p154
I-1
sVwait
p155
I35
sVblocked
p156
I-1
ssVtime
p157
I36
sVresponse
p158
(dp159
Vstatus
p160
I302
sVcomment
p161
g4
sVcookies
p162
(lp163
sVstatusText
p164
VFound
p165
sVcontent
p166
(dp167
VmimeType
p168
Vtext/html; charset=UTF-8
p169
sVcomment
p170
g4
sVsize
p171
I0
ssVheaders
p172
(lp173
sVheadersSize
p174
I609
sVredirectURL
p175
Vhttps://www.google.com/?gws_rd=ssl
p176
sVbodySize
p177
I231
sVhttpVersion
p178
VHTTP/1.1
p179
ssa(dp180
Vcomment
p181
g4
sVserverIPAddress
p182
V216.58.216.196
p183
sVpageref
p184
VGene Wilder
p185
sVstartedDateTime
p186
V2017-04-16T08:09:42.333-05:00
p187
sVcache
p188
(dp189
sVrequest
p190
(dp191
Vcomment
p192
g4
sVcookies
p193
(lp194
sVurl
p195
Vhttps://www.google.com/?gws_rd=ssl
p196
sVqueryString
p197
(lp198
(dp199
Vname
p200
Vgws_rd
p201
sVvalue
p202
Vssl
p203
sasVheaders
p204
(lp205
sVheadersSize
p206
I607
sVbodySize
p207
I0
sVmethod
p208
VGET
p209
sVhttpVersion
p210
VHTTP/1.1
p211
ssVtimings
p212
(dp213
Vcomment
p214
g4
sVreceive
p215
I23
sVsend
p216
I0
sVssl
p217
I-1
sVconnect
p218
I-1
sVdns
p219
I-1
sVwait
p220
I71
sVblocked
p221
I-1
ssVtime
p222
I95
sVresponse
p223
(dp224
Vstatus
p225
I200
sVcomment
p226
g4
sVcookies
p227
(lp228
sVstatusText
p229
VOK
p230
sVcontent
p231
(dp232
VmimeType
p233
Vtext/html; charset=UTF-8
p234
sVcomment
p235
g4
sVsize
p236
I0
ssVheaders
p237
(lp238
sVheadersSize
p239
I721
sVredirectURL
p240
g4
sVbodySize
p241
I34293
sVhttpVersion
p242
VHTTP/1.1
p243
ssa(dp244
Vcomment
p245
g4
sVserverIPAddress
p246
V216.58.216.196
p247
sVpageref
p248
VGene Wilder
p249
sVstartedDateTime
p250
V2017-04-16T08:09:42.621-05:00
p251
sVcache
p252
(dp253
sVrequest
p254
(dp255
Vcomment
p256
g4
sVcookies
p257
(lp258
sVurl
p259
Vhttps://www.google.com/gen_204?s=mobilewebhp&atyp=csi&ei=FW3zWKHiFOqpjwSO4ZGIAw&imc=1&imn=1&imp=0&adh=&xjs=init.24.12.sb_mob.17.dvl.2.c.1.jsa.1.mbsf.1&ima=1&rt=xjsls.22,prt.23,iml.23,dcl.44,xjses.90,xjsee.168,xjs.168,ol.196,aft.23,wsrt.132,cst.0,dnst.0,rqst.97,rspt.24,rqstt.44,unt.42,cstt.42,dit.173
p260
sVqueryString
p261
(lp262
(dp263
Vname
p264
g57
sVvalue
p265
Vmobilewebhp
p266
sa(dp267
Vname
p268
Vatyp
p269
sVvalue
p270
Vcsi
p271
sa(dp272
Vname
p273
Vei
p274
sVvalue
p275
VFW3zWKHiFOqpjwSO4ZGIAw
p276
sa(dp277
Vname
p278
Vimc
p279
sVvalue
p280
g59
sa(dp281
Vname
p282
Vimn
p283
sVvalue
p284
g59
sa(dp285
Vname
p286
Vimp
p287
sVvalue
p288
V0
p289
sa(dp290
Vname
p291
Vadh
p292
sVvalue
p293
g4
sa(dp294
Vname
p295
Vxjs
p296
sVvalue
p297
Vinit.24.12.sb_mob.17.dvl.2.c.1.jsa.1.mbsf.1
p298
sa(dp299
Vname
p300
Vima
p301
sVvalue
p302
g59
sa(dp303
Vname
p304
Vrt
p305
sVvalue
p306
Vxjsls.22,prt.23,iml.23,dcl.44,xjses.90,xjsee.168,xjs.168,ol.196,aft.23,wsrt.132,cst.0,dnst.0,rqst.97,rspt.24,rqstt.44,unt.42,cstt.42,dit.173
p307
sasVheaders
p308
(lp309
sVheadersSize
p310
I828
sVbodySize
p311
I0
sVmethod
p312
VGET
p313
sVhttpVersion
p314
VHTTP/1.1
p315
ssVtimings
p316
(dp317
Vcomment
p318
g4
sVreceive
p319
I0
sVsend
p320
I0
sVssl
p321
I-1
sVconnect
p322
I-1
sVdns
p323
I-1
sVwait
p324
I24
sVblocked
p325
I-1
ssVtime
p326
I24
sVresponse
p327
(dp328
Vstatus
p329
I204
sVcomment
p330
g4
sVcookies
p331
(lp332
sVstatusText
p333
VNo Content
p334
sVcontent
p335
(dp336
VmimeType
p337
Vtext/html; charset=UTF-8
p338
sVcomment
p339
g4
sVsize
p340
I0
ssVheaders
p341
(lp342
sVheadersSize
p343
I248
sVredirectURL
p344
g4
sVbodySize
p345
I0
sVhttpVersion
p346
VHTTP/1.1
p347
ssa(dp348
Vcomment
p349
g4
sVserverIPAddress
p350
V216.58.216.196
p351
sVpageref
p352
VGene Wilder
p353
sVstartedDateTime
p354
V2017-04-16T08:09:42.762-05:00
p355
sVcache
p356
(dp357
sVrequest
p358
(dp359
Vcomment
p360
g4
sVcookies
p361
(lp362
sVurl
p363
Vhttps://www.google.com/complete/search?client=mobile-gws-hp&hl=en&gs_rn=64&gs_ri=mobile-gws-hp&sla=1&gm=602&cp=0&gs_id=1&xhr=t&q=G&tch=1&ech=1&psi=FW3zWKHiFOqpjwSO4ZGIAw.1492348182564.1
p364
sVqueryString
p365
(lp366
(dp367
Vname
p368
Vclient
p369
sVvalue
p370
Vmobile-gws-hp
p371
sa(dp372
Vname
p373
Vhl
p374
sVvalue
p375
Ven
p376
sa(dp377
Vname
p378
Vgs_rn
p379
sVvalue
p380
V64
p381
sa(dp382
Vname
p383
Vgs_ri
p384
sVvalue
p385
Vmobile-gws-hp
p386
sa(dp387
Vname
p388
Vsla
p389
sVvalue
p390
g59
sa(dp391
Vname
p392
Vgm
p393
sVvalue
p394
V602
p395
sa(dp396
Vname
p397
Vcp
p398
sVvalue
p399
g289
sa(dp400
Vname
p401
Vgs_id
p402
sVvalue
p403
g59
sa(dp404
Vname
p405
Vxhr
p406
sVvalue
p407
g52
sa(dp408
Vname
p409
Vq
p410
sVvalue
p411
VG
p412
sa(dp413
Vname
p414
Vtch
p415
sVvalue
p416
g59
sa(dp417
Vname
p418
Vech
p419
sVvalue
p420
g59
sa(dp421
Vname
p422
Vpsi
p423
sVvalue
p424
VFW3zWKHiFOqpjwSO4ZGIAw.1492348182564.1
p425
sasVheaders
p426
(lp427
sVheadersSize
p428
I713
sVbodySize
p429
I0
sVmethod
p430
VGET
p431
sVhttpVersion
p432
VHTTP/1.1
p433
ssVtimings
p434
(dp435
Vcomment
p436
g4
sVreceive
p437
I0
sVsend
p438
I0
sVssl
p439
I-1
sVconnect
p440
I-1
sVdns
p441
I-1
sVwait
p442
I0
sVblocked
p443
I-1
ssVtime
p444
I0
sVresponse
p445
(dp446
Vstatus
p447
I0
sVcomment
p448
g4
sVcookies
p449
(lp450
sV_error
p451
VNo response received
p452
sVstatusText
p453
g4
sVcontent
p454
(dp455
VmimeType
p456
g4
sVcomment
p457
g4
sVsize
p458
I0
ssVheaders
p459
(lp460
sVheadersSize
p461
I-1
sVredirectURL
p462
g4
sVbodySize
p463
I-1
sVhttpVersion
p464
Vunknown
p465
ssa(dp466
Vcomment
p467
g4
sVserverIPAddress
p468
V216.58.216.196
p469
sVpageref
p470
VGene Wilder
p471
sVstartedDateTime
p472
V2017-04-16T08:09:42.821-05:00
p473
sVcache
p474
(dp475
sVrequest
p476
(dp477
Vcomment
p478
g4
sVcookies
p479
(lp480
sVurl
p481
Vhttps://www.google.com/search?site=&source=hp&ei=FW3zWKHiFOqpjwSO4ZGIAw&q=Gene+Wilder&oq=Gene+Wilder&gs_l=mobile-gws-hp.3...177.211.0.234.11.1.0.0.0.0.0.0..0.0....0...1c.1.64.mobile-gws-hp..11.0.0.buoIKOhFd0g
p482
sVqueryString
p483
(lp484
(dp485
Vname
p486
Vsite
p487
sVvalue
p488
g4
sa(dp489
Vname
p490
Vsource
p491
sVvalue
p492
Vhp
p493
sa(dp494
Vname
p495
Vei
p496
sVvalue
p497
VFW3zWKHiFOqpjwSO4ZGIAw
p498
sa(dp499
Vname
p500
g410
sVvalue
p501
VGene Wilder
p502
sa(dp503
Vname
p504
Voq
p505
sVvalue
p506
VGene Wilder
p507
sa(dp508
Vname
p509
Vgs_l
p510
sVvalue
p511
Vmobile-gws-hp.3...177.211.0.234.11.1.0.0.0.0.0.0..0.0....0...1c.1.64.mobile-gws-hp..11.0.0.buoIKOhFd0g
p512
sasVheaders
p513
(lp514
sVheadersSize
p515
I826
sVbodySize
p516
I0
sVmethod
p517
VGET
p518
sVhttpVersion
p519
VHTTP/1.1
p520
ssVtimings
p521
(dp522
Vcomment
p523
g4
sVreceive
p524
I781
sVsend
p525
I0
sVssl
p526
I-1
sVconnect
p527
I-1
sVdns
p528
I-1
sVwait
p529
I86
sVblocked
p530
I-1
ssVtime
p531
I867
sVresponse
p532
(dp533
Vstatus
p534
I200
sVcomment
p535
g4
sVcookies
p536
(lp537
sVstatusText
p538
VOK
p539
sVcontent
p540
(dp541
VmimeType
p542
Vtext/html; charset=UTF-8
p543
sVcomment
p544
g4
sVsize
p545
I0
ssVheaders
p546
(lp547
sVheadersSize
p548
I363
sVredirectURL
p549
g4
sVbodySize
p550
I147195
sVhttpVersion
p551
VHTTP/1.1
p552
ssa(dp553
Vcomment
p554
g4
sVserverIPAddress
p555
V216.58.216.196
p556
sVpageref
p557
VGene Wilder
p558
sVstartedDateTime
p559
V2017-04-16T08:09:44.454-05:00
p560
sVcache
p561
(dp562
sVrequest
p563
(dp564
Vcomment
p565
g4
sVcookies
p566
(lp567
sVurl
p568
Vhttps://www.google.com/gen_204?atyp=i&ct=&cad=&uact=1&vet=10ahUKEwi6s4mahqnTAhVM7oMKHRngBzQQ9V8IKigA..s&ei=FW3zWPrUMszcjwSZwJ-gAw&zx=1492348184453
p569
sVqueryString
p570
(lp571
(dp572
Vname
p573
Vatyp
p574
sVvalue
p575
g30
sa(dp576
Vname
p577
Vct
p578
sVvalue
p579
g4
sa(dp580
Vname
p581
Vcad
p582
sVvalue
p583
g4
sa(dp584
Vname
p585
Vuact
p586
sVvalue
p587
g59
sa(dp588
Vname
p589
Vvet
p590
sVvalue
p591
V10ahUKEwi6s4mahqnTAhVM7oMKHRngBzQQ9V8IKigA..s
p592
sa(dp593
Vname
p594
Vei
p595
sVvalue
p596
VFW3zWPrUMszcjwSZwJ-gAw
p597
sa(dp598
Vname
p599
Vzx
p600
sVvalue
p601
V1492348184453
p602
sasVheaders
p603
(lp604
sVheadersSize
p605
I663
sVbodySize
p606
I0
sVmethod
p607
VGET
p608
sVhttpVersion
p609
VHTTP/1.1
p610
ssVtimings
p611
(dp612
Vcomment
p613
g4
sVreceive
p614
I0
sVsend
p615
I0
sVssl
p616
I-1
sVconnect
p617
I-1
sVdns
p618
I-1
sVwait
p619
I36
sVblocked
p620
I-1
ssVtime
p621
I36
sVresponse
p622
(dp623
Vstatus
p624
I204
sVcomment
p625
g4
sVcookies
p626
(lp627
sVstatusText
p628
VNo Content
p629
sVcontent
p630
(dp631
VmimeType
p632
Vtext/html; charset=UTF-8
p633
sVcomment
p634
g4
sVsize
p635
I0
ssVheaders
p636
(lp637
sVheadersSize
p638
I248
sVredirectURL
p639
g4
sVbodySize
p640
I0
sVhttpVersion
p641
VHTTP/1.1
p642
ssa(dp643
Vcomment
p644
g4
sVserverIPAddress
p645
V216.58.216.196
p646
sVpageref
p647
VGene Wilder
p648
sVstartedDateTime
p649
V2017-04-16T08:09:44.456-05:00
p650
sVcache
p651
(dp652
sVrequest
p653
(dp654
Vcomment
p655
g4
sVcookies
p656
(lp657
sVurl
p658
Vhttps://www.google.com/gen_204?atyp=i&ct=&cad=&uact=1&vet=10ahUKEwi6s4mahqnTAhVM7oMKHRngBzQQ9V8IKygB..s&ei=FW3zWPrUMszcjwSZwJ-gAw&zx=1492348184455
p659
sVqueryString
p660
(lp661
(dp662
Vname
p663
Vatyp
p664
sVvalue
p665
g30
sa(dp666
Vname
p667
Vct
p668
sVvalue
p669
g4
sa(dp670
Vname
p671
Vcad
p672
sVvalue
p673
g4
sa(dp674
Vname
p675
Vuact
p676
sVvalue
p677
g59
sa(dp678
Vname
p679
Vvet
p680
sVvalue
p681
V10ahUKEwi6s4mahqnTAhVM7oMKHRngBzQQ9V8IKygB..s
p682
sa(dp683
Vname
p684
Vei
p685
sVvalue
p686
VFW3zWPrUMszcjwSZwJ-gAw
p687
sa(dp688
Vname
p689
Vzx
p690
sVvalue
p691
V1492348184455
p692
sasVheaders
p693
(lp694
sVheadersSize
p695
I663
sVbodySize
p696
I0
sVmethod
p697
VGET
p698
sVhttpVersion
p699
VHTTP/1.1
p700
ssVtimings
p701
(dp702
Vcomment
p703
g4
sVreceive
p704
I0
sVsend
p705
I0
sVssl
p706
I-1
sVconnect
p707
I-1
sVdns
p708
I-1
sVwait
p709
I37
sVblocked
p710
I-1
ssVtime
p711
I38
sVresponse
p712
(dp713
Vstatus
p714
I204
sVcomment
p715
g4
sVcookies
p716
(lp717
sVstatusText
p718
VNo Content
p719
sVcontent
p720
(dp721
VmimeType
p722
Vtext/html; charset=UTF-8
p723
sVcomment
p724
g4
sVsize
p725
I0
ssVheaders
p726
(lp727
sVheadersSize
p728
I248
sVredirectURL
p729
g4
sVbodySize
p730
I0
sVhttpVersion
p731
VHTTP/1.1
p732
ssa(dp733
Vcomment
p734
g4
sVserverIPAddress
p735
V216.58.216.196
p736
sVpageref
p737
VGene Wilder
p738
sVstartedDateTime
p739
V2017-04-16T08:09:44.496-05:00
p740
sVcache
p741
(dp742
sVrequest
p743
(dp744
Vcomment
p745
g4
sVcookies
p746
(lp747
sVurl
p748
Vhttps://www.google.com/gen_204?atyp=i&ct=&cad=&vet=10ahUKEwi6s4mahqnTAhVM7oMKHRngBzQQ5W0IQSgF..s&ei=FW3zWPrUMszcjwSZwJ-gAw&zx=1492348184490
p749
sVqueryString
p750
(lp751
(dp752
Vname
p753
Vatyp
p754
sVvalue
p755
g30
sa(dp756
Vname
p757
Vct
p758
sVvalue
p759
g4
sa(dp760
Vname
p761
Vcad
p762
sVvalue
p763
g4
sa(dp764
Vname
p765
Vvet
p766
sVvalue
p767
V10ahUKEwi6s4mahqnTAhVM7oMKHRngBzQQ5W0IQSgF..s
p768
sa(dp769
Vname
p770
Vei
p771
sVvalue
p772
VFW3zWPrUMszcjwSZwJ-gAw
p773
sa(dp774
Vname
p775
Vzx
p776
sVvalue
p777
V1492348184490
p778
sasVheaders
p779
(lp780
sVheadersSize
p781
I656
sVbodySize
p782
I0
sVmethod
p783
VGET
p784
sVhttpVersion
p785
VHTTP/1.1
p786
ssVtimings
p787
(dp788
Vcomment
p789
g4
sVreceive
p790
I0
sVsend
p791
I0
sVssl
p792
I-1
sVconnect
p793
I-1
sVdns
p794
I-1
sVwait
p795
I47
sVblocked
p796
I-1
ssVtime
p797
I47
sVresponse
p798
(dp799
Vstatus
p800
I204
sVcomment
p801
g4
sVcookies
p802
(lp803
sVstatusText
p804
VNo Content
p805
sVcontent
p806
(dp807
VmimeType
p808
Vtext/html; charset=UTF-8
p809
sVcomment
p810
g4
sVsize
p811
I0
ssVheaders
p812
(lp813
sVheadersSize
p814
I248
sVredirectURL
p815
g4
sVbodySize
p816
I0
sVhttpVersion
p817
VHTTP/1.1
p818
ssa(dp819
Vcomment
p820
g4
sVserverIPAddress
p821
V216.58.216.196
p822
sVpageref
p823
VGene Wilder
p824
sVstartedDateTime
p825
V2017-04-16T08:09:44.512-05:00
p826
sVcache
p827
(dp828
sVrequest
p829
(dp830
Vcomment
p831
g4
sVcookies
p832
(lp833
sVurl
p834
Vhttps://www.google.com/gen_204?atyp=i&ct=&cad=&vet=10ahUKEwi6s4mahqnTAhVM7oMKHRngBzQQ5W0IRCgG..s&ei=FW3zWPrUMszcjwSZwJ-gAw&zx=1492348184494
p835
sVqueryString
p836
(lp837
(dp838
Vname
p839
Vatyp
p840
sVvalue
p841
g30
sa(dp842
Vname
p843
Vct
p844
sVvalue
p845
g4
sa(dp846
Vname
p847
Vcad
p848
sVvalue
p849
g4
sa(dp850
Vname
p851
Vvet
p852
sVvalue
p853
V10ahUKEwi6s4mahqnTAhVM7oMKHRngBzQQ5W0IRCgG..s
p854
sa(dp855
Vname
p856
Vei
p857
sVvalue
p858
VFW3zWPrUMszcjwSZwJ-gAw
p859
sa(dp860
Vname
p861
Vzx
p862
sVvalue
p863
V1492348184494
p864
sasVheaders
p865
(lp866
sVheadersSize
p867
I656
sVbodySize
p868
I0
sVmethod
p869
VGET
p870
sVhttpVersion
p871
VHTTP/1.1
p872
ssVtimings
p873
(dp874
Vcomment
p875
g4
sVreceive
p876
I0
sVsend
p877
I0
sVssl
p878
I-1
sVconnect
p879
I-1
sVdns
p880
I-1
sVwait
p881
I29
sVblocked
p882
I-1
ssVtime
p883
I29
sVresponse
p884
(dp885
Vstatus
p886
I204
sVcomment
p887
g4
sVcookies
p888
(lp889
sVstatusText
p890
VNo Content
p891
sVcontent
p892
(dp893
VmimeType
p894
Vtext/html; charset=UTF-8
p895
sVcomment
p896
g4
sVsize
p897
I0
ssVheaders
p898
(lp899
sVheadersSize
p900
I248
sVredirectURL
p901
g4
sVbodySize
p902
I0
sVhttpVersion
p903
VHTTP/1.1
p904
ssa(dp905
Vcomment
p906
g4
sVserverIPAddress
p907
V216.58.216.206
p908
sVpageref
p909
VGene Wilder
p910
sVstartedDateTime
p911
V2017-04-16T08:09:44.523-05:00
p912
sVcache
p913
(dp914
sVrequest
p915
(dp916
Vcomment
p917
g4
sVcookies
p918
(lp919
sVurl
p920
Vhttps://encrypted-tbn1.gstatic.com/images?q=tbn:ANd9GcT3vOtUd6SWwvm9EULz-UoQ9J43__kRGd7lWXX69mtnkeCiD2Lh5-pdfMt8fMei3mSlwuw3
p921
sVqueryString
p922
(lp923
(dp924
Vname
p925
g410
sVvalue
p926
Vtbn:ANd9GcT3vOtUd6SWwvm9EULz-UoQ9J43__kRGd7lWXX69mtnkeCiD2Lh5-pdfMt8fMei3mSlwuw3
p927
sasVheaders
p928
(lp929
sVheadersSize
p930
I439
sVbodySize
p931
I0
sVmethod
p932
VGET
p933
sVhttpVersion
p934
VHTTP/1.1
p935
ssVtimings
p936
(dp937
Vcomment
p938
g4
sVreceive
p939
I0
sVsend
p940
I0
sVssl
p941
I-1
sVconnect
p942
I-1
sVdns
p943
I-1
sVwait
p944
I18
sVblocked
p945
I-1
ssVtime
p946
I19
sVresponse
p947
(dp948
Vstatus
p949
I200
sVcomment
p950
g4
sVcookies
p951
(lp952
sVstatusText
p953
VOK
p954
sVcontent
p955
(dp956
VmimeType
p957
Vimage/jpeg
p958
sVcomment
p959
g4
sVsize
p960
I0
ssVheaders
p961
(lp962
sVheadersSize
p963
I429
sVredirectURL
p964
g4
sVbodySize
p965
I4643
sVhttpVersion
p966
VHTTP/1.1
p967
ssa(dp968
Vcomment
p969
g4
sVserverIPAddress
p970
V216.58.216.206
p971
sVpageref
p972
VGene Wilder
p973
sVstartedDateTime
p974
V2017-04-16T08:09:44.525-05:00
p975
sVcache
p976
(dp977
sVrequest
p978
(dp979
Vcomment
p980
g4
sVcookies
p981
(lp982
sVurl
p983
Vhttps://encrypted-tbn2.gstatic.com/images?q=tbn:ANd9GcSuhRQsNuDskIroxKl4EJ4zm9MElTw9qyjggX7wca2N9WGsoFBLv29Axr14wd2i0ghowtwx
p984
sVqueryString
p985
(lp986
(dp987
Vname
p988
g410
sVvalue
p989
Vtbn:ANd9GcSuhRQsNuDskIroxKl4EJ4zm9MElTw9qyjggX7wca2N9WGsoFBLv29Axr14wd2i0ghowtwx
p990
sasVheaders
p991
(lp992
sVheadersSize
p993
I439
sVbodySize
p994
I0
sVmethod
p995
VGET
p996
sVhttpVersion
p997
VHTTP/1.1
p998
ssVtimings
p999
(dp1000
Vcomment
p1001
g4
sVreceive
p1002
I1
sVsend
p1003
I0
sVssl
p1004
I-1
sVconnect
p1005
I-1
sVdns
p1006
I-1
sVwait
p1007
I14
sVblocked
p1008
I-1
ssVtime
p1009
I16
sVresponse
p1010
(dp1011
Vstatus
p1012
I200
sVcomment
p1013
g4
sVcookies
p1014
(lp1015
sVstatusText
p1016
VOK
p1017
sVcontent
p1018
(dp1019
VmimeType
p1020
Vimage/jpeg
p1021
sVcomment
p1022
g4
sVsize
p1023
I0
ssVheaders
p1024
(lp1025
sVheadersSize
p1026
I429
sVredirectURL
p1027
g4
sVbodySize
p1028
I5673
sVhttpVersion
p1029
VHTTP/1.1
p1030
ssa(dp1031
Vcomment
p1032
g4
sVserverIPAddress
p1033
V216.58.216.206
p1034
sVpageref
p1035
VGene Wilder
p1036
sVstartedDateTime
p1037
V2017-04-16T08:09:44.535-05:00
p1038
sVcache
p1039
(dp1040
sVrequest
p1041
(dp1042
Vcomment
p1043
g4
sVcookies
p1044
(lp1045
sVurl
p1046
Vhttps://encrypted-tbn0.gstatic.com/images?q=tbn:ANd9GcQYEKuVpO50wBYRP13DTNtlty72-_o65rAyhlg8CjzBV0iHwGA2xd1D4lNJjIDj0Op-X9vZ
p1047
sVqueryString
p1048
(lp1049
(dp1050
Vname
p1051
g410
sVvalue
p1052
Vtbn:ANd9GcQYEKuVpO50wBYRP13DTNtlty72-_o65rAyhlg8CjzBV0iHwGA2xd1D4lNJjIDj0Op-X9vZ
p1053
sasVheaders
p1054
(lp1055
sVheadersSize
p1056
I439
sVbodySize
p1057
I0
sVmethod
p1058
VGET
p1059
sVhttpVersion
p1060
VHTTP/1.1
p1061
ssVtimings
p1062
(dp1063
Vcomment
p1064
g4
sVreceive
p1065
I1
sVsend
p1066
I0
sVssl
p1067
I-1
sVconnect
p1068
I-1
sVdns
p1069
I-1
sVwait
p1070
I41
sVblocked
p1071
I-1
ssVtime
p1072
I42
sVresponse
p1073
(dp1074
Vstatus
p1075
I200
sVcomment
p1076
g4
sVcookies
p1077
(lp1078
sVstatusText
p1079
VOK
p1080
sVcontent
p1081
(dp1082
VmimeType
p1083
Vimage/jpeg
p1084
sVcomment
p1085
g4
sVsize
p1086
I0
ssVheaders
p1087
(lp1088
sVheadersSize
p1089
I429
sVredirectURL
p1090
g4
sVbodySize
p1091
I8358
sVhttpVersion
p1092
VHTTP/1.1
p1093
ssa(dp1094
Vcomment
p1095
g4
sVserverIPAddress
p1096
V216.58.216.206
p1097
sVpageref
p1098
VGene Wilder
p1099
sVstartedDateTime
p1100
V2017-04-16T08:09:44.539-05:00
p1101
sVcache
p1102
(dp1103
sVrequest
p1104
(dp1105
Vcomment
p1106
g4
sVcookies
p1107
(lp1108
sVurl
p1109
Vhttps://encrypted-tbn1.gstatic.com/images?q=tbn:ANd9GcQY0Wz8FDWlZ36UpYqdG0yI5SP9LNm7BP7JFScL-Af46XumvSbDQZ1evyZ24eAi_lgqP73D
p1110
sVqueryString
p1111
(lp1112
(dp1113
Vname
p1114
g410
sVvalue
p1115
Vtbn:ANd9GcQY0Wz8FDWlZ36UpYqdG0yI5SP9LNm7BP7JFScL-Af46XumvSbDQZ1evyZ24eAi_lgqP73D
p1116
sasVheaders
p1117
(lp1118
sVheadersSize
p1119
I439
sVbodySize
p1120
I0
sVmethod
p1121
VGET
p1122
sVhttpVersion
p1123
VHTTP/1.1
p1124
ssVtimings
p1125
(dp1126
Vcomment
p1127
g4
sVreceive
p1128
I2
sVsend
p1129
I0
sVssl
p1130
I-1
sVconnect
p1131
I-1
sVdns
p1132
I-1
sVwait
p1133
I40
sVblocked
p1134
I-1
ssVtime
p1135
I43
sVresponse
p1136
(dp1137
Vstatus
p1138
I200
sVcomment
p1139
g4
sVcookies
p1140
(lp1141
sVstatusText
p1142
VOK
p1143
sVcontent
p1144
(dp1145
VmimeType
p1146
Vimage/jpeg
p1147
sVcomment
p1148
g4
sVsize
p1149
I0
ssVheaders
p1150
(lp1151
sVheadersSize
p1152
I407
sVredirectURL
p1153
g4
sVbodySize
p1154
I6261
sVhttpVersion
p1155
VHTTP/1.1
p1156
ssa(dp1157
Vcomment
p1158
g4
sVserverIPAddress
p1159
V216.58.216.196
p1160
sVpageref
p1161
VGene Wilder
p1162
sVstartedDateTime
p1163
V2017-04-16T08:09:44.545-05:00
p1164
sVcache
p1165
(dp1166
sVrequest
p1167
(dp1168
Vcomment
p1169
g4
sVcookies
p1170
(lp1171
sVurl
p1172
Vhttps://www.google.com/gen_204?atyp=i&ct=&cad=&vet=10ahUKEwi6s4mahqnTAhVM7oMKHRngBzQQ5W0IRygH..s&ei=FW3zWPrUMszcjwSZwJ-gAw&zx=1492348184496
p1173
sVqueryString
p1174
(lp1175
(dp1176
Vname
p1177
Vatyp
p1178
sVvalue
p1179
g30
sa(dp1180
Vname
p1181
Vct
p1182
sVvalue
p1183
g4
sa(dp1184
Vname
p1185
Vcad
p1186
sVvalue
p1187
g4
sa(dp1188
Vname
p1189
Vvet
p1190
sVvalue
p1191
V10ahUKEwi6s4mahqnTAhVM7oMKHRngBzQQ5W0IRygH..s
p1192
sa(dp1193
Vname
p1194
Vei
p1195
sVvalue
p1196
VFW3zWPrUMszcjwSZwJ-gAw
p1197
sa(dp1198
Vname
p1199
Vzx
p1200
sVvalue
p1201
V1492348184496
p1202
sasVheaders
p1203
(lp1204
sVheadersSize
p1205
I656
sVbodySize
p1206
I0
sVmethod
p1207
VGET
p1208
sVhttpVersion
p1209
VHTTP/1.1
p1210
ssVtimings
p1211
(dp1212
Vcomment
p1213
g4
sVreceive
p1214
I0
sVsend
p1215
I0
sVssl
p1216
I-1
sVconnect
p1217
I-1
sVdns
p1218
I-1
sVwait
p1219
I81
sVblocked
p1220
I-1
ssVtime
p1221
I82
sVresponse
p1222
(dp1223
Vstatus
p1224
I204
sVcomment
p1225
g4
sVcookies
p1226
(lp1227
sVstatusText
p1228
VNo Content
p1229
sVcontent
p1230
(dp1231
VmimeType
p1232
Vtext/html; charset=UTF-8
p1233
sVcomment
p1234
g4
sVsize
p1235
I0
ssVheaders
p1236
(lp1237
sVheadersSize
p1238
I248
sVredirectURL
p1239
g4
sVbodySize
p1240
I0
sVhttpVersion
p1241
VHTTP/1.1
p1242
ssa(dp1243
Vcomment
p1244
g4
sVserverIPAddress
p1245
V216.58.216.196
p1246
sVpageref
p1247
VGene Wilder
p1248
sVstartedDateTime
p1249
V2017-04-16T08:09:44.545-05:00
p1250
sVcache
p1251
(dp1252
sVrequest
p1253
(dp1254
Vcomment
p1255
g4
sVcookies
p1256
(lp1257
sVurl
p1258
Vhttps://www.google.com/gen_204?atyp=i&ct=&cad=&vet=10ahUKEwi6s4mahqnTAhVM7oMKHRngBzQQlEsIhgEoAzAY..s&ei=FW3zWPrUMszcjwSZwJ-gAw&zx=1492348184523
p1259
sVqueryString
p1260
(lp1261
(dp1262
Vname
p1263
Vatyp
p1264
sVvalue
p1265
g30
sa(dp1266
Vname
p1267
Vct
p1268
sVvalue
p1269
g4
sa(dp1270
Vname
p1271
Vcad
p1272
sVvalue
p1273
g4
sa(dp1274
Vname
p1275
Vvet
p1276
sVvalue
p1277
V10ahUKEwi6s4mahqnTAhVM7oMKHRngBzQQlEsIhgEoAzAY..s
p1278
sa(dp1279
Vname
p1280
Vei
p1281
sVvalue
p1282
VFW3zWPrUMszcjwSZwJ-gAw
p1283
sa(dp1284
Vname
p1285
Vzx
p1286
sVvalue
p1287
V1492348184523
p1288
sasVheaders
p1289
(lp1290
sVheadersSize
p1291
I660
sVbodySize
p1292
I0
sVmethod
p1293
VGET
p1294
sVhttpVersion
p1295
VHTTP/1.1
p1296
ssVtimings
p1297
(dp1298
Vcomment
p1299
g4
sVreceive
p1300
I0
sVsend
p1301
I0
sVssl
p1302
I-1
sVconnect
p1303
I-1
sVdns
p1304
I-1
sVwait
p1305
I49
sVblocked
p1306
I-1
ssVtime
p1307
I49
sVresponse
p1308
(dp1309
Vstatus
p1310
I204
sVcomment
p1311
g4
sVcookies
p1312
(lp1313
sVstatusText
p1314
VNo Content
p1315
sVcontent
p1316
(dp1317
VmimeType
p1318
Vtext/html; charset=UTF-8
p1319
sVcomment
p1320
g4
sVsize
p1321
I0
ssVheaders
p1322
(lp1323
sVheadersSize
p1324
I248
sVredirectURL
p1325
g4
sVbodySize
p1326
I0
sVhttpVersion
p1327
VHTTP/1.1
p1328
ssa(dp1329
Vcomment
p1330
g4
sVserverIPAddress
p1331
V216.58.216.196
p1332
sVpageref
p1333
VGene Wilder
p1334
sVstartedDateTime
p1335
V2017-04-16T08:09:44.547-05:00
p1336
sVcache
p1337
(dp1338
sVrequest
p1339
(dp1340
Vcomment
p1341
g4
sVcookies
p1342
(lp1343
sVurl
p1344
Vhttps://www.google.com/gen_204?atyp=i&ct=&cad=&vet=10ahUKEwi6s4mahqnTAhVM7oMKHRngBzQQ5W0IPigE..s&ei=FW3zWPrUMszcjwSZwJ-gAw&zx=1492348184488
p1345
sVqueryString
p1346
(lp1347
(dp1348
Vname
p1349
Vatyp
p1350
sVvalue
p1351
g30
sa(dp1352
Vname
p1353
Vct
p1354
sVvalue
p1355
g4
sa(dp1356
Vname
p1357
Vcad
p1358
sVvalue
p1359
g4
sa(dp1360
Vname
p1361
Vvet
p1362
sVvalue
p1363
V10ahUKEwi6s4mahqnTAhVM7oMKHRngBzQQ5W0IPigE..s
p1364
sa(dp1365
Vname
p1366
Vei
p1367
sVvalue
p1368
VFW3zWPrUMszcjwSZwJ-gAw
p1369
sa(dp1370
Vname
p1371
Vzx
p1372
sVvalue
p1373
V1492348184488
p1374
sasVheaders
p1375
(lp1376
sVheadersSize
p1377
I656
sVbodySize
p1378
I0
sVmethod
p1379
VGET
p1380
sVhttpVersion
p1381
VHTTP/1.1
p1382
ssVtimings
p1383
(dp1384
Vcomment
p1385
g4
sVreceive
p1386
I0
sVsend
p1387
I0
sVssl
p1388
I19
sVconnect
p1389
I35
sVdns
p1390
I18
sVwait
p1391
I47
sVblocked
p1392
I0
ssVtime
p1393
I101
sVresponse
p1394
(dp1395
Vstatus
p1396
I204
sVcomment
p1397
g4
sVcookies
p1398
(lp1399
sVstatusText
p1400
VNo Content
p1401
sVcontent
p1402
(dp1403
VmimeType
p1404
Vtext/html; charset=UTF-8
p1405
sVcomment
p1406
g4
sVsize
p1407
I0
ssVheaders
p1408
(lp1409
sVheadersSize
p1410
I248
sVredirectURL
p1411
g4
sVbodySize
p1412
I0
sVhttpVersion
p1413
VHTTP/1.1
p1414
ssa(dp1415
Vcomment
p1416
g4
sVserverIPAddress
p1417
V216.58.216.196
p1418
sVpageref
p1419
VGene Wilder
p1420
sVstartedDateTime
p1421
V2017-04-16T08:09:44.548-05:00
p1422
sVcache
p1423
(dp1424
sVrequest
p1425
(dp1426
Vcomment
p1427
g4
sVcookies
p1428
(lp1429
sVurl
p1430
Vhttps://www.google.com/async/irc?vet=10ahUKEwi6s4mahqnTAhVM7oMKHRngBzQQo0EIkwI..i&ved=0ahUKEwi6s4mahqnTAhVM7oMKHRngBzQQo0EIkwI&ei=FW3zWPrUMszcjwSZwJ-gAw&yv=2&async=iu:1,ved:0ahUKEwi6s4mahqnTAhVM7oMKHRngBzQQo0EIkwI,_id:irc_async,_pms:qs
p1431
sVqueryString
p1432
(lp1433
(dp1434
Vname
p1435
Vvet
p1436
sVvalue
p1437
V10ahUKEwi6s4mahqnTAhVM7oMKHRngBzQQo0EIkwI..i
p1438
sa(dp1439
Vname
p1440
Vved
p1441
sVvalue
p1442
V0ahUKEwi6s4mahqnTAhVM7oMKHRngBzQQo0EIkwI
p1443
sa(dp1444
Vname
p1445
Vei
p1446
sVvalue
p1447
VFW3zWPrUMszcjwSZwJ-gAw
p1448
sa(dp1449
Vname
p1450
Vyv
p1451
sVvalue
p1452
g64
sa(dp1453
Vname
p1454
Vasync
p1455
sVvalue
p1456
Viu:1,ved:0ahUKEwi6s4mahqnTAhVM7oMKHRngBzQQo0EIkwI,_id:irc_async,_pms:qs
p1457
sasVheaders
p1458
(lp1459
sVheadersSize
p1460
I752
sVbodySize
p1461
I0
sVmethod
p1462
VGET
p1463
sVhttpVersion
p1464
VHTTP/1.1
p1465
ssVtimings
p1466
(dp1467
Vcomment
p1468
g4
sVreceive
p1469
I0
sVsend
p1470
I0
sVssl
p1471
I20
sVconnect
p1472
I37
sVdns
p1473
I32
sVwait
p1474
I63
sVblocked
p1475
I0
ssVtime
p1476
I134
sVresponse
p1477
(dp1478
Vstatus
p1479
I200
sVcomment
p1480
g4
sVcookies
p1481
(lp1482
sVstatusText
p1483
VOK
p1484
sVcontent
p1485
(dp1486
VmimeType
p1487
Vtext/html; charset=UTF-8
p1488
sVcomment
p1489
g4
sVsize
p1490
I0
ssVheaders
p1491
(lp1492
sVheadersSize
p1493
I383
sVredirectURL
p1494
g4
sVbodySize
p1495
I7790
sVhttpVersion
p1496
VHTTP/1.1
p1497
ssa(dp1498
Vcomment
p1499
g4
sVserverIPAddress
p1500
V216.58.216.196
p1501
sVpageref
p1502
VGene Wilder
p1503
sVstartedDateTime
p1504
V2017-04-16T08:09:44.551-05:00
p1505
sVcache
p1506
(dp1507
sVrequest
p1508
(dp1509
Vcomment
p1510
g4
sVcookies
p1511
(lp1512
sVurl
p1513
Vhttps://www.google.com/gen_204?atyp=i&ct=&cad=&vet=10ahUKEwi6s4mahqnTAhVM7oMKHRngBzQQ5W0IOCgC..s&ei=FW3zWPrUMszcjwSZwJ-gAw&zx=1492348184483
p1514
sVqueryString
p1515
(lp1516
(dp1517
Vname
p1518
Vatyp
p1519
sVvalue
p1520
g30
sa(dp1521
Vname
p1522
Vct
p1523
sVvalue
p1524
g4
sa(dp1525
Vname
p1526
Vcad
p1527
sVvalue
p1528
g4
sa(dp1529
Vname
p1530
Vvet
p1531
sVvalue
p1532
V10ahUKEwi6s4mahqnTAhVM7oMKHRngBzQQ5W0IOCgC..s
p1533
sa(dp1534
Vname
p1535
Vei
p1536
sVvalue
p1537
VFW3zWPrUMszcjwSZwJ-gAw
p1538
sa(dp1539
Vname
p1540
Vzx
p1541
sVvalue
p1542
V1492348184483
p1543
sasVheaders
p1544
(lp1545
sVheadersSize
p1546
I656
sVbodySize
p1547
I0
sVmethod
p1548
VGET
p1549
sVhttpVersion
p1550
VHTTP/1.1
p1551
ssVtimings
p1552
(dp1553
Vcomment
p1554
g4
sVreceive
p1555
I0
sVsend
p1556
I0
sVssl
p1557
I21
sVconnect
p1558
I39
sVdns
p1559
I24
sVwait
p1560
I39
sVblocked
p1561
I0
ssVtime
p1562
I103
sVresponse
p1563
(dp1564
Vstatus
p1565
I204
sVcomment
p1566
g4
sVcookies
p1567
(lp1568
sVstatusText
p1569
VNo Content
p1570
sVcontent
p1571
(dp1572
VmimeType
p1573
Vtext/html; charset=UTF-8
p1574
sVcomment
p1575
g4
sVsize
p1576
I0
ssVheaders
p1577
(lp1578
sVheadersSize
p1579
I248
sVredirectURL
p1580
g4
sVbodySize
p1581
I0
sVhttpVersion
p1582
VHTTP/1.1
p1583
ssa(dp1584
Vcomment
p1585
g4
sVserverIPAddress
p1586
V216.58.216.196
p1587
sVpageref
p1588
VGene Wilder
p1589
sVstartedDateTime
p1590
V2017-04-16T08:09:44.551-05:00
p1591
sVcache
p1592
(dp1593
sVrequest
p1594
(dp1595
Vcomment
p1596
g4
sVcookies
p1597
(lp1598
sVurl
p1599
Vhttps://www.google.com/gen_204?atyp=i&ct=&cad=&vet=10ahUKEwi6s4mahqnTAhVM7oMKHRngBzQQ5W0IOygD..s&ei=FW3zWPrUMszcjwSZwJ-gAw&zx=1492348184486
p1600
sVqueryString
p1601
(lp1602
(dp1603
Vname
p1604
Vatyp
p1605
sVvalue
p1606
g30
sa(dp1607
Vname
p1608
Vct
p1609
sVvalue
p1610
g4
sa(dp1611
Vname
p1612
Vcad
p1613
sVvalue
p1614
g4
sa(dp1615
Vname
p1616
Vvet
p1617
sVvalue
p1618
V10ahUKEwi6s4mahqnTAhVM7oMKHRngBzQQ5W0IOygD..s
p1619
sa(dp1620
Vname
p1621
Vei
p1622
sVvalue
p1623
VFW3zWPrUMszcjwSZwJ-gAw
p1624
sa(dp1625
Vname
p1626
Vzx
p1627
sVvalue
p1628
V1492348184486
p1629
sasVheaders
p1630
(lp1631
sVheadersSize
p1632
I656
sVbodySize
p1633
I0
sVmethod
p1634
VGET
p1635
sVhttpVersion
p1636
VHTTP/1.1
p1637
ssVtimings
p1638
(dp1639
Vcomment
p1640
g4
sVreceive
p1641
I0
sVsend
p1642
I0
sVssl
p1643
I22
sVconnect
p1644
I39
sVdns
p1645
I21
sVwait
p1646
I46
sVblocked
p1647
I0
ssVtime
p1648
I108
sVresponse
p1649
(dp1650
Vstatus
p1651
I204
sVcomment
p1652
g4
sVcookies
p1653
(lp1654
sVstatusText
p1655
VNo Content
p1656
sVcontent
p1657
(dp1658
VmimeType
p1659
Vtext/html; charset=UTF-8
p1660
sVcomment
p1661
g4
sVsize
p1662
I0
ssVheaders
p1663
(lp1664
sVheadersSize
p1665
I248
sVredirectURL
p1666
g4
sVbodySize
p1667
I0
sVhttpVersion
p1668
VHTTP/1.1
p1669
ssa(dp1670
Vcomment
p1671
g4
sVserverIPAddress
p1672
V216.58.216.206
p1673
sVpageref
p1674
VGene Wilder
p1675
sVstartedDateTime
p1676
V2017-04-16T08:09:44.558-05:00
p1677
sVcache
p1678
(dp1679
sVrequest
p1680
(dp1681
Vcomment
p1682
g4
sVcookies
p1683
(lp1684
sVurl
p1685
Vhttps://encrypted-tbn3.gstatic.com/images?q=tbn:ANd9GcRBYeCdl2IlL2e6L9Dq1f8SemaE_bl0fRn7O1_zbgwe9x21M9Ydhb2AOuccGtYZd12GZ21Z
p1686
sVqueryString
p1687
(lp1688
(dp1689
Vname
p1690
g410
sVvalue
p1691
Vtbn:ANd9GcRBYeCdl2IlL2e6L9Dq1f8SemaE_bl0fRn7O1_zbgwe9x21M9Ydhb2AOuccGtYZd12GZ21Z
p1692
sasVheaders
p1693
(lp1694
sVheadersSize
p1695
I439
sVbodySize
p1696
I0
sVmethod
p1697
VGET
p1698
sVhttpVersion
p1699
VHTTP/1.1
p1700
ssVtimings
p1701
(dp1702
Vcomment
p1703
g4
sVreceive
p1704
I1
sVsend
p1705
I0
sVssl
p1706
I-1
sVconnect
p1707
I-1
sVdns
p1708
I-1
sVwait
p1709
I24
sVblocked
p1710
I-1
ssVtime
p1711
I26
sVresponse
p1712
(dp1713
Vstatus
p1714
I200
sVcomment
p1715
g4
sVcookies
p1716
(lp1717
sVstatusText
p1718
VOK
p1719
sVcontent
p1720
(dp1721
VmimeType
p1722
Vimage/jpeg
p1723
sVcomment
p1724
g4
sVsize
p1725
I0
ssVheaders
p1726
(lp1727
sVheadersSize
p1728
I407
sVredirectURL
p1729
g4
sVbodySize
p1730
I6108
sVhttpVersion
p1731
VHTTP/1.1
p1732
ssa(dp1733
Vcomment
p1734
g4
sVserverIPAddress
p1735
V216.58.216.196
p1736
sVpageref
p1737
VGene Wilder
p1738
sVstartedDateTime
p1739
V2017-04-16T08:09:44.592-05:00
p1740
sVcache
p1741
(dp1742
sVrequest
p1743
(dp1744
Vcomment
p1745
g4
sVcookies
p1746
(lp1747
sVurl
p1748
Vhttps://www.google.com/gen_204?atyp=i&ct=&cad=&vet=10ahUKEwi6s4mahqnTAhVM7oMKHRngBzQQlEsIiAEoBDAY..s&ei=FW3zWPrUMszcjwSZwJ-gAw&zx=1492348184531
p1749
sVqueryString
p1750
(lp1751
(dp1752
Vname
p1753
Vatyp
p1754
sVvalue
p1755
g30
sa(dp1756
Vname
p1757
Vct
p1758
sVvalue
p1759
g4
sa(dp1760
Vname
p1761
Vcad
p1762
sVvalue
p1763
g4
sa(dp1764
Vname
p1765
Vvet
p1766
sVvalue
p1767
V10ahUKEwi6s4mahqnTAhVM7oMKHRngBzQQlEsIiAEoBDAY..s
p1768
sa(dp1769
Vname
p1770
Vei
p1771
sVvalue
p1772
VFW3zWPrUMszcjwSZwJ-gAw
p1773
sa(dp1774
Vname
p1775
Vzx
p1776
sVvalue
p1777
V1492348184531
p1778
sasVheaders
p1779
(lp1780
sVheadersSize
p1781
I660
sVbodySize
p1782
I0
sVmethod
p1783
VGET
p1784
sVhttpVersion
p1785
VHTTP/1.1
p1786
ssVtimings
p1787
(dp1788
Vcomment
p1789
g4
sVreceive
p1790
I0
sVsend
p1791
I0
sVssl
p1792
I-1
sVconnect
p1793
I-1
sVdns
p1794
I-1
sVwait
p1795
I22
sVblocked
p1796
I-1
ssVtime
p1797
I23
sVresponse
p1798
(dp1799
Vstatus
p1800
I204
sVcomment
p1801
g4
sVcookies
p1802
(lp1803
sVstatusText
p1804
VNo Content
p1805
sVcontent
p1806
(dp1807
VmimeType
p1808
Vtext/html; charset=UTF-8
p1809
sVcomment
p1810
g4
sVsize
p1811
I0
ssVheaders
p1812
(lp1813
sVheadersSize
p1814
I248
sVredirectURL
p1815
g4
sVbodySize
p1816
I0
sVhttpVersion
p1817
VHTTP/1.1
p1818
ssa(dp1819
Vcomment
p1820
g4
sVserverIPAddress
p1821
V216.58.216.196
p1822
sVpageref
p1823
VGene Wilder
p1824
sVstartedDateTime
p1825
V2017-04-16T08:09:44.595-05:00
p1826
sVcache
p1827
(dp1828
sVrequest
p1829
(dp1830
Vcomment
p1831
g4
sVcookies
p1832
(lp1833
sVurl
p1834
Vhttps://www.google.com/gen_204?atyp=i&ct=&cad=&vet=10ahUKEwi6s4mahqnTAhVM7oMKHRngBzQQlEsIigEoBTAY..s&ei=FW3zWPrUMszcjwSZwJ-gAw&zx=1492348184536
p1835
sVqueryString
p1836
(lp1837
(dp1838
Vname
p1839
Vatyp
p1840
sVvalue
p1841
g30
sa(dp1842
Vname
p1843
Vct
p1844
sVvalue
p1845
g4
sa(dp1846
Vname
p1847
Vcad
p1848
sVvalue
p1849
g4
sa(dp1850
Vname
p1851
Vvet
p1852
sVvalue
p1853
V10ahUKEwi6s4mahqnTAhVM7oMKHRngBzQQlEsIigEoBTAY..s
p1854
sa(dp1855
Vname
p1856
Vei
p1857
sVvalue
p1858
VFW3zWPrUMszcjwSZwJ-gAw
p1859
sa(dp1860
Vname
p1861
Vzx
p1862
sVvalue
p1863
V1492348184536
p1864
sasVheaders
p1865
(lp1866
sVheadersSize
p1867
I660
sVbodySize
p1868
I0
sVmethod
p1869
VGET
p1870
sVhttpVersion
p1871
VHTTP/1.1
p1872
ssVtimings
p1873
(dp1874
Vcomment
p1875
g4
sVreceive
p1876
I0
sVsend
p1877
I0
sVssl
p1878
I-1
sVconnect
p1879
I-1
sVdns
p1880
I-1
sVwait
p1881
I32
sVblocked
p1882
I-1
ssVtime
p1883
I32
sVresponse
p1884
(dp1885
Vstatus
p1886
I204
sVcomment
p1887
g4
sVcookies
p1888
(lp1889
sVstatusText
p1890
VNo Content
p1891
sVcontent
p1892
(dp1893
VmimeType
p1894
Vtext/html; charset=UTF-8
p1895
sVcomment
p1896
g4
sVsize
p1897
I0
ssVheaders
p1898
(lp1899
sVheadersSize
p1900
I248
sVredirectURL
p1901
g4
sVbodySize
p1902
I0
sVhttpVersion
p1903
VHTTP/1.1
p1904
ssa(dp1905
Vcomment
p1906
g4
sVserverIPAddress
p1907
V216.58.216.196
p1908
sVpageref
p1909
VGene Wilder
p1910
sVstartedDateTime
p1911
V2017-04-16T08:09:44.595-05:00
p1912
sVcache
p1913
(dp1914
sVrequest
p1915
(dp1916
Vcomment
p1917
g4
sVcookies
p1918
(lp1919
sVurl
p1920
Vhttps://www.google.com/gen_204?atyp=i&ct=&cad=&vet=10ahUKEwi6s4mahqnTAhVM7oMKHRngBzQQlEsIjAEoBjAY..s&ei=FW3zWPrUMszcjwSZwJ-gAw&zx=1492348184538
p1921
sVqueryString
p1922
(lp1923
(dp1924
Vname
p1925
Vatyp
p1926
sVvalue
p1927
g30
sa(dp1928
Vname
p1929
Vct
p1930
sVvalue
p1931
g4
sa(dp1932
Vname
p1933
Vcad
p1934
sVvalue
p1935
g4
sa(dp1936
Vname
p1937
Vvet
p1938
sVvalue
p1939
V10ahUKEwi6s4mahqnTAhVM7oMKHRngBzQQlEsIjAEoBjAY..s
p1940
sa(dp1941
Vname
p1942
Vei
p1943
sVvalue
p1944
VFW3zWPrUMszcjwSZwJ-gAw
p1945
sa(dp1946
Vname
p1947
Vzx
p1948
sVvalue
p1949
V1492348184538
p1950
sasVheaders
p1951
(lp1952
sVheadersSize
p1953
I660
sVbodySize
p1954
I0
sVmethod
p1955
VGET
p1956
sVhttpVersion
p1957
VHTTP/1.1
p1958
ssVtimings
p1959
(dp1960
Vcomment
p1961
g4
sVreceive
p1962
I0
sVsend
p1963
I0
sVssl
p1964
I-1
sVconnect
p1965
I-1
sVdns
p1966
I-1
sVwait
p1967
I33
sVblocked
p1968
I-1
ssVtime
p1969
I33
sVresponse
p1970
(dp1971
Vstatus
p1972
I204
sVcomment
p1973
g4
sVcookies
p1974
(lp1975
sVstatusText
p1976
VNo Content
p1977
sVcontent
p1978
(dp1979
VmimeType
p1980
Vtext/html; charset=UTF-8
p1981
sVcomment
p1982
g4
sVsize
p1983
I0
ssVheaders
p1984
(lp1985
sVheadersSize
p1986
I248
sVredirectURL
p1987
g4
sVbodySize
p1988
I0
sVhttpVersion
p1989
VHTTP/1.1
p1990
ssa(dp1991
Vcomment
p1992
g4
sVserverIPAddress
p1993
V216.58.216.196
p1994
sVpageref
p1995
VGene Wilder
p1996
sVstartedDateTime
p1997
V2017-04-16T08:09:44.599-05:00
p1998
sVcache
p1999
(dp2000
sVrequest
p2001
(dp2002
Vcomment
p2003
g4
sVcookies
p2004
(lp2005
sVurl
p2006
Vhttps://www.google.com/gen_204?atyp=i&ct=&cad=&vet=10ahUKEwi6s4mahqnTAhVM7oMKHRngBzQQlEsIjgEoBzAY..s&ei=FW3zWPrUMszcjwSZwJ-gAw&zx=1492348184542
p2007
sVqueryString
p2008
(lp2009
(dp2010
Vname
p2011
Vatyp
p2012
sVvalue
p2013
g30
sa(dp2014
Vname
p2015
Vct
p2016
sVvalue
p2017
g4
sa(dp2018
Vname
p2019
Vcad
p2020
sVvalue
p2021
g4
sa(dp2022
Vname
p2023
Vvet
p2024
sVvalue
p2025
V10ahUKEwi6s4mahqnTAhVM7oMKHRngBzQQlEsIjgEoBzAY..s
p2026
sa(dp2027
Vname
p2028
Vei
p2029
sVvalue
p2030
VFW3zWPrUMszcjwSZwJ-gAw
p2031
sa(dp2032
Vname
p2033
Vzx
p2034
sVvalue
p2035
V1492348184542
p2036
sasVheaders
p2037
(lp2038
sVheadersSize
p2039
I660
sVbodySize
p2040
I0
sVmethod
p2041
VGET
p2042
sVhttpVersion
p2043
VHTTP/1.1
p2044
ssVtimings
p2045
(dp2046
Vcomment
p2047
g4
sVreceive
p2048
I0
sVsend
p2049
I0
sVssl
p2050
I-1
sVconnect
p2051
I-1
sVdns
p2052
I-1
sVwait
p2053
I34
sVblocked
p2054
I-1
ssVtime
p2055
I34
sVresponse
p2056
(dp2057
Vstatus
p2058
I204
sVcomment
p2059
g4
sVcookies
p2060
(lp2061
sVstatusText
p2062
VNo Content
p2063
sVcontent
p2064
(dp2065
VmimeType
p2066
Vtext/html; charset=UTF-8
p2067
sVcomment
p2068
g4
sVsize
p2069
I0
ssVheaders
p2070
(lp2071
sVheadersSize
p2072
I248
sVredirectURL
p2073
g4
sVbodySize
p2074
I0
sVhttpVersion
p2075
VHTTP/1.1
p2076
ssa(dp2077
Vcomment
p2078
g4
sVserverIPAddress
p2079
V216.58.216.193
p2080
sVpageref
p2081
VGene Wilder
p2082
sVstartedDateTime
p2083
V2017-04-16T08:09:44.604-05:00
p2084
sVcache
p2085
(dp2086
sVrequest
p2087
(dp2088
Vcomment
p2089
g4
sVcookies
p2090
(lp2091
sVurl
p2092
Vhttps://cdn.ampproject.org/preconnect.gif?0.46556289253741834
p2093
sVqueryString
p2094
(lp2095
(dp2096
Vname
p2097
V0.46556289253741834
p2098
sVvalue
p2099
g4
sasVheaders
p2100
(lp2101
sVheadersSize
p2102
I376
sVbodySize
p2103
I0
sVmethod
p2104
VGET
p2105
sVhttpVersion
p2106
VHTTP/1.1
p2107
ssVtimings
p2108
(dp2109
Vcomment
p2110
g4
sVreceive
p2111
I0
sVsend
p2112
I0
sVssl
p2113
I-1
sVconnect
p2114
I-1
sVdns
p2115
I-1
sVwait
p2116
I36
sVblocked
p2117
I-1
ssVtime
p2118
I36
sVresponse
p2119
(dp2120
Vstatus
p2121
I200
sVcomment
p2122
g4
sVcookies
p2123
(lp2124
sVstatusText
p2125
VOK
p2126
sVcontent
p2127
(dp2128
VmimeType
p2129
Vimage/gif
p2130
sVcomment
p2131
g4
sVsize
p2132
I0
ssVheaders
p2133
(lp2134
sVheadersSize
p2135
I826
sVredirectURL
p2136
g4
sVbodySize
p2137
I37
sVhttpVersion
p2138
VHTTP/1.1
p2139
ssa(dp2140
Vcomment
p2141
g4
sVserverIPAddress
p2142
V216.58.216.196
p2143
sVpageref
p2144
VGene Wilder
p2145
sVstartedDateTime
p2146
V2017-04-16T08:09:44.613-05:00
p2147
sVcache
p2148
(dp2149
sVrequest
p2150
(dp2151
Vcomment
p2152
g4
sVcookies
p2153
(lp2154
sVurl
p2155
Vhttps://www.google.com/gen_204?atyp=i&ct=&cad=&vet=10ahUKEwi6s4mahqnTAhVM7oMKHRngBzQQvW4IkAEoCDAY..s&ei=FW3zWPrUMszcjwSZwJ-gAw&zx=1492348184546
p2156
sVqueryString
p2157
(lp2158
(dp2159
Vname
p2160
Vatyp
p2161
sVvalue
p2162
g30
sa(dp2163
Vname
p2164
Vct
p2165
sVvalue
p2166
g4
sa(dp2167
Vname
p2168
Vcad
p2169
sVvalue
p2170
g4
sa(dp2171
Vname
p2172
Vvet
p2173
sVvalue
p2174
V10ahUKEwi6s4mahqnTAhVM7oMKHRngBzQQvW4IkAEoCDAY..s
p2175
sa(dp2176
Vname
p2177
Vei
p2178
sVvalue
p2179
VFW3zWPrUMszcjwSZwJ-gAw
p2180
sa(dp2181
Vname
p2182
Vzx
p2183
sVvalue
p2184
V1492348184546
p2185
sasVheaders
p2186
(lp2187
sVheadersSize
p2188
I660
sVbodySize
p2189
I0
sVmethod
p2190
VGET
p2191
sVhttpVersion
p2192
VHTTP/1.1
p2193
ssVtimings
p2194
(dp2195
Vcomment
p2196
g4
sVreceive
p2197
I0
sVsend
p2198
I0
sVssl
p2199
I-1
sVconnect
p2200
I-1
sVdns
p2201
I-1
sVwait
p2202
I27
sVblocked
p2203
I-1
ssVtime
p2204
I28
sVresponse
p2205
(dp2206
Vstatus
p2207
I204
sVcomment
p2208
g4
sVcookies
p2209
(lp2210
sVstatusText
p2211
VNo Content
p2212
sVcontent
p2213
(dp2214
VmimeType
p2215
Vtext/html; charset=UTF-8
p2216
sVcomment
p2217
g4
sVsize
p2218
I0
ssVheaders
p2219
(lp2220
sVheadersSize
p2221
I248
sVredirectURL
p2222
g4
sVbodySize
p2223
I0
sVhttpVersion
p2224
VHTTP/1.1
p2225
ssa(dp2226
Vcomment
p2227
g4
sVserverIPAddress
p2228
V216.58.216.196
p2229
sVpageref
p2230
VGene Wilder
p2231
sVstartedDateTime
p2232
V2017-04-16T08:09:44.616-05:00
p2233
sVcache
p2234
(dp2235
sVrequest
p2236
(dp2237
Vcomment
p2238
g4
sVcookies
p2239
(lp2240
sVurl
p2241
Vhttps://www.google.com/async/ampfp?vet=10ahUKEwi6s4mahqnTAhVM7oMKHRngBzQQtZoBCJEC..i&ei=FW3zWPrUMszcjwSZwJ-gAw&yv=2&async=_id:ampfp-async,_pms:qs
p2242
sVqueryString
p2243
(lp2244
(dp2245
Vname
p2246
Vvet
p2247
sVvalue
p2248
V10ahUKEwi6s4mahqnTAhVM7oMKHRngBzQQtZoBCJEC..i
p2249
sa(dp2250
Vname
p2251
Vei
p2252
sVvalue
p2253
VFW3zWPrUMszcjwSZwJ-gAw
p2254
sa(dp2255
Vname
p2256
Vyv
p2257
sVvalue
p2258
g64
sa(dp2259
Vname
p2260
Vasync
p2261
sVvalue
p2262
V_id:ampfp-async,_pms:qs
p2263
sasVheaders
p2264
(lp2265
sVheadersSize
p2266
I662
sVbodySize
p2267
I0
sVmethod
p2268
VGET
p2269
sVhttpVersion
p2270
VHTTP/1.1
p2271
ssVtimings
p2272
(dp2273
Vcomment
p2274
g4
sVreceive
p2275
I2
sVsend
p2276
I0
sVssl
p2277
I-1
sVconnect
p2278
I-1
sVdns
p2279
I-1
sVwait
p2280
I40
sVblocked
p2281
I-1
ssVtime
p2282
I43
sVresponse
p2283
(dp2284
Vstatus
p2285
I200
sVcomment
p2286
g4
sVcookies
p2287
(lp2288
sVstatusText
p2289
VOK
p2290
sVcontent
p2291
(dp2292
VmimeType
p2293
Vtext/html; charset=UTF-8
p2294
sVcomment
p2295
g4
sVsize
p2296
I0
ssVheaders
p2297
(lp2298
sVheadersSize
p2299
I383
sVredirectURL
p2300
g4
sVbodySize
p2301
I4525
sVhttpVersion
p2302
VHTTP/1.1
p2303
ssa(dp2304
Vcomment
p2305
g4
sVserverIPAddress
p2306
V216.58.216.206
p2307
sVpageref
p2308
VGene Wilder
p2309
sVstartedDateTime
p2310
V2017-04-16T08:09:44.620-05:00
p2311
sVcache
p2312
(dp2313
sVrequest
p2314
(dp2315
Vcomment
p2316
g4
sVcookies
p2317
(lp2318
sVurl
p2319
Vhttps://encrypted-tbn2.gstatic.com/images?q=tbn:ANd9GcTZLaN-G--Ng810LgvqTVqYVJhR_Xk88HnyYAQS3yyR2RxKSLBzaR0wMBrG0Q
p2320
sVqueryString
p2321
(lp2322
(dp2323
Vname
p2324
g410
sVvalue
p2325
Vtbn:ANd9GcTZLaN-G--Ng810LgvqTVqYVJhR_Xk88HnyYAQS3yyR2RxKSLBzaR0wMBrG0Q
p2326
sasVheaders
p2327
(lp2328
sVheadersSize
p2329
I429
sVbodySize
p2330
I0
sVmethod
p2331
VGET
p2332
sVhttpVersion
p2333
VHTTP/1.1
p2334
ssVtimings
p2335
(dp2336
Vcomment
p2337
g4
sVreceive
p2338
I6
sVsend
p2339
I0
sVssl
p2340
I-1
sVconnect
p2341
I-1
sVdns
p2342
I-1
sVwait
p2343
I29
sVblocked
p2344
I-1
ssVtime
p2345
I36
sVresponse
p2346
(dp2347
Vstatus
p2348
I200
sVcomment
p2349
g4
sVcookies
p2350
(lp2351
sVstatusText
p2352
VOK
p2353
sVcontent
p2354
(dp2355
VmimeType
p2356
Vimage/jpeg
p2357
sVcomment
p2358
g4
sVsize
p2359
I0
ssVheaders
p2360
(lp2361
sVheadersSize
p2362
I415
sVredirectURL
p2363
g4
sVbodySize
p2364
I4637
sVhttpVersion
p2365
VHTTP/1.1
p2366
ssa(dp2367
Vcomment
p2368
g4
sVserverIPAddress
p2369
V216.58.216.206
p2370
sVpageref
p2371
VGene Wilder
p2372
sVstartedDateTime
p2373
V2017-04-16T08:09:44.621-05:00
p2374
sVcache
p2375
(dp2376
sVrequest
p2377
(dp2378
Vcomment
p2379
g4
sVcookies
p2380
(lp2381
sVurl
p2382
Vhttps://encrypted-tbn0.gstatic.com/images?q=tbn:ANd9GcTOvZy9_JFBTo-r9ic6y-lvzMKqUgwshjIiawJQvK7J_fKb2_RDAN4NwS8
p2383
sVqueryString
p2384
(lp2385
(dp2386
Vname
p2387
g410
sVvalue
p2388
Vtbn:ANd9GcTOvZy9_JFBTo-r9ic6y-lvzMKqUgwshjIiawJQvK7J_fKb2_RDAN4NwS8
p2389
sasVheaders
p2390
(lp2391
sVheadersSize
p2392
I426
sVbodySize
p2393
I0
sVmethod
p2394
VGET
p2395
sVhttpVersion
p2396
VHTTP/1.1
p2397
ssVtimings
p2398
(dp2399
Vcomment
p2400
g4
sVreceive
p2401
I0
sVsend
p2402
I0
sVssl
p2403
I-1
sVconnect
p2404
I-1
sVdns
p2405
I-1
sVwait
p2406
I18
sVblocked
p2407
I-1
ssVtime
p2408
I19
sVresponse
p2409
(dp2410
Vstatus
p2411
I200
sVcomment
p2412
g4
sVcookies
p2413
(lp2414
sVstatusText
p2415
VOK
p2416
sVcontent
p2417
(dp2418
VmimeType
p2419
Vimage/jpeg
p2420
sVcomment
p2421
g4
sVsize
p2422
I0
ssVheaders
p2423
(lp2424
sVheadersSize
p2425
I428
sVredirectURL
p2426
g4
sVbodySize
p2427
I3333
sVhttpVersion
p2428
VHTTP/1.1
p2429
ssa(dp2430
Vcomment
p2431
g4
sVserverIPAddress
p2432
V216.58.216.196
p2433
sVpageref
p2434
VGene Wilder
p2435
sVstartedDateTime
p2436
V2017-04-16T08:09:44.762-05:00
p2437
sVcache
p2438
(dp2439
sVrequest
p2440
(dp2441
Vcomment
p2442
g4
sVcookies
p2443
(lp2444
sVurl
p2445
Vhttps://www.google.com/async/log_amp_item_set?vet=10ahUKEwjyj_eahqnTAhVr6IMKHe0QCm0QooQBCAE..i&ei=FW3zWPrUMszcjwSZwJ-gAw&yv=2&async=num_items:1,_fmt:jspb
p2446
sVqueryString
p2447
(lp2448
(dp2449
Vname
p2450
Vvet
p2451
sVvalue
p2452
V10ahUKEwjyj_eahqnTAhVr6IMKHe0QCm0QooQBCAE..i
p2453
sa(dp2454
Vname
p2455
Vei
p2456
sVvalue
p2457
VFW3zWPrUMszcjwSZwJ-gAw
p2458
sa(dp2459
Vname
p2460
Vyv
p2461
sVvalue
p2462
g64
sa(dp2463
Vname
p2464
Vasync
p2465
sVvalue
p2466
Vnum_items:1,_fmt:jspb
p2467
sasVheaders
p2468
(lp2469
sVheadersSize
p2470
I670
sVbodySize
p2471
I0
sVmethod
p2472
VGET
p2473
sVhttpVersion
p2474
VHTTP/1.1
p2475
ssVtimings
p2476
(dp2477
Vcomment
p2478
g4
sVreceive
p2479
I0
sVsend
p2480
I0
sVssl
p2481
I-1
sVconnect
p2482
I-1
sVdns
p2483
I-1
sVwait
p2484
I36
sVblocked
p2485
I-1
ssVtime
p2486
I36
sVresponse
p2487
(dp2488
Vstatus
p2489
I200
sVcomment
p2490
g4
sVcookies
p2491
(lp2492
sVstatusText
p2493
VOK
p2494
sVcontent
p2495
(dp2496
VmimeType
p2497
Vapplication/json; charset=UTF-8
p2498
sVcomment
p2499
g4
sVsize
p2500
I0
ssVheaders
p2501
(lp2502
sVheadersSize
p2503
I417
sVredirectURL
p2504
g4
sVbodySize
p2505
I132
sVhttpVersion
p2506
VHTTP/1.1
p2507
ssa(dp2508
Vcomment
p2509
g4
sVserverIPAddress
p2510
V216.58.216.193
p2511
sVpageref
p2512
VGene Wilder
p2513
sVstartedDateTime
p2514
V2017-04-16T08:09:45.536-05:00
p2515
sVcache
p2516
(dp2517
sVrequest
p2518
(dp2519
Vcomment
p2520
g4
sVcookies
p2521
(lp2522
sVurl
p2523
Vhttps://mobile-nytimes-com.cdn.ampproject.org/v/s/mobile.nytimes.com/2016/08/30/movies/gene-wilder-dead.amp.html?amp_js_v=9
p2524
sVqueryString
p2525
(lp2526
(dp2527
Vname
p2528
Vamp_js_v
p2529
sVvalue
p2530
V9
p2531
sasVheaders
p2532
(lp2533
sVheadersSize
p2534
I528
sVbodySize
p2535
I0
sVmethod
p2536
VGET
p2537
sVhttpVersion
p2538
VHTTP/1.1
p2539
ssVtimings
p2540
(dp2541
Vcomment
p2542
g4
sVreceive
p2543
I4
sVsend
p2544
I0
sVssl
p2545
I702
sVconnect
p2546
I734
sVdns
p2547
I30
sVwait
p2548
I81
sVblocked
p2549
I0
ssVtime
p2550
I851
sVresponse
p2551
(dp2552
Vstatus
p2553
I200
sVcomment
p2554
g4
sVcookies
p2555
(lp2556
sVstatusText
p2557
VOK
p2558
sVcontent
p2559
(dp2560
VmimeType
p2561
Vtext/html
p2562
sVcomment
p2563
g4
sVsize
p2564
I0
ssVheaders
p2565
(lp2566
sVheadersSize
p2567
I862
sVredirectURL
p2568
g4
sVbodySize
p2569
I13397
sVhttpVersion
p2570
VHTTP/1.1
p2571
ssa(dp2572
Vcomment
p2573
g4
sVserverIPAddress
p2574
V216.58.216.193
p2575
sVpageref
p2576
VGene Wilder
p2577
sVstartedDateTime
p2578
V2017-04-16T08:09:46.041-05:00
p2579
sVcache
p2580
(dp2581
sVrequest
p2582
(dp2583
Vcomment
p2584
g4
sVcookies
p2585
(lp2586
sVurl
p2587
Vhttps://cdn1-nyt-com.cdn.ampproject.org/i/s/cdn1.nyt.com/mw-static/images/growl-x-button-2x.png
p2588
sVqueryString
p2589
(lp2590
sVheaders
p2591
(lp2592
sVheadersSize
p2593
I510
sVbodySize
p2594
I0
sVmethod
p2595
VGET
p2596
sVhttpVersion
p2597
VHTTP/1.1
p2598
ssVtimings
p2599
(dp2600
Vcomment
p2601
g4
sVreceive
p2602
I0
sVsend
p2603
I0
sVssl
p2604
I262
sVconnect
p2605
I329
sVdns
p2606
I44
sVwait
p2607
I26
sVblocked
p2608
I0
ssVtime
p2609
I399
sVresponse
p2610
(dp2611
Vstatus
p2612
I200
sVcomment
p2613
g4
sVcookies
p2614
(lp2615
sVstatusText
p2616
VOK
p2617
sVcontent
p2618
(dp2619
VmimeType
p2620
Vimage/png
p2621
sVcomment
p2622
g4
sVsize
p2623
I0
ssVheaders
p2624
(lp2625
sVheadersSize
p2626
I823
sVredirectURL
p2627
g4
sVbodySize
p2628
I200
sVhttpVersion
p2629
VHTTP/1.1
p2630
ssa(dp2631
Vcomment
p2632
g4
sVserverIPAddress
p2633
V216.58.216.193
p2634
sVpageref
p2635
VGene Wilder
p2636
sVstartedDateTime
p2637
V2017-04-16T08:09:46.042-05:00
p2638
sVcache
p2639
(dp2640
sVrequest
p2641
(dp2642
Vcomment
p2643
g4
sVcookies
p2644
(lp2645
sVurl
p2646
Vhttps://cdn1-nyt-com.cdn.ampproject.org/i/s/cdn1.nyt.com/mw-static/images/sprite-2x.png
p2647
sVqueryString
p2648
(lp2649
sVheaders
p2650
(lp2651
sVheadersSize
p2652
I502
sVbodySize
p2653
I0
sVmethod
p2654
VGET
p2655
sVhttpVersion
p2656
VHTTP/1.1
p2657
ssVtimings
p2658
(dp2659
Vcomment
p2660
g4
sVreceive
p2661
I27
sVsend
p2662
I0
sVssl
p2663
I270
sVconnect
p2664
I332
sVdns
p2665
I52
sVwait
p2666
I34
sVblocked
p2667
I0
ssVtime
p2668
I446
sVresponse
p2669
(dp2670
Vstatus
p2671
I200
sVcomment
p2672
g4
sVcookies
p2673
(lp2674
sVstatusText
p2675
VOK
p2676
sVcontent
p2677
(dp2678
VmimeType
p2679
Vimage/png
p2680
sVcomment
p2681
g4
sVsize
p2682
I0
ssVheaders
p2683
(lp2684
sVheadersSize
p2685
I825
sVredirectURL
p2686
g4
sVbodySize
p2687
I51894
sVhttpVersion
p2688
VHTTP/1.1
p2689
ssa(dp2690
Vcomment
p2691
g4
sVserverIPAddress
p2692
V216.58.216.193
p2693
sVpageref
p2694
VGene Wilder
p2695
sVstartedDateTime
p2696
V2017-04-16T08:09:46.045-05:00
p2697
sVcache
p2698
(dp2699
sVrequest
p2700
(dp2701
Vcomment
p2702
g4
sVcookies
p2703
(lp2704
sVurl
p2705
Vhttps://cdn1-nyt-com.cdn.ampproject.org/i/s/cdn1.nyt.com/mw-static/images/icon-share-fb-circle.png
p2706
sVqueryString
p2707
(lp2708
sVheaders
p2709
(lp2710
sVheadersSize
p2711
I513
sVbodySize
p2712
I0
sVmethod
p2713
VGET
p2714
sVhttpVersion
p2715
VHTTP/1.1
p2716
ssVtimings
p2717
(dp2718
Vcomment
p2719
g4
sVreceive
p2720
I0
sVsend
p2721
I0
sVssl
p2722
I268
sVconnect
p2723
I334
sVdns
p2724
I52
sVwait
p2725
I30
sVblocked
p2726
I0
ssVtime
p2727
I417
sVresponse
p2728
(dp2729
Vstatus
p2730
I200
sVcomment
p2731
g4
sVcookies
p2732
(lp2733
sVstatusText
p2734
VOK
p2735
sVcontent
p2736
(dp2737
VmimeType
p2738
Vimage/png
p2739
sVcomment
p2740
g4
sVsize
p2741
I0
ssVheaders
p2742
(lp2743
sVheadersSize
p2744
I823
sVredirectURL
p2745
g4
sVbodySize
p2746
I470
sVhttpVersion
p2747
VHTTP/1.1
p2748
ssa(dp2749
Vcomment
p2750
g4
sVserverIPAddress
p2751
V216.58.216.193
p2752
sVpageref
p2753
VGene Wilder
p2754
sVstartedDateTime
p2755
V2017-04-16T08:09:46.045-05:00
p2756
sVcache
p2757
(dp2758
sVrequest
p2759
(dp2760
Vcomment
p2761
g4
sVcookies
p2762
(lp2763
sVurl
p2764
Vhttps://cdn1-nyt-com.cdn.ampproject.org/i/s/cdn1.nyt.com/mw-static/images/icon-share-email-circle.png
p2765
sVqueryString
p2766
(lp2767
sVheaders
p2768
(lp2769
sVheadersSize
p2770
I516
sVbodySize
p2771
I0
sVmethod
p2772
VGET
p2773
sVhttpVersion
p2774
VHTTP/1.1
p2775
ssVtimings
p2776
(dp2777
Vcomment
p2778
g4
sVreceive
p2779
I0
sVsend
p2780
I0
sVssl
p2781
I270
sVconnect
p2782
I335
sVdns
p2783
I46
sVwait
p2784
I28
sVblocked
p2785
I0
ssVtime
p2786
I411
sVresponse
p2787
(dp2788
Vstatus
p2789
I200
sVcomment
p2790
g4
sVcookies
p2791
(lp2792
sVstatusText
p2793
VOK
p2794
sVcontent
p2795
(dp2796
VmimeType
p2797
Vimage/png
p2798
sVcomment
p2799
g4
sVsize
p2800
I0
ssVheaders
p2801
(lp2802
sVheadersSize
p2803
I823
sVredirectURL
p2804
g4
sVbodySize
p2805
I594
sVhttpVersion
p2806
VHTTP/1.1
p2807
ssa(dp2808
Vcomment
p2809
g4
sVserverIPAddress
p2810
V216.58.216.193
p2811
sVpageref
p2812
VGene Wilder
p2813
sVstartedDateTime
p2814
V2017-04-16T08:09:46.045-05:00
p2815
sVcache
p2816
(dp2817
sVrequest
p2818
(dp2819
Vcomment
p2820
g4
sVcookies
p2821
(lp2822
sVurl
p2823
Vhttps://cdn1-nyt-com.cdn.ampproject.org/i/s/cdn1.nyt.com/mw-static/images/growl-valueprop-icon-1-2x.png
p2824
sVqueryString
p2825
(lp2826
sVheaders
p2827
(lp2828
sVheadersSize
p2829
I518
sVbodySize
p2830
I0
sVmethod
p2831
VGET
p2832
sVhttpVersion
p2833
VHTTP/1.1
p2834
ssVtimings
p2835
(dp2836
Vcomment
p2837
g4
sVreceive
p2838
I0
sVsend
p2839
I0
sVssl
p2840
I275
sVconnect
p2841
I338
sVdns
p2842
I43
sVwait
p2843
I29
sVblocked
p2844
I0
ssVtime
p2845
I411
sVresponse
p2846
(dp2847
Vstatus
p2848
I200
sVcomment
p2849
g4
sVcookies
p2850
(lp2851
sVstatusText
p2852
VOK
p2853
sVcontent
p2854
(dp2855
VmimeType
p2856
Vimage/png
p2857
sVcomment
p2858
g4
sVsize
p2859
I0
ssVheaders
p2860
(lp2861
sVheadersSize
p2862
I824
sVredirectURL
p2863
g4
sVbodySize
p2864
I2448
sVhttpVersion
p2865
VHTTP/1.1
p2866
ssa(dp2867
Vcomment
p2868
g4
sVserverIPAddress
p2869
V216.58.216.193
p2870
sVpageref
p2871
VGene Wilder
p2872
sVstartedDateTime
p2873
V2017-04-16T08:09:46.049-05:00
p2874
sVcache
p2875
(dp2876
sVrequest
p2877
(dp2878
Vcomment
p2879
g4
sVcookies
p2880
(lp2881
sVurl
p2882
Vhttps://cdn1-nyt-com.cdn.ampproject.org/i/s/cdn1.nyt.com/mw-static/images/icon-share-twitter-circle.png
p2883
sVqueryString
p2884
(lp2885
sVheaders
p2886
(lp2887
sVheadersSize
p2888
I518
sVbodySize
p2889
I0
sVmethod
p2890
VGET
p2891
sVhttpVersion
p2892
VHTTP/1.1
p2893
ssVtimings
p2894
(dp2895
Vcomment
p2896
g4
sVreceive
p2897
I0
sVsend
p2898
I0
sVssl
p2899
I277
sVconnect
p2900
I343
sVdns
p2901
I49
sVwait
p2902
I26
sVblocked
p2903
I0
ssVtime
p2904
I420
sVresponse
p2905
(dp2906
Vstatus
p2907
I200
sVcomment
p2908
g4
sVcookies
p2909
(lp2910
sVstatusText
p2911
VOK
p2912
sVcontent
p2913
(dp2914
VmimeType
p2915
Vimage/png
p2916
sVcomment
p2917
g4
sVsize
p2918
I0
ssVheaders
p2919
(lp2920
sVheadersSize
p2921
I823
sVredirectURL
p2922
g4
sVbodySize
p2923
I551
sVhttpVersion
p2924
VHTTP/1.1
p2925
ssa(dp2926
Vcomment
p2927
g4
sVserverIPAddress
p2928
V216.58.216.193
p2929
sVpageref
p2930
VGene Wilder
p2931
sVstartedDateTime
p2932
V2017-04-16T08:09:46.071-05:00
p2933
sVcache
p2934
(dp2935
sVrequest
p2936
(dp2937
Vcomment
p2938
g4
sVcookies
p2939
(lp2940
sVurl
p2941
Vhttps://cdn1-nyt-com.cdn.ampproject.org/ii/w1200/s/cdn1.nyt.com/images/2016/08/29/obituaries/20160830-wilder-obituary-slide-OVIH/20160830-wilder-obituary-slide-OVIH-articleLarge.jpg
p2942
sVqueryString
p2943
(lp2944
sVheaders
p2945
(lp2946
sVheadersSize
p2947
I596
sVbodySize
p2948
I0
sVmethod
p2949
VGET
p2950
sVhttpVersion
p2951
VHTTP/1.1
p2952
ssVtimings
p2953
(dp2954
Vcomment
p2955
g4
sVreceive
p2956
I20
sVsend
p2957
I0
sVssl
p2958
I-1
sVconnect
p2959
I-1
sVdns
p2960
I-1
sVwait
p2961
I54
sVblocked
p2962
I-1
ssVtime
p2963
I75
sVresponse
p2964
(dp2965
Vstatus
p2966
I200
sVcomment
p2967
g4
sVcookies
p2968
(lp2969
sVstatusText
p2970
VOK
p2971
sVcontent
p2972
(dp2973
VmimeType
p2974
Vimage/jpeg
p2975
sVcomment
p2976
g4
sVsize
p2977
I0
ssVheaders
p2978
(lp2979
sVheadersSize
p2980
I848
sVredirectURL
p2981
g4
sVbodySize
p2982
I45130
sVhttpVersion
p2983
VHTTP/1.1
p2984
ssa(dp2985
Vcomment
p2986
g4
sVserverIPAddress
p2987
V216.58.216.193
p2988
sVpageref
p2989
VGene Wilder
p2990
sVstartedDateTime
p2991
V2017-04-16T08:09:46.076-05:00
p2992
sVcache
p2993
(dp2994
sVrequest
p2995
(dp2996
Vcomment
p2997
g4
sVcookies
p2998
(lp2999
sVurl
p3000
Vhttps://cdn1-nyt-com.cdn.ampproject.org/i/s/cdn1.nyt.com/mw-static/images/growl-valueprop-icon-2-2x.png
p3001
sVqueryString
p3002
(lp3003
sVheaders
p3004
(lp3005
sVheadersSize
p3006
I518
sVbodySize
p3007
I0
sVmethod
p3008
VGET
p3009
sVhttpVersion
p3010
VHTTP/1.1
p3011
ssVtimings
p3012
(dp3013
Vcomment
p3014
g4
sVreceive
p3015
I0
sVsend
p3016
I0
sVssl
p3017
I-1
sVconnect
p3018
I-1
sVdns
p3019
I-1
sVwait
p3020
I29
sVblocked
p3021
I-1
ssVtime
p3022
I29
sVresponse
p3023
(dp3024
Vstatus
p3025
I200
sVcomment
p3026
g4
sVcookies
p3027
(lp3028
sVstatusText
p3029
VOK
p3030
sVcontent
p3031
(dp3032
VmimeType
p3033
Vimage/png
p3034
sVcomment
p3035
g4
sVsize
p3036
I0
ssVheaders
p3037
(lp3038
sVheadersSize
p3039
I824
sVredirectURL
p3040
g4
sVbodySize
p3041
I2679
sVhttpVersion
p3042
VHTTP/1.1
p3043
ssa(dp3044
Vcomment
p3045
g4
sVserverIPAddress
p3046
V216.58.216.193
p3047
sVpageref
p3048
VGene Wilder
p3049
sVstartedDateTime
p3050
V2017-04-16T08:09:46.077-05:00
p3051
sVcache
p3052
(dp3053
sVrequest
p3054
(dp3055
Vcomment
p3056
g4
sVcookies
p3057
(lp3058
sVurl
p3059
Vhttps://cdn1-nyt-com.cdn.ampproject.org/i/s/cdn1.nyt.com/mw-static/images/growl-valueprop-icon-3-2x.png
p3060
sVqueryString
p3061
(lp3062
sVheaders
p3063
(lp3064
sVheadersSize
p3065
I518
sVbodySize
p3066
I0
sVmethod
p3067
VGET
p3068
sVhttpVersion
p3069
VHTTP/1.1
p3070
ssVtimings
p3071
(dp3072
Vcomment
p3073
g4
sVreceive
p3074
I0
sVsend
p3075
I0
sVssl
p3076
I-1
sVconnect
p3077
I-1
sVdns
p3078
I-1
sVwait
p3079
I26
sVblocked
p3080
I-1
ssVtime
p3081
I27
sVresponse
p3082
(dp3083
Vstatus
p3084
I200
sVcomment
p3085
g4
sVcookies
p3086
(lp3087
sVstatusText
p3088
VOK
p3089
sVcontent
p3090
(dp3091
VmimeType
p3092
Vimage/png
p3093
sVcomment
p3094
g4
sVsize
p3095
I0
ssVheaders
p3096
(lp3097
sVheadersSize
p3098
I824
sVredirectURL
p3099
g4
sVbodySize
p3100
I1865
sVhttpVersion
p3101
VHTTP/1.1
p3102
ssa(dp3103
Vcomment
p3104
g4
sVserverIPAddress
p3105
V216.58.216.193
p3106
sVpageref
p3107
VGene Wilder
p3108
sVstartedDateTime
p3109
V2017-04-16T08:09:46.080-05:00
p3110
sVcache
p3111
(dp3112
sVrequest
p3113
(dp3114
Vcomment
p3115
g4
sVcookies
p3116
(lp3117
sVurl
p3118
Vhttps://cdn1-nyt-com.cdn.ampproject.org/i/s/cdn1.nyt.com/mw-static/images/growl-valueprop-icon-4-2x.png
p3119
sVqueryString
p3120
(lp3121
sVheaders
p3122
(lp3123
sVheadersSize
p3124
I518
sVbodySize
p3125
I0
sVmethod
p3126
VGET
p3127
sVhttpVersion
p3128
VHTTP/1.1
p3129
ssVtimings
p3130
(dp3131
Vcomment
p3132
g4
sVreceive
p3133
I0
sVsend
p3134
I0
sVssl
p3135
I-1
sVconnect
p3136
I-1
sVdns
p3137
I-1
sVwait
p3138
I33
sVblocked
p3139
I-1
ssVtime
p3140
I34
sVresponse
p3141
(dp3142
Vstatus
p3143
I200
sVcomment
p3144
g4
sVcookies
p3145
(lp3146
sVstatusText
p3147
VOK
p3148
sVcontent
p3149
(dp3150
VmimeType
p3151
Vimage/png
p3152
sVcomment
p3153
g4
sVsize
p3154
I0
ssVheaders
p3155
(lp3156
sVheadersSize
p3157
I824
sVredirectURL
p3158
g4
sVbodySize
p3159
I2509
sVhttpVersion
p3160
VHTTP/1.1
p3161
ssa(dp3162
Vcomment
p3163
g4
sVserverIPAddress
p3164
V216.58.216.196
p3165
sVpageref
p3166
VGene Wilder
p3167
sVstartedDateTime
p3168
V2017-04-16T08:09:46.571-05:00
p3169
sVcache
p3170
(dp3171
sVrequest
p3172
(dp3173
Vcomment
p3174
g4
sVcookies
p3175
(lp3176
sVurl
p3177
Vhttps://www.google.com/gen_204?atyp=i&ct=slh&cad=&ei=Am3zWMWlM6i0jwTkz5GACg&m=V&t=C&s=1&v=2&pv=0.8248374213702722&me=1:1492348165637,x:1,V,0,0,1280,944:0,N,1,Am3zWMWlM6i0jwTkz5GACg:0,R,1,24,8,155,1249,685:0,R,1,31,8,337,1249,317:0,R,1,32,0,338,1265,336:0,R,1,42,8,654,1249,186:0,R,1,104,24,850,1217,199:2,B,2942:16649,e,U&zx=1492348186570
p3178
sVqueryString
p3179
(lp3180
(dp3181
Vname
p3182
Vatyp
p3183
sVvalue
p3184
g30
sa(dp3185
Vname
p3186
Vct
p3187
sVvalue
p3188
Vslh
p3189
sa(dp3190
Vname
p3191
Vcad
p3192
sVvalue
p3193
g4
sa(dp3194
Vname
p3195
Vei
p3196
sVvalue
p3197
VAm3zWMWlM6i0jwTkz5GACg
p3198
sa(dp3199
Vname
p3200
g47
sVvalue
p3201
g49
sa(dp3202
Vname
p3203
g52
sVvalue
p3204
g54
sa(dp3205
Vname
p3206
g57
sVvalue
p3207
g59
sa(dp3208
Vname
p3209
g62
sVvalue
p3210
g64
sa(dp3211
Vname
p3212
Vpv
p3213
sVvalue
p3214
V0.8248374213702722
p3215
sa(dp3216
Vname
p3217
Vme
p3218
sVvalue
p3219
V1:1492348165637,x:1,V,0,0,1280,944:0,N,1,Am3zWMWlM6i0jwTkz5GACg:0,R,1,24,8,155,1249,685:0,R,1,31,8,337,1249,317:0,R,1,32,0,338,1265,336:0,R,1,42,8,654,1249,186:0,R,1,104,24,850,1217,199:2,B,2942:16649,e,U
p3220
sa(dp3221
Vname
p3222
Vzx
p3223
sVvalue
p3224
V1492348186570
p3225
sasVheaders
p3226
(lp3227
sVheadersSize
p3228
I855
sVbodySize
p3229
I0
sVmethod
p3230
VGET
p3231
sVhttpVersion
p3232
VHTTP/1.1
p3233
ssVtimings
p3234
(dp3235
Vcomment
p3236
g4
sVreceive
p3237
I0
sVsend
p3238
I0
sVssl
p3239
I-1
sVconnect
p3240
I-1
sVdns
p3241
I-1
sVwait
p3242
I32
sVblocked
p3243
I-1
ssVtime
p3244
I33
sVresponse
p3245
(dp3246
Vstatus
p3247
I204
sVcomment
p3248
g4
sVcookies
p3249
(lp3250
sVstatusText
p3251
VNo Content
p3252
sVcontent
p3253
(dp3254
VmimeType
p3255
Vtext/html; charset=UTF-8
p3256
sVcomment
p3257
g4
sVsize
p3258
I0
ssVheaders
p3259
(lp3260
sVheadersSize
p3261
I248
sVredirectURL
p3262
g4
sVbodySize
p3263
I0
sVhttpVersion
p3264
VHTTP/1.1
p3265
ssa(dp3266
Vcomment
p3267
g4
sVserverIPAddress
p3268
V216.58.216.193
p3269
sVpageref
p3270
VGene Wilder
p3271
sVstartedDateTime
p3272
V2017-04-16T08:09:47.388-05:00
p3273
sVcache
p3274
(dp3275
sVrequest
p3276
(dp3277
Vcomment
p3278
g4
sVcookies
p3279
(lp3280
sVurl
p3281
Vhttps://typeface-nytimes-com.cdn.ampproject.org/r/s/typeface.nytimes.com/fonts/nyt-franklin-700-normal.woff
p3282
sVqueryString
p3283
(lp3284
sVheaders
p3285
(lp3286
sVheadersSize
p3287
I631
sVbodySize
p3288
I0
sVmethod
p3289
VGET
p3290
sVhttpVersion
p3291
VHTTP/1.1
p3292
ssVtimings
p3293
(dp3294
Vcomment
p3295
g4
sVreceive
p3296
I24
sVsend
p3297
I0
sVssl
p3298
I1369
sVconnect
p3299
I1388
sVdns
p3300
I334
sVwait
p3301
I26
sVblocked
p3302
I0
ssVtime
p3303
I1773
sVresponse
p3304
(dp3305
Vstatus
p3306
I200
sVcomment
p3307
g4
sVcookies
p3308
(lp3309
sVstatusText
p3310
VOK
p3311
sVcontent
p3312
(dp3313
VmimeType
p3314
Vapplication/font-woff
p3315
sVcomment
p3316
g4
sVsize
p3317
I0
ssVheaders
p3318
(lp3319
sVheadersSize
p3320
I867
sVredirectURL
p3321
g4
sVbodySize
p3322
I29504
sVhttpVersion
p3323
VHTTP/1.1
p3324
ssa(dp3325
Vcomment
p3326
g4
sVserverIPAddress
p3327
V216.58.216.193
p3328
sVpageref
p3329
VGene Wilder
p3330
sVstartedDateTime
p3331
V2017-04-16T08:09:47.395-05:00
p3332
sVcache
p3333
(dp3334
sVrequest
p3335
(dp3336
Vcomment
p3337
g4
sVcookies
p3338
(lp3339
sVurl
p3340
Vhttps://typeface-nytimes-com.cdn.ampproject.org/r/s/typeface.nytimes.com/fonts/nyt-cheltenham-500-normal.woff
p3341
sVqueryString
p3342
(lp3343
sVheaders
p3344
(lp3345
sVheadersSize
p3346
I633
sVbodySize
p3347
I0
sVmethod
p3348
VGET
p3349
sVhttpVersion
p3350
VHTTP/1.1
p3351
ssVtimings
p3352
(dp3353
Vcomment
p3354
g4
sVreceive
p3355
I21
sVsend
p3356
I0
sVssl
p3357
I1371
sVconnect
p3358
I1390
sVdns
p3359
I293
sVwait
p3360
I32
sVblocked
p3361
I0
ssVtime
p3362
I1738
sVresponse
p3363
(dp3364
Vstatus
p3365
I200
sVcomment
p3366
g4
sVcookies
p3367
(lp3368
sVstatusText
p3369
VOK
p3370
sVcontent
p3371
(dp3372
VmimeType
p3373
Vapplication/font-woff
p3374
sVcomment
p3375
g4
sVsize
p3376
I0
ssVheaders
p3377
(lp3378
sVheadersSize
p3379
I867
sVredirectURL
p3380
g4
sVbodySize
p3381
I32532
sVhttpVersion
p3382
VHTTP/1.1
p3383
ssa(dp3384
Vcomment
p3385
g4
sVserverIPAddress
p3386
V216.58.216.193
p3387
sVpageref
p3388
VGene Wilder
p3389
sVstartedDateTime
p3390
V2017-04-16T08:09:47.395-05:00
p3391
sVcache
p3392
(dp3393
sVrequest
p3394
(dp3395
Vcomment
p3396
g4
sVcookies
p3397
(lp3398
sVurl
p3399
Vhttps://typeface-nytimes-com.cdn.ampproject.org/r/s/typeface.nytimes.com/fonts/nyt-franklin-500-normal.woff
p3400
sVqueryString
p3401
(lp3402
sVheaders
p3403
(lp3404
sVheadersSize
p3405
I631
sVbodySize
p3406
I0
sVmethod
p3407
VGET
p3408
sVhttpVersion
p3409
VHTTP/1.1
p3410
ssVtimings
p3411
(dp3412
Vcomment
p3413
g4
sVreceive
p3414
I20
sVsend
p3415
I0
sVssl
p3416
I1377
sVconnect
p3417
I1394
sVdns
p3418
I324
sVwait
p3419
I34
sVblocked
p3420
I0
ssVtime
p3421
I1774
sVresponse
p3422
(dp3423
Vstatus
p3424
I200
sVcomment
p3425
g4
sVcookies
p3426
(lp3427
sVstatusText
p3428
VOK
p3429
sVcontent
p3430
(dp3431
VmimeType
p3432
Vapplication/font-woff
p3433
sVcomment
p3434
g4
sVsize
p3435
I0
ssVheaders
p3436
(lp3437
sVheadersSize
p3438
I867
sVredirectURL
p3439
g4
sVbodySize
p3440
I29324
sVhttpVersion
p3441
VHTTP/1.1
p3442
ssa(dp3443
Vcomment
p3444
g4
sVserverIPAddress
p3445
V216.58.216.193
p3446
sVpageref
p3447
VGene Wilder
p3448
sVstartedDateTime
p3449
V2017-04-16T08:09:47.397-05:00
p3450
sVcache
p3451
(dp3452
sVrequest
p3453
(dp3454
Vcomment
p3455
g4
sVcookies
p3456
(lp3457
sVurl
p3458
Vhttps://typeface-nytimes-com.cdn.ampproject.org/r/s/typeface.nytimes.com/fonts/nyt-franklin-300-normal.woff
p3459
sVqueryString
p3460
(lp3461
sVheaders
p3462
(lp3463
sVheadersSize
p3464
I631
sVbodySize
p3465
I0
sVmethod
p3466
VGET
p3467
sVhttpVersion
p3468
VHTTP/1.1
p3469
ssVtimings
p3470
(dp3471
Vcomment
p3472
g4
sVreceive
p3473
I21
sVsend
p3474
I0
sVssl
p3475
I1378
sVconnect
p3476
I1396
sVdns
p3477
I293
sVwait
p3478
I26
sVblocked
p3479
I0
ssVtime
p3480
I1738
sVresponse
p3481
(dp3482
Vstatus
p3483
I200
sVcomment
p3484
g4
sVcookies
p3485
(lp3486
sVstatusText
p3487
VOK
p3488
sVcontent
p3489
(dp3490
VmimeType
p3491
Vapplication/font-woff
p3492
sVcomment
p3493
g4
sVsize
p3494
I0
ssVheaders
p3495
(lp3496
sVheadersSize
p3497
I867
sVredirectURL
p3498
g4
sVbodySize
p3499
I29448
sVhttpVersion
p3500
VHTTP/1.1
p3501
ssa(dp3502
Vcomment
p3503
g4
sVserverIPAddress
p3504
V216.58.216.196
p3505
sVpageref
p3506
VGene Wilder
p3507
sVstartedDateTime
p3508
V2017-04-16T08:09:47.471-05:00
p3509
sVcache
p3510
(dp3511
sVrequest
p3512
(dp3513
Vcomment
p3514
g4
sVcookies
p3515
(lp3516
sVurl
p3517
Vhttps://www.google.com/gen_204?s=web&atyp=csi&ei=FW3zWPrUMszcjwSZwJ-gAw&imc=43&imn=43&imp=22&adh=&xjs=init.37.14.sb_mob.29.dvl.3.c.1.mbsf.1.jsa.1&ima=22&rt=prt.819,iml.979,xjsls.821,dcl.917,xjses.1032,xjsee.1192,xjs.1192,qiml.1887,ol.4540,aft.979,wsrt.97,cst.0,dnst.0,rqst.870,rspt.783,rqstt.2,unt.2,cstt.2,dit.962
p3518
sVqueryString
p3519
(lp3520
(dp3521
Vname
p3522
g57
sVvalue
p3523
Vweb
p3524
sa(dp3525
Vname
p3526
Vatyp
p3527
sVvalue
p3528
Vcsi
p3529
sa(dp3530
Vname
p3531
Vei
p3532
sVvalue
p3533
VFW3zWPrUMszcjwSZwJ-gAw
p3534
sa(dp3535
Vname
p3536
Vimc
p3537
sVvalue
p3538
V43
p3539
sa(dp3540
Vname
p3541
Vimn
p3542
sVvalue
p3543
V43
p3544
sa(dp3545
Vname
p3546
Vimp
p3547
sVvalue
p3548
V22
p3549
sa(dp3550
Vname
p3551
Vadh
p3552
sVvalue
p3553
g4
sa(dp3554
Vname
p3555
Vxjs
p3556
sVvalue
p3557
Vinit.37.14.sb_mob.29.dvl.3.c.1.mbsf.1.jsa.1
p3558
sa(dp3559
Vname
p3560
Vima
p3561
sVvalue
p3562
V22
p3563
sa(dp3564
Vname
p3565
Vrt
p3566
sVvalue
p3567
Vprt.819,iml.979,xjsls.821,dcl.917,xjses.1032,xjsee.1192,xjs.1192,qiml.1887,ol.4540,aft.979,wsrt.97,cst.0,dnst.0,rqst.870,rspt.783,rqstt.2,unt.2,cstt.2,dit.962
p3568
sasVheaders
p3569
(lp3570
sVheadersSize
p3571
I831
sVbodySize
p3572
I0
sVmethod
p3573
VGET
p3574
sVhttpVersion
p3575
VHTTP/1.1
p3576
ssVtimings
p3577
(dp3578
Vcomment
p3579
g4
sVreceive
p3580
I0
sVsend
p3581
I0
sVssl
p3582
I-1
sVconnect
p3583
I-1
sVdns
p3584
I-1
sVwait
p3585
I36
sVblocked
p3586
I-1
ssVtime
p3587
I36
sVresponse
p3588
(dp3589
Vstatus
p3590
I204
sVcomment
p3591
g4
sVcookies
p3592
(lp3593
sVstatusText
p3594
VNo Content
p3595
sVcontent
p3596
(dp3597
VmimeType
p3598
Vtext/html; charset=UTF-8
p3599
sVcomment
p3600
g4
sVsize
p3601
I0
ssVheaders
p3602
(lp3603
sVheadersSize
p3604
I248
sVredirectURL
p3605
g4
sVbodySize
p3606
I0
sVhttpVersion
p3607
VHTTP/1.1
p3608
ssasVversion
p3609
V1.2
p3610
sVpages
p3611
(lp3612
(dp3613
VpageTimings
p3614
(dp3615
Vcomment
p3616
g4
ssVcomment
p3617
g4
sVtitle
p3618
VGene Wilder
p3619
sVid
p3620
VGene Wilder
p3621
sVstartedDateTime
p3622
V2017-04-16T08:09:42.282-05:00
p3623
sasVcreator
p3624
(dp3625
Vcomment
p3626
g4
sVversion
p3627
V2.1.4
p3628
sVname
p3629
VBrowserMob Proxy
p3630
sss.