(dp0
Vlog
p1
(dp2
Vcomment
p3
V
p4
sVentries
p5
(lp6
(dp7
Vcomment
p8
g4
sVserverIPAddress
p9
V216.58.216.196
p10
sVpageref
p11
VCarrie Fisher
p12
sVstartedDateTime
p13
V2017-04-16T08:08:02.018-05:00
p14
sVcache
p15
(dp16
sVrequest
p17
(dp18
Vcomment
p19
g4
sVcookies
p20
(lp21
sVurl
p22
Vhttps://www.google.com/gen_204?atyp=i&ct=slh&cad=&ei=mmzzWIXoM6L-jwS0mLGoCA&m=V&t=C&s=1&v=2&pv=0.9730860762778989&me=1:1492348061394,x:10,V,0,0,1280,944:0,N,1,mmzzWIXoM6L-jwS0mLGoCA:0,R,1,24,8,155,1249,458:0,R,1,25,8,155,1249,458:0,R,1,29,8,168,1249,40:0,R,1,47,8,267,1249,178:0,R,1,50,0,283,1265,197:0,R,1,90,8,462,1249,20:0,R,1,91,24,462,1217,20:0,R,1,97,8,498,1249,20:0,R,1,104,8,526,1249,20:0,R,1,182,8,623,1249,201:0,R,1,183,24,623,1217,190:0,R,1,191,8,834,1249,201:0,R,1,192,24,834,1217,190:1,B,3987:20611,e,U&zx=1492348082017
p23
sVqueryString
p24
(lp25
(dp26
Vname
p27
Vatyp
p28
sVvalue
p29
Vi
p30
sa(dp31
Vname
p32
Vct
p33
sVvalue
p34
Vslh
p35
sa(dp36
Vname
p37
Vcad
p38
sVvalue
p39
g4
sa(dp40
Vname
p41
Vei
p42
sVvalue
p43
VmmzzWIXoM6L-jwS0mLGoCA
p44
sa(dp45
Vname
p46
Vm
p47
sVvalue
p48
VV
p49
sa(dp50
Vname
p51
Vt
p52
sVvalue
p53
VC
p54
sa(dp55
Vname
p56
Vs
p57
sVvalue
p58
V1
p59
sa(dp60
Vname
p61
Vv
p62
sVvalue
p63
V2
p64
sa(dp65
Vname
p66
Vpv
p67
sVvalue
p68
V0.9730860762778989
p69
sa(dp70
Vname
p71
Vme
p72
sVvalue
p73
V1:1492348061394,x:10,V,0,0,1280,944:0,N,1,mmzzWIXoM6L-jwS0mLGoCA:0,R,1,24,8,155,1249,458:0,R,1,25,8,155,1249,458:0,R,1,29,8,168,1249,40:0,R,1,47,8,267,1249,178:0,R,1,50,0,283,1265,197:0,R,1,90,8,462,1249,20:0,R,1,91,24,462,1217,20:0,R,1,97,8,498,1249,20:0,R,1,104,8,526,1249,20:0,R,1,182,8,623,1249,201:0,R,1,183,24,623,1217,190:0,R,1,191,8,834,1249,201:0,R,1,192,24,834,1217,190:1,B,3987:20611,e,U
p74
sa(dp75
Vname
p76
Vzx
p77
sVvalue
p78
V1492348082017
p79
sasVheaders
p80
(lp81
sVheadersSize
p82
I1049
sVbodySize
p83
I0
sVmethod
p84
VGET
p85
sVhttpVersion
p86
VHTTP/1.1
p87
ssVtimings
p88
(dp89
Vcomment
p90
g4
sVreceive
p91
I0
sVsend
p92
I0
sVssl
p93
I-1
sVconnect
p94
I-1
sVdns
p95
I-1
sVwait
p96
I0
sVblocked
p97
I-1
ssVtime
p98
I0
sVresponse
p99
(dp100
Vstatus
p101
I0
sVcomment
p102
g4
sVcookies
p103
(lp104
sV_error
p105
VNo response received
p106
sVstatusText
p107
g4
sVcontent
p108
(dp109
VmimeType
p110
g4
sVcomment
p111
g4
sVsize
p112
I0
ssVheaders
p113
(lp114
sVheadersSize
p115
I-1
sVredirectURL
p116
g4
sVbodySize
p117
I-1
sVhttpVersion
p118
Vunknown
p119
ssa(dp120
Vcomment
p121
g4
sVserverIPAddress
p122
V216.58.216.196
p123
sVpageref
p124
VCarrie Fisher
p125
sVstartedDateTime
p126
V2017-04-16T08:08:02.024-05:00
p127
sVcache
p128
(dp129
sVrequest
p130
(dp131
Vcomment
p132
g4
sVcookies
p133
(lp134
sVurl
p135
Vhttp://www.google.com/
p136
sVqueryString
p137
(lp138
sVheaders
p139
(lp140
sVheadersSize
p141
I613
sVbodySize
p142
I0
sVmethod
p143
VGET
p144
sVhttpVersion
p145
VHTTP/1.1
p146
ssVtimings
p147
(dp148
Vcomment
p149
g4
sVreceive
p150
I0
sVsend
p151
I0
sVssl
p152
I-1
sVconnect
p153
I-1
sVdns
p154
I-1
sVwait
p155
I40
sVblocked
p156
I-1
ssVtime
p157
I40
sVresponse
p158
(dp159
Vstatus
p160
I302
sVcomment
p161
g4
sVcookies
p162
(lp163
sVstatusText
p164
VFound
p165
sVcontent
p166
(dp167
VmimeType
p168
Vtext/html; charset=UTF-8
p169
sVcomment
p170
g4
sVsize
p171
I0
ssVheaders
p172
(lp173
sVheadersSize
p174
I609
sVredirectURL
p175
Vhttps://www.google.com/?gws_rd=ssl
p176
sVbodySize
p177
I231
sVhttpVersion
p178
VHTTP/1.1
p179
ssa(dp180
Vcomment
p181
g4
sVserverIPAddress
p182
V216.58.216.196
p183
sVpageref
p184
VCarrie Fisher
p185
sVstartedDateTime
p186
V2017-04-16T08:08:02.067-05:00
p187
sVcache
p188
(dp189
sVrequest
p190
(dp191
Vcomment
p192
g4
sVcookies
p193
(lp194
sVurl
p195
Vhttps://www.google.com/?gws_rd=ssl
p196
sVqueryString
p197
(lp198
(dp199
Vname
p200
Vgws_rd
p201
sVvalue
p202
Vssl
p203
sasVheaders
p204
(lp205
sVheadersSize
p206
I607
sVbodySize
p207
I0
sVmethod
p208
VGET
p209
sVhttpVersion
p210
VHTTP/1.1
p211
ssVtimings
p212
(dp213
Vcomment
p214
g4
sVreceive
p215
I22
sVsend
p216
I0
sVssl
p217
I-1
sVconnect
p218
I-1
sVdns
p219
I-1
sVwait
p220
I68
sVblocked
p221
I-1
ssVtime
p222
I90
sVresponse
p223
(dp224
Vstatus
p225
I200
sVcomment
p226
g4
sVcookies
p227
(lp228
sVstatusText
p229
VOK
p230
sVcontent
p231
(dp232
VmimeType
p233
Vtext/html; charset=UTF-8
p234
sVcomment
p235
g4
sVsize
p236
I0
ssVheaders
p237
(lp238
sVheadersSize
p239
I721
sVredirectURL
p240
g4
sVbodySize
p241
I34291
sVhttpVersion
p242
VHTTP/1.1
p243
ssa(dp244
Vcomment
p245
g4
sVserverIPAddress
p246
V216.58.216.196
p247
sVpageref
p248
VCarrie Fisher
p249
sVstartedDateTime
p250
V2017-04-16T08:08:02.355-05:00
p251
sVcache
p252
(dp253
sVrequest
p254
(dp255
Vcomment
p256
g4
sVcookies
p257
(lp258
sVurl
p259
Vhttps://www.google.com/gen_204?s=mobilewebhp&atyp=csi&ei=sWzzWJbiBIvujwTh4pX4DA&imc=1&imn=1&imp=0&adh=&xjs=init.22.12.sb_mob.19.dvl.2.mbsf.1.TG8rFw.0.c.0&ima=1&rt=xjsls.13,prt.13,iml.13,dcl.43,xjses.87,xjsee.164,xjs.164,ol.194,aft.13,wsrt.140,cst.0,dnst.0,rqst.95,rspt.26,rqstt.51,unt.49,cstt.49,dit.178
p260
sVqueryString
p261
(lp262
(dp263
Vname
p264
g57
sVvalue
p265
Vmobilewebhp
p266
sa(dp267
Vname
p268
Vatyp
p269
sVvalue
p270
Vcsi
p271
sa(dp272
Vname
p273
Vei
p274
sVvalue
p275
VsWzzWJbiBIvujwTh4pX4DA
p276
sa(dp277
Vname
p278
Vimc
p279
sVvalue
p280
g59
sa(dp281
Vname
p282
Vimn
p283
sVvalue
p284
g59
sa(dp285
Vname
p286
Vimp
p287
sVvalue
p288
V0
p289
sa(dp290
Vname
p291
Vadh
p292
sVvalue
p293
g4
sa(dp294
Vname
p295
Vxjs
p296
sVvalue
p297
Vinit.22.12.sb_mob.19.dvl.2.mbsf.1.TG8rFw.0.c.0
p298
sa(dp299
Vname
p300
Vima
p301
sVvalue
p302
g59
sa(dp303
Vname
p304
Vrt
p305
sVvalue
p306
Vxjsls.13,prt.13,iml.13,dcl.43,xjses.87,xjsee.164,xjs.164,ol.194,aft.13,wsrt.140,cst.0,dnst.0,rqst.95,rspt.26,rqstt.51,unt.49,cstt.49,dit.178
p307
sasVheaders
p308
(lp309
sVheadersSize
p310
I831
sVbodySize
p311
I0
sVmethod
p312
VGET
p313
sVhttpVersion
p314
VHTTP/1.1
p315
ssVtimings
p316
(dp317
Vcomment
p318
g4
sVreceive
p319
I0
sVsend
p320
I0
sVssl
p321
I-1
sVconnect
p322
I-1
sVdns
p323
I-1
sVwait
p324
I32
sVblocked
p325
I-1
ssVtime
p326
I33
sVresponse
p327
(dp328
Vstatus
p329
I204
sVcomment
p330
g4
sVcookies
p331
(lp332
sVstatusText
p333
VNo Content
p334
sVcontent
p335
(dp336
VmimeType
p337
Vtext/html; charset=UTF-8
p338
sVcomment
p339
g4
sVsize
p340
I0
ssVheaders
p341
(lp342
sVheadersSize
p343
I248
sVredirectURL
p344
g4
sVbodySize
p345
I0
sVhttpVersion
p346
VHTTP/1.1
p347
ssa(dp348
Vcomment
p349
g4
sVserverIPAddress
p350
V216.58.216.196
p351
sVpageref
p352
VCarrie Fisher
p353
sVstartedDateTime
p354
V2017-04-16T08:08:02.488-05:00
p355
sVcache
p356
(dp357
sVrequest
p358
(dp359
Vcomment
p360
g4
sVcookies
p361
(lp362
sVurl
p363
Vhttps://www.google.com/complete/search?client=mobile-gws-hp&hl=en&gs_rn=64&gs_ri=mobile-gws-hp&sla=1&pfq=cam%20newton&gm=602&cp=0&gs_id=1&xhr=t&q=C&tch=1&ech=1&psi=sWzzWJbiBIvujwTh4pX4DA.1492348082295.1
p364
sVqueryString
p365
(lp366
(dp367
Vname
p368
Vclient
p369
sVvalue
p370
Vmobile-gws-hp
p371
sa(dp372
Vname
p373
Vhl
p374
sVvalue
p375
Ven
p376
sa(dp377
Vname
p378
Vgs_rn
p379
sVvalue
p380
V64
p381
sa(dp382
Vname
p383
Vgs_ri
p384
sVvalue
p385
Vmobile-gws-hp
p386
sa(dp387
Vname
p388
Vsla
p389
sVvalue
p390
g59
sa(dp391
Vname
p392
Vpfq
p393
sVvalue
p394
Vcam newton
p395
sa(dp396
Vname
p397
Vgm
p398
sVvalue
p399
V602
p400
sa(dp401
Vname
p402
Vcp
p403
sVvalue
p404
g289
sa(dp405
Vname
p406
Vgs_id
p407
sVvalue
p408
g59
sa(dp409
Vname
p410
Vxhr
p411
sVvalue
p412
g52
sa(dp413
Vname
p414
Vq
p415
sVvalue
p416
g54
sa(dp417
Vname
p418
Vtch
p419
sVvalue
p420
g59
sa(dp421
Vname
p422
Vech
p423
sVvalue
p424
g59
sa(dp425
Vname
p426
Vpsi
p427
sVvalue
p428
VsWzzWJbiBIvujwTh4pX4DA.1492348082295.1
p429
sasVheaders
p430
(lp431
sVheadersSize
p432
I730
sVbodySize
p433
I0
sVmethod
p434
VGET
p435
sVhttpVersion
p436
VHTTP/1.1
p437
ssVtimings
p438
(dp439
Vcomment
p440
g4
sVreceive
p441
I0
sVsend
p442
I0
sVssl
p443
I-1
sVconnect
p444
I-1
sVdns
p445
I-1
sVwait
p446
I0
sVblocked
p447
I-1
ssVtime
p448
I0
sVresponse
p449
(dp450
Vstatus
p451
I0
sVcomment
p452
g4
sVcookies
p453
(lp454
sV_error
p455
VNo response received
p456
sVstatusText
p457
g4
sVcontent
p458
(dp459
VmimeType
p460
g4
sVcomment
p461
g4
sVsize
p462
I0
ssVheaders
p463
(lp464
sVheadersSize
p465
I-1
sVredirectURL
p466
g4
sVbodySize
p467
I-1
sVhttpVersion
p468
Vunknown
p469
ssa(dp470
Vcomment
p471
g4
sVserverIPAddress
p472
V216.58.216.196
p473
sVpageref
p474
VCarrie Fisher
p475
sVstartedDateTime
p476
V2017-04-16T08:08:02.550-05:00
p477
sVcache
p478
(dp479
sVrequest
p480
(dp481
Vcomment
p482
g4
sVcookies
p483
(lp484
sVurl
p485
Vhttps://www.google.com/search?site=&source=hp&ei=sWzzWJbiBIvujwTh4pX4DA&q=Carrie+Fisher&oq=Carrie+Fisher&gs_l=mobile-gws-hp.3...172.205.0.230.13.1.0.0.0.0.0.0..0.0....0...1c.1.64.mobile-gws-hp..13.0.0.uO2Dy2U-an4
p486
sVqueryString
p487
(lp488
(dp489
Vname
p490
Vsite
p491
sVvalue
p492
g4
sa(dp493
Vname
p494
Vsource
p495
sVvalue
p496
Vhp
p497
sa(dp498
Vname
p499
Vei
p500
sVvalue
p501
VsWzzWJbiBIvujwTh4pX4DA
p502
sa(dp503
Vname
p504
g415
sVvalue
p505
VCarrie Fisher
p506
sa(dp507
Vname
p508
Voq
p509
sVvalue
p510
VCarrie Fisher
p511
sa(dp512
Vname
p513
Vgs_l
p514
sVvalue
p515
Vmobile-gws-hp.3...172.205.0.230.13.1.0.0.0.0.0.0..0.0....0...1c.1.64.mobile-gws-hp..13.0.0.uO2Dy2U-an4
p516
sasVheaders
p517
(lp518
sVheadersSize
p519
I830
sVbodySize
p520
I0
sVmethod
p521
VGET
p522
sVhttpVersion
p523
VHTTP/1.1
p524
ssVtimings
p525
(dp526
Vcomment
p527
g4
sVreceive
p528
I956
sVsend
p529
I0
sVssl
p530
I-1
sVconnect
p531
I-1
sVdns
p532
I-1
sVwait
p533
I88
sVblocked
p534
I-1
ssVtime
p535
I1045
sVresponse
p536
(dp537
Vstatus
p538
I200
sVcomment
p539
g4
sVcookies
p540
(lp541
sVstatusText
p542
VOK
p543
sVcontent
p544
(dp545
VmimeType
p546
Vtext/html; charset=UTF-8
p547
sVcomment
p548
g4
sVsize
p549
I0
ssVheaders
p550
(lp551
sVheadersSize
p552
I363
sVredirectURL
p553
g4
sVbodySize
p554
I103969
sVhttpVersion
p555
VHTTP/1.1
p556
ssa(dp557
Vcomment
p558
g4
sVserverIPAddress
p559
V216.58.216.196
p560
sVpageref
p561
VCarrie Fisher
p562
sVstartedDateTime
p563
V2017-04-16T08:08:03.943-05:00
p564
sVcache
p565
(dp566
sVrequest
p567
(dp568
Vcomment
p569
g4
sVcookies
p570
(lp571
sVurl
p572
Vhttps://www.google.com/xjs/_/js/k=xjs.qs.en_US.pCBXVCvTH3s.O/m=syl,syj,syn,em3,em8,em6,em7,sym,aa,abd,sy2g,sy2k,sy29,sy2j,sy2d,sy2a,sy2c,sy2f,sy2l,sy2m,sy2n,emd,async,sybn,sybi,sybo,sy1f,sy45,sy46,sy9w,sybk,sybj,sybp,sy1g,sy30,sy47,sybm,sybl,sybq,sy1h,sybh,dvl,syep,foot,ipv6,sy32,emj,shm,sy5g,sy5i,sy5k,sykh,tl,sy2x,sy2y,sy2t,sy38,em12,vs,sy5j,sy5h,sy6u,sy66,sy67,sy7d,sy7j,sy4u,sy69,sy89,sy7e,sykk,sykl,tnv,bct,sy48,sy3a,sy3c,sy5b,sy4x,sy4z,sy56,syea,sy4y,syci,syeb,sy4v,sy5d,sya3,sy40,sy76,sye9,syec,sye4,sy5a,sy51,sy5e,sya2,sy65,sye2,sy31,sy4t,sy4w,sy52,sy91,sy9l,sya4,sye6,syg5,sygv,sy5f,sy23,sy3b,sy4h,sy53,sy6d,sydt,sygs,sygw,sygu,sy2u,sygt,sy24,sy34,sygx,kpoe,sy4d,sy4f,sy4c,sy4e,sy4b,sy6w,shrb,sy4g,syd7,dgm,sy9m,sy9n,tbhm,sy1y,syac,sy25,sy99,syl6,emb,em9,ema,sy22,syl7,tbm,syf5,syf6,syf8,sygb,syg9,kptm,syf4,sy26,syfc,syfn,syf7,syff,sy1i,sy6i,sy68,sy8d,sy9b,syfl,syfr,syfq,syfg,sy1j,sy4q,sy5o,sy5r,sy6j,sy6n,sy6p,sy8h,syc7,syc8,syfb,syfj,syfs,syft,syg3,syg7,emn,emo,syg4,syg6,ivg,syhz,ssc,iuci,img,sy41,tcc,sy5x,qif,sy72,sykr,strm,syj7,syj8,syj2,syjc,syj6,syj3,syjg,syjh,syje,syjd,syjk,syji,syjf,syj0,emr,ems,emt,emu,emv,emx,emy,emz,em10,em11,udlg,sy5z,atn,sy4i,sya1,ampfp/am=gCP4LtMEBXQA2RUaq_oFBISzAFA/rt=j/d=0/t=zcms/rs=ACT90oFwm4NZCwIcuuiqmthdlECdBzkhRA
p573
sVqueryString
p574
(lp575
sVheaders
p576
(lp577
sVheadersSize
p578
I1784
sVbodySize
p579
I0
sVmethod
p580
VGET
p581
sVhttpVersion
p582
VHTTP/1.1
p583
ssVtimings
p584
(dp585
Vcomment
p586
g4
sVreceive
p587
I59
sVsend
p588
I0
sVssl
p589
I-1
sVconnect
p590
I-1
sVdns
p591
I-1
sVwait
p592
I128
sVblocked
p593
I-1
ssVtime
p594
I188
sVresponse
p595
(dp596
Vstatus
p597
I200
sVcomment
p598
g4
sVcookies
p599
(lp600
sVstatusText
p601
VOK
p602
sVcontent
p603
(dp604
VmimeType
p605
Vtext/javascript; charset=UTF-8
p606
sVcomment
p607
g4
sVsize
p608
I0
ssVheaders
p609
(lp610
sVheadersSize
p611
I452
sVredirectURL
p612
g4
sVbodySize
p613
I288905
sVhttpVersion
p614
VHTTP/1.1
p615
ssa(dp616
Vcomment
p617
g4
sVserverIPAddress
p618
V216.58.216.196
p619
sVpageref
p620
VCarrie Fisher
p621
sVstartedDateTime
p622
V2017-04-16T08:08:04.429-05:00
p623
sVcache
p624
(dp625
sVrequest
p626
(dp627
Vcomment
p628
g4
sVcookies
p629
(lp630
sVurl
p631
Vhttps://www.google.com/gen_204?atyp=i&ct=&cad=&uact=1&vet=10ahUKEwi45KHqhanTAhXp5IMKHbSEDZQQ9V8INCgA..s&ei=sWzzWPjHIunJjwS0ibagCQ&zx=1492348084428
p632
sVqueryString
p633
(lp634
(dp635
Vname
p636
Vatyp
p637
sVvalue
p638
g30
sa(dp639
Vname
p640
Vct
p641
sVvalue
p642
g4
sa(dp643
Vname
p644
Vcad
p645
sVvalue
p646
g4
sa(dp647
Vname
p648
Vuact
p649
sVvalue
p650
g59
sa(dp651
Vname
p652
Vvet
p653
sVvalue
p654
V10ahUKEwi45KHqhanTAhXp5IMKHbSEDZQQ9V8INCgA..s
p655
sa(dp656
Vname
p657
Vei
p658
sVvalue
p659
VsWzzWPjHIunJjwS0ibagCQ
p660
sa(dp661
Vname
p662
Vzx
p663
sVvalue
p664
V1492348084428
p665
sasVheaders
p666
(lp667
sVheadersSize
p668
I663
sVbodySize
p669
I0
sVmethod
p670
VGET
p671
sVhttpVersion
p672
VHTTP/1.1
p673
ssVtimings
p674
(dp675
Vcomment
p676
g4
sVreceive
p677
I0
sVsend
p678
I0
sVssl
p679
I-1
sVconnect
p680
I-1
sVdns
p681
I-1
sVwait
p682
I35
sVblocked
p683
I-1
ssVtime
p684
I35
sVresponse
p685
(dp686
Vstatus
p687
I204
sVcomment
p688
g4
sVcookies
p689
(lp690
sVstatusText
p691
VNo Content
p692
sVcontent
p693
(dp694
VmimeType
p695
Vtext/html; charset=UTF-8
p696
sVcomment
p697
g4
sVsize
p698
I0
ssVheaders
p699
(lp700
sVheadersSize
p701
I248
sVredirectURL
p702
g4
sVbodySize
p703
I0
sVhttpVersion
p704
VHTTP/1.1
p705
ssa(dp706
Vcomment
p707
g4
sVserverIPAddress
p708
V216.58.216.196
p709
sVpageref
p710
VCarrie Fisher
p711
sVstartedDateTime
p712
V2017-04-16T08:08:04.434-05:00
p713
sVcache
p714
(dp715
sVrequest
p716
(dp717
Vcomment
p718
g4
sVcookies
p719
(lp720
sVurl
p721
Vhttps://www.google.com/gen_204?atyp=i&ct=&cad=&uact=1&vet=10ahUKEwi45KHqhanTAhXp5IMKHbSEDZQQ9V8INSgB..s&ei=sWzzWPjHIunJjwS0ibagCQ&zx=1492348084432
p722
sVqueryString
p723
(lp724
(dp725
Vname
p726
Vatyp
p727
sVvalue
p728
g30
sa(dp729
Vname
p730
Vct
p731
sVvalue
p732
g4
sa(dp733
Vname
p734
Vcad
p735
sVvalue
p736
g4
sa(dp737
Vname
p738
Vuact
p739
sVvalue
p740
g59
sa(dp741
Vname
p742
Vvet
p743
sVvalue
p744
V10ahUKEwi45KHqhanTAhXp5IMKHbSEDZQQ9V8INSgB..s
p745
sa(dp746
Vname
p747
Vei
p748
sVvalue
p749
VsWzzWPjHIunJjwS0ibagCQ
p750
sa(dp751
Vname
p752
Vzx
p753
sVvalue
p754
V1492348084432
p755
sasVheaders
p756
(lp757
sVheadersSize
p758
I663
sVbodySize
p759
I0
sVmethod
p760
VGET
p761
sVhttpVersion
p762
VHTTP/1.1
p763
ssVtimings
p764
(dp765
Vcomment
p766
g4
sVreceive
p767
I0
sVsend
p768
I0
sVssl
p769
I-1
sVconnect
p770
I-1
sVdns
p771
I-1
sVwait
p772
I31
sVblocked
p773
I-1
ssVtime
p774
I31
sVresponse
p775
(dp776
Vstatus
p777
I204
sVcomment
p778
g4
sVcookies
p779
(lp780
sVstatusText
p781
VNo Content
p782
sVcontent
p783
(dp784
VmimeType
p785
Vtext/html; charset=UTF-8
p786
sVcomment
p787
g4
sVsize
p788
I0
ssVheaders
p789
(lp790
sVheadersSize
p791
I248
sVredirectURL
p792
g4
sVbodySize
p793
I0
sVhttpVersion
p794
VHTTP/1.1
p795
ssa(dp796
Vcomment
p797
g4
sVserverIPAddress
p798
V216.58.216.196
p799
sVpageref
p800
VCarrie Fisher
p801
sVstartedDateTime
p802
V2017-04-16T08:08:04.436-05:00
p803
sVcache
p804
(dp805
sVrequest
p806
(dp807
Vcomment
p808
g4
sVcookies
p809
(lp810
sVurl
p811
Vhttps://www.google.com/gen_204?atyp=i&ct=&cad=&uact=1&vet=10ahUKEwi45KHqhanTAhXp5IMKHbSEDZQQ9V8INigC..s&ei=sWzzWPjHIunJjwS0ibagCQ&zx=1492348084435
p812
sVqueryString
p813
(lp814
(dp815
Vname
p816
Vatyp
p817
sVvalue
p818
g30
sa(dp819
Vname
p820
Vct
p821
sVvalue
p822
g4
sa(dp823
Vname
p824
Vcad
p825
sVvalue
p826
g4
sa(dp827
Vname
p828
Vuact
p829
sVvalue
p830
g59
sa(dp831
Vname
p832
Vvet
p833
sVvalue
p834
V10ahUKEwi45KHqhanTAhXp5IMKHbSEDZQQ9V8INigC..s
p835
sa(dp836
Vname
p837
Vei
p838
sVvalue
p839
VsWzzWPjHIunJjwS0ibagCQ
p840
sa(dp841
Vname
p842
Vzx
p843
sVvalue
p844
V1492348084435
p845
sasVheaders
p846
(lp847
sVheadersSize
p848
I663
sVbodySize
p849
I0
sVmethod
p850
VGET
p851
sVhttpVersion
p852
VHTTP/1.1
p853
ssVtimings
p854
(dp855
Vcomment
p856
g4
sVreceive
p857
I0
sVsend
p858
I0
sVssl
p859
I-1
sVconnect
p860
I-1
sVdns
p861
I-1
sVwait
p862
I31
sVblocked
p863
I-1
ssVtime
p864
I31
sVresponse
p865
(dp866
Vstatus
p867
I204
sVcomment
p868
g4
sVcookies
p869
(lp870
sVstatusText
p871
VNo Content
p872
sVcontent
p873
(dp874
VmimeType
p875
Vtext/html; charset=UTF-8
p876
sVcomment
p877
g4
sVsize
p878
I0
ssVheaders
p879
(lp880
sVheadersSize
p881
I248
sVredirectURL
p882
g4
sVbodySize
p883
I0
sVhttpVersion
p884
VHTTP/1.1
p885
ssa(dp886
Vcomment
p887
g4
sVserverIPAddress
p888
V216.58.216.196
p889
sVpageref
p890
VCarrie Fisher
p891
sVstartedDateTime
p892
V2017-04-16T08:08:04.451-05:00
p893
sVcache
p894
(dp895
sVrequest
p896
(dp897
Vcomment
p898
g4
sVcookies
p899
(lp900
sVurl
p901
Vhttps://www.google.com/async/irc?vet=10ahUKEwi45KHqhanTAhXp5IMKHbSEDZQQo0EImgI..i&ved=0ahUKEwi45KHqhanTAhXp5IMKHbSEDZQQo0EImgI&ei=sWzzWPjHIunJjwS0ibagCQ&yv=2&async=iu:1,ved:0ahUKEwi45KHqhanTAhXp5IMKHbSEDZQQo0EImgI,_id:irc_async,_pms:qs
p902
sVqueryString
p903
(lp904
(dp905
Vname
p906
Vvet
p907
sVvalue
p908
V10ahUKEwi45KHqhanTAhXp5IMKHbSEDZQQo0EImgI..i
p909
sa(dp910
Vname
p911
Vved
p912
sVvalue
p913
V0ahUKEwi45KHqhanTAhXp5IMKHbSEDZQQo0EImgI
p914
sa(dp915
Vname
p916
Vei
p917
sVvalue
p918
VsWzzWPjHIunJjwS0ibagCQ
p919
sa(dp920
Vname
p921
Vyv
p922
sVvalue
p923
g64
sa(dp924
Vname
p925
Vasync
p926
sVvalue
p927
Viu:1,ved:0ahUKEwi45KHqhanTAhXp5IMKHbSEDZQQo0EImgI,_id:irc_async,_pms:qs
p928
sasVheaders
p929
(lp930
sVheadersSize
p931
I752
sVbodySize
p932
I0
sVmethod
p933
VGET
p934
sVhttpVersion
p935
VHTTP/1.1
p936
ssVtimings
p937
(dp938
Vcomment
p939
g4
sVreceive
p940
I0
sVsend
p941
I0
sVssl
p942
I-1
sVconnect
p943
I-1
sVdns
p944
I-1
sVwait
p945
I54
sVblocked
p946
I-1
ssVtime
p947
I55
sVresponse
p948
(dp949
Vstatus
p950
I200
sVcomment
p951
g4
sVcookies
p952
(lp953
sVstatusText
p954
VOK
p955
sVcontent
p956
(dp957
VmimeType
p958
Vtext/html; charset=UTF-8
p959
sVcomment
p960
g4
sVsize
p961
I0
ssVheaders
p962
(lp963
sVheadersSize
p964
I383
sVredirectURL
p965
g4
sVbodySize
p966
I7795
sVhttpVersion
p967
VHTTP/1.1
p968
ssa(dp969
Vcomment
p970
g4
sVserverIPAddress
p971
V216.58.216.196
p972
sVpageref
p973
VCarrie Fisher
p974
sVstartedDateTime
p975
V2017-04-16T08:08:04.468-05:00
p976
sVcache
p977
(dp978
sVrequest
p979
(dp980
Vcomment
p981
g4
sVcookies
p982
(lp983
sVurl
p984
Vhttps://www.google.com/gen_204?atyp=i&ct=&cad=&vet=10ahUKEwi45KHqhanTAhXp5IMKHbSEDZQQ5W0ISSgE..s&ei=sWzzWPjHIunJjwS0ibagCQ&zx=1492348084465
p985
sVqueryString
p986
(lp987
(dp988
Vname
p989
Vatyp
p990
sVvalue
p991
g30
sa(dp992
Vname
p993
Vct
p994
sVvalue
p995
g4
sa(dp996
Vname
p997
Vcad
p998
sVvalue
p999
g4
sa(dp1000
Vname
p1001
Vvet
p1002
sVvalue
p1003
V10ahUKEwi45KHqhanTAhXp5IMKHbSEDZQQ5W0ISSgE..s
p1004
sa(dp1005
Vname
p1006
Vei
p1007
sVvalue
p1008
VsWzzWPjHIunJjwS0ibagCQ
p1009
sa(dp1010
Vname
p1011
Vzx
p1012
sVvalue
p1013
V1492348084465
p1014
sasVheaders
p1015
(lp1016
sVheadersSize
p1017
I656
sVbodySize
p1018
I0
sVmethod
p1019
VGET
p1020
sVhttpVersion
p1021
VHTTP/1.1
p1022
ssVtimings
p1023
(dp1024
Vcomment
p1025
g4
sVreceive
p1026
I0
sVsend
p1027
I0
sVssl
p1028
I-1
sVconnect
p1029
I-1
sVdns
p1030
I-1
sVwait
p1031
I29
sVblocked
p1032
I-1
ssVtime
p1033
I29
sVresponse
p1034
(dp1035
Vstatus
p1036
I204
sVcomment
p1037
g4
sVcookies
p1038
(lp1039
sVstatusText
p1040
VNo Content
p1041
sVcontent
p1042
(dp1043
VmimeType
p1044
Vtext/html; charset=UTF-8
p1045
sVcomment
p1046
g4
sVsize
p1047
I0
ssVheaders
p1048
(lp1049
sVheadersSize
p1050
I248
sVredirectURL
p1051
g4
sVbodySize
p1052
I0
sVhttpVersion
p1053
VHTTP/1.1
p1054
ssa(dp1055
Vcomment
p1056
g4
sVserverIPAddress
p1057
V216.58.216.196
p1058
sVpageref
p1059
VCarrie Fisher
p1060
sVstartedDateTime
p1061
V2017-04-16T08:08:04.470-05:00
p1062
sVcache
p1063
(dp1064
sVrequest
p1065
(dp1066
Vcomment
p1067
g4
sVcookies
p1068
(lp1069
sVurl
p1070
Vhttps://www.google.com/gen_204?atyp=i&ct=&cad=&vet=10ahUKEwi45KHqhanTAhXp5IMKHbSEDZQQ5W0ITCgF..s&ei=sWzzWPjHIunJjwS0ibagCQ&zx=1492348084469
p1071
sVqueryString
p1072
(lp1073
(dp1074
Vname
p1075
Vatyp
p1076
sVvalue
p1077
g30
sa(dp1078
Vname
p1079
Vct
p1080
sVvalue
p1081
g4
sa(dp1082
Vname
p1083
Vcad
p1084
sVvalue
p1085
g4
sa(dp1086
Vname
p1087
Vvet
p1088
sVvalue
p1089
V10ahUKEwi45KHqhanTAhXp5IMKHbSEDZQQ5W0ITCgF..s
p1090
sa(dp1091
Vname
p1092
Vei
p1093
sVvalue
p1094
VsWzzWPjHIunJjwS0ibagCQ
p1095
sa(dp1096
Vname
p1097
Vzx
p1098
sVvalue
p1099
V1492348084469
p1100
sasVheaders
p1101
(lp1102
sVheadersSize
p1103
I656
sVbodySize
p1104
I0
sVmethod
p1105
VGET
p1106
sVhttpVersion
p1107
VHTTP/1.1
p1108
ssVtimings
p1109
(dp1110
Vcomment
p1111
g4
sVreceive
p1112
I0
sVsend
p1113
I0
sVssl
p1114
I-1
sVconnect
p1115
I-1
sVdns
p1116
I-1
sVwait
p1117
I27
sVblocked
p1118
I-1
ssVtime
p1119
I27
sVresponse
p1120
(dp1121
Vstatus
p1122
I204
sVcomment
p1123
g4
sVcookies
p1124
(lp1125
sVstatusText
p1126
VNo Content
p1127
sVcontent
p1128
(dp1129
VmimeType
p1130
Vtext/html; charset=UTF-8
p1131
sVcomment
p1132
g4
sVsize
p1133
I0
ssVheaders
p1134
(lp1135
sVheadersSize
p1136
I248
sVredirectURL
p1137
g4
sVbodySize
p1138
I0
sVhttpVersion
p1139
VHTTP/1.1
p1140
ssa(dp1141
Vcomment
p1142
g4
sVserverIPAddress
p1143
V216.58.216.196
p1144
sVpageref
p1145
VCarrie Fisher
p1146
sVstartedDateTime
p1147
V2017-04-16T08:08:04.474-05:00
p1148
sVcache
p1149
(dp1150
sVrequest
p1151
(dp1152
Vcomment
p1153
g4
sVcookies
p1154
(lp1155
sVurl
p1156
Vhttps://www.google.com/gen_204?atyp=i&ct=&cad=&vet=10ahUKEwi45KHqhanTAhXp5IMKHbSEDZQQ5W0ITygG..s&ei=sWzzWPjHIunJjwS0ibagCQ&zx=1492348084472
p1157
sVqueryString
p1158
(lp1159
(dp1160
Vname
p1161
Vatyp
p1162
sVvalue
p1163
g30
sa(dp1164
Vname
p1165
Vct
p1166
sVvalue
p1167
g4
sa(dp1168
Vname
p1169
Vcad
p1170
sVvalue
p1171
g4
sa(dp1172
Vname
p1173
Vvet
p1174
sVvalue
p1175
V10ahUKEwi45KHqhanTAhXp5IMKHbSEDZQQ5W0ITygG..s
p1176
sa(dp1177
Vname
p1178
Vei
p1179
sVvalue
p1180
VsWzzWPjHIunJjwS0ibagCQ
p1181
sa(dp1182
Vname
p1183
Vzx
p1184
sVvalue
p1185
V1492348084472
p1186
sasVheaders
p1187
(lp1188
sVheadersSize
p1189
I656
sVbodySize
p1190
I0
sVmethod
p1191
VGET
p1192
sVhttpVersion
p1193
VHTTP/1.1
p1194
ssVtimings
p1195
(dp1196
Vcomment
p1197
g4
sVreceive
p1198
I0
sVsend
p1199
I0
sVssl
p1200
I-1
sVconnect
p1201
I-1
sVdns
p1202
I-1
sVwait
p1203
I33
sVblocked
p1204
I-1
ssVtime
p1205
I34
sVresponse
p1206
(dp1207
Vstatus
p1208
I204
sVcomment
p1209
g4
sVcookies
p1210
(lp1211
sVstatusText
p1212
VNo Content
p1213
sVcontent
p1214
(dp1215
VmimeType
p1216
Vtext/html; charset=UTF-8
p1217
sVcomment
p1218
g4
sVsize
p1219
I0
ssVheaders
p1220
(lp1221
sVheadersSize
p1222
I248
sVredirectURL
p1223
g4
sVbodySize
p1224
I0
sVhttpVersion
p1225
VHTTP/1.1
p1226
ssa(dp1227
Vcomment
p1228
g4
sVserverIPAddress
p1229
V216.58.216.196
p1230
sVpageref
p1231
VCarrie Fisher
p1232
sVstartedDateTime
p1233
V2017-04-16T08:08:04.501-05:00
p1234
sVcache
p1235
(dp1236
sVrequest
p1237
(dp1238
Vcomment
p1239
g4
sVcookies
p1240
(lp1241
sVurl
p1242
Vhttps://www.google.com/gen_204?atyp=i&ct=&cad=&vet=10ahUKEwi45KHqhanTAhXp5IMKHbSEDZQQ5W0IQygC..s&ei=sWzzWPjHIunJjwS0ibagCQ&zx=1492348084458
p1243
sVqueryString
p1244
(lp1245
(dp1246
Vname
p1247
Vatyp
p1248
sVvalue
p1249
g30
sa(dp1250
Vname
p1251
Vct
p1252
sVvalue
p1253
g4
sa(dp1254
Vname
p1255
Vcad
p1256
sVvalue
p1257
g4
sa(dp1258
Vname
p1259
Vvet
p1260
sVvalue
p1261
V10ahUKEwi45KHqhanTAhXp5IMKHbSEDZQQ5W0IQygC..s
p1262
sa(dp1263
Vname
p1264
Vei
p1265
sVvalue
p1266
VsWzzWPjHIunJjwS0ibagCQ
p1267
sa(dp1268
Vname
p1269
Vzx
p1270
sVvalue
p1271
V1492348084458
p1272
sasVheaders
p1273
(lp1274
sVheadersSize
p1275
I656
sVbodySize
p1276
I0
sVmethod
p1277
VGET
p1278
sVhttpVersion
p1279
VHTTP/1.1
p1280
ssVtimings
p1281
(dp1282
Vcomment
p1283
g4
sVreceive
p1284
I0
sVsend
p1285
I0
sVssl
p1286
I21
sVconnect
p1287
I36
sVdns
p1288
I0
sVwait
p1289
I31
sVblocked
p1290
I0
ssVtime
p1291
I68
sVresponse
p1292
(dp1293
Vstatus
p1294
I204
sVcomment
p1295
g4
sVcookies
p1296
(lp1297
sVstatusText
p1298
VNo Content
p1299
sVcontent
p1300
(dp1301
VmimeType
p1302
Vtext/html; charset=UTF-8
p1303
sVcomment
p1304
g4
sVsize
p1305
I0
ssVheaders
p1306
(lp1307
sVheadersSize
p1308
I248
sVredirectURL
p1309
g4
sVbodySize
p1310
I0
sVhttpVersion
p1311
VHTTP/1.1
p1312
ssa(dp1313
Vcomment
p1314
g4
sVserverIPAddress
p1315
V216.58.216.196
p1316
sVpageref
p1317
VCarrie Fisher
p1318
sVstartedDateTime
p1319
V2017-04-16T08:08:04.502-05:00
p1320
sVcache
p1321
(dp1322
sVrequest
p1323
(dp1324
Vcomment
p1325
g4
sVcookies
p1326
(lp1327
sVurl
p1328
Vhttps://www.google.com/gen_204?atyp=i&ct=&cad=&vet=10ahUKEwi45KHqhanTAhXp5IMKHbSEDZQQ5W0IRigD..s&ei=sWzzWPjHIunJjwS0ibagCQ&zx=1492348084460
p1329
sVqueryString
p1330
(lp1331
(dp1332
Vname
p1333
Vatyp
p1334
sVvalue
p1335
g30
sa(dp1336
Vname
p1337
Vct
p1338
sVvalue
p1339
g4
sa(dp1340
Vname
p1341
Vcad
p1342
sVvalue
p1343
g4
sa(dp1344
Vname
p1345
Vvet
p1346
sVvalue
p1347
V10ahUKEwi45KHqhanTAhXp5IMKHbSEDZQQ5W0IRigD..s
p1348
sa(dp1349
Vname
p1350
Vei
p1351
sVvalue
p1352
VsWzzWPjHIunJjwS0ibagCQ
p1353
sa(dp1354
Vname
p1355
Vzx
p1356
sVvalue
p1357
V1492348084460
p1358
sasVheaders
p1359
(lp1360
sVheadersSize
p1361
I656
sVbodySize
p1362
I0
sVmethod
p1363
VGET
p1364
sVhttpVersion
p1365
VHTTP/1.1
p1366
ssVtimings
p1367
(dp1368
Vcomment
p1369
g4
sVreceive
p1370
I0
sVsend
p1371
I0
sVssl
p1372
I19
sVconnect
p1373
I34
sVdns
p1374
I0
sVwait
p1375
I31
sVblocked
p1376
I0
ssVtime
p1377
I65
sVresponse
p1378
(dp1379
Vstatus
p1380
I204
sVcomment
p1381
g4
sVcookies
p1382
(lp1383
sVstatusText
p1384
VNo Content
p1385
sVcontent
p1386
(dp1387
VmimeType
p1388
Vtext/html; charset=UTF-8
p1389
sVcomment
p1390
g4
sVsize
p1391
I0
ssVheaders
p1392
(lp1393
sVheadersSize
p1394
I248
sVredirectURL
p1395
g4
sVbodySize
p1396
I0
sVhttpVersion
p1397
VHTTP/1.1
p1398
ssa(dp1399
Vcomment
p1400
g4
sVserverIPAddress
p1401
V216.58.216.196
p1402
sVpageref
p1403
VCarrie Fisher
p1404
sVstartedDateTime
p1405
V2017-04-16T08:08:04.560-05:00
p1406
sVcache
p1407
(dp1408
sVrequest
p1409
(dp1410
Vcomment
p1411
g4
sVcookies
p1412
(lp1413
sVurl
p1414
Vhttps://www.google.com/async/ampfp?vet=10ahUKEwi45KHqhanTAhXp5IMKHbSEDZQQtZoBCJgC..i&ei=sWzzWPjHIunJjwS0ibagCQ&yv=2&async=_id:ampfp-async,_pms:qs
p1415
sVqueryString
p1416
(lp1417
(dp1418
Vname
p1419
Vvet
p1420
sVvalue
p1421
V10ahUKEwi45KHqhanTAhXp5IMKHbSEDZQQtZoBCJgC..i
p1422
sa(dp1423
Vname
p1424
Vei
p1425
sVvalue
p1426
VsWzzWPjHIunJjwS0ibagCQ
p1427
sa(dp1428
Vname
p1429
Vyv
p1430
sVvalue
p1431
g64
sa(dp1432
Vname
p1433
Vasync
p1434
sVvalue
p1435
V_id:ampfp-async,_pms:qs
p1436
sasVheaders
p1437
(lp1438
sVheadersSize
p1439
I662
sVbodySize
p1440
I0
sVmethod
p1441
VGET
p1442
sVhttpVersion
p1443
VHTTP/1.1
p1444
ssVtimings
p1445
(dp1446
Vcomment
p1447
g4
sVreceive
p1448
I0
sVsend
p1449
I0
sVssl
p1450
I-1
sVconnect
p1451
I-1
sVdns
p1452
I-1
sVwait
p1453
I44
sVblocked
p1454
I-1
ssVtime
p1455
I44
sVresponse
p1456
(dp1457
Vstatus
p1458
I200
sVcomment
p1459
g4
sVcookies
p1460
(lp1461
sVstatusText
p1462
VOK
p1463
sVcontent
p1464
(dp1465
VmimeType
p1466
Vtext/html; charset=UTF-8
p1467
sVcomment
p1468
g4
sVsize
p1469
I0
ssVheaders
p1470
(lp1471
sVheadersSize
p1472
I383
sVredirectURL
p1473
g4
sVbodySize
p1474
I4525
sVhttpVersion
p1475
VHTTP/1.1
p1476
ssa(dp1477
Vcomment
p1478
g4
sVserverIPAddress
p1479
V216.58.216.193
p1480
sVpageref
p1481
VCarrie Fisher
p1482
sVstartedDateTime
p1483
V2017-04-16T08:08:04.560-05:00
p1484
sVcache
p1485
(dp1486
sVrequest
p1487
(dp1488
Vcomment
p1489
g4
sVcookies
p1490
(lp1491
sVurl
p1492
Vhttps://cdn.ampproject.org/preconnect.gif?0.17060255922551693
p1493
sVqueryString
p1494
(lp1495
(dp1496
Vname
p1497
V0.17060255922551693
p1498
sVvalue
p1499
g4
sasVheaders
p1500
(lp1501
sVheadersSize
p1502
I376
sVbodySize
p1503
I0
sVmethod
p1504
VGET
p1505
sVhttpVersion
p1506
VHTTP/1.1
p1507
ssVtimings
p1508
(dp1509
Vcomment
p1510
g4
sVreceive
p1511
I0
sVsend
p1512
I0
sVssl
p1513
I-1
sVconnect
p1514
I-1
sVdns
p1515
I-1
sVwait
p1516
I34
sVblocked
p1517
I-1
ssVtime
p1518
I34
sVresponse
p1519
(dp1520
Vstatus
p1521
I200
sVcomment
p1522
g4
sVcookies
p1523
(lp1524
sVstatusText
p1525
VOK
p1526
sVcontent
p1527
(dp1528
VmimeType
p1529
Vimage/gif
p1530
sVcomment
p1531
g4
sVsize
p1532
I0
ssVheaders
p1533
(lp1534
sVheadersSize
p1535
I826
sVredirectURL
p1536
g4
sVbodySize
p1537
I37
sVhttpVersion
p1538
VHTTP/1.1
p1539
ssa(dp1540
Vcomment
p1541
g4
sVserverIPAddress
p1542
V216.58.216.206
p1543
sVpageref
p1544
VCarrie Fisher
p1545
sVstartedDateTime
p1546
V2017-04-16T08:08:04.570-05:00
p1547
sVcache
p1548
(dp1549
sVrequest
p1550
(dp1551
Vcomment
p1552
g4
sVcookies
p1553
(lp1554
sVurl
p1555
Vhttps://encrypted-tbn1.gstatic.com/images?q=tbn:ANd9GcTAb71C61EeZs6h9BMabyVFngivx5eVnBVvgqeMQ_Bv07uWPnYMtcs7AWezrQ
p1556
sVqueryString
p1557
(lp1558
(dp1559
Vname
p1560
g415
sVvalue
p1561
Vtbn:ANd9GcTAb71C61EeZs6h9BMabyVFngivx5eVnBVvgqeMQ_Bv07uWPnYMtcs7AWezrQ
p1562
sasVheaders
p1563
(lp1564
sVheadersSize
p1565
I429
sVbodySize
p1566
I0
sVmethod
p1567
VGET
p1568
sVhttpVersion
p1569
VHTTP/1.1
p1570
ssVtimings
p1571
(dp1572
Vcomment
p1573
g4
sVreceive
p1574
I0
sVsend
p1575
I0
sVssl
p1576
I-1
sVconnect
p1577
I-1
sVdns
p1578
I-1
sVwait
p1579
I24
sVblocked
p1580
I-1
ssVtime
p1581
I25
sVresponse
p1582
(dp1583
Vstatus
p1584
I200
sVcomment
p1585
g4
sVcookies
p1586
(lp1587
sVstatusText
p1588
VOK
p1589
sVcontent
p1590
(dp1591
VmimeType
p1592
Vimage/jpeg
p1593
sVcomment
p1594
g4
sVsize
p1595
I0
ssVheaders
p1596
(lp1597
sVheadersSize
p1598
I428
sVredirectURL
p1599
g4
sVbodySize
p1600
I4232
sVhttpVersion
p1601
VHTTP/1.1
p1602
ssa(dp1603
Vcomment
p1604
g4
sVserverIPAddress
p1605
V216.58.216.206
p1606
sVpageref
p1607
VCarrie Fisher
p1608
sVstartedDateTime
p1609
V2017-04-16T08:08:04.570-05:00
p1610
sVcache
p1611
(dp1612
sVrequest
p1613
(dp1614
Vcomment
p1615
g4
sVcookies
p1616
(lp1617
sVurl
p1618
Vhttps://encrypted-tbn3.gstatic.com/images?q=tbn:ANd9GcR7c-wHIJ2TCLQQXONp_0a2YU6bcs8zpaYCgj773wcEs1hqx95SgVU0028
p1619
sVqueryString
p1620
(lp1621
(dp1622
Vname
p1623
g415
sVvalue
p1624
Vtbn:ANd9GcR7c-wHIJ2TCLQQXONp_0a2YU6bcs8zpaYCgj773wcEs1hqx95SgVU0028
p1625
sasVheaders
p1626
(lp1627
sVheadersSize
p1628
I426
sVbodySize
p1629
I0
sVmethod
p1630
VGET
p1631
sVhttpVersion
p1632
VHTTP/1.1
p1633
ssVtimings
p1634
(dp1635
Vcomment
p1636
g4
sVreceive
p1637
I10
sVsend
p1638
I0
sVssl
p1639
I-1
sVconnect
p1640
I-1
sVdns
p1641
I-1
sVwait
p1642
I31
sVblocked
p1643
I-1
ssVtime
p1644
I41
sVresponse
p1645
(dp1646
Vstatus
p1647
I200
sVcomment
p1648
g4
sVcookies
p1649
(lp1650
sVstatusText
p1651
VOK
p1652
sVcontent
p1653
(dp1654
VmimeType
p1655
Vimage/jpeg
p1656
sVcomment
p1657
g4
sVsize
p1658
I0
ssVheaders
p1659
(lp1660
sVheadersSize
p1661
I428
sVredirectURL
p1662
g4
sVbodySize
p1663
I3973
sVhttpVersion
p1664
VHTTP/1.1
p1665
ssa(dp1666
Vcomment
p1667
g4
sVserverIPAddress
p1668
V216.58.216.206
p1669
sVpageref
p1670
VCarrie Fisher
p1671
sVstartedDateTime
p1672
V2017-04-16T08:08:04.570-05:00
p1673
sVcache
p1674
(dp1675
sVrequest
p1676
(dp1677
Vcomment
p1678
g4
sVcookies
p1679
(lp1680
sVurl
p1681
Vhttps://encrypted-tbn1.gstatic.com/images?q=tbn:ANd9GcT71RPBcqrV7W7vnJQNDitkvo5ZBVZ8vBn4NOx-0X9hGNTajPP_7eNO-DUJ
p1682
sVqueryString
p1683
(lp1684
(dp1685
Vname
p1686
g415
sVvalue
p1687
Vtbn:ANd9GcT71RPBcqrV7W7vnJQNDitkvo5ZBVZ8vBn4NOx-0X9hGNTajPP_7eNO-DUJ
p1688
sasVheaders
p1689
(lp1690
sVheadersSize
p1691
I427
sVbodySize
p1692
I0
sVmethod
p1693
VGET
p1694
sVhttpVersion
p1695
VHTTP/1.1
p1696
ssVtimings
p1697
(dp1698
Vcomment
p1699
g4
sVreceive
p1700
I0
sVsend
p1701
I0
sVssl
p1702
I-1
sVconnect
p1703
I-1
sVdns
p1704
I-1
sVwait
p1705
I30
sVblocked
p1706
I-1
ssVtime
p1707
I30
sVresponse
p1708
(dp1709
Vstatus
p1710
I200
sVcomment
p1711
g4
sVcookies
p1712
(lp1713
sVstatusText
p1714
VOK
p1715
sVcontent
p1716
(dp1717
VmimeType
p1718
Vimage/jpeg
p1719
sVcomment
p1720
g4
sVsize
p1721
I0
ssVheaders
p1722
(lp1723
sVheadersSize
p1724
I428
sVredirectURL
p1725
g4
sVbodySize
p1726
I3920
sVhttpVersion
p1727
VHTTP/1.1
p1728
ssa(dp1729
Vcomment
p1730
g4
sVserverIPAddress
p1731
V216.58.216.196
p1732
sVpageref
p1733
VCarrie Fisher
p1734
sVstartedDateTime
p1735
V2017-04-16T08:08:04.681-05:00
p1736
sVcache
p1737
(dp1738
sVrequest
p1739
(dp1740
Vcomment
p1741
g4
sVcookies
p1742
(lp1743
sVurl
p1744
Vhttps://www.google.com/async/log_amp_item_set?vet=10ahUKEwj9lZzrhanTAhUD94MKHYYgB1QQooQBCAE..i&ei=sWzzWPjHIunJjwS0ibagCQ&yv=2&async=num_items:2,_fmt:jspb
p1745
sVqueryString
p1746
(lp1747
(dp1748
Vname
p1749
Vvet
p1750
sVvalue
p1751
V10ahUKEwj9lZzrhanTAhUD94MKHYYgB1QQooQBCAE..i
p1752
sa(dp1753
Vname
p1754
Vei
p1755
sVvalue
p1756
VsWzzWPjHIunJjwS0ibagCQ
p1757
sa(dp1758
Vname
p1759
Vyv
p1760
sVvalue
p1761
g64
sa(dp1762
Vname
p1763
Vasync
p1764
sVvalue
p1765
Vnum_items:2,_fmt:jspb
p1766
sasVheaders
p1767
(lp1768
sVheadersSize
p1769
I670
sVbodySize
p1770
I0
sVmethod
p1771
VGET
p1772
sVhttpVersion
p1773
VHTTP/1.1
p1774
ssVtimings
p1775
(dp1776
Vcomment
p1777
g4
sVreceive
p1778
I0
sVsend
p1779
I0
sVssl
p1780
I-1
sVconnect
p1781
I-1
sVdns
p1782
I-1
sVwait
p1783
I53
sVblocked
p1784
I-1
ssVtime
p1785
I54
sVresponse
p1786
(dp1787
Vstatus
p1788
I200
sVcomment
p1789
g4
sVcookies
p1790
(lp1791
sVstatusText
p1792
VOK
p1793
sVcontent
p1794
(dp1795
VmimeType
p1796
Vapplication/json; charset=UTF-8
p1797
sVcomment
p1798
g4
sVsize
p1799
I0
ssVheaders
p1800
(lp1801
sVheadersSize
p1802
I417
sVredirectURL
p1803
g4
sVbodySize
p1804
I141
sVhttpVersion
p1805
VHTTP/1.1
p1806
ssa(dp1807
Vcomment
p1808
g4
sVserverIPAddress
p1809
V216.58.216.193
p1810
sVpageref
p1811
VCarrie Fisher
p1812
sVstartedDateTime
p1813
V2017-04-16T08:08:05.796-05:00
p1814
sVcache
p1815
(dp1816
sVrequest
p1817
(dp1818
Vcomment
p1819
g4
sVcookies
p1820
(lp1821
sVurl
p1822
Vhttps://www-chicagotribune-com.cdn.ampproject.org/v/www.chicagotribune.com/entertainment/movies/ct-carrie-fisher-tribute-star-wars-celebration-20170415-column,amp.html?amp_js_v=9
p1823
sVqueryString
p1824
(lp1825
(dp1826
Vname
p1827
Vamp_js_v
p1828
sVvalue
p1829
V9
p1830
sasVheaders
p1831
(lp1832
sVheadersSize
p1833
I583
sVbodySize
p1834
I0
sVmethod
p1835
VGET
p1836
sVhttpVersion
p1837
VHTTP/1.1
p1838
ssVtimings
p1839
(dp1840
Vcomment
p1841
g4
sVreceive
p1842
I12
sVsend
p1843
I0
sVssl
p1844
I1025
sVconnect
p1845
I1052
sVdns
p1846
I55
sVwait
p1847
I103
sVblocked
p1848
I0
ssVtime
p1849
I1223
sVresponse
p1850
(dp1851
Vstatus
p1852
I200
sVcomment
p1853
g4
sVcookies
p1854
(lp1855
sVstatusText
p1856
VOK
p1857
sVcontent
p1858
(dp1859
VmimeType
p1860
Vtext/html
p1861
sVcomment
p1862
g4
sVsize
p1863
I0
ssVheaders
p1864
(lp1865
sVheadersSize
p1866
I862
sVredirectURL
p1867
g4
sVbodySize
p1868
I13535
sVhttpVersion
p1869
VHTTP/1.1
p1870
ssa(dp1871
Vcomment
p1872
g4
sVserverIPAddress
p1873
V216.58.216.193
p1874
sVpageref
p1875
VCarrie Fisher
p1876
sVstartedDateTime
p1877
V2017-04-16T08:08:05.930-05:00
p1878
sVcache
p1879
(dp1880
sVrequest
p1881
(dp1882
Vcomment
p1883
g4
sVcookies
p1884
(lp1885
sVurl
p1886
Vhttps://www-chicagotribune-com.cdn.ampproject.org/i/www.chicagotribune.com/as/prod/chinews/images/logo_amp.1q2w3_fb49d94998c16f501152761718b60ab6.svg
p1887
sVqueryString
p1888
(lp1889
sVheaders
p1890
(lp1891
sVheadersSize
p1892
I619
sVbodySize
p1893
I0
sVmethod
p1894
VGET
p1895
sVhttpVersion
p1896
VHTTP/1.1
p1897
ssVtimings
p1898
(dp1899
Vcomment
p1900
g4
sVreceive
p1901
I0
sVsend
p1902
I0
sVssl
p1903
I-1
sVconnect
p1904
I-1
sVdns
p1905
I-1
sVwait
p1906
I28
sVblocked
p1907
I-1
ssVtime
p1908
I29
sVresponse
p1909
(dp1910
Vstatus
p1911
I200
sVcomment
p1912
g4
sVcookies
p1913
(lp1914
sVstatusText
p1915
VOK
p1916
sVcontent
p1917
(dp1918
VmimeType
p1919
Vimage/svg+xml
p1920
sVcomment
p1921
g4
sVsize
p1922
I0
ssVheaders
p1923
(lp1924
sVheadersSize
p1925
I881
sVredirectURL
p1926
g4
sVbodySize
p1927
I2709
sVhttpVersion
p1928
VHTTP/1.1
p1929
ssa(dp1930
Vcomment
p1931
g4
sVserverIPAddress
p1932
V216.58.216.206
p1933
sVpageref
p1934
VCarrie Fisher
p1935
sVstartedDateTime
p1936
V2017-04-16T08:08:06.096-05:00
p1937
sVcache
p1938
(dp1939
sVrequest
p1940
(dp1941
Vcomment
p1942
g4
sVcookies
p1943
(lp1944
sVurl
p1945
Vhttps://i.ytimg.com/vi/sE99le5FBrY/sddefault.jpg
p1946
sVqueryString
p1947
(lp1948
sVheaders
p1949
(lp1950
sVheadersSize
p1951
I518
sVbodySize
p1952
I0
sVmethod
p1953
VGET
p1954
sVhttpVersion
p1955
VHTTP/1.1
p1956
ssVtimings
p1957
(dp1958
Vcomment
p1959
g4
sVreceive
p1960
I0
sVsend
p1961
I0
sVssl
p1962
I-1
sVconnect
p1963
I-1
sVdns
p1964
I-1
sVwait
p1965
I0
sVblocked
p1966
I-1
ssVtime
p1967
I0
sVresponse
p1968
(dp1969
Vstatus
p1970
I0
sVcomment
p1971
g4
sVcookies
p1972
(lp1973
sV_error
p1974
VNo response received
p1975
sVstatusText
p1976
g4
sVcontent
p1977
(dp1978
VmimeType
p1979
g4
sVcomment
p1980
g4
sVsize
p1981
I0
ssVheaders
p1982
(lp1983
sVheadersSize
p1984
I-1
sVredirectURL
p1985
g4
sVbodySize
p1986
I-1
sVhttpVersion
p1987
Vunknown
p1988
ssa(dp1989
Vcomment
p1990
g4
sVserverIPAddress
p1991
V216.58.216.206
p1992
sVpageref
p1993
VCarrie Fisher
p1994
sVstartedDateTime
p1995
V2017-04-16T08:08:06.136-05:00
p1996
sVcache
p1997
(dp1998
sVrequest
p1999
(dp2000
Vcomment
p2001
g4
sVcookies
p2002
(lp2003
sVurl
p2004
Vhttps://i.ytimg.com/vi/sE99le5FBrY/sddefault.jpg
p2005
sVqueryString
p2006
(lp2007
sVheaders
p2008
(lp2009
sVheadersSize
p2010
I416
sVbodySize
p2011
I0
sVmethod
p2012
VGET
p2013
sVhttpVersion
p2014
VHTTP/1.1
p2015
ssVtimings
p2016
(dp2017
Vcomment
p2018
g4
sVreceive
p2019
I18
sVsend
p2020
I0
sVssl
p2021
I19
sVconnect
p2022
I33
sVdns
p2023
I2
sVwait
p2024
I17
sVblocked
p2025
I0
ssVtime
p2026
I72
sVresponse
p2027
(dp2028
Vstatus
p2029
I200
sVcomment
p2030
g4
sVcookies
p2031
(lp2032
sVstatusText
p2033
VOK
p2034
sVcontent
p2035
(dp2036
VmimeType
p2037
Vimage/jpeg
p2038
sVcomment
p2039
g4
sVsize
p2040
I0
ssVheaders
p2041
(lp2042
sVheadersSize
p2043
I363
sVredirectURL
p2044
g4
sVbodySize
p2045
I30404
sVhttpVersion
p2046
VHTTP/1.1
p2047
ssa(dp2048
Vcomment
p2049
g4
sVserverIPAddress
p2050
V216.58.216.193
p2051
sVpageref
p2052
VCarrie Fisher
p2053
sVstartedDateTime
p2054
V2017-04-16T08:08:06.395-05:00
p2055
sVcache
p2056
(dp2057
sVrequest
p2058
(dp2059
Vcomment
p2060
g4
sVcookies
p2061
(lp2062
sVurl
p2063
Vhttps://www-trbimg-com.cdn.ampproject.org/i/www.trbimg.com/img-53dfc07b/turbine/chinews-christopher-borrelli-20130507/140/140x140
p2064
sVqueryString
p2065
(lp2066
sVheaders
p2067
(lp2068
sVheadersSize
p2069
I599
sVbodySize
p2070
I0
sVmethod
p2071
VGET
p2072
sVhttpVersion
p2073
VHTTP/1.1
p2074
ssVtimings
p2075
(dp2076
Vcomment
p2077
g4
sVreceive
p2078
I0
sVsend
p2079
I0
sVssl
p2080
I276
sVconnect
p2081
I292
sVdns
p2082
I36
sVwait
p2083
I33
sVblocked
p2084
I0
ssVtime
p2085
I362
sVresponse
p2086
(dp2087
Vstatus
p2088
I200
sVcomment
p2089
g4
sVcookies
p2090
(lp2091
sVstatusText
p2092
VOK
p2093
sVcontent
p2094
(dp2095
VmimeType
p2096
Vimage/jpeg
p2097
sVcomment
p2098
g4
sVsize
p2099
I0
ssVheaders
p2100
(lp2101
sVheadersSize
p2102
I848
sVredirectURL
p2103
g4
sVbodySize
p2104
I3494
sVhttpVersion
p2105
VHTTP/1.1
p2106
ssa(dp2107
Vcomment
p2108
g4
sVserverIPAddress
p2109
V216.58.216.196
p2110
sVpageref
p2111
VCarrie Fisher
p2112
sVstartedDateTime
p2113
V2017-04-16T08:08:06.446-05:00
p2114
sVcache
p2115
(dp2116
sVrequest
p2117
(dp2118
Vcomment
p2119
g4
sVcookies
p2120
(lp2121
sVurl
p2122
Vhttps://www.google.com/gen_204?s=web&atyp=csi&ei=sWzzWPjHIunJjwS0ibagCQ&imc=37&imn=37&imp=16&adh=&xjs=init.35.14.sb_mob.25.dvl.4.c.1.mbsf.1.jsa.1&ima=7&rt=prt.986,iml.1302,xjsls.987,dcl.1050,xjses.1148,xjsee.1288,xjs.1289,qiml.1502,ol.3786,aft.1302,wsrt.100,cst.0,dnst.0,rqst.1047,rspt.957,rqstt.2,unt.2,cstt.2,dit.1139
p2123
sVqueryString
p2124
(lp2125
(dp2126
Vname
p2127
g57
sVvalue
p2128
Vweb
p2129
sa(dp2130
Vname
p2131
Vatyp
p2132
sVvalue
p2133
Vcsi
p2134
sa(dp2135
Vname
p2136
Vei
p2137
sVvalue
p2138
VsWzzWPjHIunJjwS0ibagCQ
p2139
sa(dp2140
Vname
p2141
Vimc
p2142
sVvalue
p2143
V37
p2144
sa(dp2145
Vname
p2146
Vimn
p2147
sVvalue
p2148
V37
p2149
sa(dp2150
Vname
p2151
Vimp
p2152
sVvalue
p2153
V16
p2154
sa(dp2155
Vname
p2156
Vadh
p2157
sVvalue
p2158
g4
sa(dp2159
Vname
p2160
Vxjs
p2161
sVvalue
p2162
Vinit.35.14.sb_mob.25.dvl.4.c.1.mbsf.1.jsa.1
p2163
sa(dp2164
Vname
p2165
Vima
p2166
sVvalue
p2167
V7
p2168
sa(dp2169
Vname
p2170
Vrt
p2171
sVvalue
p2172
Vprt.986,iml.1302,xjsls.987,dcl.1050,xjses.1148,xjsee.1288,xjs.1289,qiml.1502,ol.3786,aft.1302,wsrt.100,cst.0,dnst.0,rqst.1047,rspt.957,rqstt.2,unt.2,cstt.2,dit.1139
p2173
sasVheaders
p2174
(lp2175
sVheadersSize
p2176
I836
sVbodySize
p2177
I0
sVmethod
p2178
VGET
p2179
sVhttpVersion
p2180
VHTTP/1.1
p2181
ssVtimings
p2182
(dp2183
Vcomment
p2184
g4
sVreceive
p2185
I0
sVsend
p2186
I0
sVssl
p2187
I-1
sVconnect
p2188
I-1
sVdns
p2189
I-1
sVwait
p2190
I31
sVblocked
p2191
I-1
ssVtime
p2192
I31
sVresponse
p2193
(dp2194
Vstatus
p2195
I204
sVcomment
p2196
g4
sVcookies
p2197
(lp2198
sVstatusText
p2199
VNo Content
p2200
sVcontent
p2201
(dp2202
VmimeType
p2203
Vtext/html; charset=UTF-8
p2204
sVcomment
p2205
g4
sVsize
p2206
I0
ssVheaders
p2207
(lp2208
sVheadersSize
p2209
I248
sVredirectURL
p2210
g4
sVbodySize
p2211
I0
sVhttpVersion
p2212
VHTTP/1.1
p2213
ssa(dp2214
Vcomment
p2215
g4
sVserverIPAddress
p2216
V216.58.216.196
p2217
sVpageref
p2218
VCarrie Fisher
p2219
sVstartedDateTime
p2220
V2017-04-16T08:08:06.513-05:00
p2221
sVcache
p2222
(dp2223
sVrequest
p2224
(dp2225
Vcomment
p2226
g4
sVcookies
p2227
(lp2228
sVurl
p2229
Vhttps://www.google.com/gen_204?atyp=i&ct=slh&cad=&ei=mmzzWIXoM6L-jwS0mLGoCA&m=V&t=C&s=1&v=2&pv=0.9730860762778989&me=1:1492348061394,x:10,V,0,0,1280,944:0,N,1,mmzzWIXoM6L-jwS0mLGoCA:0,R,1,24,8,155,1249,458:0,R,1,25,8,155,1249,458:0,R,1,29,8,168,1249,40:0,R,1,47,8,267,1249,178:0,R,1,50,0,283,1265,197:0,R,1,90,8,462,1249,20:0,R,1,91,24,462,1217,20:0,R,1,97,8,498,1249,20:0,R,1,104,8,526,1249,20:0,R,1,182,8,623,1249,201:0,R,1,183,24,623,1217,190:0,R,1,191,8,834,1249,201:0,R,1,192,24,834,1217,190:1,B,3987:20611,e,U&zx=1492348086512
p2230
sVqueryString
p2231
(lp2232
(dp2233
Vname
p2234
Vatyp
p2235
sVvalue
p2236
g30
sa(dp2237
Vname
p2238
Vct
p2239
sVvalue
p2240
Vslh
p2241
sa(dp2242
Vname
p2243
Vcad
p2244
sVvalue
p2245
g4
sa(dp2246
Vname
p2247
Vei
p2248
sVvalue
p2249
VmmzzWIXoM6L-jwS0mLGoCA
p2250
sa(dp2251
Vname
p2252
g47
sVvalue
p2253
g49
sa(dp2254
Vname
p2255
g52
sVvalue
p2256
g54
sa(dp2257
Vname
p2258
g57
sVvalue
p2259
g59
sa(dp2260
Vname
p2261
g62
sVvalue
p2262
g64
sa(dp2263
Vname
p2264
Vpv
p2265
sVvalue
p2266
V0.9730860762778989
p2267
sa(dp2268
Vname
p2269
Vme
p2270
sVvalue
p2271
V1:1492348061394,x:10,V,0,0,1280,944:0,N,1,mmzzWIXoM6L-jwS0mLGoCA:0,R,1,24,8,155,1249,458:0,R,1,25,8,155,1249,458:0,R,1,29,8,168,1249,40:0,R,1,47,8,267,1249,178:0,R,1,50,0,283,1265,197:0,R,1,90,8,462,1249,20:0,R,1,91,24,462,1217,20:0,R,1,97,8,498,1249,20:0,R,1,104,8,526,1249,20:0,R,1,182,8,623,1249,201:0,R,1,183,24,623,1217,190:0,R,1,191,8,834,1249,201:0,R,1,192,24,834,1217,190:1,B,3987:20611,e,U
p2272
sa(dp2273
Vname
p2274
Vzx
p2275
sVvalue
p2276
V1492348086512
p2277
sasVheaders
p2278
(lp2279
sVheadersSize
p2280
I1049
sVbodySize
p2281
I0
sVmethod
p2282
VGET
p2283
sVhttpVersion
p2284
VHTTP/1.1
p2285
ssVtimings
p2286
(dp2287
Vcomment
p2288
g4
sVreceive
p2289
I0
sVsend
p2290
I0
sVssl
p2291
I-1
sVconnect
p2292
I-1
sVdns
p2293
I-1
sVwait
p2294
I29
sVblocked
p2295
I-1
ssVtime
p2296
I29
sVresponse
p2297
(dp2298
Vstatus
p2299
I204
sVcomment
p2300
g4
sVcookies
p2301
(lp2302
sVstatusText
p2303
VNo Content
p2304
sVcontent
p2305
(dp2306
VmimeType
p2307
Vtext/html; charset=UTF-8
p2308
sVcomment
p2309
g4
sVsize
p2310
I0
ssVheaders
p2311
(lp2312
sVheadersSize
p2313
I248
sVredirectURL
p2314
g4
sVbodySize
p2315
I0
sVhttpVersion
p2316
VHTTP/1.1
p2317
ssasVversion
p2318
V1.2
p2319
sVpages
p2320
(lp2321
(dp2322
VpageTimings
p2323
(dp2324
Vcomment
p2325
g4
ssVcomment
p2326
g4
sVtitle
p2327
VCarrie Fisher
p2328
sVid
p2329
VCarrie Fisher
p2330
sVstartedDateTime
p2331
V2017-04-16T08:08:02.009-05:00
p2332
sasVcreator
p2333
(dp2334
Vcomment
p2335
g4
sVversion
p2336
V2.1.4
p2337
sVname
p2338
VBrowserMob Proxy
p2339
sss.