(dp0
Vlog
p1
(dp2
Vcomment
p3
V
p4
sVentries
p5
(lp6
(dp7
Vcomment
p8
g4
sVserverIPAddress
p9
V216.58.216.196
p10
sVpageref
p11
VClearwater, Florida
p12
sVstartedDateTime
p13
V2017-04-16T08:54:13.031-05:00
p14
sVcache
p15
(dp16
sVrequest
p17
(dp18
Vcomment
p19
g4
sVcookies
p20
(lp21
sVurl
p22
Vhttps://www.google.com/gen_204?atyp=i&ct=slh&cad=&ei=d3fzWIfREqGPjwSy9LoQ&m=V&t=C&s=1&v=2&pv=0.16207495037434172&me=1:1492350845724,x:1,V,0,0,1280,944:0,N,1,d3fzWIfREqGPjwSy9LoQ:0,R,1,24,8,155,1249,648:0,R,1,25,8,155,1249,648:0,R,1,36,8,155,1249,116:0,R,1,48,8,284,1249,40:0,R,1,55,8,399,1249,40:0,R,1,56,24,399,1217,40:0,R,1,61,8,455,1249,20:0,R,1,63,8,483,1249,20:0,R,1,72,8,523,1249,213:0,R,1,73,8,572,1249,164:0,R,1,179,8,813,1249,201:0,R,1,180,24,813,1217,190:2,B,3719:7301,e,U&zx=1492350853030
p23
sVqueryString
p24
(lp25
(dp26
Vname
p27
Vatyp
p28
sVvalue
p29
Vi
p30
sa(dp31
Vname
p32
Vct
p33
sVvalue
p34
Vslh
p35
sa(dp36
Vname
p37
Vcad
p38
sVvalue
p39
g4
sa(dp40
Vname
p41
Vei
p42
sVvalue
p43
Vd3fzWIfREqGPjwSy9LoQ
p44
sa(dp45
Vname
p46
Vm
p47
sVvalue
p48
VV
p49
sa(dp50
Vname
p51
Vt
p52
sVvalue
p53
VC
p54
sa(dp55
Vname
p56
Vs
p57
sVvalue
p58
V1
p59
sa(dp60
Vname
p61
Vv
p62
sVvalue
p63
V2
p64
sa(dp65
Vname
p66
Vpv
p67
sVvalue
p68
V0.16207495037434172
p69
sa(dp70
Vname
p71
Vme
p72
sVvalue
p73
V1:1492350845724,x:1,V,0,0,1280,944:0,N,1,d3fzWIfREqGPjwSy9LoQ:0,R,1,24,8,155,1249,648:0,R,1,25,8,155,1249,648:0,R,1,36,8,155,1249,116:0,R,1,48,8,284,1249,40:0,R,1,55,8,399,1249,40:0,R,1,56,24,399,1217,40:0,R,1,61,8,455,1249,20:0,R,1,63,8,483,1249,20:0,R,1,72,8,523,1249,213:0,R,1,73,8,572,1249,164:0,R,1,179,8,813,1249,201:0,R,1,180,24,813,1217,190:2,B,3719:7301,e,U
p74
sa(dp75
Vname
p76
Vzx
p77
sVvalue
p78
V1492350853030
p79
sasVheaders
p80
(lp81
sVheadersSize
p82
I1016
sVbodySize
p83
I0
sVmethod
p84
VGET
p85
sVhttpVersion
p86
VHTTP/1.1
p87
ssVtimings
p88
(dp89
Vcomment
p90
g4
sVreceive
p91
I0
sVsend
p92
I0
sVssl
p93
I-1
sVconnect
p94
I-1
sVdns
p95
I-1
sVwait
p96
I0
sVblocked
p97
I-1
ssVtime
p98
I0
sVresponse
p99
(dp100
Vstatus
p101
I0
sVcomment
p102
g4
sVcookies
p103
(lp104
sV_error
p105
VNo response received
p106
sVstatusText
p107
g4
sVcontent
p108
(dp109
VmimeType
p110
g4
sVcomment
p111
g4
sVsize
p112
I0
ssVheaders
p113
(lp114
sVheadersSize
p115
I-1
sVredirectURL
p116
g4
sVbodySize
p117
I-1
sVhttpVersion
p118
Vunknown
p119
ssa(dp120
Vcomment
p121
g4
sVserverIPAddress
p122
V216.58.216.196
p123
sVpageref
p124
VClearwater, Florida
p125
sVstartedDateTime
p126
V2017-04-16T08:54:13.037-05:00
p127
sVcache
p128
(dp129
sVrequest
p130
(dp131
Vcomment
p132
g4
sVcookies
p133
(lp134
sVurl
p135
Vhttp://www.google.com/
p136
sVqueryString
p137
(lp138
sVheaders
p139
(lp140
sVheadersSize
p141
I613
sVbodySize
p142
I0
sVmethod
p143
VGET
p144
sVhttpVersion
p145
VHTTP/1.1
p146
ssVtimings
p147
(dp148
Vcomment
p149
g4
sVreceive
p150
I0
sVsend
p151
I0
sVssl
p152
I-1
sVconnect
p153
I-1
sVdns
p154
I-1
sVwait
p155
I36
sVblocked
p156
I-1
ssVtime
p157
I36
sVresponse
p158
(dp159
Vstatus
p160
I302
sVcomment
p161
g4
sVcookies
p162
(lp163
sVstatusText
p164
VFound
p165
sVcontent
p166
(dp167
VmimeType
p168
Vtext/html; charset=UTF-8
p169
sVcomment
p170
g4
sVsize
p171
I0
ssVheaders
p172
(lp173
sVheadersSize
p174
I609
sVredirectURL
p175
Vhttps://www.google.com/?gws_rd=ssl
p176
sVbodySize
p177
I231
sVhttpVersion
p178
VHTTP/1.1
p179
ssa(dp180
Vcomment
p181
g4
sVserverIPAddress
p182
V216.58.216.196
p183
sVpageref
p184
VClearwater, Florida
p185
sVstartedDateTime
p186
V2017-04-16T08:54:13.076-05:00
p187
sVcache
p188
(dp189
sVrequest
p190
(dp191
Vcomment
p192
g4
sVcookies
p193
(lp194
sVurl
p195
Vhttps://www.google.com/?gws_rd=ssl
p196
sVqueryString
p197
(lp198
(dp199
Vname
p200
Vgws_rd
p201
sVvalue
p202
Vssl
p203
sasVheaders
p204
(lp205
sVheadersSize
p206
I607
sVbodySize
p207
I0
sVmethod
p208
VGET
p209
sVhttpVersion
p210
VHTTP/1.1
p211
ssVtimings
p212
(dp213
Vcomment
p214
g4
sVreceive
p215
I22
sVsend
p216
I0
sVssl
p217
I-1
sVconnect
p218
I-1
sVdns
p219
I-1
sVwait
p220
I77
sVblocked
p221
I-1
ssVtime
p222
I100
sVresponse
p223
(dp224
Vstatus
p225
I200
sVcomment
p226
g4
sVcookies
p227
(lp228
sVstatusText
p229
VOK
p230
sVcontent
p231
(dp232
VmimeType
p233
Vtext/html; charset=UTF-8
p234
sVcomment
p235
g4
sVsize
p236
I0
ssVheaders
p237
(lp238
sVheadersSize
p239
I721
sVredirectURL
p240
g4
sVbodySize
p241
I34292
sVhttpVersion
p242
VHTTP/1.1
p243
ssa(dp244
Vcomment
p245
g4
sVserverIPAddress
p246
V216.58.216.196
p247
sVpageref
p248
VClearwater, Florida
p249
sVstartedDateTime
p250
V2017-04-16T08:54:13.418-05:00
p251
sVcache
p252
(dp253
sVrequest
p254
(dp255
Vcomment
p256
g4
sVcookies
p257
(lp258
sVurl
p259
Vhttps://www.google.com/gen_204?s=mobilewebhp&atyp=csi&ei=hHfzWO6hA8zJjwTM0KmAAg&imc=1&imn=1&imp=0&adh=&xjs=init.27.12.sb_mob.22.dvl.2.jsa.1.mbsf.1.foot.1&ima=1&rt=xjsls.14,prt.15,iml.15,dcl.39,xjses.97,xjsee.185,xjs.186,ol.235,aft.15,wsrt.148,cst.0,dnst.0,rqst.103,rspt.24,rqstt.47,unt.47,cstt.47,dit.177
p260
sVqueryString
p261
(lp262
(dp263
Vname
p264
g57
sVvalue
p265
Vmobilewebhp
p266
sa(dp267
Vname
p268
Vatyp
p269
sVvalue
p270
Vcsi
p271
sa(dp272
Vname
p273
Vei
p274
sVvalue
p275
VhHfzWO6hA8zJjwTM0KmAAg
p276
sa(dp277
Vname
p278
Vimc
p279
sVvalue
p280
g59
sa(dp281
Vname
p282
Vimn
p283
sVvalue
p284
g59
sa(dp285
Vname
p286
Vimp
p287
sVvalue
p288
V0
p289
sa(dp290
Vname
p291
Vadh
p292
sVvalue
p293
g4
sa(dp294
Vname
p295
Vxjs
p296
sVvalue
p297
Vinit.27.12.sb_mob.22.dvl.2.jsa.1.mbsf.1.foot.1
p298
sa(dp299
Vname
p300
Vima
p301
sVvalue
p302
g59
sa(dp303
Vname
p304
Vrt
p305
sVvalue
p306
Vxjsls.14,prt.15,iml.15,dcl.39,xjses.97,xjsee.185,xjs.186,ol.235,aft.15,wsrt.148,cst.0,dnst.0,rqst.103,rspt.24,rqstt.47,unt.47,cstt.47,dit.177
p307
sasVheaders
p308
(lp309
sVheadersSize
p310
I832
sVbodySize
p311
I0
sVmethod
p312
VGET
p313
sVhttpVersion
p314
VHTTP/1.1
p315
ssVtimings
p316
(dp317
Vcomment
p318
g4
sVreceive
p319
I0
sVsend
p320
I0
sVssl
p321
I-1
sVconnect
p322
I-1
sVdns
p323
I-1
sVwait
p324
I27
sVblocked
p325
I-1
ssVtime
p326
I27
sVresponse
p327
(dp328
Vstatus
p329
I204
sVcomment
p330
g4
sVcookies
p331
(lp332
sVstatusText
p333
VNo Content
p334
sVcontent
p335
(dp336
VmimeType
p337
Vtext/html; charset=UTF-8
p338
sVcomment
p339
g4
sVsize
p340
I0
ssVheaders
p341
(lp342
sVheadersSize
p343
I248
sVredirectURL
p344
g4
sVbodySize
p345
I0
sVhttpVersion
p346
VHTTP/1.1
p347
ssa(dp348
Vcomment
p349
g4
sVserverIPAddress
p350
V216.58.216.196
p351
sVpageref
p352
VClearwater, Florida
p353
sVstartedDateTime
p354
V2017-04-16T08:54:13.586-05:00
p355
sVcache
p356
(dp357
sVrequest
p358
(dp359
Vcomment
p360
g4
sVcookies
p361
(lp362
sVurl
p363
Vhttps://www.google.com/complete/search?client=mobile-gws-hp&hl=en&gs_rn=64&gs_ri=mobile-gws-hp&sla=1&pfq=chevorlet&gm=602&cp=0&gs_id=1&xhr=t&q=C&tch=1&ech=1&psi=hHfzWO6hA8zJjwTM0KmAAg.1492350853334.1
p364
sVqueryString
p365
(lp366
(dp367
Vname
p368
Vclient
p369
sVvalue
p370
Vmobile-gws-hp
p371
sa(dp372
Vname
p373
Vhl
p374
sVvalue
p375
Ven
p376
sa(dp377
Vname
p378
Vgs_rn
p379
sVvalue
p380
V64
p381
sa(dp382
Vname
p383
Vgs_ri
p384
sVvalue
p385
Vmobile-gws-hp
p386
sa(dp387
Vname
p388
Vsla
p389
sVvalue
p390
g59
sa(dp391
Vname
p392
Vpfq
p393
sVvalue
p394
Vchevorlet
p395
sa(dp396
Vname
p397
Vgm
p398
sVvalue
p399
V602
p400
sa(dp401
Vname
p402
Vcp
p403
sVvalue
p404
g289
sa(dp405
Vname
p406
Vgs_id
p407
sVvalue
p408
g59
sa(dp409
Vname
p410
Vxhr
p411
sVvalue
p412
g52
sa(dp413
Vname
p414
Vq
p415
sVvalue
p416
g54
sa(dp417
Vname
p418
Vtch
p419
sVvalue
p420
g59
sa(dp421
Vname
p422
Vech
p423
sVvalue
p424
g59
sa(dp425
Vname
p426
Vpsi
p427
sVvalue
p428
VhHfzWO6hA8zJjwTM0KmAAg.1492350853334.1
p429
sasVheaders
p430
(lp431
sVheadersSize
p432
I727
sVbodySize
p433
I0
sVmethod
p434
VGET
p435
sVhttpVersion
p436
VHTTP/1.1
p437
ssVtimings
p438
(dp439
Vcomment
p440
g4
sVreceive
p441
I0
sVsend
p442
I0
sVssl
p443
I-1
sVconnect
p444
I-1
sVdns
p445
I-1
sVwait
p446
I0
sVblocked
p447
I-1
ssVtime
p448
I0
sVresponse
p449
(dp450
Vstatus
p451
I0
sVcomment
p452
g4
sVcookies
p453
(lp454
sV_error
p455
VNo response received
p456
sVstatusText
p457
g4
sVcontent
p458
(dp459
VmimeType
p460
g4
sVcomment
p461
g4
sVsize
p462
I0
ssVheaders
p463
(lp464
sVheadersSize
p465
I-1
sVredirectURL
p466
g4
sVbodySize
p467
I-1
sVhttpVersion
p468
Vunknown
p469
ssa(dp470
Vcomment
p471
g4
sVserverIPAddress
p472
V216.58.216.196
p473
sVpageref
p474
VClearwater, Florida
p475
sVstartedDateTime
p476
V2017-04-16T08:54:13.707-05:00
p477
sVcache
p478
(dp479
sVrequest
p480
(dp481
Vcomment
p482
g4
sVcookies
p483
(lp484
sVurl
p485
Vhttps://www.google.com/search?site=&source=hp&ei=hHfzWO6hA8zJjwTM0KmAAg&q=Clearwater%2C+Florida&oq=Clearwater%2C+Florida&gs_l=mobile-gws-hp.3...228.297.0.346.19.1.0.0.0.0.0.0..0.0....0...1c.1.64.mobile-gws-hp..19.0.0.M0C-mQc6Rhs
p486
sVqueryString
p487
(lp488
(dp489
Vname
p490
Vsite
p491
sVvalue
p492
g4
sa(dp493
Vname
p494
Vsource
p495
sVvalue
p496
Vhp
p497
sa(dp498
Vname
p499
Vei
p500
sVvalue
p501
VhHfzWO6hA8zJjwTM0KmAAg
p502
sa(dp503
Vname
p504
g415
sVvalue
p505
VClearwater, Florida
p506
sa(dp507
Vname
p508
Voq
p509
sVvalue
p510
VClearwater, Florida
p511
sa(dp512
Vname
p513
Vgs_l
p514
sVvalue
p515
Vmobile-gws-hp.3...228.297.0.346.19.1.0.0.0.0.0.0..0.0....0...1c.1.64.mobile-gws-hp..19.0.0.M0C-mQc6Rhs
p516
sasVheaders
p517
(lp518
sVheadersSize
p519
I846
sVbodySize
p520
I0
sVmethod
p521
VGET
p522
sVhttpVersion
p523
VHTTP/1.1
p524
ssVtimings
p525
(dp526
Vcomment
p527
g4
sVreceive
p528
I915
sVsend
p529
I0
sVssl
p530
I-1
sVconnect
p531
I-1
sVdns
p532
I-1
sVwait
p533
I189
sVblocked
p534
I-1
ssVtime
p535
I1104
sVresponse
p536
(dp537
Vstatus
p538
I200
sVcomment
p539
g4
sVcookies
p540
(lp541
sVstatusText
p542
VOK
p543
sVcontent
p544
(dp545
VmimeType
p546
Vtext/html; charset=UTF-8
p547
sVcomment
p548
g4
sVsize
p549
I0
ssVheaders
p550
(lp551
sVheadersSize
p552
I363
sVredirectURL
p553
g4
sVbodySize
p554
I55159
sVhttpVersion
p555
VHTTP/1.1
p556
ssa(dp557
Vcomment
p558
g4
sVserverIPAddress
p559
V216.58.216.196
p560
sVpageref
p561
VClearwater, Florida
p562
sVstartedDateTime
p563
V2017-04-16T08:54:15.669-05:00
p564
sVcache
p565
(dp566
sVrequest
p567
(dp568
Vcomment
p569
g4
sVcookies
p570
(lp571
sVurl
p572
Vhttps://www.google.com/maps/vt/data=RfCSdfNZ0LFPrHSm0ublXdzhdrDFhtmHhN1u-gM,TwCgzs0EnQIL_9HpAmWTVaN0RlZfxfu-UtG9uPQo59b-BVQEJ2Pirjz71HwN6AwfTGf-7lfGllnouwKLsu_JahD0bVbfYOBOxZ-TQaK4_8UM2HMZKsQrPAJ9_jIra9t0_HxE2KKTWzsR44Q4Z6n461xgFAJDfyXagcE2vrijxh8xBjQmme6zFsmnhC0xBNB76Rrxyozkp15s3w?scale=2&h=104&w=1024
p573
sVqueryString
p574
(lp575
(dp576
Vname
p577
Vscale
p578
sVvalue
p579
g64
sa(dp580
Vname
p581
Vh
p582
sVvalue
p583
V104
p584
sa(dp585
Vname
p586
Vw
p587
sVvalue
p588
V1024
p589
sasVheaders
p590
(lp591
sVheadersSize
p592
I820
sVbodySize
p593
I0
sVmethod
p594
VGET
p595
sVhttpVersion
p596
VHTTP/1.1
p597
ssVtimings
p598
(dp599
Vcomment
p600
g4
sVreceive
p601
I14
sVsend
p602
I0
sVssl
p603
I-1
sVconnect
p604
I-1
sVdns
p605
I-1
sVwait
p606
I141
sVblocked
p607
I-1
ssVtime
p608
I155
sVresponse
p609
(dp610
Vstatus
p611
I200
sVcomment
p612
g4
sVcookies
p613
(lp614
sVstatusText
p615
VOK
p616
sVcontent
p617
(dp618
VmimeType
p619
Vimage/png
p620
sVcomment
p621
g4
sVsize
p622
I0
ssVheaders
p623
(lp624
sVheadersSize
p625
I479
sVredirectURL
p626
g4
sVbodySize
p627
I50233
sVhttpVersion
p628
VHTTP/1.1
p629
ssa(dp630
Vcomment
p631
g4
sVserverIPAddress
p632
V216.58.216.196
p633
sVpageref
p634
VClearwater, Florida
p635
sVstartedDateTime
p636
V2017-04-16T08:54:15.848-05:00
p637
sVcache
p638
(dp639
sVrequest
p640
(dp641
Vcomment
p642
g4
sVcookies
p643
(lp644
sVurl
p645
Vhttps://www.google.com/gen_204?s=lu&atyp=csi&ei=hHfzWLXaKYOLjwTNhoLABA&ima=3&rt=lmap.1916,aft.1915,wsrt.1961,cst.0,dnst.0,rqst.1106,rspt.915,rqstt.3,unt.3,cstt.3,dit.1381
p646
sVqueryString
p647
(lp648
(dp649
Vname
p650
g57
sVvalue
p651
Vlu
p652
sa(dp653
Vname
p654
Vatyp
p655
sVvalue
p656
Vcsi
p657
sa(dp658
Vname
p659
Vei
p660
sVvalue
p661
VhHfzWLXaKYOLjwTNhoLABA
p662
sa(dp663
Vname
p664
Vima
p665
sVvalue
p666
V3
p667
sa(dp668
Vname
p669
Vrt
p670
sVvalue
p671
Vlmap.1916,aft.1915,wsrt.1961,cst.0,dnst.0,rqst.1106,rspt.915,rqstt.3,unt.3,cstt.3,dit.1381
p672
sasVheaders
p673
(lp674
sVheadersSize
p675
I687
sVbodySize
p676
I0
sVmethod
p677
VGET
p678
sVhttpVersion
p679
VHTTP/1.1
p680
ssVtimings
p681
(dp682
Vcomment
p683
g4
sVreceive
p684
I0
sVsend
p685
I0
sVssl
p686
I-1
sVconnect
p687
I-1
sVdns
p688
I-1
sVwait
p689
I25
sVblocked
p690
I-1
ssVtime
p691
I26
sVresponse
p692
(dp693
Vstatus
p694
I204
sVcomment
p695
g4
sVcookies
p696
(lp697
sVstatusText
p698
VNo Content
p699
sVcontent
p700
(dp701
VmimeType
p702
Vtext/html; charset=UTF-8
p703
sVcomment
p704
g4
sVsize
p705
I0
ssVheaders
p706
(lp707
sVheadersSize
p708
I248
sVredirectURL
p709
g4
sVbodySize
p710
I0
sVhttpVersion
p711
VHTTP/1.1
p712
ssa(dp713
Vcomment
p714
g4
sVserverIPAddress
p715
V216.58.216.196
p716
sVpageref
p717
VClearwater, Florida
p718
sVstartedDateTime
p719
V2017-04-16T08:54:16.098-05:00
p720
sVcache
p721
(dp722
sVrequest
p723
(dp724
Vcomment
p725
g4
sVcookies
p726
(lp727
sVurl
p728
Vhttps://www.google.com/async/irc?vet=10ahUKEwi1rNGTkKnTAhWDxYMKHU2DAEgQo0EI7AE..i&ved=0ahUKEwi1rNGTkKnTAhWDxYMKHU2DAEgQo0EI7AE&ei=hHfzWLXaKYOLjwTNhoLABA&yv=2&async=iu:1,ved:0ahUKEwi1rNGTkKnTAhWDxYMKHU2DAEgQo0EI7AE,_id:irc_async,_pms:qs
p729
sVqueryString
p730
(lp731
(dp732
Vname
p733
Vvet
p734
sVvalue
p735
V10ahUKEwi1rNGTkKnTAhWDxYMKHU2DAEgQo0EI7AE..i
p736
sa(dp737
Vname
p738
Vved
p739
sVvalue
p740
V0ahUKEwi1rNGTkKnTAhWDxYMKHU2DAEgQo0EI7AE
p741
sa(dp742
Vname
p743
Vei
p744
sVvalue
p745
VhHfzWLXaKYOLjwTNhoLABA
p746
sa(dp747
Vname
p748
Vyv
p749
sVvalue
p750
g64
sa(dp751
Vname
p752
Vasync
p753
sVvalue
p754
Viu:1,ved:0ahUKEwi1rNGTkKnTAhWDxYMKHU2DAEgQo0EI7AE,_id:irc_async,_pms:qs
p755
sasVheaders
p756
(lp757
sVheadersSize
p758
I752
sVbodySize
p759
I0
sVmethod
p760
VGET
p761
sVhttpVersion
p762
VHTTP/1.1
p763
ssVtimings
p764
(dp765
Vcomment
p766
g4
sVreceive
p767
I0
sVsend
p768
I0
sVssl
p769
I-1
sVconnect
p770
I-1
sVdns
p771
I-1
sVwait
p772
I49
sVblocked
p773
I-1
ssVtime
p774
I50
sVresponse
p775
(dp776
Vstatus
p777
I200
sVcomment
p778
g4
sVcookies
p779
(lp780
sVstatusText
p781
VOK
p782
sVcontent
p783
(dp784
VmimeType
p785
Vtext/html; charset=UTF-8
p786
sVcomment
p787
g4
sVsize
p788
I0
ssVheaders
p789
(lp790
sVheadersSize
p791
I383
sVredirectURL
p792
g4
sVbodySize
p793
I7787
sVhttpVersion
p794
VHTTP/1.1
p795
ssa(dp796
Vcomment
p797
g4
sVserverIPAddress
p798
V216.58.216.196
p799
sVpageref
p800
VClearwater, Florida
p801
sVstartedDateTime
p802
V2017-04-16T08:54:16.158-05:00
p803
sVcache
p804
(dp805
sVrequest
p806
(dp807
Vcomment
p808
g4
sVcookies
p809
(lp810
sVurl
p811
Vhttps://www.google.com/gen_204?atyp=i&ct=&cad=&uact=1&vet=10ahUKEwi1rNGTkKnTAhWDxYMKHU2DAEgQ9V8INCgA..s&ei=hHfzWLXaKYOLjwTNhoLABA&zx=1492350856119
p812
sVqueryString
p813
(lp814
(dp815
Vname
p816
Vatyp
p817
sVvalue
p818
g30
sa(dp819
Vname
p820
Vct
p821
sVvalue
p822
g4
sa(dp823
Vname
p824
Vcad
p825
sVvalue
p826
g4
sa(dp827
Vname
p828
Vuact
p829
sVvalue
p830
g59
sa(dp831
Vname
p832
Vvet
p833
sVvalue
p834
V10ahUKEwi1rNGTkKnTAhWDxYMKHU2DAEgQ9V8INCgA..s
p835
sa(dp836
Vname
p837
Vei
p838
sVvalue
p839
VhHfzWLXaKYOLjwTNhoLABA
p840
sa(dp841
Vname
p842
Vzx
p843
sVvalue
p844
V1492350856119
p845
sasVheaders
p846
(lp847
sVheadersSize
p848
I663
sVbodySize
p849
I0
sVmethod
p850
VGET
p851
sVhttpVersion
p852
VHTTP/1.1
p853
ssVtimings
p854
(dp855
Vcomment
p856
g4
sVreceive
p857
I0
sVsend
p858
I0
sVssl
p859
I21
sVconnect
p860
I35
sVdns
p861
I0
sVwait
p862
I25
sVblocked
p863
I0
ssVtime
p864
I62
sVresponse
p865
(dp866
Vstatus
p867
I204
sVcomment
p868
g4
sVcookies
p869
(lp870
sVstatusText
p871
VNo Content
p872
sVcontent
p873
(dp874
VmimeType
p875
Vtext/html; charset=UTF-8
p876
sVcomment
p877
g4
sVsize
p878
I0
ssVheaders
p879
(lp880
sVheadersSize
p881
I248
sVredirectURL
p882
g4
sVbodySize
p883
I0
sVhttpVersion
p884
VHTTP/1.1
p885
ssa(dp886
Vcomment
p887
g4
sVserverIPAddress
p888
V216.58.216.196
p889
sVpageref
p890
VClearwater, Florida
p891
sVstartedDateTime
p892
V2017-04-16T08:54:16.165-05:00
p893
sVcache
p894
(dp895
sVrequest
p896
(dp897
Vcomment
p898
g4
sVcookies
p899
(lp900
sVurl
p901
Vhttps://www.google.com/gen_204?atyp=i&ct=&cad=&uact=1&vet=10ahUKEwi1rNGTkKnTAhWDxYMKHU2DAEgQ9V8INSgB..s&ei=hHfzWLXaKYOLjwTNhoLABA&zx=1492350856121
p902
sVqueryString
p903
(lp904
(dp905
Vname
p906
Vatyp
p907
sVvalue
p908
g30
sa(dp909
Vname
p910
Vct
p911
sVvalue
p912
g4
sa(dp913
Vname
p914
Vcad
p915
sVvalue
p916
g4
sa(dp917
Vname
p918
Vuact
p919
sVvalue
p920
g59
sa(dp921
Vname
p922
Vvet
p923
sVvalue
p924
V10ahUKEwi1rNGTkKnTAhWDxYMKHU2DAEgQ9V8INSgB..s
p925
sa(dp926
Vname
p927
Vei
p928
sVvalue
p929
VhHfzWLXaKYOLjwTNhoLABA
p930
sa(dp931
Vname
p932
Vzx
p933
sVvalue
p934
V1492350856121
p935
sasVheaders
p936
(lp937
sVheadersSize
p938
I663
sVbodySize
p939
I0
sVmethod
p940
VGET
p941
sVhttpVersion
p942
VHTTP/1.1
p943
ssVtimings
p944
(dp945
Vcomment
p946
g4
sVreceive
p947
I0
sVsend
p948
I0
sVssl
p949
I21
sVconnect
p950
I40
sVdns
p951
I0
sVwait
p952
I30
sVblocked
p953
I0
ssVtime
p954
I70
sVresponse
p955
(dp956
Vstatus
p957
I204
sVcomment
p958
g4
sVcookies
p959
(lp960
sVstatusText
p961
VNo Content
p962
sVcontent
p963
(dp964
VmimeType
p965
Vtext/html; charset=UTF-8
p966
sVcomment
p967
g4
sVsize
p968
I0
ssVheaders
p969
(lp970
sVheadersSize
p971
I248
sVredirectURL
p972
g4
sVbodySize
p973
I0
sVhttpVersion
p974
VHTTP/1.1
p975
ssa(dp976
Vcomment
p977
g4
sVserverIPAddress
p978
V216.58.216.196
p979
sVpageref
p980
VClearwater, Florida
p981
sVstartedDateTime
p982
V2017-04-16T08:54:16.214-05:00
p983
sVcache
p984
(dp985
sVrequest
p986
(dp987
Vcomment
p988
g4
sVcookies
p989
(lp990
sVurl
p991
Vhttps://www.google.com/async/ampfp?vet=10ahUKEwi1rNGTkKnTAhWDxYMKHU2DAEgQtZoBCOoB..i&ei=hHfzWLXaKYOLjwTNhoLABA&yv=2&async=_id:ampfp-async,_pms:qs
p992
sVqueryString
p993
(lp994
(dp995
Vname
p996
Vvet
p997
sVvalue
p998
V10ahUKEwi1rNGTkKnTAhWDxYMKHU2DAEgQtZoBCOoB..i
p999
sa(dp1000
Vname
p1001
Vei
p1002
sVvalue
p1003
VhHfzWLXaKYOLjwTNhoLABA
p1004
sa(dp1005
Vname
p1006
Vyv
p1007
sVvalue
p1008
g64
sa(dp1009
Vname
p1010
Vasync
p1011
sVvalue
p1012
V_id:ampfp-async,_pms:qs
p1013
sasVheaders
p1014
(lp1015
sVheadersSize
p1016
I662
sVbodySize
p1017
I0
sVmethod
p1018
VGET
p1019
sVhttpVersion
p1020
VHTTP/1.1
p1021
ssVtimings
p1022
(dp1023
Vcomment
p1024
g4
sVreceive
p1025
I0
sVsend
p1026
I0
sVssl
p1027
I-1
sVconnect
p1028
I-1
sVdns
p1029
I-1
sVwait
p1030
I38
sVblocked
p1031
I-1
ssVtime
p1032
I39
sVresponse
p1033
(dp1034
Vstatus
p1035
I200
sVcomment
p1036
g4
sVcookies
p1037
(lp1038
sVstatusText
p1039
VOK
p1040
sVcontent
p1041
(dp1042
VmimeType
p1043
Vtext/html; charset=UTF-8
p1044
sVcomment
p1045
g4
sVsize
p1046
I0
ssVheaders
p1047
(lp1048
sVheadersSize
p1049
I383
sVredirectURL
p1050
g4
sVbodySize
p1051
I4522
sVhttpVersion
p1052
VHTTP/1.1
p1053
ssa(dp1054
Vcomment
p1055
g4
sVserverIPAddress
p1056
V216.58.216.193
p1057
sVpageref
p1058
VClearwater, Florida
p1059
sVstartedDateTime
p1060
V2017-04-16T08:54:16.214-05:00
p1061
sVcache
p1062
(dp1063
sVrequest
p1064
(dp1065
Vcomment
p1066
g4
sVcookies
p1067
(lp1068
sVurl
p1069
Vhttps://cdn.ampproject.org/preconnect.gif?0.4996308571927043
p1070
sVqueryString
p1071
(lp1072
(dp1073
Vname
p1074
V0.4996308571927043
p1075
sVvalue
p1076
g4
sasVheaders
p1077
(lp1078
sVheadersSize
p1079
I375
sVbodySize
p1080
I0
sVmethod
p1081
VGET
p1082
sVhttpVersion
p1083
VHTTP/1.1
p1084
ssVtimings
p1085
(dp1086
Vcomment
p1087
g4
sVreceive
p1088
I0
sVsend
p1089
I0
sVssl
p1090
I-1
sVconnect
p1091
I-1
sVdns
p1092
I-1
sVwait
p1093
I31
sVblocked
p1094
I-1
ssVtime
p1095
I31
sVresponse
p1096
(dp1097
Vstatus
p1098
I200
sVcomment
p1099
g4
sVcookies
p1100
(lp1101
sVstatusText
p1102
VOK
p1103
sVcontent
p1104
(dp1105
VmimeType
p1106
Vimage/gif
p1107
sVcomment
p1108
g4
sVsize
p1109
I0
ssVheaders
p1110
(lp1111
sVheadersSize
p1112
I826
sVredirectURL
p1113
g4
sVbodySize
p1114
I37
sVhttpVersion
p1115
VHTTP/1.1
p1116
ssa(dp1117
Vcomment
p1118
g4
sVserverIPAddress
p1119
V216.58.216.196
p1120
sVpageref
p1121
VClearwater, Florida
p1122
sVstartedDateTime
p1123
V2017-04-16T08:54:16.366-05:00
p1124
sVcache
p1125
(dp1126
sVrequest
p1127
(dp1128
Vcomment
p1129
g4
sVcookies
p1130
(lp1131
sVurl
p1132
Vhttps://www.google.com/async/log_amp_item_set?vet=10ahUKEwjJl-qUkKnTAhUJxoMKHd3mBQQQooQBCAE..i&ei=hHfzWLXaKYOLjwTNhoLABA&yv=2&async=num_items:2,_fmt:jspb
p1133
sVqueryString
p1134
(lp1135
(dp1136
Vname
p1137
Vvet
p1138
sVvalue
p1139
V10ahUKEwjJl-qUkKnTAhUJxoMKHd3mBQQQooQBCAE..i
p1140
sa(dp1141
Vname
p1142
Vei
p1143
sVvalue
p1144
VhHfzWLXaKYOLjwTNhoLABA
p1145
sa(dp1146
Vname
p1147
Vyv
p1148
sVvalue
p1149
g64
sa(dp1150
Vname
p1151
Vasync
p1152
sVvalue
p1153
Vnum_items:2,_fmt:jspb
p1154
sasVheaders
p1155
(lp1156
sVheadersSize
p1157
I670
sVbodySize
p1158
I0
sVmethod
p1159
VGET
p1160
sVhttpVersion
p1161
VHTTP/1.1
p1162
ssVtimings
p1163
(dp1164
Vcomment
p1165
g4
sVreceive
p1166
I0
sVsend
p1167
I0
sVssl
p1168
I-1
sVconnect
p1169
I-1
sVdns
p1170
I-1
sVwait
p1171
I34
sVblocked
p1172
I-1
ssVtime
p1173
I35
sVresponse
p1174
(dp1175
Vstatus
p1176
I200
sVcomment
p1177
g4
sVcookies
p1178
(lp1179
sVstatusText
p1180
VOK
p1181
sVcontent
p1182
(dp1183
VmimeType
p1184
Vapplication/json; charset=UTF-8
p1185
sVcomment
p1186
g4
sVsize
p1187
I0
ssVheaders
p1188
(lp1189
sVheadersSize
p1190
I417
sVredirectURL
p1191
g4
sVbodySize
p1192
I141
sVhttpVersion
p1193
VHTTP/1.1
p1194
ssa(dp1195
Vcomment
p1196
g4
sVserverIPAddress
p1197
V216.58.216.196
p1198
sVpageref
p1199
VClearwater, Florida
p1200
sVstartedDateTime
p1201
V2017-04-16T08:54:16.396-05:00
p1202
sVcache
p1203
(dp1204
sVrequest
p1205
(dp1206
Vcomment
p1207
g4
sVcookies
p1208
(lp1209
sVurl
p1210
Vhttps://www.google.com/gen_204?s=web&atyp=csi&ei=hHfzWLXaKYOLjwTNhoLABA&imc=9&imn=9&imp=2&adh=&xjs=init.42.15.sb_mob.29.dvl.4.vs.2.trex.2.c.1&ima=3&rt=prt.1166,iml.1915,xjsls.1167,dcl.1222,qiml.1451,xjses.1619,xjsee.1767,xjs.1767,ol.2474,aft.1915,wsrt.208,cst.0,dnst.0,rqst.1106,rspt.915,rqstt.3,unt.3,cstt.3,dit.1381
p1211
sVqueryString
p1212
(lp1213
(dp1214
Vname
p1215
g57
sVvalue
p1216
Vweb
p1217
sa(dp1218
Vname
p1219
Vatyp
p1220
sVvalue
p1221
Vcsi
p1222
sa(dp1223
Vname
p1224
Vei
p1225
sVvalue
p1226
VhHfzWLXaKYOLjwTNhoLABA
p1227
sa(dp1228
Vname
p1229
Vimc
p1230
sVvalue
p1231
V9
p1232
sa(dp1233
Vname
p1234
Vimn
p1235
sVvalue
p1236
g1232
sa(dp1237
Vname
p1238
Vimp
p1239
sVvalue
p1240
g64
sa(dp1241
Vname
p1242
Vadh
p1243
sVvalue
p1244
g4
sa(dp1245
Vname
p1246
Vxjs
p1247
sVvalue
p1248
Vinit.42.15.sb_mob.29.dvl.4.vs.2.trex.2.c.1
p1249
sa(dp1250
Vname
p1251
Vima
p1252
sVvalue
p1253
g667
sa(dp1254
Vname
p1255
Vrt
p1256
sVvalue
p1257
Vprt.1166,iml.1915,xjsls.1167,dcl.1222,qiml.1451,xjses.1619,xjsee.1767,xjs.1767,ol.2474,aft.1915,wsrt.208,cst.0,dnst.0,rqst.1106,rspt.915,rqstt.3,unt.3,cstt.3,dit.1381
p1258
sasVheaders
p1259
(lp1260
sVheadersSize
p1261
I834
sVbodySize
p1262
I0
sVmethod
p1263
VGET
p1264
sVhttpVersion
p1265
VHTTP/1.1
p1266
ssVtimings
p1267
(dp1268
Vcomment
p1269
g4
sVreceive
p1270
I0
sVsend
p1271
I0
sVssl
p1272
I-1
sVconnect
p1273
I-1
sVdns
p1274
I-1
sVwait
p1275
I25
sVblocked
p1276
I-1
ssVtime
p1277
I26
sVresponse
p1278
(dp1279
Vstatus
p1280
I204
sVcomment
p1281
g4
sVcookies
p1282
(lp1283
sVstatusText
p1284
VNo Content
p1285
sVcontent
p1286
(dp1287
VmimeType
p1288
Vtext/html; charset=UTF-8
p1289
sVcomment
p1290
g4
sVsize
p1291
I0
ssVheaders
p1292
(lp1293
sVheadersSize
p1294
I248
sVredirectURL
p1295
g4
sVbodySize
p1296
I0
sVhttpVersion
p1297
VHTTP/1.1
p1298
ssa(dp1299
Vcomment
p1300
g4
sVserverIPAddress
p1301
V216.58.216.196
p1302
sVpageref
p1303
VClearwater, Florida
p1304
sVstartedDateTime
p1305
V2017-04-16T08:54:18.186-05:00
p1306
sVcache
p1307
(dp1308
sVrequest
p1309
(dp1310
Vcomment
p1311
g4
sVcookies
p1312
(lp1313
sVurl
p1314
Vhttps://www.google.com/gen_204?atyp=i&ct=slh&cad=&ei=d3fzWIfREqGPjwSy9LoQ&m=V&t=C&s=1&v=2&pv=0.16207495037434172&me=1:1492350845724,x:1,V,0,0,1280,944:0,N,1,d3fzWIfREqGPjwSy9LoQ:0,R,1,24,8,155,1249,648:0,R,1,25,8,155,1249,648:0,R,1,36,8,155,1249,116:0,R,1,48,8,284,1249,40:0,R,1,55,8,399,1249,40:0,R,1,56,24,399,1217,40:0,R,1,61,8,455,1249,20:0,R,1,63,8,483,1249,20:0,R,1,72,8,523,1249,213:0,R,1,73,8,572,1249,164:0,R,1,179,8,813,1249,201:0,R,1,180,24,813,1217,190:2,B,3719:7301,e,U&zx=1492350858185
p1315
sVqueryString
p1316
(lp1317
(dp1318
Vname
p1319
Vatyp
p1320
sVvalue
p1321
g30
sa(dp1322
Vname
p1323
Vct
p1324
sVvalue
p1325
Vslh
p1326
sa(dp1327
Vname
p1328
Vcad
p1329
sVvalue
p1330
g4
sa(dp1331
Vname
p1332
Vei
p1333
sVvalue
p1334
Vd3fzWIfREqGPjwSy9LoQ
p1335
sa(dp1336
Vname
p1337
g47
sVvalue
p1338
g49
sa(dp1339
Vname
p1340
g52
sVvalue
p1341
g54
sa(dp1342
Vname
p1343
g57
sVvalue
p1344
g59
sa(dp1345
Vname
p1346
g62
sVvalue
p1347
g64
sa(dp1348
Vname
p1349
Vpv
p1350
sVvalue
p1351
V0.16207495037434172
p1352
sa(dp1353
Vname
p1354
Vme
p1355
sVvalue
p1356
V1:1492350845724,x:1,V,0,0,1280,944:0,N,1,d3fzWIfREqGPjwSy9LoQ:0,R,1,24,8,155,1249,648:0,R,1,25,8,155,1249,648:0,R,1,36,8,155,1249,116:0,R,1,48,8,284,1249,40:0,R,1,55,8,399,1249,40:0,R,1,56,24,399,1217,40:0,R,1,61,8,455,1249,20:0,R,1,63,8,483,1249,20:0,R,1,72,8,523,1249,213:0,R,1,73,8,572,1249,164:0,R,1,179,8,813,1249,201:0,R,1,180,24,813,1217,190:2,B,3719:7301,e,U
p1357
sa(dp1358
Vname
p1359
Vzx
p1360
sVvalue
p1361
V1492350858185
p1362
sasVheaders
p1363
(lp1364
sVheadersSize
p1365
I1016
sVbodySize
p1366
I0
sVmethod
p1367
VGET
p1368
sVhttpVersion
p1369
VHTTP/1.1
p1370
ssVtimings
p1371
(dp1372
Vcomment
p1373
g4
sVreceive
p1374
I0
sVsend
p1375
I0
sVssl
p1376
I-1
sVconnect
p1377
I-1
sVdns
p1378
I-1
sVwait
p1379
I41
sVblocked
p1380
I-1
ssVtime
p1381
I41
sVresponse
p1382
(dp1383
Vstatus
p1384
I204
sVcomment
p1385
g4
sVcookies
p1386
(lp1387
sVstatusText
p1388
VNo Content
p1389
sVcontent
p1390
(dp1391
VmimeType
p1392
Vtext/html; charset=UTF-8
p1393
sVcomment
p1394
g4
sVsize
p1395
I0
ssVheaders
p1396
(lp1397
sVheadersSize
p1398
I248
sVredirectURL
p1399
g4
sVbodySize
p1400
I0
sVhttpVersion
p1401
VHTTP/1.1
p1402
ssasVversion
p1403
V1.2
p1404
sVpages
p1405
(lp1406
(dp1407
VpageTimings
p1408
(dp1409
Vcomment
p1410
g4
ssVcomment
p1411
g4
sVtitle
p1412
VClearwater, Florida
p1413
sVid
p1414
VClearwater, Florida
p1415
sVstartedDateTime
p1416
V2017-04-16T08:54:13.020-05:00
p1417
sasVcreator
p1418
(dp1419
Vcomment
p1420
g4
sVversion
p1421
V2.1.4
p1422
sVname
p1423
VBrowserMob Proxy
p1424
sss.