(dp0
Vlog
p1
(dp2
Vcomment
p3
V
p4
sVentries
p5
(lp6
(dp7
Vcomment
p8
g4
sVserverIPAddress
p9
V172.217.6.4
p10
sVpageref
p11
VMaui Brewing Company
p12
sVstartedDateTime
p13
V2017-04-16T08:40:10.930-05:00
p14
sVcache
p15
(dp16
sVrequest
p17
(dp18
Vcomment
p19
g4
sVcookies
p20
(lp21
sVurl
p22
Vhttps://www.google.com/gen_204?atyp=i&ct=slh&cad=&ei=JXTzWImcLcq0jwSk37OIAw&m=V&t=C&s=1&v=2&pv=0.9885207600202782&me=1:1492349993657,x:6,V,0,0,1280,944:0,N,1,JXTzWImcLcq0jwSk37OIAw:0,R,1,25,24,155,1217,115:0,R,1,32,8,291,1249,393:0,R,1,33,8,291,1249,393:0,R,1,36,0,355,1265,349:0,R,1,58,8,694,1249,488:0,R,1,60,8,694,1197,488:0,R,1,62,95,694,1024,120:0,R,1,79,16,814,1189,104:0,R,1,86,16,918,1189,104:3,B,3752:17262,e,U&zx=1492350010929
p23
sVqueryString
p24
(lp25
(dp26
Vname
p27
Vatyp
p28
sVvalue
p29
Vi
p30
sa(dp31
Vname
p32
Vct
p33
sVvalue
p34
Vslh
p35
sa(dp36
Vname
p37
Vcad
p38
sVvalue
p39
g4
sa(dp40
Vname
p41
Vei
p42
sVvalue
p43
VJXTzWImcLcq0jwSk37OIAw
p44
sa(dp45
Vname
p46
Vm
p47
sVvalue
p48
VV
p49
sa(dp50
Vname
p51
Vt
p52
sVvalue
p53
VC
p54
sa(dp55
Vname
p56
Vs
p57
sVvalue
p58
V1
p59
sa(dp60
Vname
p61
Vv
p62
sVvalue
p63
V2
p64
sa(dp65
Vname
p66
Vpv
p67
sVvalue
p68
V0.9885207600202782
p69
sa(dp70
Vname
p71
Vme
p72
sVvalue
p73
V1:1492349993657,x:6,V,0,0,1280,944:0,N,1,JXTzWImcLcq0jwSk37OIAw:0,R,1,25,24,155,1217,115:0,R,1,32,8,291,1249,393:0,R,1,33,8,291,1249,393:0,R,1,36,0,355,1265,349:0,R,1,58,8,694,1249,488:0,R,1,60,8,694,1197,488:0,R,1,62,95,694,1024,120:0,R,1,79,16,814,1189,104:0,R,1,86,16,918,1189,104:3,B,3752:17262,e,U
p74
sa(dp75
Vname
p76
Vzx
p77
sVvalue
p78
V1492350010929
p79
sasVheaders
p80
(lp81
sVheadersSize
p82
I953
sVbodySize
p83
I0
sVmethod
p84
VGET
p85
sVhttpVersion
p86
VHTTP/1.1
p87
ssVtimings
p88
(dp89
Vcomment
p90
g4
sVreceive
p91
I0
sVsend
p92
I0
sVssl
p93
I-1
sVconnect
p94
I-1
sVdns
p95
I-1
sVwait
p96
I0
sVblocked
p97
I-1
ssVtime
p98
I0
sVresponse
p99
(dp100
Vstatus
p101
I0
sVcomment
p102
g4
sVcookies
p103
(lp104
sV_error
p105
VNo response received
p106
sVstatusText
p107
g4
sVcontent
p108
(dp109
VmimeType
p110
g4
sVcomment
p111
g4
sVsize
p112
I0
ssVheaders
p113
(lp114
sVheadersSize
p115
I-1
sVredirectURL
p116
g4
sVbodySize
p117
I-1
sVhttpVersion
p118
Vunknown
p119
ssa(dp120
Vcomment
p121
g4
sVserverIPAddress
p122
V172.217.6.4
p123
sVpageref
p124
VMaui Brewing Company
p125
sVstartedDateTime
p126
V2017-04-16T08:40:10.930-05:00
p127
sVcache
p128
(dp129
sVrequest
p130
(dp131
Vcomment
p132
g4
sVcookies
p133
(lp134
sVurl
p135
Vhttps://www.google.com/gen_204?atyp=i&ct=slh&cad=&ei=F3TzWP3lN4LXjwT88L3QAQ&m=V&t=C&s=1&v=2&pv=0.22630495153277785&me=1:1492349980349,x:1,V,0,0,1280,944:0,N,1,F3TzWP3lN4LXjwT88L3QAQ:0,R,1,25,8,155,1249,126:0,R,1,26,24,155,1217,115:0,R,1,32,0,291,1197,1482:0,R,1,33,0,291,1197,1480:0,R,1,53,0,291,1197,200:0,R,1,54,0,291,1197,200:0,R,1,75,0,504,1197,20:0,R,1,81,0,548,1197,20:0,R,1,95,0,648,1197,35:0,R,1,105,0,704,1197,36:0,R,1,108,0,757,1197,47:0,R,1,149,0,861,1197,86:4,B,4721:658,S,349:0,R,1,153,0,947,1197,192:0,R,1,157,24,1155,1149,161:8967,e,U&zx=1492350010929
p136
sVqueryString
p137
(lp138
(dp139
Vname
p140
Vatyp
p141
sVvalue
p142
g30
sa(dp143
Vname
p144
Vct
p145
sVvalue
p146
Vslh
p147
sa(dp148
Vname
p149
Vcad
p150
sVvalue
p151
g4
sa(dp152
Vname
p153
Vei
p154
sVvalue
p155
VF3TzWP3lN4LXjwT88L3QAQ
p156
sa(dp157
Vname
p158
g47
sVvalue
p159
g49
sa(dp160
Vname
p161
g52
sVvalue
p162
g54
sa(dp163
Vname
p164
g57
sVvalue
p165
g59
sa(dp166
Vname
p167
g62
sVvalue
p168
g64
sa(dp169
Vname
p170
Vpv
p171
sVvalue
p172
V0.22630495153277785
p173
sa(dp174
Vname
p175
Vme
p176
sVvalue
p177
V1:1492349980349,x:1,V,0,0,1280,944:0,N,1,F3TzWP3lN4LXjwT88L3QAQ:0,R,1,25,8,155,1249,126:0,R,1,26,24,155,1217,115:0,R,1,32,0,291,1197,1482:0,R,1,33,0,291,1197,1480:0,R,1,53,0,291,1197,200:0,R,1,54,0,291,1197,200:0,R,1,75,0,504,1197,20:0,R,1,81,0,548,1197,20:0,R,1,95,0,648,1197,35:0,R,1,105,0,704,1197,36:0,R,1,108,0,757,1197,47:0,R,1,149,0,861,1197,86:4,B,4721:658,S,349:0,R,1,153,0,947,1197,192:0,R,1,157,24,1155,1149,161:8967,e,U
p178
sa(dp179
Vname
p180
Vzx
p181
sVvalue
p182
V1492350010929
p183
sasVheaders
p184
(lp185
sVheadersSize
p186
I1083
sVbodySize
p187
I0
sVmethod
p188
VGET
p189
sVhttpVersion
p190
VHTTP/1.1
p191
ssVtimings
p192
(dp193
Vcomment
p194
g4
sVreceive
p195
I0
sVsend
p196
I0
sVssl
p197
I-1
sVconnect
p198
I-1
sVdns
p199
I-1
sVwait
p200
I0
sVblocked
p201
I-1
ssVtime
p202
I0
sVresponse
p203
(dp204
Vstatus
p205
I0
sVcomment
p206
g4
sVcookies
p207
(lp208
sV_error
p209
VNo response received
p210
sVstatusText
p211
g4
sVcontent
p212
(dp213
VmimeType
p214
g4
sVcomment
p215
g4
sVsize
p216
I0
ssVheaders
p217
(lp218
sVheadersSize
p219
I-1
sVredirectURL
p220
g4
sVbodySize
p221
I-1
sVhttpVersion
p222
Vunknown
p223
ssa(dp224
Vcomment
p225
g4
sVserverIPAddress
p226
V172.217.6.4
p227
sVpageref
p228
VMaui Brewing Company
p229
sVstartedDateTime
p230
V2017-04-16T08:40:10.933-05:00
p231
sVcache
p232
(dp233
sVrequest
p234
(dp235
Vcomment
p236
g4
sVcookies
p237
(lp238
sVurl
p239
Vhttp://www.google.com/
p240
sVqueryString
p241
(lp242
sVheaders
p243
(lp244
sVheadersSize
p245
I613
sVbodySize
p246
I0
sVmethod
p247
VGET
p248
sVhttpVersion
p249
VHTTP/1.1
p250
ssVtimings
p251
(dp252
Vcomment
p253
g4
sVreceive
p254
I0
sVsend
p255
I0
sVssl
p256
I-1
sVconnect
p257
I-1
sVdns
p258
I-1
sVwait
p259
I42
sVblocked
p260
I-1
ssVtime
p261
I43
sVresponse
p262
(dp263
Vstatus
p264
I302
sVcomment
p265
g4
sVcookies
p266
(lp267
sVstatusText
p268
VFound
p269
sVcontent
p270
(dp271
VmimeType
p272
Vtext/html; charset=UTF-8
p273
sVcomment
p274
g4
sVsize
p275
I0
ssVheaders
p276
(lp277
sVheadersSize
p278
I609
sVredirectURL
p279
Vhttps://www.google.com/?gws_rd=ssl
p280
sVbodySize
p281
I231
sVhttpVersion
p282
VHTTP/1.1
p283
ssa(dp284
Vcomment
p285
g4
sVserverIPAddress
p286
V172.217.6.4
p287
sVpageref
p288
VMaui Brewing Company
p289
sVstartedDateTime
p290
V2017-04-16T08:40:10.980-05:00
p291
sVcache
p292
(dp293
sVrequest
p294
(dp295
Vcomment
p296
g4
sVcookies
p297
(lp298
sVurl
p299
Vhttps://www.google.com/?gws_rd=ssl
p300
sVqueryString
p301
(lp302
(dp303
Vname
p304
Vgws_rd
p305
sVvalue
p306
Vssl
p307
sasVheaders
p308
(lp309
sVheadersSize
p310
I607
sVbodySize
p311
I0
sVmethod
p312
VGET
p313
sVhttpVersion
p314
VHTTP/1.1
p315
ssVtimings
p316
(dp317
Vcomment
p318
g4
sVreceive
p319
I2
sVsend
p320
I0
sVssl
p321
I-1
sVconnect
p322
I-1
sVdns
p323
I-1
sVwait
p324
I179
sVblocked
p325
I-1
ssVtime
p326
I181
sVresponse
p327
(dp328
Vstatus
p329
I200
sVcomment
p330
g4
sVcookies
p331
(lp332
sVstatusText
p333
VOK
p334
sVcontent
p335
(dp336
VmimeType
p337
Vtext/html; charset=UTF-8
p338
sVcomment
p339
g4
sVsize
p340
I0
ssVheaders
p341
(lp342
sVheadersSize
p343
I721
sVredirectURL
p344
g4
sVbodySize
p345
I34289
sVhttpVersion
p346
VHTTP/1.1
p347
ssa(dp348
Vcomment
p349
g4
sVserverIPAddress
p350
V172.217.6.4
p351
sVpageref
p352
VMaui Brewing Company
p353
sVstartedDateTime
p354
V2017-04-16T08:40:11.473-05:00
p355
sVcache
p356
(dp357
sVrequest
p358
(dp359
Vcomment
p360
g4
sVcookies
p361
(lp362
sVurl
p363
Vhttps://www.google.com/gen_204?s=mobilewebhp&atyp=csi&ei=OnTzWNrsA4i7jwTts6jgDQ&imc=1&imn=1&imp=0&adh=&xjs=init.35.12.sb_mob.27.dvl.3.c.2.mbsf.2.abd.1&ima=1&rt=xjsls.16,prt.17,iml.17,dcl.54,xjses.120,xjsee.231,xjs.232,ol.287,aft.17,wsrt.253,cst.0,dnst.0,rqst.187,rspt.7,rqstt.51,unt.49,cstt.49,dit.285
p364
sVqueryString
p365
(lp366
(dp367
Vname
p368
g57
sVvalue
p369
Vmobilewebhp
p370
sa(dp371
Vname
p372
Vatyp
p373
sVvalue
p374
Vcsi
p375
sa(dp376
Vname
p377
Vei
p378
sVvalue
p379
VOnTzWNrsA4i7jwTts6jgDQ
p380
sa(dp381
Vname
p382
Vimc
p383
sVvalue
p384
g59
sa(dp385
Vname
p386
Vimn
p387
sVvalue
p388
g59
sa(dp389
Vname
p390
Vimp
p391
sVvalue
p392
V0
p393
sa(dp394
Vname
p395
Vadh
p396
sVvalue
p397
g4
sa(dp398
Vname
p399
Vxjs
p400
sVvalue
p401
Vinit.35.12.sb_mob.27.dvl.3.c.2.mbsf.2.abd.1
p402
sa(dp403
Vname
p404
Vima
p405
sVvalue
p406
g59
sa(dp407
Vname
p408
Vrt
p409
sVvalue
p410
Vxjsls.16,prt.17,iml.17,dcl.54,xjses.120,xjsee.231,xjs.232,ol.287,aft.17,wsrt.253,cst.0,dnst.0,rqst.187,rspt.7,rqstt.51,unt.49,cstt.49,dit.285
p411
sasVheaders
p412
(lp413
sVheadersSize
p414
I829
sVbodySize
p415
I0
sVmethod
p416
VGET
p417
sVhttpVersion
p418
VHTTP/1.1
p419
ssVtimings
p420
(dp421
Vcomment
p422
g4
sVreceive
p423
I0
sVsend
p424
I0
sVssl
p425
I-1
sVconnect
p426
I-1
sVdns
p427
I-1
sVwait
p428
I26
sVblocked
p429
I-1
ssVtime
p430
I26
sVresponse
p431
(dp432
Vstatus
p433
I204
sVcomment
p434
g4
sVcookies
p435
(lp436
sVstatusText
p437
VNo Content
p438
sVcontent
p439
(dp440
VmimeType
p441
Vtext/html; charset=UTF-8
p442
sVcomment
p443
g4
sVsize
p444
I0
ssVheaders
p445
(lp446
sVheadersSize
p447
I248
sVredirectURL
p448
g4
sVbodySize
p449
I0
sVhttpVersion
p450
VHTTP/1.1
p451
ssa(dp452
Vcomment
p453
g4
sVserverIPAddress
p454
V172.217.6.4
p455
sVpageref
p456
VMaui Brewing Company
p457
sVstartedDateTime
p458
V2017-04-16T08:40:11.663-05:00
p459
sVcache
p460
(dp461
sVrequest
p462
(dp463
Vcomment
p464
g4
sVcookies
p465
(lp466
sVurl
p467
Vhttps://www.google.com/complete/search?client=mobile-gws-hp&hl=en&gs_rn=64&gs_ri=mobile-gws-hp&sla=1&pfq=miami%20heat&gm=602&cp=0&gs_id=1&xhr=t&q=M&tch=1&ech=1&psi=OnTzWNrsA4i7jwTts6jgDQ.1492350011378.1
p468
sVqueryString
p469
(lp470
(dp471
Vname
p472
Vclient
p473
sVvalue
p474
Vmobile-gws-hp
p475
sa(dp476
Vname
p477
Vhl
p478
sVvalue
p479
Ven
p480
sa(dp481
Vname
p482
Vgs_rn
p483
sVvalue
p484
V64
p485
sa(dp486
Vname
p487
Vgs_ri
p488
sVvalue
p489
Vmobile-gws-hp
p490
sa(dp491
Vname
p492
Vsla
p493
sVvalue
p494
g59
sa(dp495
Vname
p496
Vpfq
p497
sVvalue
p498
Vmiami heat
p499
sa(dp500
Vname
p501
Vgm
p502
sVvalue
p503
V602
p504
sa(dp505
Vname
p506
Vcp
p507
sVvalue
p508
g393
sa(dp509
Vname
p510
Vgs_id
p511
sVvalue
p512
g59
sa(dp513
Vname
p514
Vxhr
p515
sVvalue
p516
g52
sa(dp517
Vname
p518
Vq
p519
sVvalue
p520
VM
p521
sa(dp522
Vname
p523
Vtch
p524
sVvalue
p525
g59
sa(dp526
Vname
p527
Vech
p528
sVvalue
p529
g59
sa(dp530
Vname
p531
Vpsi
p532
sVvalue
p533
VOnTzWNrsA4i7jwTts6jgDQ.1492350011378.1
p534
sasVheaders
p535
(lp536
sVheadersSize
p537
I730
sVbodySize
p538
I0
sVmethod
p539
VGET
p540
sVhttpVersion
p541
VHTTP/1.1
p542
ssVtimings
p543
(dp544
Vcomment
p545
g4
sVreceive
p546
I0
sVsend
p547
I0
sVssl
p548
I-1
sVconnect
p549
I-1
sVdns
p550
I-1
sVwait
p551
I0
sVblocked
p552
I-1
ssVtime
p553
I0
sVresponse
p554
(dp555
Vstatus
p556
I0
sVcomment
p557
g4
sVcookies
p558
(lp559
sV_error
p560
VNo response received
p561
sVstatusText
p562
g4
sVcontent
p563
(dp564
VmimeType
p565
g4
sVcomment
p566
g4
sVsize
p567
I0
ssVheaders
p568
(lp569
sVheadersSize
p570
I-1
sVredirectURL
p571
g4
sVbodySize
p572
I-1
sVhttpVersion
p573
Vunknown
p574
ssa(dp575
Vcomment
p576
g4
sVserverIPAddress
p577
V172.217.6.4
p578
sVpageref
p579
VMaui Brewing Company
p580
sVstartedDateTime
p581
V2017-04-16T08:40:11.764-05:00
p582
sVcache
p583
(dp584
sVrequest
p585
(dp586
Vcomment
p587
g4
sVcookies
p588
(lp589
sVurl
p590
Vhttps://www.google.com/search?site=&source=hp&ei=OnTzWNrsA4i7jwTts6jgDQ&q=Maui+Brewing+Company&oq=Maui+Brewing+Company&gs_l=mobile-gws-hp.3...255.315.0.352.20.1.0.0.0.0.0.0..0.0....0...1c.1.64.mobile-gws-hp..20.0.0.5kzfv0iX-u4
p591
sVqueryString
p592
(lp593
(dp594
Vname
p595
Vsite
p596
sVvalue
p597
g4
sa(dp598
Vname
p599
Vsource
p600
sVvalue
p601
Vhp
p602
sa(dp603
Vname
p604
Vei
p605
sVvalue
p606
VOnTzWNrsA4i7jwTts6jgDQ
p607
sa(dp608
Vname
p609
g519
sVvalue
p610
VMaui Brewing Company
p611
sa(dp612
Vname
p613
Voq
p614
sVvalue
p615
VMaui Brewing Company
p616
sa(dp617
Vname
p618
Vgs_l
p619
sVvalue
p620
Vmobile-gws-hp.3...255.315.0.352.20.1.0.0.0.0.0.0..0.0....0...1c.1.64.mobile-gws-hp..20.0.0.5kzfv0iX-u4
p621
sasVheaders
p622
(lp623
sVheadersSize
p624
I844
sVbodySize
p625
I0
sVmethod
p626
VGET
p627
sVhttpVersion
p628
VHTTP/1.1
p629
ssVtimings
p630
(dp631
Vcomment
p632
g4
sVreceive
p633
I854
sVsend
p634
I0
sVssl
p635
I-1
sVconnect
p636
I-1
sVdns
p637
I-1
sVwait
p638
I587
sVblocked
p639
I-1
ssVtime
p640
I1441
sVresponse
p641
(dp642
Vstatus
p643
I200
sVcomment
p644
g4
sVcookies
p645
(lp646
sVstatusText
p647
VOK
p648
sVcontent
p649
(dp650
VmimeType
p651
Vtext/html; charset=UTF-8
p652
sVcomment
p653
g4
sVsize
p654
I0
ssVheaders
p655
(lp656
sVheadersSize
p657
I363
sVredirectURL
p658
g4
sVbodySize
p659
I89816
sVhttpVersion
p660
VHTTP/1.1
p661
ssa(dp662
Vcomment
p663
g4
sVserverIPAddress
p664
V172.217.6.4
p665
sVpageref
p666
VMaui Brewing Company
p667
sVstartedDateTime
p668
V2017-04-16T08:40:13.156-05:00
p669
sVcache
p670
(dp671
sVrequest
p672
(dp673
Vcomment
p674
g4
sVcookies
p675
(lp676
sVurl
p677
Vhttps://www.google.com/s2/favicons?domain=www.10best.com&sz=16
p678
sVqueryString
p679
(lp680
(dp681
Vname
p682
Vdomain
p683
sVvalue
p684
Vwww.10best.com
p685
sa(dp686
Vname
p687
Vsz
p688
sVvalue
p689
V16
p690
sasVheaders
p691
(lp692
sVheadersSize
p693
I579
sVbodySize
p694
I0
sVmethod
p695
VGET
p696
sVhttpVersion
p697
VHTTP/1.1
p698
ssVtimings
p699
(dp700
Vcomment
p701
g4
sVreceive
p702
I0
sVsend
p703
I0
sVssl
p704
I-1
sVconnect
p705
I-1
sVdns
p706
I-1
sVwait
p707
I16
sVblocked
p708
I-1
ssVtime
p709
I16
sVresponse
p710
(dp711
Vstatus
p712
I200
sVcomment
p713
g4
sVcookies
p714
(lp715
sVstatusText
p716
VOK
p717
sVcontent
p718
(dp719
VmimeType
p720
Vimage/png
p721
sVcomment
p722
g4
sVsize
p723
I0
ssVheaders
p724
(lp725
sVheadersSize
p726
I554
sVredirectURL
p727
g4
sVbodySize
p728
I469
sVhttpVersion
p729
VHTTP/1.1
p730
ssa(dp731
Vcomment
p732
g4
sVserverIPAddress
p733
V172.217.6.4
p734
sVpageref
p735
VMaui Brewing Company
p736
sVstartedDateTime
p737
V2017-04-16T08:40:13.548-05:00
p738
sVcache
p739
(dp740
sVrequest
p741
(dp742
Vcomment
p743
g4
sVcookies
p744
(lp745
sVurl
p746
Vhttps://www.google.com/xjs/_/js/k=xjs.qs.en_US.pCBXVCvTH3s.O/m=syl,syj,syn,em3,em8,em6,em7,sym,aa,abd,sy2g,sy2k,sy29,sy2j,sy2d,sy2a,sy2c,sy2f,sy2l,sy2m,sy2n,emd,async,sybn,sybi,sybo,sy1f,sy45,sy46,sy9w,sybk,sybj,sybp,sy1g,sy30,sy47,sybm,sybl,sybq,sy1h,sybh,dvl,syep,foot,ipv6,sy32,emj,shm,sy5g,sy5i,sy5k,sykh,tl,sy2x,sy2y,sy2t,sy38,em12,vs,sy5j,sy5h,sy6u,sy66,sy67,sy7d,sy7j,sy4u,sy69,sy89,sy7e,sykk,sykl,tnv,bct,sy5o,sy5r,sy23,sy2u,sy5u,sy5t,sy33,sy34,sy2w,sy31,sy2z,sy7l,sy4v,sy6z,sy4l,sy37,sy2r,sy35,sy6q,sy7t,sy50,sy71,sy7f,sy7o,syah,syai,syak,syal,alc,sy1r,sy24,sy4g,syaj,flum,sy4d,sy4f,sy4c,sy4e,sy4b,syd7,dgm,sy1y,sy3x,sy22,sy6p,sy3w,sy6i,syav,syaw,syb0,sy2o,sy6j,syb1,syaz,sy25,syao,sy2v,sy36,sy3z,syau,syb2,syb3,syay,syax,sy8x,syag,syb7,emb,em9,ema,sy2i,sy6k,syam,syaq,syat,syb4,syb5,syb6,sybc,sybg,lrl,lcm,mexp,sy48,sy3a,sy3c,sy5b,sy4x,sybd,sybe,sybt,sy2p,sy56,sybf,sybr,sybs,mlm,sy4z,sy4y,sy5d,sy5e,llmr,akpc,sy9m,syac,sy9b,sy9n,syhz,syl6,ssc,sy6n,flpm,sy5a,syan,syap,flmm,sy7y,sy7u,sy7w,sy87,sy7p,sy81,sy7q,sy7s,sy7z,sy82,sy85,sy83,sy26,sy5n,syas,syb8,syba,sybb,inf,lcts,rliv,skp,llmu,sy6t,nvm,syj7,syj8,syj2,syjc,syj6,syj3,syjg,syjh,syje,syjd,syjk,syji,syjf,syj0,emr,ems,emt,emu,emv,emx,emy,emz,em10,em11,udlg,sy5z,atn,sy1i,sya3,sy4h,sy1j,sya2,sy4i,sya1,sya4,ampfp/am=gCP4LtMEBXQA2RUaq_oFBISzAFA/rt=j/d=0/t=zcms/rs=ACT90oFwm4NZCwIcuuiqmthdlECdBzkhRA
p747
sVqueryString
p748
(lp749
sVheaders
p750
(lp751
sVheadersSize
p752
I1879
sVbodySize
p753
I0
sVmethod
p754
VGET
p755
sVhttpVersion
p756
VHTTP/1.1
p757
ssVtimings
p758
(dp759
Vcomment
p760
g4
sVreceive
p761
I39
sVsend
p762
I0
sVssl
p763
I-1
sVconnect
p764
I-1
sVdns
p765
I-1
sVwait
p766
I97
sVblocked
p767
I-1
ssVtime
p768
I136
sVresponse
p769
(dp770
Vstatus
p771
I200
sVcomment
p772
g4
sVcookies
p773
(lp774
sVstatusText
p775
VOK
p776
sVcontent
p777
(dp778
VmimeType
p779
Vtext/javascript; charset=UTF-8
p780
sVcomment
p781
g4
sVsize
p782
I0
ssVheaders
p783
(lp784
sVheadersSize
p785
I452
sVredirectURL
p786
g4
sVbodySize
p787
I158363
sVhttpVersion
p788
VHTTP/1.1
p789
ssa(dp790
Vcomment
p791
g4
sVserverIPAddress
p792
V216.58.216.193
p793
sVpageref
p794
VMaui Brewing Company
p795
sVstartedDateTime
p796
V2017-04-16T08:40:13.930-05:00
p797
sVcache
p798
(dp799
sVrequest
p800
(dp801
Vcomment
p802
g4
sVcookies
p803
(lp804
sVurl
p805
Vhttps://cdn.ampproject.org/preconnect.gif?0.23641967046578982
p806
sVqueryString
p807
(lp808
(dp809
Vname
p810
V0.23641967046578982
p811
sVvalue
p812
g4
sasVheaders
p813
(lp814
sVheadersSize
p815
I376
sVbodySize
p816
I0
sVmethod
p817
VGET
p818
sVhttpVersion
p819
VHTTP/1.1
p820
ssVtimings
p821
(dp822
Vcomment
p823
g4
sVreceive
p824
I0
sVsend
p825
I0
sVssl
p826
I-1
sVconnect
p827
I-1
sVdns
p828
I-1
sVwait
p829
I29
sVblocked
p830
I-1
ssVtime
p831
I30
sVresponse
p832
(dp833
Vstatus
p834
I200
sVcomment
p835
g4
sVcookies
p836
(lp837
sVstatusText
p838
VOK
p839
sVcontent
p840
(dp841
VmimeType
p842
Vimage/gif
p843
sVcomment
p844
g4
sVsize
p845
I0
ssVheaders
p846
(lp847
sVheadersSize
p848
I826
sVredirectURL
p849
g4
sVbodySize
p850
I37
sVhttpVersion
p851
VHTTP/1.1
p852
ssa(dp853
Vcomment
p854
g4
sVserverIPAddress
p855
V172.217.6.4
p856
sVpageref
p857
VMaui Brewing Company
p858
sVstartedDateTime
p859
V2017-04-16T08:40:13.952-05:00
p860
sVcache
p861
(dp862
sVrequest
p863
(dp864
Vcomment
p865
g4
sVcookies
p866
(lp867
sVurl
p868
Vhttps://www.google.com/gen_204/local?ei=O3TzWPb5BemKjwTwpZKADg&tm_n=pt&tm=675
p869
sVqueryString
p870
(lp871
(dp872
Vname
p873
Vei
p874
sVvalue
p875
VO3TzWPb5BemKjwTwpZKADg
p876
sa(dp877
Vname
p878
Vtm_n
p879
sVvalue
p880
Vpt
p881
sa(dp882
Vname
p883
Vtm
p884
sVvalue
p885
V675
p886
sasVheaders
p887
(lp888
sVheadersSize
p889
I877
sVbodySize
p890
I0
sVmethod
p891
VPOST
p892
sVhttpVersion
p893
VHTTP/1.1
p894
ssVtimings
p895
(dp896
Vcomment
p897
g4
sVreceive
p898
I0
sVsend
p899
I0
sVssl
p900
I-1
sVconnect
p901
I-1
sVdns
p902
I-1
sVwait
p903
I38
sVblocked
p904
I-1
ssVtime
p905
I38
sVresponse
p906
(dp907
Vstatus
p908
I204
sVcomment
p909
g4
sVcookies
p910
(lp911
sVstatusText
p912
VNo Content
p913
sVcontent
p914
(dp915
VmimeType
p916
Vtext/html; charset=UTF-8
p917
sVcomment
p918
g4
sVsize
p919
I0
ssVheaders
p920
(lp921
sVheadersSize
p922
I290
sVredirectURL
p923
g4
sVbodySize
p924
I0
sVhttpVersion
p925
VHTTP/1.1
p926
ssa(dp927
Vcomment
p928
g4
sVserverIPAddress
p929
V172.217.6.4
p930
sVpageref
p931
VMaui Brewing Company
p932
sVstartedDateTime
p933
V2017-04-16T08:40:13.952-05:00
p934
sVcache
p935
(dp936
sVrequest
p937
(dp938
Vcomment
p939
g4
sVcookies
p940
(lp941
sVurl
p942
Vhttps://www.google.com/gen_204/local?ei=O3TzWPb5BemKjwTwpZKADg&tm_n=lrl_init&tm=3
p943
sVqueryString
p944
(lp945
(dp946
Vname
p947
Vei
p948
sVvalue
p949
VO3TzWPb5BemKjwTwpZKADg
p950
sa(dp951
Vname
p952
Vtm_n
p953
sVvalue
p954
Vlrl_init
p955
sa(dp956
Vname
p957
Vtm
p958
sVvalue
p959
V3
p960
sasVheaders
p961
(lp962
sVheadersSize
p963
I881
sVbodySize
p964
I0
sVmethod
p965
VPOST
p966
sVhttpVersion
p967
VHTTP/1.1
p968
ssVtimings
p969
(dp970
Vcomment
p971
g4
sVreceive
p972
I0
sVsend
p973
I0
sVssl
p974
I-1
sVconnect
p975
I-1
sVdns
p976
I-1
sVwait
p977
I47
sVblocked
p978
I-1
ssVtime
p979
I47
sVresponse
p980
(dp981
Vstatus
p982
I204
sVcomment
p983
g4
sVcookies
p984
(lp985
sVstatusText
p986
VNo Content
p987
sVcontent
p988
(dp989
VmimeType
p990
Vtext/html; charset=UTF-8
p991
sVcomment
p992
g4
sVsize
p993
I0
ssVheaders
p994
(lp995
sVheadersSize
p996
I290
sVredirectURL
p997
g4
sVbodySize
p998
I0
sVhttpVersion
p999
VHTTP/1.1
p1000
ssa(dp1001
Vcomment
p1002
g4
sVserverIPAddress
p1003
V172.217.6.4
p1004
sVpageref
p1005
VMaui Brewing Company
p1006
sVstartedDateTime
p1007
V2017-04-16T08:40:14.456-05:00
p1008
sVcache
p1009
(dp1010
sVrequest
p1011
(dp1012
Vcomment
p1013
g4
sVcookies
p1014
(lp1015
sVurl
p1016
Vhttps://www.google.com/maps/vt/data=RfCSdfNZ0LFPrHSm0ublXdzhdrDFhtmHhN1u-gM,XibQ3Dc9gKcn6vtJvBaygIBD8ikKCEKpYfBWaUC42CwHnsbDPMULgPOHOUbe0qCLkX_Pn6CG_m9BhKEjrZJcyL89FQKUtV8SP3QEq1RzZUXd64NQzIzFwy0X4PMwPYQucUPkBA5A1X2wGZhoMGY5gBR-Z-GBmBOQy6zQEn1MhJmp1Ky5EBtcK_c10H0nNGafDR-okB42qGwnRjrDN1jfh0UzsvgDVHrKHuwhpCN7tgx7ClA8xF79-Yw8WgTi8vHk7b4KO_YAW-jZEW5Lnc1Bz3DhCBmi5n9Fb_Kdh2j2KznoVhqr9iOPA1VmxRxigr964WXdldUDXUYB5PGTA-g8DWA,spt0xCSy-wzxzCsmYH6q-6Xav2E?h=120&w=1024&scale=2
p1017
sVqueryString
p1018
(lp1019
(dp1020
Vname
p1021
Vh
p1022
sVvalue
p1023
V120
p1024
sa(dp1025
Vname
p1026
Vw
p1027
sVvalue
p1028
V1024
p1029
sa(dp1030
Vname
p1031
Vscale
p1032
sVvalue
p1033
g64
sasVheaders
p1034
(lp1035
sVheadersSize
p1036
I985
sVbodySize
p1037
I0
sVmethod
p1038
VGET
p1039
sVhttpVersion
p1040
VHTTP/1.1
p1041
ssVtimings
p1042
(dp1043
Vcomment
p1044
g4
sVreceive
p1045
I0
sVsend
p1046
I0
sVssl
p1047
I34
sVconnect
p1048
I61
sVdns
p1049
I429
sVwait
p1050
I66
sVblocked
p1051
I0
ssVtime
p1052
I557
sVresponse
p1053
(dp1054
Vstatus
p1055
I200
sVcomment
p1056
g4
sVcookies
p1057
(lp1058
sVstatusText
p1059
VOK
p1060
sVcontent
p1061
(dp1062
VmimeType
p1063
Vimage/png
p1064
sVcomment
p1065
g4
sVsize
p1066
I0
ssVheaders
p1067
(lp1068
sVheadersSize
p1069
I479
sVredirectURL
p1070
g4
sVbodySize
p1071
I12805
sVhttpVersion
p1072
VHTTP/1.1
p1073
ssa(dp1074
Vcomment
p1075
g4
sVserverIPAddress
p1076
V172.217.6.4
p1077
sVpageref
p1078
VMaui Brewing Company
p1079
sVstartedDateTime
p1080
V2017-04-16T08:40:14.456-05:00
p1081
sVcache
p1082
(dp1083
sVrequest
p1084
(dp1085
Vcomment
p1086
g4
sVcookies
p1087
(lp1088
sVurl
p1089
Vhttps://www.google.com/maps/vt/data=RfCSdfNZ0LFPrHSm0ublXdzhdrDFhtmHhN1u-gM,XibQ3Dc9gKcn6vtJvBaygIBD8ikKCEKpYfBWaUC42CwHnsbDPMULgPOHOUbe0qCLkX_Pn6CG_m9BhKEjrZJcyL89FQKUtV8SP3QEq1RzZUXd64NQzIzFwy0X4PMwPYQucUPkBA5A1X2wGZhoMGY5gBR-Z-GBmBOQy6zQEn1MhJmp1Ky5EBtcK_c10H0nNGafDR-okB42qGwnRjrDN1jfh0UzsvgDVHrKHuwhpCN7tgx7ClA8xF79-Yw8WgTi8vHk7b4KO_YAW-jZEW5Lnc1Bz3DhCBmi5n9Fb_Kdh2j2KznoVhqr9iOPA1VmxRxigr964WXdldUDXUYB5PGTA-g8DWA,swES-JbB3NYka1H69BK05ngjxY8?h=120&w=1265&scale=1
p1090
sVqueryString
p1091
(lp1092
(dp1093
Vname
p1094
g1022
sVvalue
p1095
V120
p1096
sa(dp1097
Vname
p1098
g1027
sVvalue
p1099
V1265
p1100
sa(dp1101
Vname
p1102
Vscale
p1103
sVvalue
p1104
g59
sasVheaders
p1105
(lp1106
sVheadersSize
p1107
I985
sVbodySize
p1108
I0
sVmethod
p1109
VGET
p1110
sVhttpVersion
p1111
VHTTP/1.1
p1112
ssVtimings
p1113
(dp1114
Vcomment
p1115
g4
sVreceive
p1116
I2
sVsend
p1117
I0
sVssl
p1118
I35
sVconnect
p1119
I62
sVdns
p1120
I434
sVwait
p1121
I46
sVblocked
p1122
I0
ssVtime
p1123
I545
sVresponse
p1124
(dp1125
Vstatus
p1126
I200
sVcomment
p1127
g4
sVcookies
p1128
(lp1129
sVstatusText
p1130
VOK
p1131
sVcontent
p1132
(dp1133
VmimeType
p1134
Vimage/png
p1135
sVcomment
p1136
g4
sVsize
p1137
I0
ssVheaders
p1138
(lp1139
sVheadersSize
p1140
I478
sVredirectURL
p1141
g4
sVbodySize
p1142
I5320
sVhttpVersion
p1143
VHTTP/1.1
p1144
ssa(dp1145
Vcomment
p1146
g4
sVserverIPAddress
p1147
V172.217.6.4
p1148
sVpageref
p1149
VMaui Brewing Company
p1150
sVstartedDateTime
p1151
V2017-04-16T08:40:14.527-05:00
p1152
sVcache
p1153
(dp1154
sVrequest
p1155
(dp1156
Vcomment
p1157
g4
sVcookies
p1158
(lp1159
sVurl
p1160
Vhttps://www.google.com/gen_204/local?ei=O3TzWPb5BemKjwTwpZKADg&tm_n=lcsm&tm=573
p1161
sVqueryString
p1162
(lp1163
(dp1164
Vname
p1165
Vei
p1166
sVvalue
p1167
VO3TzWPb5BemKjwTwpZKADg
p1168
sa(dp1169
Vname
p1170
Vtm_n
p1171
sVvalue
p1172
Vlcsm
p1173
sa(dp1174
Vname
p1175
Vtm
p1176
sVvalue
p1177
V573
p1178
sasVheaders
p1179
(lp1180
sVheadersSize
p1181
I879
sVbodySize
p1182
I0
sVmethod
p1183
VPOST
p1184
sVhttpVersion
p1185
VHTTP/1.1
p1186
ssVtimings
p1187
(dp1188
Vcomment
p1189
g4
sVreceive
p1190
I0
sVsend
p1191
I0
sVssl
p1192
I-1
sVconnect
p1193
I-1
sVdns
p1194
I-1
sVwait
p1195
I68
sVblocked
p1196
I-1
ssVtime
p1197
I68
sVresponse
p1198
(dp1199
Vstatus
p1200
I204
sVcomment
p1201
g4
sVcookies
p1202
(lp1203
sVstatusText
p1204
VNo Content
p1205
sVcontent
p1206
(dp1207
VmimeType
p1208
Vtext/html; charset=UTF-8
p1209
sVcomment
p1210
g4
sVsize
p1211
I0
ssVheaders
p1212
(lp1213
sVheadersSize
p1214
I290
sVredirectURL
p1215
g4
sVbodySize
p1216
I0
sVhttpVersion
p1217
VHTTP/1.1
p1218
ssa(dp1219
Vcomment
p1220
g4
sVserverIPAddress
p1221
V172.217.6.4
p1222
sVpageref
p1223
VMaui Brewing Company
p1224
sVstartedDateTime
p1225
V2017-04-16T08:40:14.534-05:00
p1226
sVcache
p1227
(dp1228
sVrequest
p1229
(dp1230
Vcomment
p1231
g4
sVcookies
p1232
(lp1233
sVurl
p1234
Vhttps://www.google.com/gen_204?s=web&atyp=csi&ei=O3TzWPb5BemKjwTwpZKADg&imc=12&imn=12&imp=4&adh=&xjs=init.40.14.sb_mob.28.dvl.6.c.1.mbsf.1.jsa.1&ima=5&rt=prt.856,iml.930,xjsls.856,dcl.929,xjses.995,xjsee.1165,xjs.1166,ol.2158,aft.930,wsrt.608,cst.0,dnst.0,rqst.1443,rspt.854,rqstt.2,unt.2,cstt.2,dit.1498
p1235
sVqueryString
p1236
(lp1237
(dp1238
Vname
p1239
g57
sVvalue
p1240
Vweb
p1241
sa(dp1242
Vname
p1243
Vatyp
p1244
sVvalue
p1245
Vcsi
p1246
sa(dp1247
Vname
p1248
Vei
p1249
sVvalue
p1250
VO3TzWPb5BemKjwTwpZKADg
p1251
sa(dp1252
Vname
p1253
Vimc
p1254
sVvalue
p1255
V12
p1256
sa(dp1257
Vname
p1258
Vimn
p1259
sVvalue
p1260
V12
p1261
sa(dp1262
Vname
p1263
Vimp
p1264
sVvalue
p1265
V4
p1266
sa(dp1267
Vname
p1268
Vadh
p1269
sVvalue
p1270
g4
sa(dp1271
Vname
p1272
Vxjs
p1273
sVvalue
p1274
Vinit.40.14.sb_mob.28.dvl.6.c.1.mbsf.1.jsa.1
p1275
sa(dp1276
Vname
p1277
Vima
p1278
sVvalue
p1279
V5
p1280
sa(dp1281
Vname
p1282
Vrt
p1283
sVvalue
p1284
Vprt.856,iml.930,xjsls.856,dcl.929,xjses.995,xjsee.1165,xjs.1166,ol.2158,aft.930,wsrt.608,cst.0,dnst.0,rqst.1443,rspt.854,rqstt.2,unt.2,cstt.2,dit.1498
p1285
sasVheaders
p1286
(lp1287
sVheadersSize
p1288
I821
sVbodySize
p1289
I0
sVmethod
p1290
VGET
p1291
sVhttpVersion
p1292
VHTTP/1.1
p1293
ssVtimings
p1294
(dp1295
Vcomment
p1296
g4
sVreceive
p1297
I0
sVsend
p1298
I0
sVssl
p1299
I-1
sVconnect
p1300
I-1
sVdns
p1301
I-1
sVwait
p1302
I61
sVblocked
p1303
I-1
ssVtime
p1304
I61
sVresponse
p1305
(dp1306
Vstatus
p1307
I204
sVcomment
p1308
g4
sVcookies
p1309
(lp1310
sVstatusText
p1311
VNo Content
p1312
sVcontent
p1313
(dp1314
VmimeType
p1315
Vtext/html; charset=UTF-8
p1316
sVcomment
p1317
g4
sVsize
p1318
I0
ssVheaders
p1319
(lp1320
sVheadersSize
p1321
I248
sVredirectURL
p1322
g4
sVbodySize
p1323
I0
sVhttpVersion
p1324
VHTTP/1.1
p1325
ssa(dp1326
Vcomment
p1327
g4
sVserverIPAddress
p1328
V172.217.6.4
p1329
sVpageref
p1330
VMaui Brewing Company
p1331
sVstartedDateTime
p1332
V2017-04-16T08:40:15.919-05:00
p1333
sVcache
p1334
(dp1335
sVrequest
p1336
(dp1337
Vcomment
p1338
g4
sVcookies
p1339
(lp1340
sVurl
p1341
Vhttps://www.google.com/gen_204?atyp=i&ct=slh&cad=&ei=JXTzWImcLcq0jwSk37OIAw&m=V&t=C&s=1&v=2&pv=0.9885207600202782&me=1:1492349993657,x:6,V,0,0,1280,944:0,N,1,JXTzWImcLcq0jwSk37OIAw:0,R,1,25,24,155,1217,115:0,R,1,32,8,291,1249,393:0,R,1,33,8,291,1249,393:0,R,1,36,0,355,1265,349:0,R,1,58,8,694,1249,488:0,R,1,60,8,694,1197,488:0,R,1,62,95,694,1024,120:0,R,1,79,16,814,1189,104:0,R,1,86,16,918,1189,104:3,B,3752:17262,e,U&zx=1492350015917
p1342
sVqueryString
p1343
(lp1344
(dp1345
Vname
p1346
Vatyp
p1347
sVvalue
p1348
g30
sa(dp1349
Vname
p1350
Vct
p1351
sVvalue
p1352
Vslh
p1353
sa(dp1354
Vname
p1355
Vcad
p1356
sVvalue
p1357
g4
sa(dp1358
Vname
p1359
Vei
p1360
sVvalue
p1361
VJXTzWImcLcq0jwSk37OIAw
p1362
sa(dp1363
Vname
p1364
g47
sVvalue
p1365
g49
sa(dp1366
Vname
p1367
g52
sVvalue
p1368
g54
sa(dp1369
Vname
p1370
g57
sVvalue
p1371
g59
sa(dp1372
Vname
p1373
g62
sVvalue
p1374
g64
sa(dp1375
Vname
p1376
Vpv
p1377
sVvalue
p1378
V0.9885207600202782
p1379
sa(dp1380
Vname
p1381
Vme
p1382
sVvalue
p1383
V1:1492349993657,x:6,V,0,0,1280,944:0,N,1,JXTzWImcLcq0jwSk37OIAw:0,R,1,25,24,155,1217,115:0,R,1,32,8,291,1249,393:0,R,1,33,8,291,1249,393:0,R,1,36,0,355,1265,349:0,R,1,58,8,694,1249,488:0,R,1,60,8,694,1197,488:0,R,1,62,95,694,1024,120:0,R,1,79,16,814,1189,104:0,R,1,86,16,918,1189,104:3,B,3752:17262,e,U
p1384
sa(dp1385
Vname
p1386
Vzx
p1387
sVvalue
p1388
V1492350015917
p1389
sasVheaders
p1390
(lp1391
sVheadersSize
p1392
I953
sVbodySize
p1393
I0
sVmethod
p1394
VGET
p1395
sVhttpVersion
p1396
VHTTP/1.1
p1397
ssVtimings
p1398
(dp1399
Vcomment
p1400
g4
sVreceive
p1401
I0
sVsend
p1402
I0
sVssl
p1403
I-1
sVconnect
p1404
I-1
sVdns
p1405
I-1
sVwait
p1406
I36
sVblocked
p1407
I-1
ssVtime
p1408
I36
sVresponse
p1409
(dp1410
Vstatus
p1411
I204
sVcomment
p1412
g4
sVcookies
p1413
(lp1414
sVstatusText
p1415
VNo Content
p1416
sVcontent
p1417
(dp1418
VmimeType
p1419
Vtext/html; charset=UTF-8
p1420
sVcomment
p1421
g4
sVsize
p1422
I0
ssVheaders
p1423
(lp1424
sVheadersSize
p1425
I248
sVredirectURL
p1426
g4
sVbodySize
p1427
I0
sVhttpVersion
p1428
VHTTP/1.1
p1429
ssasVversion
p1430
V1.2
p1431
sVpages
p1432
(lp1433
(dp1434
VpageTimings
p1435
(dp1436
Vcomment
p1437
g4
ssVcomment
p1438
g4
sVtitle
p1439
VMaui Brewing Company
p1440
sVid
p1441
VMaui Brewing Company
p1442
sVstartedDateTime
p1443
V2017-04-16T08:40:10.922-05:00
p1444
sasVcreator
p1445
(dp1446
Vcomment
p1447
g4
sVversion
p1448
V2.1.4
p1449
sVname
p1450
VBrowserMob Proxy
p1451
sss.