(dp0
Vlog
p1
(dp2
Vcomment
p3
V
p4
sVentries
p5
(lp6
(dp7
Vcomment
p8
g4
sVserverIPAddress
p9
V216.58.216.196
p10
sVpageref
p11
VBoston Red Sox
p12
sVstartedDateTime
p13
V2017-04-16T08:25:25.573-05:00
p14
sVcache
p15
(dp16
sVrequest
p17
(dp18
Vcomment
p19
g4
sVcookies
p20
(lp21
sVurl
p22
Vhttps://www.google.com/gen_204?atyp=i&ct=slh&cad=&ei=rHDzWMPpB6G7jwTu6qWoDg&m=V&t=C&s=1&v=2&pv=0.9140412684394725&me=1:1492349103767,x:2,V,0,0,1280,944:0,N,1,rHDzWMPpB6G7jwTu6qWoDg:0,R,1,24,0,155,1197,502:0,R,1,25,0,155,1197,500:0,R,1,78,8,665,1264,545:0,R,1,79,8,709,1264,315:0,R,1,80,0,709,1280,335:2,B,4519:21799,e,U&zx=1492349125571
p23
sVqueryString
p24
(lp25
(dp26
Vname
p27
Vatyp
p28
sVvalue
p29
Vi
p30
sa(dp31
Vname
p32
Vct
p33
sVvalue
p34
Vslh
p35
sa(dp36
Vname
p37
Vcad
p38
sVvalue
p39
g4
sa(dp40
Vname
p41
Vei
p42
sVvalue
p43
VrHDzWMPpB6G7jwTu6qWoDg
p44
sa(dp45
Vname
p46
Vm
p47
sVvalue
p48
VV
p49
sa(dp50
Vname
p51
Vt
p52
sVvalue
p53
VC
p54
sa(dp55
Vname
p56
Vs
p57
sVvalue
p58
V1
p59
sa(dp60
Vname
p61
Vv
p62
sVvalue
p63
V2
p64
sa(dp65
Vname
p66
Vpv
p67
sVvalue
p68
V0.9140412684394725
p69
sa(dp70
Vname
p71
Vme
p72
sVvalue
p73
V1:1492349103767,x:2,V,0,0,1280,944:0,N,1,rHDzWMPpB6G7jwTu6qWoDg:0,R,1,24,0,155,1197,502:0,R,1,25,0,155,1197,500:0,R,1,78,8,665,1264,545:0,R,1,79,8,709,1264,315:0,R,1,80,0,709,1280,335:2,B,4519:21799,e,U
p74
sa(dp75
Vname
p76
Vzx
p77
sVvalue
p78
V1492349125571
p79
sasVheaders
p80
(lp81
sVheadersSize
p82
I853
sVbodySize
p83
I0
sVmethod
p84
VGET
p85
sVhttpVersion
p86
VHTTP/1.1
p87
ssVtimings
p88
(dp89
Vcomment
p90
g4
sVreceive
p91
I0
sVsend
p92
I0
sVssl
p93
I-1
sVconnect
p94
I-1
sVdns
p95
I-1
sVwait
p96
I0
sVblocked
p97
I-1
ssVtime
p98
I0
sVresponse
p99
(dp100
Vstatus
p101
I0
sVcomment
p102
g4
sVcookies
p103
(lp104
sV_error
p105
VNo response received
p106
sVstatusText
p107
g4
sVcontent
p108
(dp109
VmimeType
p110
g4
sVcomment
p111
g4
sVsize
p112
I0
ssVheaders
p113
(lp114
sVheadersSize
p115
I-1
sVredirectURL
p116
g4
sVbodySize
p117
I-1
sVhttpVersion
p118
Vunknown
p119
ssa(dp120
Vcomment
p121
g4
sVserverIPAddress
p122
V216.58.216.196
p123
sVpageref
p124
VBoston Red Sox
p125
sVstartedDateTime
p126
V2017-04-16T08:25:25.626-05:00
p127
sVcache
p128
(dp129
sVrequest
p130
(dp131
Vcomment
p132
g4
sVcookies
p133
(lp134
sVurl
p135
Vhttp://www.google.com/
p136
sVqueryString
p137
(lp138
sVheaders
p139
(lp140
sVheadersSize
p141
I613
sVbodySize
p142
I0
sVmethod
p143
VGET
p144
sVhttpVersion
p145
VHTTP/1.1
p146
ssVtimings
p147
(dp148
Vcomment
p149
g4
sVreceive
p150
I0
sVsend
p151
I0
sVssl
p152
I-1
sVconnect
p153
I-1
sVdns
p154
I-1
sVwait
p155
I126
sVblocked
p156
I-1
ssVtime
p157
I126
sVresponse
p158
(dp159
Vstatus
p160
I302
sVcomment
p161
g4
sVcookies
p162
(lp163
sVstatusText
p164
VFound
p165
sVcontent
p166
(dp167
VmimeType
p168
Vtext/html; charset=UTF-8
p169
sVcomment
p170
g4
sVsize
p171
I0
ssVheaders
p172
(lp173
sVheadersSize
p174
I609
sVredirectURL
p175
Vhttps://www.google.com/?gws_rd=ssl
p176
sVbodySize
p177
I231
sVhttpVersion
p178
VHTTP/1.1
p179
ssa(dp180
Vcomment
p181
g4
sVserverIPAddress
p182
V216.58.216.196
p183
sVpageref
p184
VBoston Red Sox
p185
sVstartedDateTime
p186
V2017-04-16T08:25:25.575-05:00
p187
sVcache
p188
(dp189
sVrequest
p190
(dp191
Vcomment
p192
g4
sVcookies
p193
(lp194
sVurl
p195
Vhttps://www.google.com
p196
sVqueryString
p197
(lp198
sVheaders
p199
(lp200
sVheadersSize
p201
I0
sVbodySize
p202
I0
sVmethod
p203
VCONNECT
p204
sVhttpVersion
p205
VHTTP/1.1
p206
ssVtimings
p207
(dp208
Vcomment
p209
g4
sVreceive
p210
I0
sVsend
p211
I0
sVssl
p212
I-1
sVconnect
p213
I161
sVdns
p214
I0
sVwait
p215
I0
sVblocked
p216
I0
ssVtime
p217
I161
sVresponse
p218
(dp219
Vstatus
p220
I0
sVcomment
p221
g4
sVcookies
p222
(lp223
sV_error
p224
VUnable to connect to host
p225
sVstatusText
p226
g4
sVcontent
p227
(dp228
VmimeType
p229
g4
sVcomment
p230
g4
sVsize
p231
I0
ssVheaders
p232
(lp233
sVheadersSize
p234
I-1
sVredirectURL
p235
g4
sVbodySize
p236
I-1
sVhttpVersion
p237
Vunknown
p238
ssa(dp239
Vcomment
p240
g4
sVserverIPAddress
p241
V216.58.216.196
p242
sVpageref
p243
VBoston Red Sox
p244
sVstartedDateTime
p245
V2017-04-16T08:25:25.812-05:00
p246
sVcache
p247
(dp248
sVrequest
p249
(dp250
Vcomment
p251
g4
sVcookies
p252
(lp253
sVurl
p254
Vhttps://www.google.com/?gws_rd=ssl
p255
sVqueryString
p256
(lp257
(dp258
Vname
p259
Vgws_rd
p260
sVvalue
p261
Vssl
p262
sasVheaders
p263
(lp264
sVheadersSize
p265
I607
sVbodySize
p266
I0
sVmethod
p267
VGET
p268
sVhttpVersion
p269
VHTTP/1.1
p270
ssVtimings
p271
(dp272
Vcomment
p273
g4
sVreceive
p274
I24
sVsend
p275
I0
sVssl
p276
I22
sVconnect
p277
I51
sVdns
p278
I0
sVwait
p279
I78
sVblocked
p280
I0
ssVtime
p281
I154
sVresponse
p282
(dp283
Vstatus
p284
I200
sVcomment
p285
g4
sVcookies
p286
(lp287
sVstatusText
p288
VOK
p289
sVcontent
p290
(dp291
VmimeType
p292
Vtext/html; charset=UTF-8
p293
sVcomment
p294
g4
sVsize
p295
I0
ssVheaders
p296
(lp297
sVheadersSize
p298
I721
sVredirectURL
p299
g4
sVbodySize
p300
I34290
sVhttpVersion
p301
VHTTP/1.1
p302
ssa(dp303
Vcomment
p304
g4
sVserverIPAddress
p305
V216.58.216.196
p306
sVpageref
p307
VBoston Red Sox
p308
sVstartedDateTime
p309
V2017-04-16T08:25:25.958-05:00
p310
sVcache
p311
(dp312
sVrequest
p313
(dp314
Vcomment
p315
g4
sVcookies
p316
(lp317
sVurl
p318
Vhttps://www.google.com/gen_204?atyp=i&ct=slh&cad=&ei=rHDzWMPpB6G7jwTu6qWoDg&s=2&v=2&pv=0.9140412684394725&me=11:1492349125893,e,H&zx=1492349125895
p319
sVqueryString
p320
(lp321
(dp322
Vname
p323
Vatyp
p324
sVvalue
p325
g30
sa(dp326
Vname
p327
Vct
p328
sVvalue
p329
Vslh
p330
sa(dp331
Vname
p332
Vcad
p333
sVvalue
p334
g4
sa(dp335
Vname
p336
Vei
p337
sVvalue
p338
VrHDzWMPpB6G7jwTu6qWoDg
p339
sa(dp340
Vname
p341
g57
sVvalue
p342
g64
sa(dp343
Vname
p344
g62
sVvalue
p345
g64
sa(dp346
Vname
p347
Vpv
p348
sVvalue
p349
V0.9140412684394725
p350
sa(dp351
Vname
p352
Vme
p353
sVvalue
p354
V11:1492349125893,e,H
p355
sa(dp356
Vname
p357
Vzx
p358
sVvalue
p359
V1492349125895
p360
sasVheaders
p361
(lp362
sVheadersSize
p363
I663
sVbodySize
p364
I0
sVmethod
p365
VGET
p366
sVhttpVersion
p367
VHTTP/1.1
p368
ssVtimings
p369
(dp370
Vcomment
p371
g4
sVreceive
p372
I0
sVsend
p373
I0
sVssl
p374
I27
sVconnect
p375
I55
sVdns
p376
I0
sVwait
p377
I35
sVblocked
p378
I0
ssVtime
p379
I91
sVresponse
p380
(dp381
Vstatus
p382
I204
sVcomment
p383
g4
sVcookies
p384
(lp385
sVstatusText
p386
VNo Content
p387
sVcontent
p388
(dp389
VmimeType
p390
Vtext/html; charset=UTF-8
p391
sVcomment
p392
g4
sVsize
p393
I0
ssVheaders
p394
(lp395
sVheadersSize
p396
I248
sVredirectURL
p397
g4
sVbodySize
p398
I0
sVhttpVersion
p399
VHTTP/1.1
p400
ssa(dp401
Vcomment
p402
g4
sVserverIPAddress
p403
V216.58.216.196
p404
sVpageref
p405
VBoston Red Sox
p406
sVstartedDateTime
p407
V2017-04-16T08:25:26.171-05:00
p408
sVcache
p409
(dp410
sVrequest
p411
(dp412
Vcomment
p413
g4
sVcookies
p414
(lp415
sVurl
p416
Vhttps://www.google.com/gen_204?s=mobilewebhp&atyp=csi&ei=xHDzWIbAMcTajwTx47iwAg&imc=1&imn=1&imp=0&adh=&xjs=init.26.12.sb_mob.19.dvl.4.c.1.jsa.1.mbsf.1&ima=1&rt=xjsls.27,prt.28,iml.28,dcl.60,xjses.122,xjsee.208,xjs.209,ol.240,aft.28,wsrt.352,cst.0,dnst.0,rqst.105,rspt.106,rqstt.242,unt.184,cstt.184,dit.400
p417
sVqueryString
p418
(lp419
(dp420
Vname
p421
g57
sVvalue
p422
Vmobilewebhp
p423
sa(dp424
Vname
p425
Vatyp
p426
sVvalue
p427
Vcsi
p428
sa(dp429
Vname
p430
Vei
p431
sVvalue
p432
VxHDzWIbAMcTajwTx47iwAg
p433
sa(dp434
Vname
p435
Vimc
p436
sVvalue
p437
g59
sa(dp438
Vname
p439
Vimn
p440
sVvalue
p441
g59
sa(dp442
Vname
p443
Vimp
p444
sVvalue
p445
V0
p446
sa(dp447
Vname
p448
Vadh
p449
sVvalue
p450
g4
sa(dp451
Vname
p452
Vxjs
p453
sVvalue
p454
Vinit.26.12.sb_mob.19.dvl.4.c.1.jsa.1.mbsf.1
p455
sa(dp456
Vname
p457
Vima
p458
sVvalue
p459
g59
sa(dp460
Vname
p461
Vrt
p462
sVvalue
p463
Vxjsls.27,prt.28,iml.28,dcl.60,xjses.122,xjsee.208,xjs.209,ol.240,aft.28,wsrt.352,cst.0,dnst.0,rqst.105,rspt.106,rqstt.242,unt.184,cstt.184,dit.400
p464
sasVheaders
p465
(lp466
sVheadersSize
p467
I834
sVbodySize
p468
I0
sVmethod
p469
VGET
p470
sVhttpVersion
p471
VHTTP/1.1
p472
ssVtimings
p473
(dp474
Vcomment
p475
g4
sVreceive
p476
I0
sVsend
p477
I0
sVssl
p478
I-1
sVconnect
p479
I-1
sVdns
p480
I-1
sVwait
p481
I26
sVblocked
p482
I-1
ssVtime
p483
I27
sVresponse
p484
(dp485
Vstatus
p486
I204
sVcomment
p487
g4
sVcookies
p488
(lp489
sVstatusText
p490
VNo Content
p491
sVcontent
p492
(dp493
VmimeType
p494
Vtext/html; charset=UTF-8
p495
sVcomment
p496
g4
sVsize
p497
I0
ssVheaders
p498
(lp499
sVheadersSize
p500
I248
sVredirectURL
p501
g4
sVbodySize
p502
I0
sVhttpVersion
p503
VHTTP/1.1
p504
ssa(dp505
Vcomment
p506
g4
sVserverIPAddress
p507
V216.58.216.196
p508
sVpageref
p509
VBoston Red Sox
p510
sVstartedDateTime
p511
V2017-04-16T08:25:26.327-05:00
p512
sVcache
p513
(dp514
sVrequest
p515
(dp516
Vcomment
p517
g4
sVcookies
p518
(lp519
sVurl
p520
Vhttps://www.google.com/complete/search?client=mobile-gws-hp&hl=en&gs_rn=64&gs_ri=mobile-gws-hp&sla=1&pfq=ben%20shapiro&gm=602&cp=0&gs_id=1&xhr=t&q=B&tch=1&ech=1&psi=xHDzWIbAMcTajwTx47iwAg.1492349126105.1
p521
sVqueryString
p522
(lp523
(dp524
Vname
p525
Vclient
p526
sVvalue
p527
Vmobile-gws-hp
p528
sa(dp529
Vname
p530
Vhl
p531
sVvalue
p532
Ven
p533
sa(dp534
Vname
p535
Vgs_rn
p536
sVvalue
p537
V64
p538
sa(dp539
Vname
p540
Vgs_ri
p541
sVvalue
p542
Vmobile-gws-hp
p543
sa(dp544
Vname
p545
Vsla
p546
sVvalue
p547
g59
sa(dp548
Vname
p549
Vpfq
p550
sVvalue
p551
Vben shapiro
p552
sa(dp553
Vname
p554
Vgm
p555
sVvalue
p556
V602
p557
sa(dp558
Vname
p559
Vcp
p560
sVvalue
p561
g446
sa(dp562
Vname
p563
Vgs_id
p564
sVvalue
p565
g59
sa(dp566
Vname
p567
Vxhr
p568
sVvalue
p569
g52
sa(dp570
Vname
p571
Vq
p572
sVvalue
p573
VB
p574
sa(dp575
Vname
p576
Vtch
p577
sVvalue
p578
g59
sa(dp579
Vname
p580
Vech
p581
sVvalue
p582
g59
sa(dp583
Vname
p584
Vpsi
p585
sVvalue
p586
VxHDzWIbAMcTajwTx47iwAg.1492349126105.1
p587
sasVheaders
p588
(lp589
sVheadersSize
p590
I731
sVbodySize
p591
I0
sVmethod
p592
VGET
p593
sVhttpVersion
p594
VHTTP/1.1
p595
ssVtimings
p596
(dp597
Vcomment
p598
g4
sVreceive
p599
I0
sVsend
p600
I0
sVssl
p601
I-1
sVconnect
p602
I-1
sVdns
p603
I-1
sVwait
p604
I0
sVblocked
p605
I-1
ssVtime
p606
I0
sVresponse
p607
(dp608
Vstatus
p609
I0
sVcomment
p610
g4
sVcookies
p611
(lp612
sV_error
p613
VNo response received
p614
sVstatusText
p615
g4
sVcontent
p616
(dp617
VmimeType
p618
g4
sVcomment
p619
g4
sVsize
p620
I0
ssVheaders
p621
(lp622
sVheadersSize
p623
I-1
sVredirectURL
p624
g4
sVbodySize
p625
I-1
sVhttpVersion
p626
Vunknown
p627
ssa(dp628
Vcomment
p629
g4
sVserverIPAddress
p630
V216.58.216.196
p631
sVpageref
p632
VBoston Red Sox
p633
sVstartedDateTime
p634
V2017-04-16T08:25:26.398-05:00
p635
sVcache
p636
(dp637
sVrequest
p638
(dp639
Vcomment
p640
g4
sVcookies
p641
(lp642
sVurl
p643
Vhttps://www.google.com/search?site=&source=hp&ei=xHDzWIbAMcTajwTx47iwAg&q=Boston+Red+Sox&oq=Boston+Red+Sox&gs_l=mobile-gws-hp.3...201.237.0.269.14.1.0.0.0.0.0.0..0.0....0...1c.1.64.mobile-gws-hp..14.0.0.Ip4zRHQI5Us
p644
sVqueryString
p645
(lp646
(dp647
Vname
p648
Vsite
p649
sVvalue
p650
g4
sa(dp651
Vname
p652
Vsource
p653
sVvalue
p654
Vhp
p655
sa(dp656
Vname
p657
Vei
p658
sVvalue
p659
VxHDzWIbAMcTajwTx47iwAg
p660
sa(dp661
Vname
p662
g572
sVvalue
p663
VBoston Red Sox
p664
sa(dp665
Vname
p666
Voq
p667
sVvalue
p668
VBoston Red Sox
p669
sa(dp670
Vname
p671
Vgs_l
p672
sVvalue
p673
Vmobile-gws-hp.3...201.237.0.269.14.1.0.0.0.0.0.0..0.0....0...1c.1.64.mobile-gws-hp..14.0.0.Ip4zRHQI5Us
p674
sasVheaders
p675
(lp676
sVheadersSize
p677
I832
sVbodySize
p678
I0
sVmethod
p679
VGET
p680
sVhttpVersion
p681
VHTTP/1.1
p682
ssVtimings
p683
(dp684
Vcomment
p685
g4
sVreceive
p686
I867
sVsend
p687
I0
sVssl
p688
I-1
sVconnect
p689
I-1
sVdns
p690
I-1
sVwait
p691
I113
sVblocked
p692
I-1
ssVtime
p693
I981
sVresponse
p694
(dp695
Vstatus
p696
I200
sVcomment
p697
g4
sVcookies
p698
(lp699
sVstatusText
p700
VOK
p701
sVcontent
p702
(dp703
VmimeType
p704
Vtext/html; charset=UTF-8
p705
sVcomment
p706
g4
sVsize
p707
I0
ssVheaders
p708
(lp709
sVheadersSize
p710
I363
sVredirectURL
p711
g4
sVbodySize
p712
I160410
sVhttpVersion
p713
VHTTP/1.1
p714
ssa(dp715
Vcomment
p716
g4
sVserverIPAddress
p717
V172.217.0.3
p718
sVpageref
p719
VBoston Red Sox
p720
sVstartedDateTime
p721
V2017-04-16T08:25:27.312-05:00
p722
sVcache
p723
(dp724
sVrequest
p725
(dp726
Vcomment
p727
g4
sVcookies
p728
(lp729
sVurl
p730
Vhttps://ssl.gstatic.com/onebox/media/sports/logos/PYjW8IShPc7b-aG2JX5p9w_48x48.png
p731
sVqueryString
p732
(lp733
sVheaders
p734
(lp735
sVheadersSize
p736
I397
sVbodySize
p737
I0
sVmethod
p738
VGET
p739
sVhttpVersion
p740
VHTTP/1.1
p741
ssVtimings
p742
(dp743
Vcomment
p744
g4
sVreceive
p745
I0
sVsend
p746
I0
sVssl
p747
I-1
sVconnect
p748
I-1
sVdns
p749
I-1
sVwait
p750
I39
sVblocked
p751
I-1
ssVtime
p752
I40
sVresponse
p753
(dp754
Vstatus
p755
I200
sVcomment
p756
g4
sVcookies
p757
(lp758
sVstatusText
p759
VOK
p760
sVcontent
p761
(dp762
VmimeType
p763
Vimage/png
p764
sVcomment
p765
g4
sVsize
p766
I0
ssVheaders
p767
(lp768
sVheadersSize
p769
I424
sVredirectURL
p770
g4
sVbodySize
p771
I2594
sVhttpVersion
p772
VHTTP/1.1
p773
ssa(dp774
Vcomment
p775
g4
sVserverIPAddress
p776
V172.217.0.3
p777
sVpageref
p778
VBoston Red Sox
p779
sVstartedDateTime
p780
V2017-04-16T08:25:27.317-05:00
p781
sVcache
p782
(dp783
sVrequest
p784
(dp785
Vcomment
p786
g4
sVcookies
p787
(lp788
sVurl
p789
Vhttps://ssl.gstatic.com/onebox/media/sports/logos/_yTxeBZvNAZv5vl8BNjOvA_96x96.png
p790
sVqueryString
p791
(lp792
sVheaders
p793
(lp794
sVheadersSize
p795
I397
sVbodySize
p796
I0
sVmethod
p797
VGET
p798
sVhttpVersion
p799
VHTTP/1.1
p800
ssVtimings
p801
(dp802
Vcomment
p803
g4
sVreceive
p804
I0
sVsend
p805
I0
sVssl
p806
I-1
sVconnect
p807
I-1
sVdns
p808
I-1
sVwait
p809
I35
sVblocked
p810
I-1
ssVtime
p811
I36
sVresponse
p812
(dp813
Vstatus
p814
I200
sVcomment
p815
g4
sVcookies
p816
(lp817
sVstatusText
p818
VOK
p819
sVcontent
p820
(dp821
VmimeType
p822
Vimage/png
p823
sVcomment
p824
g4
sVsize
p825
I0
ssVheaders
p826
(lp827
sVheadersSize
p828
I400
sVredirectURL
p829
g4
sVbodySize
p830
I6464
sVhttpVersion
p831
VHTTP/1.1
p832
ssa(dp833
Vcomment
p834
g4
sVserverIPAddress
p835
V172.217.0.3
p836
sVpageref
p837
VBoston Red Sox
p838
sVstartedDateTime
p839
V2017-04-16T08:25:27.318-05:00
p840
sVcache
p841
(dp842
sVrequest
p843
(dp844
Vcomment
p845
g4
sVcookies
p846
(lp847
sVurl
p848
Vhttps://ssl.gstatic.com/onebox/media/sports/logos/PYjW8IShPc7b-aG2JX5p9w_96x96.png
p849
sVqueryString
p850
(lp851
sVheaders
p852
(lp853
sVheadersSize
p854
I397
sVbodySize
p855
I0
sVmethod
p856
VGET
p857
sVhttpVersion
p858
VHTTP/1.1
p859
ssVtimings
p860
(dp861
Vcomment
p862
g4
sVreceive
p863
I0
sVsend
p864
I0
sVssl
p865
I-1
sVconnect
p866
I-1
sVdns
p867
I-1
sVwait
p868
I41
sVblocked
p869
I-1
ssVtime
p870
I41
sVresponse
p871
(dp872
Vstatus
p873
I200
sVcomment
p874
g4
sVcookies
p875
(lp876
sVstatusText
p877
VOK
p878
sVcontent
p879
(dp880
VmimeType
p881
Vimage/png
p882
sVcomment
p883
g4
sVsize
p884
I0
ssVheaders
p885
(lp886
sVheadersSize
p887
I424
sVredirectURL
p888
g4
sVbodySize
p889
I5757
sVhttpVersion
p890
VHTTP/1.1
p891
ssa(dp892
Vcomment
p893
g4
sVserverIPAddress
p894
V172.217.0.3
p895
sVpageref
p896
VBoston Red Sox
p897
sVstartedDateTime
p898
V2017-04-16T08:25:27.318-05:00
p899
sVcache
p900
(dp901
sVrequest
p902
(dp903
Vcomment
p904
g4
sVcookies
p905
(lp906
sVurl
p907
Vhttps://ssl.gstatic.com/onebox/media/sports/logos/_yTxeBZvNAZv5vl8BNjOvA_48x48.png
p908
sVqueryString
p909
(lp910
sVheaders
p911
(lp912
sVheadersSize
p913
I397
sVbodySize
p914
I0
sVmethod
p915
VGET
p916
sVhttpVersion
p917
VHTTP/1.1
p918
ssVtimings
p919
(dp920
Vcomment
p921
g4
sVreceive
p922
I0
sVsend
p923
I0
sVssl
p924
I-1
sVconnect
p925
I-1
sVdns
p926
I-1
sVwait
p927
I34
sVblocked
p928
I-1
ssVtime
p929
I34
sVresponse
p930
(dp931
Vstatus
p932
I200
sVcomment
p933
g4
sVcookies
p934
(lp935
sVstatusText
p936
VOK
p937
sVcontent
p938
(dp939
VmimeType
p940
Vimage/png
p941
sVcomment
p942
g4
sVsize
p943
I0
ssVheaders
p944
(lp945
sVheadersSize
p946
I402
sVredirectURL
p947
g4
sVbodySize
p948
I2945
sVhttpVersion
p949
VHTTP/1.1
p950
ssa(dp951
Vcomment
p952
g4
sVserverIPAddress
p953
V216.58.216.196
p954
sVpageref
p955
VBoston Red Sox
p956
sVstartedDateTime
p957
V2017-04-16T08:25:27.761-05:00
p958
sVcache
p959
(dp960
sVrequest
p961
(dp962
Vcomment
p963
g4
sVcookies
p964
(lp965
sVurl
p966
Vhttps://www.google.com/xjs/_/js/k=xjs.qs.en_US.pCBXVCvTH3s.O/m=syl,syj,syn,em3,em8,em6,em7,sym,aa,abd,sy2g,sy2k,sy29,sy2j,sy2d,sy2a,sy2c,sy2f,sy2l,sy2m,sy2n,emd,async,sybn,sybi,sybo,sy1f,sy45,sy46,sy9w,sybk,sybj,sybp,sy1g,sy30,sy47,sybm,sybl,sybq,sy1h,sybh,dvl,syep,foot,ipv6,sy5g,sy5j,sy5h,sy6u,sy7d,sy7j,sy2x,sy5i,sy89,sy7e,sy23,sy2y,sy5k,sy6c,sy91,sy9b,sy9l,syhi,syhj,syhk,syhl,lr,lrli,sy32,emj,shm,sykh,tl,sy2t,sy38,em12,vs,sy66,sy67,sy4u,sy69,sykk,sykl,tnv,bct,sy48,sy3a,sy3c,sy5b,sy4x,sy4z,sy56,sy1y,sy31,sy4y,sy22,sy6i,sy4h,sy6h,sy6o,sya3,sy5d,sy25,sy6j,sy6k,sy6r,sya2,sy5e,sy6n,emb,em9,ema,sy24,sy2o,sy4c,sy65,sy6p,sy6s,sy6w,sy72,sya4,syd7,syel,syho,syhs,syhu,syhv,sio,sy6y,sycu,d3l,sy5x,qif,tabs,sy9m,syac,sy4g,sy9n,syhz,syl6,ssc,sy26,sykr,strm,syh6,syl5,kac,kae,strx,twt,syj7,syj8,syj2,syjc,syj6,syj3,syjg,syjh,syje,syjd,syjk,syji,syjf,syj0,emr,ems,emt,emu,emv,emx,emy,emz,em10,em11,udlg,sy5z,atn,sy1i,sy1j,sy4i,sya1,ampfp/am=gCP4LtMEBXQA2RUaq_oFBISzAFA/rt=j/d=0/t=zcms/rs=ACT90oFwm4NZCwIcuuiqmthdlECdBzkhRA
p967
sVqueryString
p968
(lp969
sVheaders
p970
(lp971
sVheadersSize
p972
I1534
sVbodySize
p973
I0
sVmethod
p974
VGET
p975
sVhttpVersion
p976
VHTTP/1.1
p977
ssVtimings
p978
(dp979
Vcomment
p980
g4
sVreceive
p981
I37
sVsend
p982
I0
sVssl
p983
I-1
sVconnect
p984
I-1
sVdns
p985
I-1
sVwait
p986
I14
sVblocked
p987
I-1
ssVtime
p988
I51
sVresponse
p989
(dp990
Vstatus
p991
I200
sVcomment
p992
g4
sVcookies
p993
(lp994
sVstatusText
p995
VOK
p996
sVcontent
p997
(dp998
VmimeType
p999
Vtext/javascript; charset=UTF-8
p1000
sVcomment
p1001
g4
sVsize
p1002
I0
ssVheaders
p1003
(lp1004
sVheadersSize
p1005
I464
sVredirectURL
p1006
g4
sVbodySize
p1007
I165130
sVhttpVersion
p1008
VHTTP/1.1
p1009
ssa(dp1010
Vcomment
p1011
g4
sVserverIPAddress
p1012
V216.58.216.196
p1013
sVpageref
p1014
VBoston Red Sox
p1015
sVstartedDateTime
p1016
V2017-04-16T08:25:28.175-05:00
p1017
sVcache
p1018
(dp1019
sVrequest
p1020
(dp1021
Vcomment
p1022
g4
sVcookies
p1023
(lp1024
sVurl
p1025
Vhttps://www.google.com/async/ampfp?vet=10ahUKEwjrnYDcianTAhWG0YMKHbv4BGsQtZoBCOAB..i&ei=xXDzWKunGIajjwS78ZPYBg&yv=2&async=_id:ampfp-async,_pms:qs
p1026
sVqueryString
p1027
(lp1028
(dp1029
Vname
p1030
Vvet
p1031
sVvalue
p1032
V10ahUKEwjrnYDcianTAhWG0YMKHbv4BGsQtZoBCOAB..i
p1033
sa(dp1034
Vname
p1035
Vei
p1036
sVvalue
p1037
VxXDzWKunGIajjwS78ZPYBg
p1038
sa(dp1039
Vname
p1040
Vyv
p1041
sVvalue
p1042
g64
sa(dp1043
Vname
p1044
Vasync
p1045
sVvalue
p1046
V_id:ampfp-async,_pms:qs
p1047
sasVheaders
p1048
(lp1049
sVheadersSize
p1050
I662
sVbodySize
p1051
I0
sVmethod
p1052
VGET
p1053
sVhttpVersion
p1054
VHTTP/1.1
p1055
ssVtimings
p1056
(dp1057
Vcomment
p1058
g4
sVreceive
p1059
I0
sVsend
p1060
I0
sVssl
p1061
I-1
sVconnect
p1062
I-1
sVdns
p1063
I-1
sVwait
p1064
I47
sVblocked
p1065
I-1
ssVtime
p1066
I48
sVresponse
p1067
(dp1068
Vstatus
p1069
I200
sVcomment
p1070
g4
sVcookies
p1071
(lp1072
sVstatusText
p1073
VOK
p1074
sVcontent
p1075
(dp1076
VmimeType
p1077
Vtext/html; charset=UTF-8
p1078
sVcomment
p1079
g4
sVsize
p1080
I0
ssVheaders
p1081
(lp1082
sVheadersSize
p1083
I383
sVredirectURL
p1084
g4
sVbodySize
p1085
I4525
sVhttpVersion
p1086
VHTTP/1.1
p1087
ssa(dp1088
Vcomment
p1089
g4
sVserverIPAddress
p1090
V216.58.216.193
p1091
sVpageref
p1092
VBoston Red Sox
p1093
sVstartedDateTime
p1094
V2017-04-16T08:25:28.176-05:00
p1095
sVcache
p1096
(dp1097
sVrequest
p1098
(dp1099
Vcomment
p1100
g4
sVcookies
p1101
(lp1102
sVurl
p1103
Vhttps://cdn.ampproject.org/preconnect.gif?0.7238094867679679
p1104
sVqueryString
p1105
(lp1106
(dp1107
Vname
p1108
V0.7238094867679679
p1109
sVvalue
p1110
g4
sasVheaders
p1111
(lp1112
sVheadersSize
p1113
I375
sVbodySize
p1114
I0
sVmethod
p1115
VGET
p1116
sVhttpVersion
p1117
VHTTP/1.1
p1118
ssVtimings
p1119
(dp1120
Vcomment
p1121
g4
sVreceive
p1122
I0
sVsend
p1123
I0
sVssl
p1124
I-1
sVconnect
p1125
I-1
sVdns
p1126
I-1
sVwait
p1127
I34
sVblocked
p1128
I-1
ssVtime
p1129
I35
sVresponse
p1130
(dp1131
Vstatus
p1132
I200
sVcomment
p1133
g4
sVcookies
p1134
(lp1135
sVstatusText
p1136
VOK
p1137
sVcontent
p1138
(dp1139
VmimeType
p1140
Vimage/gif
p1141
sVcomment
p1142
g4
sVsize
p1143
I0
ssVheaders
p1144
(lp1145
sVheadersSize
p1146
I826
sVredirectURL
p1147
g4
sVbodySize
p1148
I37
sVhttpVersion
p1149
VHTTP/1.1
p1150
ssa(dp1151
Vcomment
p1152
g4
sVserverIPAddress
p1153
V216.58.216.196
p1154
sVpageref
p1155
VBoston Red Sox
p1156
sVstartedDateTime
p1157
V2017-04-16T08:25:28.324-05:00
p1158
sVcache
p1159
(dp1160
sVrequest
p1161
(dp1162
Vcomment
p1163
g4
sVcookies
p1164
(lp1165
sVurl
p1166
Vhttps://www.google.com/gen_204?s=web&atyp=csi&ei=xXDzWKunGIajjwS78ZPYBg&imc=73&imn=73&imp=28&adh=&xjs=init.32.16.sb_mob.21.async.3.dvl.3.c.1.mbsf.1&ima=17&rt=prt.896,iml.1016,xjsls.896,dcl.1003,xjses.1090,xjsee.1229,xjs.1230,ol.1783,aft.1016,wsrt.127,cst.0,dnst.0,rqst.982,rspt.868,rqstt.3,unt.2,cstt.2,dit.1075
p1167
sVqueryString
p1168
(lp1169
(dp1170
Vname
p1171
g57
sVvalue
p1172
Vweb
p1173
sa(dp1174
Vname
p1175
Vatyp
p1176
sVvalue
p1177
Vcsi
p1178
sa(dp1179
Vname
p1180
Vei
p1181
sVvalue
p1182
VxXDzWKunGIajjwS78ZPYBg
p1183
sa(dp1184
Vname
p1185
Vimc
p1186
sVvalue
p1187
V73
p1188
sa(dp1189
Vname
p1190
Vimn
p1191
sVvalue
p1192
V73
p1193
sa(dp1194
Vname
p1195
Vimp
p1196
sVvalue
p1197
V28
p1198
sa(dp1199
Vname
p1200
Vadh
p1201
sVvalue
p1202
g4
sa(dp1203
Vname
p1204
Vxjs
p1205
sVvalue
p1206
Vinit.32.16.sb_mob.21.async.3.dvl.3.c.1.mbsf.1
p1207
sa(dp1208
Vname
p1209
Vima
p1210
sVvalue
p1211
V17
p1212
sa(dp1213
Vname
p1214
Vrt
p1215
sVvalue
p1216
Vprt.896,iml.1016,xjsls.896,dcl.1003,xjses.1090,xjsee.1229,xjs.1230,ol.1783,aft.1016,wsrt.127,cst.0,dnst.0,rqst.982,rspt.868,rqstt.3,unt.2,cstt.2,dit.1075
p1217
sasVheaders
p1218
(lp1219
sVheadersSize
p1220
I828
sVbodySize
p1221
I0
sVmethod
p1222
VGET
p1223
sVhttpVersion
p1224
VHTTP/1.1
p1225
ssVtimings
p1226
(dp1227
Vcomment
p1228
g4
sVreceive
p1229
I0
sVsend
p1230
I0
sVssl
p1231
I-1
sVconnect
p1232
I-1
sVdns
p1233
I-1
sVwait
p1234
I26
sVblocked
p1235
I-1
ssVtime
p1236
I26
sVresponse
p1237
(dp1238
Vstatus
p1239
I204
sVcomment
p1240
g4
sVcookies
p1241
(lp1242
sVstatusText
p1243
VNo Content
p1244
sVcontent
p1245
(dp1246
VmimeType
p1247
Vtext/html; charset=UTF-8
p1248
sVcomment
p1249
g4
sVsize
p1250
I0
ssVheaders
p1251
(lp1252
sVheadersSize
p1253
I248
sVredirectURL
p1254
g4
sVbodySize
p1255
I0
sVhttpVersion
p1256
VHTTP/1.1
p1257
ssa(dp1258
Vcomment
p1259
g4
sVserverIPAddress
p1260
V216.58.216.196
p1261
sVpageref
p1262
VBoston Red Sox
p1263
sVstartedDateTime
p1264
V2017-04-16T08:25:28.371-05:00
p1265
sVcache
p1266
(dp1267
sVrequest
p1268
(dp1269
Vcomment
p1270
g4
sVcookies
p1271
(lp1272
sVurl
p1273
Vhttps://www.google.com/xjs/_/js/k=xjs.qs.en_US.pCBXVCvTH3s.O/m=sy2u,syi2,syi5,syi4,fpv,sy8e,sya8,sy8d,sya6,sya7,sya9,amp,sp/am=gCP4LtMEBXQA2RUaq_oFBISzAFA/rt=j/d=0/t=zcms/rs=ACT90oFwm4NZCwIcuuiqmthdlECdBzkhRA
p1274
sVqueryString
p1275
(lp1276
sVheaders
p1277
(lp1278
sVheadersSize
p1279
I725
sVbodySize
p1280
I0
sVmethod
p1281
VGET
p1282
sVhttpVersion
p1283
VHTTP/1.1
p1284
ssVtimings
p1285
(dp1286
Vcomment
p1287
g4
sVreceive
p1288
I20
sVsend
p1289
I0
sVssl
p1290
I22
sVconnect
p1291
I41
sVdns
p1292
I0
sVwait
p1293
I15
sVblocked
p1294
I0
ssVtime
p1295
I78
sVresponse
p1296
(dp1297
Vstatus
p1298
I200
sVcomment
p1299
g4
sVcookies
p1300
(lp1301
sVstatusText
p1302
VOK
p1303
sVcontent
p1304
(dp1305
VmimeType
p1306
Vtext/javascript; charset=UTF-8
p1307
sVcomment
p1308
g4
sVsize
p1309
I0
ssVheaders
p1310
(lp1311
sVheadersSize
p1312
I464
sVredirectURL
p1313
g4
sVbodySize
p1314
I26986
sVhttpVersion
p1315
VHTTP/1.1
p1316
ssa(dp1317
Vcomment
p1318
g4
sVserverIPAddress
p1319
V216.58.216.196
p1320
sVpageref
p1321
VBoston Red Sox
p1322
sVstartedDateTime
p1323
V2017-04-16T08:25:28.431-05:00
p1324
sVcache
p1325
(dp1326
sVrequest
p1327
(dp1328
Vcomment
p1329
g4
sVcookies
p1330
(lp1331
sVurl
p1332
Vhttps://www.google.com/async/log_amp_item_set?vet=10ahUKEwig7OzcianTAhUI44MKHVSMB-YQooQBCAE..i&ei=xXDzWKunGIajjwS78ZPYBg&yv=2&async=num_items:10,_fmt:jspb
p1333
sVqueryString
p1334
(lp1335
(dp1336
Vname
p1337
Vvet
p1338
sVvalue
p1339
V10ahUKEwig7OzcianTAhUI44MKHVSMB-YQooQBCAE..i
p1340
sa(dp1341
Vname
p1342
Vei
p1343
sVvalue
p1344
VxXDzWKunGIajjwS78ZPYBg
p1345
sa(dp1346
Vname
p1347
Vyv
p1348
sVvalue
p1349
g64
sa(dp1350
Vname
p1351
Vasync
p1352
sVvalue
p1353
Vnum_items:10,_fmt:jspb
p1354
sasVheaders
p1355
(lp1356
sVheadersSize
p1357
I671
sVbodySize
p1358
I0
sVmethod
p1359
VGET
p1360
sVhttpVersion
p1361
VHTTP/1.1
p1362
ssVtimings
p1363
(dp1364
Vcomment
p1365
g4
sVreceive
p1366
I0
sVsend
p1367
I0
sVssl
p1368
I-1
sVconnect
p1369
I-1
sVdns
p1370
I-1
sVwait
p1371
I57
sVblocked
p1372
I-1
ssVtime
p1373
I57
sVresponse
p1374
(dp1375
Vstatus
p1376
I200
sVcomment
p1377
g4
sVcookies
p1378
(lp1379
sVstatusText
p1380
VOK
p1381
sVcontent
p1382
(dp1383
VmimeType
p1384
Vapplication/json; charset=UTF-8
p1385
sVcomment
p1386
g4
sVsize
p1387
I0
ssVheaders
p1388
(lp1389
sVheadersSize
p1390
I417
sVredirectURL
p1391
g4
sVbodySize
p1392
I181
sVhttpVersion
p1393
VHTTP/1.1
p1394
ssa(dp1395
Vcomment
p1396
g4
sVserverIPAddress
p1397
V172.217.0.1
p1398
sVpageref
p1399
VBoston Red Sox
p1400
sVstartedDateTime
p1401
V2017-04-16T08:25:29.635-05:00
p1402
sVcache
p1403
(dp1404
sVrequest
p1405
(dp1406
Vcomment
p1407
g4
sVcookies
p1408
(lp1409
sVurl
p1410
Vhttps://www-bostonglobe-com.cdn.ampproject.org/v/s/www.bostonglobe.com/sports/redsox/2017/04/16/game-rays-red-sox-lineups-and-pregame-notes/78c3WsMur0Z7BSZZj24aFP/amp.html?amp_js_v=9
p1411
sVqueryString
p1412
(lp1413
(dp1414
Vname
p1415
Vamp_js_v
p1416
sVvalue
p1417
V9
p1418
sasVheaders
p1419
(lp1420
sVheadersSize
p1421
I587
sVbodySize
p1422
I0
sVmethod
p1423
VGET
p1424
sVhttpVersion
p1425
VHTTP/1.1
p1426
ssVtimings
p1427
(dp1428
Vcomment
p1429
g4
sVreceive
p1430
I3
sVsend
p1431
I0
sVssl
p1432
I1132
sVconnect
p1433
I1146
sVdns
p1434
I45
sVwait
p1435
I60
sVblocked
p1436
I0
ssVtime
p1437
I1255
sVresponse
p1438
(dp1439
Vstatus
p1440
I200
sVcomment
p1441
g4
sVcookies
p1442
(lp1443
sVstatusText
p1444
VOK
p1445
sVcontent
p1446
(dp1447
VmimeType
p1448
Vtext/html
p1449
sVcomment
p1450
g4
sVsize
p1451
I0
ssVheaders
p1452
(lp1453
sVheadersSize
p1454
I859
sVredirectURL
p1455
g4
sVbodySize
p1456
I5949
sVhttpVersion
p1457
VHTTP/1.1
p1458
ssa(dp1459
Vcomment
p1460
g4
sVserverIPAddress
p1461
V172.217.0.1
p1462
sVpageref
p1463
VBoston Red Sox
p1464
sVstartedDateTime
p1465
V2017-04-16T08:25:29.714-05:00
p1466
sVcache
p1467
(dp1468
sVrequest
p1469
(dp1470
Vcomment
p1471
g4
sVcookies
p1472
(lp1473
sVurl
p1474
Vhttps://www-bostonglobe-com.cdn.ampproject.org/r/s/www.bostonglobe.com/font/MillerHeadline-Bold/3c91bd2d-bc82-4bba-944e-ab157bcdeae2-3.woff
p1475
sVqueryString
p1476
(lp1477
sVheaders
p1478
(lp1479
sVheadersSize
p1480
I667
sVbodySize
p1481
I0
sVmethod
p1482
VGET
p1483
sVhttpVersion
p1484
VHTTP/1.1
p1485
ssVtimings
p1486
(dp1487
Vcomment
p1488
g4
sVreceive
p1489
I25
sVsend
p1490
I0
sVssl
p1491
I-1
sVconnect
p1492
I-1
sVdns
p1493
I-1
sVwait
p1494
I32
sVblocked
p1495
I-1
ssVtime
p1496
I59
sVresponse
p1497
(dp1498
Vstatus
p1499
I200
sVcomment
p1500
g4
sVcookies
p1501
(lp1502
sVstatusText
p1503
VOK
p1504
sVcontent
p1505
(dp1506
VmimeType
p1507
Vapplication/x-woff
p1508
sVcomment
p1509
g4
sVsize
p1510
I0
ssVheaders
p1511
(lp1512
sVheadersSize
p1513
I864
sVredirectURL
p1514
g4
sVbodySize
p1515
I38493
sVhttpVersion
p1516
VHTTP/1.1
p1517
ssa(dp1518
Vcomment
p1519
g4
sVserverIPAddress
p1520
V172.217.0.1
p1521
sVpageref
p1522
VBoston Red Sox
p1523
sVstartedDateTime
p1524
V2017-04-16T08:25:29.791-05:00
p1525
sVcache
p1526
(dp1527
sVrequest
p1528
(dp1529
Vcomment
p1530
g4
sVcookies
p1531
(lp1532
sVurl
p1533
Vhttps://www-bostonglobe-com.cdn.ampproject.org/ii/w330/s/www.bostonglobe.com/rw/img/bglobe-logo-white.png
p1534
sVqueryString
p1535
(lp1536
sVheaders
p1537
(lp1538
sVheadersSize
p1539
I579
sVbodySize
p1540
I0
sVmethod
p1541
VGET
p1542
sVhttpVersion
p1543
VHTTP/1.1
p1544
ssVtimings
p1545
(dp1546
Vcomment
p1547
g4
sVreceive
p1548
I0
sVsend
p1549
I0
sVssl
p1550
I-1
sVconnect
p1551
I-1
sVdns
p1552
I-1
sVwait
p1553
I25
sVblocked
p1554
I-1
ssVtime
p1555
I26
sVresponse
p1556
(dp1557
Vstatus
p1558
I200
sVcomment
p1559
g4
sVcookies
p1560
(lp1561
sVstatusText
p1562
VOK
p1563
sVcontent
p1564
(dp1565
VmimeType
p1566
Vimage/png
p1567
sVcomment
p1568
g4
sVsize
p1569
I0
ssVheaders
p1570
(lp1571
sVheadersSize
p1572
I822
sVredirectURL
p1573
g4
sVbodySize
p1574
I4736
sVhttpVersion
p1575
VHTTP/1.1
p1576
ssa(dp1577
Vcomment
p1578
g4
sVserverIPAddress
p1579
V216.58.216.196
p1580
sVpageref
p1581
VBoston Red Sox
p1582
sVstartedDateTime
p1583
V2017-04-16T08:25:30.120-05:00
p1584
sVcache
p1585
(dp1586
sVrequest
p1587
(dp1588
Vcomment
p1589
g4
sVcookies
p1590
(lp1591
sVurl
p1592
Vhttps://www.google.com/gen_204?atyp=i&ct=slh&cad=&ei=rHDzWMPpB6G7jwTu6qWoDg&m=V&t=C&s=1&v=2&pv=0.9140412684394725&me=1:1492349103767,x:2,V,0,0,1280,944:0,N,1,rHDzWMPpB6G7jwTu6qWoDg:0,R,1,24,0,155,1197,502:0,R,1,25,0,155,1197,500:0,R,1,78,8,665,1264,545:0,R,1,79,8,709,1264,315:0,R,1,80,0,709,1280,335:2,B,4519:21799,e,U&zx=1492349130118
p1593
sVqueryString
p1594
(lp1595
(dp1596
Vname
p1597
Vatyp
p1598
sVvalue
p1599
g30
sa(dp1600
Vname
p1601
Vct
p1602
sVvalue
p1603
Vslh
p1604
sa(dp1605
Vname
p1606
Vcad
p1607
sVvalue
p1608
g4
sa(dp1609
Vname
p1610
Vei
p1611
sVvalue
p1612
VrHDzWMPpB6G7jwTu6qWoDg
p1613
sa(dp1614
Vname
p1615
g47
sVvalue
p1616
g49
sa(dp1617
Vname
p1618
g52
sVvalue
p1619
g54
sa(dp1620
Vname
p1621
g57
sVvalue
p1622
g59
sa(dp1623
Vname
p1624
g62
sVvalue
p1625
g64
sa(dp1626
Vname
p1627
Vpv
p1628
sVvalue
p1629
V0.9140412684394725
p1630
sa(dp1631
Vname
p1632
Vme
p1633
sVvalue
p1634
V1:1492349103767,x:2,V,0,0,1280,944:0,N,1,rHDzWMPpB6G7jwTu6qWoDg:0,R,1,24,0,155,1197,502:0,R,1,25,0,155,1197,500:0,R,1,78,8,665,1264,545:0,R,1,79,8,709,1264,315:0,R,1,80,0,709,1280,335:2,B,4519:21799,e,U
p1635
sa(dp1636
Vname
p1637
Vzx
p1638
sVvalue
p1639
V1492349130118
p1640
sasVheaders
p1641
(lp1642
sVheadersSize
p1643
I853
sVbodySize
p1644
I0
sVmethod
p1645
VGET
p1646
sVhttpVersion
p1647
VHTTP/1.1
p1648
ssVtimings
p1649
(dp1650
Vcomment
p1651
g4
sVreceive
p1652
I0
sVsend
p1653
I0
sVssl
p1654
I-1
sVconnect
p1655
I-1
sVdns
p1656
I-1
sVwait
p1657
I118
sVblocked
p1658
I-1
ssVtime
p1659
I119
sVresponse
p1660
(dp1661
Vstatus
p1662
I204
sVcomment
p1663
g4
sVcookies
p1664
(lp1665
sVstatusText
p1666
VNo Content
p1667
sVcontent
p1668
(dp1669
VmimeType
p1670
Vtext/html; charset=UTF-8
p1671
sVcomment
p1672
g4
sVsize
p1673
I0
ssVheaders
p1674
(lp1675
sVheadersSize
p1676
I248
sVredirectURL
p1677
g4
sVbodySize
p1678
I0
sVhttpVersion
p1679
VHTTP/1.1
p1680
ssa(dp1681
Vcomment
p1682
g4
sVserverIPAddress
p1683
V172.217.0.1
p1684
sVpageref
p1685
VBoston Red Sox
p1686
sVstartedDateTime
p1687
V2017-04-16T08:25:30.141-05:00
p1688
sVcache
p1689
(dp1690
sVrequest
p1691
(dp1692
Vcomment
p1693
g4
sVcookies
p1694
(lp1695
sVurl
p1696
Vhttps://c-o0bg-com.cdn.ampproject.org/i/s/c.o0bg.com/rf/image_960x640/Boston/2011-2020/2017/04/16/BostonGlobe.com/Sports/Images/5c6ae6b8629c4e1bbfd36f3222126509-5c6ae6b8629c4e1bbfd36f3222126509-0.jpg
p1697
sVqueryString
p1698
(lp1699
sVheaders
p1700
(lp1701
sVheadersSize
p1702
I673
sVbodySize
p1703
I0
sVmethod
p1704
VGET
p1705
sVhttpVersion
p1706
VHTTP/1.1
p1707
ssVtimings
p1708
(dp1709
Vcomment
p1710
g4
sVreceive
p1711
I24
sVsend
p1712
I0
sVssl
p1713
I298
sVconnect
p1714
I311
sVdns
p1715
I33
sVwait
p1716
I30
sVblocked
p1717
I0
ssVtime
p1718
I400
sVresponse
p1719
(dp1720
Vstatus
p1721
I200
sVcomment
p1722
g4
sVcookies
p1723
(lp1724
sVstatusText
p1725
VOK
p1726
sVcontent
p1727
(dp1728
VmimeType
p1729
Vimage/jpeg
p1730
sVcomment
p1731
g4
sVsize
p1732
I0
ssVheaders
p1733
(lp1734
sVheadersSize
p1735
I844
sVredirectURL
p1736
g4
sVbodySize
p1737
I38716
sVhttpVersion
p1738
VHTTP/1.1
p1739
ssasVversion
p1740
V1.2
p1741
sVpages
p1742
(lp1743
(dp1744
VpageTimings
p1745
(dp1746
Vcomment
p1747
g4
ssVcomment
p1748
g4
sVtitle
p1749
VBoston Red Sox
p1750
sVid
p1751
VBoston Red Sox
p1752
sVstartedDateTime
p1753
V2017-04-16T08:25:25.562-05:00
p1754
sasVcreator
p1755
(dp1756
Vcomment
p1757
g4
sVversion
p1758
V2.1.4
p1759
sVname
p1760
VBrowserMob Proxy
p1761
sss.