(dp0
Vlog
p1
(dp2
Vcomment
p3
V
p4
sVentries
p5
(lp6
(dp7
Vcomment
p8
g4
sVserverIPAddress
p9
V216.58.216.196
p10
sVpageref
p11
VBrandon Ingram
p12
sVstartedDateTime
p13
V2017-04-16T08:28:26.171-05:00
p14
sVcache
p15
(dp16
sVrequest
p17
(dp18
Vcomment
p19
g4
sVcookies
p20
(lp21
sVurl
p22
Vhttps://www.google.com/gen_204?atyp=i&ct=slh&cad=&ei=Z3HzWJnXGMaijwSWv6joDA&m=V&t=C&s=1&v=2&pv=0.5523630610067068&me=1:1492349292217,x:4,V,0,0,1280,944:0,N,1,Z3HzWJnXGMaijwSWv6joDA:0,R,1,24,8,155,1249,712:0,R,1,25,8,155,1249,712:0,R,1,28,8,168,1249,40:0,R,1,41,8,220,1249,178:0,R,1,44,0,236,1265,197:0,R,1,84,8,415,1249,20:0,R,1,85,24,415,1217,20:0,R,1,91,8,451,1249,20:0,R,1,101,8,479,1249,20:0,R,1,111,8,519,1249,295:0,R,1,112,0,564,1265,270:0,R,1,147,24,877,1217,94:5,B,3474:13943,e,U&zx=1492349306169
p23
sVqueryString
p24
(lp25
(dp26
Vname
p27
Vatyp
p28
sVvalue
p29
Vi
p30
sa(dp31
Vname
p32
Vct
p33
sVvalue
p34
Vslh
p35
sa(dp36
Vname
p37
Vcad
p38
sVvalue
p39
g4
sa(dp40
Vname
p41
Vei
p42
sVvalue
p43
VZ3HzWJnXGMaijwSWv6joDA
p44
sa(dp45
Vname
p46
Vm
p47
sVvalue
p48
VV
p49
sa(dp50
Vname
p51
Vt
p52
sVvalue
p53
VC
p54
sa(dp55
Vname
p56
Vs
p57
sVvalue
p58
V1
p59
sa(dp60
Vname
p61
Vv
p62
sVvalue
p63
V2
p64
sa(dp65
Vname
p66
Vpv
p67
sVvalue
p68
V0.5523630610067068
p69
sa(dp70
Vname
p71
Vme
p72
sVvalue
p73
V1:1492349292217,x:4,V,0,0,1280,944:0,N,1,Z3HzWJnXGMaijwSWv6joDA:0,R,1,24,8,155,1249,712:0,R,1,25,8,155,1249,712:0,R,1,28,8,168,1249,40:0,R,1,41,8,220,1249,178:0,R,1,44,0,236,1265,197:0,R,1,84,8,415,1249,20:0,R,1,85,24,415,1217,20:0,R,1,91,8,451,1249,20:0,R,1,101,8,479,1249,20:0,R,1,111,8,519,1249,295:0,R,1,112,0,564,1265,270:0,R,1,147,24,877,1217,94:5,B,3474:13943,e,U
p74
sa(dp75
Vname
p76
Vzx
p77
sVvalue
p78
V1492349306169
p79
sasVheaders
p80
(lp81
sVheadersSize
p82
I1021
sVbodySize
p83
I0
sVmethod
p84
VGET
p85
sVhttpVersion
p86
VHTTP/1.1
p87
ssVtimings
p88
(dp89
Vcomment
p90
g4
sVreceive
p91
I0
sVsend
p92
I0
sVssl
p93
I-1
sVconnect
p94
I-1
sVdns
p95
I-1
sVwait
p96
I0
sVblocked
p97
I-1
ssVtime
p98
I0
sVresponse
p99
(dp100
Vstatus
p101
I0
sVcomment
p102
g4
sVcookies
p103
(lp104
sV_error
p105
VNo response received
p106
sVstatusText
p107
g4
sVcontent
p108
(dp109
VmimeType
p110
g4
sVcomment
p111
g4
sVsize
p112
I0
ssVheaders
p113
(lp114
sVheadersSize
p115
I-1
sVredirectURL
p116
g4
sVbodySize
p117
I-1
sVhttpVersion
p118
Vunknown
p119
ssa(dp120
Vcomment
p121
g4
sVserverIPAddress
p122
V216.58.216.196
p123
sVpageref
p124
VBrandon Ingram
p125
sVstartedDateTime
p126
V2017-04-16T08:28:26.172-05:00
p127
sVcache
p128
(dp129
sVrequest
p130
(dp131
Vcomment
p132
g4
sVcookies
p133
(lp134
sVurl
p135
Vhttps://www.google.com/gen_204?atyp=i&ct=slh&cad=&ei=P3HzWLjnLeGUjwSOhLjIDw&s=2&v=2&pv=0.1173223983353433&me=17:1492349270524,e,H&zx=1492349306170
p136
sVqueryString
p137
(lp138
(dp139
Vname
p140
Vatyp
p141
sVvalue
p142
g30
sa(dp143
Vname
p144
Vct
p145
sVvalue
p146
Vslh
p147
sa(dp148
Vname
p149
Vcad
p150
sVvalue
p151
g4
sa(dp152
Vname
p153
Vei
p154
sVvalue
p155
VP3HzWLjnLeGUjwSOhLjIDw
p156
sa(dp157
Vname
p158
g57
sVvalue
p159
g64
sa(dp160
Vname
p161
g62
sVvalue
p162
g64
sa(dp163
Vname
p164
Vpv
p165
sVvalue
p166
V0.1173223983353433
p167
sa(dp168
Vname
p169
Vme
p170
sVvalue
p171
V17:1492349270524,e,H
p172
sa(dp173
Vname
p174
Vzx
p175
sVvalue
p176
V1492349306170
p177
sasVheaders
p178
(lp179
sVheadersSize
p180
I663
sVbodySize
p181
I0
sVmethod
p182
VGET
p183
sVhttpVersion
p184
VHTTP/1.1
p185
ssVtimings
p186
(dp187
Vcomment
p188
g4
sVreceive
p189
I0
sVsend
p190
I0
sVssl
p191
I-1
sVconnect
p192
I-1
sVdns
p193
I-1
sVwait
p194
I0
sVblocked
p195
I-1
ssVtime
p196
I0
sVresponse
p197
(dp198
Vstatus
p199
I0
sVcomment
p200
g4
sVcookies
p201
(lp202
sV_error
p203
VNo response received
p204
sVstatusText
p205
g4
sVcontent
p206
(dp207
VmimeType
p208
g4
sVcomment
p209
g4
sVsize
p210
I0
ssVheaders
p211
(lp212
sVheadersSize
p213
I-1
sVredirectURL
p214
g4
sVbodySize
p215
I-1
sVhttpVersion
p216
Vunknown
p217
ssa(dp218
Vcomment
p219
g4
sVserverIPAddress
p220
V216.58.216.196
p221
sVpageref
p222
VBrandon Ingram
p223
sVstartedDateTime
p224
V2017-04-16T08:28:26.173-05:00
p225
sVcache
p226
(dp227
sVrequest
p228
(dp229
Vcomment
p230
g4
sVcookies
p231
(lp232
sVurl
p233
Vhttps://www.google.com/gen_204?atyp=i&ct=slh&cad=&ei=VnHzWOfGLOGUjwSOhLjIDw&m=V&t=C&s=1&v=2&pv=0.7563401572589782&me=1:1492349276416,x:2,V,0,0,1280,944:0,N,1,VnHzWOfGLOGUjwSOhLjIDw:0,R,1,24,0,155,1197,502:0,R,1,25,0,155,1197,500:0,R,1,78,8,665,1264,545:0,R,1,79,8,709,1264,315:0,R,1,80,0,709,1280,335:4,B,4105:10724,e,U&zx=1492349306171
p234
sVqueryString
p235
(lp236
(dp237
Vname
p238
Vatyp
p239
sVvalue
p240
g30
sa(dp241
Vname
p242
Vct
p243
sVvalue
p244
Vslh
p245
sa(dp246
Vname
p247
Vcad
p248
sVvalue
p249
g4
sa(dp250
Vname
p251
Vei
p252
sVvalue
p253
VVnHzWOfGLOGUjwSOhLjIDw
p254
sa(dp255
Vname
p256
g47
sVvalue
p257
g49
sa(dp258
Vname
p259
g52
sVvalue
p260
g54
sa(dp261
Vname
p262
g57
sVvalue
p263
g59
sa(dp264
Vname
p265
g62
sVvalue
p266
g64
sa(dp267
Vname
p268
Vpv
p269
sVvalue
p270
V0.7563401572589782
p271
sa(dp272
Vname
p273
Vme
p274
sVvalue
p275
V1:1492349276416,x:2,V,0,0,1280,944:0,N,1,VnHzWOfGLOGUjwSOhLjIDw:0,R,1,24,0,155,1197,502:0,R,1,25,0,155,1197,500:0,R,1,78,8,665,1264,545:0,R,1,79,8,709,1264,315:0,R,1,80,0,709,1280,335:4,B,4105:10724,e,U
p276
sa(dp277
Vname
p278
Vzx
p279
sVvalue
p280
V1492349306171
p281
sasVheaders
p282
(lp283
sVheadersSize
p284
I853
sVbodySize
p285
I0
sVmethod
p286
VGET
p287
sVhttpVersion
p288
VHTTP/1.1
p289
ssVtimings
p290
(dp291
Vcomment
p292
g4
sVreceive
p293
I0
sVsend
p294
I0
sVssl
p295
I-1
sVconnect
p296
I-1
sVdns
p297
I-1
sVwait
p298
I0
sVblocked
p299
I-1
ssVtime
p300
I0
sVresponse
p301
(dp302
Vstatus
p303
I0
sVcomment
p304
g4
sVcookies
p305
(lp306
sV_error
p307
VNo response received
p308
sVstatusText
p309
g4
sVcontent
p310
(dp311
VmimeType
p312
g4
sVcomment
p313
g4
sVsize
p314
I0
ssVheaders
p315
(lp316
sVheadersSize
p317
I-1
sVredirectURL
p318
g4
sVbodySize
p319
I-1
sVhttpVersion
p320
Vunknown
p321
ssa(dp322
Vcomment
p323
g4
sVserverIPAddress
p324
V216.58.216.196
p325
sVpageref
p326
VBrandon Ingram
p327
sVstartedDateTime
p328
V2017-04-16T08:28:26.173-05:00
p329
sVcache
p330
(dp331
sVrequest
p332
(dp333
Vcomment
p334
g4
sVcookies
p335
(lp336
sVurl
p337
Vhttps://www.google.com/gen_204?atyp=i&ct=slh&cad=&ei=BXHzWIP8Meq-jwTI64z4DQ&m=V&t=C&s=1&v=2&pv=0.8802857241403822&me=1:1492349192964,x:2,V,0,0,1280,944:0,N,1,BXHzWIP8Meq-jwTI64z4DQ:0,R,1,24,8,155,1249,281:0,R,1,25,8,155,1249,261:0,R,1,26,8,155,1249,261:0,R,1,27,8,155,1249,110:0,R,1,42,8,446,1249,251:0,R,1,52,8,707,1249,301:0,R,1,53,8,707,1249,301:0,R,1,57,1142,707,115,107:0,R,1,66,8,741,1134,40:0,R,1,78,8,831,1249,40:0,R,1,79,24,831,1217,40:0,R,1,82,8,887,1249,20:0,R,1,84,8,915,1249,20:1,B,3492:19394,e,U&zx=1492349306171
p338
sVqueryString
p339
(lp340
(dp341
Vname
p342
Vatyp
p343
sVvalue
p344
g30
sa(dp345
Vname
p346
Vct
p347
sVvalue
p348
Vslh
p349
sa(dp350
Vname
p351
Vcad
p352
sVvalue
p353
g4
sa(dp354
Vname
p355
Vei
p356
sVvalue
p357
VBXHzWIP8Meq-jwTI64z4DQ
p358
sa(dp359
Vname
p360
g47
sVvalue
p361
g49
sa(dp362
Vname
p363
g52
sVvalue
p364
g54
sa(dp365
Vname
p366
g57
sVvalue
p367
g59
sa(dp368
Vname
p369
g62
sVvalue
p370
g64
sa(dp371
Vname
p372
Vpv
p373
sVvalue
p374
V0.8802857241403822
p375
sa(dp376
Vname
p377
Vme
p378
sVvalue
p379
V1:1492349192964,x:2,V,0,0,1280,944:0,N,1,BXHzWIP8Meq-jwTI64z4DQ:0,R,1,24,8,155,1249,281:0,R,1,25,8,155,1249,261:0,R,1,26,8,155,1249,261:0,R,1,27,8,155,1249,110:0,R,1,42,8,446,1249,251:0,R,1,52,8,707,1249,301:0,R,1,53,8,707,1249,301:0,R,1,57,1142,707,115,107:0,R,1,66,8,741,1134,40:0,R,1,78,8,831,1249,40:0,R,1,79,24,831,1217,40:0,R,1,82,8,887,1249,20:0,R,1,84,8,915,1249,20:1,B,3492:19394,e,U
p380
sa(dp381
Vname
p382
Vzx
p383
sVvalue
p384
V1492349306171
p385
sasVheaders
p386
(lp387
sVheadersSize
p388
I1043
sVbodySize
p389
I0
sVmethod
p390
VGET
p391
sVhttpVersion
p392
VHTTP/1.1
p393
ssVtimings
p394
(dp395
Vcomment
p396
g4
sVreceive
p397
I0
sVsend
p398
I0
sVssl
p399
I-1
sVconnect
p400
I-1
sVdns
p401
I-1
sVwait
p402
I0
sVblocked
p403
I-1
ssVtime
p404
I0
sVresponse
p405
(dp406
Vstatus
p407
I0
sVcomment
p408
g4
sVcookies
p409
(lp410
sV_error
p411
VNo response received
p412
sVstatusText
p413
g4
sVcontent
p414
(dp415
VmimeType
p416
g4
sVcomment
p417
g4
sVsize
p418
I0
ssVheaders
p419
(lp420
sVheadersSize
p421
I-1
sVredirectURL
p422
g4
sVbodySize
p423
I-1
sVhttpVersion
p424
Vunknown
p425
ssa(dp426
Vcomment
p427
g4
sVserverIPAddress
p428
V216.58.216.196
p429
sVpageref
p430
VBrandon Ingram
p431
sVstartedDateTime
p432
V2017-04-16T08:28:26.177-05:00
p433
sVcache
p434
(dp435
sVrequest
p436
(dp437
Vcomment
p438
g4
sVcookies
p439
(lp440
sVurl
p441
Vhttp://www.google.com/
p442
sVqueryString
p443
(lp444
sVheaders
p445
(lp446
sVheadersSize
p447
I613
sVbodySize
p448
I0
sVmethod
p449
VGET
p450
sVhttpVersion
p451
VHTTP/1.1
p452
ssVtimings
p453
(dp454
Vcomment
p455
g4
sVreceive
p456
I0
sVsend
p457
I0
sVssl
p458
I-1
sVconnect
p459
I-1
sVdns
p460
I-1
sVwait
p461
I99
sVblocked
p462
I-1
ssVtime
p463
I99
sVresponse
p464
(dp465
Vstatus
p466
I302
sVcomment
p467
g4
sVcookies
p468
(lp469
sVstatusText
p470
VFound
p471
sVcontent
p472
(dp473
VmimeType
p474
Vtext/html; charset=UTF-8
p475
sVcomment
p476
g4
sVsize
p477
I0
ssVheaders
p478
(lp479
sVheadersSize
p480
I609
sVredirectURL
p481
Vhttps://www.google.com/?gws_rd=ssl
p482
sVbodySize
p483
I231
sVhttpVersion
p484
VHTTP/1.1
p485
ssa(dp486
Vcomment
p487
g4
sVserverIPAddress
p488
V216.58.216.196
p489
sVpageref
p490
VBrandon Ingram
p491
sVstartedDateTime
p492
V2017-04-16T08:28:26.284-05:00
p493
sVcache
p494
(dp495
sVrequest
p496
(dp497
Vcomment
p498
g4
sVcookies
p499
(lp500
sVurl
p501
Vhttps://www.google.com/?gws_rd=ssl
p502
sVqueryString
p503
(lp504
(dp505
Vname
p506
Vgws_rd
p507
sVvalue
p508
Vssl
p509
sasVheaders
p510
(lp511
sVheadersSize
p512
I607
sVbodySize
p513
I0
sVmethod
p514
VGET
p515
sVhttpVersion
p516
VHTTP/1.1
p517
ssVtimings
p518
(dp519
Vcomment
p520
g4
sVreceive
p521
I29
sVsend
p522
I0
sVssl
p523
I-1
sVconnect
p524
I-1
sVdns
p525
I-1
sVwait
p526
I80
sVblocked
p527
I-1
ssVtime
p528
I109
sVresponse
p529
(dp530
Vstatus
p531
I200
sVcomment
p532
g4
sVcookies
p533
(lp534
sVstatusText
p535
VOK
p536
sVcontent
p537
(dp538
VmimeType
p539
Vtext/html; charset=UTF-8
p540
sVcomment
p541
g4
sVsize
p542
I0
ssVheaders
p543
(lp544
sVheadersSize
p545
I721
sVredirectURL
p546
g4
sVbodySize
p547
I34292
sVhttpVersion
p548
VHTTP/1.1
p549
ssa(dp550
Vcomment
p551
g4
sVserverIPAddress
p552
V216.58.216.196
p553
sVpageref
p554
VBrandon Ingram
p555
sVstartedDateTime
p556
V2017-04-16T08:28:26.646-05:00
p557
sVcache
p558
(dp559
sVrequest
p560
(dp561
Vcomment
p562
g4
sVcookies
p563
(lp564
sVurl
p565
Vhttps://www.google.com/gen_204?s=mobilewebhp&atyp=csi&ei=eXHzWJ3GEYy7jwT-hp3YAg&imc=1&imn=1&imp=0&adh=&xjs=init.29.12.sb_mob.20.dvl.5.c.1.mbsf.1.async.1&ima=1&rt=xjsls.35,prt.40,iml.40,dcl.55,xjses.111,xjsee.205,xjs.205,ol.254,aft.40,wsrt.218,cst.0,dnst.0,rqst.111,rspt.29,rqstt.114,unt.110,cstt.110,dit.271
p566
sVqueryString
p567
(lp568
(dp569
Vname
p570
g57
sVvalue
p571
Vmobilewebhp
p572
sa(dp573
Vname
p574
Vatyp
p575
sVvalue
p576
Vcsi
p577
sa(dp578
Vname
p579
Vei
p580
sVvalue
p581
VeXHzWJ3GEYy7jwT-hp3YAg
p582
sa(dp583
Vname
p584
Vimc
p585
sVvalue
p586
g59
sa(dp587
Vname
p588
Vimn
p589
sVvalue
p590
g59
sa(dp591
Vname
p592
Vimp
p593
sVvalue
p594
V0
p595
sa(dp596
Vname
p597
Vadh
p598
sVvalue
p599
g4
sa(dp600
Vname
p601
Vxjs
p602
sVvalue
p603
Vinit.29.12.sb_mob.20.dvl.5.c.1.mbsf.1.async.1
p604
sa(dp605
Vname
p606
Vima
p607
sVvalue
p608
g59
sa(dp609
Vname
p610
Vrt
p611
sVvalue
p612
Vxjsls.35,prt.40,iml.40,dcl.55,xjses.111,xjsee.205,xjs.205,ol.254,aft.40,wsrt.218,cst.0,dnst.0,rqst.111,rspt.29,rqstt.114,unt.110,cstt.110,dit.271
p613
sasVheaders
p614
(lp615
sVheadersSize
p616
I835
sVbodySize
p617
I0
sVmethod
p618
VGET
p619
sVhttpVersion
p620
VHTTP/1.1
p621
ssVtimings
p622
(dp623
Vcomment
p624
g4
sVreceive
p625
I0
sVsend
p626
I0
sVssl
p627
I-1
sVconnect
p628
I-1
sVdns
p629
I-1
sVwait
p630
I30
sVblocked
p631
I-1
ssVtime
p632
I31
sVresponse
p633
(dp634
Vstatus
p635
I204
sVcomment
p636
g4
sVcookies
p637
(lp638
sVstatusText
p639
VNo Content
p640
sVcontent
p641
(dp642
VmimeType
p643
Vtext/html; charset=UTF-8
p644
sVcomment
p645
g4
sVsize
p646
I0
ssVheaders
p647
(lp648
sVheadersSize
p649
I248
sVredirectURL
p650
g4
sVbodySize
p651
I0
sVhttpVersion
p652
VHTTP/1.1
p653
ssa(dp654
Vcomment
p655
g4
sVserverIPAddress
p656
V216.58.216.196
p657
sVpageref
p658
VBrandon Ingram
p659
sVstartedDateTime
p660
V2017-04-16T08:28:26.779-05:00
p661
sVcache
p662
(dp663
sVrequest
p664
(dp665
Vcomment
p666
g4
sVcookies
p667
(lp668
sVurl
p669
Vhttps://www.google.com/complete/search?client=mobile-gws-hp&hl=en&gs_rn=64&gs_ri=mobile-gws-hp&sla=1&pfq=boston%20red%20sox&gm=602&cp=0&gs_id=1&xhr=t&q=B&tch=1&ech=1&psi=eXHzWJ3GEYy7jwT-hp3YAg.1492349306565.1
p670
sVqueryString
p671
(lp672
(dp673
Vname
p674
Vclient
p675
sVvalue
p676
Vmobile-gws-hp
p677
sa(dp678
Vname
p679
Vhl
p680
sVvalue
p681
Ven
p682
sa(dp683
Vname
p684
Vgs_rn
p685
sVvalue
p686
V64
p687
sa(dp688
Vname
p689
Vgs_ri
p690
sVvalue
p691
Vmobile-gws-hp
p692
sa(dp693
Vname
p694
Vsla
p695
sVvalue
p696
g59
sa(dp697
Vname
p698
Vpfq
p699
sVvalue
p700
Vboston red sox
p701
sa(dp702
Vname
p703
Vgm
p704
sVvalue
p705
V602
p706
sa(dp707
Vname
p708
Vcp
p709
sVvalue
p710
g595
sa(dp711
Vname
p712
Vgs_id
p713
sVvalue
p714
g59
sa(dp715
Vname
p716
Vxhr
p717
sVvalue
p718
g52
sa(dp719
Vname
p720
Vq
p721
sVvalue
p722
VB
p723
sa(dp724
Vname
p725
Vtch
p726
sVvalue
p727
g59
sa(dp728
Vname
p729
Vech
p730
sVvalue
p731
g59
sa(dp732
Vname
p733
Vpsi
p734
sVvalue
p735
VeXHzWJ3GEYy7jwT-hp3YAg.1492349306565.1
p736
sasVheaders
p737
(lp738
sVheadersSize
p739
I736
sVbodySize
p740
I0
sVmethod
p741
VGET
p742
sVhttpVersion
p743
VHTTP/1.1
p744
ssVtimings
p745
(dp746
Vcomment
p747
g4
sVreceive
p748
I0
sVsend
p749
I0
sVssl
p750
I-1
sVconnect
p751
I-1
sVdns
p752
I-1
sVwait
p753
I0
sVblocked
p754
I-1
ssVtime
p755
I0
sVresponse
p756
(dp757
Vstatus
p758
I0
sVcomment
p759
g4
sVcookies
p760
(lp761
sV_error
p762
VNo response received
p763
sVstatusText
p764
g4
sVcontent
p765
(dp766
VmimeType
p767
g4
sVcomment
p768
g4
sVsize
p769
I0
ssVheaders
p770
(lp771
sVheadersSize
p772
I-1
sVredirectURL
p773
g4
sVbodySize
p774
I-1
sVhttpVersion
p775
Vunknown
p776
ssa(dp777
Vcomment
p778
g4
sVserverIPAddress
p779
V216.58.216.196
p780
sVpageref
p781
VBrandon Ingram
p782
sVstartedDateTime
p783
V2017-04-16T08:28:26.849-05:00
p784
sVcache
p785
(dp786
sVrequest
p787
(dp788
Vcomment
p789
g4
sVcookies
p790
(lp791
sVurl
p792
Vhttps://www.google.com/search?site=&source=hp&ei=eXHzWJ3GEYy7jwT-hp3YAg&q=Brandon+Ingram&oq=Brandon+Ingram&gs_l=mobile-gws-hp.3...192.231.0.259.14.1.0.0.0.0.0.0..0.0....0...1c.1.64.mobile-gws-hp..14.0.0.G9KnDRR66Z0
p793
sVqueryString
p794
(lp795
(dp796
Vname
p797
Vsite
p798
sVvalue
p799
g4
sa(dp800
Vname
p801
Vsource
p802
sVvalue
p803
Vhp
p804
sa(dp805
Vname
p806
Vei
p807
sVvalue
p808
VeXHzWJ3GEYy7jwT-hp3YAg
p809
sa(dp810
Vname
p811
g721
sVvalue
p812
VBrandon Ingram
p813
sa(dp814
Vname
p815
Voq
p816
sVvalue
p817
VBrandon Ingram
p818
sa(dp819
Vname
p820
Vgs_l
p821
sVvalue
p822
Vmobile-gws-hp.3...192.231.0.259.14.1.0.0.0.0.0.0..0.0....0...1c.1.64.mobile-gws-hp..14.0.0.G9KnDRR66Z0
p823
sasVheaders
p824
(lp825
sVheadersSize
p826
I832
sVbodySize
p827
I0
sVmethod
p828
VGET
p829
sVhttpVersion
p830
VHTTP/1.1
p831
ssVtimings
p832
(dp833
Vcomment
p834
g4
sVreceive
p835
I740
sVsend
p836
I0
sVssl
p837
I-1
sVconnect
p838
I-1
sVdns
p839
I-1
sVwait
p840
I114
sVblocked
p841
I-1
ssVtime
p842
I855
sVresponse
p843
(dp844
Vstatus
p845
I200
sVcomment
p846
g4
sVcookies
p847
(lp848
sVstatusText
p849
VOK
p850
sVcontent
p851
(dp852
VmimeType
p853
Vtext/html; charset=UTF-8
p854
sVcomment
p855
g4
sVsize
p856
I0
ssVheaders
p857
(lp858
sVheadersSize
p859
I363
sVredirectURL
p860
g4
sVbodySize
p861
I103856
sVhttpVersion
p862
VHTTP/1.1
p863
ssa(dp864
Vcomment
p865
g4
sVserverIPAddress
p866
V216.58.216.196
p867
sVpageref
p868
VBrandon Ingram
p869
sVstartedDateTime
p870
V2017-04-16T08:28:28.113-05:00
p871
sVcache
p872
(dp873
sVrequest
p874
(dp875
Vcomment
p876
g4
sVcookies
p877
(lp878
sVurl
p879
Vhttps://www.google.com/xjs/_/js/k=xjs.qs.en_US.pCBXVCvTH3s.O/m=syl,syj,syn,em3,em8,em6,em7,sym,aa,abd,sy2g,sy2k,sy29,sy2j,sy2d,sy2a,sy2c,sy2f,sy2l,sy2m,sy2n,emd,async,sybn,sybi,sybo,sy1f,sy45,sy46,sy9w,sybk,sybj,sybp,sy1g,sy30,sy47,sybm,sybl,sybq,sy1h,sybh,dvl,syep,foot,ipv6,sy5g,sy5j,sy5h,sy6u,sy7d,sy7j,sy2x,sy5i,sy89,sy7e,sy23,sy2y,sy5k,sy6c,sy91,sy9b,sy9l,syhi,syhj,lrli,sy32,emj,shm,sykh,tl,sy2t,sy38,em12,vs,sy66,sy67,sy4u,sy69,sykk,sykl,tnv,bct,sy1y,sy2u,sy22,sy6i,sy34,sy31,sy6j,sy25,sy6l,sy6k,sy6h,emb,em9,ema,sy6m,qkx,sy4d,sy4f,sy4c,sy4e,sy24,sy4b,sy6w,shrb,sy4g,syd7,dgm,syf5,syf6,syf8,sygb,syg9,kptm,sy99,syf4,sy26,syfc,syfn,syf7,syff,sy1i,sy68,sy8d,syfl,syfr,syfq,syfg,sy1j,sy4q,sy5o,sy5r,sy6n,sy6p,sy8h,syc7,syc8,syfb,syfj,syfs,syft,syg3,syg5,syg7,emn,emo,syg4,syg6,ivg,sy9m,syac,sy9n,syhz,syl6,ssc,iuci,img,sy41,tcc,sygq,kpc,kpci,sy4h,vrml,sy6y,sycu,d3l,sya3,sya2,sy72,sya4,sykr,strm,syj7,syj8,syj2,syjc,syj6,syj3,syjg,syjh,syje,syjd,syjk,syji,syjf,syj0,emr,ems,emt,emu,emv,emx,emy,emz,em10,em11,udlg,sy5z,atn,sy4i,sya1,ampfp/am=gCP4LtMEBXQA2RUaq_oFBISzAFA/rt=j/d=0/t=zcms/rs=ACT90oFwm4NZCwIcuuiqmthdlECdBzkhRA
p880
sVqueryString
p881
(lp882
sVheaders
p883
(lp884
sVheadersSize
p885
I1643
sVbodySize
p886
I0
sVmethod
p887
VGET
p888
sVhttpVersion
p889
VHTTP/1.1
p890
ssVtimings
p891
(dp892
Vcomment
p893
g4
sVreceive
p894
I54
sVsend
p895
I0
sVssl
p896
I-1
sVconnect
p897
I-1
sVdns
p898
I-1
sVwait
p899
I13
sVblocked
p900
I-1
ssVtime
p901
I68
sVresponse
p902
(dp903
Vstatus
p904
I200
sVcomment
p905
g4
sVcookies
p906
(lp907
sVstatusText
p908
VOK
p909
sVcontent
p910
(dp911
VmimeType
p912
Vtext/javascript; charset=UTF-8
p913
sVcomment
p914
g4
sVsize
p915
I0
ssVheaders
p916
(lp917
sVheadersSize
p918
I464
sVredirectURL
p919
g4
sVbodySize
p920
I117972
sVhttpVersion
p921
VHTTP/1.1
p922
ssa(dp923
Vcomment
p924
g4
sVserverIPAddress
p925
V216.58.216.196
p926
sVpageref
p927
VBrandon Ingram
p928
sVstartedDateTime
p929
V2017-04-16T08:28:28.360-05:00
p930
sVcache
p931
(dp932
sVrequest
p933
(dp934
Vcomment
p935
g4
sVcookies
p936
(lp937
sVurl
p938
Vhttps://www.google.com/async/irc?vet=10ahUKEwipgIayiqnTAhUC74MKHR0UBkYQo0EIhgI..i&ved=0ahUKEwipgIayiqnTAhUC74MKHR0UBkYQo0EIhgI&ei=eXHzWOnfM4LejwSdqJiwBA&yv=2&async=iu:1,ved:0ahUKEwipgIayiqnTAhUC74MKHR0UBkYQo0EIhgI,_id:irc_async,_pms:qs
p939
sVqueryString
p940
(lp941
(dp942
Vname
p943
Vvet
p944
sVvalue
p945
V10ahUKEwipgIayiqnTAhUC74MKHR0UBkYQo0EIhgI..i
p946
sa(dp947
Vname
p948
Vved
p949
sVvalue
p950
V0ahUKEwipgIayiqnTAhUC74MKHR0UBkYQo0EIhgI
p951
sa(dp952
Vname
p953
Vei
p954
sVvalue
p955
VeXHzWOnfM4LejwSdqJiwBA
p956
sa(dp957
Vname
p958
Vyv
p959
sVvalue
p960
g64
sa(dp961
Vname
p962
Vasync
p963
sVvalue
p964
Viu:1,ved:0ahUKEwipgIayiqnTAhUC74MKHR0UBkYQo0EIhgI,_id:irc_async,_pms:qs
p965
sasVheaders
p966
(lp967
sVheadersSize
p968
I752
sVbodySize
p969
I0
sVmethod
p970
VGET
p971
sVhttpVersion
p972
VHTTP/1.1
p973
ssVtimings
p974
(dp975
Vcomment
p976
g4
sVreceive
p977
I12
sVsend
p978
I0
sVssl
p979
I-1
sVconnect
p980
I-1
sVdns
p981
I-1
sVwait
p982
I103
sVblocked
p983
I-1
ssVtime
p984
I115
sVresponse
p985
(dp986
Vstatus
p987
I200
sVcomment
p988
g4
sVcookies
p989
(lp990
sVstatusText
p991
VOK
p992
sVcontent
p993
(dp994
VmimeType
p995
Vtext/html; charset=UTF-8
p996
sVcomment
p997
g4
sVsize
p998
I0
ssVheaders
p999
(lp1000
sVheadersSize
p1001
I383
sVredirectURL
p1002
g4
sVbodySize
p1003
I7790
sVhttpVersion
p1004
VHTTP/1.1
p1005
ssa(dp1006
Vcomment
p1007
g4
sVserverIPAddress
p1008
V216.58.216.193
p1009
sVpageref
p1010
VBrandon Ingram
p1011
sVstartedDateTime
p1012
V2017-04-16T08:28:28.505-05:00
p1013
sVcache
p1014
(dp1015
sVrequest
p1016
(dp1017
Vcomment
p1018
g4
sVcookies
p1019
(lp1020
sVurl
p1021
Vhttps://cdn.ampproject.org/preconnect.gif?0.9387445526400107
p1022
sVqueryString
p1023
(lp1024
(dp1025
Vname
p1026
V0.9387445526400107
p1027
sVvalue
p1028
g4
sasVheaders
p1029
(lp1030
sVheadersSize
p1031
I375
sVbodySize
p1032
I0
sVmethod
p1033
VGET
p1034
sVhttpVersion
p1035
VHTTP/1.1
p1036
ssVtimings
p1037
(dp1038
Vcomment
p1039
g4
sVreceive
p1040
I0
sVsend
p1041
I0
sVssl
p1042
I-1
sVconnect
p1043
I-1
sVdns
p1044
I-1
sVwait
p1045
I24
sVblocked
p1046
I-1
ssVtime
p1047
I24
sVresponse
p1048
(dp1049
Vstatus
p1050
I200
sVcomment
p1051
g4
sVcookies
p1052
(lp1053
sVstatusText
p1054
VOK
p1055
sVcontent
p1056
(dp1057
VmimeType
p1058
Vimage/gif
p1059
sVcomment
p1060
g4
sVsize
p1061
I0
ssVheaders
p1062
(lp1063
sVheadersSize
p1064
I826
sVredirectURL
p1065
g4
sVbodySize
p1066
I37
sVhttpVersion
p1067
VHTTP/1.1
p1068
ssa(dp1069
Vcomment
p1070
g4
sVserverIPAddress
p1071
V172.217.0.14
p1072
sVpageref
p1073
VBrandon Ingram
p1074
sVstartedDateTime
p1075
V2017-04-16T08:28:28.580-05:00
p1076
sVcache
p1077
(dp1078
sVrequest
p1079
(dp1080
Vcomment
p1081
g4
sVcookies
p1082
(lp1083
sVurl
p1084
Vhttps://encrypted-tbn3.gstatic.com/images?q=tbn:ANd9GcRSZ6vIC5T3Uc26LlAxZvU6Da3HOSrx0j_Dw4jfS-prVLXJ_KMeghgeGRma
p1085
sVqueryString
p1086
(lp1087
(dp1088
Vname
p1089
g721
sVvalue
p1090
Vtbn:ANd9GcRSZ6vIC5T3Uc26LlAxZvU6Da3HOSrx0j_Dw4jfS-prVLXJ_KMeghgeGRma
p1091
sasVheaders
p1092
(lp1093
sVheadersSize
p1094
I427
sVbodySize
p1095
I0
sVmethod
p1096
VGET
p1097
sVhttpVersion
p1098
VHTTP/1.1
p1099
ssVtimings
p1100
(dp1101
Vcomment
p1102
g4
sVreceive
p1103
I0
sVsend
p1104
I0
sVssl
p1105
I29
sVconnect
p1106
I46
sVdns
p1107
I1
sVwait
p1108
I27
sVblocked
p1109
I0
ssVtime
p1110
I76
sVresponse
p1111
(dp1112
Vstatus
p1113
I200
sVcomment
p1114
g4
sVcookies
p1115
(lp1116
sVstatusText
p1117
VOK
p1118
sVcontent
p1119
(dp1120
VmimeType
p1121
Vimage/jpeg
p1122
sVcomment
p1123
g4
sVsize
p1124
I0
ssVheaders
p1125
(lp1126
sVheadersSize
p1127
I415
sVredirectURL
p1128
g4
sVbodySize
p1129
I3070
sVhttpVersion
p1130
VHTTP/1.1
p1131
ssa(dp1132
Vcomment
p1133
g4
sVserverIPAddress
p1134
V172.217.6.4
p1135
sVpageref
p1136
VBrandon Ingram
p1137
sVstartedDateTime
p1138
V2017-04-16T08:28:28.818-05:00
p1139
sVcache
p1140
(dp1141
sVrequest
p1142
(dp1143
Vcomment
p1144
g4
sVcookies
p1145
(lp1146
sVurl
p1147
Vhttps://www.google.com/gen_204?atyp=i&ct=&cad=&vet=10ahUKEwipgIayiqnTAhUC74MKHR0UBkYQ5W0ITCgH..s&ei=eXHzWOnfM4LejwSdqJiwBA&zx=1492349308386
p1148
sVqueryString
p1149
(lp1150
(dp1151
Vname
p1152
Vatyp
p1153
sVvalue
p1154
g30
sa(dp1155
Vname
p1156
Vct
p1157
sVvalue
p1158
g4
sa(dp1159
Vname
p1160
Vcad
p1161
sVvalue
p1162
g4
sa(dp1163
Vname
p1164
Vvet
p1165
sVvalue
p1166
V10ahUKEwipgIayiqnTAhUC74MKHR0UBkYQ5W0ITCgH..s
p1167
sa(dp1168
Vname
p1169
Vei
p1170
sVvalue
p1171
VeXHzWOnfM4LejwSdqJiwBA
p1172
sa(dp1173
Vname
p1174
Vzx
p1175
sVvalue
p1176
V1492349308386
p1177
sasVheaders
p1178
(lp1179
sVheadersSize
p1180
I656
sVbodySize
p1181
I0
sVmethod
p1182
VGET
p1183
sVhttpVersion
p1184
VHTTP/1.1
p1185
ssVtimings
p1186
(dp1187
Vcomment
p1188
g4
sVreceive
p1189
I0
sVsend
p1190
I0
sVssl
p1191
I-1
sVconnect
p1192
I-1
sVdns
p1193
I-1
sVwait
p1194
I29
sVblocked
p1195
I-1
ssVtime
p1196
I29
sVresponse
p1197
(dp1198
Vstatus
p1199
I204
sVcomment
p1200
g4
sVcookies
p1201
(lp1202
sVstatusText
p1203
VNo Content
p1204
sVcontent
p1205
(dp1206
VmimeType
p1207
Vtext/html; charset=UTF-8
p1208
sVcomment
p1209
g4
sVsize
p1210
I0
ssVheaders
p1211
(lp1212
sVheadersSize
p1213
I248
sVredirectURL
p1214
g4
sVbodySize
p1215
I0
sVhttpVersion
p1216
VHTTP/1.1
p1217
ssa(dp1218
Vcomment
p1219
g4
sVserverIPAddress
p1220
V172.217.6.4
p1221
sVpageref
p1222
VBrandon Ingram
p1223
sVstartedDateTime
p1224
V2017-04-16T08:28:28.849-05:00
p1225
sVcache
p1226
(dp1227
sVrequest
p1228
(dp1229
Vcomment
p1230
g4
sVcookies
p1231
(lp1232
sVurl
p1233
Vhttps://www.google.com/gen_204?atyp=i&ct=&cad=&vet=10ahUKEwipgIayiqnTAhUC74MKHR0UBkYQ5W0ITygI..s&ei=eXHzWOnfM4LejwSdqJiwBA&zx=1492349308388
p1234
sVqueryString
p1235
(lp1236
(dp1237
Vname
p1238
Vatyp
p1239
sVvalue
p1240
g30
sa(dp1241
Vname
p1242
Vct
p1243
sVvalue
p1244
g4
sa(dp1245
Vname
p1246
Vcad
p1247
sVvalue
p1248
g4
sa(dp1249
Vname
p1250
Vvet
p1251
sVvalue
p1252
V10ahUKEwipgIayiqnTAhUC74MKHR0UBkYQ5W0ITygI..s
p1253
sa(dp1254
Vname
p1255
Vei
p1256
sVvalue
p1257
VeXHzWOnfM4LejwSdqJiwBA
p1258
sa(dp1259
Vname
p1260
Vzx
p1261
sVvalue
p1262
V1492349308388
p1263
sasVheaders
p1264
(lp1265
sVheadersSize
p1266
I656
sVbodySize
p1267
I0
sVmethod
p1268
VGET
p1269
sVhttpVersion
p1270
VHTTP/1.1
p1271
ssVtimings
p1272
(dp1273
Vcomment
p1274
g4
sVreceive
p1275
I0
sVsend
p1276
I0
sVssl
p1277
I-1
sVconnect
p1278
I-1
sVdns
p1279
I-1
sVwait
p1280
I33
sVblocked
p1281
I-1
ssVtime
p1282
I33
sVresponse
p1283
(dp1284
Vstatus
p1285
I204
sVcomment
p1286
g4
sVcookies
p1287
(lp1288
sVstatusText
p1289
VNo Content
p1290
sVcontent
p1291
(dp1292
VmimeType
p1293
Vtext/html; charset=UTF-8
p1294
sVcomment
p1295
g4
sVsize
p1296
I0
ssVheaders
p1297
(lp1298
sVheadersSize
p1299
I248
sVredirectURL
p1300
g4
sVbodySize
p1301
I0
sVhttpVersion
p1302
VHTTP/1.1
p1303
ssa(dp1304
Vcomment
p1305
g4
sVserverIPAddress
p1306
V172.217.6.4
p1307
sVpageref
p1308
VBrandon Ingram
p1309
sVstartedDateTime
p1310
V2017-04-16T08:28:28.883-05:00
p1311
sVcache
p1312
(dp1313
sVrequest
p1314
(dp1315
Vcomment
p1316
g4
sVcookies
p1317
(lp1318
sVurl
p1319
Vhttps://www.google.com/async/ampfp?vet=10ahUKEwipgIayiqnTAhUC74MKHR0UBkYQtZoBCIQC..i&ei=eXHzWOnfM4LejwSdqJiwBA&yv=2&async=_id:ampfp-async,_pms:qs
p1320
sVqueryString
p1321
(lp1322
(dp1323
Vname
p1324
Vvet
p1325
sVvalue
p1326
V10ahUKEwipgIayiqnTAhUC74MKHR0UBkYQtZoBCIQC..i
p1327
sa(dp1328
Vname
p1329
Vei
p1330
sVvalue
p1331
VeXHzWOnfM4LejwSdqJiwBA
p1332
sa(dp1333
Vname
p1334
Vyv
p1335
sVvalue
p1336
g64
sa(dp1337
Vname
p1338
Vasync
p1339
sVvalue
p1340
V_id:ampfp-async,_pms:qs
p1341
sasVheaders
p1342
(lp1343
sVheadersSize
p1344
I662
sVbodySize
p1345
I0
sVmethod
p1346
VGET
p1347
sVhttpVersion
p1348
VHTTP/1.1
p1349
ssVtimings
p1350
(dp1351
Vcomment
p1352
g4
sVreceive
p1353
I0
sVsend
p1354
I0
sVssl
p1355
I-1
sVconnect
p1356
I-1
sVdns
p1357
I-1
sVwait
p1358
I133
sVblocked
p1359
I-1
ssVtime
p1360
I133
sVresponse
p1361
(dp1362
Vstatus
p1363
I200
sVcomment
p1364
g4
sVcookies
p1365
(lp1366
sVstatusText
p1367
VOK
p1368
sVcontent
p1369
(dp1370
VmimeType
p1371
Vtext/html; charset=UTF-8
p1372
sVcomment
p1373
g4
sVsize
p1374
I0
ssVheaders
p1375
(lp1376
sVheadersSize
p1377
I383
sVredirectURL
p1378
g4
sVbodySize
p1379
I4527
sVhttpVersion
p1380
VHTTP/1.1
p1381
ssa(dp1382
Vcomment
p1383
g4
sVserverIPAddress
p1384
V172.217.6.4
p1385
sVpageref
p1386
VBrandon Ingram
p1387
sVstartedDateTime
p1388
V2017-04-16T08:28:28.886-05:00
p1389
sVcache
p1390
(dp1391
sVrequest
p1392
(dp1393
Vcomment
p1394
g4
sVcookies
p1395
(lp1396
sVurl
p1397
Vhttps://www.google.com/gen_204?atyp=i&ct=&cad=&vet=10ahUKEwipgIayiqnTAhUC74MKHR0UBkYQ5W0IQCgD..s&ei=eXHzWOnfM4LejwSdqJiwBA&zx=1492349308371
p1398
sVqueryString
p1399
(lp1400
(dp1401
Vname
p1402
Vatyp
p1403
sVvalue
p1404
g30
sa(dp1405
Vname
p1406
Vct
p1407
sVvalue
p1408
g4
sa(dp1409
Vname
p1410
Vcad
p1411
sVvalue
p1412
g4
sa(dp1413
Vname
p1414
Vvet
p1415
sVvalue
p1416
V10ahUKEwipgIayiqnTAhUC74MKHR0UBkYQ5W0IQCgD..s
p1417
sa(dp1418
Vname
p1419
Vei
p1420
sVvalue
p1421
VeXHzWOnfM4LejwSdqJiwBA
p1422
sa(dp1423
Vname
p1424
Vzx
p1425
sVvalue
p1426
V1492349308371
p1427
sasVheaders
p1428
(lp1429
sVheadersSize
p1430
I656
sVbodySize
p1431
I0
sVmethod
p1432
VGET
p1433
sVhttpVersion
p1434
VHTTP/1.1
p1435
ssVtimings
p1436
(dp1437
Vcomment
p1438
g4
sVreceive
p1439
I0
sVsend
p1440
I0
sVssl
p1441
I53
sVconnect
p1442
I71
sVdns
p1443
I439
sVwait
p1444
I130
sVblocked
p1445
I0
ssVtime
p1446
I642
sVresponse
p1447
(dp1448
Vstatus
p1449
I204
sVcomment
p1450
g4
sVcookies
p1451
(lp1452
sVstatusText
p1453
VNo Content
p1454
sVcontent
p1455
(dp1456
VmimeType
p1457
Vtext/html; charset=UTF-8
p1458
sVcomment
p1459
g4
sVsize
p1460
I0
ssVheaders
p1461
(lp1462
sVheadersSize
p1463
I248
sVredirectURL
p1464
g4
sVbodySize
p1465
I0
sVhttpVersion
p1466
VHTTP/1.1
p1467
ssa(dp1468
Vcomment
p1469
g4
sVserverIPAddress
p1470
V172.217.6.4
p1471
sVpageref
p1472
VBrandon Ingram
p1473
sVstartedDateTime
p1474
V2017-04-16T08:28:28.886-05:00
p1475
sVcache
p1476
(dp1477
sVrequest
p1478
(dp1479
Vcomment
p1480
g4
sVcookies
p1481
(lp1482
sVurl
p1483
Vhttps://www.google.com/gen_204?atyp=i&ct=&cad=&vet=10ahUKEwipgIayiqnTAhUC74MKHR0UBkYQ5W0ISSgG..s&ei=eXHzWOnfM4LejwSdqJiwBA&zx=1492349308381
p1484
sVqueryString
p1485
(lp1486
(dp1487
Vname
p1488
Vatyp
p1489
sVvalue
p1490
g30
sa(dp1491
Vname
p1492
Vct
p1493
sVvalue
p1494
g4
sa(dp1495
Vname
p1496
Vcad
p1497
sVvalue
p1498
g4
sa(dp1499
Vname
p1500
Vvet
p1501
sVvalue
p1502
V10ahUKEwipgIayiqnTAhUC74MKHR0UBkYQ5W0ISSgG..s
p1503
sa(dp1504
Vname
p1505
Vei
p1506
sVvalue
p1507
VeXHzWOnfM4LejwSdqJiwBA
p1508
sa(dp1509
Vname
p1510
Vzx
p1511
sVvalue
p1512
V1492349308381
p1513
sasVheaders
p1514
(lp1515
sVheadersSize
p1516
I656
sVbodySize
p1517
I0
sVmethod
p1518
VGET
p1519
sVhttpVersion
p1520
VHTTP/1.1
p1521
ssVtimings
p1522
(dp1523
Vcomment
p1524
g4
sVreceive
p1525
I0
sVsend
p1526
I0
sVssl
p1527
I56
sVconnect
p1528
I72
sVdns
p1529
I423
sVwait
p1530
I130
sVblocked
p1531
I0
ssVtime
p1532
I625
sVresponse
p1533
(dp1534
Vstatus
p1535
I204
sVcomment
p1536
g4
sVcookies
p1537
(lp1538
sVstatusText
p1539
VNo Content
p1540
sVcontent
p1541
(dp1542
VmimeType
p1543
Vtext/html; charset=UTF-8
p1544
sVcomment
p1545
g4
sVsize
p1546
I0
ssVheaders
p1547
(lp1548
sVheadersSize
p1549
I248
sVredirectURL
p1550
g4
sVbodySize
p1551
I0
sVhttpVersion
p1552
VHTTP/1.1
p1553
ssa(dp1554
Vcomment
p1555
g4
sVserverIPAddress
p1556
V172.217.6.4
p1557
sVpageref
p1558
VBrandon Ingram
p1559
sVstartedDateTime
p1560
V2017-04-16T08:28:28.886-05:00
p1561
sVcache
p1562
(dp1563
sVrequest
p1564
(dp1565
Vcomment
p1566
g4
sVcookies
p1567
(lp1568
sVurl
p1569
Vhttps://www.google.com/gen_204?atyp=i&ct=&cad=&vet=10ahUKEwipgIayiqnTAhUC74MKHR0UBkYQ5W0IPSgC..s&ei=eXHzWOnfM4LejwSdqJiwBA&zx=1492349308368
p1570
sVqueryString
p1571
(lp1572
(dp1573
Vname
p1574
Vatyp
p1575
sVvalue
p1576
g30
sa(dp1577
Vname
p1578
Vct
p1579
sVvalue
p1580
g4
sa(dp1581
Vname
p1582
Vcad
p1583
sVvalue
p1584
g4
sa(dp1585
Vname
p1586
Vvet
p1587
sVvalue
p1588
V10ahUKEwipgIayiqnTAhUC74MKHR0UBkYQ5W0IPSgC..s
p1589
sa(dp1590
Vname
p1591
Vei
p1592
sVvalue
p1593
VeXHzWOnfM4LejwSdqJiwBA
p1594
sa(dp1595
Vname
p1596
Vzx
p1597
sVvalue
p1598
V1492349308368
p1599
sasVheaders
p1600
(lp1601
sVheadersSize
p1602
I656
sVbodySize
p1603
I0
sVmethod
p1604
VGET
p1605
sVhttpVersion
p1606
VHTTP/1.1
p1607
ssVtimings
p1608
(dp1609
Vcomment
p1610
g4
sVreceive
p1611
I0
sVsend
p1612
I0
sVssl
p1613
I47
sVconnect
p1614
I71
sVdns
p1615
I442
sVwait
p1616
I129
sVblocked
p1617
I0
ssVtime
p1618
I644
sVresponse
p1619
(dp1620
Vstatus
p1621
I204
sVcomment
p1622
g4
sVcookies
p1623
(lp1624
sVstatusText
p1625
VNo Content
p1626
sVcontent
p1627
(dp1628
VmimeType
p1629
Vtext/html; charset=UTF-8
p1630
sVcomment
p1631
g4
sVsize
p1632
I0
ssVheaders
p1633
(lp1634
sVheadersSize
p1635
I248
sVredirectURL
p1636
g4
sVbodySize
p1637
I0
sVhttpVersion
p1638
VHTTP/1.1
p1639
ssa(dp1640
Vcomment
p1641
g4
sVserverIPAddress
p1642
V172.217.6.4
p1643
sVpageref
p1644
VBrandon Ingram
p1645
sVstartedDateTime
p1646
V2017-04-16T08:28:28.886-05:00
p1647
sVcache
p1648
(dp1649
sVrequest
p1650
(dp1651
Vcomment
p1652
g4
sVcookies
p1653
(lp1654
sVurl
p1655
Vhttps://www.google.com/gen_204?atyp=i&ct=&cad=&vet=10ahUKEwipgIayiqnTAhUC74MKHR0UBkYQ5W0IQygE..s&ei=eXHzWOnfM4LejwSdqJiwBA&zx=1492349308374
p1656
sVqueryString
p1657
(lp1658
(dp1659
Vname
p1660
Vatyp
p1661
sVvalue
p1662
g30
sa(dp1663
Vname
p1664
Vct
p1665
sVvalue
p1666
g4
sa(dp1667
Vname
p1668
Vcad
p1669
sVvalue
p1670
g4
sa(dp1671
Vname
p1672
Vvet
p1673
sVvalue
p1674
V10ahUKEwipgIayiqnTAhUC74MKHR0UBkYQ5W0IQygE..s
p1675
sa(dp1676
Vname
p1677
Vei
p1678
sVvalue
p1679
VeXHzWOnfM4LejwSdqJiwBA
p1680
sa(dp1681
Vname
p1682
Vzx
p1683
sVvalue
p1684
V1492349308374
p1685
sasVheaders
p1686
(lp1687
sVheadersSize
p1688
I656
sVbodySize
p1689
I0
sVmethod
p1690
VGET
p1691
sVhttpVersion
p1692
VHTTP/1.1
p1693
ssVtimings
p1694
(dp1695
Vcomment
p1696
g4
sVreceive
p1697
I0
sVsend
p1698
I0
sVssl
p1699
I52
sVconnect
p1700
I72
sVdns
p1701
I436
sVwait
p1702
I129
sVblocked
p1703
I0
ssVtime
p1704
I638
sVresponse
p1705
(dp1706
Vstatus
p1707
I204
sVcomment
p1708
g4
sVcookies
p1709
(lp1710
sVstatusText
p1711
VNo Content
p1712
sVcontent
p1713
(dp1714
VmimeType
p1715
Vtext/html; charset=UTF-8
p1716
sVcomment
p1717
g4
sVsize
p1718
I0
ssVheaders
p1719
(lp1720
sVheadersSize
p1721
I248
sVredirectURL
p1722
g4
sVbodySize
p1723
I0
sVhttpVersion
p1724
VHTTP/1.1
p1725
ssa(dp1726
Vcomment
p1727
g4
sVserverIPAddress
p1728
V172.217.6.4
p1729
sVpageref
p1730
VBrandon Ingram
p1731
sVstartedDateTime
p1732
V2017-04-16T08:28:28.886-05:00
p1733
sVcache
p1734
(dp1735
sVrequest
p1736
(dp1737
Vcomment
p1738
g4
sVcookies
p1739
(lp1740
sVurl
p1741
Vhttps://www.google.com/gen_204?atyp=i&ct=&cad=&vet=10ahUKEwipgIayiqnTAhUC74MKHR0UBkYQ5W0IRigF..s&ei=eXHzWOnfM4LejwSdqJiwBA&zx=1492349308377
p1742
sVqueryString
p1743
(lp1744
(dp1745
Vname
p1746
Vatyp
p1747
sVvalue
p1748
g30
sa(dp1749
Vname
p1750
Vct
p1751
sVvalue
p1752
g4
sa(dp1753
Vname
p1754
Vcad
p1755
sVvalue
p1756
g4
sa(dp1757
Vname
p1758
Vvet
p1759
sVvalue
p1760
V10ahUKEwipgIayiqnTAhUC74MKHR0UBkYQ5W0IRigF..s
p1761
sa(dp1762
Vname
p1763
Vei
p1764
sVvalue
p1765
VeXHzWOnfM4LejwSdqJiwBA
p1766
sa(dp1767
Vname
p1768
Vzx
p1769
sVvalue
p1770
V1492349308377
p1771
sasVheaders
p1772
(lp1773
sVheadersSize
p1774
I656
sVbodySize
p1775
I0
sVmethod
p1776
VGET
p1777
sVhttpVersion
p1778
VHTTP/1.1
p1779
ssVtimings
p1780
(dp1781
Vcomment
p1782
g4
sVreceive
p1783
I0
sVsend
p1784
I0
sVssl
p1785
I52
sVconnect
p1786
I71
sVdns
p1787
I427
sVwait
p1788
I129
sVblocked
p1789
I0
ssVtime
p1790
I629
sVresponse
p1791
(dp1792
Vstatus
p1793
I204
sVcomment
p1794
g4
sVcookies
p1795
(lp1796
sVstatusText
p1797
VNo Content
p1798
sVcontent
p1799
(dp1800
VmimeType
p1801
Vtext/html; charset=UTF-8
p1802
sVcomment
p1803
g4
sVsize
p1804
I0
ssVheaders
p1805
(lp1806
sVheadersSize
p1807
I248
sVredirectURL
p1808
g4
sVbodySize
p1809
I0
sVhttpVersion
p1810
VHTTP/1.1
p1811
ssa(dp1812
Vcomment
p1813
g4
sVserverIPAddress
p1814
V172.217.0.14
p1815
sVpageref
p1816
VBrandon Ingram
p1817
sVstartedDateTime
p1818
V2017-04-16T08:28:28.952-05:00
p1819
sVcache
p1820
(dp1821
sVrequest
p1822
(dp1823
Vcomment
p1824
g4
sVcookies
p1825
(lp1826
sVurl
p1827
Vhttps://encrypted-tbn0.gstatic.com/images?q=tbn:ANd9GcRkNG-w5ChfFva6GHNHOnssYXQY7dBPJHdBGl4tckewtJHqhhfcRIOriR8
p1828
sVqueryString
p1829
(lp1830
(dp1831
Vname
p1832
g721
sVvalue
p1833
Vtbn:ANd9GcRkNG-w5ChfFva6GHNHOnssYXQY7dBPJHdBGl4tckewtJHqhhfcRIOriR8
p1834
sasVheaders
p1835
(lp1836
sVheadersSize
p1837
I426
sVbodySize
p1838
I0
sVmethod
p1839
VGET
p1840
sVhttpVersion
p1841
VHTTP/1.1
p1842
ssVtimings
p1843
(dp1844
Vcomment
p1845
g4
sVreceive
p1846
I0
sVsend
p1847
I0
sVssl
p1848
I352
sVconnect
p1849
I385
sVdns
p1850
I35
sVwait
p1851
I64
sVblocked
p1852
I0
ssVtime
p1853
I485
sVresponse
p1854
(dp1855
Vstatus
p1856
I200
sVcomment
p1857
g4
sVcookies
p1858
(lp1859
sVstatusText
p1860
VOK
p1861
sVcontent
p1862
(dp1863
VmimeType
p1864
Vimage/jpeg
p1865
sVcomment
p1866
g4
sVsize
p1867
I0
ssVheaders
p1868
(lp1869
sVheadersSize
p1870
I415
sVredirectURL
p1871
g4
sVbodySize
p1872
I3023
sVhttpVersion
p1873
VHTTP/1.1
p1874
ssa(dp1875
Vcomment
p1876
g4
sVserverIPAddress
p1877
V172.217.6.4
p1878
sVpageref
p1879
VBrandon Ingram
p1880
sVstartedDateTime
p1881
V2017-04-16T08:28:29.102-05:00
p1882
sVcache
p1883
(dp1884
sVrequest
p1885
(dp1886
Vcomment
p1887
g4
sVcookies
p1888
(lp1889
sVurl
p1890
Vhttps://www.google.com/async/log_amp_item_set?vet=10ahUKEwiok4OziqnTAhWI3YMKHe0ZCtwQooQBCAE..i&ei=eXHzWOnfM4LejwSdqJiwBA&yv=2&async=num_items:1,_fmt:jspb
p1891
sVqueryString
p1892
(lp1893
(dp1894
Vname
p1895
Vvet
p1896
sVvalue
p1897
V10ahUKEwiok4OziqnTAhWI3YMKHe0ZCtwQooQBCAE..i
p1898
sa(dp1899
Vname
p1900
Vei
p1901
sVvalue
p1902
VeXHzWOnfM4LejwSdqJiwBA
p1903
sa(dp1904
Vname
p1905
Vyv
p1906
sVvalue
p1907
g64
sa(dp1908
Vname
p1909
Vasync
p1910
sVvalue
p1911
Vnum_items:1,_fmt:jspb
p1912
sasVheaders
p1913
(lp1914
sVheadersSize
p1915
I670
sVbodySize
p1916
I0
sVmethod
p1917
VGET
p1918
sVhttpVersion
p1919
VHTTP/1.1
p1920
ssVtimings
p1921
(dp1922
Vcomment
p1923
g4
sVreceive
p1924
I0
sVsend
p1925
I0
sVssl
p1926
I-1
sVconnect
p1927
I-1
sVdns
p1928
I-1
sVwait
p1929
I35
sVblocked
p1930
I-1
ssVtime
p1931
I35
sVresponse
p1932
(dp1933
Vstatus
p1934
I200
sVcomment
p1935
g4
sVcookies
p1936
(lp1937
sVstatusText
p1938
VOK
p1939
sVcontent
p1940
(dp1941
VmimeType
p1942
Vapplication/json; charset=UTF-8
p1943
sVcomment
p1944
g4
sVsize
p1945
I0
ssVheaders
p1946
(lp1947
sVheadersSize
p1948
I417
sVredirectURL
p1949
g4
sVbodySize
p1950
I132
sVhttpVersion
p1951
VHTTP/1.1
p1952
ssa(dp1953
Vcomment
p1954
g4
sVserverIPAddress
p1955
V216.58.216.193
p1956
sVpageref
p1957
VBrandon Ingram
p1958
sVstartedDateTime
p1959
V2017-04-16T08:28:29.562-05:00
p1960
sVcache
p1961
(dp1962
sVrequest
p1963
(dp1964
Vcomment
p1965
g4
sVcookies
p1966
(lp1967
sVurl
p1968
Vhttps://www-silverscreenandroll-com.cdn.ampproject.org/v/www.silverscreenandroll.com/platform/amp/2017/4/14/15298876/la-lakers-news-brandon-ingram-growth-exit-interviews-quotes-analysis-joel-embiid-rookies-tiny-dog?amp_js_v=9
p1969
sVqueryString
p1970
(lp1971
(dp1972
Vname
p1973
Vamp_js_v
p1974
sVvalue
p1975
V9
p1976
sasVheaders
p1977
(lp1978
sVheadersSize
p1979
I630
sVbodySize
p1980
I0
sVmethod
p1981
VGET
p1982
sVhttpVersion
p1983
VHTTP/1.1
p1984
ssVtimings
p1985
(dp1986
Vcomment
p1987
g4
sVreceive
p1988
I1
sVsend
p1989
I0
sVssl
p1990
I392
sVconnect
p1991
I412
sVdns
p1992
I38
sVwait
p1993
I77
sVblocked
p1994
I0
ssVtime
p1995
I530
sVresponse
p1996
(dp1997
Vstatus
p1998
I200
sVcomment
p1999
g4
sVcookies
p2000
(lp2001
sVstatusText
p2002
VOK
p2003
sVcontent
p2004
(dp2005
VmimeType
p2006
Vtext/html
p2007
sVcomment
p2008
g4
sVsize
p2009
I0
ssVheaders
p2010
(lp2011
sVheadersSize
p2012
I859
sVredirectURL
p2013
g4
sVbodySize
p2014
I9534
sVhttpVersion
p2015
VHTTP/1.1
p2016
ssa(dp2017
Vcomment
p2018
g4
sVserverIPAddress
p2019
V172.217.0.1
p2020
sVpageref
p2021
VBrandon Ingram
p2022
sVstartedDateTime
p2023
V2017-04-16T08:28:29.859-05:00
p2024
sVcache
p2025
(dp2026
sVrequest
p2027
(dp2028
Vcomment
p2029
g4
sVcookies
p2030
(lp2031
sVurl
p2032
Vhttps://cdn0-vox--cdn-com.cdn.ampproject.org/i/s/cdn0.vox-cdn.com/thumbor/TRwPNk8HBRDuTwvHPu-R2ucUg44=/0x89:2108x1494/1310x873/cdn0.vox-cdn.com/uploads/chorus_image/image/54253733/645627380.0.jpg
p2033
sVqueryString
p2034
(lp2035
sVheaders
p2036
(lp2037
sVheadersSize
p2038
I712
sVbodySize
p2039
I0
sVmethod
p2040
VGET
p2041
sVhttpVersion
p2042
VHTTP/1.1
p2043
ssVtimings
p2044
(dp2045
Vcomment
p2046
g4
sVreceive
p2047
I72
sVsend
p2048
I0
sVssl
p2049
I-1
sVconnect
p2050
I-1
sVdns
p2051
I-1
sVwait
p2052
I118
sVblocked
p2053
I-1
ssVtime
p2054
I191
sVresponse
p2055
(dp2056
Vstatus
p2057
I200
sVcomment
p2058
g4
sVcookies
p2059
(lp2060
sVstatusText
p2061
VOK
p2062
sVcontent
p2063
(dp2064
VmimeType
p2065
Vimage/jpeg
p2066
sVcomment
p2067
g4
sVsize
p2068
I0
ssVheaders
p2069
(lp2070
sVheadersSize
p2071
I851
sVredirectURL
p2072
g4
sVbodySize
p2073
I137421
sVhttpVersion
p2074
VHTTP/1.1
p2075
ssa(dp2076
Vcomment
p2077
g4
sVserverIPAddress
p2078
V172.217.6.4
p2079
sVpageref
p2080
VBrandon Ingram
p2081
sVstartedDateTime
p2082
V2017-04-16T08:28:30.634-05:00
p2083
sVcache
p2084
(dp2085
sVrequest
p2086
(dp2087
Vcomment
p2088
g4
sVcookies
p2089
(lp2090
sVurl
p2091
Vhttps://www.google.com/gen_204?atyp=i&ct=slh&cad=&ei=P3HzWLjnLeGUjwSOhLjIDw&s=2&v=2&pv=0.1173223983353433&me=17:1492349270524,e,H&zx=1492349310546
p2092
sVqueryString
p2093
(lp2094
(dp2095
Vname
p2096
Vatyp
p2097
sVvalue
p2098
g30
sa(dp2099
Vname
p2100
Vct
p2101
sVvalue
p2102
Vslh
p2103
sa(dp2104
Vname
p2105
Vcad
p2106
sVvalue
p2107
g4
sa(dp2108
Vname
p2109
Vei
p2110
sVvalue
p2111
VP3HzWLjnLeGUjwSOhLjIDw
p2112
sa(dp2113
Vname
p2114
g57
sVvalue
p2115
g64
sa(dp2116
Vname
p2117
g62
sVvalue
p2118
g64
sa(dp2119
Vname
p2120
Vpv
p2121
sVvalue
p2122
V0.1173223983353433
p2123
sa(dp2124
Vname
p2125
Vme
p2126
sVvalue
p2127
V17:1492349270524,e,H
p2128
sa(dp2129
Vname
p2130
Vzx
p2131
sVvalue
p2132
V1492349310546
p2133
sasVheaders
p2134
(lp2135
sVheadersSize
p2136
I663
sVbodySize
p2137
I0
sVmethod
p2138
VGET
p2139
sVhttpVersion
p2140
VHTTP/1.1
p2141
ssVtimings
p2142
(dp2143
Vcomment
p2144
g4
sVreceive
p2145
I0
sVsend
p2146
I0
sVssl
p2147
I-1
sVconnect
p2148
I-1
sVdns
p2149
I-1
sVwait
p2150
I38
sVblocked
p2151
I-1
ssVtime
p2152
I38
sVresponse
p2153
(dp2154
Vstatus
p2155
I204
sVcomment
p2156
g4
sVcookies
p2157
(lp2158
sVstatusText
p2159
VNo Content
p2160
sVcontent
p2161
(dp2162
VmimeType
p2163
Vtext/html; charset=UTF-8
p2164
sVcomment
p2165
g4
sVsize
p2166
I0
ssVheaders
p2167
(lp2168
sVheadersSize
p2169
I248
sVredirectURL
p2170
g4
sVbodySize
p2171
I0
sVhttpVersion
p2172
VHTTP/1.1
p2173
ssa(dp2174
Vcomment
p2175
g4
sVserverIPAddress
p2176
V216.58.216.193
p2177
sVpageref
p2178
VBrandon Ingram
p2179
sVstartedDateTime
p2180
V2017-04-16T08:28:30.655-05:00
p2181
sVcache
p2182
(dp2183
sVrequest
p2184
(dp2185
Vcomment
p2186
g4
sVcookies
p2187
(lp2188
sVurl
p2189
Vhttps://cdn3-vox--cdn-com.cdn.ampproject.org/ii/w100/s/cdn3.vox-cdn.com/uploads/blog/sbnu_logo_minimal/227/large_silverscreenandroll.com.minimal.png
p2190
sVqueryString
p2191
(lp2192
sVheaders
p2193
(lp2194
sVheadersSize
p2195
I665
sVbodySize
p2196
I0
sVmethod
p2197
VGET
p2198
sVhttpVersion
p2199
VHTTP/1.1
p2200
ssVtimings
p2201
(dp2202
Vcomment
p2203
g4
sVreceive
p2204
I0
sVsend
p2205
I0
sVssl
p2206
I714
sVconnect
p2207
I747
sVdns
p2208
I48
sVwait
p2209
I22
sVblocked
p2210
I0
ssVtime
p2211
I820
sVresponse
p2212
(dp2213
Vstatus
p2214
I200
sVcomment
p2215
g4
sVcookies
p2216
(lp2217
sVstatusText
p2218
VOK
p2219
sVcontent
p2220
(dp2221
VmimeType
p2222
Vimage/png
p2223
sVcomment
p2224
g4
sVsize
p2225
I0
ssVheaders
p2226
(lp2227
sVheadersSize
p2228
I824
sVredirectURL
p2229
g4
sVbodySize
p2230
I6112
sVhttpVersion
p2231
VHTTP/1.1
p2232
ssa(dp2233
Vcomment
p2234
g4
sVserverIPAddress
p2235
V172.217.6.4
p2236
sVpageref
p2237
VBrandon Ingram
p2238
sVstartedDateTime
p2239
V2017-04-16T08:28:30.698-05:00
p2240
sVcache
p2241
(dp2242
sVrequest
p2243
(dp2244
Vcomment
p2245
g4
sVcookies
p2246
(lp2247
sVurl
p2248
Vhttps://www.google.com/gen_204?s=web&atyp=csi&ei=eXHzWOnfM4LejwSdqJiwBA&imc=41&imn=41&imp=17&adh=&xjs=init.39.15.sb_mob.26.dvl.7.c.1.r.1.async.1&ima=9&rt=prt.807,iml.867,xjsls.807,qiml.1066,dcl.869,xjses.979,xjsee.1119,xjs.1119,ol.3703,aft.865,wsrt.136,cst.0,dnst.0,rqst.859,rspt.743,rqstt.2,unt.2,cstt.2,dit.959
p2249
sVqueryString
p2250
(lp2251
(dp2252
Vname
p2253
g57
sVvalue
p2254
Vweb
p2255
sa(dp2256
Vname
p2257
Vatyp
p2258
sVvalue
p2259
Vcsi
p2260
sa(dp2261
Vname
p2262
Vei
p2263
sVvalue
p2264
VeXHzWOnfM4LejwSdqJiwBA
p2265
sa(dp2266
Vname
p2267
Vimc
p2268
sVvalue
p2269
V41
p2270
sa(dp2271
Vname
p2272
Vimn
p2273
sVvalue
p2274
V41
p2275
sa(dp2276
Vname
p2277
Vimp
p2278
sVvalue
p2279
V17
p2280
sa(dp2281
Vname
p2282
Vadh
p2283
sVvalue
p2284
g4
sa(dp2285
Vname
p2286
Vxjs
p2287
sVvalue
p2288
Vinit.39.15.sb_mob.26.dvl.7.c.1.r.1.async.1
p2289
sa(dp2290
Vname
p2291
Vima
p2292
sVvalue
p2293
g1976
sa(dp2294
Vname
p2295
Vrt
p2296
sVvalue
p2297
Vprt.807,iml.867,xjsls.807,qiml.1066,dcl.869,xjses.979,xjsee.1119,xjs.1119,ol.3703,aft.865,wsrt.136,cst.0,dnst.0,rqst.859,rspt.743,rqstt.2,unt.2,cstt.2,dit.959
p2298
sasVheaders
p2299
(lp2300
sVheadersSize
p2301
I829
sVbodySize
p2302
I0
sVmethod
p2303
VGET
p2304
sVhttpVersion
p2305
VHTTP/1.1
p2306
ssVtimings
p2307
(dp2308
Vcomment
p2309
g4
sVreceive
p2310
I0
sVsend
p2311
I0
sVssl
p2312
I-1
sVconnect
p2313
I-1
sVdns
p2314
I-1
sVwait
p2315
I30
sVblocked
p2316
I-1
ssVtime
p2317
I30
sVresponse
p2318
(dp2319
Vstatus
p2320
I204
sVcomment
p2321
g4
sVcookies
p2322
(lp2323
sVstatusText
p2324
VNo Content
p2325
sVcontent
p2326
(dp2327
VmimeType
p2328
Vtext/html; charset=UTF-8
p2329
sVcomment
p2330
g4
sVsize
p2331
I0
ssVheaders
p2332
(lp2333
sVheadersSize
p2334
I248
sVredirectURL
p2335
g4
sVbodySize
p2336
I0
sVhttpVersion
p2337
VHTTP/1.1
p2338
ssasVversion
p2339
V1.2
p2340
sVpages
p2341
(lp2342
(dp2343
VpageTimings
p2344
(dp2345
Vcomment
p2346
g4
ssVcomment
p2347
g4
sVtitle
p2348
VBrandon Ingram
p2349
sVid
p2350
VBrandon Ingram
p2351
sVstartedDateTime
p2352
V2017-04-16T08:28:26.162-05:00
p2353
sasVcreator
p2354
(dp2355
Vcomment
p2356
g4
sVversion
p2357
V2.1.4
p2358
sVname
p2359
VBrowserMob Proxy
p2360
sss.