(dp0
Vlog
p1
(dp2
Vcomment
p3
V
p4
sVentries
p5
(lp6
(dp7
Vcomment
p8
g4
sVserverIPAddress
p9
V216.58.216.196
p10
sVpageref
p11
VTexas Rangers
p12
sVstartedDateTime
p13
V2017-04-16T08:25:43.547-05:00
p14
sVcache
p15
(dp16
sVrequest
p17
(dp18
Vcomment
p19
g4
sVcookies
p20
(lp21
sVurl
p22
Vhttps://www.google.com/gen_204?atyp=i&ct=slh&cad=&ei=xXDzWKunGIajjwS78ZPYBg&m=V&t=C&s=1&v=2&pv=0.6845379332810134&me=1:1492349128116,x:2,V,0,0,1280,944:0,N,1,xXDzWKunGIajjwS78ZPYBg:0,R,1,24,0,155,1197,502:0,R,1,25,0,155,1197,500:0,R,1,78,8,665,1264,493:0,R,1,79,8,709,1264,315:0,R,1,80,0,709,1280,335:2,B,3201:15426,e,U&zx=1492349143546
p23
sVqueryString
p24
(lp25
(dp26
Vname
p27
Vatyp
p28
sVvalue
p29
Vi
p30
sa(dp31
Vname
p32
Vct
p33
sVvalue
p34
Vslh
p35
sa(dp36
Vname
p37
Vcad
p38
sVvalue
p39
g4
sa(dp40
Vname
p41
Vei
p42
sVvalue
p43
VxXDzWKunGIajjwS78ZPYBg
p44
sa(dp45
Vname
p46
Vm
p47
sVvalue
p48
VV
p49
sa(dp50
Vname
p51
Vt
p52
sVvalue
p53
VC
p54
sa(dp55
Vname
p56
Vs
p57
sVvalue
p58
V1
p59
sa(dp60
Vname
p61
Vv
p62
sVvalue
p63
V2
p64
sa(dp65
Vname
p66
Vpv
p67
sVvalue
p68
V0.6845379332810134
p69
sa(dp70
Vname
p71
Vme
p72
sVvalue
p73
V1:1492349128116,x:2,V,0,0,1280,944:0,N,1,xXDzWKunGIajjwS78ZPYBg:0,R,1,24,0,155,1197,502:0,R,1,25,0,155,1197,500:0,R,1,78,8,665,1264,493:0,R,1,79,8,709,1264,315:0,R,1,80,0,709,1280,335:2,B,3201:15426,e,U
p74
sa(dp75
Vname
p76
Vzx
p77
sVvalue
p78
V1492349143546
p79
sasVheaders
p80
(lp81
sVheadersSize
p82
I853
sVbodySize
p83
I0
sVmethod
p84
VGET
p85
sVhttpVersion
p86
VHTTP/1.1
p87
ssVtimings
p88
(dp89
Vcomment
p90
g4
sVreceive
p91
I0
sVsend
p92
I0
sVssl
p93
I-1
sVconnect
p94
I-1
sVdns
p95
I-1
sVwait
p96
I0
sVblocked
p97
I-1
ssVtime
p98
I0
sVresponse
p99
(dp100
Vstatus
p101
I0
sVcomment
p102
g4
sVcookies
p103
(lp104
sV_error
p105
VNo response received
p106
sVstatusText
p107
g4
sVcontent
p108
(dp109
VmimeType
p110
g4
sVcomment
p111
g4
sVsize
p112
I0
ssVheaders
p113
(lp114
sVheadersSize
p115
I-1
sVredirectURL
p116
g4
sVbodySize
p117
I-1
sVhttpVersion
p118
Vunknown
p119
ssa(dp120
Vcomment
p121
g4
sVserverIPAddress
p122
V216.58.216.196
p123
sVpageref
p124
VTexas Rangers
p125
sVstartedDateTime
p126
V2017-04-16T08:25:43.548-05:00
p127
sVcache
p128
(dp129
sVrequest
p130
(dp131
Vcomment
p132
g4
sVcookies
p133
(lp134
sVurl
p135
Vhttps://www.google.com/gen_204?atyp=i&ct=slh&cad=&ei=rHDzWMPpB6G7jwTu6qWoDg&s=2&v=2&pv=0.9140412684394725&me=11:1492349125893,e,H&zx=1492349143547
p136
sVqueryString
p137
(lp138
(dp139
Vname
p140
Vatyp
p141
sVvalue
p142
g30
sa(dp143
Vname
p144
Vct
p145
sVvalue
p146
Vslh
p147
sa(dp148
Vname
p149
Vcad
p150
sVvalue
p151
g4
sa(dp152
Vname
p153
Vei
p154
sVvalue
p155
VrHDzWMPpB6G7jwTu6qWoDg
p156
sa(dp157
Vname
p158
g57
sVvalue
p159
g64
sa(dp160
Vname
p161
g62
sVvalue
p162
g64
sa(dp163
Vname
p164
Vpv
p165
sVvalue
p166
V0.9140412684394725
p167
sa(dp168
Vname
p169
Vme
p170
sVvalue
p171
V11:1492349125893,e,H
p172
sa(dp173
Vname
p174
Vzx
p175
sVvalue
p176
V1492349143547
p177
sasVheaders
p178
(lp179
sVheadersSize
p180
I663
sVbodySize
p181
I0
sVmethod
p182
VGET
p183
sVhttpVersion
p184
VHTTP/1.1
p185
ssVtimings
p186
(dp187
Vcomment
p188
g4
sVreceive
p189
I0
sVsend
p190
I0
sVssl
p191
I-1
sVconnect
p192
I-1
sVdns
p193
I-1
sVwait
p194
I0
sVblocked
p195
I-1
ssVtime
p196
I0
sVresponse
p197
(dp198
Vstatus
p199
I0
sVcomment
p200
g4
sVcookies
p201
(lp202
sV_error
p203
VNo response received
p204
sVstatusText
p205
g4
sVcontent
p206
(dp207
VmimeType
p208
g4
sVcomment
p209
g4
sVsize
p210
I0
ssVheaders
p211
(lp212
sVheadersSize
p213
I-1
sVredirectURL
p214
g4
sVbodySize
p215
I-1
sVhttpVersion
p216
Vunknown
p217
ssa(dp218
Vcomment
p219
g4
sVserverIPAddress
p220
V216.58.216.196
p221
sVpageref
p222
VTexas Rangers
p223
sVstartedDateTime
p224
V2017-04-16T08:25:43.554-05:00
p225
sVcache
p226
(dp227
sVrequest
p228
(dp229
Vcomment
p230
g4
sVcookies
p231
(lp232
sVurl
p233
Vhttp://www.google.com/
p234
sVqueryString
p235
(lp236
sVheaders
p237
(lp238
sVheadersSize
p239
I613
sVbodySize
p240
I0
sVmethod
p241
VGET
p242
sVhttpVersion
p243
VHTTP/1.1
p244
ssVtimings
p245
(dp246
Vcomment
p247
g4
sVreceive
p248
I0
sVsend
p249
I0
sVssl
p250
I-1
sVconnect
p251
I-1
sVdns
p252
I-1
sVwait
p253
I35
sVblocked
p254
I-1
ssVtime
p255
I35
sVresponse
p256
(dp257
Vstatus
p258
I302
sVcomment
p259
g4
sVcookies
p260
(lp261
sVstatusText
p262
VFound
p263
sVcontent
p264
(dp265
VmimeType
p266
Vtext/html; charset=UTF-8
p267
sVcomment
p268
g4
sVsize
p269
I0
ssVheaders
p270
(lp271
sVheadersSize
p272
I609
sVredirectURL
p273
Vhttps://www.google.com/?gws_rd=ssl
p274
sVbodySize
p275
I231
sVhttpVersion
p276
VHTTP/1.1
p277
ssa(dp278
Vcomment
p279
g4
sVserverIPAddress
p280
V216.58.216.196
p281
sVpageref
p282
VTexas Rangers
p283
sVstartedDateTime
p284
V2017-04-16T08:25:43.549-05:00
p285
sVcache
p286
(dp287
sVrequest
p288
(dp289
Vcomment
p290
g4
sVcookies
p291
(lp292
sVurl
p293
Vhttps://www.google.com
p294
sVqueryString
p295
(lp296
sVheaders
p297
(lp298
sVheadersSize
p299
I0
sVbodySize
p300
I0
sVmethod
p301
VCONNECT
p302
sVhttpVersion
p303
VHTTP/1.1
p304
ssVtimings
p305
(dp306
Vcomment
p307
g4
sVreceive
p308
I0
sVsend
p309
I0
sVssl
p310
I-1
sVconnect
p311
I30
sVdns
p312
I1
sVwait
p313
I0
sVblocked
p314
I0
ssVtime
p315
I31
sVresponse
p316
(dp317
Vstatus
p318
I0
sVcomment
p319
g4
sVcookies
p320
(lp321
sV_error
p322
VUnable to connect to host
p323
sVstatusText
p324
g4
sVcontent
p325
(dp326
VmimeType
p327
g4
sVcomment
p328
g4
sVsize
p329
I0
ssVheaders
p330
(lp331
sVheadersSize
p332
I-1
sVredirectURL
p333
g4
sVbodySize
p334
I-1
sVhttpVersion
p335
Vunknown
p336
ssa(dp337
Vcomment
p338
g4
sVserverIPAddress
p339
V216.58.216.196
p340
sVpageref
p341
VTexas Rangers
p342
sVstartedDateTime
p343
V2017-04-16T08:25:43.644-05:00
p344
sVcache
p345
(dp346
sVrequest
p347
(dp348
Vcomment
p349
g4
sVcookies
p350
(lp351
sVurl
p352
Vhttps://www.google.com/?gws_rd=ssl
p353
sVqueryString
p354
(lp355
(dp356
Vname
p357
Vgws_rd
p358
sVvalue
p359
Vssl
p360
sasVheaders
p361
(lp362
sVheadersSize
p363
I607
sVbodySize
p364
I0
sVmethod
p365
VGET
p366
sVhttpVersion
p367
VHTTP/1.1
p368
ssVtimings
p369
(dp370
Vcomment
p371
g4
sVreceive
p372
I23
sVsend
p373
I0
sVssl
p374
I21
sVconnect
p375
I48
sVdns
p376
I0
sVwait
p377
I80
sVblocked
p378
I0
ssVtime
p379
I152
sVresponse
p380
(dp381
Vstatus
p382
I200
sVcomment
p383
g4
sVcookies
p384
(lp385
sVstatusText
p386
VOK
p387
sVcontent
p388
(dp389
VmimeType
p390
Vtext/html; charset=UTF-8
p391
sVcomment
p392
g4
sVsize
p393
I0
ssVheaders
p394
(lp395
sVheadersSize
p396
I721
sVredirectURL
p397
g4
sVbodySize
p398
I34289
sVhttpVersion
p399
VHTTP/1.1
p400
ssa(dp401
Vcomment
p402
g4
sVserverIPAddress
p403
V216.58.216.196
p404
sVpageref
p405
VTexas Rangers
p406
sVstartedDateTime
p407
V2017-04-16T08:25:44.217-05:00
p408
sVcache
p409
(dp410
sVrequest
p411
(dp412
Vcomment
p413
g4
sVcookies
p414
(lp415
sVurl
p416
Vhttps://www.google.com/gen_204?s=mobilewebhp&atyp=csi&ei=1nDzWK2WJ4SsjwSW6ZqYAg&imc=1&imn=1&imp=0&adh=&xjs=init.33.12.sb_mob.26.mbsf.3.dvl.2.c.1.jsa.1&ima=1&rt=xjsls.19,prt.20,iml.20,dcl.38,xjses.323,xjsee.438,xjs.439,ol.471,aft.20,wsrt.197,cst.0,dnst.0,rqst.105,rspt.106,rqstt.98,unt.46,cstt.46,dit.226
p417
sVqueryString
p418
(lp419
(dp420
Vname
p421
g57
sVvalue
p422
Vmobilewebhp
p423
sa(dp424
Vname
p425
Vatyp
p426
sVvalue
p427
Vcsi
p428
sa(dp429
Vname
p430
Vei
p431
sVvalue
p432
V1nDzWK2WJ4SsjwSW6ZqYAg
p433
sa(dp434
Vname
p435
Vimc
p436
sVvalue
p437
g59
sa(dp438
Vname
p439
Vimn
p440
sVvalue
p441
g59
sa(dp442
Vname
p443
Vimp
p444
sVvalue
p445
V0
p446
sa(dp447
Vname
p448
Vadh
p449
sVvalue
p450
g4
sa(dp451
Vname
p452
Vxjs
p453
sVvalue
p454
Vinit.33.12.sb_mob.26.mbsf.3.dvl.2.c.1.jsa.1
p455
sa(dp456
Vname
p457
Vima
p458
sVvalue
p459
g59
sa(dp460
Vname
p461
Vrt
p462
sVvalue
p463
Vxjsls.19,prt.20,iml.20,dcl.38,xjses.323,xjsee.438,xjs.439,ol.471,aft.20,wsrt.197,cst.0,dnst.0,rqst.105,rspt.106,rqstt.98,unt.46,cstt.46,dit.226
p464
sasVheaders
p465
(lp466
sVheadersSize
p467
I831
sVbodySize
p468
I0
sVmethod
p469
VGET
p470
sVhttpVersion
p471
VHTTP/1.1
p472
ssVtimings
p473
(dp474
Vcomment
p475
g4
sVreceive
p476
I0
sVsend
p477
I0
sVssl
p478
I-1
sVconnect
p479
I-1
sVdns
p480
I-1
sVwait
p481
I29
sVblocked
p482
I-1
ssVtime
p483
I29
sVresponse
p484
(dp485
Vstatus
p486
I204
sVcomment
p487
g4
sVcookies
p488
(lp489
sVstatusText
p490
VNo Content
p491
sVcontent
p492
(dp493
VmimeType
p494
Vtext/html; charset=UTF-8
p495
sVcomment
p496
g4
sVsize
p497
I0
ssVheaders
p498
(lp499
sVheadersSize
p500
I248
sVredirectURL
p501
g4
sVbodySize
p502
I0
sVhttpVersion
p503
VHTTP/1.1
p504
ssa(dp505
Vcomment
p506
g4
sVserverIPAddress
p507
V216.58.216.196
p508
sVpageref
p509
VTexas Rangers
p510
sVstartedDateTime
p511
V2017-04-16T08:25:44.339-05:00
p512
sVcache
p513
(dp514
sVrequest
p515
(dp516
Vcomment
p517
g4
sVcookies
p518
(lp519
sVurl
p520
Vhttps://www.google.com/complete/search?client=mobile-gws-hp&hl=en&gs_rn=64&gs_ri=mobile-gws-hp&sla=1&pfq=trayce%20thompson&gm=602&cp=0&gs_id=1&xhr=t&q=T&tch=1&ech=1&psi=1nDzWK2WJ4SsjwSW6ZqYAg.1492349144147.1
p521
sVqueryString
p522
(lp523
(dp524
Vname
p525
Vclient
p526
sVvalue
p527
Vmobile-gws-hp
p528
sa(dp529
Vname
p530
Vhl
p531
sVvalue
p532
Ven
p533
sa(dp534
Vname
p535
Vgs_rn
p536
sVvalue
p537
V64
p538
sa(dp539
Vname
p540
Vgs_ri
p541
sVvalue
p542
Vmobile-gws-hp
p543
sa(dp544
Vname
p545
Vsla
p546
sVvalue
p547
g59
sa(dp548
Vname
p549
Vpfq
p550
sVvalue
p551
Vtrayce thompson
p552
sa(dp553
Vname
p554
Vgm
p555
sVvalue
p556
V602
p557
sa(dp558
Vname
p559
Vcp
p560
sVvalue
p561
g446
sa(dp562
Vname
p563
Vgs_id
p564
sVvalue
p565
g59
sa(dp566
Vname
p567
Vxhr
p568
sVvalue
p569
g52
sa(dp570
Vname
p571
Vq
p572
sVvalue
p573
VT
p574
sa(dp575
Vname
p576
Vtch
p577
sVvalue
p578
g59
sa(dp579
Vname
p580
Vech
p581
sVvalue
p582
g59
sa(dp583
Vname
p584
Vpsi
p585
sVvalue
p586
V1nDzWK2WJ4SsjwSW6ZqYAg.1492349144147.1
p587
sasVheaders
p588
(lp589
sVheadersSize
p590
I735
sVbodySize
p591
I0
sVmethod
p592
VGET
p593
sVhttpVersion
p594
VHTTP/1.1
p595
ssVtimings
p596
(dp597
Vcomment
p598
g4
sVreceive
p599
I0
sVsend
p600
I0
sVssl
p601
I-1
sVconnect
p602
I-1
sVdns
p603
I-1
sVwait
p604
I0
sVblocked
p605
I-1
ssVtime
p606
I0
sVresponse
p607
(dp608
Vstatus
p609
I0
sVcomment
p610
g4
sVcookies
p611
(lp612
sV_error
p613
VNo response received
p614
sVstatusText
p615
g4
sVcontent
p616
(dp617
VmimeType
p618
g4
sVcomment
p619
g4
sVsize
p620
I0
ssVheaders
p621
(lp622
sVheadersSize
p623
I-1
sVredirectURL
p624
g4
sVbodySize
p625
I-1
sVhttpVersion
p626
Vunknown
p627
ssa(dp628
Vcomment
p629
g4
sVserverIPAddress
p630
V216.58.216.196
p631
sVpageref
p632
VTexas Rangers
p633
sVstartedDateTime
p634
V2017-04-16T08:25:44.470-05:00
p635
sVcache
p636
(dp637
sVrequest
p638
(dp639
Vcomment
p640
g4
sVcookies
p641
(lp642
sVurl
p643
Vhttps://www.google.com/search?site=&source=hp&ei=1nDzWK2WJ4SsjwSW6ZqYAg&q=Texas+Rangers&oq=Texas+Rangers&gs_l=mobile-gws-hp.3...163.198.0.224.13.1.0.0.0.0.0.0..0.0....0...1c.1.64.mobile-gws-hp..13.0.0.zKY1yBxljPg
p644
sVqueryString
p645
(lp646
(dp647
Vname
p648
Vsite
p649
sVvalue
p650
g4
sa(dp651
Vname
p652
Vsource
p653
sVvalue
p654
Vhp
p655
sa(dp656
Vname
p657
Vei
p658
sVvalue
p659
V1nDzWK2WJ4SsjwSW6ZqYAg
p660
sa(dp661
Vname
p662
g572
sVvalue
p663
VTexas Rangers
p664
sa(dp665
Vname
p666
Voq
p667
sVvalue
p668
VTexas Rangers
p669
sa(dp670
Vname
p671
Vgs_l
p672
sVvalue
p673
Vmobile-gws-hp.3...163.198.0.224.13.1.0.0.0.0.0.0..0.0....0...1c.1.64.mobile-gws-hp..13.0.0.zKY1yBxljPg
p674
sasVheaders
p675
(lp676
sVheadersSize
p677
I830
sVbodySize
p678
I0
sVmethod
p679
VGET
p680
sVhttpVersion
p681
VHTTP/1.1
p682
ssVtimings
p683
(dp684
Vcomment
p685
g4
sVreceive
p686
I948
sVsend
p687
I0
sVssl
p688
I45
sVconnect
p689
I63
sVdns
p690
I0
sVwait
p691
I105
sVblocked
p692
I0
ssVtime
p693
I1117
sVresponse
p694
(dp695
Vstatus
p696
I200
sVcomment
p697
g4
sVcookies
p698
(lp699
sVstatusText
p700
VOK
p701
sVcontent
p702
(dp703
VmimeType
p704
Vtext/html; charset=UTF-8
p705
sVcomment
p706
g4
sVsize
p707
I0
ssVheaders
p708
(lp709
sVheadersSize
p710
I363
sVredirectURL
p711
g4
sVbodySize
p712
I279439
sVhttpVersion
p713
VHTTP/1.1
p714
ssa(dp715
Vcomment
p716
g4
sVserverIPAddress
p717
V172.217.0.3
p718
sVpageref
p719
VTexas Rangers
p720
sVstartedDateTime
p721
V2017-04-16T08:25:45.464-05:00
p722
sVcache
p723
(dp724
sVrequest
p725
(dp726
Vcomment
p727
g4
sVcookies
p728
(lp729
sVurl
p730
Vhttps://ssl.gstatic.com/onebox/media/sports/logos/htC4FWpoeXLC_qW-UyoUSA_48x48.png
p731
sVqueryString
p732
(lp733
sVheaders
p734
(lp735
sVheadersSize
p736
I397
sVbodySize
p737
I0
sVmethod
p738
VGET
p739
sVhttpVersion
p740
VHTTP/1.1
p741
ssVtimings
p742
(dp743
Vcomment
p744
g4
sVreceive
p745
I0
sVsend
p746
I0
sVssl
p747
I-1
sVconnect
p748
I-1
sVdns
p749
I-1
sVwait
p750
I17
sVblocked
p751
I-1
ssVtime
p752
I18
sVresponse
p753
(dp754
Vstatus
p755
I200
sVcomment
p756
g4
sVcookies
p757
(lp758
sVstatusText
p759
VOK
p760
sVcontent
p761
(dp762
VmimeType
p763
Vimage/png
p764
sVcomment
p765
g4
sVsize
p766
I0
ssVheaders
p767
(lp768
sVheadersSize
p769
I402
sVredirectURL
p770
g4
sVbodySize
p771
I4357
sVhttpVersion
p772
VHTTP/1.1
p773
ssa(dp774
Vcomment
p775
g4
sVserverIPAddress
p776
V172.217.0.3
p777
sVpageref
p778
VTexas Rangers
p779
sVstartedDateTime
p780
V2017-04-16T08:25:45.464-05:00
p781
sVcache
p782
(dp783
sVrequest
p784
(dp785
Vcomment
p786
g4
sVcookies
p787
(lp788
sVurl
p789
Vhttps://ssl.gstatic.com/onebox/media/sports/logos/htC4FWpoeXLC_qW-UyoUSA_96x96.png
p790
sVqueryString
p791
(lp792
sVheaders
p793
(lp794
sVheadersSize
p795
I397
sVbodySize
p796
I0
sVmethod
p797
VGET
p798
sVhttpVersion
p799
VHTTP/1.1
p800
ssVtimings
p801
(dp802
Vcomment
p803
g4
sVreceive
p804
I0
sVsend
p805
I0
sVssl
p806
I-1
sVconnect
p807
I-1
sVdns
p808
I-1
sVwait
p809
I27
sVblocked
p810
I-1
ssVtime
p811
I28
sVresponse
p812
(dp813
Vstatus
p814
I200
sVcomment
p815
g4
sVcookies
p816
(lp817
sVstatusText
p818
VOK
p819
sVcontent
p820
(dp821
VmimeType
p822
Vimage/png
p823
sVcomment
p824
g4
sVsize
p825
I0
ssVheaders
p826
(lp827
sVheadersSize
p828
I425
sVredirectURL
p829
g4
sVbodySize
p830
I10390
sVhttpVersion
p831
VHTTP/1.1
p832
ssa(dp833
Vcomment
p834
g4
sVserverIPAddress
p835
V172.217.0.3
p836
sVpageref
p837
VTexas Rangers
p838
sVstartedDateTime
p839
V2017-04-16T08:25:45.465-05:00
p840
sVcache
p841
(dp842
sVrequest
p843
(dp844
Vcomment
p845
g4
sVcookies
p846
(lp847
sVurl
p848
Vhttps://ssl.gstatic.com/onebox/media/sports/logos/CcJYNnWBPQcT-lP1fUIf8Q_96x96.png
p849
sVqueryString
p850
(lp851
sVheaders
p852
(lp853
sVheadersSize
p854
I397
sVbodySize
p855
I0
sVmethod
p856
VGET
p857
sVhttpVersion
p858
VHTTP/1.1
p859
ssVtimings
p860
(dp861
Vcomment
p862
g4
sVreceive
p863
I2
sVsend
p864
I0
sVssl
p865
I-1
sVconnect
p866
I-1
sVdns
p867
I-1
sVwait
p868
I27
sVblocked
p869
I-1
ssVtime
p870
I30
sVresponse
p871
(dp872
Vstatus
p873
I200
sVcomment
p874
g4
sVcookies
p875
(lp876
sVstatusText
p877
VOK
p878
sVcontent
p879
(dp880
VmimeType
p881
Vimage/png
p882
sVcomment
p883
g4
sVsize
p884
I0
ssVheaders
p885
(lp886
sVheadersSize
p887
I425
sVredirectURL
p888
g4
sVbodySize
p889
I13132
sVhttpVersion
p890
VHTTP/1.1
p891
ssa(dp892
Vcomment
p893
g4
sVserverIPAddress
p894
V172.217.0.3
p895
sVpageref
p896
VTexas Rangers
p897
sVstartedDateTime
p898
V2017-04-16T08:25:45.466-05:00
p899
sVcache
p900
(dp901
sVrequest
p902
(dp903
Vcomment
p904
g4
sVcookies
p905
(lp906
sVurl
p907
Vhttps://ssl.gstatic.com/onebox/media/sports/videos/mlb/NKBPjDRhxXg_192x108.jpg
p908
sVqueryString
p909
(lp910
sVheaders
p911
(lp912
sVheadersSize
p913
I393
sVbodySize
p914
I0
sVmethod
p915
VGET
p916
sVhttpVersion
p917
VHTTP/1.1
p918
ssVtimings
p919
(dp920
Vcomment
p921
g4
sVreceive
p922
I0
sVsend
p923
I0
sVssl
p924
I-1
sVconnect
p925
I-1
sVdns
p926
I-1
sVwait
p927
I25
sVblocked
p928
I-1
ssVtime
p929
I25
sVresponse
p930
(dp931
Vstatus
p932
I200
sVcomment
p933
g4
sVcookies
p934
(lp935
sVstatusText
p936
VOK
p937
sVcontent
p938
(dp939
VmimeType
p940
Vimage/jpeg
p941
sVcomment
p942
g4
sVsize
p943
I0
ssVheaders
p944
(lp945
sVheadersSize
p946
I392
sVredirectURL
p947
g4
sVbodySize
p948
I5662
sVhttpVersion
p949
VHTTP/1.1
p950
ssa(dp951
Vcomment
p952
g4
sVserverIPAddress
p953
V172.217.0.3
p954
sVpageref
p955
VTexas Rangers
p956
sVstartedDateTime
p957
V2017-04-16T08:25:45.466-05:00
p958
sVcache
p959
(dp960
sVrequest
p961
(dp962
Vcomment
p963
g4
sVcookies
p964
(lp965
sVurl
p966
Vhttps://ssl.gstatic.com/onebox/ui_elements/play_button.png
p967
sVqueryString
p968
(lp969
sVheaders
p970
(lp971
sVheadersSize
p972
I373
sVbodySize
p973
I0
sVmethod
p974
VGET
p975
sVhttpVersion
p976
VHTTP/1.1
p977
ssVtimings
p978
(dp979
Vcomment
p980
g4
sVreceive
p981
I0
sVsend
p982
I0
sVssl
p983
I-1
sVconnect
p984
I-1
sVdns
p985
I-1
sVwait
p986
I22
sVblocked
p987
I-1
ssVtime
p988
I23
sVresponse
p989
(dp990
Vstatus
p991
I200
sVcomment
p992
g4
sVcookies
p993
(lp994
sVstatusText
p995
VOK
p996
sVcontent
p997
(dp998
VmimeType
p999
Vimage/png
p1000
sVcomment
p1001
g4
sVsize
p1002
I0
ssVheaders
p1003
(lp1004
sVheadersSize
p1005
I394
sVredirectURL
p1006
g4
sVbodySize
p1007
I674
sVhttpVersion
p1008
VHTTP/1.1
p1009
ssa(dp1010
Vcomment
p1011
g4
sVserverIPAddress
p1012
V172.217.0.3
p1013
sVpageref
p1014
VTexas Rangers
p1015
sVstartedDateTime
p1016
V2017-04-16T08:25:45.467-05:00
p1017
sVcache
p1018
(dp1019
sVrequest
p1020
(dp1021
Vcomment
p1022
g4
sVcookies
p1023
(lp1024
sVurl
p1025
Vhttps://ssl.gstatic.com/onebox/media/sports/logos/CcJYNnWBPQcT-lP1fUIf8Q_48x48.png
p1026
sVqueryString
p1027
(lp1028
sVheaders
p1029
(lp1030
sVheadersSize
p1031
I397
sVbodySize
p1032
I0
sVmethod
p1033
VGET
p1034
sVhttpVersion
p1035
VHTTP/1.1
p1036
ssVtimings
p1037
(dp1038
Vcomment
p1039
g4
sVreceive
p1040
I0
sVsend
p1041
I0
sVssl
p1042
I-1
sVconnect
p1043
I-1
sVdns
p1044
I-1
sVwait
p1045
I26
sVblocked
p1046
I-1
ssVtime
p1047
I26
sVresponse
p1048
(dp1049
Vstatus
p1050
I200
sVcomment
p1051
g4
sVcookies
p1052
(lp1053
sVstatusText
p1054
VOK
p1055
sVcontent
p1056
(dp1057
VmimeType
p1058
Vimage/png
p1059
sVcomment
p1060
g4
sVsize
p1061
I0
ssVheaders
p1062
(lp1063
sVheadersSize
p1064
I402
sVredirectURL
p1065
g4
sVbodySize
p1066
I5085
sVhttpVersion
p1067
VHTTP/1.1
p1068
ssa(dp1069
Vcomment
p1070
g4
sVserverIPAddress
p1071
V216.58.216.196
p1072
sVpageref
p1073
VTexas Rangers
p1074
sVstartedDateTime
p1075
V2017-04-16T08:25:46.094-05:00
p1076
sVcache
p1077
(dp1078
sVrequest
p1079
(dp1080
Vcomment
p1081
g4
sVcookies
p1082
(lp1083
sVurl
p1084
Vhttps://www.google.com/xjs/_/js/k=xjs.qs.en_US.pCBXVCvTH3s.O/m=syl,syj,syn,em3,em8,em6,em7,sym,aa,abd,sy2g,sy2k,sy29,sy2j,sy2d,sy2a,sy2c,sy2f,sy2l,sy2m,sy2n,emd,async,sybn,sybi,sybo,sy1f,sy45,sy46,sy9w,sybk,sybj,sybp,sy1g,sy30,sy47,sybm,sybl,sybq,sy1h,sybh,dvl,syep,foot,ipv6,sy5g,sy5j,sy5h,sy6u,sy7d,sy7j,sy2x,sy5i,sy89,sy7e,sy23,sy2y,sy5k,sy6c,sy91,sy9b,sy9l,syhi,syhj,syhk,syhl,lr,lrli,sy32,emj,shm,sykh,tl,sy2t,sy38,em12,vs,sy66,sy67,sy4u,sy69,sykk,sykl,tnv,bct,sy48,sy3a,sy3c,sy5b,sy4x,sy4z,sy56,sy1y,sy31,sy4y,sy22,sy6i,sy4h,sy6h,sy6o,sya3,sy5d,sy25,sy6j,sy6k,sy6r,sya2,sy5e,sy6n,emb,em9,ema,sy24,sy2o,sy4c,sy65,sy6p,sy6s,sy6w,sy72,sya4,syd7,syel,syho,syhs,syhu,syhv,sio,sy6y,sycu,d3l,sy5x,qif,tabs,sy9m,syac,sy4g,sy9n,syhz,syl6,ssc,sy26,sykr,strm,syh6,syl5,kac,kae,strx,sy2u,sy34,sy6l,sy6m,qkx,syf5,sy99,syf4,syfc,syfn,syf7,syff,sy1i,sy68,sy8d,syf6,syfl,syfr,syfq,syfg,sy1j,sy4q,sy5o,sy5r,sy8h,syc7,syc8,syfb,syfj,syfs,syft,syg3,syg5,syg7,emn,emo,syg4,syg6,ivg,iuci,img,sy4d,sy4f,sy4e,sy4b,shrb,dgm,sy41,tcc,sy1r,sy8g,syer,sy9u,syex,syey,syet,syeu,syew,syez,syf0,hlr,sy4i,syes,hlmi,sygq,kpc,kpci,twt,syj7,syj8,syj2,syjc,syj6,syj3,syjg,syjh,syje,syjd,syjk,syji,syjf,syj0,emr,ems,emt,emu,emv,emx,emy,emz,em10,em11,udlg,sy5z,atn,sya1,ampfp/am=gCP4LtMEBXQA2RUaq_oFBISzAFA/rt=j/d=0/t=zcms/rs=ACT90oFwm4NZCwIcuuiqmthdlECdBzkhRA
p1085
sVqueryString
p1086
(lp1087
sVheaders
p1088
(lp1089
sVheadersSize
p1090
I1845
sVbodySize
p1091
I0
sVmethod
p1092
VGET
p1093
sVhttpVersion
p1094
VHTTP/1.1
p1095
ssVtimings
p1096
(dp1097
Vcomment
p1098
g4
sVreceive
p1099
I59
sVsend
p1100
I0
sVssl
p1101
I-1
sVconnect
p1102
I-1
sVdns
p1103
I-1
sVwait
p1104
I14
sVblocked
p1105
I-1
ssVtime
p1106
I74
sVresponse
p1107
(dp1108
Vstatus
p1109
I200
sVcomment
p1110
g4
sVcookies
p1111
(lp1112
sVstatusText
p1113
VOK
p1114
sVcontent
p1115
(dp1116
VmimeType
p1117
Vtext/javascript; charset=UTF-8
p1118
sVcomment
p1119
g4
sVsize
p1120
I0
ssVheaders
p1121
(lp1122
sVheadersSize
p1123
I465
sVredirectURL
p1124
g4
sVbodySize
p1125
I227821
sVhttpVersion
p1126
VHTTP/1.1
p1127
ssa(dp1128
Vcomment
p1129
g4
sVserverIPAddress
p1130
V216.58.216.196
p1131
sVpageref
p1132
VTexas Rangers
p1133
sVstartedDateTime
p1134
V2017-04-16T08:25:46.666-05:00
p1135
sVcache
p1136
(dp1137
sVrequest
p1138
(dp1139
Vcomment
p1140
g4
sVcookies
p1141
(lp1142
sVurl
p1143
Vhttps://www.google.com/async/irc?vet=10ahUKEwi3qs_kianTAhWDxYMKHU2DAEgQo0EIlwM..i&ved=0ahUKEwi3qs_kianTAhWDxYMKHU2DAEgQo0EIlwM&ei=13DzWPfiHIOLjwTNhoLABA&yv=2&async=iu:1,ved:0ahUKEwi3qs_kianTAhWDxYMKHU2DAEgQo0EIlwM,_id:irc_async,_pms:qs
p1144
sVqueryString
p1145
(lp1146
(dp1147
Vname
p1148
Vvet
p1149
sVvalue
p1150
V10ahUKEwi3qs_kianTAhWDxYMKHU2DAEgQo0EIlwM..i
p1151
sa(dp1152
Vname
p1153
Vved
p1154
sVvalue
p1155
V0ahUKEwi3qs_kianTAhWDxYMKHU2DAEgQo0EIlwM
p1156
sa(dp1157
Vname
p1158
Vei
p1159
sVvalue
p1160
V13DzWPfiHIOLjwTNhoLABA
p1161
sa(dp1162
Vname
p1163
Vyv
p1164
sVvalue
p1165
g64
sa(dp1166
Vname
p1167
Vasync
p1168
sVvalue
p1169
Viu:1,ved:0ahUKEwi3qs_kianTAhWDxYMKHU2DAEgQo0EIlwM,_id:irc_async,_pms:qs
p1170
sasVheaders
p1171
(lp1172
sVheadersSize
p1173
I752
sVbodySize
p1174
I0
sVmethod
p1175
VGET
p1176
sVhttpVersion
p1177
VHTTP/1.1
p1178
ssVtimings
p1179
(dp1180
Vcomment
p1181
g4
sVreceive
p1182
I1
sVsend
p1183
I0
sVssl
p1184
I-1
sVconnect
p1185
I-1
sVdns
p1186
I-1
sVwait
p1187
I46
sVblocked
p1188
I-1
ssVtime
p1189
I48
sVresponse
p1190
(dp1191
Vstatus
p1192
I200
sVcomment
p1193
g4
sVcookies
p1194
(lp1195
sVstatusText
p1196
VOK
p1197
sVcontent
p1198
(dp1199
VmimeType
p1200
Vtext/html; charset=UTF-8
p1201
sVcomment
p1202
g4
sVsize
p1203
I0
ssVheaders
p1204
(lp1205
sVheadersSize
p1206
I383
sVredirectURL
p1207
g4
sVbodySize
p1208
I7793
sVhttpVersion
p1209
VHTTP/1.1
p1210
ssa(dp1211
Vcomment
p1212
g4
sVserverIPAddress
p1213
V216.58.216.196
p1214
sVpageref
p1215
VTexas Rangers
p1216
sVstartedDateTime
p1217
V2017-04-16T08:25:46.796-05:00
p1218
sVcache
p1219
(dp1220
sVrequest
p1221
(dp1222
Vcomment
p1223
g4
sVcookies
p1224
(lp1225
sVurl
p1226
Vhttps://www.google.com/async/ampfp?vet=10ahUKEwi3qs_kianTAhWDxYMKHU2DAEgQtZoBCJUD..i&ei=13DzWPfiHIOLjwTNhoLABA&yv=2&async=_id:ampfp-async,_pms:qs
p1227
sVqueryString
p1228
(lp1229
(dp1230
Vname
p1231
Vvet
p1232
sVvalue
p1233
V10ahUKEwi3qs_kianTAhWDxYMKHU2DAEgQtZoBCJUD..i
p1234
sa(dp1235
Vname
p1236
Vei
p1237
sVvalue
p1238
V13DzWPfiHIOLjwTNhoLABA
p1239
sa(dp1240
Vname
p1241
Vyv
p1242
sVvalue
p1243
g64
sa(dp1244
Vname
p1245
Vasync
p1246
sVvalue
p1247
V_id:ampfp-async,_pms:qs
p1248
sasVheaders
p1249
(lp1250
sVheadersSize
p1251
I662
sVbodySize
p1252
I0
sVmethod
p1253
VGET
p1254
sVhttpVersion
p1255
VHTTP/1.1
p1256
ssVtimings
p1257
(dp1258
Vcomment
p1259
g4
sVreceive
p1260
I1
sVsend
p1261
I0
sVssl
p1262
I-1
sVconnect
p1263
I-1
sVdns
p1264
I-1
sVwait
p1265
I37
sVblocked
p1266
I-1
ssVtime
p1267
I39
sVresponse
p1268
(dp1269
Vstatus
p1270
I200
sVcomment
p1271
g4
sVcookies
p1272
(lp1273
sVstatusText
p1274
VOK
p1275
sVcontent
p1276
(dp1277
VmimeType
p1278
Vtext/html; charset=UTF-8
p1279
sVcomment
p1280
g4
sVsize
p1281
I0
ssVheaders
p1282
(lp1283
sVheadersSize
p1284
I383
sVredirectURL
p1285
g4
sVbodySize
p1286
I4526
sVhttpVersion
p1287
VHTTP/1.1
p1288
ssa(dp1289
Vcomment
p1290
g4
sVserverIPAddress
p1291
V216.58.216.193
p1292
sVpageref
p1293
VTexas Rangers
p1294
sVstartedDateTime
p1295
V2017-04-16T08:25:46.797-05:00
p1296
sVcache
p1297
(dp1298
sVrequest
p1299
(dp1300
Vcomment
p1301
g4
sVcookies
p1302
(lp1303
sVurl
p1304
Vhttps://cdn.ampproject.org/preconnect.gif?0.9024586764373016
p1305
sVqueryString
p1306
(lp1307
(dp1308
Vname
p1309
V0.9024586764373016
p1310
sVvalue
p1311
g4
sasVheaders
p1312
(lp1313
sVheadersSize
p1314
I375
sVbodySize
p1315
I0
sVmethod
p1316
VGET
p1317
sVhttpVersion
p1318
VHTTP/1.1
p1319
ssVtimings
p1320
(dp1321
Vcomment
p1322
g4
sVreceive
p1323
I0
sVsend
p1324
I0
sVssl
p1325
I-1
sVconnect
p1326
I-1
sVdns
p1327
I-1
sVwait
p1328
I29
sVblocked
p1329
I-1
ssVtime
p1330
I29
sVresponse
p1331
(dp1332
Vstatus
p1333
I200
sVcomment
p1334
g4
sVcookies
p1335
(lp1336
sVstatusText
p1337
VOK
p1338
sVcontent
p1339
(dp1340
VmimeType
p1341
Vimage/gif
p1342
sVcomment
p1343
g4
sVsize
p1344
I0
ssVheaders
p1345
(lp1346
sVheadersSize
p1347
I826
sVredirectURL
p1348
g4
sVbodySize
p1349
I37
sVhttpVersion
p1350
VHTTP/1.1
p1351
ssa(dp1352
Vcomment
p1353
g4
sVserverIPAddress
p1354
V172.217.0.1
p1355
sVpageref
p1356
VTexas Rangers
p1357
sVstartedDateTime
p1358
V2017-04-16T08:25:46.810-05:00
p1359
sVcache
p1360
(dp1361
sVrequest
p1362
(dp1363
Vcomment
p1364
g4
sVcookies
p1365
(lp1366
sVurl
p1367
Vhttps://lh3.googleusercontent.com/zth-ordHnn302WlahjUJMslUe0KKdUUj40YV6UtMQbTwTJO2k77UqS-qZFCOmgi7BR8MlwofXg-JDIj7cNF0cpfQ=w232-h131-p-no
p1368
sVqueryString
p1369
(lp1370
sVheaders
p1371
(lp1372
sVheadersSize
p1373
I452
sVbodySize
p1374
I0
sVmethod
p1375
VGET
p1376
sVhttpVersion
p1377
VHTTP/1.1
p1378
ssVtimings
p1379
(dp1380
Vcomment
p1381
g4
sVreceive
p1382
I710
sVsend
p1383
I0
sVssl
p1384
I-1
sVconnect
p1385
I-1
sVdns
p1386
I-1
sVwait
p1387
I16
sVblocked
p1388
I-1
ssVtime
p1389
I727
sVresponse
p1390
(dp1391
Vstatus
p1392
I200
sVcomment
p1393
g4
sVcookies
p1394
(lp1395
sVstatusText
p1396
VOK
p1397
sVcontent
p1398
(dp1399
VmimeType
p1400
Vimage/gif
p1401
sVcomment
p1402
g4
sVsize
p1403
I0
ssVheaders
p1404
(lp1405
sVheadersSize
p1406
I496
sVredirectURL
p1407
g4
sVbodySize
p1408
I1024254
sVhttpVersion
p1409
VHTTP/1.1
p1410
ssa(dp1411
Vcomment
p1412
g4
sVserverIPAddress
p1413
V172.217.0.1
p1414
sVpageref
p1415
VTexas Rangers
p1416
sVstartedDateTime
p1417
V2017-04-16T08:25:46.818-05:00
p1418
sVcache
p1419
(dp1420
sVrequest
p1421
(dp1422
Vcomment
p1423
g4
sVcookies
p1424
(lp1425
sVurl
p1426
Vhttps://lh3.googleusercontent.com/PXnBPJ9Vc0V1eKqFEKie9SOR-QNKXh7N0h6vnTSDdnZ9OY3JB3nLPuEilLd35O7cEt8MHiz4ruZl1Jzt2uuF_Fz7=w232-h131-p-no
p1427
sVqueryString
p1428
(lp1429
sVheaders
p1430
(lp1431
sVheadersSize
p1432
I452
sVbodySize
p1433
I0
sVmethod
p1434
VGET
p1435
sVhttpVersion
p1436
VHTTP/1.1
p1437
ssVtimings
p1438
(dp1439
Vcomment
p1440
g4
sVreceive
p1441
I823
sVsend
p1442
I0
sVssl
p1443
I-1
sVconnect
p1444
I-1
sVdns
p1445
I-1
sVwait
p1446
I47
sVblocked
p1447
I-1
ssVtime
p1448
I871
sVresponse
p1449
(dp1450
Vstatus
p1451
I200
sVcomment
p1452
g4
sVcookies
p1453
(lp1454
sVstatusText
p1455
VOK
p1456
sVcontent
p1457
(dp1458
VmimeType
p1459
Vimage/gif
p1460
sVcomment
p1461
g4
sVsize
p1462
I0
ssVheaders
p1463
(lp1464
sVheadersSize
p1465
I493
sVredirectURL
p1466
g4
sVbodySize
p1467
I1214709
sVhttpVersion
p1468
VHTTP/1.1
p1469
ssa(dp1470
Vcomment
p1471
g4
sVserverIPAddress
p1472
V172.217.0.1
p1473
sVpageref
p1474
VTexas Rangers
p1475
sVstartedDateTime
p1476
V2017-04-16T08:25:46.825-05:00
p1477
sVcache
p1478
(dp1479
sVrequest
p1480
(dp1481
Vcomment
p1482
g4
sVcookies
p1483
(lp1484
sVurl
p1485
Vhttps://lh3.googleusercontent.com/Ve1_qTc_AoLn0gr3Ta0cK1_5bcfa_vo0BN8Y503C9_5UNbfPkUtKH472SOiYYUUwNF66HXYfODOJyrXb28rHV0JX-g=w232-h131-p-no
p1486
sVqueryString
p1487
(lp1488
sVheaders
p1489
(lp1490
sVheadersSize
p1491
I454
sVbodySize
p1492
I0
sVmethod
p1493
VGET
p1494
sVhttpVersion
p1495
VHTTP/1.1
p1496
ssVtimings
p1497
(dp1498
Vcomment
p1499
g4
sVreceive
p1500
I1254
sVsend
p1501
I0
sVssl
p1502
I-1
sVconnect
p1503
I-1
sVdns
p1504
I-1
sVwait
p1505
I51
sVblocked
p1506
I-1
ssVtime
p1507
I1305
sVresponse
p1508
(dp1509
Vstatus
p1510
I200
sVcomment
p1511
g4
sVcookies
p1512
(lp1513
sVstatusText
p1514
VOK
p1515
sVcontent
p1516
(dp1517
VmimeType
p1518
Vimage/gif
p1519
sVcomment
p1520
g4
sVsize
p1521
I0
ssVheaders
p1522
(lp1523
sVheadersSize
p1524
I493
sVredirectURL
p1525
g4
sVbodySize
p1526
I1533212
sVhttpVersion
p1527
VHTTP/1.1
p1528
ssa(dp1529
Vcomment
p1530
g4
sVserverIPAddress
p1531
V172.217.0.1
p1532
sVpageref
p1533
VTexas Rangers
p1534
sVstartedDateTime
p1535
V2017-04-16T08:25:46.830-05:00
p1536
sVcache
p1537
(dp1538
sVrequest
p1539
(dp1540
Vcomment
p1541
g4
sVcookies
p1542
(lp1543
sVurl
p1544
Vhttps://lh3.googleusercontent.com/lj_hBpDMYFX9GaY_Mx52GKEr579bOj2P2Qa3AIF7j8wpqnzblyf1fDf3_wQeVZbgM66PmBDJ4QTpxv60c5WMqKjy=w232-h131-p-no
p1545
sVqueryString
p1546
(lp1547
sVheaders
p1548
(lp1549
sVheadersSize
p1550
I452
sVbodySize
p1551
I0
sVmethod
p1552
VGET
p1553
sVhttpVersion
p1554
VHTTP/1.1
p1555
ssVtimings
p1556
(dp1557
Vcomment
p1558
g4
sVreceive
p1559
I1205
sVsend
p1560
I0
sVssl
p1561
I-1
sVconnect
p1562
I-1
sVdns
p1563
I-1
sVwait
p1564
I60
sVblocked
p1565
I-1
ssVtime
p1566
I1266
sVresponse
p1567
(dp1568
Vstatus
p1569
I200
sVcomment
p1570
g4
sVcookies
p1571
(lp1572
sVstatusText
p1573
VOK
p1574
sVcontent
p1575
(dp1576
VmimeType
p1577
Vimage/gif
p1578
sVcomment
p1579
g4
sVsize
p1580
I0
ssVheaders
p1581
(lp1582
sVheadersSize
p1583
I493
sVredirectURL
p1584
g4
sVbodySize
p1585
I2025871
sVhttpVersion
p1586
VHTTP/1.1
p1587
ssa(dp1588
Vcomment
p1589
g4
sVserverIPAddress
p1590
V172.217.0.1
p1591
sVpageref
p1592
VTexas Rangers
p1593
sVstartedDateTime
p1594
V2017-04-16T08:25:46.832-05:00
p1595
sVcache
p1596
(dp1597
sVrequest
p1598
(dp1599
Vcomment
p1600
g4
sVcookies
p1601
(lp1602
sVurl
p1603
Vhttps://lh3.googleusercontent.com/wk6kGVXjv-pvTAKrYzgdYymNTZVrPEEqAyE8vS9rXn7vlea5oaekhdh94Fw74bnq5l5GuYD7rpsn2xOrsL8Q_o4W=w232-h131-p-k-no
p1604
sVqueryString
p1605
(lp1606
sVheaders
p1607
(lp1608
sVheadersSize
p1609
I454
sVbodySize
p1610
I0
sVmethod
p1611
VGET
p1612
sVhttpVersion
p1613
VHTTP/1.1
p1614
ssVtimings
p1615
(dp1616
Vcomment
p1617
g4
sVreceive
p1618
I3
sVsend
p1619
I0
sVssl
p1620
I-1
sVconnect
p1621
I-1
sVdns
p1622
I-1
sVwait
p1623
I21
sVblocked
p1624
I-1
ssVtime
p1625
I24
sVresponse
p1626
(dp1627
Vstatus
p1628
I200
sVcomment
p1629
g4
sVcookies
p1630
(lp1631
sVstatusText
p1632
VOK
p1633
sVcontent
p1634
(dp1635
VmimeType
p1636
Vimage/jpeg
p1637
sVcomment
p1638
g4
sVsize
p1639
I0
ssVheaders
p1640
(lp1641
sVheadersSize
p1642
I495
sVredirectURL
p1643
g4
sVbodySize
p1644
I15889
sVhttpVersion
p1645
VHTTP/1.1
p1646
ssa(dp1647
Vcomment
p1648
g4
sVserverIPAddress
p1649
V172.217.0.1
p1650
sVpageref
p1651
VTexas Rangers
p1652
sVstartedDateTime
p1653
V2017-04-16T08:25:46.941-05:00
p1654
sVcache
p1655
(dp1656
sVrequest
p1657
(dp1658
Vcomment
p1659
g4
sVcookies
p1660
(lp1661
sVurl
p1662
Vhttps://lh3.googleusercontent.com/JAARwfN4JQ-XLiZuUdushgtjymJijjP3tx7p68KYbmdvgf7YfYG23ru7ayywR5AS2seuDeNM_vD6l98f3xgEBl-a=w232-h131-p-k-no
p1663
sVqueryString
p1664
(lp1665
sVheaders
p1666
(lp1667
sVheadersSize
p1668
I454
sVbodySize
p1669
I0
sVmethod
p1670
VGET
p1671
sVhttpVersion
p1672
VHTTP/1.1
p1673
ssVtimings
p1674
(dp1675
Vcomment
p1676
g4
sVreceive
p1677
I4
sVsend
p1678
I0
sVssl
p1679
I56
sVconnect
p1680
I87
sVdns
p1681
I5
sVwait
p1682
I18
sVblocked
p1683
I0
ssVtime
p1684
I116
sVresponse
p1685
(dp1686
Vstatus
p1687
I200
sVcomment
p1688
g4
sVcookies
p1689
(lp1690
sVstatusText
p1691
VOK
p1692
sVcontent
p1693
(dp1694
VmimeType
p1695
Vimage/jpeg
p1696
sVcomment
p1697
g4
sVsize
p1698
I0
ssVheaders
p1699
(lp1700
sVheadersSize
p1701
I495
sVredirectURL
p1702
g4
sVbodySize
p1703
I14458
sVhttpVersion
p1704
VHTTP/1.1
p1705
ssa(dp1706
Vcomment
p1707
g4
sVserverIPAddress
p1708
V216.58.216.196
p1709
sVpageref
p1710
VTexas Rangers
p1711
sVstartedDateTime
p1712
V2017-04-16T08:25:47.437-05:00
p1713
sVcache
p1714
(dp1715
sVrequest
p1716
(dp1717
Vcomment
p1718
g4
sVcookies
p1719
(lp1720
sVurl
p1721
Vhttps://www.google.com/async/log_amp_item_set?vet=10ahUKEwiPmd3lianTAhVh94MKHRZ1BFkQooQBCAE..i&ei=13DzWPfiHIOLjwTNhoLABA&yv=2&async=num_items:10,_fmt:jspb
p1722
sVqueryString
p1723
(lp1724
(dp1725
Vname
p1726
Vvet
p1727
sVvalue
p1728
V10ahUKEwiPmd3lianTAhVh94MKHRZ1BFkQooQBCAE..i
p1729
sa(dp1730
Vname
p1731
Vei
p1732
sVvalue
p1733
V13DzWPfiHIOLjwTNhoLABA
p1734
sa(dp1735
Vname
p1736
Vyv
p1737
sVvalue
p1738
g64
sa(dp1739
Vname
p1740
Vasync
p1741
sVvalue
p1742
Vnum_items:10,_fmt:jspb
p1743
sasVheaders
p1744
(lp1745
sVheadersSize
p1746
I671
sVbodySize
p1747
I0
sVmethod
p1748
VGET
p1749
sVhttpVersion
p1750
VHTTP/1.1
p1751
ssVtimings
p1752
(dp1753
Vcomment
p1754
g4
sVreceive
p1755
I0
sVsend
p1756
I0
sVssl
p1757
I-1
sVconnect
p1758
I-1
sVdns
p1759
I-1
sVwait
p1760
I30
sVblocked
p1761
I-1
ssVtime
p1762
I30
sVresponse
p1763
(dp1764
Vstatus
p1765
I200
sVcomment
p1766
g4
sVcookies
p1767
(lp1768
sVstatusText
p1769
VOK
p1770
sVcontent
p1771
(dp1772
VmimeType
p1773
Vapplication/json; charset=UTF-8
p1774
sVcomment
p1775
g4
sVsize
p1776
I0
ssVheaders
p1777
(lp1778
sVheadersSize
p1779
I417
sVredirectURL
p1780
g4
sVbodySize
p1781
I183
sVhttpVersion
p1782
VHTTP/1.1
p1783
ssa(dp1784
Vcomment
p1785
g4
sVserverIPAddress
p1786
V172.217.0.1
p1787
sVpageref
p1788
VTexas Rangers
p1789
sVstartedDateTime
p1790
V2017-04-16T08:25:48.366-05:00
p1791
sVcache
p1792
(dp1793
sVrequest
p1794
(dp1795
Vcomment
p1796
g4
sVcookies
p1797
(lp1798
sVurl
p1799
Vhttps://www-lookoutlanding-com.cdn.ampproject.org/v/www.lookoutlanding.com/platform/amp/2017/4/15/15316234/mariners-rangers-james-paxton-jackie-robinson-day-2017?amp_js_v=9
p1800
sVqueryString
p1801
(lp1802
(dp1803
Vname
p1804
Vamp_js_v
p1805
sVvalue
p1806
V9
p1807
sasVheaders
p1808
(lp1809
sVheadersSize
p1810
I577
sVbodySize
p1811
I0
sVmethod
p1812
VGET
p1813
sVhttpVersion
p1814
VHTTP/1.1
p1815
ssVtimings
p1816
(dp1817
Vcomment
p1818
g4
sVreceive
p1819
I12
sVsend
p1820
I0
sVssl
p1821
I709
sVconnect
p1822
I746
sVdns
p1823
I49
sVwait
p1824
I62
sVblocked
p1825
I0
ssVtime
p1826
I870
sVresponse
p1827
(dp1828
Vstatus
p1829
I200
sVcomment
p1830
g4
sVcookies
p1831
(lp1832
sVstatusText
p1833
VOK
p1834
sVcontent
p1835
(dp1836
VmimeType
p1837
Vtext/html
p1838
sVcomment
p1839
g4
sVsize
p1840
I0
ssVheaders
p1841
(lp1842
sVheadersSize
p1843
I860
sVredirectURL
p1844
g4
sVbodySize
p1845
I10648
sVhttpVersion
p1846
VHTTP/1.1
p1847
ssa(dp1848
Vcomment
p1849
g4
sVserverIPAddress
p1850
V216.58.216.196
p1851
sVpageref
p1852
VTexas Rangers
p1853
sVstartedDateTime
p1854
V2017-04-16T08:25:49.023-05:00
p1855
sVcache
p1856
(dp1857
sVrequest
p1858
(dp1859
Vcomment
p1860
g4
sVcookies
p1861
(lp1862
sVurl
p1863
Vhttps://www.google.com/gen_204?atyp=i&ct=slh&cad=&ei=rHDzWMPpB6G7jwTu6qWoDg&s=2&v=2&pv=0.9140412684394725&me=11:1492349125893,e,H&zx=1492349149016
p1864
sVqueryString
p1865
(lp1866
(dp1867
Vname
p1868
Vatyp
p1869
sVvalue
p1870
g30
sa(dp1871
Vname
p1872
Vct
p1873
sVvalue
p1874
Vslh
p1875
sa(dp1876
Vname
p1877
Vcad
p1878
sVvalue
p1879
g4
sa(dp1880
Vname
p1881
Vei
p1882
sVvalue
p1883
VrHDzWMPpB6G7jwTu6qWoDg
p1884
sa(dp1885
Vname
p1886
g57
sVvalue
p1887
g64
sa(dp1888
Vname
p1889
g62
sVvalue
p1890
g64
sa(dp1891
Vname
p1892
Vpv
p1893
sVvalue
p1894
V0.9140412684394725
p1895
sa(dp1896
Vname
p1897
Vme
p1898
sVvalue
p1899
V11:1492349125893,e,H
p1900
sa(dp1901
Vname
p1902
Vzx
p1903
sVvalue
p1904
V1492349149016
p1905
sasVheaders
p1906
(lp1907
sVheadersSize
p1908
I663
sVbodySize
p1909
I0
sVmethod
p1910
VGET
p1911
sVhttpVersion
p1912
VHTTP/1.1
p1913
ssVtimings
p1914
(dp1915
Vcomment
p1916
g4
sVreceive
p1917
I0
sVsend
p1918
I0
sVssl
p1919
I-1
sVconnect
p1920
I-1
sVdns
p1921
I-1
sVwait
p1922
I36
sVblocked
p1923
I-1
ssVtime
p1924
I36
sVresponse
p1925
(dp1926
Vstatus
p1927
I204
sVcomment
p1928
g4
sVcookies
p1929
(lp1930
sVstatusText
p1931
VNo Content
p1932
sVcontent
p1933
(dp1934
VmimeType
p1935
Vtext/html; charset=UTF-8
p1936
sVcomment
p1937
g4
sVsize
p1938
I0
ssVheaders
p1939
(lp1940
sVheadersSize
p1941
I248
sVredirectURL
p1942
g4
sVbodySize
p1943
I0
sVhttpVersion
p1944
VHTTP/1.1
p1945
ssa(dp1946
Vcomment
p1947
g4
sVserverIPAddress
p1948
V172.217.0.1
p1949
sVpageref
p1950
VTexas Rangers
p1951
sVstartedDateTime
p1952
V2017-04-16T08:25:49.503-05:00
p1953
sVcache
p1954
(dp1955
sVrequest
p1956
(dp1957
Vcomment
p1958
g4
sVcookies
p1959
(lp1960
sVurl
p1961
Vhttps://cdn1-vox--cdn-com.cdn.ampproject.org/ii/w100/s/cdn1.vox-cdn.com/uploads/blog/sbnu_logo_minimal/29/large_lookoutlanding.com.minimal.png
p1962
sVqueryString
p1963
(lp1964
sVheaders
p1965
(lp1966
sVheadersSize
p1967
I606
sVbodySize
p1968
I0
sVmethod
p1969
VGET
p1970
sVhttpVersion
p1971
VHTTP/1.1
p1972
ssVtimings
p1973
(dp1974
Vcomment
p1975
g4
sVreceive
p1976
I2
sVsend
p1977
I0
sVssl
p1978
I-1
sVconnect
p1979
I-1
sVdns
p1980
I-1
sVwait
p1981
I24
sVblocked
p1982
I-1
ssVtime
p1983
I27
sVresponse
p1984
(dp1985
Vstatus
p1986
I200
sVcomment
p1987
g4
sVcookies
p1988
(lp1989
sVstatusText
p1990
VOK
p1991
sVcontent
p1992
(dp1993
VmimeType
p1994
Vimage/png
p1995
sVcomment
p1996
g4
sVsize
p1997
I0
ssVheaders
p1998
(lp1999
sVheadersSize
p2000
I824
sVredirectURL
p2001
g4
sVbodySize
p2002
I4839
sVhttpVersion
p2003
VHTTP/1.1
p2004
ssa(dp2005
Vcomment
p2006
g4
sVserverIPAddress
p2007
V172.217.0.1
p2008
sVpageref
p2009
VTexas Rangers
p2010
sVstartedDateTime
p2011
V2017-04-16T08:25:49.505-05:00
p2012
sVcache
p2013
(dp2014
sVrequest
p2015
(dp2016
Vcomment
p2017
g4
sVcookies
p2018
(lp2019
sVurl
p2020
Vhttps://cdn0-vox--cdn-com.cdn.ampproject.org/i/s/cdn0.vox-cdn.com/thumbor/5E-KUzjCJJdTLa6RF6h4OllK0bU=/0x0:4052x2701/1310x873/cdn0.vox-cdn.com/uploads/chorus_image/image/54280765/usa_today_10015296.0.jpg
p2021
sVqueryString
p2022
(lp2023
sVheaders
p2024
(lp2025
sVheadersSize
p2026
I667
sVbodySize
p2027
I0
sVmethod
p2028
VGET
p2029
sVhttpVersion
p2030
VHTTP/1.1
p2031
ssVtimings
p2032
(dp2033
Vcomment
p2034
g4
sVreceive
p2035
I81
sVsend
p2036
I0
sVssl
p2037
I-1
sVconnect
p2038
I-1
sVdns
p2039
I-1
sVwait
p2040
I45
sVblocked
p2041
I-1
ssVtime
p2042
I127
sVresponse
p2043
(dp2044
Vstatus
p2045
I200
sVcomment
p2046
g4
sVcookies
p2047
(lp2048
sVstatusText
p2049
VOK
p2050
sVcontent
p2051
(dp2052
VmimeType
p2053
Vimage/jpeg
p2054
sVcomment
p2055
g4
sVsize
p2056
I0
ssVheaders
p2057
(lp2058
sVheadersSize
p2059
I851
sVredirectURL
p2060
g4
sVbodySize
p2061
I216426
sVhttpVersion
p2062
VHTTP/1.1
p2063
ssa(dp2064
Vcomment
p2065
g4
sVserverIPAddress
p2066
V216.58.216.196
p2067
sVpageref
p2068
VTexas Rangers
p2069
sVstartedDateTime
p2070
V2017-04-16T08:25:49.844-05:00
p2071
sVcache
p2072
(dp2073
sVrequest
p2074
(dp2075
Vcomment
p2076
g4
sVcookies
p2077
(lp2078
sVurl
p2079
Vhttps://www.google.com/gen_204?s=web&atyp=csi&ei=13DzWPfiHIOLjwTNhoLABA&imc=106&imn=106&imp=36&adh=&xjs=init.52.16.sb_mob.37.async.6.dvl.4.mbsf.1.jsa.1&ima=19&rt=prt.1004,iml.1177,xjsls.1004,dcl.1073,qiml.1363,xjses.1265,xjsee.1445,xjs.1446,ol.5165,aft.1174,wsrt.233,cst.0,dnst.0,rqst.1057,rspt.1060,rqstt.71,unt.4,cstt.4,dit.1269
p2080
sVqueryString
p2081
(lp2082
(dp2083
Vname
p2084
g57
sVvalue
p2085
Vweb
p2086
sa(dp2087
Vname
p2088
Vatyp
p2089
sVvalue
p2090
Vcsi
p2091
sa(dp2092
Vname
p2093
Vei
p2094
sVvalue
p2095
V13DzWPfiHIOLjwTNhoLABA
p2096
sa(dp2097
Vname
p2098
Vimc
p2099
sVvalue
p2100
V106
p2101
sa(dp2102
Vname
p2103
Vimn
p2104
sVvalue
p2105
V106
p2106
sa(dp2107
Vname
p2108
Vimp
p2109
sVvalue
p2110
V36
p2111
sa(dp2112
Vname
p2113
Vadh
p2114
sVvalue
p2115
g4
sa(dp2116
Vname
p2117
Vxjs
p2118
sVvalue
p2119
Vinit.52.16.sb_mob.37.async.6.dvl.4.mbsf.1.jsa.1
p2120
sa(dp2121
Vname
p2122
Vima
p2123
sVvalue
p2124
V19
p2125
sa(dp2126
Vname
p2127
Vrt
p2128
sVvalue
p2129
Vprt.1004,iml.1177,xjsls.1004,dcl.1073,qiml.1363,xjses.1265,xjsee.1445,xjs.1446,ol.5165,aft.1174,wsrt.233,cst.0,dnst.0,rqst.1057,rspt.1060,rqstt.71,unt.4,cstt.4,dit.1269
p2130
sasVheaders
p2131
(lp2132
sVheadersSize
p2133
I847
sVbodySize
p2134
I0
sVmethod
p2135
VGET
p2136
sVhttpVersion
p2137
VHTTP/1.1
p2138
ssVtimings
p2139
(dp2140
Vcomment
p2141
g4
sVreceive
p2142
I0
sVsend
p2143
I0
sVssl
p2144
I-1
sVconnect
p2145
I-1
sVdns
p2146
I-1
sVwait
p2147
I37
sVblocked
p2148
I-1
ssVtime
p2149
I38
sVresponse
p2150
(dp2151
Vstatus
p2152
I204
sVcomment
p2153
g4
sVcookies
p2154
(lp2155
sVstatusText
p2156
VNo Content
p2157
sVcontent
p2158
(dp2159
VmimeType
p2160
Vtext/html; charset=UTF-8
p2161
sVcomment
p2162
g4
sVsize
p2163
I0
ssVheaders
p2164
(lp2165
sVheadersSize
p2166
I248
sVredirectURL
p2167
g4
sVbodySize
p2168
I0
sVhttpVersion
p2169
VHTTP/1.1
p2170
ssasVversion
p2171
V1.2
p2172
sVpages
p2173
(lp2174
(dp2175
VpageTimings
p2176
(dp2177
Vcomment
p2178
g4
ssVcomment
p2179
g4
sVtitle
p2180
VTexas Rangers
p2181
sVid
p2182
VTexas Rangers
p2183
sVstartedDateTime
p2184
V2017-04-16T08:25:43.540-05:00
p2185
sasVcreator
p2186
(dp2187
Vcomment
p2188
g4
sVversion
p2189
V2.1.4
p2190
sVname
p2191
VBrowserMob Proxy
p2192
sss.