(dp0
Vlog
p1
(dp2
Vcomment
p3
V
p4
sVentries
p5
(lp6
(dp7
Vcomment
p8
g4
sVserverIPAddress
p9
V216.58.216.196
p10
sVpageref
p11
VBudweiser America
p12
sVstartedDateTime
p13
V2017-04-16T08:37:27.786-05:00
p14
sVcache
p15
(dp16
sVrequest
p17
(dp18
Vcomment
p19
g4
sVcookies
p20
(lp21
sVurl
p22
Vhttps://www.google.com/gen_204?atyp=i&ct=slh&cad=&ei=inPzWPHgCcKijwTXxLi4BQ&m=V&t=C&s=1&v=2&pv=0.5699255150627252&me=1:1492349837845,x:3,V,0,0,1280,944:0,N,1,inPzWPHgCcKijwTXxLi4BQ:0,R,1,24,0,155,1197,589:0,R,1,25,0,155,1197,587:0,R,1,78,8,752,1264,309:0,R,1,79,8,796,1264,265:0,R,1,80,0,796,1280,285:1,B,4858:9935,e,U&zx=1492349847784
p23
sVqueryString
p24
(lp25
(dp26
Vname
p27
Vatyp
p28
sVvalue
p29
Vi
p30
sa(dp31
Vname
p32
Vct
p33
sVvalue
p34
Vslh
p35
sa(dp36
Vname
p37
Vcad
p38
sVvalue
p39
g4
sa(dp40
Vname
p41
Vei
p42
sVvalue
p43
VinPzWPHgCcKijwTXxLi4BQ
p44
sa(dp45
Vname
p46
Vm
p47
sVvalue
p48
VV
p49
sa(dp50
Vname
p51
Vt
p52
sVvalue
p53
VC
p54
sa(dp55
Vname
p56
Vs
p57
sVvalue
p58
V1
p59
sa(dp60
Vname
p61
Vv
p62
sVvalue
p63
V2
p64
sa(dp65
Vname
p66
Vpv
p67
sVvalue
p68
V0.5699255150627252
p69
sa(dp70
Vname
p71
Vme
p72
sVvalue
p73
V1:1492349837845,x:3,V,0,0,1280,944:0,N,1,inPzWPHgCcKijwTXxLi4BQ:0,R,1,24,0,155,1197,589:0,R,1,25,0,155,1197,587:0,R,1,78,8,752,1264,309:0,R,1,79,8,796,1264,265:0,R,1,80,0,796,1280,285:1,B,4858:9935,e,U
p74
sa(dp75
Vname
p76
Vzx
p77
sVvalue
p78
V1492349847784
p79
sasVheaders
p80
(lp81
sVheadersSize
p82
I852
sVbodySize
p83
I0
sVmethod
p84
VGET
p85
sVhttpVersion
p86
VHTTP/1.1
p87
ssVtimings
p88
(dp89
Vcomment
p90
g4
sVreceive
p91
I0
sVsend
p92
I0
sVssl
p93
I-1
sVconnect
p94
I-1
sVdns
p95
I-1
sVwait
p96
I0
sVblocked
p97
I-1
ssVtime
p98
I0
sVresponse
p99
(dp100
Vstatus
p101
I0
sVcomment
p102
g4
sVcookies
p103
(lp104
sV_error
p105
VNo response received
p106
sVstatusText
p107
g4
sVcontent
p108
(dp109
VmimeType
p110
g4
sVcomment
p111
g4
sVsize
p112
I0
ssVheaders
p113
(lp114
sVheadersSize
p115
I-1
sVredirectURL
p116
g4
sVbodySize
p117
I-1
sVhttpVersion
p118
Vunknown
p119
ssa(dp120
Vcomment
p121
g4
sVserverIPAddress
p122
V216.58.216.196
p123
sVpageref
p124
VBudweiser America
p125
sVstartedDateTime
p126
V2017-04-16T08:37:27.790-05:00
p127
sVcache
p128
(dp129
sVrequest
p130
(dp131
Vcomment
p132
g4
sVcookies
p133
(lp134
sVurl
p135
Vhttp://www.google.com/
p136
sVqueryString
p137
(lp138
sVheaders
p139
(lp140
sVheadersSize
p141
I613
sVbodySize
p142
I0
sVmethod
p143
VGET
p144
sVhttpVersion
p145
VHTTP/1.1
p146
ssVtimings
p147
(dp148
Vcomment
p149
g4
sVreceive
p150
I0
sVsend
p151
I0
sVssl
p152
I-1
sVconnect
p153
I-1
sVdns
p154
I-1
sVwait
p155
I37
sVblocked
p156
I-1
ssVtime
p157
I38
sVresponse
p158
(dp159
Vstatus
p160
I302
sVcomment
p161
g4
sVcookies
p162
(lp163
sVstatusText
p164
VFound
p165
sVcontent
p166
(dp167
VmimeType
p168
Vtext/html; charset=UTF-8
p169
sVcomment
p170
g4
sVsize
p171
I0
ssVheaders
p172
(lp173
sVheadersSize
p174
I609
sVredirectURL
p175
Vhttps://www.google.com/?gws_rd=ssl
p176
sVbodySize
p177
I231
sVhttpVersion
p178
VHTTP/1.1
p179
ssa(dp180
Vcomment
p181
g4
sVserverIPAddress
p182
V216.58.216.196
p183
sVpageref
p184
VBudweiser America
p185
sVstartedDateTime
p186
V2017-04-16T08:37:27.869-05:00
p187
sVcache
p188
(dp189
sVrequest
p190
(dp191
Vcomment
p192
g4
sVcookies
p193
(lp194
sVurl
p195
Vhttps://www.google.com/?gws_rd=ssl
p196
sVqueryString
p197
(lp198
(dp199
Vname
p200
Vgws_rd
p201
sVvalue
p202
Vssl
p203
sasVheaders
p204
(lp205
sVheadersSize
p206
I607
sVbodySize
p207
I0
sVmethod
p208
VGET
p209
sVhttpVersion
p210
VHTTP/1.1
p211
ssVtimings
p212
(dp213
Vcomment
p214
g4
sVreceive
p215
I24
sVsend
p216
I0
sVssl
p217
I21
sVconnect
p218
I35
sVdns
p219
I0
sVwait
p220
I73
sVblocked
p221
I0
ssVtime
p222
I134
sVresponse
p223
(dp224
Vstatus
p225
I200
sVcomment
p226
g4
sVcookies
p227
(lp228
sVstatusText
p229
VOK
p230
sVcontent
p231
(dp232
VmimeType
p233
Vtext/html; charset=UTF-8
p234
sVcomment
p235
g4
sVsize
p236
I0
ssVheaders
p237
(lp238
sVheadersSize
p239
I721
sVredirectURL
p240
g4
sVbodySize
p241
I34290
sVhttpVersion
p242
VHTTP/1.1
p243
ssa(dp244
Vcomment
p245
g4
sVserverIPAddress
p246
V216.58.216.196
p247
sVpageref
p248
VBudweiser America
p249
sVstartedDateTime
p250
V2017-04-16T08:37:28.224-05:00
p251
sVcache
p252
(dp253
sVrequest
p254
(dp255
Vcomment
p256
g4
sVcookies
p257
(lp258
sVurl
p259
Vhttps://www.google.com/gen_204?s=mobilewebhp&atyp=csi&ei=lnPzWPqrNIT-jwT316uIAg&imc=1&imn=1&imp=0&adh=&xjs=init.31.12.sb_mob.21.dvl.5.c.1.mbsf.1.r.1&ima=1&rt=xjsls.9,prt.10,iml.10,dcl.42,xjses.104,xjsee.197,xjs.197,ol.244,aft.10,wsrt.188,cst.0,dnst.0,rqst.99,rspt.101,rqstt.86,unt.46,cstt.46,dit.218
p260
sVqueryString
p261
(lp262
(dp263
Vname
p264
g57
sVvalue
p265
Vmobilewebhp
p266
sa(dp267
Vname
p268
Vatyp
p269
sVvalue
p270
Vcsi
p271
sa(dp272
Vname
p273
Vei
p274
sVvalue
p275
VlnPzWPqrNIT-jwT316uIAg
p276
sa(dp277
Vname
p278
Vimc
p279
sVvalue
p280
g59
sa(dp281
Vname
p282
Vimn
p283
sVvalue
p284
g59
sa(dp285
Vname
p286
Vimp
p287
sVvalue
p288
V0
p289
sa(dp290
Vname
p291
Vadh
p292
sVvalue
p293
g4
sa(dp294
Vname
p295
Vxjs
p296
sVvalue
p297
Vinit.31.12.sb_mob.21.dvl.5.c.1.mbsf.1.r.1
p298
sa(dp299
Vname
p300
Vima
p301
sVvalue
p302
g59
sa(dp303
Vname
p304
Vrt
p305
sVvalue
p306
Vxjsls.9,prt.10,iml.10,dcl.42,xjses.104,xjsee.197,xjs.197,ol.244,aft.10,wsrt.188,cst.0,dnst.0,rqst.99,rspt.101,rqstt.86,unt.46,cstt.46,dit.218
p307
sasVheaders
p308
(lp309
sVheadersSize
p310
I827
sVbodySize
p311
I0
sVmethod
p312
VGET
p313
sVhttpVersion
p314
VHTTP/1.1
p315
ssVtimings
p316
(dp317
Vcomment
p318
g4
sVreceive
p319
I0
sVsend
p320
I0
sVssl
p321
I-1
sVconnect
p322
I-1
sVdns
p323
I-1
sVwait
p324
I37
sVblocked
p325
I-1
ssVtime
p326
I37
sVresponse
p327
(dp328
Vstatus
p329
I204
sVcomment
p330
g4
sVcookies
p331
(lp332
sVstatusText
p333
VNo Content
p334
sVcontent
p335
(dp336
VmimeType
p337
Vtext/html; charset=UTF-8
p338
sVcomment
p339
g4
sVsize
p340
I0
ssVheaders
p341
(lp342
sVheadersSize
p343
I248
sVredirectURL
p344
g4
sVbodySize
p345
I0
sVhttpVersion
p346
VHTTP/1.1
p347
ssa(dp348
Vcomment
p349
g4
sVserverIPAddress
p350
V216.58.216.196
p351
sVpageref
p352
VBudweiser America
p353
sVstartedDateTime
p354
V2017-04-16T08:37:28.380-05:00
p355
sVcache
p356
(dp357
sVrequest
p358
(dp359
Vcomment
p360
g4
sVcookies
p361
(lp362
sVurl
p363
Vhttps://www.google.com/complete/search?client=mobile-gws-hp&hl=en&gs_rn=64&gs_ri=mobile-gws-hp&sla=1&pfq=boston%20celtics&gm=602&cp=0&gs_id=1&xhr=t&q=B&tch=1&ech=1&psi=lnPzWPqrNIT-jwT316uIAg.1492349848137.1
p364
sVqueryString
p365
(lp366
(dp367
Vname
p368
Vclient
p369
sVvalue
p370
Vmobile-gws-hp
p371
sa(dp372
Vname
p373
Vhl
p374
sVvalue
p375
Ven
p376
sa(dp377
Vname
p378
Vgs_rn
p379
sVvalue
p380
V64
p381
sa(dp382
Vname
p383
Vgs_ri
p384
sVvalue
p385
Vmobile-gws-hp
p386
sa(dp387
Vname
p388
Vsla
p389
sVvalue
p390
g59
sa(dp391
Vname
p392
Vpfq
p393
sVvalue
p394
Vboston celtics
p395
sa(dp396
Vname
p397
Vgm
p398
sVvalue
p399
V602
p400
sa(dp401
Vname
p402
Vcp
p403
sVvalue
p404
g289
sa(dp405
Vname
p406
Vgs_id
p407
sVvalue
p408
g59
sa(dp409
Vname
p410
Vxhr
p411
sVvalue
p412
g52
sa(dp413
Vname
p414
Vq
p415
sVvalue
p416
VB
p417
sa(dp418
Vname
p419
Vtch
p420
sVvalue
p421
g59
sa(dp422
Vname
p423
Vech
p424
sVvalue
p425
g59
sa(dp426
Vname
p427
Vpsi
p428
sVvalue
p429
VlnPzWPqrNIT-jwT316uIAg.1492349848137.1
p430
sasVheaders
p431
(lp432
sVheadersSize
p433
I734
sVbodySize
p434
I0
sVmethod
p435
VGET
p436
sVhttpVersion
p437
VHTTP/1.1
p438
ssVtimings
p439
(dp440
Vcomment
p441
g4
sVreceive
p442
I0
sVsend
p443
I0
sVssl
p444
I-1
sVconnect
p445
I-1
sVdns
p446
I-1
sVwait
p447
I0
sVblocked
p448
I-1
ssVtime
p449
I0
sVresponse
p450
(dp451
Vstatus
p452
I0
sVcomment
p453
g4
sVcookies
p454
(lp455
sV_error
p456
VNo response received
p457
sVstatusText
p458
g4
sVcontent
p459
(dp460
VmimeType
p461
g4
sVcomment
p462
g4
sVsize
p463
I0
ssVheaders
p464
(lp465
sVheadersSize
p466
I-1
sVredirectURL
p467
g4
sVbodySize
p468
I-1
sVhttpVersion
p469
Vunknown
p470
ssa(dp471
Vcomment
p472
g4
sVserverIPAddress
p473
V216.58.216.196
p474
sVpageref
p475
VBudweiser America
p476
sVstartedDateTime
p477
V2017-04-16T08:37:28.504-05:00
p478
sVcache
p479
(dp480
sVrequest
p481
(dp482
Vcomment
p483
g4
sVcookies
p484
(lp485
sVurl
p486
Vhttps://www.google.com/search?site=&source=hp&ei=lnPzWPqrNIT-jwT316uIAg&q=Budweiser+America&oq=Budweiser+America&gs_l=mobile-gws-hp.3...219.262.0.287.17.1.0.0.0.0.0.0..0.0....0...1c.1.64.mobile-gws-hp..17.0.0.dkCx2erUNW8
p487
sVqueryString
p488
(lp489
(dp490
Vname
p491
Vsite
p492
sVvalue
p493
g4
sa(dp494
Vname
p495
Vsource
p496
sVvalue
p497
Vhp
p498
sa(dp499
Vname
p500
Vei
p501
sVvalue
p502
VlnPzWPqrNIT-jwT316uIAg
p503
sa(dp504
Vname
p505
g415
sVvalue
p506
VBudweiser America
p507
sa(dp508
Vname
p509
Voq
p510
sVvalue
p511
VBudweiser America
p512
sa(dp513
Vname
p514
Vgs_l
p515
sVvalue
p516
Vmobile-gws-hp.3...219.262.0.287.17.1.0.0.0.0.0.0..0.0....0...1c.1.64.mobile-gws-hp..17.0.0.dkCx2erUNW8
p517
sasVheaders
p518
(lp519
sVheadersSize
p520
I838
sVbodySize
p521
I0
sVmethod
p522
VGET
p523
sVhttpVersion
p524
VHTTP/1.1
p525
ssVtimings
p526
(dp527
Vcomment
p528
g4
sVreceive
p529
I1017
sVsend
p530
I0
sVssl
p531
I26
sVconnect
p532
I42
sVdns
p533
I0
sVwait
p534
I420
sVblocked
p535
I0
ssVtime
p536
I1480
sVresponse
p537
(dp538
Vstatus
p539
I200
sVcomment
p540
g4
sVcookies
p541
(lp542
sVstatusText
p543
VOK
p544
sVcontent
p545
(dp546
VmimeType
p547
Vtext/html; charset=UTF-8
p548
sVcomment
p549
g4
sVsize
p550
I0
ssVheaders
p551
(lp552
sVheadersSize
p553
I363
sVredirectURL
p554
g4
sVbodySize
p555
I109788
sVhttpVersion
p556
VHTTP/1.1
p557
ssa(dp558
Vcomment
p559
g4
sVserverIPAddress
p560
V216.58.216.196
p561
sVpageref
p562
VBudweiser America
p563
sVstartedDateTime
p564
V2017-04-16T08:37:30.437-05:00
p565
sVcache
p566
(dp567
sVrequest
p568
(dp569
Vcomment
p570
g4
sVcookies
p571
(lp572
sVurl
p573
Vhttps://www.google.com/xjs/_/js/k=xjs.qs.en_US.pCBXVCvTH3s.O/m=syl,syj,syn,em3,em8,em6,em7,sym,aa,abd,sy2g,sy2k,sy29,sy2j,sy2d,sy2a,sy2c,sy2f,sy2l,sy2m,sy2n,emd,async,sybn,sybi,sybo,sy1f,sy45,sy46,sy9w,sybk,sybj,sybp,sy1g,sy30,sy47,sybm,sybl,sybq,sy1h,sybh,dvl,syep,foot,ipv6,sy32,emj,shm,sy5g,sy5i,sy5k,sykh,tl,sy2x,sy2y,sy2t,sy38,em12,vs,sy5j,sy5h,sy6u,sy66,sy67,sy7d,sy7j,sy4u,sy69,sy89,sy7e,sykk,sykl,tnv,bct,sy23,sy24,irq,sy6y,sycu,d3l,iulc,sy1y,syf5,sy99,syf4,sy26,syfc,syfn,syf7,syff,sy1i,sy22,sy6i,sy68,sy8d,sy9b,syf6,syfl,syfr,syfq,sy25,syfg,sy1j,sy4q,sy5o,sy5r,sy6j,sy6n,sy6p,sy8h,syc7,syc8,syfb,syfj,syfs,syft,syg3,syg5,syg7,emb,em9,ema,emn,emo,syg4,syg6,ivg,sy9m,syac,sy4g,sy9n,syhz,syl6,ssc,iuci,img,sygq,kpc,kpci,syj7,syj8,syj2,syjc,syj6,syj3,syjg,syjh,syje,syjd,syjk,syji,syjf,syj0,emr,ems,emt,emu,emv,emx,emy,emz,em10,em11,udlg,sy5z,atn,sy31,sya3,sy4h,sya2,sy4i,sya1,sya4,ampfp/am=gCP4LtMEBXQA2RUaq_oFBISzAFA/rt=j/d=0/t=zcms/rs=ACT90oFwm4NZCwIcuuiqmthdlECdBzkhRA
p574
sVqueryString
p575
(lp576
sVheaders
p577
(lp578
sVheadersSize
p579
I1495
sVbodySize
p580
I0
sVmethod
p581
VGET
p582
sVhttpVersion
p583
VHTTP/1.1
p584
ssVtimings
p585
(dp586
Vcomment
p587
g4
sVreceive
p588
I12
sVsend
p589
I0
sVssl
p590
I-1
sVconnect
p591
I-1
sVdns
p592
I-1
sVwait
p593
I15
sVblocked
p594
I-1
ssVtime
p595
I27
sVresponse
p596
(dp597
Vstatus
p598
I200
sVcomment
p599
g4
sVcookies
p600
(lp601
sVstatusText
p602
VOK
p603
sVcontent
p604
(dp605
VmimeType
p606
Vtext/javascript; charset=UTF-8
p607
sVcomment
p608
g4
sVsize
p609
I0
ssVheaders
p610
(lp611
sVheadersSize
p612
I465
sVredirectURL
p613
g4
sVbodySize
p614
I101238
sVhttpVersion
p615
VHTTP/1.1
p616
ssa(dp617
Vcomment
p618
g4
sVserverIPAddress
p619
V216.58.216.196
p620
sVpageref
p621
VBudweiser America
p622
sVstartedDateTime
p623
V2017-04-16T08:37:30.729-05:00
p624
sVcache
p625
(dp626
sVrequest
p627
(dp628
Vcomment
p629
g4
sVcookies
p630
(lp631
sVurl
p632
Vhttps://www.google.com/async/irc?vet=10ahUKEwjknqm0jKnTAhVj2oMKHSA_BwAQo0EItwE..i&ved=0ahUKEwjknqm0jKnTAhVj2oMKHSA_BwAQo0EItwE&ei=l3PzWKT3HeO0jwSg_hw&yv=2&async=iu:1,ved:0ahUKEwjknqm0jKnTAhVj2oMKHSA_BwAQo0EItwE,_id:irc_async,_pms:qs
p633
sVqueryString
p634
(lp635
(dp636
Vname
p637
Vvet
p638
sVvalue
p639
V10ahUKEwjknqm0jKnTAhVj2oMKHSA_BwAQo0EItwE..i
p640
sa(dp641
Vname
p642
Vved
p643
sVvalue
p644
V0ahUKEwjknqm0jKnTAhVj2oMKHSA_BwAQo0EItwE
p645
sa(dp646
Vname
p647
Vei
p648
sVvalue
p649
Vl3PzWKT3HeO0jwSg_hw
p650
sa(dp651
Vname
p652
Vyv
p653
sVvalue
p654
g64
sa(dp655
Vname
p656
Vasync
p657
sVvalue
p658
Viu:1,ved:0ahUKEwjknqm0jKnTAhVj2oMKHSA_BwAQo0EItwE,_id:irc_async,_pms:qs
p659
sasVheaders
p660
(lp661
sVheadersSize
p662
I749
sVbodySize
p663
I0
sVmethod
p664
VGET
p665
sVhttpVersion
p666
VHTTP/1.1
p667
ssVtimings
p668
(dp669
Vcomment
p670
g4
sVreceive
p671
I4
sVsend
p672
I0
sVssl
p673
I-1
sVconnect
p674
I-1
sVdns
p675
I-1
sVwait
p676
I37
sVblocked
p677
I-1
ssVtime
p678
I42
sVresponse
p679
(dp680
Vstatus
p681
I200
sVcomment
p682
g4
sVcookies
p683
(lp684
sVstatusText
p685
VOK
p686
sVcontent
p687
(dp688
VmimeType
p689
Vtext/html; charset=UTF-8
p690
sVcomment
p691
g4
sVsize
p692
I0
ssVheaders
p693
(lp694
sVheadersSize
p695
I383
sVredirectURL
p696
g4
sVbodySize
p697
I7792
sVhttpVersion
p698
VHTTP/1.1
p699
ssa(dp700
Vcomment
p701
g4
sVserverIPAddress
p702
V216.58.216.196
p703
sVpageref
p704
VBudweiser America
p705
sVstartedDateTime
p706
V2017-04-16T08:37:30.827-05:00
p707
sVcache
p708
(dp709
sVrequest
p710
(dp711
Vcomment
p712
g4
sVcookies
p713
(lp714
sVurl
p715
Vhttps://www.google.com/async/ampfp?vet=10ahUKEwjknqm0jKnTAhVj2oMKHSA_BwAQtZoBCLUB..i&ei=l3PzWKT3HeO0jwSg_hw&yv=2&async=_id:ampfp-async,_pms:qs
p716
sVqueryString
p717
(lp718
(dp719
Vname
p720
Vvet
p721
sVvalue
p722
V10ahUKEwjknqm0jKnTAhVj2oMKHSA_BwAQtZoBCLUB..i
p723
sa(dp724
Vname
p725
Vei
p726
sVvalue
p727
Vl3PzWKT3HeO0jwSg_hw
p728
sa(dp729
Vname
p730
Vyv
p731
sVvalue
p732
g64
sa(dp733
Vname
p734
Vasync
p735
sVvalue
p736
V_id:ampfp-async,_pms:qs
p737
sasVheaders
p738
(lp739
sVheadersSize
p740
I659
sVbodySize
p741
I0
sVmethod
p742
VGET
p743
sVhttpVersion
p744
VHTTP/1.1
p745
ssVtimings
p746
(dp747
Vcomment
p748
g4
sVreceive
p749
I0
sVsend
p750
I0
sVssl
p751
I-1
sVconnect
p752
I-1
sVdns
p753
I-1
sVwait
p754
I35
sVblocked
p755
I-1
ssVtime
p756
I35
sVresponse
p757
(dp758
Vstatus
p759
I200
sVcomment
p760
g4
sVcookies
p761
(lp762
sVstatusText
p763
VOK
p764
sVcontent
p765
(dp766
VmimeType
p767
Vtext/html; charset=UTF-8
p768
sVcomment
p769
g4
sVsize
p770
I0
ssVheaders
p771
(lp772
sVheadersSize
p773
I383
sVredirectURL
p774
g4
sVbodySize
p775
I4526
sVhttpVersion
p776
VHTTP/1.1
p777
ssa(dp778
Vcomment
p779
g4
sVserverIPAddress
p780
V216.58.216.193
p781
sVpageref
p782
VBudweiser America
p783
sVstartedDateTime
p784
V2017-04-16T08:37:30.827-05:00
p785
sVcache
p786
(dp787
sVrequest
p788
(dp789
Vcomment
p790
g4
sVcookies
p791
(lp792
sVurl
p793
Vhttps://cdn.ampproject.org/preconnect.gif?0.3063599356498805
p794
sVqueryString
p795
(lp796
(dp797
Vname
p798
V0.3063599356498805
p799
sVvalue
p800
g4
sasVheaders
p801
(lp802
sVheadersSize
p803
I375
sVbodySize
p804
I0
sVmethod
p805
VGET
p806
sVhttpVersion
p807
VHTTP/1.1
p808
ssVtimings
p809
(dp810
Vcomment
p811
g4
sVreceive
p812
I0
sVsend
p813
I0
sVssl
p814
I-1
sVconnect
p815
I-1
sVdns
p816
I-1
sVwait
p817
I34
sVblocked
p818
I-1
ssVtime
p819
I34
sVresponse
p820
(dp821
Vstatus
p822
I200
sVcomment
p823
g4
sVcookies
p824
(lp825
sVstatusText
p826
VOK
p827
sVcontent
p828
(dp829
VmimeType
p830
Vimage/gif
p831
sVcomment
p832
g4
sVsize
p833
I0
ssVheaders
p834
(lp835
sVheadersSize
p836
I826
sVredirectURL
p837
g4
sVbodySize
p838
I37
sVhttpVersion
p839
VHTTP/1.1
p840
ssa(dp841
Vcomment
p842
g4
sVserverIPAddress
p843
V216.58.216.206
p844
sVpageref
p845
VBudweiser America
p846
sVstartedDateTime
p847
V2017-04-16T08:37:30.842-05:00
p848
sVcache
p849
(dp850
sVrequest
p851
(dp852
Vcomment
p853
g4
sVcookies
p854
(lp855
sVurl
p856
Vhttps://encrypted-tbn1.gstatic.com/images?q=tbn:ANd9GcR8ufbxTnLRflN7bgjvOxlRfMWkyKIX9-oeyVS1GJC7MrBNhuC4iQFrEFNdhQ
p857
sVqueryString
p858
(lp859
(dp860
Vname
p861
g415
sVvalue
p862
Vtbn:ANd9GcR8ufbxTnLRflN7bgjvOxlRfMWkyKIX9-oeyVS1GJC7MrBNhuC4iQFrEFNdhQ
p863
sasVheaders
p864
(lp865
sVheadersSize
p866
I429
sVbodySize
p867
I0
sVmethod
p868
VGET
p869
sVhttpVersion
p870
VHTTP/1.1
p871
ssVtimings
p872
(dp873
Vcomment
p874
g4
sVreceive
p875
I2
sVsend
p876
I0
sVssl
p877
I-1
sVconnect
p878
I-1
sVdns
p879
I-1
sVwait
p880
I25
sVblocked
p881
I-1
ssVtime
p882
I28
sVresponse
p883
(dp884
Vstatus
p885
I200
sVcomment
p886
g4
sVcookies
p887
(lp888
sVstatusText
p889
VOK
p890
sVcontent
p891
(dp892
VmimeType
p893
Vimage/jpeg
p894
sVcomment
p895
g4
sVsize
p896
I0
ssVheaders
p897
(lp898
sVheadersSize
p899
I415
sVredirectURL
p900
g4
sVbodySize
p901
I6156
sVhttpVersion
p902
VHTTP/1.1
p903
ssa(dp904
Vcomment
p905
g4
sVserverIPAddress
p906
V216.58.216.206
p907
sVpageref
p908
VBudweiser America
p909
sVstartedDateTime
p910
V2017-04-16T08:37:31.615-05:00
p911
sVcache
p912
(dp913
sVrequest
p914
(dp915
Vcomment
p916
g4
sVcookies
p917
(lp918
sVurl
p919
Vhttps://encrypted-tbn2.gstatic.com/images?q=tbn:ANd9GcQVQdiC5kH8Ygmp-4EVm2NLzy02Nl3fucGc6UEXDb8-FtjgUV68S2CvEXwO
p920
sVqueryString
p921
(lp922
(dp923
Vname
p924
g415
sVvalue
p925
Vtbn:ANd9GcQVQdiC5kH8Ygmp-4EVm2NLzy02Nl3fucGc6UEXDb8-FtjgUV68S2CvEXwO
p926
sasVheaders
p927
(lp928
sVheadersSize
p929
I427
sVbodySize
p930
I0
sVmethod
p931
VGET
p932
sVhttpVersion
p933
VHTTP/1.1
p934
ssVtimings
p935
(dp936
Vcomment
p937
g4
sVreceive
p938
I0
sVsend
p939
I0
sVssl
p940
I717
sVconnect
p941
I739
sVdns
p942
I31
sVwait
p943
I17
sVblocked
p944
I0
ssVtime
p945
I789
sVresponse
p946
(dp947
Vstatus
p948
I200
sVcomment
p949
g4
sVcookies
p950
(lp951
sVstatusText
p952
VOK
p953
sVcontent
p954
(dp955
VmimeType
p956
Vimage/jpeg
p957
sVcomment
p958
g4
sVsize
p959
I0
ssVheaders
p960
(lp961
sVheadersSize
p962
I427
sVredirectURL
p963
g4
sVbodySize
p964
I5927
sVhttpVersion
p965
VHTTP/1.1
p966
ssa(dp967
Vcomment
p968
g4
sVserverIPAddress
p969
V216.58.216.196
p970
sVpageref
p971
VBudweiser America
p972
sVstartedDateTime
p973
V2017-04-16T08:37:31.723-05:00
p974
sVcache
p975
(dp976
sVrequest
p977
(dp978
Vcomment
p979
g4
sVcookies
p980
(lp981
sVurl
p982
Vhttps://www.google.com/xjs/_/js/k=xjs.qs.en_US.pCBXVCvTH3s.O/m=idg,sy4d,sy2u,sy4f,sy4c,sy4e,sy4b,syd7,dgm,syfu,ish,ivw,sy6k,syi2,syi5,syi4,fpv,sy48,sy3a,sy3c,sy5b,sy4x,sy4z,sy56,sy4y,sy5d,sy8e,sya8,sy5e,sy91,sya6,sya7,sya9,amp,sp/am=gCP4LtMEBXQA2RUaq_oFBISzAFA/rt=j/d=0/t=zcms/rs=ACT90oFwm4NZCwIcuuiqmthdlECdBzkhRA
p983
sVqueryString
p984
(lp985
sVheaders
p986
(lp987
sVheadersSize
p988
I831
sVbodySize
p989
I0
sVmethod
p990
VGET
p991
sVhttpVersion
p992
VHTTP/1.1
p993
ssVtimings
p994
(dp995
Vcomment
p996
g4
sVreceive
p997
I6
sVsend
p998
I0
sVssl
p999
I-1
sVconnect
p1000
I-1
sVdns
p1001
I-1
sVwait
p1002
I16
sVblocked
p1003
I-1
ssVtime
p1004
I23
sVresponse
p1005
(dp1006
Vstatus
p1007
I200
sVcomment
p1008
g4
sVcookies
p1009
(lp1010
sVstatusText
p1011
VOK
p1012
sVcontent
p1013
(dp1014
VmimeType
p1015
Vtext/javascript; charset=UTF-8
p1016
sVcomment
p1017
g4
sVsize
p1018
I0
ssVheaders
p1019
(lp1020
sVheadersSize
p1021
I464
sVredirectURL
p1022
g4
sVbodySize
p1023
I58241
sVhttpVersion
p1024
VHTTP/1.1
p1025
ssa(dp1026
Vcomment
p1027
g4
sVserverIPAddress
p1028
V216.58.216.196
p1029
sVpageref
p1030
VBudweiser America
p1031
sVstartedDateTime
p1032
V2017-04-16T08:37:31.802-05:00
p1033
sVcache
p1034
(dp1035
sVrequest
p1036
(dp1037
Vcomment
p1038
g4
sVcookies
p1039
(lp1040
sVurl
p1041
Vhttps://www.google.com/async/log_amp_item_set?vet=10ahUKEwjA6ra1jKnTAhUC6IMKHXsYBGMQooQBCAE..i&ei=l3PzWKT3HeO0jwSg_hw&yv=2&async=num_items:1,_fmt:jspb
p1042
sVqueryString
p1043
(lp1044
(dp1045
Vname
p1046
Vvet
p1047
sVvalue
p1048
V10ahUKEwjA6ra1jKnTAhUC6IMKHXsYBGMQooQBCAE..i
p1049
sa(dp1050
Vname
p1051
Vei
p1052
sVvalue
p1053
Vl3PzWKT3HeO0jwSg_hw
p1054
sa(dp1055
Vname
p1056
Vyv
p1057
sVvalue
p1058
g64
sa(dp1059
Vname
p1060
Vasync
p1061
sVvalue
p1062
Vnum_items:1,_fmt:jspb
p1063
sasVheaders
p1064
(lp1065
sVheadersSize
p1066
I667
sVbodySize
p1067
I0
sVmethod
p1068
VGET
p1069
sVhttpVersion
p1070
VHTTP/1.1
p1071
ssVtimings
p1072
(dp1073
Vcomment
p1074
g4
sVreceive
p1075
I0
sVsend
p1076
I0
sVssl
p1077
I-1
sVconnect
p1078
I-1
sVdns
p1079
I-1
sVwait
p1080
I60
sVblocked
p1081
I-1
ssVtime
p1082
I60
sVresponse
p1083
(dp1084
Vstatus
p1085
I200
sVcomment
p1086
g4
sVcookies
p1087
(lp1088
sVstatusText
p1089
VOK
p1090
sVcontent
p1091
(dp1092
VmimeType
p1093
Vapplication/json; charset=UTF-8
p1094
sVcomment
p1095
g4
sVsize
p1096
I0
ssVheaders
p1097
(lp1098
sVheadersSize
p1099
I417
sVredirectURL
p1100
g4
sVbodySize
p1101
I132
sVhttpVersion
p1102
VHTTP/1.1
p1103
ssa(dp1104
Vcomment
p1105
g4
sVserverIPAddress
p1106
V216.58.216.193
p1107
sVpageref
p1108
VBudweiser America
p1109
sVstartedDateTime
p1110
V2017-04-16T08:37:32.315-05:00
p1111
sVcache
p1112
(dp1113
sVrequest
p1114
(dp1115
Vcomment
p1116
g4
sVcookies
p1117
(lp1118
sVurl
p1119
Vhttps://amp-usatoday-com.cdn.ampproject.org/v/amp.usatoday.com/story/84176886/?amp_js_v=9
p1120
sVqueryString
p1121
(lp1122
(dp1123
Vname
p1124
Vamp_js_v
p1125
sVvalue
p1126
V9
p1127
sasVheaders
p1128
(lp1129
sVheadersSize
p1130
I494
sVbodySize
p1131
I0
sVmethod
p1132
VGET
p1133
sVhttpVersion
p1134
VHTTP/1.1
p1135
ssVtimings
p1136
(dp1137
Vcomment
p1138
g4
sVreceive
p1139
I1
sVsend
p1140
I0
sVssl
p1141
I446
sVconnect
p1142
I461
sVdns
p1143
I44
sVwait
p1144
I72
sVblocked
p1145
I0
ssVtime
p1146
I581
sVresponse
p1147
(dp1148
Vstatus
p1149
I200
sVcomment
p1150
g4
sVcookies
p1151
(lp1152
sVstatusText
p1153
VOK
p1154
sVcontent
p1155
(dp1156
VmimeType
p1157
Vtext/html
p1158
sVcomment
p1159
g4
sVsize
p1160
I0
ssVheaders
p1161
(lp1162
sVheadersSize
p1163
I861
sVredirectURL
p1164
g4
sVbodySize
p1165
I6343
sVhttpVersion
p1166
VHTTP/1.1
p1167
ssa(dp1168
Vcomment
p1169
g4
sVserverIPAddress
p1170
V216.58.216.193
p1171
sVpageref
p1172
VBudweiser America
p1173
sVstartedDateTime
p1174
V2017-04-16T08:37:32.416-05:00
p1175
sVcache
p1176
(dp1177
sVrequest
p1178
(dp1179
Vcomment
p1180
g4
sVcookies
p1181
(lp1182
sVurl
p1183
Vhttps://amp-usatoday-com.cdn.ampproject.org/i/amp.usatoday.com/static/images/share-fb-light3x.png
p1184
sVqueryString
p1185
(lp1186
sVheaders
p1187
(lp1188
sVheadersSize
p1189
I478
sVbodySize
p1190
I0
sVmethod
p1191
VGET
p1192
sVhttpVersion
p1193
VHTTP/1.1
p1194
ssVtimings
p1195
(dp1196
Vcomment
p1197
g4
sVreceive
p1198
I0
sVsend
p1199
I5
sVssl
p1200
I-1
sVconnect
p1201
I-1
sVdns
p1202
I-1
sVwait
p1203
I20
sVblocked
p1204
I-1
ssVtime
p1205
I26
sVresponse
p1206
(dp1207
Vstatus
p1208
I200
sVcomment
p1209
g4
sVcookies
p1210
(lp1211
sVstatusText
p1212
VOK
p1213
sVcontent
p1214
(dp1215
VmimeType
p1216
Vimage/png
p1217
sVcomment
p1218
g4
sVsize
p1219
I0
ssVheaders
p1220
(lp1221
sVheadersSize
p1222
I818
sVredirectURL
p1223
g4
sVbodySize
p1224
I750
sVhttpVersion
p1225
VHTTP/1.1
p1226
ssa(dp1227
Vcomment
p1228
g4
sVserverIPAddress
p1229
V216.58.216.193
p1230
sVpageref
p1231
VBudweiser America
p1232
sVstartedDateTime
p1233
V2017-04-16T08:37:32.475-05:00
p1234
sVcache
p1235
(dp1236
sVrequest
p1237
(dp1238
Vcomment
p1239
g4
sVcookies
p1240
(lp1241
sVurl
p1242
Vhttps://amp-usatoday-com.cdn.ampproject.org/i/amp.usatoday.com/static/images/share-twitter-light3x.png
p1243
sVqueryString
p1244
(lp1245
sVheaders
p1246
(lp1247
sVheadersSize
p1248
I483
sVbodySize
p1249
I0
sVmethod
p1250
VGET
p1251
sVhttpVersion
p1252
VHTTP/1.1
p1253
ssVtimings
p1254
(dp1255
Vcomment
p1256
g4
sVreceive
p1257
I0
sVsend
p1258
I0
sVssl
p1259
I25
sVconnect
p1260
I55
sVdns
p1261
I0
sVwait
p1262
I35
sVblocked
p1263
I0
ssVtime
p1264
I92
sVresponse
p1265
(dp1266
Vstatus
p1267
I200
sVcomment
p1268
g4
sVcookies
p1269
(lp1270
sVstatusText
p1271
VOK
p1272
sVcontent
p1273
(dp1274
VmimeType
p1275
Vimage/png
p1276
sVcomment
p1277
g4
sVsize
p1278
I0
ssVheaders
p1279
(lp1280
sVheadersSize
p1281
I819
sVredirectURL
p1282
g4
sVbodySize
p1283
I1030
sVhttpVersion
p1284
VHTTP/1.1
p1285
ssa(dp1286
Vcomment
p1287
g4
sVserverIPAddress
p1288
V216.58.216.193
p1289
sVpageref
p1290
VBudweiser America
p1291
sVstartedDateTime
p1292
V2017-04-16T08:37:32.476-05:00
p1293
sVcache
p1294
(dp1295
sVrequest
p1296
(dp1297
Vcomment
p1298
g4
sVcookies
p1299
(lp1300
sVurl
p1301
Vhttps://amp-usatoday-com.cdn.ampproject.org/r/amp.usatoday.com/static/fonts/futura_today_demibold.woff
p1302
sVqueryString
p1303
(lp1304
sVheaders
p1305
(lp1306
sVheadersSize
p1307
I537
sVbodySize
p1308
I0
sVmethod
p1309
VGET
p1310
sVhttpVersion
p1311
VHTTP/1.1
p1312
ssVtimings
p1313
(dp1314
Vcomment
p1315
g4
sVreceive
p1316
I31
sVsend
p1317
I0
sVssl
p1318
I22
sVconnect
p1319
I50
sVdns
p1320
I0
sVwait
p1321
I32
sVblocked
p1322
I0
ssVtime
p1323
I114
sVresponse
p1324
(dp1325
Vstatus
p1326
I200
sVcomment
p1327
g4
sVcookies
p1328
(lp1329
sVstatusText
p1330
VOK
p1331
sVcontent
p1332
(dp1333
VmimeType
p1334
Vapplication/octet-stream
p1335
sVcomment
p1336
g4
sVsize
p1337
I0
ssVheaders
p1338
(lp1339
sVheadersSize
p1340
I867
sVredirectURL
p1341
g4
sVbodySize
p1342
I37918
sVhttpVersion
p1343
VHTTP/1.1
p1344
ssa(dp1345
Vcomment
p1346
g4
sVserverIPAddress
p1347
V216.58.216.193
p1348
sVpageref
p1349
VBudweiser America
p1350
sVstartedDateTime
p1351
V2017-04-16T08:37:32.476-05:00
p1352
sVcache
p1353
(dp1354
sVrequest
p1355
(dp1356
Vcomment
p1357
g4
sVcookies
p1358
(lp1359
sVurl
p1360
Vhttps://amp-usatoday-com.cdn.ampproject.org/i/amp.usatoday.com/static/images/share-email-light3x.png
p1361
sVqueryString
p1362
(lp1363
sVheaders
p1364
(lp1365
sVheadersSize
p1366
I481
sVbodySize
p1367
I0
sVmethod
p1368
VGET
p1369
sVhttpVersion
p1370
VHTTP/1.1
p1371
ssVtimings
p1372
(dp1373
Vcomment
p1374
g4
sVreceive
p1375
I0
sVsend
p1376
I0
sVssl
p1377
I22
sVconnect
p1378
I51
sVdns
p1379
I0
sVwait
p1380
I31
sVblocked
p1381
I0
ssVtime
p1382
I83
sVresponse
p1383
(dp1384
Vstatus
p1385
I200
sVcomment
p1386
g4
sVcookies
p1387
(lp1388
sVstatusText
p1389
VOK
p1390
sVcontent
p1391
(dp1392
VmimeType
p1393
Vimage/png
p1394
sVcomment
p1395
g4
sVsize
p1396
I0
ssVheaders
p1397
(lp1398
sVheadersSize
p1399
I819
sVredirectURL
p1400
g4
sVbodySize
p1401
I1010
sVhttpVersion
p1402
VHTTP/1.1
p1403
ssa(dp1404
Vcomment
p1405
g4
sVserverIPAddress
p1406
V216.58.216.193
p1407
sVpageref
p1408
VBudweiser America
p1409
sVstartedDateTime
p1410
V2017-04-16T08:37:32.477-05:00
p1411
sVcache
p1412
(dp1413
sVrequest
p1414
(dp1415
Vcomment
p1416
g4
sVcookies
p1417
(lp1418
sVurl
p1419
Vhttps://amp-usatoday-com.cdn.ampproject.org/r/amp.usatoday.com/static/fonts/futura_today_light.woff
p1420
sVqueryString
p1421
(lp1422
sVheaders
p1423
(lp1424
sVheadersSize
p1425
I534
sVbodySize
p1426
I0
sVmethod
p1427
VGET
p1428
sVhttpVersion
p1429
VHTTP/1.1
p1430
ssVtimings
p1431
(dp1432
Vcomment
p1433
g4
sVreceive
p1434
I27
sVsend
p1435
I0
sVssl
p1436
I23
sVconnect
p1437
I48
sVdns
p1438
I0
sVwait
p1439
I36
sVblocked
p1440
I0
ssVtime
p1441
I112
sVresponse
p1442
(dp1443
Vstatus
p1444
I200
sVcomment
p1445
g4
sVcookies
p1446
(lp1447
sVstatusText
p1448
VOK
p1449
sVcontent
p1450
(dp1451
VmimeType
p1452
Vapplication/octet-stream
p1453
sVcomment
p1454
g4
sVsize
p1455
I0
ssVheaders
p1456
(lp1457
sVheadersSize
p1458
I867
sVredirectURL
p1459
g4
sVbodySize
p1460
I33504
sVhttpVersion
p1461
VHTTP/1.1
p1462
ssa(dp1463
Vcomment
p1464
g4
sVserverIPAddress
p1465
V216.58.216.196
p1466
sVpageref
p1467
VBudweiser America
p1468
sVstartedDateTime
p1469
V2017-04-16T08:37:32.790-05:00
p1470
sVcache
p1471
(dp1472
sVrequest
p1473
(dp1474
Vcomment
p1475
g4
sVcookies
p1476
(lp1477
sVurl
p1478
Vhttps://www.google.com/gen_204?atyp=i&ct=slh&cad=&ei=inPzWPHgCcKijwTXxLi4BQ&m=V&t=C&s=1&v=2&pv=0.5699255150627252&me=1:1492349837845,x:3,V,0,0,1280,944:0,N,1,inPzWPHgCcKijwTXxLi4BQ:0,R,1,24,0,155,1197,589:0,R,1,25,0,155,1197,587:0,R,1,78,8,752,1264,309:0,R,1,79,8,796,1264,265:0,R,1,80,0,796,1280,285:1,B,4858:9935,e,U&zx=1492349852786
p1479
sVqueryString
p1480
(lp1481
(dp1482
Vname
p1483
Vatyp
p1484
sVvalue
p1485
g30
sa(dp1486
Vname
p1487
Vct
p1488
sVvalue
p1489
Vslh
p1490
sa(dp1491
Vname
p1492
Vcad
p1493
sVvalue
p1494
g4
sa(dp1495
Vname
p1496
Vei
p1497
sVvalue
p1498
VinPzWPHgCcKijwTXxLi4BQ
p1499
sa(dp1500
Vname
p1501
g47
sVvalue
p1502
g49
sa(dp1503
Vname
p1504
g52
sVvalue
p1505
g54
sa(dp1506
Vname
p1507
g57
sVvalue
p1508
g59
sa(dp1509
Vname
p1510
g62
sVvalue
p1511
g64
sa(dp1512
Vname
p1513
Vpv
p1514
sVvalue
p1515
V0.5699255150627252
p1516
sa(dp1517
Vname
p1518
Vme
p1519
sVvalue
p1520
V1:1492349837845,x:3,V,0,0,1280,944:0,N,1,inPzWPHgCcKijwTXxLi4BQ:0,R,1,24,0,155,1197,589:0,R,1,25,0,155,1197,587:0,R,1,78,8,752,1264,309:0,R,1,79,8,796,1264,265:0,R,1,80,0,796,1280,285:1,B,4858:9935,e,U
p1521
sa(dp1522
Vname
p1523
Vzx
p1524
sVvalue
p1525
V1492349852786
p1526
sasVheaders
p1527
(lp1528
sVheadersSize
p1529
I852
sVbodySize
p1530
I0
sVmethod
p1531
VGET
p1532
sVhttpVersion
p1533
VHTTP/1.1
p1534
ssVtimings
p1535
(dp1536
Vcomment
p1537
g4
sVreceive
p1538
I0
sVsend
p1539
I0
sVssl
p1540
I-1
sVconnect
p1541
I-1
sVdns
p1542
I-1
sVwait
p1543
I29
sVblocked
p1544
I-1
ssVtime
p1545
I29
sVresponse
p1546
(dp1547
Vstatus
p1548
I204
sVcomment
p1549
g4
sVcookies
p1550
(lp1551
sVstatusText
p1552
VNo Content
p1553
sVcontent
p1554
(dp1555
VmimeType
p1556
Vtext/html; charset=UTF-8
p1557
sVcomment
p1558
g4
sVsize
p1559
I0
ssVheaders
p1560
(lp1561
sVheadersSize
p1562
I248
sVredirectURL
p1563
g4
sVbodySize
p1564
I0
sVhttpVersion
p1565
VHTTP/1.1
p1566
ssa(dp1567
Vcomment
p1568
g4
sVserverIPAddress
p1569
V216.58.216.193
p1570
sVpageref
p1571
VBudweiser America
p1572
sVstartedDateTime
p1573
V2017-04-16T08:37:33.486-05:00
p1574
sVcache
p1575
(dp1576
sVrequest
p1577
(dp1578
Vcomment
p1579
g4
sVcookies
p1580
(lp1581
sVurl
p1582
Vhttps://www-gannett--cdn-com.cdn.ampproject.org/ii/w1000/s/www.gannett-cdn.com/-mm-/239308c7ce012e6c50890d3168fc88258f6ef37d/r=640x480/local/-/media/2016/05/10/USATODAY/USATODAY/635984713121162968-BUD-12OZ-BOTTLE-JKR-SUMMER-SXS.jpg
p1583
sVqueryString
p1584
(lp1585
sVheaders
p1586
(lp1587
sVheadersSize
p1588
I612
sVbodySize
p1589
I0
sVmethod
p1590
VGET
p1591
sVhttpVersion
p1592
VHTTP/1.1
p1593
ssVtimings
p1594
(dp1595
Vcomment
p1596
g4
sVreceive
p1597
I23
sVsend
p1598
I0
sVssl
p1599
I836
sVconnect
p1600
I859
sVdns
p1601
I0
sVwait
p1602
I50
sVblocked
p1603
I0
ssVtime
p1604
I933
sVresponse
p1605
(dp1606
Vstatus
p1607
I200
sVcomment
p1608
g4
sVcookies
p1609
(lp1610
sVstatusText
p1611
VOK
p1612
sVcontent
p1613
(dp1614
VmimeType
p1615
Vimage/jpeg
p1616
sVcomment
p1617
g4
sVsize
p1618
I0
ssVheaders
p1619
(lp1620
sVheadersSize
p1621
I850
sVredirectURL
p1622
g4
sVbodySize
p1623
I22724
sVhttpVersion
p1624
VHTTP/1.1
p1625
ssa(dp1626
Vcomment
p1627
g4
sVserverIPAddress
p1628
V216.58.216.193
p1629
sVpageref
p1630
VBudweiser America
p1631
sVstartedDateTime
p1632
V2017-04-16T08:37:33.490-05:00
p1633
sVcache
p1634
(dp1635
sVrequest
p1636
(dp1637
Vcomment
p1638
g4
sVcookies
p1639
(lp1640
sVurl
p1641
Vhttps://www-gannett--cdn-com.cdn.ampproject.org/i/s/www.gannett-cdn.com/mobile-web/usat-mobile/v1/images/logo-main2x.png
p1642
sVqueryString
p1643
(lp1644
sVheaders
p1645
(lp1646
sVheadersSize
p1647
I501
sVbodySize
p1648
I0
sVmethod
p1649
VGET
p1650
sVhttpVersion
p1651
VHTTP/1.1
p1652
ssVtimings
p1653
(dp1654
Vcomment
p1655
g4
sVreceive
p1656
I0
sVsend
p1657
I0
sVssl
p1658
I1010
sVconnect
p1659
I1028
sVdns
p1660
I44
sVwait
p1661
I26
sVblocked
p1662
I0
ssVtime
p1663
I1100
sVresponse
p1664
(dp1665
Vstatus
p1666
I200
sVcomment
p1667
g4
sVcookies
p1668
(lp1669
sVstatusText
p1670
VOK
p1671
sVcontent
p1672
(dp1673
VmimeType
p1674
Vimage/png
p1675
sVcomment
p1676
g4
sVsize
p1677
I0
ssVheaders
p1678
(lp1679
sVheadersSize
p1680
I819
sVredirectURL
p1681
g4
sVbodySize
p1682
I1111
sVhttpVersion
p1683
VHTTP/1.1
p1684
ssa(dp1685
Vcomment
p1686
g4
sVserverIPAddress
p1687
V216.58.216.196
p1688
sVpageref
p1689
VBudweiser America
p1690
sVstartedDateTime
p1691
V2017-04-16T08:37:33.576-05:00
p1692
sVcache
p1693
(dp1694
sVrequest
p1695
(dp1696
Vcomment
p1697
g4
sVcookies
p1698
(lp1699
sVurl
p1700
Vhttps://www.google.com/gen_204?s=web&atyp=csi&ei=l3PzWKT3HeO0jwSg_hw&imc=26&imn=26&imp=14&adh=&xjs=init.50.14.sb_mob.37.dvl.4.c.3.mbsf.3.async.2&ima=3&rt=prt.970,iml.1044,xjsls.971,dcl.1154,xjses.1268,xjsee.1454,xjs.1455,qiml.2064,ol.4602,aft.1041,wsrt.515,cst.0,dnst.0,rqst.1444,rspt.1447,rqstt.55,unt.6,cstt.6,dit.1599
p1701
sVqueryString
p1702
(lp1703
(dp1704
Vname
p1705
g57
sVvalue
p1706
Vweb
p1707
sa(dp1708
Vname
p1709
Vatyp
p1710
sVvalue
p1711
Vcsi
p1712
sa(dp1713
Vname
p1714
Vei
p1715
sVvalue
p1716
Vl3PzWKT3HeO0jwSg_hw
p1717
sa(dp1718
Vname
p1719
Vimc
p1720
sVvalue
p1721
V26
p1722
sa(dp1723
Vname
p1724
Vimn
p1725
sVvalue
p1726
V26
p1727
sa(dp1728
Vname
p1729
Vimp
p1730
sVvalue
p1731
V14
p1732
sa(dp1733
Vname
p1734
Vadh
p1735
sVvalue
p1736
g4
sa(dp1737
Vname
p1738
Vxjs
p1739
sVvalue
p1740
Vinit.50.14.sb_mob.37.dvl.4.c.3.mbsf.3.async.2
p1741
sa(dp1742
Vname
p1743
Vima
p1744
sVvalue
p1745
V3
p1746
sa(dp1747
Vname
p1748
Vrt
p1749
sVvalue
p1750
Vprt.970,iml.1044,xjsls.971,dcl.1154,xjses.1268,xjsee.1454,xjs.1455,qiml.2064,ol.4602,aft.1041,wsrt.515,cst.0,dnst.0,rqst.1444,rspt.1447,rqstt.55,unt.6,cstt.6,dit.1599
p1751
sasVheaders
p1752
(lp1753
sVheadersSize
p1754
I837
sVbodySize
p1755
I0
sVmethod
p1756
VGET
p1757
sVhttpVersion
p1758
VHTTP/1.1
p1759
ssVtimings
p1760
(dp1761
Vcomment
p1762
g4
sVreceive
p1763
I0
sVsend
p1764
I0
sVssl
p1765
I-1
sVconnect
p1766
I-1
sVdns
p1767
I-1
sVwait
p1768
I25
sVblocked
p1769
I-1
ssVtime
p1770
I25
sVresponse
p1771
(dp1772
Vstatus
p1773
I204
sVcomment
p1774
g4
sVcookies
p1775
(lp1776
sVstatusText
p1777
VNo Content
p1778
sVcontent
p1779
(dp1780
VmimeType
p1781
Vtext/html; charset=UTF-8
p1782
sVcomment
p1783
g4
sVsize
p1784
I0
ssVheaders
p1785
(lp1786
sVheadersSize
p1787
I248
sVredirectURL
p1788
g4
sVbodySize
p1789
I0
sVhttpVersion
p1790
VHTTP/1.1
p1791
ssasVversion
p1792
V1.2
p1793
sVpages
p1794
(lp1795
(dp1796
VpageTimings
p1797
(dp1798
Vcomment
p1799
g4
ssVcomment
p1800
g4
sVtitle
p1801
VBudweiser America
p1802
sVid
p1803
VBudweiser America
p1804
sVstartedDateTime
p1805
V2017-04-16T08:37:27.778-05:00
p1806
sasVcreator
p1807
(dp1808
Vcomment
p1809
g4
sVversion
p1810
V2.1.4
p1811
sVname
p1812
VBrowserMob Proxy
p1813
sss.