(dp0
Vlog
p1
(dp2
Vcomment
p3
V
p4
sVentries
p5
(lp6
(dp7
Vcomment
p8
g4
sVserverIPAddress
p9
V216.58.216.196
p10
sVpageref
p11
VCleveland Indians
p12
sVstartedDateTime
p13
V2017-04-16T08:25:00.432-05:00
p14
sVcache
p15
(dp16
sVrequest
p17
(dp18
Vcomment
p19
g4
sVcookies
p20
(lp21
sVurl
p22
Vhttps://www.google.com/gen_204?atyp=i&ct=slh&cad=&ei=mXDzWLaDJsTqjwTY3p2QAQ&m=V&t=C&s=1&v=2&pv=0.24084210194929223&me=1:1492349086447,x:2,V,0,0,1280,944:0,N,1,mXDzWLaDJsTqjwTY3p2QAQ:0,R,1,24,0,155,1197,502:0,R,1,25,0,155,1197,500:0,R,1,78,8,665,1264,545:0,R,1,79,8,709,1264,315:0,R,1,80,0,709,1280,335:1,B,4153:13979,e,U&zx=1492349100430
p23
sVqueryString
p24
(lp25
(dp26
Vname
p27
Vatyp
p28
sVvalue
p29
Vi
p30
sa(dp31
Vname
p32
Vct
p33
sVvalue
p34
Vslh
p35
sa(dp36
Vname
p37
Vcad
p38
sVvalue
p39
g4
sa(dp40
Vname
p41
Vei
p42
sVvalue
p43
VmXDzWLaDJsTqjwTY3p2QAQ
p44
sa(dp45
Vname
p46
Vm
p47
sVvalue
p48
VV
p49
sa(dp50
Vname
p51
Vt
p52
sVvalue
p53
VC
p54
sa(dp55
Vname
p56
Vs
p57
sVvalue
p58
V1
p59
sa(dp60
Vname
p61
Vv
p62
sVvalue
p63
V2
p64
sa(dp65
Vname
p66
Vpv
p67
sVvalue
p68
V0.24084210194929223
p69
sa(dp70
Vname
p71
Vme
p72
sVvalue
p73
V1:1492349086447,x:2,V,0,0,1280,944:0,N,1,mXDzWLaDJsTqjwTY3p2QAQ:0,R,1,24,0,155,1197,502:0,R,1,25,0,155,1197,500:0,R,1,78,8,665,1264,545:0,R,1,79,8,709,1264,315:0,R,1,80,0,709,1280,335:1,B,4153:13979,e,U
p74
sa(dp75
Vname
p76
Vzx
p77
sVvalue
p78
V1492349100430
p79
sasVheaders
p80
(lp81
sVheadersSize
p82
I854
sVbodySize
p83
I0
sVmethod
p84
VGET
p85
sVhttpVersion
p86
VHTTP/1.1
p87
ssVtimings
p88
(dp89
Vcomment
p90
g4
sVreceive
p91
I0
sVsend
p92
I0
sVssl
p93
I-1
sVconnect
p94
I-1
sVdns
p95
I-1
sVwait
p96
I0
sVblocked
p97
I-1
ssVtime
p98
I0
sVresponse
p99
(dp100
Vstatus
p101
I0
sVcomment
p102
g4
sVcookies
p103
(lp104
sV_error
p105
VNo response received
p106
sVstatusText
p107
g4
sVcontent
p108
(dp109
VmimeType
p110
g4
sVcomment
p111
g4
sVsize
p112
I0
ssVheaders
p113
(lp114
sVheadersSize
p115
I-1
sVredirectURL
p116
g4
sVbodySize
p117
I-1
sVhttpVersion
p118
Vunknown
p119
ssa(dp120
Vcomment
p121
g4
sVserverIPAddress
p122
V216.58.216.196
p123
sVpageref
p124
VCleveland Indians
p125
sVstartedDateTime
p126
V2017-04-16T08:25:00.433-05:00
p127
sVcache
p128
(dp129
sVrequest
p130
(dp131
Vcomment
p132
g4
sVcookies
p133
(lp134
sVurl
p135
Vhttps://www.google.com/gen_204?atyp=i&ct=slh&cad=&ei=UXDzWPr8N6qijwSRuYvwBA&s=3&v=2&pv=0.3333314943202711&me=21:1492349022727,e,H&zx=1492349100431
p136
sVqueryString
p137
(lp138
(dp139
Vname
p140
Vatyp
p141
sVvalue
p142
g30
sa(dp143
Vname
p144
Vct
p145
sVvalue
p146
Vslh
p147
sa(dp148
Vname
p149
Vcad
p150
sVvalue
p151
g4
sa(dp152
Vname
p153
Vei
p154
sVvalue
p155
VUXDzWPr8N6qijwSRuYvwBA
p156
sa(dp157
Vname
p158
g57
sVvalue
p159
V3
p160
sa(dp161
Vname
p162
g62
sVvalue
p163
g64
sa(dp164
Vname
p165
Vpv
p166
sVvalue
p167
V0.3333314943202711
p168
sa(dp169
Vname
p170
Vme
p171
sVvalue
p172
V21:1492349022727,e,H
p173
sa(dp174
Vname
p175
Vzx
p176
sVvalue
p177
V1492349100431
p178
sasVheaders
p179
(lp180
sVheadersSize
p181
I663
sVbodySize
p182
I0
sVmethod
p183
VGET
p184
sVhttpVersion
p185
VHTTP/1.1
p186
ssVtimings
p187
(dp188
Vcomment
p189
g4
sVreceive
p190
I0
sVsend
p191
I0
sVssl
p192
I-1
sVconnect
p193
I-1
sVdns
p194
I-1
sVwait
p195
I0
sVblocked
p196
I-1
ssVtime
p197
I0
sVresponse
p198
(dp199
Vstatus
p200
I0
sVcomment
p201
g4
sVcookies
p202
(lp203
sV_error
p204
VNo response received
p205
sVstatusText
p206
g4
sVcontent
p207
(dp208
VmimeType
p209
g4
sVcomment
p210
g4
sVsize
p211
I0
ssVheaders
p212
(lp213
sVheadersSize
p214
I-1
sVredirectURL
p215
g4
sVbodySize
p216
I-1
sVhttpVersion
p217
Vunknown
p218
ssa(dp219
Vcomment
p220
g4
sVserverIPAddress
p221
V216.58.216.196
p222
sVpageref
p223
VCleveland Indians
p224
sVstartedDateTime
p225
V2017-04-16T08:25:00.441-05:00
p226
sVcache
p227
(dp228
sVrequest
p229
(dp230
Vcomment
p231
g4
sVcookies
p232
(lp233
sVurl
p234
Vhttp://www.google.com/
p235
sVqueryString
p236
(lp237
sVheaders
p238
(lp239
sVheadersSize
p240
I613
sVbodySize
p241
I0
sVmethod
p242
VGET
p243
sVhttpVersion
p244
VHTTP/1.1
p245
ssVtimings
p246
(dp247
Vcomment
p248
g4
sVreceive
p249
I0
sVsend
p250
I0
sVssl
p251
I-1
sVconnect
p252
I-1
sVdns
p253
I-1
sVwait
p254
I52
sVblocked
p255
I-1
ssVtime
p256
I52
sVresponse
p257
(dp258
Vstatus
p259
I302
sVcomment
p260
g4
sVcookies
p261
(lp262
sVstatusText
p263
VFound
p264
sVcontent
p265
(dp266
VmimeType
p267
Vtext/html; charset=UTF-8
p268
sVcomment
p269
g4
sVsize
p270
I0
ssVheaders
p271
(lp272
sVheadersSize
p273
I609
sVredirectURL
p274
Vhttps://www.google.com/?gws_rd=ssl
p275
sVbodySize
p276
I231
sVhttpVersion
p277
VHTTP/1.1
p278
ssa(dp279
Vcomment
p280
g4
sVserverIPAddress
p281
V216.58.216.196
p282
sVpageref
p283
VCleveland Indians
p284
sVstartedDateTime
p285
V2017-04-16T08:25:00.498-05:00
p286
sVcache
p287
(dp288
sVrequest
p289
(dp290
Vcomment
p291
g4
sVcookies
p292
(lp293
sVurl
p294
Vhttps://www.google.com/?gws_rd=ssl
p295
sVqueryString
p296
(lp297
(dp298
Vname
p299
Vgws_rd
p300
sVvalue
p301
Vssl
p302
sasVheaders
p303
(lp304
sVheadersSize
p305
I607
sVbodySize
p306
I0
sVmethod
p307
VGET
p308
sVhttpVersion
p309
VHTTP/1.1
p310
ssVtimings
p311
(dp312
Vcomment
p313
g4
sVreceive
p314
I26
sVsend
p315
I0
sVssl
p316
I-1
sVconnect
p317
I-1
sVdns
p318
I-1
sVwait
p319
I78
sVblocked
p320
I-1
ssVtime
p321
I104
sVresponse
p322
(dp323
Vstatus
p324
I200
sVcomment
p325
g4
sVcookies
p326
(lp327
sVstatusText
p328
VOK
p329
sVcontent
p330
(dp331
VmimeType
p332
Vtext/html; charset=UTF-8
p333
sVcomment
p334
g4
sVsize
p335
I0
ssVheaders
p336
(lp337
sVheadersSize
p338
I721
sVredirectURL
p339
g4
sVbodySize
p340
I34292
sVhttpVersion
p341
VHTTP/1.1
p342
ssa(dp343
Vcomment
p344
g4
sVserverIPAddress
p345
V216.58.216.196
p346
sVpageref
p347
VCleveland Indians
p348
sVstartedDateTime
p349
V2017-04-16T08:25:00.810-05:00
p350
sVcache
p351
(dp352
sVrequest
p353
(dp354
Vcomment
p355
g4
sVcookies
p356
(lp357
sVurl
p358
Vhttps://www.google.com/gen_204?s=mobilewebhp&atyp=csi&ei=q3DzWJeeHqvJjwSTppG4AQ&imc=1&imn=1&imp=0&adh=&xjs=init.26.12.sb_mob.20.dvl.3.c.1.mbsf.1.async.1&ima=1&rt=xjsls.26,prt.27,iml.27,dcl.47,xjses.91,xjsee.179,xjs.180,ol.210,aft.27,wsrt.165,cst.0,dnst.0,rqst.105,rspt.26,rqstt.69,unt.67,cstt.67,dit.207
p359
sVqueryString
p360
(lp361
(dp362
Vname
p363
g57
sVvalue
p364
Vmobilewebhp
p365
sa(dp366
Vname
p367
Vatyp
p368
sVvalue
p369
Vcsi
p370
sa(dp371
Vname
p372
Vei
p373
sVvalue
p374
Vq3DzWJeeHqvJjwSTppG4AQ
p375
sa(dp376
Vname
p377
Vimc
p378
sVvalue
p379
g59
sa(dp380
Vname
p381
Vimn
p382
sVvalue
p383
g59
sa(dp384
Vname
p385
Vimp
p386
sVvalue
p387
V0
p388
sa(dp389
Vname
p390
Vadh
p391
sVvalue
p392
g4
sa(dp393
Vname
p394
Vxjs
p395
sVvalue
p396
Vinit.26.12.sb_mob.20.dvl.3.c.1.mbsf.1.async.1
p397
sa(dp398
Vname
p399
Vima
p400
sVvalue
p401
g59
sa(dp402
Vname
p403
Vrt
p404
sVvalue
p405
Vxjsls.26,prt.27,iml.27,dcl.47,xjses.91,xjsee.179,xjs.180,ol.210,aft.27,wsrt.165,cst.0,dnst.0,rqst.105,rspt.26,rqstt.69,unt.67,cstt.67,dit.207
p406
sasVheaders
p407
(lp408
sVheadersSize
p409
I831
sVbodySize
p410
I0
sVmethod
p411
VGET
p412
sVhttpVersion
p413
VHTTP/1.1
p414
ssVtimings
p415
(dp416
Vcomment
p417
g4
sVreceive
p418
I0
sVsend
p419
I0
sVssl
p420
I-1
sVconnect
p421
I-1
sVdns
p422
I-1
sVwait
p423
I37
sVblocked
p424
I-1
ssVtime
p425
I38
sVresponse
p426
(dp427
Vstatus
p428
I204
sVcomment
p429
g4
sVcookies
p430
(lp431
sVstatusText
p432
VNo Content
p433
sVcontent
p434
(dp435
VmimeType
p436
Vtext/html; charset=UTF-8
p437
sVcomment
p438
g4
sVsize
p439
I0
ssVheaders
p440
(lp441
sVheadersSize
p442
I248
sVredirectURL
p443
g4
sVbodySize
p444
I0
sVhttpVersion
p445
VHTTP/1.1
p446
ssa(dp447
Vcomment
p448
g4
sVserverIPAddress
p449
V216.58.216.196
p450
sVpageref
p451
VCleveland Indians
p452
sVstartedDateTime
p453
V2017-04-16T08:25:00.949-05:00
p454
sVcache
p455
(dp456
sVrequest
p457
(dp458
Vcomment
p459
g4
sVcookies
p460
(lp461
sVurl
p462
Vhttps://www.google.com/complete/search?client=mobile-gws-hp&hl=en&gs_rn=64&gs_ri=mobile-gws-hp&sla=1&pfq=chicago%20cubs&gm=602&cp=0&gs_id=1&xhr=t&q=C&tch=1&ech=1&psi=q3DzWJeeHqvJjwSTppG4AQ.1492349100747.1
p463
sVqueryString
p464
(lp465
(dp466
Vname
p467
Vclient
p468
sVvalue
p469
Vmobile-gws-hp
p470
sa(dp471
Vname
p472
Vhl
p473
sVvalue
p474
Ven
p475
sa(dp476
Vname
p477
Vgs_rn
p478
sVvalue
p479
V64
p480
sa(dp481
Vname
p482
Vgs_ri
p483
sVvalue
p484
Vmobile-gws-hp
p485
sa(dp486
Vname
p487
Vsla
p488
sVvalue
p489
g59
sa(dp490
Vname
p491
Vpfq
p492
sVvalue
p493
Vchicago cubs
p494
sa(dp495
Vname
p496
Vgm
p497
sVvalue
p498
V602
p499
sa(dp500
Vname
p501
Vcp
p502
sVvalue
p503
g388
sa(dp504
Vname
p505
Vgs_id
p506
sVvalue
p507
g59
sa(dp508
Vname
p509
Vxhr
p510
sVvalue
p511
g52
sa(dp512
Vname
p513
Vq
p514
sVvalue
p515
g54
sa(dp516
Vname
p517
Vtch
p518
sVvalue
p519
g59
sa(dp520
Vname
p521
Vech
p522
sVvalue
p523
g59
sa(dp524
Vname
p525
Vpsi
p526
sVvalue
p527
Vq3DzWJeeHqvJjwSTppG4AQ.1492349100747.1
p528
sasVheaders
p529
(lp530
sVheadersSize
p531
I732
sVbodySize
p532
I0
sVmethod
p533
VGET
p534
sVhttpVersion
p535
VHTTP/1.1
p536
ssVtimings
p537
(dp538
Vcomment
p539
g4
sVreceive
p540
I0
sVsend
p541
I0
sVssl
p542
I-1
sVconnect
p543
I-1
sVdns
p544
I-1
sVwait
p545
I0
sVblocked
p546
I-1
ssVtime
p547
I0
sVresponse
p548
(dp549
Vstatus
p550
I0
sVcomment
p551
g4
sVcookies
p552
(lp553
sV_error
p554
VNo response received
p555
sVstatusText
p556
g4
sVcontent
p557
(dp558
VmimeType
p559
g4
sVcomment
p560
g4
sVsize
p561
I0
ssVheaders
p562
(lp563
sVheadersSize
p564
I-1
sVredirectURL
p565
g4
sVbodySize
p566
I-1
sVhttpVersion
p567
Vunknown
p568
ssa(dp569
Vcomment
p570
g4
sVserverIPAddress
p571
V216.58.216.196
p572
sVpageref
p573
VCleveland Indians
p574
sVstartedDateTime
p575
V2017-04-16T08:25:01.132-05:00
p576
sVcache
p577
(dp578
sVrequest
p579
(dp580
Vcomment
p581
g4
sVcookies
p582
(lp583
sVurl
p584
Vhttps://www.google.com/search?site=&source=hp&ei=q3DzWJeeHqvJjwSTppG4AQ&q=Cleveland+Indians&oq=Cleveland+Indians&gs_l=mobile-gws-hp.3...178.256.0.298.17.1.0.0.0.0.0.0..0.0....0...1c.1.64.mobile-gws-hp..17.0.0.fqK-6VqvNv0
p585
sVqueryString
p586
(lp587
(dp588
Vname
p589
Vsite
p590
sVvalue
p591
g4
sa(dp592
Vname
p593
Vsource
p594
sVvalue
p595
Vhp
p596
sa(dp597
Vname
p598
Vei
p599
sVvalue
p600
Vq3DzWJeeHqvJjwSTppG4AQ
p601
sa(dp602
Vname
p603
g514
sVvalue
p604
VCleveland Indians
p605
sa(dp606
Vname
p607
Voq
p608
sVvalue
p609
VCleveland Indians
p610
sa(dp611
Vname
p612
Vgs_l
p613
sVvalue
p614
Vmobile-gws-hp.3...178.256.0.298.17.1.0.0.0.0.0.0..0.0....0...1c.1.64.mobile-gws-hp..17.0.0.fqK-6VqvNv0
p615
sasVheaders
p616
(lp617
sVheadersSize
p618
I838
sVbodySize
p619
I0
sVmethod
p620
VGET
p621
sVhttpVersion
p622
VHTTP/1.1
p623
ssVtimings
p624
(dp625
Vcomment
p626
g4
sVreceive
p627
I945
sVsend
p628
I0
sVssl
p629
I39
sVconnect
p630
I54
sVdns
p631
I2
sVwait
p632
I95
sVblocked
p633
I0
ssVtime
p634
I1097
sVresponse
p635
(dp636
Vstatus
p637
I200
sVcomment
p638
g4
sVcookies
p639
(lp640
sVstatusText
p641
VOK
p642
sVcontent
p643
(dp644
VmimeType
p645
Vtext/html; charset=UTF-8
p646
sVcomment
p647
g4
sVsize
p648
I0
ssVheaders
p649
(lp650
sVheadersSize
p651
I363
sVredirectURL
p652
g4
sVbodySize
p653
I294560
sVhttpVersion
p654
VHTTP/1.1
p655
ssa(dp656
Vcomment
p657
g4
sVserverIPAddress
p658
V172.217.0.3
p659
sVpageref
p660
VCleveland Indians
p661
sVstartedDateTime
p662
V2017-04-16T08:25:02.085-05:00
p663
sVcache
p664
(dp665
sVrequest
p666
(dp667
Vcomment
p668
g4
sVcookies
p669
(lp670
sVurl
p671
Vhttps://ssl.gstatic.com/onebox/media/sports/logos/RRcIM7GMCdTUDZP3uXJl9g_48x48.png
p672
sVqueryString
p673
(lp674
sVheaders
p675
(lp676
sVheadersSize
p677
I397
sVbodySize
p678
I0
sVmethod
p679
VGET
p680
sVhttpVersion
p681
VHTTP/1.1
p682
ssVtimings
p683
(dp684
Vcomment
p685
g4
sVreceive
p686
I0
sVsend
p687
I0
sVssl
p688
I-1
sVconnect
p689
I-1
sVdns
p690
I-1
sVwait
p691
I24
sVblocked
p692
I-1
ssVtime
p693
I24
sVresponse
p694
(dp695
Vstatus
p696
I200
sVcomment
p697
g4
sVcookies
p698
(lp699
sVstatusText
p700
VOK
p701
sVcontent
p702
(dp703
VmimeType
p704
Vimage/png
p705
sVcomment
p706
g4
sVsize
p707
I0
ssVheaders
p708
(lp709
sVheadersSize
p710
I421
sVredirectURL
p711
g4
sVbodySize
p712
I950
sVhttpVersion
p713
VHTTP/1.1
p714
ssa(dp715
Vcomment
p716
g4
sVserverIPAddress
p717
V172.217.0.3
p718
sVpageref
p719
VCleveland Indians
p720
sVstartedDateTime
p721
V2017-04-16T08:25:02.085-05:00
p722
sVcache
p723
(dp724
sVrequest
p725
(dp726
Vcomment
p727
g4
sVcookies
p728
(lp729
sVurl
p730
Vhttps://ssl.gstatic.com/onebox/media/sports/logos/7rDj2EZVlcouQNkRgcxCmw_96x96.png
p731
sVqueryString
p732
(lp733
sVheaders
p734
(lp735
sVheadersSize
p736
I397
sVbodySize
p737
I0
sVmethod
p738
VGET
p739
sVhttpVersion
p740
VHTTP/1.1
p741
ssVtimings
p742
(dp743
Vcomment
p744
g4
sVreceive
p745
I2
sVsend
p746
I0
sVssl
p747
I-1
sVconnect
p748
I-1
sVdns
p749
I-1
sVwait
p750
I21
sVblocked
p751
I-1
ssVtime
p752
I23
sVresponse
p753
(dp754
Vstatus
p755
I200
sVcomment
p756
g4
sVcookies
p757
(lp758
sVstatusText
p759
VOK
p760
sVcontent
p761
(dp762
VmimeType
p763
Vimage/png
p764
sVcomment
p765
g4
sVsize
p766
I0
ssVheaders
p767
(lp768
sVheadersSize
p769
I424
sVredirectURL
p770
g4
sVbodySize
p771
I5586
sVhttpVersion
p772
VHTTP/1.1
p773
ssa(dp774
Vcomment
p775
g4
sVserverIPAddress
p776
V172.217.0.3
p777
sVpageref
p778
VCleveland Indians
p779
sVstartedDateTime
p780
V2017-04-16T08:25:02.085-05:00
p781
sVcache
p782
(dp783
sVrequest
p784
(dp785
Vcomment
p786
g4
sVcookies
p787
(lp788
sVurl
p789
Vhttps://ssl.gstatic.com/onebox/media/sports/logos/RRcIM7GMCdTUDZP3uXJl9g_96x96.png
p790
sVqueryString
p791
(lp792
sVheaders
p793
(lp794
sVheadersSize
p795
I397
sVbodySize
p796
I0
sVmethod
p797
VGET
p798
sVhttpVersion
p799
VHTTP/1.1
p800
ssVtimings
p801
(dp802
Vcomment
p803
g4
sVreceive
p804
I0
sVsend
p805
I0
sVssl
p806
I-1
sVconnect
p807
I-1
sVdns
p808
I-1
sVwait
p809
I19
sVblocked
p810
I-1
ssVtime
p811
I19
sVresponse
p812
(dp813
Vstatus
p814
I200
sVcomment
p815
g4
sVcookies
p816
(lp817
sVstatusText
p818
VOK
p819
sVcontent
p820
(dp821
VmimeType
p822
Vimage/png
p823
sVcomment
p824
g4
sVsize
p825
I0
ssVheaders
p826
(lp827
sVheadersSize
p828
I424
sVredirectURL
p829
g4
sVbodySize
p830
I1376
sVhttpVersion
p831
VHTTP/1.1
p832
ssa(dp833
Vcomment
p834
g4
sVserverIPAddress
p835
V172.217.0.3
p836
sVpageref
p837
VCleveland Indians
p838
sVstartedDateTime
p839
V2017-04-16T08:25:02.086-05:00
p840
sVcache
p841
(dp842
sVrequest
p843
(dp844
Vcomment
p845
g4
sVcookies
p846
(lp847
sVurl
p848
Vhttps://ssl.gstatic.com/onebox/media/sports/logos/gBAstfK9v7682fKmomWeMA_48x48.png
p849
sVqueryString
p850
(lp851
sVheaders
p852
(lp853
sVheadersSize
p854
I397
sVbodySize
p855
I0
sVmethod
p856
VGET
p857
sVhttpVersion
p858
VHTTP/1.1
p859
ssVtimings
p860
(dp861
Vcomment
p862
g4
sVreceive
p863
I2
sVsend
p864
I0
sVssl
p865
I-1
sVconnect
p866
I-1
sVdns
p867
I-1
sVwait
p868
I20
sVblocked
p869
I-1
ssVtime
p870
I23
sVresponse
p871
(dp872
Vstatus
p873
I200
sVcomment
p874
g4
sVcookies
p875
(lp876
sVstatusText
p877
VOK
p878
sVcontent
p879
(dp880
VmimeType
p881
Vimage/png
p882
sVcomment
p883
g4
sVsize
p884
I0
ssVheaders
p885
(lp886
sVheadersSize
p887
I424
sVredirectURL
p888
g4
sVbodySize
p889
I5017
sVhttpVersion
p890
VHTTP/1.1
p891
ssa(dp892
Vcomment
p893
g4
sVserverIPAddress
p894
V216.58.216.196
p895
sVpageref
p896
VCleveland Indians
p897
sVstartedDateTime
p898
V2017-04-16T08:25:02.787-05:00
p899
sVcache
p900
(dp901
sVrequest
p902
(dp903
Vcomment
p904
g4
sVcookies
p905
(lp906
sVurl
p907
Vhttps://www.google.com/xjs/_/js/k=xjs.qs.en_US.pCBXVCvTH3s.O/m=syl,syj,syn,em3,em8,em6,em7,sym,aa,abd,sy2g,sy2k,sy29,sy2j,sy2d,sy2a,sy2c,sy2f,sy2l,sy2m,sy2n,emd,async,sybn,sybi,sybo,sy1f,sy45,sy46,sy9w,sybk,sybj,sybp,sy1g,sy30,sy47,sybm,sybl,sybq,sy1h,sybh,dvl,syep,foot,ipv6,sy5g,sy5j,sy5h,sy6u,sy7d,sy7j,sy2x,sy5i,sy89,sy7e,sy23,sy2y,sy5k,sy6c,sy91,sy9b,sy9l,syhi,syhj,syhk,syhl,lr,lrli,sy32,emj,shm,sykh,tl,sy2t,sy38,em12,vs,sy66,sy67,sy4u,sy69,sykk,sykl,tnv,bct,sy48,sy3a,sy3c,sy5b,sy4x,sy4z,sy56,sy1y,sy31,sy4y,sy22,sy6i,sy4h,sy6h,sy6o,sya3,sy5d,sy25,sy6j,sy6k,sy6r,sya2,sy5e,sy6n,emb,em9,ema,sy24,sy2o,sy4c,sy65,sy6p,sy6s,sy6w,sy72,sya4,syd7,syel,syho,syhs,syhu,syhv,sio,sy6y,sycu,d3l,sy5x,qif,tabs,sy9m,syac,sy4g,sy9n,syhz,syl6,ssc,sy26,sykr,strm,syh6,syl5,kac,kae,strx,sy2u,sy34,sy6l,sy6m,qkx,sy4d,sy4f,sy4e,sy4b,shrb,dgm,syf5,syf6,syf8,sygb,syg9,kptm,sy99,syf4,syfc,syfn,syf7,syff,sy1i,sy68,sy8d,syfl,syfr,syfq,syfg,sy1j,sy4q,sy5o,sy5r,sy8h,syc7,syc8,syfb,syfj,syfs,syft,syg3,syg5,syg7,emn,emo,syg4,syg6,ivg,iuci,img,sy41,tcc,sy1r,sy8g,syer,sy9u,syex,syey,syet,syeu,syew,syez,syf0,hlr,sy4i,syes,hlmi,twt,syj7,syj8,syj2,syjc,syj6,syj3,syjg,syjh,syje,syjd,syjk,syji,syjf,syj0,emr,ems,emt,emu,emv,emx,emy,emz,em10,em11,udlg,sy5z,atn,sya1,ampfp/am=gCP4LtMEBXQA2RUaq_oFBISzAFA/rt=j/d=0/t=zcms/rs=ACT90oFwm4NZCwIcuuiqmthdlECdBzkhRA
p908
sVqueryString
p909
(lp910
sVheaders
p911
(lp912
sVheadersSize
p913
I1851
sVbodySize
p914
I0
sVmethod
p915
VGET
p916
sVhttpVersion
p917
VHTTP/1.1
p918
ssVtimings
p919
(dp920
Vcomment
p921
g4
sVreceive
p922
I70
sVsend
p923
I0
sVssl
p924
I-1
sVconnect
p925
I-1
sVdns
p926
I-1
sVwait
p927
I44
sVblocked
p928
I-1
ssVtime
p929
I115
sVresponse
p930
(dp931
Vstatus
p932
I200
sVcomment
p933
g4
sVcookies
p934
(lp935
sVstatusText
p936
VOK
p937
sVcontent
p938
(dp939
VmimeType
p940
Vtext/javascript; charset=UTF-8
p941
sVcomment
p942
g4
sVsize
p943
I0
ssVheaders
p944
(lp945
sVheadersSize
p946
I464
sVredirectURL
p947
g4
sVbodySize
p948
I230246
sVhttpVersion
p949
VHTTP/1.1
p950
ssa(dp951
Vcomment
p952
g4
sVserverIPAddress
p953
V216.58.216.196
p954
sVpageref
p955
VCleveland Indians
p956
sVstartedDateTime
p957
V2017-04-16T08:25:03.695-05:00
p958
sVcache
p959
(dp960
sVrequest
p961
(dp962
Vcomment
p963
g4
sVcookies
p964
(lp965
sVurl
p966
Vhttps://www.google.com/async/irc?vet=10ahUKEwjD7_nPianTAhWh3YMKHW51CeUQo0EIpgM..i&ved=0ahUKEwjD7_nPianTAhWh3YMKHW51CeUQo0EIpgM&ei=rHDzWMPpB6G7jwTu6qWoDg&yv=2&async=iu:1,ved:0ahUKEwjD7_nPianTAhWh3YMKHW51CeUQo0EIpgM,_id:irc_async,_pms:qs
p967
sVqueryString
p968
(lp969
(dp970
Vname
p971
Vvet
p972
sVvalue
p973
V10ahUKEwjD7_nPianTAhWh3YMKHW51CeUQo0EIpgM..i
p974
sa(dp975
Vname
p976
Vved
p977
sVvalue
p978
V0ahUKEwjD7_nPianTAhWh3YMKHW51CeUQo0EIpgM
p979
sa(dp980
Vname
p981
Vei
p982
sVvalue
p983
VrHDzWMPpB6G7jwTu6qWoDg
p984
sa(dp985
Vname
p986
Vyv
p987
sVvalue
p988
g64
sa(dp989
Vname
p990
Vasync
p991
sVvalue
p992
Viu:1,ved:0ahUKEwjD7_nPianTAhWh3YMKHW51CeUQo0EIpgM,_id:irc_async,_pms:qs
p993
sasVheaders
p994
(lp995
sVheadersSize
p996
I752
sVbodySize
p997
I0
sVmethod
p998
VGET
p999
sVhttpVersion
p1000
VHTTP/1.1
p1001
ssVtimings
p1002
(dp1003
Vcomment
p1004
g4
sVreceive
p1005
I3
sVsend
p1006
I0
sVssl
p1007
I-1
sVconnect
p1008
I-1
sVdns
p1009
I-1
sVwait
p1010
I40
sVblocked
p1011
I-1
ssVtime
p1012
I44
sVresponse
p1013
(dp1014
Vstatus
p1015
I200
sVcomment
p1016
g4
sVcookies
p1017
(lp1018
sVstatusText
p1019
VOK
p1020
sVcontent
p1021
(dp1022
VmimeType
p1023
Vtext/html; charset=UTF-8
p1024
sVcomment
p1025
g4
sVsize
p1026
I0
ssVheaders
p1027
(lp1028
sVheadersSize
p1029
I383
sVredirectURL
p1030
g4
sVbodySize
p1031
I7792
sVhttpVersion
p1032
VHTTP/1.1
p1033
ssa(dp1034
Vcomment
p1035
g4
sVserverIPAddress
p1036
V216.58.216.196
p1037
sVpageref
p1038
VCleveland Indians
p1039
sVstartedDateTime
p1040
V2017-04-16T08:25:03.819-05:00
p1041
sVcache
p1042
(dp1043
sVrequest
p1044
(dp1045
Vcomment
p1046
g4
sVcookies
p1047
(lp1048
sVurl
p1049
Vhttps://www.google.com/async/ampfp?vet=10ahUKEwjD7_nPianTAhWh3YMKHW51CeUQtZoBCKQD..i&ei=rHDzWMPpB6G7jwTu6qWoDg&yv=2&async=_id:ampfp-async,_pms:qs
p1050
sVqueryString
p1051
(lp1052
(dp1053
Vname
p1054
Vvet
p1055
sVvalue
p1056
V10ahUKEwjD7_nPianTAhWh3YMKHW51CeUQtZoBCKQD..i
p1057
sa(dp1058
Vname
p1059
Vei
p1060
sVvalue
p1061
VrHDzWMPpB6G7jwTu6qWoDg
p1062
sa(dp1063
Vname
p1064
Vyv
p1065
sVvalue
p1066
g64
sa(dp1067
Vname
p1068
Vasync
p1069
sVvalue
p1070
V_id:ampfp-async,_pms:qs
p1071
sasVheaders
p1072
(lp1073
sVheadersSize
p1074
I662
sVbodySize
p1075
I0
sVmethod
p1076
VGET
p1077
sVhttpVersion
p1078
VHTTP/1.1
p1079
ssVtimings
p1080
(dp1081
Vcomment
p1082
g4
sVreceive
p1083
I0
sVsend
p1084
I0
sVssl
p1085
I-1
sVconnect
p1086
I-1
sVdns
p1087
I-1
sVwait
p1088
I35
sVblocked
p1089
I-1
ssVtime
p1090
I35
sVresponse
p1091
(dp1092
Vstatus
p1093
I200
sVcomment
p1094
g4
sVcookies
p1095
(lp1096
sVstatusText
p1097
VOK
p1098
sVcontent
p1099
(dp1100
VmimeType
p1101
Vtext/html; charset=UTF-8
p1102
sVcomment
p1103
g4
sVsize
p1104
I0
ssVheaders
p1105
(lp1106
sVheadersSize
p1107
I383
sVredirectURL
p1108
g4
sVbodySize
p1109
I4527
sVhttpVersion
p1110
VHTTP/1.1
p1111
ssa(dp1112
Vcomment
p1113
g4
sVserverIPAddress
p1114
V216.58.216.193
p1115
sVpageref
p1116
VCleveland Indians
p1117
sVstartedDateTime
p1118
V2017-04-16T08:25:03.820-05:00
p1119
sVcache
p1120
(dp1121
sVrequest
p1122
(dp1123
Vcomment
p1124
g4
sVcookies
p1125
(lp1126
sVurl
p1127
Vhttps://cdn.ampproject.org/preconnect.gif?0.6568418597313032
p1128
sVqueryString
p1129
(lp1130
(dp1131
Vname
p1132
V0.6568418597313032
p1133
sVvalue
p1134
g4
sasVheaders
p1135
(lp1136
sVheadersSize
p1137
I375
sVbodySize
p1138
I0
sVmethod
p1139
VGET
p1140
sVhttpVersion
p1141
VHTTP/1.1
p1142
ssVtimings
p1143
(dp1144
Vcomment
p1145
g4
sVreceive
p1146
I0
sVsend
p1147
I0
sVssl
p1148
I-1
sVconnect
p1149
I-1
sVdns
p1150
I-1
sVwait
p1151
I29
sVblocked
p1152
I-1
ssVtime
p1153
I29
sVresponse
p1154
(dp1155
Vstatus
p1156
I200
sVcomment
p1157
g4
sVcookies
p1158
(lp1159
sVstatusText
p1160
VOK
p1161
sVcontent
p1162
(dp1163
VmimeType
p1164
Vimage/gif
p1165
sVcomment
p1166
g4
sVsize
p1167
I0
ssVheaders
p1168
(lp1169
sVheadersSize
p1170
I826
sVredirectURL
p1171
g4
sVbodySize
p1172
I37
sVhttpVersion
p1173
VHTTP/1.1
p1174
ssa(dp1175
Vcomment
p1176
g4
sVserverIPAddress
p1177
V172.217.0.1
p1178
sVpageref
p1179
VCleveland Indians
p1180
sVstartedDateTime
p1181
V2017-04-16T08:25:03.835-05:00
p1182
sVcache
p1183
(dp1184
sVrequest
p1185
(dp1186
Vcomment
p1187
g4
sVcookies
p1188
(lp1189
sVurl
p1190
Vhttps://lh3.googleusercontent.com/KvP21J6AdxjD1jTEQA6Wyvr3b2qwzc6jU-JnzCDVbhYqCI13_JrEvoE1WXPMGpqfh8Lq_UGELNqVBtaJBJInc2Q_=w232-h131-p-k-no
p1191
sVqueryString
p1192
(lp1193
sVheaders
p1194
(lp1195
sVheadersSize
p1196
I454
sVbodySize
p1197
I0
sVmethod
p1198
VGET
p1199
sVhttpVersion
p1200
VHTTP/1.1
p1201
ssVtimings
p1202
(dp1203
Vcomment
p1204
g4
sVreceive
p1205
I1
sVsend
p1206
I0
sVssl
p1207
I-1
sVconnect
p1208
I-1
sVdns
p1209
I-1
sVwait
p1210
I41
sVblocked
p1211
I-1
ssVtime
p1212
I42
sVresponse
p1213
(dp1214
Vstatus
p1215
I200
sVcomment
p1216
g4
sVcookies
p1217
(lp1218
sVstatusText
p1219
VOK
p1220
sVcontent
p1221
(dp1222
VmimeType
p1223
Vimage/jpeg
p1224
sVcomment
p1225
g4
sVsize
p1226
I0
ssVheaders
p1227
(lp1228
sVheadersSize
p1229
I495
sVredirectURL
p1230
g4
sVbodySize
p1231
I17249
sVhttpVersion
p1232
VHTTP/1.1
p1233
ssa(dp1234
Vcomment
p1235
g4
sVserverIPAddress
p1236
V172.217.0.1
p1237
sVpageref
p1238
VCleveland Indians
p1239
sVstartedDateTime
p1240
V2017-04-16T08:25:03.844-05:00
p1241
sVcache
p1242
(dp1243
sVrequest
p1244
(dp1245
Vcomment
p1246
g4
sVcookies
p1247
(lp1248
sVurl
p1249
Vhttps://lh3.googleusercontent.com/2ORm9J08QTIr-1Ope8sOs5esFqXiJRpdxk67aXw39R49U5kaH4o9vej-i4-jVUEp3XSyISYqn0vCucKmb7yB0DM=w232-h131-p-k-no
p1250
sVqueryString
p1251
(lp1252
sVheaders
p1253
(lp1254
sVheadersSize
p1255
I453
sVbodySize
p1256
I0
sVmethod
p1257
VGET
p1258
sVhttpVersion
p1259
VHTTP/1.1
p1260
ssVtimings
p1261
(dp1262
Vcomment
p1263
g4
sVreceive
p1264
I0
sVsend
p1265
I0
sVssl
p1266
I-1
sVconnect
p1267
I-1
sVdns
p1268
I-1
sVwait
p1269
I32
sVblocked
p1270
I-1
ssVtime
p1271
I33
sVresponse
p1272
(dp1273
Vstatus
p1274
I200
sVcomment
p1275
g4
sVcookies
p1276
(lp1277
sVstatusText
p1278
VOK
p1279
sVcontent
p1280
(dp1281
VmimeType
p1282
Vimage/jpeg
p1283
sVcomment
p1284
g4
sVsize
p1285
I0
ssVheaders
p1286
(lp1287
sVheadersSize
p1288
I494
sVredirectURL
p1289
g4
sVbodySize
p1290
I9368
sVhttpVersion
p1291
VHTTP/1.1
p1292
ssa(dp1293
Vcomment
p1294
g4
sVserverIPAddress
p1295
V172.217.0.14
p1296
sVpageref
p1297
VCleveland Indians
p1298
sVstartedDateTime
p1299
V2017-04-16T08:25:03.854-05:00
p1300
sVcache
p1301
(dp1302
sVrequest
p1303
(dp1304
Vcomment
p1305
g4
sVcookies
p1306
(lp1307
sVurl
p1308
Vhttps://encrypted-tbn3.gstatic.com/images?q=tbn:ANd9GcSDvU8I5fg9gOaCnIuJ2C-N_gVZ49SxkdZqs5If2ahIJQoiMPDAesXQ5EFZ
p1309
sVqueryString
p1310
(lp1311
(dp1312
Vname
p1313
g514
sVvalue
p1314
Vtbn:ANd9GcSDvU8I5fg9gOaCnIuJ2C-N_gVZ49SxkdZqs5If2ahIJQoiMPDAesXQ5EFZ
p1315
sasVheaders
p1316
(lp1317
sVheadersSize
p1318
I427
sVbodySize
p1319
I0
sVmethod
p1320
VGET
p1321
sVhttpVersion
p1322
VHTTP/1.1
p1323
ssVtimings
p1324
(dp1325
Vcomment
p1326
g4
sVreceive
p1327
I3
sVsend
p1328
I0
sVssl
p1329
I-1
sVconnect
p1330
I-1
sVdns
p1331
I-1
sVwait
p1332
I24
sVblocked
p1333
I-1
ssVtime
p1334
I28
sVresponse
p1335
(dp1336
Vstatus
p1337
I200
sVcomment
p1338
g4
sVcookies
p1339
(lp1340
sVstatusText
p1341
VOK
p1342
sVcontent
p1343
(dp1344
VmimeType
p1345
Vimage/png
p1346
sVcomment
p1347
g4
sVsize
p1348
I0
ssVheaders
p1349
(lp1350
sVheadersSize
p1351
I427
sVredirectURL
p1352
g4
sVbodySize
p1353
I3278
sVhttpVersion
p1354
VHTTP/1.1
p1355
ssa(dp1356
Vcomment
p1357
g4
sVserverIPAddress
p1358
V216.58.216.206
p1359
sVpageref
p1360
VCleveland Indians
p1361
sVstartedDateTime
p1362
V2017-04-16T08:25:03.855-05:00
p1363
sVcache
p1364
(dp1365
sVrequest
p1366
(dp1367
Vcomment
p1368
g4
sVcookies
p1369
(lp1370
sVurl
p1371
Vhttps://encrypted-tbn0.gstatic.com/images?q=tbn:ANd9GcS62z7RqU13NeaG67vLertS0iQoqvfISTEr282umi-begEZQjh-X_Fj4-vc
p1372
sVqueryString
p1373
(lp1374
(dp1375
Vname
p1376
g514
sVvalue
p1377
Vtbn:ANd9GcS62z7RqU13NeaG67vLertS0iQoqvfISTEr282umi-begEZQjh-X_Fj4-vc
p1378
sasVheaders
p1379
(lp1380
sVheadersSize
p1381
I427
sVbodySize
p1382
I0
sVmethod
p1383
VGET
p1384
sVhttpVersion
p1385
VHTTP/1.1
p1386
ssVtimings
p1387
(dp1388
Vcomment
p1389
g4
sVreceive
p1390
I7
sVsend
p1391
I0
sVssl
p1392
I-1
sVconnect
p1393
I-1
sVdns
p1394
I-1
sVwait
p1395
I28
sVblocked
p1396
I-1
ssVtime
p1397
I35
sVresponse
p1398
(dp1399
Vstatus
p1400
I200
sVcomment
p1401
g4
sVcookies
p1402
(lp1403
sVstatusText
p1404
VOK
p1405
sVcontent
p1406
(dp1407
VmimeType
p1408
Vimage/jpeg
p1409
sVcomment
p1410
g4
sVsize
p1411
I0
ssVheaders
p1412
(lp1413
sVheadersSize
p1414
I429
sVredirectURL
p1415
g4
sVbodySize
p1416
I11605
sVhttpVersion
p1417
VHTTP/1.1
p1418
ssa(dp1419
Vcomment
p1420
g4
sVserverIPAddress
p1421
V172.217.0.14
p1422
sVpageref
p1423
VCleveland Indians
p1424
sVstartedDateTime
p1425
V2017-04-16T08:25:03.855-05:00
p1426
sVcache
p1427
(dp1428
sVrequest
p1429
(dp1430
Vcomment
p1431
g4
sVcookies
p1432
(lp1433
sVurl
p1434
Vhttps://encrypted-tbn1.gstatic.com/images?q=tbn:ANd9GcRgopelr1iHWVQK4CTrt3Uzdy_mn-RqilgQe8J2xQhy_IsSD3KRjWtDTwCy
p1435
sVqueryString
p1436
(lp1437
(dp1438
Vname
p1439
g514
sVvalue
p1440
Vtbn:ANd9GcRgopelr1iHWVQK4CTrt3Uzdy_mn-RqilgQe8J2xQhy_IsSD3KRjWtDTwCy
p1441
sasVheaders
p1442
(lp1443
sVheadersSize
p1444
I427
sVbodySize
p1445
I0
sVmethod
p1446
VGET
p1447
sVhttpVersion
p1448
VHTTP/1.1
p1449
ssVtimings
p1450
(dp1451
Vcomment
p1452
g4
sVreceive
p1453
I3
sVsend
p1454
I0
sVssl
p1455
I-1
sVconnect
p1456
I-1
sVdns
p1457
I-1
sVwait
p1458
I35
sVblocked
p1459
I-1
ssVtime
p1460
I39
sVresponse
p1461
(dp1462
Vstatus
p1463
I200
sVcomment
p1464
g4
sVcookies
p1465
(lp1466
sVstatusText
p1467
VOK
p1468
sVcontent
p1469
(dp1470
VmimeType
p1471
Vimage/png
p1472
sVcomment
p1473
g4
sVsize
p1474
I0
ssVheaders
p1475
(lp1476
sVheadersSize
p1477
I426
sVredirectURL
p1478
g4
sVbodySize
p1479
I4687
sVhttpVersion
p1480
VHTTP/1.1
p1481
ssa(dp1482
Vcomment
p1483
g4
sVserverIPAddress
p1484
V216.58.216.196
p1485
sVpageref
p1486
VCleveland Indians
p1487
sVstartedDateTime
p1488
V2017-04-16T08:25:04.192-05:00
p1489
sVcache
p1490
(dp1491
sVrequest
p1492
(dp1493
Vcomment
p1494
g4
sVcookies
p1495
(lp1496
sVurl
p1497
Vhttps://www.google.com/async/log_amp_item_set?vet=10ahUKEwjX7J3RianTAhVr6oMKHV-MBo4QooQBCAE..i&ei=rHDzWMPpB6G7jwTu6qWoDg&yv=2&async=num_items:10,_fmt:jspb
p1498
sVqueryString
p1499
(lp1500
(dp1501
Vname
p1502
Vvet
p1503
sVvalue
p1504
V10ahUKEwjX7J3RianTAhVr6oMKHV-MBo4QooQBCAE..i
p1505
sa(dp1506
Vname
p1507
Vei
p1508
sVvalue
p1509
VrHDzWMPpB6G7jwTu6qWoDg
p1510
sa(dp1511
Vname
p1512
Vyv
p1513
sVvalue
p1514
g64
sa(dp1515
Vname
p1516
Vasync
p1517
sVvalue
p1518
Vnum_items:10,_fmt:jspb
p1519
sasVheaders
p1520
(lp1521
sVheadersSize
p1522
I671
sVbodySize
p1523
I0
sVmethod
p1524
VGET
p1525
sVhttpVersion
p1526
VHTTP/1.1
p1527
ssVtimings
p1528
(dp1529
Vcomment
p1530
g4
sVreceive
p1531
I0
sVsend
p1532
I0
sVssl
p1533
I-1
sVconnect
p1534
I-1
sVdns
p1535
I-1
sVwait
p1536
I50
sVblocked
p1537
I-1
ssVtime
p1538
I50
sVresponse
p1539
(dp1540
Vstatus
p1541
I200
sVcomment
p1542
g4
sVcookies
p1543
(lp1544
sVstatusText
p1545
VOK
p1546
sVcontent
p1547
(dp1548
VmimeType
p1549
Vapplication/json; charset=UTF-8
p1550
sVcomment
p1551
g4
sVsize
p1552
I0
ssVheaders
p1553
(lp1554
sVheadersSize
p1555
I417
sVredirectURL
p1556
g4
sVbodySize
p1557
I184
sVhttpVersion
p1558
VHTTP/1.1
p1559
ssa(dp1560
Vcomment
p1561
g4
sVserverIPAddress
p1562
V172.217.0.1
p1563
sVpageref
p1564
VCleveland Indians
p1565
sVstartedDateTime
p1566
V2017-04-16T08:25:05.167-05:00
p1567
sVcache
p1568
(dp1569
sVrequest
p1570
(dp1571
Vcomment
p1572
g4
sVcookies
p1573
(lp1574
sVurl
p1575
Vhttps://amp-cleveland-com.cdn.ampproject.org/v/amp.cleveland.com/v1/articles/20482393/mlb_commissioner_rob_manfred_t.amp?amp_js_v=9
p1576
sVqueryString
p1577
(lp1578
(dp1579
Vname
p1580
Vamp_js_v
p1581
sVvalue
p1582
V9
p1583
sasVheaders
p1584
(lp1585
sVheadersSize
p1586
I536
sVbodySize
p1587
I0
sVmethod
p1588
VGET
p1589
sVhttpVersion
p1590
VHTTP/1.1
p1591
ssVtimings
p1592
(dp1593
Vcomment
p1594
g4
sVreceive
p1595
I10
sVsend
p1596
I0
sVssl
p1597
I910
sVconnect
p1598
I926
sVdns
p1599
I36
sVwait
p1600
I28
sVblocked
p1601
I0
ssVtime
p1602
I1001
sVresponse
p1603
(dp1604
Vstatus
p1605
I200
sVcomment
p1606
g4
sVcookies
p1607
(lp1608
sVstatusText
p1609
VOK
p1610
sVcontent
p1611
(dp1612
VmimeType
p1613
Vtext/html
p1614
sVcomment
p1615
g4
sVsize
p1616
I0
ssVheaders
p1617
(lp1618
sVheadersSize
p1619
I861
sVredirectURL
p1620
g4
sVbodySize
p1621
I4650
sVhttpVersion
p1622
VHTTP/1.1
p1623
ssa(dp1624
Vcomment
p1625
g4
sVserverIPAddress
p1626
V216.58.216.193
p1627
sVpageref
p1628
VCleveland Indians
p1629
sVstartedDateTime
p1630
V2017-04-16T08:25:05.226-05:00
p1631
sVcache
p1632
(dp1633
sVrequest
p1634
(dp1635
Vcomment
p1636
g4
sVcookies
p1637
(lp1638
sVurl
p1639
Vhttps://static-advance-net.cdn.ampproject.org/i/static.advance.net/static/cleve/static/img/logos/logo_full.svg
p1640
sVqueryString
p1641
(lp1642
sVheaders
p1643
(lp1644
sVheadersSize
p1645
I533
sVbodySize
p1646
I0
sVmethod
p1647
VGET
p1648
sVhttpVersion
p1649
VHTTP/1.1
p1650
ssVtimings
p1651
(dp1652
Vcomment
p1653
g4
sVreceive
p1654
I2
sVsend
p1655
I0
sVssl
p1656
I-1
sVconnect
p1657
I-1
sVdns
p1658
I-1
sVwait
p1659
I26
sVblocked
p1660
I-1
ssVtime
p1661
I28
sVresponse
p1662
(dp1663
Vstatus
p1664
I200
sVcomment
p1665
g4
sVcookies
p1666
(lp1667
sVstatusText
p1668
VOK
p1669
sVcontent
p1670
(dp1671
VmimeType
p1672
Vimage/svg+xml
p1673
sVcomment
p1674
g4
sVsize
p1675
I0
ssVheaders
p1676
(lp1677
sVheadersSize
p1678
I878
sVredirectURL
p1679
g4
sVbodySize
p1680
I2148
sVhttpVersion
p1681
VHTTP/1.1
p1682
ssa(dp1683
Vcomment
p1684
g4
sVserverIPAddress
p1685
V216.58.216.193
p1686
sVpageref
p1687
VCleveland Indians
p1688
sVstartedDateTime
p1689
V2017-04-16T08:25:05.227-05:00
p1690
sVcache
p1691
(dp1692
sVrequest
p1693
(dp1694
Vcomment
p1695
g4
sVcookies
p1696
(lp1697
sVurl
p1698
Vhttps://media-advance-net.cdn.ampproject.org/i/media.advance.net/avatars/18/26/59/6.png
p1699
sVqueryString
p1700
(lp1701
sVheaders
p1702
(lp1703
sVheadersSize
p1704
I510
sVbodySize
p1705
I0
sVmethod
p1706
VGET
p1707
sVhttpVersion
p1708
VHTTP/1.1
p1709
ssVtimings
p1710
(dp1711
Vcomment
p1712
g4
sVreceive
p1713
I2
sVsend
p1714
I0
sVssl
p1715
I-1
sVconnect
p1716
I-1
sVdns
p1717
I-1
sVwait
p1718
I28
sVblocked
p1719
I-1
ssVtime
p1720
I30
sVresponse
p1721
(dp1722
Vstatus
p1723
I200
sVcomment
p1724
g4
sVcookies
p1725
(lp1726
sVstatusText
p1727
VOK
p1728
sVcontent
p1729
(dp1730
VmimeType
p1731
Vimage/jpeg
p1732
sVcomment
p1733
g4
sVsize
p1734
I0
ssVheaders
p1735
(lp1736
sVheadersSize
p1737
I844
sVredirectURL
p1738
g4
sVbodySize
p1739
I3710
sVhttpVersion
p1740
VHTTP/1.1
p1741
ssa(dp1742
Vcomment
p1743
g4
sVserverIPAddress
p1744
V216.58.216.196
p1745
sVpageref
p1746
VCleveland Indians
p1747
sVstartedDateTime
p1748
V2017-04-16T08:25:05.774-05:00
p1749
sVcache
p1750
(dp1751
sVrequest
p1752
(dp1753
Vcomment
p1754
g4
sVcookies
p1755
(lp1756
sVurl
p1757
Vhttps://www.google.com/gen_204?atyp=i&ct=slh&cad=&ei=mXDzWLaDJsTqjwTY3p2QAQ&m=V&t=C&s=1&v=2&pv=0.24084210194929223&me=1:1492349086447,x:2,V,0,0,1280,944:0,N,1,mXDzWLaDJsTqjwTY3p2QAQ:0,R,1,24,0,155,1197,502:0,R,1,25,0,155,1197,500:0,R,1,78,8,665,1264,545:0,R,1,79,8,709,1264,315:0,R,1,80,0,709,1280,335:1,B,4153:13979,e,U&zx=1492349105772
p1758
sVqueryString
p1759
(lp1760
(dp1761
Vname
p1762
Vatyp
p1763
sVvalue
p1764
g30
sa(dp1765
Vname
p1766
Vct
p1767
sVvalue
p1768
Vslh
p1769
sa(dp1770
Vname
p1771
Vcad
p1772
sVvalue
p1773
g4
sa(dp1774
Vname
p1775
Vei
p1776
sVvalue
p1777
VmXDzWLaDJsTqjwTY3p2QAQ
p1778
sa(dp1779
Vname
p1780
g47
sVvalue
p1781
g49
sa(dp1782
Vname
p1783
g52
sVvalue
p1784
g54
sa(dp1785
Vname
p1786
g57
sVvalue
p1787
g59
sa(dp1788
Vname
p1789
g62
sVvalue
p1790
g64
sa(dp1791
Vname
p1792
Vpv
p1793
sVvalue
p1794
V0.24084210194929223
p1795
sa(dp1796
Vname
p1797
Vme
p1798
sVvalue
p1799
V1:1492349086447,x:2,V,0,0,1280,944:0,N,1,mXDzWLaDJsTqjwTY3p2QAQ:0,R,1,24,0,155,1197,502:0,R,1,25,0,155,1197,500:0,R,1,78,8,665,1264,545:0,R,1,79,8,709,1264,315:0,R,1,80,0,709,1280,335:1,B,4153:13979,e,U
p1800
sa(dp1801
Vname
p1802
Vzx
p1803
sVvalue
p1804
V1492349105772
p1805
sasVheaders
p1806
(lp1807
sVheadersSize
p1808
I854
sVbodySize
p1809
I0
sVmethod
p1810
VGET
p1811
sVhttpVersion
p1812
VHTTP/1.1
p1813
ssVtimings
p1814
(dp1815
Vcomment
p1816
g4
sVreceive
p1817
I0
sVsend
p1818
I0
sVssl
p1819
I-1
sVconnect
p1820
I-1
sVdns
p1821
I-1
sVwait
p1822
I27
sVblocked
p1823
I-1
ssVtime
p1824
I27
sVresponse
p1825
(dp1826
Vstatus
p1827
I204
sVcomment
p1828
g4
sVcookies
p1829
(lp1830
sVstatusText
p1831
VNo Content
p1832
sVcontent
p1833
(dp1834
VmimeType
p1835
Vtext/html; charset=UTF-8
p1836
sVcomment
p1837
g4
sVsize
p1838
I0
ssVheaders
p1839
(lp1840
sVheadersSize
p1841
I248
sVredirectURL
p1842
g4
sVbodySize
p1843
I0
sVhttpVersion
p1844
VHTTP/1.1
p1845
ssa(dp1846
Vcomment
p1847
g4
sVserverIPAddress
p1848
V172.217.0.1
p1849
sVpageref
p1850
VCleveland Indians
p1851
sVstartedDateTime
p1852
V2017-04-16T08:25:05.849-05:00
p1853
sVcache
p1854
(dp1855
sVrequest
p1856
(dp1857
Vcomment
p1858
g4
sVcookies
p1859
(lp1860
sVurl
p1861
Vhttps://media-cleveland-com.cdn.ampproject.org/i/media.cleveland.com/sports_impact/photo/04162017-sgquillwjpg-42847fb355817c02.jpg
p1862
sVqueryString
p1863
(lp1864
sVheaders
p1865
(lp1866
sVheadersSize
p1867
I553
sVbodySize
p1868
I0
sVmethod
p1869
VGET
p1870
sVhttpVersion
p1871
VHTTP/1.1
p1872
ssVtimings
p1873
(dp1874
Vcomment
p1875
g4
sVreceive
p1876
I69
sVsend
p1877
I0
sVssl
p1878
I438
sVconnect
p1879
I470
sVdns
p1880
I32
sVwait
p1881
I25
sVblocked
p1882
I0
ssVtime
p1883
I597
sVresponse
p1884
(dp1885
Vstatus
p1886
I200
sVcomment
p1887
g4
sVcookies
p1888
(lp1889
sVstatusText
p1890
VOK
p1891
sVcontent
p1892
(dp1893
VmimeType
p1894
Vimage/jpeg
p1895
sVcomment
p1896
g4
sVsize
p1897
I0
ssVheaders
p1898
(lp1899
sVheadersSize
p1900
I846
sVredirectURL
p1901
g4
sVbodySize
p1902
I133738
sVhttpVersion
p1903
VHTTP/1.1
p1904
ssa(dp1905
Vcomment
p1906
g4
sVserverIPAddress
p1907
V216.58.216.196
p1908
sVpageref
p1909
VCleveland Indians
p1910
sVstartedDateTime
p1911
V2017-04-16T08:25:06.002-05:00
p1912
sVcache
p1913
(dp1914
sVrequest
p1915
(dp1916
Vcomment
p1917
g4
sVcookies
p1918
(lp1919
sVurl
p1920
Vhttps://www.google.com/gen_204?s=web&atyp=csi&ei=rHDzWMPpB6G7jwTu6qWoDg&imc=113&imn=113&imp=42&adh=&xjs=init.59.16.sb_mob.45.mbsf.3.async.3.dvl.3.lr.2&ima=17&rt=prt.1039,iml.1262,xjsls.1039,dcl.1246,qiml.1449,xjses.1361,xjsee.1536,xjs.1536,ol.4738,aft.1247,wsrt.168,cst.0,dnst.0,rqst.1043,rspt.1045,rqstt.62,unt.3,cstt.3,dit.1277
p1921
sVqueryString
p1922
(lp1923
(dp1924
Vname
p1925
g57
sVvalue
p1926
Vweb
p1927
sa(dp1928
Vname
p1929
Vatyp
p1930
sVvalue
p1931
Vcsi
p1932
sa(dp1933
Vname
p1934
Vei
p1935
sVvalue
p1936
VrHDzWMPpB6G7jwTu6qWoDg
p1937
sa(dp1938
Vname
p1939
Vimc
p1940
sVvalue
p1941
V113
p1942
sa(dp1943
Vname
p1944
Vimn
p1945
sVvalue
p1946
V113
p1947
sa(dp1948
Vname
p1949
Vimp
p1950
sVvalue
p1951
V42
p1952
sa(dp1953
Vname
p1954
Vadh
p1955
sVvalue
p1956
g4
sa(dp1957
Vname
p1958
Vxjs
p1959
sVvalue
p1960
Vinit.59.16.sb_mob.45.mbsf.3.async.3.dvl.3.lr.2
p1961
sa(dp1962
Vname
p1963
Vima
p1964
sVvalue
p1965
V17
p1966
sa(dp1967
Vname
p1968
Vrt
p1969
sVvalue
p1970
Vprt.1039,iml.1262,xjsls.1039,dcl.1246,qiml.1449,xjses.1361,xjsee.1536,xjs.1536,ol.4738,aft.1247,wsrt.168,cst.0,dnst.0,rqst.1043,rspt.1045,rqstt.62,unt.3,cstt.3,dit.1277
p1971
sasVheaders
p1972
(lp1973
sVheadersSize
p1974
I846
sVbodySize
p1975
I0
sVmethod
p1976
VGET
p1977
sVhttpVersion
p1978
VHTTP/1.1
p1979
ssVtimings
p1980
(dp1981
Vcomment
p1982
g4
sVreceive
p1983
I0
sVsend
p1984
I0
sVssl
p1985
I-1
sVconnect
p1986
I-1
sVdns
p1987
I-1
sVwait
p1988
I39
sVblocked
p1989
I-1
ssVtime
p1990
I39
sVresponse
p1991
(dp1992
Vstatus
p1993
I204
sVcomment
p1994
g4
sVcookies
p1995
(lp1996
sVstatusText
p1997
VNo Content
p1998
sVcontent
p1999
(dp2000
VmimeType
p2001
Vtext/html; charset=UTF-8
p2002
sVcomment
p2003
g4
sVsize
p2004
I0
ssVheaders
p2005
(lp2006
sVheadersSize
p2007
I248
sVredirectURL
p2008
g4
sVbodySize
p2009
I0
sVhttpVersion
p2010
VHTTP/1.1
p2011
ssasVversion
p2012
V1.2
p2013
sVpages
p2014
(lp2015
(dp2016
VpageTimings
p2017
(dp2018
Vcomment
p2019
g4
ssVcomment
p2020
g4
sVtitle
p2021
VCleveland Indians
p2022
sVid
p2023
VCleveland Indians
p2024
sVstartedDateTime
p2025
V2017-04-16T08:25:00.419-05:00
p2026
sasVcreator
p2027
(dp2028
Vcomment
p2029
g4
sVversion
p2030
V2.1.4
p2031
sVname
p2032
VBrowserMob Proxy
p2033
sss.