(dp0
Vlog
p1
(dp2
Vcomment
p3
V
p4
sVentries
p5
(lp6
(dp7
Vcomment
p8
g4
sVserverIPAddress
p9
V216.58.216.196
p10
sVpageref
p11
VPortland Trail Blazers
p12
sVstartedDateTime
p13
V2017-04-16T08:36:26.525-05:00
p14
sVcache
p15
(dp16
sVrequest
p17
(dp18
Vcomment
p19
g4
sVcookies
p20
(lp21
sVurl
p22
Vhttps://www.google.com/gen_204?atyp=i&ct=slh&cad=&ei=R3PzWKriHI26jwSZnIfwBg&m=V&t=C&s=1&v=2&pv=0.16123487073805864&me=1:1492349771389,x:4,V,0,0,1280,944:0,N,1,R3PzWKriHI26jwSZnIfwBg:0,R,1,24,0,155,1197,593:0,R,1,25,0,155,1197,591:0,R,1,81,8,756,1264,359:0,R,1,82,8,800,1264,315:0,R,1,83,0,800,1280,335:3,B,4239:15128,e,U&zx=1492349786524
p23
sVqueryString
p24
(lp25
(dp26
Vname
p27
Vatyp
p28
sVvalue
p29
Vi
p30
sa(dp31
Vname
p32
Vct
p33
sVvalue
p34
Vslh
p35
sa(dp36
Vname
p37
Vcad
p38
sVvalue
p39
g4
sa(dp40
Vname
p41
Vei
p42
sVvalue
p43
VR3PzWKriHI26jwSZnIfwBg
p44
sa(dp45
Vname
p46
Vm
p47
sVvalue
p48
VV
p49
sa(dp50
Vname
p51
Vt
p52
sVvalue
p53
VC
p54
sa(dp55
Vname
p56
Vs
p57
sVvalue
p58
V1
p59
sa(dp60
Vname
p61
Vv
p62
sVvalue
p63
V2
p64
sa(dp65
Vname
p66
Vpv
p67
sVvalue
p68
V0.16123487073805864
p69
sa(dp70
Vname
p71
Vme
p72
sVvalue
p73
V1:1492349771389,x:4,V,0,0,1280,944:0,N,1,R3PzWKriHI26jwSZnIfwBg:0,R,1,24,0,155,1197,593:0,R,1,25,0,155,1197,591:0,R,1,81,8,756,1264,359:0,R,1,82,8,800,1264,315:0,R,1,83,0,800,1280,335:3,B,4239:15128,e,U
p74
sa(dp75
Vname
p76
Vzx
p77
sVvalue
p78
V1492349786524
p79
sasVheaders
p80
(lp81
sVheadersSize
p82
I854
sVbodySize
p83
I0
sVmethod
p84
VGET
p85
sVhttpVersion
p86
VHTTP/1.1
p87
ssVtimings
p88
(dp89
Vcomment
p90
g4
sVreceive
p91
I0
sVsend
p92
I0
sVssl
p93
I-1
sVconnect
p94
I-1
sVdns
p95
I-1
sVwait
p96
I0
sVblocked
p97
I-1
ssVtime
p98
I0
sVresponse
p99
(dp100
Vstatus
p101
I0
sVcomment
p102
g4
sVcookies
p103
(lp104
sV_error
p105
VNo response received
p106
sVstatusText
p107
g4
sVcontent
p108
(dp109
VmimeType
p110
g4
sVcomment
p111
g4
sVsize
p112
I0
ssVheaders
p113
(lp114
sVheadersSize
p115
I-1
sVredirectURL
p116
g4
sVbodySize
p117
I-1
sVhttpVersion
p118
Vunknown
p119
ssa(dp120
Vcomment
p121
g4
sVserverIPAddress
p122
V216.58.216.196
p123
sVpageref
p124
VPortland Trail Blazers
p125
sVstartedDateTime
p126
V2017-04-16T08:36:26.530-05:00
p127
sVcache
p128
(dp129
sVrequest
p130
(dp131
Vcomment
p132
g4
sVcookies
p133
(lp134
sVurl
p135
Vhttp://www.google.com/
p136
sVqueryString
p137
(lp138
sVheaders
p139
(lp140
sVheadersSize
p141
I613
sVbodySize
p142
I0
sVmethod
p143
VGET
p144
sVhttpVersion
p145
VHTTP/1.1
p146
ssVtimings
p147
(dp148
Vcomment
p149
g4
sVreceive
p150
I0
sVsend
p151
I0
sVssl
p152
I-1
sVconnect
p153
I-1
sVdns
p154
I-1
sVwait
p155
I36
sVblocked
p156
I-1
ssVtime
p157
I37
sVresponse
p158
(dp159
Vstatus
p160
I302
sVcomment
p161
g4
sVcookies
p162
(lp163
sVstatusText
p164
VFound
p165
sVcontent
p166
(dp167
VmimeType
p168
Vtext/html; charset=UTF-8
p169
sVcomment
p170
g4
sVsize
p171
I0
ssVheaders
p172
(lp173
sVheadersSize
p174
I609
sVredirectURL
p175
Vhttps://www.google.com/?gws_rd=ssl
p176
sVbodySize
p177
I231
sVhttpVersion
p178
VHTTP/1.1
p179
ssa(dp180
Vcomment
p181
g4
sVserverIPAddress
p182
V216.58.216.196
p183
sVpageref
p184
VPortland Trail Blazers
p185
sVstartedDateTime
p186
V2017-04-16T08:36:26.570-05:00
p187
sVcache
p188
(dp189
sVrequest
p190
(dp191
Vcomment
p192
g4
sVcookies
p193
(lp194
sVurl
p195
Vhttps://www.google.com/?gws_rd=ssl
p196
sVqueryString
p197
(lp198
(dp199
Vname
p200
Vgws_rd
p201
sVvalue
p202
Vssl
p203
sasVheaders
p204
(lp205
sVheadersSize
p206
I607
sVbodySize
p207
I0
sVmethod
p208
VGET
p209
sVhttpVersion
p210
VHTTP/1.1
p211
ssVtimings
p212
(dp213
Vcomment
p214
g4
sVreceive
p215
I51
sVsend
p216
I0
sVssl
p217
I-1
sVconnect
p218
I-1
sVdns
p219
I-1
sVwait
p220
I78
sVblocked
p221
I-1
ssVtime
p222
I129
sVresponse
p223
(dp224
Vstatus
p225
I200
sVcomment
p226
g4
sVcookies
p227
(lp228
sVstatusText
p229
VOK
p230
sVcontent
p231
(dp232
VmimeType
p233
Vtext/html; charset=UTF-8
p234
sVcomment
p235
g4
sVsize
p236
I0
ssVheaders
p237
(lp238
sVheadersSize
p239
I721
sVredirectURL
p240
g4
sVbodySize
p241
I34293
sVhttpVersion
p242
VHTTP/1.1
p243
ssa(dp244
Vcomment
p245
g4
sVserverIPAddress
p246
V216.58.216.196
p247
sVpageref
p248
VPortland Trail Blazers
p249
sVstartedDateTime
p250
V2017-04-16T08:36:27.728-05:00
p251
sVcache
p252
(dp253
sVrequest
p254
(dp255
Vcomment
p256
g4
sVcookies
p257
(lp258
sVurl
p259
Vhttps://www.google.com/gen_204?s=mobilewebhp&atyp=csi&ei=WXPzWO2ZIqe0jwSJvqyYDg&imc=1&imn=1&imp=0&adh=&xjs=init.39.12.sb_mob.28.dvl.4.mbsf.2.c.1.jsa.1&ima=1&rt=xjsls.11,prt.11,iml.11,dcl.585,xjses.727,xjsee.868,xjs.869,ol.1010,aft.11,wsrt.152,cst.0,dnst.0,rqst.139,rspt.60,rqstt.46,unt.45,cstt.45,dit.215
p260
sVqueryString
p261
(lp262
(dp263
Vname
p264
g57
sVvalue
p265
Vmobilewebhp
p266
sa(dp267
Vname
p268
Vatyp
p269
sVvalue
p270
Vcsi
p271
sa(dp272
Vname
p273
Vei
p274
sVvalue
p275
VWXPzWO2ZIqe0jwSJvqyYDg
p276
sa(dp277
Vname
p278
Vimc
p279
sVvalue
p280
g59
sa(dp281
Vname
p282
Vimn
p283
sVvalue
p284
g59
sa(dp285
Vname
p286
Vimp
p287
sVvalue
p288
V0
p289
sa(dp290
Vname
p291
Vadh
p292
sVvalue
p293
g4
sa(dp294
Vname
p295
Vxjs
p296
sVvalue
p297
Vinit.39.12.sb_mob.28.dvl.4.mbsf.2.c.1.jsa.1
p298
sa(dp299
Vname
p300
Vima
p301
sVvalue
p302
g59
sa(dp303
Vname
p304
Vrt
p305
sVvalue
p306
Vxjsls.11,prt.11,iml.11,dcl.585,xjses.727,xjsee.868,xjs.869,ol.1010,aft.11,wsrt.152,cst.0,dnst.0,rqst.139,rspt.60,rqstt.46,unt.45,cstt.45,dit.215
p307
sasVheaders
p308
(lp309
sVheadersSize
p310
I832
sVbodySize
p311
I0
sVmethod
p312
VGET
p313
sVhttpVersion
p314
VHTTP/1.1
p315
ssVtimings
p316
(dp317
Vcomment
p318
g4
sVreceive
p319
I0
sVsend
p320
I0
sVssl
p321
I-1
sVconnect
p322
I-1
sVdns
p323
I-1
sVwait
p324
I33
sVblocked
p325
I-1
ssVtime
p326
I33
sVresponse
p327
(dp328
Vstatus
p329
I204
sVcomment
p330
g4
sVcookies
p331
(lp332
sVstatusText
p333
VNo Content
p334
sVcontent
p335
(dp336
VmimeType
p337
Vtext/html; charset=UTF-8
p338
sVcomment
p339
g4
sVsize
p340
I0
ssVheaders
p341
(lp342
sVheadersSize
p343
I248
sVredirectURL
p344
g4
sVbodySize
p345
I0
sVhttpVersion
p346
VHTTP/1.1
p347
ssa(dp348
Vcomment
p349
g4
sVserverIPAddress
p350
V216.58.216.196
p351
sVpageref
p352
VPortland Trail Blazers
p353
sVstartedDateTime
p354
V2017-04-16T08:36:27.825-05:00
p355
sVcache
p356
(dp357
sVrequest
p358
(dp359
Vcomment
p360
g4
sVcookies
p361
(lp362
sVurl
p363
Vhttps://www.google.com/complete/search?client=mobile-gws-hp&hl=en&gs_rn=64&gs_ri=mobile-gws-hp&sla=1&pfq=philadelphia%2076ers&gm=602&cp=0&gs_id=1&xhr=t&q=P&tch=1&ech=1&psi=WXPzWO2ZIqe0jwSJvqyYDg.1492349787505.1
p364
sVqueryString
p365
(lp366
(dp367
Vname
p368
Vclient
p369
sVvalue
p370
Vmobile-gws-hp
p371
sa(dp372
Vname
p373
Vhl
p374
sVvalue
p375
Ven
p376
sa(dp377
Vname
p378
Vgs_rn
p379
sVvalue
p380
V64
p381
sa(dp382
Vname
p383
Vgs_ri
p384
sVvalue
p385
Vmobile-gws-hp
p386
sa(dp387
Vname
p388
Vsla
p389
sVvalue
p390
g59
sa(dp391
Vname
p392
Vpfq
p393
sVvalue
p394
Vphiladelphia 76ers
p395
sa(dp396
Vname
p397
Vgm
p398
sVvalue
p399
V602
p400
sa(dp401
Vname
p402
Vcp
p403
sVvalue
p404
g289
sa(dp405
Vname
p406
Vgs_id
p407
sVvalue
p408
g59
sa(dp409
Vname
p410
Vxhr
p411
sVvalue
p412
g52
sa(dp413
Vname
p414
Vq
p415
sVvalue
p416
VP
p417
sa(dp418
Vname
p419
Vtch
p420
sVvalue
p421
g59
sa(dp422
Vname
p423
Vech
p424
sVvalue
p425
g59
sa(dp426
Vname
p427
Vpsi
p428
sVvalue
p429
VWXPzWO2ZIqe0jwSJvqyYDg.1492349787505.1
p430
sasVheaders
p431
(lp432
sVheadersSize
p433
I738
sVbodySize
p434
I0
sVmethod
p435
VGET
p436
sVhttpVersion
p437
VHTTP/1.1
p438
ssVtimings
p439
(dp440
Vcomment
p441
g4
sVreceive
p442
I0
sVsend
p443
I0
sVssl
p444
I-1
sVconnect
p445
I-1
sVdns
p446
I-1
sVwait
p447
I0
sVblocked
p448
I-1
ssVtime
p449
I0
sVresponse
p450
(dp451
Vstatus
p452
I0
sVcomment
p453
g4
sVcookies
p454
(lp455
sV_error
p456
VNo response received
p457
sVstatusText
p458
g4
sVcontent
p459
(dp460
VmimeType
p461
g4
sVcomment
p462
g4
sVsize
p463
I0
ssVheaders
p464
(lp465
sVheadersSize
p466
I-1
sVredirectURL
p467
g4
sVbodySize
p468
I-1
sVhttpVersion
p469
Vunknown
p470
ssa(dp471
Vcomment
p472
g4
sVserverIPAddress
p473
V216.58.216.196
p474
sVpageref
p475
VPortland Trail Blazers
p476
sVstartedDateTime
p477
V2017-04-16T08:36:27.979-05:00
p478
sVcache
p479
(dp480
sVrequest
p481
(dp482
Vcomment
p483
g4
sVcookies
p484
(lp485
sVurl
p486
Vhttps://www.google.com/search?site=&source=hp&ei=WXPzWO2ZIqe0jwSJvqyYDg&q=Portland+Trail+Blazers&oq=Portland+Trail+Blazers&gs_l=mobile-gws-hp.3...290.351.0.387.22.1.0.0.0.0.0.0..0.0....0...1c.1.64.mobile-gws-hp..22.0.0.idI9IgVSrLI
p487
sVqueryString
p488
(lp489
(dp490
Vname
p491
Vsite
p492
sVvalue
p493
g4
sa(dp494
Vname
p495
Vsource
p496
sVvalue
p497
Vhp
p498
sa(dp499
Vname
p500
Vei
p501
sVvalue
p502
VWXPzWO2ZIqe0jwSJvqyYDg
p503
sa(dp504
Vname
p505
g415
sVvalue
p506
VPortland Trail Blazers
p507
sa(dp508
Vname
p509
Voq
p510
sVvalue
p511
VPortland Trail Blazers
p512
sa(dp513
Vname
p514
Vgs_l
p515
sVvalue
p516
Vmobile-gws-hp.3...290.351.0.387.22.1.0.0.0.0.0.0..0.0....0...1c.1.64.mobile-gws-hp..22.0.0.idI9IgVSrLI
p517
sasVheaders
p518
(lp519
sVheadersSize
p520
I848
sVbodySize
p521
I0
sVmethod
p522
VGET
p523
sVhttpVersion
p524
VHTTP/1.1
p525
ssVtimings
p526
(dp527
Vcomment
p528
g4
sVreceive
p529
I1075
sVsend
p530
I0
sVssl
p531
I22
sVconnect
p532
I46
sVdns
p533
I1
sVwait
p534
I110
sVblocked
p535
I0
ssVtime
p536
I1233
sVresponse
p537
(dp538
Vstatus
p539
I200
sVcomment
p540
g4
sVcookies
p541
(lp542
sVstatusText
p543
VOK
p544
sVcontent
p545
(dp546
VmimeType
p547
Vtext/html; charset=UTF-8
p548
sVcomment
p549
g4
sVsize
p550
I0
ssVheaders
p551
(lp552
sVheadersSize
p553
I363
sVredirectURL
p554
g4
sVbodySize
p555
I179632
sVhttpVersion
p556
VHTTP/1.1
p557
ssa(dp558
Vcomment
p559
g4
sVserverIPAddress
p560
V216.58.216.196
p561
sVpageref
p562
VPortland Trail Blazers
p563
sVstartedDateTime
p564
V2017-04-16T08:36:30.764-05:00
p565
sVcache
p566
(dp567
sVrequest
p568
(dp569
Vcomment
p570
g4
sVcookies
p571
(lp572
sVurl
p573
Vhttps://www.google.com/async/irc?vet=10ahUKEwjd1buXjKnTAhXBxYMKHRzDAlQQo0EIggM..i&ved=0ahUKEwjd1buXjKnTAhXBxYMKHRzDAlQQo0EIggM&ei=WnPzWN3AO8GLjwSchougBQ&yv=2&async=iu:1,ved:0ahUKEwjd1buXjKnTAhXBxYMKHRzDAlQQo0EIggM,_id:irc_async,_pms:qs
p574
sVqueryString
p575
(lp576
(dp577
Vname
p578
Vvet
p579
sVvalue
p580
V10ahUKEwjd1buXjKnTAhXBxYMKHRzDAlQQo0EIggM..i
p581
sa(dp582
Vname
p583
Vved
p584
sVvalue
p585
V0ahUKEwjd1buXjKnTAhXBxYMKHRzDAlQQo0EIggM
p586
sa(dp587
Vname
p588
Vei
p589
sVvalue
p590
VWnPzWN3AO8GLjwSchougBQ
p591
sa(dp592
Vname
p593
Vyv
p594
sVvalue
p595
g64
sa(dp596
Vname
p597
Vasync
p598
sVvalue
p599
Viu:1,ved:0ahUKEwjd1buXjKnTAhXBxYMKHRzDAlQQo0EIggM,_id:irc_async,_pms:qs
p600
sasVheaders
p601
(lp602
sVheadersSize
p603
I752
sVbodySize
p604
I0
sVmethod
p605
VGET
p606
sVhttpVersion
p607
VHTTP/1.1
p608
ssVtimings
p609
(dp610
Vcomment
p611
g4
sVreceive
p612
I2
sVsend
p613
I0
sVssl
p614
I-1
sVconnect
p615
I-1
sVdns
p616
I-1
sVwait
p617
I53
sVblocked
p618
I-1
ssVtime
p619
I56
sVresponse
p620
(dp621
Vstatus
p622
I200
sVcomment
p623
g4
sVcookies
p624
(lp625
sVstatusText
p626
VOK
p627
sVcontent
p628
(dp629
VmimeType
p630
Vtext/html; charset=UTF-8
p631
sVcomment
p632
g4
sVsize
p633
I0
ssVheaders
p634
(lp635
sVheadersSize
p636
I383
sVredirectURL
p637
g4
sVbodySize
p638
I7792
sVhttpVersion
p639
VHTTP/1.1
p640
ssa(dp641
Vcomment
p642
g4
sVserverIPAddress
p643
V216.58.216.196
p644
sVpageref
p645
VPortland Trail Blazers
p646
sVstartedDateTime
p647
V2017-04-16T08:36:30.881-05:00
p648
sVcache
p649
(dp650
sVrequest
p651
(dp652
Vcomment
p653
g4
sVcookies
p654
(lp655
sVurl
p656
Vhttps://www.google.com/async/ampfp?vet=10ahUKEwjd1buXjKnTAhXBxYMKHRzDAlQQtZoBCIAD..i&ei=WnPzWN3AO8GLjwSchougBQ&yv=2&async=_id:ampfp-async,_pms:qs
p657
sVqueryString
p658
(lp659
(dp660
Vname
p661
Vvet
p662
sVvalue
p663
V10ahUKEwjd1buXjKnTAhXBxYMKHRzDAlQQtZoBCIAD..i
p664
sa(dp665
Vname
p666
Vei
p667
sVvalue
p668
VWnPzWN3AO8GLjwSchougBQ
p669
sa(dp670
Vname
p671
Vyv
p672
sVvalue
p673
g64
sa(dp674
Vname
p675
Vasync
p676
sVvalue
p677
V_id:ampfp-async,_pms:qs
p678
sasVheaders
p679
(lp680
sVheadersSize
p681
I662
sVbodySize
p682
I0
sVmethod
p683
VGET
p684
sVhttpVersion
p685
VHTTP/1.1
p686
ssVtimings
p687
(dp688
Vcomment
p689
g4
sVreceive
p690
I0
sVsend
p691
I0
sVssl
p692
I-1
sVconnect
p693
I-1
sVdns
p694
I-1
sVwait
p695
I216
sVblocked
p696
I-1
ssVtime
p697
I217
sVresponse
p698
(dp699
Vstatus
p700
I200
sVcomment
p701
g4
sVcookies
p702
(lp703
sVstatusText
p704
VOK
p705
sVcontent
p706
(dp707
VmimeType
p708
Vtext/html; charset=UTF-8
p709
sVcomment
p710
g4
sVsize
p711
I0
ssVheaders
p712
(lp713
sVheadersSize
p714
I383
sVredirectURL
p715
g4
sVbodySize
p716
I4526
sVhttpVersion
p717
VHTTP/1.1
p718
ssa(dp719
Vcomment
p720
g4
sVserverIPAddress
p721
V216.58.216.193
p722
sVpageref
p723
VPortland Trail Blazers
p724
sVstartedDateTime
p725
V2017-04-16T08:36:30.882-05:00
p726
sVcache
p727
(dp728
sVrequest
p729
(dp730
Vcomment
p731
g4
sVcookies
p732
(lp733
sVurl
p734
Vhttps://cdn.ampproject.org/preconnect.gif?0.02736313940098567
p735
sVqueryString
p736
(lp737
(dp738
Vname
p739
V0.02736313940098567
p740
sVvalue
p741
g4
sasVheaders
p742
(lp743
sVheadersSize
p744
I376
sVbodySize
p745
I0
sVmethod
p746
VGET
p747
sVhttpVersion
p748
VHTTP/1.1
p749
ssVtimings
p750
(dp751
Vcomment
p752
g4
sVreceive
p753
I0
sVsend
p754
I0
sVssl
p755
I-1
sVconnect
p756
I-1
sVdns
p757
I-1
sVwait
p758
I41
sVblocked
p759
I-1
ssVtime
p760
I42
sVresponse
p761
(dp762
Vstatus
p763
I200
sVcomment
p764
g4
sVcookies
p765
(lp766
sVstatusText
p767
VOK
p768
sVcontent
p769
(dp770
VmimeType
p771
Vimage/gif
p772
sVcomment
p773
g4
sVsize
p774
I0
ssVheaders
p775
(lp776
sVheadersSize
p777
I826
sVredirectURL
p778
g4
sVbodySize
p779
I37
sVhttpVersion
p780
VHTTP/1.1
p781
ssa(dp782
Vcomment
p783
g4
sVserverIPAddress
p784
V216.58.216.196
p785
sVpageref
p786
VPortland Trail Blazers
p787
sVstartedDateTime
p788
V2017-04-16T08:36:31.209-05:00
p789
sVcache
p790
(dp791
sVrequest
p792
(dp793
Vcomment
p794
g4
sVcookies
p795
(lp796
sVurl
p797
Vhttps://www.google.com/gen_204?s=web&atyp=csi&ei=WnPzWN3AO8GLjwSchougBQ&imc=106&imn=106&imp=28&adh=&xjs=init.96.16.sb_mob.77.dvl.5.async.4.mbsf.3.c.2&ima=17&rt=prt.1202,iml.1442,xjsls.1202,qiml.1490,dcl.1301,xjses.1595,xjsee.1975,xjs.1977,ol.3041,aft.1433,wsrt.183,cst.0,dnst.0,rqst.1187,rspt.1189,rqstt.55,unt.6,cstt.6,dit.1422
p798
sVqueryString
p799
(lp800
(dp801
Vname
p802
g57
sVvalue
p803
Vweb
p804
sa(dp805
Vname
p806
Vatyp
p807
sVvalue
p808
Vcsi
p809
sa(dp810
Vname
p811
Vei
p812
sVvalue
p813
VWnPzWN3AO8GLjwSchougBQ
p814
sa(dp815
Vname
p816
Vimc
p817
sVvalue
p818
V106
p819
sa(dp820
Vname
p821
Vimn
p822
sVvalue
p823
V106
p824
sa(dp825
Vname
p826
Vimp
p827
sVvalue
p828
V28
p829
sa(dp830
Vname
p831
Vadh
p832
sVvalue
p833
g4
sa(dp834
Vname
p835
Vxjs
p836
sVvalue
p837
Vinit.96.16.sb_mob.77.dvl.5.async.4.mbsf.3.c.2
p838
sa(dp839
Vname
p840
Vima
p841
sVvalue
p842
V17
p843
sa(dp844
Vname
p845
Vrt
p846
sVvalue
p847
Vprt.1202,iml.1442,xjsls.1202,qiml.1490,dcl.1301,xjses.1595,xjsee.1975,xjs.1977,ol.3041,aft.1433,wsrt.183,cst.0,dnst.0,rqst.1187,rspt.1189,rqstt.55,unt.6,cstt.6,dit.1422
p848
sasVheaders
p849
(lp850
sVheadersSize
p851
I845
sVbodySize
p852
I0
sVmethod
p853
VGET
p854
sVhttpVersion
p855
VHTTP/1.1
p856
ssVtimings
p857
(dp858
Vcomment
p859
g4
sVreceive
p860
I0
sVsend
p861
I0
sVssl
p862
I-1
sVconnect
p863
I-1
sVdns
p864
I-1
sVwait
p865
I35
sVblocked
p866
I-1
ssVtime
p867
I35
sVresponse
p868
(dp869
Vstatus
p870
I204
sVcomment
p871
g4
sVcookies
p872
(lp873
sVstatusText
p874
VNo Content
p875
sVcontent
p876
(dp877
VmimeType
p878
Vtext/html; charset=UTF-8
p879
sVcomment
p880
g4
sVsize
p881
I0
ssVheaders
p882
(lp883
sVheadersSize
p884
I248
sVredirectURL
p885
g4
sVbodySize
p886
I0
sVhttpVersion
p887
VHTTP/1.1
p888
ssa(dp889
Vcomment
p890
g4
sVserverIPAddress
p891
V216.58.216.196
p892
sVpageref
p893
VPortland Trail Blazers
p894
sVstartedDateTime
p895
V2017-04-16T08:36:31.283-05:00
p896
sVcache
p897
(dp898
sVrequest
p899
(dp900
Vcomment
p901
g4
sVcookies
p902
(lp903
sVurl
p904
Vhttps://www.google.com/async/log_amp_item_set?vet=10ahUKEwjj7eyYjKnTAhVF1oMKHfy2Av8QooQBCAE..i&ei=WnPzWN3AO8GLjwSchougBQ&yv=2&async=num_items:10,_fmt:jspb
p905
sVqueryString
p906
(lp907
(dp908
Vname
p909
Vvet
p910
sVvalue
p911
V10ahUKEwjj7eyYjKnTAhVF1oMKHfy2Av8QooQBCAE..i
p912
sa(dp913
Vname
p914
Vei
p915
sVvalue
p916
VWnPzWN3AO8GLjwSchougBQ
p917
sa(dp918
Vname
p919
Vyv
p920
sVvalue
p921
g64
sa(dp922
Vname
p923
Vasync
p924
sVvalue
p925
Vnum_items:10,_fmt:jspb
p926
sasVheaders
p927
(lp928
sVheadersSize
p929
I671
sVbodySize
p930
I0
sVmethod
p931
VGET
p932
sVhttpVersion
p933
VHTTP/1.1
p934
ssVtimings
p935
(dp936
Vcomment
p937
g4
sVreceive
p938
I0
sVsend
p939
I0
sVssl
p940
I-1
sVconnect
p941
I-1
sVdns
p942
I-1
sVwait
p943
I35
sVblocked
p944
I-1
ssVtime
p945
I35
sVresponse
p946
(dp947
Vstatus
p948
I200
sVcomment
p949
g4
sVcookies
p950
(lp951
sVstatusText
p952
VOK
p953
sVcontent
p954
(dp955
VmimeType
p956
Vapplication/json; charset=UTF-8
p957
sVcomment
p958
g4
sVsize
p959
I0
ssVheaders
p960
(lp961
sVheadersSize
p962
I417
sVredirectURL
p963
g4
sVbodySize
p964
I184
sVhttpVersion
p965
VHTTP/1.1
p966
ssa(dp967
Vcomment
p968
g4
sVserverIPAddress
p969
V216.58.216.193
p970
sVpageref
p971
VPortland Trail Blazers
p972
sVstartedDateTime
p973
V2017-04-16T08:36:31.858-05:00
p974
sVcache
p975
(dp976
sVrequest
p977
(dp978
Vcomment
p979
g4
sVcookies
p980
(lp981
sVurl
p982
Vhttps://www-goldenstateofmind-com.cdn.ampproject.org/v/www.goldenstateofmind.com/platform/amp/2017/4/16/15317556/nba-2017-playoffs-golden-state-warriors-portland-trailblazers-round-one-game-one?amp_js_v=9
p983
sVqueryString
p984
(lp985
(dp986
Vname
p987
Vamp_js_v
p988
sVvalue
p989
V9
p990
sasVheaders
p991
(lp992
sVheadersSize
p993
I609
sVbodySize
p994
I0
sVmethod
p995
VGET
p996
sVhttpVersion
p997
VHTTP/1.1
p998
ssVtimings
p999
(dp1000
Vcomment
p1001
g4
sVreceive
p1002
I3
sVsend
p1003
I0
sVssl
p1004
I468
sVconnect
p1005
I520
sVdns
p1006
I42
sVwait
p1007
I178
sVblocked
p1008
I0
ssVtime
p1009
I744
sVresponse
p1010
(dp1011
Vstatus
p1012
I200
sVcomment
p1013
g4
sVcookies
p1014
(lp1015
sVstatusText
p1016
VOK
p1017
sVcontent
p1018
(dp1019
VmimeType
p1020
Vtext/html
p1021
sVcomment
p1022
g4
sVsize
p1023
I0
ssVheaders
p1024
(lp1025
sVheadersSize
p1026
I860
sVredirectURL
p1027
g4
sVbodySize
p1028
I10922
sVhttpVersion
p1029
VHTTP/1.1
p1030
ssa(dp1031
Vcomment
p1032
g4
sVserverIPAddress
p1033
V216.58.216.193
p1034
sVpageref
p1035
VPortland Trail Blazers
p1036
sVstartedDateTime
p1037
V2017-04-16T08:36:32.194-05:00
p1038
sVcache
p1039
(dp1040
sVrequest
p1041
(dp1042
Vcomment
p1043
g4
sVcookies
p1044
(lp1045
sVurl
p1046
Vhttps://cdn2-vox--cdn-com.cdn.ampproject.org/ii/w100/s/cdn2.vox-cdn.com/uploads/blog/sbnu_logo_minimal/36/large_goldenstateofmind.com.minimal.png
p1047
sVqueryString
p1048
(lp1049
sVheaders
p1050
(lp1051
sVheadersSize
p1052
I641
sVbodySize
p1053
I0
sVmethod
p1054
VGET
p1055
sVhttpVersion
p1056
VHTTP/1.1
p1057
ssVtimings
p1058
(dp1059
Vcomment
p1060
g4
sVreceive
p1061
I1
sVsend
p1062
I0
sVssl
p1063
I-1
sVconnect
p1064
I-1
sVdns
p1065
I-1
sVwait
p1066
I28
sVblocked
p1067
I-1
ssVtime
p1068
I30
sVresponse
p1069
(dp1070
Vstatus
p1071
I200
sVcomment
p1072
g4
sVcookies
p1073
(lp1074
sVstatusText
p1075
VOK
p1076
sVcontent
p1077
(dp1078
VmimeType
p1079
Vimage/png
p1080
sVcomment
p1081
g4
sVsize
p1082
I0
ssVheaders
p1083
(lp1084
sVheadersSize
p1085
I824
sVredirectURL
p1086
g4
sVbodySize
p1087
I4779
sVhttpVersion
p1088
VHTTP/1.1
p1089
ssa(dp1090
Vcomment
p1091
g4
sVserverIPAddress
p1092
V216.58.216.193
p1093
sVpageref
p1094
VPortland Trail Blazers
p1095
sVstartedDateTime
p1096
V2017-04-16T08:36:32.197-05:00
p1097
sVcache
p1098
(dp1099
sVrequest
p1100
(dp1101
Vcomment
p1102
g4
sVcookies
p1103
(lp1104
sVurl
p1105
Vhttps://cdn0-vox--cdn-com.cdn.ampproject.org/i/s/cdn0.vox-cdn.com/thumbor/ds0YKQP2sUqcv_ohr_xDU1OekC0=/0x856:2053x2225/1310x873/cdn0.vox-cdn.com/uploads/chorus_image/image/54281111/usa_today_9869835.0.jpg
p1106
sVqueryString
p1107
(lp1108
sVheaders
p1109
(lp1110
sVheadersSize
p1111
I700
sVbodySize
p1112
I0
sVmethod
p1113
VGET
p1114
sVhttpVersion
p1115
VHTTP/1.1
p1116
ssVtimings
p1117
(dp1118
Vcomment
p1119
g4
sVreceive
p1120
I31
sVsend
p1121
I0
sVssl
p1122
I-1
sVconnect
p1123
I-1
sVdns
p1124
I-1
sVwait
p1125
I30
sVblocked
p1126
I-1
ssVtime
p1127
I62
sVresponse
p1128
(dp1129
Vstatus
p1130
I200
sVcomment
p1131
g4
sVcookies
p1132
(lp1133
sVstatusText
p1134
VOK
p1135
sVcontent
p1136
(dp1137
VmimeType
p1138
Vimage/jpeg
p1139
sVcomment
p1140
g4
sVsize
p1141
I0
ssVheaders
p1142
(lp1143
sVheadersSize
p1144
I851
sVredirectURL
p1145
g4
sVbodySize
p1146
I153857
sVhttpVersion
p1147
VHTTP/1.1
p1148
ssa(dp1149
Vcomment
p1150
g4
sVserverIPAddress
p1151
V216.58.216.196
p1152
sVpageref
p1153
VPortland Trail Blazers
p1154
sVstartedDateTime
p1155
V2017-04-16T08:36:32.826-05:00
p1156
sVcache
p1157
(dp1158
sVrequest
p1159
(dp1160
Vcomment
p1161
g4
sVcookies
p1162
(lp1163
sVurl
p1164
Vhttps://www.google.com/gen_204?atyp=i&ct=slh&cad=&ei=R3PzWKriHI26jwSZnIfwBg&m=V&t=C&s=1&v=2&pv=0.16123487073805864&me=1:1492349771389,x:4,V,0,0,1280,944:0,N,1,R3PzWKriHI26jwSZnIfwBg:0,R,1,24,0,155,1197,593:0,R,1,25,0,155,1197,591:0,R,1,81,8,756,1264,359:0,R,1,82,8,800,1264,315:0,R,1,83,0,800,1280,335:3,B,4239:15128,e,U&zx=1492349792825
p1165
sVqueryString
p1166
(lp1167
(dp1168
Vname
p1169
Vatyp
p1170
sVvalue
p1171
g30
sa(dp1172
Vname
p1173
Vct
p1174
sVvalue
p1175
Vslh
p1176
sa(dp1177
Vname
p1178
Vcad
p1179
sVvalue
p1180
g4
sa(dp1181
Vname
p1182
Vei
p1183
sVvalue
p1184
VR3PzWKriHI26jwSZnIfwBg
p1185
sa(dp1186
Vname
p1187
g47
sVvalue
p1188
g49
sa(dp1189
Vname
p1190
g52
sVvalue
p1191
g54
sa(dp1192
Vname
p1193
g57
sVvalue
p1194
g59
sa(dp1195
Vname
p1196
g62
sVvalue
p1197
g64
sa(dp1198
Vname
p1199
Vpv
p1200
sVvalue
p1201
V0.16123487073805864
p1202
sa(dp1203
Vname
p1204
Vme
p1205
sVvalue
p1206
V1:1492349771389,x:4,V,0,0,1280,944:0,N,1,R3PzWKriHI26jwSZnIfwBg:0,R,1,24,0,155,1197,593:0,R,1,25,0,155,1197,591:0,R,1,81,8,756,1264,359:0,R,1,82,8,800,1264,315:0,R,1,83,0,800,1280,335:3,B,4239:15128,e,U
p1207
sa(dp1208
Vname
p1209
Vzx
p1210
sVvalue
p1211
V1492349792825
p1212
sasVheaders
p1213
(lp1214
sVheadersSize
p1215
I854
sVbodySize
p1216
I0
sVmethod
p1217
VGET
p1218
sVhttpVersion
p1219
VHTTP/1.1
p1220
ssVtimings
p1221
(dp1222
Vcomment
p1223
g4
sVreceive
p1224
I0
sVsend
p1225
I0
sVssl
p1226
I-1
sVconnect
p1227
I-1
sVdns
p1228
I-1
sVwait
p1229
I42
sVblocked
p1230
I-1
ssVtime
p1231
I42
sVresponse
p1232
(dp1233
Vstatus
p1234
I204
sVcomment
p1235
g4
sVcookies
p1236
(lp1237
sVstatusText
p1238
VNo Content
p1239
sVcontent
p1240
(dp1241
VmimeType
p1242
Vtext/html; charset=UTF-8
p1243
sVcomment
p1244
g4
sVsize
p1245
I0
ssVheaders
p1246
(lp1247
sVheadersSize
p1248
I248
sVredirectURL
p1249
g4
sVbodySize
p1250
I0
sVhttpVersion
p1251
VHTTP/1.1
p1252
ssasVversion
p1253
V1.2
p1254
sVpages
p1255
(lp1256
(dp1257
VpageTimings
p1258
(dp1259
Vcomment
p1260
g4
ssVcomment
p1261
g4
sVtitle
p1262
VPortland Trail Blazers
p1263
sVid
p1264
VPortland Trail Blazers
p1265
sVstartedDateTime
p1266
V2017-04-16T08:36:26.518-05:00
p1267
sasVcreator
p1268
(dp1269
Vcomment
p1270
g4
sVversion
p1271
V2.1.4
p1272
sVname
p1273
VBrowserMob Proxy
p1274
sss.