(dp0
Vlog
p1
(dp2
Vcomment
p3
V
p4
sVentries
p5
(lp6
(dp7
Vcomment
p8
g4
sVserverIPAddress
p9
V216.58.216.196
p10
sVpageref
p11
VJenna Dewan Tatum
p12
sVstartedDateTime
p13
V2017-04-16T08:11:45.237-05:00
p14
sVcache
p15
(dp16
sVrequest
p17
(dp18
Vcomment
p19
g4
sVcookies
p20
(lp21
sVurl
p22
Vhttps://www.google.com/gen_204?atyp=i&ct=slh&cad=&ei=hm3zWOLCAYyVjwTR07nwDw&m=V&t=C&s=1&v=2&pv=0.895956661528944&me=1:1492348296856,x:3,V,0,0,1280,944:0,N,1,hm3zWOLCAYyVjwTR07nwDw:0,R,1,24,8,155,1249,1088:0,R,1,25,8,155,1249,1088:0,R,1,29,8,168,1249,40:0,R,1,47,8,267,1249,178:0,R,1,50,0,283,1265,197:0,R,1,90,8,462,1249,40:0,R,1,91,24,462,1217,40:0,R,1,99,8,518,1249,20:0,R,1,116,8,558,1249,310:0,R,1,117,0,603,1265,285:0,R,1,143,8,913,1249,263:0,R,1,144,0,913,1265,283:2,B,4203:8373,e,U&zx=1492348305235
p23
sVqueryString
p24
(lp25
(dp26
Vname
p27
Vatyp
p28
sVvalue
p29
Vi
p30
sa(dp31
Vname
p32
Vct
p33
sVvalue
p34
Vslh
p35
sa(dp36
Vname
p37
Vcad
p38
sVvalue
p39
g4
sa(dp40
Vname
p41
Vei
p42
sVvalue
p43
Vhm3zWOLCAYyVjwTR07nwDw
p44
sa(dp45
Vname
p46
Vm
p47
sVvalue
p48
VV
p49
sa(dp50
Vname
p51
Vt
p52
sVvalue
p53
VC
p54
sa(dp55
Vname
p56
Vs
p57
sVvalue
p58
V1
p59
sa(dp60
Vname
p61
Vv
p62
sVvalue
p63
V2
p64
sa(dp65
Vname
p66
Vpv
p67
sVvalue
p68
V0.895956661528944
p69
sa(dp70
Vname
p71
Vme
p72
sVvalue
p73
V1:1492348296856,x:3,V,0,0,1280,944:0,N,1,hm3zWOLCAYyVjwTR07nwDw:0,R,1,24,8,155,1249,1088:0,R,1,25,8,155,1249,1088:0,R,1,29,8,168,1249,40:0,R,1,47,8,267,1249,178:0,R,1,50,0,283,1265,197:0,R,1,90,8,462,1249,40:0,R,1,91,24,462,1217,40:0,R,1,99,8,518,1249,20:0,R,1,116,8,558,1249,310:0,R,1,117,0,603,1265,285:0,R,1,143,8,913,1249,263:0,R,1,144,0,913,1265,283:2,B,4203:8373,e,U
p74
sa(dp75
Vname
p76
Vzx
p77
sVvalue
p78
V1492348305235
p79
sasVheaders
p80
(lp81
sVheadersSize
p82
I1022
sVbodySize
p83
I0
sVmethod
p84
VGET
p85
sVhttpVersion
p86
VHTTP/1.1
p87
ssVtimings
p88
(dp89
Vcomment
p90
g4
sVreceive
p91
I0
sVsend
p92
I0
sVssl
p93
I-1
sVconnect
p94
I-1
sVdns
p95
I-1
sVwait
p96
I0
sVblocked
p97
I-1
ssVtime
p98
I0
sVresponse
p99
(dp100
Vstatus
p101
I0
sVcomment
p102
g4
sVcookies
p103
(lp104
sV_error
p105
VNo response received
p106
sVstatusText
p107
g4
sVcontent
p108
(dp109
VmimeType
p110
g4
sVcomment
p111
g4
sVsize
p112
I0
ssVheaders
p113
(lp114
sVheadersSize
p115
I-1
sVredirectURL
p116
g4
sVbodySize
p117
I-1
sVhttpVersion
p118
Vunknown
p119
ssa(dp120
Vcomment
p121
g4
sVserverIPAddress
p122
V216.58.216.196
p123
sVpageref
p124
VJenna Dewan Tatum
p125
sVstartedDateTime
p126
V2017-04-16T08:11:45.244-05:00
p127
sVcache
p128
(dp129
sVrequest
p130
(dp131
Vcomment
p132
g4
sVcookies
p133
(lp134
sVurl
p135
Vhttp://www.google.com/
p136
sVqueryString
p137
(lp138
sVheaders
p139
(lp140
sVheadersSize
p141
I613
sVbodySize
p142
I0
sVmethod
p143
VGET
p144
sVhttpVersion
p145
VHTTP/1.1
p146
ssVtimings
p147
(dp148
Vcomment
p149
g4
sVreceive
p150
I0
sVsend
p151
I0
sVssl
p152
I-1
sVconnect
p153
I-1
sVdns
p154
I-1
sVwait
p155
I38
sVblocked
p156
I-1
ssVtime
p157
I38
sVresponse
p158
(dp159
Vstatus
p160
I302
sVcomment
p161
g4
sVcookies
p162
(lp163
sVstatusText
p164
VFound
p165
sVcontent
p166
(dp167
VmimeType
p168
Vtext/html; charset=UTF-8
p169
sVcomment
p170
g4
sVsize
p171
I0
ssVheaders
p172
(lp173
sVheadersSize
p174
I609
sVredirectURL
p175
Vhttps://www.google.com/?gws_rd=ssl
p176
sVbodySize
p177
I231
sVhttpVersion
p178
VHTTP/1.1
p179
ssa(dp180
Vcomment
p181
g4
sVserverIPAddress
p182
V216.58.216.196
p183
sVpageref
p184
VJenna Dewan Tatum
p185
sVstartedDateTime
p186
V2017-04-16T08:11:45.285-05:00
p187
sVcache
p188
(dp189
sVrequest
p190
(dp191
Vcomment
p192
g4
sVcookies
p193
(lp194
sVurl
p195
Vhttps://www.google.com/?gws_rd=ssl
p196
sVqueryString
p197
(lp198
(dp199
Vname
p200
Vgws_rd
p201
sVvalue
p202
Vssl
p203
sasVheaders
p204
(lp205
sVheadersSize
p206
I607
sVbodySize
p207
I0
sVmethod
p208
VGET
p209
sVhttpVersion
p210
VHTTP/1.1
p211
ssVtimings
p212
(dp213
Vcomment
p214
g4
sVreceive
p215
I24
sVsend
p216
I0
sVssl
p217
I-1
sVconnect
p218
I-1
sVdns
p219
I-1
sVwait
p220
I81
sVblocked
p221
I-1
ssVtime
p222
I106
sVresponse
p223
(dp224
Vstatus
p225
I200
sVcomment
p226
g4
sVcookies
p227
(lp228
sVstatusText
p229
VOK
p230
sVcontent
p231
(dp232
VmimeType
p233
Vtext/html; charset=UTF-8
p234
sVcomment
p235
g4
sVsize
p236
I0
ssVheaders
p237
(lp238
sVheadersSize
p239
I721
sVredirectURL
p240
g4
sVbodySize
p241
I34292
sVhttpVersion
p242
VHTTP/1.1
p243
ssa(dp244
Vcomment
p245
g4
sVserverIPAddress
p246
V216.58.216.196
p247
sVpageref
p248
VJenna Dewan Tatum
p249
sVstartedDateTime
p250
V2017-04-16T08:11:45.627-05:00
p251
sVcache
p252
(dp253
sVrequest
p254
(dp255
Vcomment
p256
g4
sVcookies
p257
(lp258
sVurl
p259
Vhttps://www.google.com/gen_204?s=mobilewebhp&atyp=csi&ei=kG3zWK-PEouwjwT4noqgAQ&imc=1&imn=1&imp=0&adh=&xjs=init.26.12.sb_mob.17.jsa.2.mbsf.2.dvl.2.r.1&ima=1&rt=xjsls.10,prt.11,iml.11,dcl.48,xjses.124,xjsee.199,xjs.199,ol.227,aft.11,wsrt.160,cst.0,dnst.0,rqst.108,rspt.25,rqstt.51,unt.49,cstt.49,dit.196
p260
sVqueryString
p261
(lp262
(dp263
Vname
p264
g57
sVvalue
p265
Vmobilewebhp
p266
sa(dp267
Vname
p268
Vatyp
p269
sVvalue
p270
Vcsi
p271
sa(dp272
Vname
p273
Vei
p274
sVvalue
p275
VkG3zWK-PEouwjwT4noqgAQ
p276
sa(dp277
Vname
p278
Vimc
p279
sVvalue
p280
g59
sa(dp281
Vname
p282
Vimn
p283
sVvalue
p284
g59
sa(dp285
Vname
p286
Vimp
p287
sVvalue
p288
V0
p289
sa(dp290
Vname
p291
Vadh
p292
sVvalue
p293
g4
sa(dp294
Vname
p295
Vxjs
p296
sVvalue
p297
Vinit.26.12.sb_mob.17.jsa.2.mbsf.2.dvl.2.r.1
p298
sa(dp299
Vname
p300
Vima
p301
sVvalue
p302
g59
sa(dp303
Vname
p304
Vrt
p305
sVvalue
p306
Vxjsls.10,prt.11,iml.11,dcl.48,xjses.124,xjsee.199,xjs.199,ol.227,aft.11,wsrt.160,cst.0,dnst.0,rqst.108,rspt.25,rqstt.51,unt.49,cstt.49,dit.196
p307
sasVheaders
p308
(lp309
sVheadersSize
p310
I830
sVbodySize
p311
I0
sVmethod
p312
VGET
p313
sVhttpVersion
p314
VHTTP/1.1
p315
ssVtimings
p316
(dp317
Vcomment
p318
g4
sVreceive
p319
I0
sVsend
p320
I0
sVssl
p321
I-1
sVconnect
p322
I-1
sVdns
p323
I-1
sVwait
p324
I26
sVblocked
p325
I-1
ssVtime
p326
I26
sVresponse
p327
(dp328
Vstatus
p329
I204
sVcomment
p330
g4
sVcookies
p331
(lp332
sVstatusText
p333
VNo Content
p334
sVcontent
p335
(dp336
VmimeType
p337
Vtext/html; charset=UTF-8
p338
sVcomment
p339
g4
sVsize
p340
I0
ssVheaders
p341
(lp342
sVheadersSize
p343
I248
sVredirectURL
p344
g4
sVbodySize
p345
I0
sVhttpVersion
p346
VHTTP/1.1
p347
ssa(dp348
Vcomment
p349
g4
sVserverIPAddress
p350
V216.58.216.196
p351
sVpageref
p352
VJenna Dewan Tatum
p353
sVstartedDateTime
p354
V2017-04-16T08:11:45.759-05:00
p355
sVcache
p356
(dp357
sVrequest
p358
(dp359
Vcomment
p360
g4
sVcookies
p361
(lp362
sVurl
p363
Vhttps://www.google.com/complete/search?client=mobile-gws-hp&hl=en&gs_rn=64&gs_ri=mobile-gws-hp&sla=1&pfq=jodie%20sweetin&gm=602&cp=0&gs_id=1&xhr=t&q=J&tch=1&ech=1&psi=kG3zWK-PEouwjwT4noqgAQ.1492348305567.1
p364
sVqueryString
p365
(lp366
(dp367
Vname
p368
Vclient
p369
sVvalue
p370
Vmobile-gws-hp
p371
sa(dp372
Vname
p373
Vhl
p374
sVvalue
p375
Ven
p376
sa(dp377
Vname
p378
Vgs_rn
p379
sVvalue
p380
V64
p381
sa(dp382
Vname
p383
Vgs_ri
p384
sVvalue
p385
Vmobile-gws-hp
p386
sa(dp387
Vname
p388
Vsla
p389
sVvalue
p390
g59
sa(dp391
Vname
p392
Vpfq
p393
sVvalue
p394
Vjodie sweetin
p395
sa(dp396
Vname
p397
Vgm
p398
sVvalue
p399
V602
p400
sa(dp401
Vname
p402
Vcp
p403
sVvalue
p404
g289
sa(dp405
Vname
p406
Vgs_id
p407
sVvalue
p408
g59
sa(dp409
Vname
p410
Vxhr
p411
sVvalue
p412
g52
sa(dp413
Vname
p414
Vq
p415
sVvalue
p416
VJ
p417
sa(dp418
Vname
p419
Vtch
p420
sVvalue
p421
g59
sa(dp422
Vname
p423
Vech
p424
sVvalue
p425
g59
sa(dp426
Vname
p427
Vpsi
p428
sVvalue
p429
VkG3zWK-PEouwjwT4noqgAQ.1492348305567.1
p430
sasVheaders
p431
(lp432
sVheadersSize
p433
I733
sVbodySize
p434
I0
sVmethod
p435
VGET
p436
sVhttpVersion
p437
VHTTP/1.1
p438
ssVtimings
p439
(dp440
Vcomment
p441
g4
sVreceive
p442
I0
sVsend
p443
I0
sVssl
p444
I-1
sVconnect
p445
I-1
sVdns
p446
I-1
sVwait
p447
I0
sVblocked
p448
I-1
ssVtime
p449
I0
sVresponse
p450
(dp451
Vstatus
p452
I0
sVcomment
p453
g4
sVcookies
p454
(lp455
sV_error
p456
VNo response received
p457
sVstatusText
p458
g4
sVcontent
p459
(dp460
VmimeType
p461
g4
sVcomment
p462
g4
sVsize
p463
I0
ssVheaders
p464
(lp465
sVheadersSize
p466
I-1
sVredirectURL
p467
g4
sVbodySize
p468
I-1
sVhttpVersion
p469
Vunknown
p470
ssa(dp471
Vcomment
p472
g4
sVserverIPAddress
p473
V216.58.216.196
p474
sVpageref
p475
VJenna Dewan Tatum
p476
sVstartedDateTime
p477
V2017-04-16T08:11:45.844-05:00
p478
sVcache
p479
(dp480
sVrequest
p481
(dp482
Vcomment
p483
g4
sVcookies
p484
(lp485
sVurl
p486
Vhttps://www.google.com/search?site=&source=hp&ei=kG3zWK-PEouwjwT4noqgAQ&q=Jenna+Dewan+Tatum&oq=Jenna+Dewan+Tatum&gs_l=mobile-gws-hp.3...172.223.0.249.17.1.0.0.0.0.0.0..0.0....0...1c.1.64.mobile-gws-hp..17.0.0.Pi4nT1_BSGQ
p487
sVqueryString
p488
(lp489
(dp490
Vname
p491
Vsite
p492
sVvalue
p493
g4
sa(dp494
Vname
p495
Vsource
p496
sVvalue
p497
Vhp
p498
sa(dp499
Vname
p500
Vei
p501
sVvalue
p502
VkG3zWK-PEouwjwT4noqgAQ
p503
sa(dp504
Vname
p505
g415
sVvalue
p506
VJenna Dewan Tatum
p507
sa(dp508
Vname
p509
Voq
p510
sVvalue
p511
VJenna Dewan Tatum
p512
sa(dp513
Vname
p514
Vgs_l
p515
sVvalue
p516
Vmobile-gws-hp.3...172.223.0.249.17.1.0.0.0.0.0.0..0.0....0...1c.1.64.mobile-gws-hp..17.0.0.Pi4nT1_BSGQ
p517
sasVheaders
p518
(lp519
sVheadersSize
p520
I838
sVbodySize
p521
I0
sVmethod
p522
VGET
p523
sVhttpVersion
p524
VHTTP/1.1
p525
ssVtimings
p526
(dp527
Vcomment
p528
g4
sVreceive
p529
I792
sVsend
p530
I0
sVssl
p531
I-1
sVconnect
p532
I-1
sVdns
p533
I-1
sVwait
p534
I112
sVblocked
p535
I-1
ssVtime
p536
I904
sVresponse
p537
(dp538
Vstatus
p539
I200
sVcomment
p540
g4
sVcookies
p541
(lp542
sVstatusText
p543
VOK
p544
sVcontent
p545
(dp546
VmimeType
p547
Vtext/html; charset=UTF-8
p548
sVcomment
p549
g4
sVsize
p550
I0
ssVheaders
p551
(lp552
sVheadersSize
p553
I363
sVredirectURL
p554
g4
sVbodySize
p555
I209140
sVhttpVersion
p556
VHTTP/1.1
p557
ssa(dp558
Vcomment
p559
g4
sVserverIPAddress
p560
V216.58.216.196
p561
sVpageref
p562
VJenna Dewan Tatum
p563
sVstartedDateTime
p564
V2017-04-16T08:11:47.599-05:00
p565
sVcache
p566
(dp567
sVrequest
p568
(dp569
Vcomment
p570
g4
sVcookies
p571
(lp572
sVurl
p573
Vhttps://www.google.com/gen_204?atyp=i&ct=&cad=&uact=1&vet=10ahUKEwik_t7UhqnTAhVn34MKHYoRBnkQ9V8INCgA..s&ei=kG3zWKT2NOe-jwSKo5jIBw&zx=1492348307598
p574
sVqueryString
p575
(lp576
(dp577
Vname
p578
Vatyp
p579
sVvalue
p580
g30
sa(dp581
Vname
p582
Vct
p583
sVvalue
p584
g4
sa(dp585
Vname
p586
Vcad
p587
sVvalue
p588
g4
sa(dp589
Vname
p590
Vuact
p591
sVvalue
p592
g59
sa(dp593
Vname
p594
Vvet
p595
sVvalue
p596
V10ahUKEwik_t7UhqnTAhVn34MKHYoRBnkQ9V8INCgA..s
p597
sa(dp598
Vname
p599
Vei
p600
sVvalue
p601
VkG3zWKT2NOe-jwSKo5jIBw
p602
sa(dp603
Vname
p604
Vzx
p605
sVvalue
p606
V1492348307598
p607
sasVheaders
p608
(lp609
sVheadersSize
p610
I663
sVbodySize
p611
I0
sVmethod
p612
VGET
p613
sVhttpVersion
p614
VHTTP/1.1
p615
ssVtimings
p616
(dp617
Vcomment
p618
g4
sVreceive
p619
I0
sVsend
p620
I0
sVssl
p621
I-1
sVconnect
p622
I-1
sVdns
p623
I-1
sVwait
p624
I27
sVblocked
p625
I-1
ssVtime
p626
I27
sVresponse
p627
(dp628
Vstatus
p629
I204
sVcomment
p630
g4
sVcookies
p631
(lp632
sVstatusText
p633
VNo Content
p634
sVcontent
p635
(dp636
VmimeType
p637
Vtext/html; charset=UTF-8
p638
sVcomment
p639
g4
sVsize
p640
I0
ssVheaders
p641
(lp642
sVheadersSize
p643
I248
sVredirectURL
p644
g4
sVbodySize
p645
I0
sVhttpVersion
p646
VHTTP/1.1
p647
ssa(dp648
Vcomment
p649
g4
sVserverIPAddress
p650
V216.58.216.196
p651
sVpageref
p652
VJenna Dewan Tatum
p653
sVstartedDateTime
p654
V2017-04-16T08:11:47.602-05:00
p655
sVcache
p656
(dp657
sVrequest
p658
(dp659
Vcomment
p660
g4
sVcookies
p661
(lp662
sVurl
p663
Vhttps://www.google.com/gen_204?atyp=i&ct=&cad=&uact=1&vet=10ahUKEwik_t7UhqnTAhVn34MKHYoRBnkQ9V8INSgB..s&ei=kG3zWKT2NOe-jwSKo5jIBw&zx=1492348307600
p664
sVqueryString
p665
(lp666
(dp667
Vname
p668
Vatyp
p669
sVvalue
p670
g30
sa(dp671
Vname
p672
Vct
p673
sVvalue
p674
g4
sa(dp675
Vname
p676
Vcad
p677
sVvalue
p678
g4
sa(dp679
Vname
p680
Vuact
p681
sVvalue
p682
g59
sa(dp683
Vname
p684
Vvet
p685
sVvalue
p686
V10ahUKEwik_t7UhqnTAhVn34MKHYoRBnkQ9V8INSgB..s
p687
sa(dp688
Vname
p689
Vei
p690
sVvalue
p691
VkG3zWKT2NOe-jwSKo5jIBw
p692
sa(dp693
Vname
p694
Vzx
p695
sVvalue
p696
V1492348307600
p697
sasVheaders
p698
(lp699
sVheadersSize
p700
I663
sVbodySize
p701
I0
sVmethod
p702
VGET
p703
sVhttpVersion
p704
VHTTP/1.1
p705
ssVtimings
p706
(dp707
Vcomment
p708
g4
sVreceive
p709
I0
sVsend
p710
I0
sVssl
p711
I-1
sVconnect
p712
I-1
sVdns
p713
I-1
sVwait
p714
I30
sVblocked
p715
I-1
ssVtime
p716
I31
sVresponse
p717
(dp718
Vstatus
p719
I204
sVcomment
p720
g4
sVcookies
p721
(lp722
sVstatusText
p723
VNo Content
p724
sVcontent
p725
(dp726
VmimeType
p727
Vtext/html; charset=UTF-8
p728
sVcomment
p729
g4
sVsize
p730
I0
ssVheaders
p731
(lp732
sVheadersSize
p733
I248
sVredirectURL
p734
g4
sVbodySize
p735
I0
sVhttpVersion
p736
VHTTP/1.1
p737
ssa(dp738
Vcomment
p739
g4
sVserverIPAddress
p740
V216.58.216.196
p741
sVpageref
p742
VJenna Dewan Tatum
p743
sVstartedDateTime
p744
V2017-04-16T08:11:47.617-05:00
p745
sVcache
p746
(dp747
sVrequest
p748
(dp749
Vcomment
p750
g4
sVcookies
p751
(lp752
sVurl
p753
Vhttps://www.google.com/async/irc?vet=10ahUKEwik_t7UhqnTAhVn34MKHYoRBnkQo0EIswI..i&ved=0ahUKEwik_t7UhqnTAhVn34MKHYoRBnkQo0EIswI&ei=kG3zWKT2NOe-jwSKo5jIBw&yv=2&async=iu:1,ved:0ahUKEwik_t7UhqnTAhVn34MKHYoRBnkQo0EIswI,_id:irc_async,_pms:qs
p754
sVqueryString
p755
(lp756
(dp757
Vname
p758
Vvet
p759
sVvalue
p760
V10ahUKEwik_t7UhqnTAhVn34MKHYoRBnkQo0EIswI..i
p761
sa(dp762
Vname
p763
Vved
p764
sVvalue
p765
V0ahUKEwik_t7UhqnTAhVn34MKHYoRBnkQo0EIswI
p766
sa(dp767
Vname
p768
Vei
p769
sVvalue
p770
VkG3zWKT2NOe-jwSKo5jIBw
p771
sa(dp772
Vname
p773
Vyv
p774
sVvalue
p775
g64
sa(dp776
Vname
p777
Vasync
p778
sVvalue
p779
Viu:1,ved:0ahUKEwik_t7UhqnTAhVn34MKHYoRBnkQo0EIswI,_id:irc_async,_pms:qs
p780
sasVheaders
p781
(lp782
sVheadersSize
p783
I752
sVbodySize
p784
I0
sVmethod
p785
VGET
p786
sVhttpVersion
p787
VHTTP/1.1
p788
ssVtimings
p789
(dp790
Vcomment
p791
g4
sVreceive
p792
I1
sVsend
p793
I0
sVssl
p794
I-1
sVconnect
p795
I-1
sVdns
p796
I-1
sVwait
p797
I48
sVblocked
p798
I-1
ssVtime
p799
I49
sVresponse
p800
(dp801
Vstatus
p802
I200
sVcomment
p803
g4
sVcookies
p804
(lp805
sVstatusText
p806
VOK
p807
sVcontent
p808
(dp809
VmimeType
p810
Vtext/html; charset=UTF-8
p811
sVcomment
p812
g4
sVsize
p813
I0
ssVheaders
p814
(lp815
sVheadersSize
p816
I383
sVredirectURL
p817
g4
sVbodySize
p818
I7788
sVhttpVersion
p819
VHTTP/1.1
p820
ssa(dp821
Vcomment
p822
g4
sVserverIPAddress
p823
V216.58.216.196
p824
sVpageref
p825
VJenna Dewan Tatum
p826
sVstartedDateTime
p827
V2017-04-16T08:11:47.624-05:00
p828
sVcache
p829
(dp830
sVrequest
p831
(dp832
Vcomment
p833
g4
sVcookies
p834
(lp835
sVurl
p836
Vhttps://www.google.com/gen_204?atyp=i&ct=&cad=&vet=10ahUKEwik_t7UhqnTAhVn34MKHYoRBnkQ5W0IQigC..s&ei=kG3zWKT2NOe-jwSKo5jIBw&zx=1492348307623
p837
sVqueryString
p838
(lp839
(dp840
Vname
p841
Vatyp
p842
sVvalue
p843
g30
sa(dp844
Vname
p845
Vct
p846
sVvalue
p847
g4
sa(dp848
Vname
p849
Vcad
p850
sVvalue
p851
g4
sa(dp852
Vname
p853
Vvet
p854
sVvalue
p855
V10ahUKEwik_t7UhqnTAhVn34MKHYoRBnkQ5W0IQigC..s
p856
sa(dp857
Vname
p858
Vei
p859
sVvalue
p860
VkG3zWKT2NOe-jwSKo5jIBw
p861
sa(dp862
Vname
p863
Vzx
p864
sVvalue
p865
V1492348307623
p866
sasVheaders
p867
(lp868
sVheadersSize
p869
I656
sVbodySize
p870
I0
sVmethod
p871
VGET
p872
sVhttpVersion
p873
VHTTP/1.1
p874
ssVtimings
p875
(dp876
Vcomment
p877
g4
sVreceive
p878
I0
sVsend
p879
I0
sVssl
p880
I-1
sVconnect
p881
I-1
sVdns
p882
I-1
sVwait
p883
I29
sVblocked
p884
I-1
ssVtime
p885
I30
sVresponse
p886
(dp887
Vstatus
p888
I204
sVcomment
p889
g4
sVcookies
p890
(lp891
sVstatusText
p892
VNo Content
p893
sVcontent
p894
(dp895
VmimeType
p896
Vtext/html; charset=UTF-8
p897
sVcomment
p898
g4
sVsize
p899
I0
ssVheaders
p900
(lp901
sVheadersSize
p902
I248
sVredirectURL
p903
g4
sVbodySize
p904
I0
sVhttpVersion
p905
VHTTP/1.1
p906
ssa(dp907
Vcomment
p908
g4
sVserverIPAddress
p909
V216.58.216.196
p910
sVpageref
p911
VJenna Dewan Tatum
p912
sVstartedDateTime
p913
V2017-04-16T08:11:47.628-05:00
p914
sVcache
p915
(dp916
sVrequest
p917
(dp918
Vcomment
p919
g4
sVcookies
p920
(lp921
sVurl
p922
Vhttps://www.google.com/gen_204?atyp=i&ct=&cad=&vet=10ahUKEwik_t7UhqnTAhVn34MKHYoRBnkQ5W0ISCgE..s&ei=kG3zWKT2NOe-jwSKo5jIBw&zx=1492348307627
p923
sVqueryString
p924
(lp925
(dp926
Vname
p927
Vatyp
p928
sVvalue
p929
g30
sa(dp930
Vname
p931
Vct
p932
sVvalue
p933
g4
sa(dp934
Vname
p935
Vcad
p936
sVvalue
p937
g4
sa(dp938
Vname
p939
Vvet
p940
sVvalue
p941
V10ahUKEwik_t7UhqnTAhVn34MKHYoRBnkQ5W0ISCgE..s
p942
sa(dp943
Vname
p944
Vei
p945
sVvalue
p946
VkG3zWKT2NOe-jwSKo5jIBw
p947
sa(dp948
Vname
p949
Vzx
p950
sVvalue
p951
V1492348307627
p952
sasVheaders
p953
(lp954
sVheadersSize
p955
I656
sVbodySize
p956
I0
sVmethod
p957
VGET
p958
sVhttpVersion
p959
VHTTP/1.1
p960
ssVtimings
p961
(dp962
Vcomment
p963
g4
sVreceive
p964
I0
sVsend
p965
I0
sVssl
p966
I-1
sVconnect
p967
I-1
sVdns
p968
I-1
sVwait
p969
I31
sVblocked
p970
I-1
ssVtime
p971
I31
sVresponse
p972
(dp973
Vstatus
p974
I204
sVcomment
p975
g4
sVcookies
p976
(lp977
sVstatusText
p978
VNo Content
p979
sVcontent
p980
(dp981
VmimeType
p982
Vtext/html; charset=UTF-8
p983
sVcomment
p984
g4
sVsize
p985
I0
ssVheaders
p986
(lp987
sVheadersSize
p988
I248
sVredirectURL
p989
g4
sVbodySize
p990
I0
sVhttpVersion
p991
VHTTP/1.1
p992
ssa(dp993
Vcomment
p994
g4
sVserverIPAddress
p995
V216.58.216.196
p996
sVpageref
p997
VJenna Dewan Tatum
p998
sVstartedDateTime
p999
V2017-04-16T08:11:47.634-05:00
p1000
sVcache
p1001
(dp1002
sVrequest
p1003
(dp1004
Vcomment
p1005
g4
sVcookies
p1006
(lp1007
sVurl
p1008
Vhttps://www.google.com/gen_204?atyp=i&ct=&cad=&vet=10ahUKEwik_t7UhqnTAhVn34MKHYoRBnkQ5W0ITigG..s&ei=kG3zWKT2NOe-jwSKo5jIBw&zx=1492348307631
p1009
sVqueryString
p1010
(lp1011
(dp1012
Vname
p1013
Vatyp
p1014
sVvalue
p1015
g30
sa(dp1016
Vname
p1017
Vct
p1018
sVvalue
p1019
g4
sa(dp1020
Vname
p1021
Vcad
p1022
sVvalue
p1023
g4
sa(dp1024
Vname
p1025
Vvet
p1026
sVvalue
p1027
V10ahUKEwik_t7UhqnTAhVn34MKHYoRBnkQ5W0ITigG..s
p1028
sa(dp1029
Vname
p1030
Vei
p1031
sVvalue
p1032
VkG3zWKT2NOe-jwSKo5jIBw
p1033
sa(dp1034
Vname
p1035
Vzx
p1036
sVvalue
p1037
V1492348307631
p1038
sasVheaders
p1039
(lp1040
sVheadersSize
p1041
I656
sVbodySize
p1042
I0
sVmethod
p1043
VGET
p1044
sVhttpVersion
p1045
VHTTP/1.1
p1046
ssVtimings
p1047
(dp1048
Vcomment
p1049
g4
sVreceive
p1050
I0
sVsend
p1051
I0
sVssl
p1052
I-1
sVconnect
p1053
I-1
sVdns
p1054
I-1
sVwait
p1055
I32
sVblocked
p1056
I-1
ssVtime
p1057
I32
sVresponse
p1058
(dp1059
Vstatus
p1060
I204
sVcomment
p1061
g4
sVcookies
p1062
(lp1063
sVstatusText
p1064
VNo Content
p1065
sVcontent
p1066
(dp1067
VmimeType
p1068
Vtext/html; charset=UTF-8
p1069
sVcomment
p1070
g4
sVsize
p1071
I0
ssVheaders
p1072
(lp1073
sVheadersSize
p1074
I248
sVredirectURL
p1075
g4
sVbodySize
p1076
I0
sVhttpVersion
p1077
VHTTP/1.1
p1078
ssa(dp1079
Vcomment
p1080
g4
sVserverIPAddress
p1081
V216.58.216.196
p1082
sVpageref
p1083
VJenna Dewan Tatum
p1084
sVstartedDateTime
p1085
V2017-04-16T08:11:47.654-05:00
p1086
sVcache
p1087
(dp1088
sVrequest
p1089
(dp1090
Vcomment
p1091
g4
sVcookies
p1092
(lp1093
sVurl
p1094
Vhttps://www.google.com/gen_204?atyp=i&ct=&cad=&vet=10ahUKEwik_t7UhqnTAhVn34MKHYoRBnkQ5W0IUSgH..s&ei=kG3zWKT2NOe-jwSKo5jIBw&zx=1492348307633
p1095
sVqueryString
p1096
(lp1097
(dp1098
Vname
p1099
Vatyp
p1100
sVvalue
p1101
g30
sa(dp1102
Vname
p1103
Vct
p1104
sVvalue
p1105
g4
sa(dp1106
Vname
p1107
Vcad
p1108
sVvalue
p1109
g4
sa(dp1110
Vname
p1111
Vvet
p1112
sVvalue
p1113
V10ahUKEwik_t7UhqnTAhVn34MKHYoRBnkQ5W0IUSgH..s
p1114
sa(dp1115
Vname
p1116
Vei
p1117
sVvalue
p1118
VkG3zWKT2NOe-jwSKo5jIBw
p1119
sa(dp1120
Vname
p1121
Vzx
p1122
sVvalue
p1123
V1492348307633
p1124
sasVheaders
p1125
(lp1126
sVheadersSize
p1127
I656
sVbodySize
p1128
I0
sVmethod
p1129
VGET
p1130
sVhttpVersion
p1131
VHTTP/1.1
p1132
ssVtimings
p1133
(dp1134
Vcomment
p1135
g4
sVreceive
p1136
I0
sVsend
p1137
I0
sVssl
p1138
I-1
sVconnect
p1139
I-1
sVdns
p1140
I-1
sVwait
p1141
I44
sVblocked
p1142
I-1
ssVtime
p1143
I45
sVresponse
p1144
(dp1145
Vstatus
p1146
I204
sVcomment
p1147
g4
sVcookies
p1148
(lp1149
sVstatusText
p1150
VNo Content
p1151
sVcontent
p1152
(dp1153
VmimeType
p1154
Vtext/html; charset=UTF-8
p1155
sVcomment
p1156
g4
sVsize
p1157
I0
ssVheaders
p1158
(lp1159
sVheadersSize
p1160
I248
sVredirectURL
p1161
g4
sVbodySize
p1162
I0
sVhttpVersion
p1163
VHTTP/1.1
p1164
ssa(dp1165
Vcomment
p1166
g4
sVserverIPAddress
p1167
V216.58.216.196
p1168
sVpageref
p1169
VJenna Dewan Tatum
p1170
sVstartedDateTime
p1171
V2017-04-16T08:11:47.661-05:00
p1172
sVcache
p1173
(dp1174
sVrequest
p1175
(dp1176
Vcomment
p1177
g4
sVcookies
p1178
(lp1179
sVurl
p1180
Vhttps://www.google.com/gen_204?atyp=i&ct=&cad=&vet=10ahUKEwik_t7UhqnTAhVn34MKHYoRBnkQ5W0IVCgI..s&ei=kG3zWKT2NOe-jwSKo5jIBw&zx=1492348307637
p1181
sVqueryString
p1182
(lp1183
(dp1184
Vname
p1185
Vatyp
p1186
sVvalue
p1187
g30
sa(dp1188
Vname
p1189
Vct
p1190
sVvalue
p1191
g4
sa(dp1192
Vname
p1193
Vcad
p1194
sVvalue
p1195
g4
sa(dp1196
Vname
p1197
Vvet
p1198
sVvalue
p1199
V10ahUKEwik_t7UhqnTAhVn34MKHYoRBnkQ5W0IVCgI..s
p1200
sa(dp1201
Vname
p1202
Vei
p1203
sVvalue
p1204
VkG3zWKT2NOe-jwSKo5jIBw
p1205
sa(dp1206
Vname
p1207
Vzx
p1208
sVvalue
p1209
V1492348307637
p1210
sasVheaders
p1211
(lp1212
sVheadersSize
p1213
I656
sVbodySize
p1214
I0
sVmethod
p1215
VGET
p1216
sVhttpVersion
p1217
VHTTP/1.1
p1218
ssVtimings
p1219
(dp1220
Vcomment
p1221
g4
sVreceive
p1222
I0
sVsend
p1223
I0
sVssl
p1224
I-1
sVconnect
p1225
I-1
sVdns
p1226
I-1
sVwait
p1227
I36
sVblocked
p1228
I-1
ssVtime
p1229
I36
sVresponse
p1230
(dp1231
Vstatus
p1232
I204
sVcomment
p1233
g4
sVcookies
p1234
(lp1235
sVstatusText
p1236
VNo Content
p1237
sVcontent
p1238
(dp1239
VmimeType
p1240
Vtext/html; charset=UTF-8
p1241
sVcomment
p1242
g4
sVsize
p1243
I0
ssVheaders
p1244
(lp1245
sVheadersSize
p1246
I248
sVredirectURL
p1247
g4
sVbodySize
p1248
I0
sVhttpVersion
p1249
VHTTP/1.1
p1250
ssa(dp1251
Vcomment
p1252
g4
sVserverIPAddress
p1253
V216.58.216.196
p1254
sVpageref
p1255
VJenna Dewan Tatum
p1256
sVstartedDateTime
p1257
V2017-04-16T08:11:47.661-05:00
p1258
sVcache
p1259
(dp1260
sVrequest
p1261
(dp1262
Vcomment
p1263
g4
sVcookies
p1264
(lp1265
sVurl
p1266
Vhttps://www.google.com/gen_204?atyp=i&ct=&cad=&vet=10ahUKEwik_t7UhqnTAhVn34MKHYoRBnkQ5W0IRSgD..s&ei=kG3zWKT2NOe-jwSKo5jIBw&zx=1492348307624
p1267
sVqueryString
p1268
(lp1269
(dp1270
Vname
p1271
Vatyp
p1272
sVvalue
p1273
g30
sa(dp1274
Vname
p1275
Vct
p1276
sVvalue
p1277
g4
sa(dp1278
Vname
p1279
Vcad
p1280
sVvalue
p1281
g4
sa(dp1282
Vname
p1283
Vvet
p1284
sVvalue
p1285
V10ahUKEwik_t7UhqnTAhVn34MKHYoRBnkQ5W0IRSgD..s
p1286
sa(dp1287
Vname
p1288
Vei
p1289
sVvalue
p1290
VkG3zWKT2NOe-jwSKo5jIBw
p1291
sa(dp1292
Vname
p1293
Vzx
p1294
sVvalue
p1295
V1492348307624
p1296
sasVheaders
p1297
(lp1298
sVheadersSize
p1299
I656
sVbodySize
p1300
I0
sVmethod
p1301
VGET
p1302
sVhttpVersion
p1303
VHTTP/1.1
p1304
ssVtimings
p1305
(dp1306
Vcomment
p1307
g4
sVreceive
p1308
I0
sVsend
p1309
I0
sVssl
p1310
I15
sVconnect
p1311
I32
sVdns
p1312
I1
sVwait
p1313
I36
sVblocked
p1314
I0
ssVtime
p1315
I70
sVresponse
p1316
(dp1317
Vstatus
p1318
I204
sVcomment
p1319
g4
sVcookies
p1320
(lp1321
sVstatusText
p1322
VNo Content
p1323
sVcontent
p1324
(dp1325
VmimeType
p1326
Vtext/html; charset=UTF-8
p1327
sVcomment
p1328
g4
sVsize
p1329
I0
ssVheaders
p1330
(lp1331
sVheadersSize
p1332
I248
sVredirectURL
p1333
g4
sVbodySize
p1334
I0
sVhttpVersion
p1335
VHTTP/1.1
p1336
ssa(dp1337
Vcomment
p1338
g4
sVserverIPAddress
p1339
V216.58.216.196
p1340
sVpageref
p1341
VJenna Dewan Tatum
p1342
sVstartedDateTime
p1343
V2017-04-16T08:11:47.667-05:00
p1344
sVcache
p1345
(dp1346
sVrequest
p1347
(dp1348
Vcomment
p1349
g4
sVcookies
p1350
(lp1351
sVurl
p1352
Vhttps://www.google.com/gen_204?atyp=i&ct=&cad=&vet=10ahUKEwik_t7UhqnTAhVn34MKHYoRBnkQ5W0IVygJ..s&ei=kG3zWKT2NOe-jwSKo5jIBw&zx=1492348307639
p1353
sVqueryString
p1354
(lp1355
(dp1356
Vname
p1357
Vatyp
p1358
sVvalue
p1359
g30
sa(dp1360
Vname
p1361
Vct
p1362
sVvalue
p1363
g4
sa(dp1364
Vname
p1365
Vcad
p1366
sVvalue
p1367
g4
sa(dp1368
Vname
p1369
Vvet
p1370
sVvalue
p1371
V10ahUKEwik_t7UhqnTAhVn34MKHYoRBnkQ5W0IVygJ..s
p1372
sa(dp1373
Vname
p1374
Vei
p1375
sVvalue
p1376
VkG3zWKT2NOe-jwSKo5jIBw
p1377
sa(dp1378
Vname
p1379
Vzx
p1380
sVvalue
p1381
V1492348307639
p1382
sasVheaders
p1383
(lp1384
sVheadersSize
p1385
I656
sVbodySize
p1386
I0
sVmethod
p1387
VGET
p1388
sVhttpVersion
p1389
VHTTP/1.1
p1390
ssVtimings
p1391
(dp1392
Vcomment
p1393
g4
sVreceive
p1394
I0
sVsend
p1395
I0
sVssl
p1396
I-1
sVconnect
p1397
I-1
sVdns
p1398
I-1
sVwait
p1399
I32
sVblocked
p1400
I-1
ssVtime
p1401
I32
sVresponse
p1402
(dp1403
Vstatus
p1404
I204
sVcomment
p1405
g4
sVcookies
p1406
(lp1407
sVstatusText
p1408
VNo Content
p1409
sVcontent
p1410
(dp1411
VmimeType
p1412
Vtext/html; charset=UTF-8
p1413
sVcomment
p1414
g4
sVsize
p1415
I0
ssVheaders
p1416
(lp1417
sVheadersSize
p1418
I248
sVredirectURL
p1419
g4
sVbodySize
p1420
I0
sVhttpVersion
p1421
VHTTP/1.1
p1422
ssa(dp1423
Vcomment
p1424
g4
sVserverIPAddress
p1425
V216.58.216.196
p1426
sVpageref
p1427
VJenna Dewan Tatum
p1428
sVstartedDateTime
p1429
V2017-04-16T08:11:47.669-05:00
p1430
sVcache
p1431
(dp1432
sVrequest
p1433
(dp1434
Vcomment
p1435
g4
sVcookies
p1436
(lp1437
sVurl
p1438
Vhttps://www.google.com/gen_204?atyp=i&ct=&cad=&vet=10ahUKEwik_t7UhqnTAhVn34MKHYoRBnkQ5W0ISygF..s&ei=kG3zWKT2NOe-jwSKo5jIBw&zx=1492348307629
p1439
sVqueryString
p1440
(lp1441
(dp1442
Vname
p1443
Vatyp
p1444
sVvalue
p1445
g30
sa(dp1446
Vname
p1447
Vct
p1448
sVvalue
p1449
g4
sa(dp1450
Vname
p1451
Vcad
p1452
sVvalue
p1453
g4
sa(dp1454
Vname
p1455
Vvet
p1456
sVvalue
p1457
V10ahUKEwik_t7UhqnTAhVn34MKHYoRBnkQ5W0ISygF..s
p1458
sa(dp1459
Vname
p1460
Vei
p1461
sVvalue
p1462
VkG3zWKT2NOe-jwSKo5jIBw
p1463
sa(dp1464
Vname
p1465
Vzx
p1466
sVvalue
p1467
V1492348307629
p1468
sasVheaders
p1469
(lp1470
sVheadersSize
p1471
I656
sVbodySize
p1472
I0
sVmethod
p1473
VGET
p1474
sVhttpVersion
p1475
VHTTP/1.1
p1476
ssVtimings
p1477
(dp1478
Vcomment
p1479
g4
sVreceive
p1480
I0
sVsend
p1481
I0
sVssl
p1482
I17
sVconnect
p1483
I37
sVdns
p1484
I0
sVwait
p1485
I29
sVblocked
p1486
I0
ssVtime
p1487
I67
sVresponse
p1488
(dp1489
Vstatus
p1490
I204
sVcomment
p1491
g4
sVcookies
p1492
(lp1493
sVstatusText
p1494
VNo Content
p1495
sVcontent
p1496
(dp1497
VmimeType
p1498
Vtext/html; charset=UTF-8
p1499
sVcomment
p1500
g4
sVsize
p1501
I0
ssVheaders
p1502
(lp1503
sVheadersSize
p1504
I248
sVredirectURL
p1505
g4
sVbodySize
p1506
I0
sVhttpVersion
p1507
VHTTP/1.1
p1508
ssa(dp1509
Vcomment
p1510
g4
sVserverIPAddress
p1511
V216.58.216.196
p1512
sVpageref
p1513
VJenna Dewan Tatum
p1514
sVstartedDateTime
p1515
V2017-04-16T08:11:47.754-05:00
p1516
sVcache
p1517
(dp1518
sVrequest
p1519
(dp1520
Vcomment
p1521
g4
sVcookies
p1522
(lp1523
sVurl
p1524
Vhttps://www.google.com/async/ampfp?vet=10ahUKEwik_t7UhqnTAhVn34MKHYoRBnkQtZoBCLEC..i&ei=kG3zWKT2NOe-jwSKo5jIBw&yv=2&async=_id:ampfp-async,_pms:qs
p1525
sVqueryString
p1526
(lp1527
(dp1528
Vname
p1529
Vvet
p1530
sVvalue
p1531
V10ahUKEwik_t7UhqnTAhVn34MKHYoRBnkQtZoBCLEC..i
p1532
sa(dp1533
Vname
p1534
Vei
p1535
sVvalue
p1536
VkG3zWKT2NOe-jwSKo5jIBw
p1537
sa(dp1538
Vname
p1539
Vyv
p1540
sVvalue
p1541
g64
sa(dp1542
Vname
p1543
Vasync
p1544
sVvalue
p1545
V_id:ampfp-async,_pms:qs
p1546
sasVheaders
p1547
(lp1548
sVheadersSize
p1549
I662
sVbodySize
p1550
I0
sVmethod
p1551
VGET
p1552
sVhttpVersion
p1553
VHTTP/1.1
p1554
ssVtimings
p1555
(dp1556
Vcomment
p1557
g4
sVreceive
p1558
I0
sVsend
p1559
I0
sVssl
p1560
I-1
sVconnect
p1561
I-1
sVdns
p1562
I-1
sVwait
p1563
I45
sVblocked
p1564
I-1
ssVtime
p1565
I46
sVresponse
p1566
(dp1567
Vstatus
p1568
I200
sVcomment
p1569
g4
sVcookies
p1570
(lp1571
sVstatusText
p1572
VOK
p1573
sVcontent
p1574
(dp1575
VmimeType
p1576
Vtext/html; charset=UTF-8
p1577
sVcomment
p1578
g4
sVsize
p1579
I0
ssVheaders
p1580
(lp1581
sVheadersSize
p1582
I383
sVredirectURL
p1583
g4
sVbodySize
p1584
I4524
sVhttpVersion
p1585
VHTTP/1.1
p1586
ssa(dp1587
Vcomment
p1588
g4
sVserverIPAddress
p1589
V216.58.216.193
p1590
sVpageref
p1591
VJenna Dewan Tatum
p1592
sVstartedDateTime
p1593
V2017-04-16T08:11:47.755-05:00
p1594
sVcache
p1595
(dp1596
sVrequest
p1597
(dp1598
Vcomment
p1599
g4
sVcookies
p1600
(lp1601
sVurl
p1602
Vhttps://cdn.ampproject.org/preconnect.gif?0.30853993303833793
p1603
sVqueryString
p1604
(lp1605
(dp1606
Vname
p1607
V0.30853993303833793
p1608
sVvalue
p1609
g4
sasVheaders
p1610
(lp1611
sVheadersSize
p1612
I376
sVbodySize
p1613
I0
sVmethod
p1614
VGET
p1615
sVhttpVersion
p1616
VHTTP/1.1
p1617
ssVtimings
p1618
(dp1619
Vcomment
p1620
g4
sVreceive
p1621
I0
sVsend
p1622
I0
sVssl
p1623
I-1
sVconnect
p1624
I-1
sVdns
p1625
I-1
sVwait
p1626
I51
sVblocked
p1627
I-1
ssVtime
p1628
I51
sVresponse
p1629
(dp1630
Vstatus
p1631
I200
sVcomment
p1632
g4
sVcookies
p1633
(lp1634
sVstatusText
p1635
VOK
p1636
sVcontent
p1637
(dp1638
VmimeType
p1639
Vimage/gif
p1640
sVcomment
p1641
g4
sVsize
p1642
I0
ssVheaders
p1643
(lp1644
sVheadersSize
p1645
I826
sVredirectURL
p1646
g4
sVbodySize
p1647
I37
sVhttpVersion
p1648
VHTTP/1.1
p1649
ssa(dp1650
Vcomment
p1651
g4
sVserverIPAddress
p1652
V216.58.216.196
p1653
sVpageref
p1654
VJenna Dewan Tatum
p1655
sVstartedDateTime
p1656
V2017-04-16T08:11:47.919-05:00
p1657
sVcache
p1658
(dp1659
sVrequest
p1660
(dp1661
Vcomment
p1662
g4
sVcookies
p1663
(lp1664
sVurl
p1665
Vhttps://www.google.com/async/log_amp_item_set?vet=10ahUKEwj9xtLVhqnTAhVn7YMKHQh_Dz8QooQBCAE..i&ei=kG3zWKT2NOe-jwSKo5jIBw&yv=2&async=num_items:3,_fmt:jspb
p1666
sVqueryString
p1667
(lp1668
(dp1669
Vname
p1670
Vvet
p1671
sVvalue
p1672
V10ahUKEwj9xtLVhqnTAhVn7YMKHQh_Dz8QooQBCAE..i
p1673
sa(dp1674
Vname
p1675
Vei
p1676
sVvalue
p1677
VkG3zWKT2NOe-jwSKo5jIBw
p1678
sa(dp1679
Vname
p1680
Vyv
p1681
sVvalue
p1682
g64
sa(dp1683
Vname
p1684
Vasync
p1685
sVvalue
p1686
Vnum_items:3,_fmt:jspb
p1687
sasVheaders
p1688
(lp1689
sVheadersSize
p1690
I670
sVbodySize
p1691
I0
sVmethod
p1692
VGET
p1693
sVhttpVersion
p1694
VHTTP/1.1
p1695
ssVtimings
p1696
(dp1697
Vcomment
p1698
g4
sVreceive
p1699
I0
sVsend
p1700
I0
sVssl
p1701
I-1
sVconnect
p1702
I-1
sVdns
p1703
I-1
sVwait
p1704
I37
sVblocked
p1705
I-1
ssVtime
p1706
I37
sVresponse
p1707
(dp1708
Vstatus
p1709
I200
sVcomment
p1710
g4
sVcookies
p1711
(lp1712
sVstatusText
p1713
VOK
p1714
sVcontent
p1715
(dp1716
VmimeType
p1717
Vapplication/json; charset=UTF-8
p1718
sVcomment
p1719
g4
sVsize
p1720
I0
ssVheaders
p1721
(lp1722
sVheadersSize
p1723
I417
sVredirectURL
p1724
g4
sVbodySize
p1725
I148
sVhttpVersion
p1726
VHTTP/1.1
p1727
ssa(dp1728
Vcomment
p1729
g4
sVserverIPAddress
p1730
V216.58.216.193
p1731
sVpageref
p1732
VJenna Dewan Tatum
p1733
sVstartedDateTime
p1734
V2017-04-16T08:11:47.927-05:00
p1735
sVcache
p1736
(dp1737
sVrequest
p1738
(dp1739
Vcomment
p1740
g4
sVcookies
p1741
(lp1742
sVurl
p1743
Vhttps://www-dailymail-co-uk.cdn.ampproject.org/v/www.dailymail.co.uk/tvshowbiz/article-4415686/amp/Jenna-Dewan-Tatum-stylish-red-hat-sexy-maxi-dress-shopping.html?amp_js_v=9
p1744
sVqueryString
p1745
(lp1746
(dp1747
Vname
p1748
Vamp_js_v
p1749
sVvalue
p1750
V9
p1751
sasVheaders
p1752
(lp1753
sVheadersSize
p1754
I578
sVbodySize
p1755
I0
sVmethod
p1756
VGET
p1757
sVhttpVersion
p1758
VHTTP/1.1
p1759
ssVtimings
p1760
(dp1761
Vcomment
p1762
g4
sVreceive
p1763
I1
sVsend
p1764
I0
sVssl
p1765
I-1
sVconnect
p1766
I-1
sVdns
p1767
I-1
sVwait
p1768
I92
sVblocked
p1769
I-1
ssVtime
p1770
I94
sVresponse
p1771
(dp1772
Vstatus
p1773
I200
sVcomment
p1774
g4
sVcookies
p1775
(lp1776
sVstatusText
p1777
VOK
p1778
sVcontent
p1779
(dp1780
VmimeType
p1781
Vtext/html
p1782
sVcomment
p1783
g4
sVsize
p1784
I0
ssVheaders
p1785
(lp1786
sVheadersSize
p1787
I861
sVredirectURL
p1788
g4
sVbodySize
p1789
I13787
sVhttpVersion
p1790
VHTTP/1.1
p1791
ssa(dp1792
Vcomment
p1793
g4
sVserverIPAddress
p1794
V216.58.216.193
p1795
sVpageref
p1796
VJenna Dewan Tatum
p1797
sVstartedDateTime
p1798
V2017-04-16T08:11:48.214-05:00
p1799
sVcache
p1800
(dp1801
sVrequest
p1802
(dp1803
Vcomment
p1804
g4
sVcookies
p1805
(lp1806
sVurl
p1807
Vhttps://i-dailymail-co-uk.cdn.ampproject.org/i/i.dailymail.co.uk/i/pix/2017/04/16/05/3F4A67FE00000578-0-image-a-63_1492315619072.jpg
p1808
sVqueryString
p1809
(lp1810
sVheaders
p1811
(lp1812
sVheadersSize
p1813
I597
sVbodySize
p1814
I0
sVmethod
p1815
VGET
p1816
sVhttpVersion
p1817
VHTTP/1.1
p1818
ssVtimings
p1819
(dp1820
Vcomment
p1821
g4
sVreceive
p1822
I32
sVsend
p1823
I0
sVssl
p1824
I-1
sVconnect
p1825
I-1
sVdns
p1826
I-1
sVwait
p1827
I26
sVblocked
p1828
I-1
ssVtime
p1829
I59
sVresponse
p1830
(dp1831
Vstatus
p1832
I200
sVcomment
p1833
g4
sVcookies
p1834
(lp1835
sVstatusText
p1836
VOK
p1837
sVcontent
p1838
(dp1839
VmimeType
p1840
Vimage/jpeg
p1841
sVcomment
p1842
g4
sVsize
p1843
I0
ssVheaders
p1844
(lp1845
sVheadersSize
p1846
I850
sVredirectURL
p1847
g4
sVbodySize
p1848
I202193
sVhttpVersion
p1849
VHTTP/1.1
p1850
ssa(dp1851
Vcomment
p1852
g4
sVserverIPAddress
p1853
V216.58.216.196
p1854
sVpageref
p1855
VJenna Dewan Tatum
p1856
sVstartedDateTime
p1857
V2017-04-16T08:11:48.355-05:00
p1858
sVcache
p1859
(dp1860
sVrequest
p1861
(dp1862
Vcomment
p1863
g4
sVcookies
p1864
(lp1865
sVurl
p1866
Vhttps://www.google.com/gen_204?s=web&atyp=csi&ei=kG3zWKT2NOe-jwSKo5jIBw&imc=52&imn=52&imp=30&adh=&xjs=init.42.14.sb_mob.25.async.10.dvl.4.c.1.r.1&ima=16&rt=prt.829,iml.1007,xjsls.831,dcl.962,qiml.1207,xjses.1064,xjsee.1206,xjs.1207,ol.2381,aft.1007,wsrt.129,cst.0,dnst.0,rqst.911,rspt.798,rqstt.7,unt.3,cstt.3,dit.1025
p1867
sVqueryString
p1868
(lp1869
(dp1870
Vname
p1871
g57
sVvalue
p1872
Vweb
p1873
sa(dp1874
Vname
p1875
Vatyp
p1876
sVvalue
p1877
Vcsi
p1878
sa(dp1879
Vname
p1880
Vei
p1881
sVvalue
p1882
VkG3zWKT2NOe-jwSKo5jIBw
p1883
sa(dp1884
Vname
p1885
Vimc
p1886
sVvalue
p1887
V52
p1888
sa(dp1889
Vname
p1890
Vimn
p1891
sVvalue
p1892
V52
p1893
sa(dp1894
Vname
p1895
Vimp
p1896
sVvalue
p1897
V30
p1898
sa(dp1899
Vname
p1900
Vadh
p1901
sVvalue
p1902
g4
sa(dp1903
Vname
p1904
Vxjs
p1905
sVvalue
p1906
Vinit.42.14.sb_mob.25.async.10.dvl.4.c.1.r.1
p1907
sa(dp1908
Vname
p1909
Vima
p1910
sVvalue
p1911
V16
p1912
sa(dp1913
Vname
p1914
Vrt
p1915
sVvalue
p1916
Vprt.829,iml.1007,xjsls.831,dcl.962,qiml.1207,xjses.1064,xjsee.1206,xjs.1207,ol.2381,aft.1007,wsrt.129,cst.0,dnst.0,rqst.911,rspt.798,rqstt.7,unt.3,cstt.3,dit.1025
p1917
sasVheaders
p1918
(lp1919
sVheadersSize
p1920
I835
sVbodySize
p1921
I0
sVmethod
p1922
VGET
p1923
sVhttpVersion
p1924
VHTTP/1.1
p1925
ssVtimings
p1926
(dp1927
Vcomment
p1928
g4
sVreceive
p1929
I0
sVsend
p1930
I0
sVssl
p1931
I-1
sVconnect
p1932
I-1
sVdns
p1933
I-1
sVwait
p1934
I27
sVblocked
p1935
I-1
ssVtime
p1936
I27
sVresponse
p1937
(dp1938
Vstatus
p1939
I204
sVcomment
p1940
g4
sVcookies
p1941
(lp1942
sVstatusText
p1943
VNo Content
p1944
sVcontent
p1945
(dp1946
VmimeType
p1947
Vtext/html; charset=UTF-8
p1948
sVcomment
p1949
g4
sVsize
p1950
I0
ssVheaders
p1951
(lp1952
sVheadersSize
p1953
I248
sVredirectURL
p1954
g4
sVbodySize
p1955
I0
sVhttpVersion
p1956
VHTTP/1.1
p1957
ssa(dp1958
Vcomment
p1959
g4
sVserverIPAddress
p1960
V216.58.216.196
p1961
sVpageref
p1962
VJenna Dewan Tatum
p1963
sVstartedDateTime
p1964
V2017-04-16T08:11:49.725-05:00
p1965
sVcache
p1966
(dp1967
sVrequest
p1968
(dp1969
Vcomment
p1970
g4
sVcookies
p1971
(lp1972
sVurl
p1973
Vhttps://www.google.com/gen_204?atyp=i&ct=slh&cad=&ei=hm3zWOLCAYyVjwTR07nwDw&m=V&t=C&s=1&v=2&pv=0.895956661528944&me=1:1492348296856,x:3,V,0,0,1280,944:0,N,1,hm3zWOLCAYyVjwTR07nwDw:0,R,1,24,8,155,1249,1088:0,R,1,25,8,155,1249,1088:0,R,1,29,8,168,1249,40:0,R,1,47,8,267,1249,178:0,R,1,50,0,283,1265,197:0,R,1,90,8,462,1249,40:0,R,1,91,24,462,1217,40:0,R,1,99,8,518,1249,20:0,R,1,116,8,558,1249,310:0,R,1,117,0,603,1265,285:0,R,1,143,8,913,1249,263:0,R,1,144,0,913,1265,283:2,B,4203:8373,e,U&zx=1492348309724
p1974
sVqueryString
p1975
(lp1976
(dp1977
Vname
p1978
Vatyp
p1979
sVvalue
p1980
g30
sa(dp1981
Vname
p1982
Vct
p1983
sVvalue
p1984
Vslh
p1985
sa(dp1986
Vname
p1987
Vcad
p1988
sVvalue
p1989
g4
sa(dp1990
Vname
p1991
Vei
p1992
sVvalue
p1993
Vhm3zWOLCAYyVjwTR07nwDw
p1994
sa(dp1995
Vname
p1996
g47
sVvalue
p1997
g49
sa(dp1998
Vname
p1999
g52
sVvalue
p2000
g54
sa(dp2001
Vname
p2002
g57
sVvalue
p2003
g59
sa(dp2004
Vname
p2005
g62
sVvalue
p2006
g64
sa(dp2007
Vname
p2008
Vpv
p2009
sVvalue
p2010
V0.895956661528944
p2011
sa(dp2012
Vname
p2013
Vme
p2014
sVvalue
p2015
V1:1492348296856,x:3,V,0,0,1280,944:0,N,1,hm3zWOLCAYyVjwTR07nwDw:0,R,1,24,8,155,1249,1088:0,R,1,25,8,155,1249,1088:0,R,1,29,8,168,1249,40:0,R,1,47,8,267,1249,178:0,R,1,50,0,283,1265,197:0,R,1,90,8,462,1249,40:0,R,1,91,24,462,1217,40:0,R,1,99,8,518,1249,20:0,R,1,116,8,558,1249,310:0,R,1,117,0,603,1265,285:0,R,1,143,8,913,1249,263:0,R,1,144,0,913,1265,283:2,B,4203:8373,e,U
p2016
sa(dp2017
Vname
p2018
Vzx
p2019
sVvalue
p2020
V1492348309724
p2021
sasVheaders
p2022
(lp2023
sVheadersSize
p2024
I1022
sVbodySize
p2025
I0
sVmethod
p2026
VGET
p2027
sVhttpVersion
p2028
VHTTP/1.1
p2029
ssVtimings
p2030
(dp2031
Vcomment
p2032
g4
sVreceive
p2033
I0
sVsend
p2034
I0
sVssl
p2035
I-1
sVconnect
p2036
I-1
sVdns
p2037
I-1
sVwait
p2038
I32
sVblocked
p2039
I-1
ssVtime
p2040
I32
sVresponse
p2041
(dp2042
Vstatus
p2043
I204
sVcomment
p2044
g4
sVcookies
p2045
(lp2046
sVstatusText
p2047
VNo Content
p2048
sVcontent
p2049
(dp2050
VmimeType
p2051
Vtext/html; charset=UTF-8
p2052
sVcomment
p2053
g4
sVsize
p2054
I0
ssVheaders
p2055
(lp2056
sVheadersSize
p2057
I248
sVredirectURL
p2058
g4
sVbodySize
p2059
I0
sVhttpVersion
p2060
VHTTP/1.1
p2061
ssasVversion
p2062
V1.2
p2063
sVpages
p2064
(lp2065
(dp2066
VpageTimings
p2067
(dp2068
Vcomment
p2069
g4
ssVcomment
p2070
g4
sVtitle
p2071
VJenna Dewan Tatum
p2072
sVid
p2073
VJenna Dewan Tatum
p2074
sVstartedDateTime
p2075
V2017-04-16T08:11:45.223-05:00
p2076
sasVcreator
p2077
(dp2078
Vcomment
p2079
g4
sVversion
p2080
V2.1.4
p2081
sVname
p2082
VBrowserMob Proxy
p2083
sss.