(dp0
Vlog
p1
(dp2
Vcomment
p3
V
p4
sVentries
p5
(lp6
(dp7
Vcomment
p8
g4
sVserverIPAddress
p9
V216.58.216.196
p10
sVpageref
p11
VCleveland Cavaliers
p12
sVstartedDateTime
p13
V2017-04-16T08:31:31.130-05:00
p14
sVcache
p15
(dp16
sVrequest
p17
(dp18
Vcomment
p19
g4
sVcookies
p20
(lp21
sVurl
p22
Vhttps://www.google.com/gen_204?atyp=i&ct=slh&cad=&ei=IHLzWPSjHunEjwSR4JrAAg&m=V&t=C&s=1&v=2&pv=0.04673779962371716&me=1:1492349475862,x:2,V,0,0,1280,944:0,N,1,IHLzWPSjHunEjwSR4JrAAg:0,R,1,24,0,155,1197,589:0,R,1,25,0,155,1197,587:0,R,1,78,8,752,1264,493:0,R,1,79,8,796,1264,315:0,R,1,80,0,796,1280,335:3,B,4825:15261,e,U&zx=1492349491128
p23
sVqueryString
p24
(lp25
(dp26
Vname
p27
Vatyp
p28
sVvalue
p29
Vi
p30
sa(dp31
Vname
p32
Vct
p33
sVvalue
p34
Vslh
p35
sa(dp36
Vname
p37
Vcad
p38
sVvalue
p39
g4
sa(dp40
Vname
p41
Vei
p42
sVvalue
p43
VIHLzWPSjHunEjwSR4JrAAg
p44
sa(dp45
Vname
p46
Vm
p47
sVvalue
p48
VV
p49
sa(dp50
Vname
p51
Vt
p52
sVvalue
p53
VC
p54
sa(dp55
Vname
p56
Vs
p57
sVvalue
p58
V1
p59
sa(dp60
Vname
p61
Vv
p62
sVvalue
p63
V2
p64
sa(dp65
Vname
p66
Vpv
p67
sVvalue
p68
V0.04673779962371716
p69
sa(dp70
Vname
p71
Vme
p72
sVvalue
p73
V1:1492349475862,x:2,V,0,0,1280,944:0,N,1,IHLzWPSjHunEjwSR4JrAAg:0,R,1,24,0,155,1197,589:0,R,1,25,0,155,1197,587:0,R,1,78,8,752,1264,493:0,R,1,79,8,796,1264,315:0,R,1,80,0,796,1280,335:3,B,4825:15261,e,U
p74
sa(dp75
Vname
p76
Vzx
p77
sVvalue
p78
V1492349491128
p79
sasVheaders
p80
(lp81
sVheadersSize
p82
I854
sVbodySize
p83
I0
sVmethod
p84
VGET
p85
sVhttpVersion
p86
VHTTP/1.1
p87
ssVtimings
p88
(dp89
Vcomment
p90
g4
sVreceive
p91
I0
sVsend
p92
I0
sVssl
p93
I-1
sVconnect
p94
I-1
sVdns
p95
I-1
sVwait
p96
I0
sVblocked
p97
I-1
ssVtime
p98
I0
sVresponse
p99
(dp100
Vstatus
p101
I0
sVcomment
p102
g4
sVcookies
p103
(lp104
sV_error
p105
VNo response received
p106
sVstatusText
p107
g4
sVcontent
p108
(dp109
VmimeType
p110
g4
sVcomment
p111
g4
sVsize
p112
I0
ssVheaders
p113
(lp114
sVheadersSize
p115
I-1
sVredirectURL
p116
g4
sVbodySize
p117
I-1
sVhttpVersion
p118
Vunknown
p119
ssa(dp120
Vcomment
p121
g4
sVserverIPAddress
p122
V216.58.216.196
p123
sVpageref
p124
VCleveland Cavaliers
p125
sVstartedDateTime
p126
V2017-04-16T08:31:31.144-05:00
p127
sVcache
p128
(dp129
sVrequest
p130
(dp131
Vcomment
p132
g4
sVcookies
p133
(lp134
sVurl
p135
Vhttp://www.google.com/
p136
sVqueryString
p137
(lp138
sVheaders
p139
(lp140
sVheadersSize
p141
I613
sVbodySize
p142
I0
sVmethod
p143
VGET
p144
sVhttpVersion
p145
VHTTP/1.1
p146
ssVtimings
p147
(dp148
Vcomment
p149
g4
sVreceive
p150
I0
sVsend
p151
I0
sVssl
p152
I-1
sVconnect
p153
I-1
sVdns
p154
I-1
sVwait
p155
I57
sVblocked
p156
I-1
ssVtime
p157
I57
sVresponse
p158
(dp159
Vstatus
p160
I302
sVcomment
p161
g4
sVcookies
p162
(lp163
sVstatusText
p164
VFound
p165
sVcontent
p166
(dp167
VmimeType
p168
Vtext/html; charset=UTF-8
p169
sVcomment
p170
g4
sVsize
p171
I0
ssVheaders
p172
(lp173
sVheadersSize
p174
I609
sVredirectURL
p175
Vhttps://www.google.com/?gws_rd=ssl
p176
sVbodySize
p177
I231
sVhttpVersion
p178
VHTTP/1.1
p179
ssa(dp180
Vcomment
p181
g4
sVserverIPAddress
p182
V216.58.216.196
p183
sVpageref
p184
VCleveland Cavaliers
p185
sVstartedDateTime
p186
V2017-04-16T08:31:31.135-05:00
p187
sVcache
p188
(dp189
sVrequest
p190
(dp191
Vcomment
p192
g4
sVcookies
p193
(lp194
sVurl
p195
Vhttps://www.google.com
p196
sVqueryString
p197
(lp198
sVheaders
p199
(lp200
sVheadersSize
p201
I0
sVbodySize
p202
I0
sVmethod
p203
VCONNECT
p204
sVhttpVersion
p205
VHTTP/1.1
p206
ssVtimings
p207
(dp208
Vcomment
p209
g4
sVreceive
p210
I0
sVsend
p211
I0
sVssl
p212
I-1
sVconnect
p213
I58
sVdns
p214
I5
sVwait
p215
I0
sVblocked
p216
I0
ssVtime
p217
I64
sVresponse
p218
(dp219
Vstatus
p220
I0
sVcomment
p221
g4
sVcookies
p222
(lp223
sV_error
p224
VUnable to connect to host
p225
sVstatusText
p226
g4
sVcontent
p227
(dp228
VmimeType
p229
g4
sVcomment
p230
g4
sVsize
p231
I0
ssVheaders
p232
(lp233
sVheadersSize
p234
I-1
sVredirectURL
p235
g4
sVbodySize
p236
I-1
sVhttpVersion
p237
Vunknown
p238
ssa(dp239
Vcomment
p240
g4
sVserverIPAddress
p241
V216.58.216.196
p242
sVpageref
p243
VCleveland Cavaliers
p244
sVstartedDateTime
p245
V2017-04-16T08:31:31.135-05:00
p246
sVcache
p247
(dp248
sVrequest
p249
(dp250
Vcomment
p251
g4
sVcookies
p252
(lp253
sVurl
p254
Vhttps://www.google.com
p255
sVqueryString
p256
(lp257
sVheaders
p258
(lp259
sVheadersSize
p260
I0
sVbodySize
p261
I0
sVmethod
p262
VCONNECT
p263
sVhttpVersion
p264
VHTTP/1.1
p265
ssVtimings
p266
(dp267
Vcomment
p268
g4
sVreceive
p269
I0
sVsend
p270
I0
sVssl
p271
I-1
sVconnect
p272
I58
sVdns
p273
I6
sVwait
p274
I0
sVblocked
p275
I0
ssVtime
p276
I65
sVresponse
p277
(dp278
Vstatus
p279
I0
sVcomment
p280
g4
sVcookies
p281
(lp282
sV_error
p283
VUnable to connect to host
p284
sVstatusText
p285
g4
sVcontent
p286
(dp287
VmimeType
p288
g4
sVcomment
p289
g4
sVsize
p290
I0
ssVheaders
p291
(lp292
sVheadersSize
p293
I-1
sVredirectURL
p294
g4
sVbodySize
p295
I-1
sVhttpVersion
p296
Vunknown
p297
ssa(dp298
Vcomment
p299
g4
sVserverIPAddress
p300
V216.58.216.196
p301
sVpageref
p302
VCleveland Cavaliers
p303
sVstartedDateTime
p304
V2017-04-16T08:31:31.136-05:00
p305
sVcache
p306
(dp307
sVrequest
p308
(dp309
Vcomment
p310
g4
sVcookies
p311
(lp312
sVurl
p313
Vhttps://www.google.com
p314
sVqueryString
p315
(lp316
sVheaders
p317
(lp318
sVheadersSize
p319
I0
sVbodySize
p320
I0
sVmethod
p321
VCONNECT
p322
sVhttpVersion
p323
VHTTP/1.1
p324
ssVtimings
p325
(dp326
Vcomment
p327
g4
sVreceive
p328
I0
sVsend
p329
I0
sVssl
p330
I-1
sVconnect
p331
I60
sVdns
p332
I5
sVwait
p333
I0
sVblocked
p334
I0
ssVtime
p335
I65
sVresponse
p336
(dp337
Vstatus
p338
I0
sVcomment
p339
g4
sVcookies
p340
(lp341
sV_error
p342
VUnable to connect to host
p343
sVstatusText
p344
g4
sVcontent
p345
(dp346
VmimeType
p347
g4
sVcomment
p348
g4
sVsize
p349
I0
ssVheaders
p350
(lp351
sVheadersSize
p352
I-1
sVredirectURL
p353
g4
sVbodySize
p354
I-1
sVhttpVersion
p355
Vunknown
p356
ssa(dp357
Vcomment
p358
g4
sVserverIPAddress
p359
V216.58.216.196
p360
sVpageref
p361
VCleveland Cavaliers
p362
sVstartedDateTime
p363
V2017-04-16T08:31:31.296-05:00
p364
sVcache
p365
(dp366
sVrequest
p367
(dp368
Vcomment
p369
g4
sVcookies
p370
(lp371
sVurl
p372
Vhttps://www.google.com/?gws_rd=ssl
p373
sVqueryString
p374
(lp375
(dp376
Vname
p377
Vgws_rd
p378
sVvalue
p379
Vssl
p380
sasVheaders
p381
(lp382
sVheadersSize
p383
I607
sVbodySize
p384
I0
sVmethod
p385
VGET
p386
sVhttpVersion
p387
VHTTP/1.1
p388
ssVtimings
p389
(dp390
Vcomment
p391
g4
sVreceive
p392
I27
sVsend
p393
I0
sVssl
p394
I32
sVconnect
p395
I56
sVdns
p396
I0
sVwait
p397
I68
sVblocked
p398
I0
ssVtime
p399
I153
sVresponse
p400
(dp401
Vstatus
p402
I200
sVcomment
p403
g4
sVcookies
p404
(lp405
sVstatusText
p406
VOK
p407
sVcontent
p408
(dp409
VmimeType
p410
Vtext/html; charset=UTF-8
p411
sVcomment
p412
g4
sVsize
p413
I0
ssVheaders
p414
(lp415
sVheadersSize
p416
I721
sVredirectURL
p417
g4
sVbodySize
p418
I34283
sVhttpVersion
p419
VHTTP/1.1
p420
ssa(dp421
Vcomment
p422
g4
sVserverIPAddress
p423
V216.58.216.196
p424
sVpageref
p425
VCleveland Cavaliers
p426
sVstartedDateTime
p427
V2017-04-16T08:31:31.870-05:00
p428
sVcache
p429
(dp430
sVrequest
p431
(dp432
Vcomment
p433
g4
sVcookies
p434
(lp435
sVurl
p436
Vhttps://www.google.com/gen_204?s=mobilewebhp&atyp=csi&ei=MnLzWLDOEcnXjwSXh5f4Ag&imc=1&imn=1&imp=0&adh=&xjs=init.28.12.sb_mob.20.dvl.4.c.1.jsa.1.async.1&ima=1&rt=xjsls.12,prt.13,iml.13,dcl.47,xjses.335,xjsee.426,xjs.427,ol.463,aft.13,wsrt.274,cst.0,dnst.0,rqst.99,rspt.101,rqstt.168,unt.106,cstt.106,dit.312
p437
sVqueryString
p438
(lp439
(dp440
Vname
p441
g57
sVvalue
p442
Vmobilewebhp
p443
sa(dp444
Vname
p445
Vatyp
p446
sVvalue
p447
Vcsi
p448
sa(dp449
Vname
p450
Vei
p451
sVvalue
p452
VMnLzWLDOEcnXjwSXh5f4Ag
p453
sa(dp454
Vname
p455
Vimc
p456
sVvalue
p457
g59
sa(dp458
Vname
p459
Vimn
p460
sVvalue
p461
g59
sa(dp462
Vname
p463
Vimp
p464
sVvalue
p465
V0
p466
sa(dp467
Vname
p468
Vadh
p469
sVvalue
p470
g4
sa(dp471
Vname
p472
Vxjs
p473
sVvalue
p474
Vinit.28.12.sb_mob.20.dvl.4.c.1.jsa.1.async.1
p475
sa(dp476
Vname
p477
Vima
p478
sVvalue
p479
g59
sa(dp480
Vname
p481
Vrt
p482
sVvalue
p483
Vxjsls.12,prt.13,iml.13,dcl.47,xjses.335,xjsee.426,xjs.427,ol.463,aft.13,wsrt.274,cst.0,dnst.0,rqst.99,rspt.101,rqstt.168,unt.106,cstt.106,dit.312
p484
sasVheaders
p485
(lp486
sVheadersSize
p487
I834
sVbodySize
p488
I0
sVmethod
p489
VGET
p490
sVhttpVersion
p491
VHTTP/1.1
p492
ssVtimings
p493
(dp494
Vcomment
p495
g4
sVreceive
p496
I0
sVsend
p497
I0
sVssl
p498
I-1
sVconnect
p499
I-1
sVdns
p500
I-1
sVwait
p501
I34
sVblocked
p502
I-1
ssVtime
p503
I34
sVresponse
p504
(dp505
Vstatus
p506
I204
sVcomment
p507
g4
sVcookies
p508
(lp509
sVstatusText
p510
VNo Content
p511
sVcontent
p512
(dp513
VmimeType
p514
Vtext/html; charset=UTF-8
p515
sVcomment
p516
g4
sVsize
p517
I0
ssVheaders
p518
(lp519
sVheadersSize
p520
I248
sVredirectURL
p521
g4
sVbodySize
p522
I0
sVhttpVersion
p523
VHTTP/1.1
p524
ssa(dp525
Vcomment
p526
g4
sVserverIPAddress
p527
V216.58.216.196
p528
sVpageref
p529
VCleveland Cavaliers
p530
sVstartedDateTime
p531
V2017-04-16T08:31:31.990-05:00
p532
sVcache
p533
(dp534
sVrequest
p535
(dp536
Vcomment
p537
g4
sVcookies
p538
(lp539
sVurl
p540
Vhttps://www.google.com/complete/search?client=mobile-gws-hp&hl=en&gs_rn=64&gs_ri=mobile-gws-hp&sla=1&pfq=chicago%20white%20sox&gm=602&cp=0&gs_id=1&xhr=t&q=C&tch=1&ech=1&psi=MnLzWLDOEcnXjwSXh5f4Ag.1492349491801.1
p541
sVqueryString
p542
(lp543
(dp544
Vname
p545
Vclient
p546
sVvalue
p547
Vmobile-gws-hp
p548
sa(dp549
Vname
p550
Vhl
p551
sVvalue
p552
Ven
p553
sa(dp554
Vname
p555
Vgs_rn
p556
sVvalue
p557
V64
p558
sa(dp559
Vname
p560
Vgs_ri
p561
sVvalue
p562
Vmobile-gws-hp
p563
sa(dp564
Vname
p565
Vsla
p566
sVvalue
p567
g59
sa(dp568
Vname
p569
Vpfq
p570
sVvalue
p571
Vchicago white sox
p572
sa(dp573
Vname
p574
Vgm
p575
sVvalue
p576
V602
p577
sa(dp578
Vname
p579
Vcp
p580
sVvalue
p581
g466
sa(dp582
Vname
p583
Vgs_id
p584
sVvalue
p585
g59
sa(dp586
Vname
p587
Vxhr
p588
sVvalue
p589
g52
sa(dp590
Vname
p591
Vq
p592
sVvalue
p593
g54
sa(dp594
Vname
p595
Vtch
p596
sVvalue
p597
g59
sa(dp598
Vname
p599
Vech
p600
sVvalue
p601
g59
sa(dp602
Vname
p603
Vpsi
p604
sVvalue
p605
VMnLzWLDOEcnXjwSXh5f4Ag.1492349491801.1
p606
sasVheaders
p607
(lp608
sVheadersSize
p609
I739
sVbodySize
p610
I0
sVmethod
p611
VGET
p612
sVhttpVersion
p613
VHTTP/1.1
p614
ssVtimings
p615
(dp616
Vcomment
p617
g4
sVreceive
p618
I0
sVsend
p619
I0
sVssl
p620
I-1
sVconnect
p621
I-1
sVdns
p622
I-1
sVwait
p623
I0
sVblocked
p624
I-1
ssVtime
p625
I0
sVresponse
p626
(dp627
Vstatus
p628
I0
sVcomment
p629
g4
sVcookies
p630
(lp631
sV_error
p632
VNo response received
p633
sVstatusText
p634
g4
sVcontent
p635
(dp636
VmimeType
p637
g4
sVcomment
p638
g4
sVsize
p639
I0
ssVheaders
p640
(lp641
sVheadersSize
p642
I-1
sVredirectURL
p643
g4
sVbodySize
p644
I-1
sVhttpVersion
p645
Vunknown
p646
ssa(dp647
Vcomment
p648
g4
sVserverIPAddress
p649
V216.58.216.196
p650
sVpageref
p651
VCleveland Cavaliers
p652
sVstartedDateTime
p653
V2017-04-16T08:31:32.152-05:00
p654
sVcache
p655
(dp656
sVrequest
p657
(dp658
Vcomment
p659
g4
sVcookies
p660
(lp661
sVurl
p662
Vhttps://www.google.com/search?site=&source=hp&ei=MnLzWLDOEcnXjwSXh5f4Ag&q=Cleveland+Cavaliers&oq=Cleveland+Cavaliers&gs_l=mobile-gws-hp.3...167.215.0.249.19.1.0.0.0.0.0.0..0.0....0...1c.1.64.mobile-gws-hp..19.0.0.YJL_DlRBKno
p663
sVqueryString
p664
(lp665
(dp666
Vname
p667
Vsite
p668
sVvalue
p669
g4
sa(dp670
Vname
p671
Vsource
p672
sVvalue
p673
Vhp
p674
sa(dp675
Vname
p676
Vei
p677
sVvalue
p678
VMnLzWLDOEcnXjwSXh5f4Ag
p679
sa(dp680
Vname
p681
g592
sVvalue
p682
VCleveland Cavaliers
p683
sa(dp684
Vname
p685
Voq
p686
sVvalue
p687
VCleveland Cavaliers
p688
sa(dp689
Vname
p690
Vgs_l
p691
sVvalue
p692
Vmobile-gws-hp.3...167.215.0.249.19.1.0.0.0.0.0.0..0.0....0...1c.1.64.mobile-gws-hp..19.0.0.YJL_DlRBKno
p693
sasVheaders
p694
(lp695
sVheadersSize
p696
I842
sVbodySize
p697
I0
sVmethod
p698
VGET
p699
sVhttpVersion
p700
VHTTP/1.1
p701
ssVtimings
p702
(dp703
Vcomment
p704
g4
sVreceive
p705
I1033
sVsend
p706
I0
sVssl
p707
I23
sVconnect
p708
I72
sVdns
p709
I0
sVwait
p710
I97
sVblocked
p711
I0
ssVtime
p712
I1203
sVresponse
p713
(dp714
Vstatus
p715
I200
sVcomment
p716
g4
sVcookies
p717
(lp718
sVstatusText
p719
VOK
p720
sVcontent
p721
(dp722
VmimeType
p723
Vtext/html; charset=UTF-8
p724
sVcomment
p725
g4
sVsize
p726
I0
ssVheaders
p727
(lp728
sVheadersSize
p729
I363
sVredirectURL
p730
g4
sVbodySize
p731
I149765
sVhttpVersion
p732
VHTTP/1.1
p733
ssa(dp734
Vcomment
p735
g4
sVserverIPAddress
p736
V216.58.216.195
p737
sVpageref
p738
VCleveland Cavaliers
p739
sVstartedDateTime
p740
V2017-04-16T08:31:33.212-05:00
p741
sVcache
p742
(dp743
sVrequest
p744
(dp745
Vcomment
p746
g4
sVcookies
p747
(lp748
sVurl
p749
Vhttps://ssl.gstatic.com/onebox/media/sports/logos/NAlGkmv45l1L-3NhwVhDPg_48x48.png
p750
sVqueryString
p751
(lp752
sVheaders
p753
(lp754
sVheadersSize
p755
I397
sVbodySize
p756
I0
sVmethod
p757
VGET
p758
sVhttpVersion
p759
VHTTP/1.1
p760
ssVtimings
p761
(dp762
Vcomment
p763
g4
sVreceive
p764
I0
sVsend
p765
I0
sVssl
p766
I-1
sVconnect
p767
I-1
sVdns
p768
I-1
sVwait
p769
I30
sVblocked
p770
I-1
ssVtime
p771
I30
sVresponse
p772
(dp773
Vstatus
p774
I200
sVcomment
p775
g4
sVcookies
p776
(lp777
sVstatusText
p778
VOK
p779
sVcontent
p780
(dp781
VmimeType
p782
Vimage/png
p783
sVcomment
p784
g4
sVsize
p785
I0
ssVheaders
p786
(lp787
sVheadersSize
p788
I424
sVredirectURL
p789
g4
sVbodySize
p790
I3416
sVhttpVersion
p791
VHTTP/1.1
p792
ssa(dp793
Vcomment
p794
g4
sVserverIPAddress
p795
V216.58.216.195
p796
sVpageref
p797
VCleveland Cavaliers
p798
sVstartedDateTime
p799
V2017-04-16T08:31:33.212-05:00
p800
sVcache
p801
(dp802
sVrequest
p803
(dp804
Vcomment
p805
g4
sVcookies
p806
(lp807
sVurl
p808
Vhttps://ssl.gstatic.com/onebox/media/sports/logos/andumiE_wrpDpXvUgqCGYQ_96x96.png
p809
sVqueryString
p810
(lp811
sVheaders
p812
(lp813
sVheadersSize
p814
I397
sVbodySize
p815
I0
sVmethod
p816
VGET
p817
sVhttpVersion
p818
VHTTP/1.1
p819
ssVtimings
p820
(dp821
Vcomment
p822
g4
sVreceive
p823
I0
sVsend
p824
I0
sVssl
p825
I-1
sVconnect
p826
I-1
sVdns
p827
I-1
sVwait
p828
I30
sVblocked
p829
I-1
ssVtime
p830
I31
sVresponse
p831
(dp832
Vstatus
p833
I200
sVcomment
p834
g4
sVcookies
p835
(lp836
sVstatusText
p837
VOK
p838
sVcontent
p839
(dp840
VmimeType
p841
Vimage/png
p842
sVcomment
p843
g4
sVsize
p844
I0
ssVheaders
p845
(lp846
sVheadersSize
p847
I424
sVredirectURL
p848
g4
sVbodySize
p849
I5667
sVhttpVersion
p850
VHTTP/1.1
p851
ssa(dp852
Vcomment
p853
g4
sVserverIPAddress
p854
V216.58.216.195
p855
sVpageref
p856
VCleveland Cavaliers
p857
sVstartedDateTime
p858
V2017-04-16T08:31:33.213-05:00
p859
sVcache
p860
(dp861
sVrequest
p862
(dp863
Vcomment
p864
g4
sVcookies
p865
(lp866
sVurl
p867
Vhttps://ssl.gstatic.com/onebox/media/sports/logos/NAlGkmv45l1L-3NhwVhDPg_96x96.png
p868
sVqueryString
p869
(lp870
sVheaders
p871
(lp872
sVheadersSize
p873
I397
sVbodySize
p874
I0
sVmethod
p875
VGET
p876
sVhttpVersion
p877
VHTTP/1.1
p878
ssVtimings
p879
(dp880
Vcomment
p881
g4
sVreceive
p882
I0
sVsend
p883
I0
sVssl
p884
I-1
sVconnect
p885
I-1
sVdns
p886
I-1
sVwait
p887
I37
sVblocked
p888
I-1
ssVtime
p889
I37
sVresponse
p890
(dp891
Vstatus
p892
I200
sVcomment
p893
g4
sVcookies
p894
(lp895
sVstatusText
p896
VOK
p897
sVcontent
p898
(dp899
VmimeType
p900
Vimage/png
p901
sVcomment
p902
g4
sVsize
p903
I0
ssVheaders
p904
(lp905
sVheadersSize
p906
I424
sVredirectURL
p907
g4
sVbodySize
p908
I9735
sVhttpVersion
p909
VHTTP/1.1
p910
ssa(dp911
Vcomment
p912
g4
sVserverIPAddress
p913
V216.58.216.195
p914
sVpageref
p915
VCleveland Cavaliers
p916
sVstartedDateTime
p917
V2017-04-16T08:31:33.214-05:00
p918
sVcache
p919
(dp920
sVrequest
p921
(dp922
Vcomment
p923
g4
sVcookies
p924
(lp925
sVurl
p926
Vhttps://ssl.gstatic.com/onebox/media/sports/videos/nba/BSC6lknXRmo_192x108.jpg
p927
sVqueryString
p928
(lp929
sVheaders
p930
(lp931
sVheadersSize
p932
I393
sVbodySize
p933
I0
sVmethod
p934
VGET
p935
sVhttpVersion
p936
VHTTP/1.1
p937
ssVtimings
p938
(dp939
Vcomment
p940
g4
sVreceive
p941
I0
sVsend
p942
I0
sVssl
p943
I-1
sVconnect
p944
I-1
sVdns
p945
I-1
sVwait
p946
I36
sVblocked
p947
I-1
ssVtime
p948
I36
sVresponse
p949
(dp950
Vstatus
p951
I200
sVcomment
p952
g4
sVcookies
p953
(lp954
sVstatusText
p955
VOK
p956
sVcontent
p957
(dp958
VmimeType
p959
Vimage/jpeg
p960
sVcomment
p961
g4
sVsize
p962
I0
ssVheaders
p963
(lp964
sVheadersSize
p965
I392
sVredirectURL
p966
g4
sVbodySize
p967
I8223
sVhttpVersion
p968
VHTTP/1.1
p969
ssa(dp970
Vcomment
p971
g4
sVserverIPAddress
p972
V216.58.216.195
p973
sVpageref
p974
VCleveland Cavaliers
p975
sVstartedDateTime
p976
V2017-04-16T08:31:33.295-05:00
p977
sVcache
p978
(dp979
sVrequest
p980
(dp981
Vcomment
p982
g4
sVcookies
p983
(lp984
sVurl
p985
Vhttps://ssl.gstatic.com/onebox/media/sports/logos/andumiE_wrpDpXvUgqCGYQ_48x48.png
p986
sVqueryString
p987
(lp988
sVheaders
p989
(lp990
sVheadersSize
p991
I397
sVbodySize
p992
I0
sVmethod
p993
VGET
p994
sVhttpVersion
p995
VHTTP/1.1
p996
ssVtimings
p997
(dp998
Vcomment
p999
g4
sVreceive
p1000
I0
sVsend
p1001
I0
sVssl
p1002
I50
sVconnect
p1003
I76
sVdns
p1004
I0
sVwait
p1005
I31
sVblocked
p1006
I0
ssVtime
p1007
I109
sVresponse
p1008
(dp1009
Vstatus
p1010
I200
sVcomment
p1011
g4
sVcookies
p1012
(lp1013
sVstatusText
p1014
VOK
p1015
sVcontent
p1016
(dp1017
VmimeType
p1018
Vimage/png
p1019
sVcomment
p1020
g4
sVsize
p1021
I0
ssVheaders
p1022
(lp1023
sVheadersSize
p1024
I424
sVredirectURL
p1025
g4
sVbodySize
p1026
I2576
sVhttpVersion
p1027
VHTTP/1.1
p1028
ssa(dp1029
Vcomment
p1030
g4
sVserverIPAddress
p1031
V216.58.216.196
p1032
sVpageref
p1033
VCleveland Cavaliers
p1034
sVstartedDateTime
p1035
V2017-04-16T08:31:33.944-05:00
p1036
sVcache
p1037
(dp1038
sVrequest
p1039
(dp1040
Vcomment
p1041
g4
sVcookies
p1042
(lp1043
sVurl
p1044
Vhttps://www.google.com/xjs/_/js/k=xjs.qs.en_US.pCBXVCvTH3s.O/m=syl,syj,syn,em3,em8,em6,em7,sym,aa,abd,sy2g,sy2k,sy29,sy2j,sy2d,sy2a,sy2c,sy2f,sy2l,sy2m,sy2n,emd,async,sybn,sybi,sybo,sy1f,sy45,sy46,sy9w,sybk,sybj,sybp,sy1g,sy30,sy47,sybm,sybl,sybq,sy1h,sybh,dvl,syep,foot,ipv6,sy5g,sy5j,sy5h,sy6u,sy7d,sy7j,sy2x,sy5i,sy89,sy7e,sy23,sy2y,sy5k,sy6c,sy91,sy9b,sy9l,syhi,syhj,syhk,syhl,lr,lrli,sy32,emj,shm,sykh,tl,sy2t,sy38,em12,vs,sy66,sy67,sy4u,sy69,sykk,sykl,tnv,bct,sy48,sy3a,sy3c,sy5b,sy4x,sy4z,sy56,sy1y,sy31,sy4y,sy22,sy6i,sy4h,sy6h,sy6o,sya3,sy5d,sy25,sy6j,sy6k,sy6r,sya2,sy5e,sy6n,emb,em9,ema,sy24,sy2o,sy4c,sy65,sy6p,sy6s,sy6w,sy72,sya4,syd7,syel,syho,syhs,syhu,syhv,sio,sy6y,sycu,d3l,sy5x,qif,tabs,sy9m,syac,sy4g,sy9n,syhz,syl6,ssc,sy26,sykr,strm,syh6,syl5,kac,kae,strx,sy2u,sy34,sy6l,sy6m,qkx,syf5,sy99,syf4,syfc,syfn,syf7,syff,sy1i,sy68,sy8d,syf6,syfl,syfr,syfq,syfg,sy1j,sy4q,sy5o,sy5r,sy8h,syc7,syc8,syfb,syfj,syfs,syft,syg3,syg5,syg7,emn,emo,syg4,syg6,ivg,iuci,img,sy4d,sy4f,sy4e,sy4b,shrb,dgm,sy41,tcc,sygq,kpc,kpci,twt,syj7,syj8,syj2,syjc,syj6,syj3,syjg,syjh,syje,syjd,syjk,syji,syjf,syj0,emr,ems,emt,emu,emv,emx,emy,emz,em10,em11,udlg,sy5z,atn,sy4i,sya1,ampfp/am=gCP4LtMEBXQA2RUaq_oFBISzAFA/rt=j/d=0/t=zcms/rs=ACT90oFwm4NZCwIcuuiqmthdlECdBzkhRA
p1045
sVqueryString
p1046
(lp1047
sVheaders
p1048
(lp1049
sVheadersSize
p1050
I1776
sVbodySize
p1051
I0
sVmethod
p1052
VGET
p1053
sVhttpVersion
p1054
VHTTP/1.1
p1055
ssVtimings
p1056
(dp1057
Vcomment
p1058
g4
sVreceive
p1059
I67
sVsend
p1060
I0
sVssl
p1061
I-1
sVconnect
p1062
I-1
sVdns
p1063
I-1
sVwait
p1064
I26
sVblocked
p1065
I-1
ssVtime
p1066
I93
sVresponse
p1067
(dp1068
Vstatus
p1069
I200
sVcomment
p1070
g4
sVcookies
p1071
(lp1072
sVstatusText
p1073
VOK
p1074
sVcontent
p1075
(dp1076
VmimeType
p1077
Vtext/javascript; charset=UTF-8
p1078
sVcomment
p1079
g4
sVsize
p1080
I0
ssVheaders
p1081
(lp1082
sVheadersSize
p1083
I465
sVredirectURL
p1084
g4
sVbodySize
p1085
I209976
sVhttpVersion
p1086
VHTTP/1.1
p1087
ssa(dp1088
Vcomment
p1089
g4
sVserverIPAddress
p1090
V216.58.216.196
p1091
sVpageref
p1092
VCleveland Cavaliers
p1093
sVstartedDateTime
p1094
V2017-04-16T08:31:34.501-05:00
p1095
sVcache
p1096
(dp1097
sVrequest
p1098
(dp1099
Vcomment
p1100
g4
sVcookies
p1101
(lp1102
sVurl
p1103
Vhttps://www.google.com/async/irc?vet=10ahUKEwiAzbOKi6nTAhXK6YMKHaTLDaQQo0EI1wI..i&ved=0ahUKEwiAzbOKi6nTAhXK6YMKHaTLDaQQo0EI1wI&ei=M3LzWMDnCMrTjwSkl7egCg&yv=2&async=iu:1,ved:0ahUKEwiAzbOKi6nTAhXK6YMKHaTLDaQQo0EI1wI,_id:irc_async,_pms:qs
p1104
sVqueryString
p1105
(lp1106
(dp1107
Vname
p1108
Vvet
p1109
sVvalue
p1110
V10ahUKEwiAzbOKi6nTAhXK6YMKHaTLDaQQo0EI1wI..i
p1111
sa(dp1112
Vname
p1113
Vved
p1114
sVvalue
p1115
V0ahUKEwiAzbOKi6nTAhXK6YMKHaTLDaQQo0EI1wI
p1116
sa(dp1117
Vname
p1118
Vei
p1119
sVvalue
p1120
VM3LzWMDnCMrTjwSkl7egCg
p1121
sa(dp1122
Vname
p1123
Vyv
p1124
sVvalue
p1125
g64
sa(dp1126
Vname
p1127
Vasync
p1128
sVvalue
p1129
Viu:1,ved:0ahUKEwiAzbOKi6nTAhXK6YMKHaTLDaQQo0EI1wI,_id:irc_async,_pms:qs
p1130
sasVheaders
p1131
(lp1132
sVheadersSize
p1133
I752
sVbodySize
p1134
I0
sVmethod
p1135
VGET
p1136
sVhttpVersion
p1137
VHTTP/1.1
p1138
ssVtimings
p1139
(dp1140
Vcomment
p1141
g4
sVreceive
p1142
I0
sVsend
p1143
I0
sVssl
p1144
I-1
sVconnect
p1145
I-1
sVdns
p1146
I-1
sVwait
p1147
I46
sVblocked
p1148
I-1
ssVtime
p1149
I47
sVresponse
p1150
(dp1151
Vstatus
p1152
I200
sVcomment
p1153
g4
sVcookies
p1154
(lp1155
sVstatusText
p1156
VOK
p1157
sVcontent
p1158
(dp1159
VmimeType
p1160
Vtext/html; charset=UTF-8
p1161
sVcomment
p1162
g4
sVsize
p1163
I0
ssVheaders
p1164
(lp1165
sVheadersSize
p1166
I383
sVredirectURL
p1167
g4
sVbodySize
p1168
I7789
sVhttpVersion
p1169
VHTTP/1.1
p1170
ssa(dp1171
Vcomment
p1172
g4
sVserverIPAddress
p1173
V216.58.216.196
p1174
sVpageref
p1175
VCleveland Cavaliers
p1176
sVstartedDateTime
p1177
V2017-04-16T08:31:34.650-05:00
p1178
sVcache
p1179
(dp1180
sVrequest
p1181
(dp1182
Vcomment
p1183
g4
sVcookies
p1184
(lp1185
sVurl
p1186
Vhttps://www.google.com/async/ampfp?vet=10ahUKEwiAzbOKi6nTAhXK6YMKHaTLDaQQtZoBCNUC..i&ei=M3LzWMDnCMrTjwSkl7egCg&yv=2&async=_id:ampfp-async,_pms:qs
p1187
sVqueryString
p1188
(lp1189
(dp1190
Vname
p1191
Vvet
p1192
sVvalue
p1193
V10ahUKEwiAzbOKi6nTAhXK6YMKHaTLDaQQtZoBCNUC..i
p1194
sa(dp1195
Vname
p1196
Vei
p1197
sVvalue
p1198
VM3LzWMDnCMrTjwSkl7egCg
p1199
sa(dp1200
Vname
p1201
Vyv
p1202
sVvalue
p1203
g64
sa(dp1204
Vname
p1205
Vasync
p1206
sVvalue
p1207
V_id:ampfp-async,_pms:qs
p1208
sasVheaders
p1209
(lp1210
sVheadersSize
p1211
I662
sVbodySize
p1212
I0
sVmethod
p1213
VGET
p1214
sVhttpVersion
p1215
VHTTP/1.1
p1216
ssVtimings
p1217
(dp1218
Vcomment
p1219
g4
sVreceive
p1220
I1
sVsend
p1221
I0
sVssl
p1222
I-1
sVconnect
p1223
I-1
sVdns
p1224
I-1
sVwait
p1225
I38
sVblocked
p1226
I-1
ssVtime
p1227
I39
sVresponse
p1228
(dp1229
Vstatus
p1230
I200
sVcomment
p1231
g4
sVcookies
p1232
(lp1233
sVstatusText
p1234
VOK
p1235
sVcontent
p1236
(dp1237
VmimeType
p1238
Vtext/html; charset=UTF-8
p1239
sVcomment
p1240
g4
sVsize
p1241
I0
ssVheaders
p1242
(lp1243
sVheadersSize
p1244
I383
sVredirectURL
p1245
g4
sVbodySize
p1246
I4526
sVhttpVersion
p1247
VHTTP/1.1
p1248
ssa(dp1249
Vcomment
p1250
g4
sVserverIPAddress
p1251
V216.58.216.193
p1252
sVpageref
p1253
VCleveland Cavaliers
p1254
sVstartedDateTime
p1255
V2017-04-16T08:31:34.651-05:00
p1256
sVcache
p1257
(dp1258
sVrequest
p1259
(dp1260
Vcomment
p1261
g4
sVcookies
p1262
(lp1263
sVurl
p1264
Vhttps://cdn.ampproject.org/preconnect.gif?0.7873468808095522
p1265
sVqueryString
p1266
(lp1267
(dp1268
Vname
p1269
V0.7873468808095522
p1270
sVvalue
p1271
g4
sasVheaders
p1272
(lp1273
sVheadersSize
p1274
I375
sVbodySize
p1275
I0
sVmethod
p1276
VGET
p1277
sVhttpVersion
p1278
VHTTP/1.1
p1279
ssVtimings
p1280
(dp1281
Vcomment
p1282
g4
sVreceive
p1283
I0
sVsend
p1284
I0
sVssl
p1285
I-1
sVconnect
p1286
I-1
sVdns
p1287
I-1
sVwait
p1288
I26
sVblocked
p1289
I-1
ssVtime
p1290
I26
sVresponse
p1291
(dp1292
Vstatus
p1293
I200
sVcomment
p1294
g4
sVcookies
p1295
(lp1296
sVstatusText
p1297
VOK
p1298
sVcontent
p1299
(dp1300
VmimeType
p1301
Vimage/gif
p1302
sVcomment
p1303
g4
sVsize
p1304
I0
ssVheaders
p1305
(lp1306
sVheadersSize
p1307
I826
sVredirectURL
p1308
g4
sVbodySize
p1309
I37
sVhttpVersion
p1310
VHTTP/1.1
p1311
ssa(dp1312
Vcomment
p1313
g4
sVserverIPAddress
p1314
V216.58.216.196
p1315
sVpageref
p1316
VCleveland Cavaliers
p1317
sVstartedDateTime
p1318
V2017-04-16T08:31:34.994-05:00
p1319
sVcache
p1320
(dp1321
sVrequest
p1322
(dp1323
Vcomment
p1324
g4
sVcookies
p1325
(lp1326
sVurl
p1327
Vhttps://www.google.com/gen_204?s=web&atyp=csi&ei=M3LzWMDnCMrTjwSkl7egCg&imc=91&imn=91&imp=26&adh=&xjs=init.42.16.sb_mob.32.async.3.dvl.3.c.1.mbsf.1&ima=13&rt=prt.1179,iml.1433,xjsls.1179,qiml.1452,dcl.1260,xjses.1496,xjsee.1658,xjs.1659,ol.2690,aft.1433,wsrt.202,cst.0,dnst.0,rqst.1140,rspt.1142,rqstt.78,unt.4,cstt.4,dit.1410
p1328
sVqueryString
p1329
(lp1330
(dp1331
Vname
p1332
g57
sVvalue
p1333
Vweb
p1334
sa(dp1335
Vname
p1336
Vatyp
p1337
sVvalue
p1338
Vcsi
p1339
sa(dp1340
Vname
p1341
Vei
p1342
sVvalue
p1343
VM3LzWMDnCMrTjwSkl7egCg
p1344
sa(dp1345
Vname
p1346
Vimc
p1347
sVvalue
p1348
V91
p1349
sa(dp1350
Vname
p1351
Vimn
p1352
sVvalue
p1353
V91
p1354
sa(dp1355
Vname
p1356
Vimp
p1357
sVvalue
p1358
V26
p1359
sa(dp1360
Vname
p1361
Vadh
p1362
sVvalue
p1363
g4
sa(dp1364
Vname
p1365
Vxjs
p1366
sVvalue
p1367
Vinit.42.16.sb_mob.32.async.3.dvl.3.c.1.mbsf.1
p1368
sa(dp1369
Vname
p1370
Vima
p1371
sVvalue
p1372
V13
p1373
sa(dp1374
Vname
p1375
Vrt
p1376
sVvalue
p1377
Vprt.1179,iml.1433,xjsls.1179,qiml.1452,dcl.1260,xjses.1496,xjsee.1658,xjs.1659,ol.2690,aft.1433,wsrt.202,cst.0,dnst.0,rqst.1140,rspt.1142,rqstt.78,unt.4,cstt.4,dit.1410
p1378
sasVheaders
p1379
(lp1380
sVheadersSize
p1381
I843
sVbodySize
p1382
I0
sVmethod
p1383
VGET
p1384
sVhttpVersion
p1385
VHTTP/1.1
p1386
ssVtimings
p1387
(dp1388
Vcomment
p1389
g4
sVreceive
p1390
I0
sVsend
p1391
I0
sVssl
p1392
I-1
sVconnect
p1393
I-1
sVdns
p1394
I-1
sVwait
p1395
I40
sVblocked
p1396
I-1
ssVtime
p1397
I40
sVresponse
p1398
(dp1399
Vstatus
p1400
I204
sVcomment
p1401
g4
sVcookies
p1402
(lp1403
sVstatusText
p1404
VNo Content
p1405
sVcontent
p1406
(dp1407
VmimeType
p1408
Vtext/html; charset=UTF-8
p1409
sVcomment
p1410
g4
sVsize
p1411
I0
ssVheaders
p1412
(lp1413
sVheadersSize
p1414
I248
sVredirectURL
p1415
g4
sVbodySize
p1416
I0
sVhttpVersion
p1417
VHTTP/1.1
p1418
ssa(dp1419
Vcomment
p1420
g4
sVserverIPAddress
p1421
V216.58.216.196
p1422
sVpageref
p1423
VCleveland Cavaliers
p1424
sVstartedDateTime
p1425
V2017-04-16T08:31:35.060-05:00
p1426
sVcache
p1427
(dp1428
sVrequest
p1429
(dp1430
Vcomment
p1431
g4
sVcookies
p1432
(lp1433
sVurl
p1434
Vhttps://www.google.com/async/log_amp_item_set?vet=10ahUKEwj-lsyLi6nTAhUj2oMKHQ5oBuUQooQBCAE..i&ei=M3LzWMDnCMrTjwSkl7egCg&yv=2&async=num_items:10,_fmt:jspb
p1435
sVqueryString
p1436
(lp1437
(dp1438
Vname
p1439
Vvet
p1440
sVvalue
p1441
V10ahUKEwj-lsyLi6nTAhUj2oMKHQ5oBuUQooQBCAE..i
p1442
sa(dp1443
Vname
p1444
Vei
p1445
sVvalue
p1446
VM3LzWMDnCMrTjwSkl7egCg
p1447
sa(dp1448
Vname
p1449
Vyv
p1450
sVvalue
p1451
g64
sa(dp1452
Vname
p1453
Vasync
p1454
sVvalue
p1455
Vnum_items:10,_fmt:jspb
p1456
sasVheaders
p1457
(lp1458
sVheadersSize
p1459
I671
sVbodySize
p1460
I0
sVmethod
p1461
VGET
p1462
sVhttpVersion
p1463
VHTTP/1.1
p1464
ssVtimings
p1465
(dp1466
Vcomment
p1467
g4
sVreceive
p1468
I0
sVsend
p1469
I0
sVssl
p1470
I-1
sVconnect
p1471
I-1
sVdns
p1472
I-1
sVwait
p1473
I46
sVblocked
p1474
I-1
ssVtime
p1475
I46
sVresponse
p1476
(dp1477
Vstatus
p1478
I200
sVcomment
p1479
g4
sVcookies
p1480
(lp1481
sVstatusText
p1482
VOK
p1483
sVcontent
p1484
(dp1485
VmimeType
p1486
Vapplication/json; charset=UTF-8
p1487
sVcomment
p1488
g4
sVsize
p1489
I0
ssVheaders
p1490
(lp1491
sVheadersSize
p1492
I417
sVredirectURL
p1493
g4
sVbodySize
p1494
I182
sVhttpVersion
p1495
VHTTP/1.1
p1496
ssa(dp1497
Vcomment
p1498
g4
sVserverIPAddress
p1499
V216.58.216.193
p1500
sVpageref
p1501
VCleveland Cavaliers
p1502
sVstartedDateTime
p1503
V2017-04-16T08:31:35.407-05:00
p1504
sVcache
p1505
(dp1506
sVrequest
p1507
(dp1508
Vcomment
p1509
g4
sVcookies
p1510
(lp1511
sVurl
p1512
Vhttps://www-fearthesword-com.cdn.ampproject.org/v/www.fearthesword.com/platform/amp/2017/4/16/15318194/3-takeaways-cava-pacers-nba-playoffs?amp_js_v=9
p1513
sVqueryString
p1514
(lp1515
(dp1516
Vname
p1517
Vamp_js_v
p1518
sVvalue
p1519
V9
p1520
sasVheaders
p1521
(lp1522
sVheadersSize
p1523
I555
sVbodySize
p1524
I0
sVmethod
p1525
VGET
p1526
sVhttpVersion
p1527
VHTTP/1.1
p1528
ssVtimings
p1529
(dp1530
Vcomment
p1531
g4
sVreceive
p1532
I0
sVsend
p1533
I0
sVssl
p1534
I274
sVconnect
p1535
I294
sVdns
p1536
I38
sVwait
p1537
I24
sVblocked
p1538
I0
ssVtime
p1539
I359
sVresponse
p1540
(dp1541
Vstatus
p1542
I200
sVcomment
p1543
g4
sVcookies
p1544
(lp1545
sVstatusText
p1546
VOK
p1547
sVcontent
p1548
(dp1549
VmimeType
p1550
Vtext/html
p1551
sVcomment
p1552
g4
sVsize
p1553
I0
ssVheaders
p1554
(lp1555
sVheadersSize
p1556
I860
sVredirectURL
p1557
g4
sVbodySize
p1558
I10352
sVhttpVersion
p1559
VHTTP/1.1
p1560
ssa(dp1561
Vcomment
p1562
g4
sVserverIPAddress
p1563
V216.58.216.193
p1564
sVpageref
p1565
VCleveland Cavaliers
p1566
sVstartedDateTime
p1567
V2017-04-16T08:31:35.729-05:00
p1568
sVcache
p1569
(dp1570
sVrequest
p1571
(dp1572
Vcomment
p1573
g4
sVcookies
p1574
(lp1575
sVurl
p1576
Vhttps://cdn0-vox--cdn-com.cdn.ampproject.org/i/s/cdn0.vox-cdn.com/thumbor/j_nWjJk9Ews_VO3u_eC6oH9IN10=/0x0:3137x2091/1310x873/cdn0.vox-cdn.com/uploads/chorus_image/image/54281877/usa_today_10014236.0.jpg
p1577
sVqueryString
p1578
(lp1579
sVheaders
p1580
(lp1581
sVheadersSize
p1582
I645
sVbodySize
p1583
I0
sVmethod
p1584
VGET
p1585
sVhttpVersion
p1586
VHTTP/1.1
p1587
ssVtimings
p1588
(dp1589
Vcomment
p1590
g4
sVreceive
p1591
I51
sVsend
p1592
I0
sVssl
p1593
I42
sVconnect
p1594
I59
sVdns
p1595
I50
sVwait
p1596
I42
sVblocked
p1597
I0
ssVtime
p1598
I205
sVresponse
p1599
(dp1600
Vstatus
p1601
I200
sVcomment
p1602
g4
sVcookies
p1603
(lp1604
sVstatusText
p1605
VOK
p1606
sVcontent
p1607
(dp1608
VmimeType
p1609
Vimage/jpeg
p1610
sVcomment
p1611
g4
sVsize
p1612
I0
ssVheaders
p1613
(lp1614
sVheadersSize
p1615
I851
sVredirectURL
p1616
g4
sVbodySize
p1617
I127232
sVhttpVersion
p1618
VHTTP/1.1
p1619
ssa(dp1620
Vcomment
p1621
g4
sVserverIPAddress
p1622
V216.58.216.193
p1623
sVpageref
p1624
VCleveland Cavaliers
p1625
sVstartedDateTime
p1626
V2017-04-16T08:31:36.116-05:00
p1627
sVcache
p1628
(dp1629
sVrequest
p1630
(dp1631
Vcomment
p1632
g4
sVcookies
p1633
(lp1634
sVurl
p1635
Vhttps://cdn1-vox--cdn-com.cdn.ampproject.org/ii/w100/s/cdn1.vox-cdn.com/uploads/blog/sbnu_logo_minimal/158/large_fearthesword.com.minimal.png
p1636
sVqueryString
p1637
(lp1638
sVheaders
p1639
(lp1640
sVheadersSize
p1641
I583
sVbodySize
p1642
I0
sVmethod
p1643
VGET
p1644
sVhttpVersion
p1645
VHTTP/1.1
p1646
ssVtimings
p1647
(dp1648
Vcomment
p1649
g4
sVreceive
p1650
I0
sVsend
p1651
I0
sVssl
p1652
I428
sVconnect
p1653
I446
sVdns
p1654
I52
sVwait
p1655
I27
sVblocked
p1656
I0
ssVtime
p1657
I527
sVresponse
p1658
(dp1659
Vstatus
p1660
I200
sVcomment
p1661
g4
sVcookies
p1662
(lp1663
sVstatusText
p1664
VOK
p1665
sVcontent
p1666
(dp1667
VmimeType
p1668
Vimage/png
p1669
sVcomment
p1670
g4
sVsize
p1671
I0
ssVheaders
p1672
(lp1673
sVheadersSize
p1674
I824
sVredirectURL
p1675
g4
sVbodySize
p1676
I5983
sVhttpVersion
p1677
VHTTP/1.1
p1678
ssasVversion
p1679
V1.2
p1680
sVpages
p1681
(lp1682
(dp1683
VpageTimings
p1684
(dp1685
Vcomment
p1686
g4
ssVcomment
p1687
g4
sVtitle
p1688
VCleveland Cavaliers
p1689
sVid
p1690
VCleveland Cavaliers
p1691
sVstartedDateTime
p1692
V2017-04-16T08:31:31.121-05:00
p1693
sasVcreator
p1694
(dp1695
Vcomment
p1696
g4
sVversion
p1697
V2.1.4
p1698
sVname
p1699
VBrowserMob Proxy
p1700
sss.