(dp0
Vlog
p1
(dp2
Vcomment
p3
V
p4
sVentries
p5
(lp6
(dp7
Vcomment
p8
g4
sVserverIPAddress
p9
V172.217.6.4
p10
sVpageref
p11
VFantastic Beasts and Where to Find Them
p12
sVstartedDateTime
p13
V2017-04-16T08:40:54.055-05:00
p14
sVcache
p15
(dp16
sVrequest
p17
(dp18
Vcomment
p19
g4
sVcookies
p20
(lp21
sVurl
p22
Vhttps://www.google.com/gen_204?atyp=i&ct=slh&cad=&ei=VHTzWLucFMekjwSNpYGoBQ&m=V&t=C&s=1&v=2&pv=0.6897005005300825&me=1:1492350039745,x:4,V,0,0,1280,944:0,N,1,VHTzWLucFMekjwSNpYGoBQ:0,R,1,24,8,155,1249,394:0,R,1,25,8,155,1249,394:0,R,1,29,1171,155,86,116:0,R,1,38,8,193,1163,40:0,R,1,50,8,271,1249,48:0,R,1,52,8,319,1249,56:0,R,1,56,8,392,1249,20:0,R,1,57,24,392,1217,20:0,R,1,62,8,428,1249,20:0,R,1,71,8,456,1249,20:0,R,1,100,8,559,1249,201:0,R,1,101,24,559,1217,190:0,R,1,109,8,770,1249,393:0,R,1,110,8,770,1249,393:0,R,1,113,0,834,1265,349:27,B,4488:14278,e,U&zx=1492350054054
p23
sVqueryString
p24
(lp25
(dp26
Vname
p27
Vatyp
p28
sVvalue
p29
Vi
p30
sa(dp31
Vname
p32
Vct
p33
sVvalue
p34
Vslh
p35
sa(dp36
Vname
p37
Vcad
p38
sVvalue
p39
g4
sa(dp40
Vname
p41
Vei
p42
sVvalue
p43
VVHTzWLucFMekjwSNpYGoBQ
p44
sa(dp45
Vname
p46
Vm
p47
sVvalue
p48
VV
p49
sa(dp50
Vname
p51
Vt
p52
sVvalue
p53
VC
p54
sa(dp55
Vname
p56
Vs
p57
sVvalue
p58
V1
p59
sa(dp60
Vname
p61
Vv
p62
sVvalue
p63
V2
p64
sa(dp65
Vname
p66
Vpv
p67
sVvalue
p68
V0.6897005005300825
p69
sa(dp70
Vname
p71
Vme
p72
sVvalue
p73
V1:1492350039745,x:4,V,0,0,1280,944:0,N,1,VHTzWLucFMekjwSNpYGoBQ:0,R,1,24,8,155,1249,394:0,R,1,25,8,155,1249,394:0,R,1,29,1171,155,86,116:0,R,1,38,8,193,1163,40:0,R,1,50,8,271,1249,48:0,R,1,52,8,319,1249,56:0,R,1,56,8,392,1249,20:0,R,1,57,24,392,1217,20:0,R,1,62,8,428,1249,20:0,R,1,71,8,456,1249,20:0,R,1,100,8,559,1249,201:0,R,1,101,24,559,1217,190:0,R,1,109,8,770,1249,393:0,R,1,110,8,770,1249,393:0,R,1,113,0,834,1265,349:27,B,4488:14278,e,U
p74
sa(dp75
Vname
p76
Vzx
p77
sVvalue
p78
V1492350054054
p79
sasVheaders
p80
(lp81
sVheadersSize
p82
I1095
sVbodySize
p83
I0
sVmethod
p84
VGET
p85
sVhttpVersion
p86
VHTTP/1.1
p87
ssVtimings
p88
(dp89
Vcomment
p90
g4
sVreceive
p91
I0
sVsend
p92
I0
sVssl
p93
I-1
sVconnect
p94
I-1
sVdns
p95
I-1
sVwait
p96
I0
sVblocked
p97
I-1
ssVtime
p98
I0
sVresponse
p99
(dp100
Vstatus
p101
I0
sVcomment
p102
g4
sVcookies
p103
(lp104
sV_error
p105
VNo response received
p106
sVstatusText
p107
g4
sVcontent
p108
(dp109
VmimeType
p110
g4
sVcomment
p111
g4
sVsize
p112
I0
ssVheaders
p113
(lp114
sVheadersSize
p115
I-1
sVredirectURL
p116
g4
sVbodySize
p117
I-1
sVhttpVersion
p118
Vunknown
p119
ssa(dp120
Vcomment
p121
g4
sVserverIPAddress
p122
V172.217.6.4
p123
sVpageref
p124
VFantastic Beasts and Where to Find Them
p125
sVstartedDateTime
p126
V2017-04-16T08:40:54.056-05:00
p127
sVcache
p128
(dp129
sVrequest
p130
(dp131
Vcomment
p132
g4
sVcookies
p133
(lp134
sVurl
p135
Vhttps://www.google.com/gen_204?atyp=i&ct=slh&cad=&ei=F3TzWP3lN4LXjwT88L3QAQ&m=V&t=C&s=1&v=2&pv=0.22630495153277785&me=1:1492349980349,x:1,V,0,0,1280,944:0,N,1,F3TzWP3lN4LXjwT88L3QAQ:0,R,1,25,8,155,1249,126:0,R,1,26,24,155,1217,115:0,R,1,32,0,291,1197,1482:0,R,1,33,0,291,1197,1480:0,R,1,53,0,291,1197,200:0,R,1,54,0,291,1197,200:0,R,1,75,0,504,1197,20:0,R,1,81,0,548,1197,20:0,R,1,95,0,648,1197,35:0,R,1,105,0,704,1197,36:0,R,1,108,0,757,1197,47:0,R,1,149,0,861,1197,86:4,B,4721:658,S,349:0,R,1,153,0,947,1197,192:0,R,1,157,24,1155,1149,161:8967,e,U&zx=1492350054055
p136
sVqueryString
p137
(lp138
(dp139
Vname
p140
Vatyp
p141
sVvalue
p142
g30
sa(dp143
Vname
p144
Vct
p145
sVvalue
p146
Vslh
p147
sa(dp148
Vname
p149
Vcad
p150
sVvalue
p151
g4
sa(dp152
Vname
p153
Vei
p154
sVvalue
p155
VF3TzWP3lN4LXjwT88L3QAQ
p156
sa(dp157
Vname
p158
g47
sVvalue
p159
g49
sa(dp160
Vname
p161
g52
sVvalue
p162
g54
sa(dp163
Vname
p164
g57
sVvalue
p165
g59
sa(dp166
Vname
p167
g62
sVvalue
p168
g64
sa(dp169
Vname
p170
Vpv
p171
sVvalue
p172
V0.22630495153277785
p173
sa(dp174
Vname
p175
Vme
p176
sVvalue
p177
V1:1492349980349,x:1,V,0,0,1280,944:0,N,1,F3TzWP3lN4LXjwT88L3QAQ:0,R,1,25,8,155,1249,126:0,R,1,26,24,155,1217,115:0,R,1,32,0,291,1197,1482:0,R,1,33,0,291,1197,1480:0,R,1,53,0,291,1197,200:0,R,1,54,0,291,1197,200:0,R,1,75,0,504,1197,20:0,R,1,81,0,548,1197,20:0,R,1,95,0,648,1197,35:0,R,1,105,0,704,1197,36:0,R,1,108,0,757,1197,47:0,R,1,149,0,861,1197,86:4,B,4721:658,S,349:0,R,1,153,0,947,1197,192:0,R,1,157,24,1155,1149,161:8967,e,U
p178
sa(dp179
Vname
p180
Vzx
p181
sVvalue
p182
V1492350054055
p183
sasVheaders
p184
(lp185
sVheadersSize
p186
I1083
sVbodySize
p187
I0
sVmethod
p188
VGET
p189
sVhttpVersion
p190
VHTTP/1.1
p191
ssVtimings
p192
(dp193
Vcomment
p194
g4
sVreceive
p195
I0
sVsend
p196
I0
sVssl
p197
I-1
sVconnect
p198
I-1
sVdns
p199
I-1
sVwait
p200
I0
sVblocked
p201
I-1
ssVtime
p202
I0
sVresponse
p203
(dp204
Vstatus
p205
I0
sVcomment
p206
g4
sVcookies
p207
(lp208
sV_error
p209
VNo response received
p210
sVstatusText
p211
g4
sVcontent
p212
(dp213
VmimeType
p214
g4
sVcomment
p215
g4
sVsize
p216
I0
ssVheaders
p217
(lp218
sVheadersSize
p219
I-1
sVredirectURL
p220
g4
sVbodySize
p221
I-1
sVhttpVersion
p222
Vunknown
p223
ssa(dp224
Vcomment
p225
g4
sVserverIPAddress
p226
V172.217.6.4
p227
sVpageref
p228
VFantastic Beasts and Where to Find Them
p229
sVstartedDateTime
p230
V2017-04-16T08:40:54.059-05:00
p231
sVcache
p232
(dp233
sVrequest
p234
(dp235
Vcomment
p236
g4
sVcookies
p237
(lp238
sVurl
p239
Vhttp://www.google.com/
p240
sVqueryString
p241
(lp242
sVheaders
p243
(lp244
sVheadersSize
p245
I613
sVbodySize
p246
I0
sVmethod
p247
VGET
p248
sVhttpVersion
p249
VHTTP/1.1
p250
ssVtimings
p251
(dp252
Vcomment
p253
g4
sVreceive
p254
I0
sVsend
p255
I0
sVssl
p256
I-1
sVconnect
p257
I-1
sVdns
p258
I-1
sVwait
p259
I44
sVblocked
p260
I-1
ssVtime
p261
I44
sVresponse
p262
(dp263
Vstatus
p264
I302
sVcomment
p265
g4
sVcookies
p266
(lp267
sVstatusText
p268
VFound
p269
sVcontent
p270
(dp271
VmimeType
p272
Vtext/html; charset=UTF-8
p273
sVcomment
p274
g4
sVsize
p275
I0
ssVheaders
p276
(lp277
sVheadersSize
p278
I609
sVredirectURL
p279
Vhttps://www.google.com/?gws_rd=ssl
p280
sVbodySize
p281
I231
sVhttpVersion
p282
VHTTP/1.1
p283
ssa(dp284
Vcomment
p285
g4
sVserverIPAddress
p286
V172.217.6.4
p287
sVpageref
p288
VFantastic Beasts and Where to Find Them
p289
sVstartedDateTime
p290
V2017-04-16T08:40:54.171-05:00
p291
sVcache
p292
(dp293
sVrequest
p294
(dp295
Vcomment
p296
g4
sVcookies
p297
(lp298
sVurl
p299
Vhttps://www.google.com/?gws_rd=ssl
p300
sVqueryString
p301
(lp302
(dp303
Vname
p304
Vgws_rd
p305
sVvalue
p306
Vssl
p307
sasVheaders
p308
(lp309
sVheadersSize
p310
I607
sVbodySize
p311
I0
sVmethod
p312
VGET
p313
sVhttpVersion
p314
VHTTP/1.1
p315
ssVtimings
p316
(dp317
Vcomment
p318
g4
sVreceive
p319
I24
sVsend
p320
I0
sVssl
p321
I40
sVconnect
p322
I55
sVdns
p323
I4
sVwait
p324
I77
sVblocked
p325
I0
ssVtime
p326
I162
sVresponse
p327
(dp328
Vstatus
p329
I200
sVcomment
p330
g4
sVcookies
p331
(lp332
sVstatusText
p333
VOK
p334
sVcontent
p335
(dp336
VmimeType
p337
Vtext/html; charset=UTF-8
p338
sVcomment
p339
g4
sVsize
p340
I0
ssVheaders
p341
(lp342
sVheadersSize
p343
I721
sVredirectURL
p344
g4
sVbodySize
p345
I34284
sVhttpVersion
p346
VHTTP/1.1
p347
ssa(dp348
Vcomment
p349
g4
sVserverIPAddress
p350
V172.217.6.4
p351
sVpageref
p352
VFantastic Beasts and Where to Find Them
p353
sVstartedDateTime
p354
V2017-04-16T08:40:54.642-05:00
p355
sVcache
p356
(dp357
sVrequest
p358
(dp359
Vcomment
p360
g4
sVcookies
p361
(lp362
sVurl
p363
Vhttps://www.google.com/gen_204?s=mobilewebhp&atyp=csi&ei=ZXTzWK32CciijwTy7b-4AQ&imc=1&imn=1&imp=0&adh=&xjs=init.45.12.sb_mob.32.dvl.7.c.1.jsa.1.mbsf.1&ima=1&rt=xjsls.16,prt.16,iml.16,dcl.52,xjses.119,xjsee.253,xjs.254,ol.353,aft.16,wsrt.222,cst.0,dnst.0,rqst.107,rspt.108,rqstt.118,unt.52,cstt.52,dit.263
p364
sVqueryString
p365
(lp366
(dp367
Vname
p368
g57
sVvalue
p369
Vmobilewebhp
p370
sa(dp371
Vname
p372
Vatyp
p373
sVvalue
p374
Vcsi
p375
sa(dp376
Vname
p377
Vei
p378
sVvalue
p379
VZXTzWK32CciijwTy7b-4AQ
p380
sa(dp381
Vname
p382
Vimc
p383
sVvalue
p384
g59
sa(dp385
Vname
p386
Vimn
p387
sVvalue
p388
g59
sa(dp389
Vname
p390
Vimp
p391
sVvalue
p392
V0
p393
sa(dp394
Vname
p395
Vadh
p396
sVvalue
p397
g4
sa(dp398
Vname
p399
Vxjs
p400
sVvalue
p401
Vinit.45.12.sb_mob.32.dvl.7.c.1.jsa.1.mbsf.1
p402
sa(dp403
Vname
p404
Vima
p405
sVvalue
p406
g59
sa(dp407
Vname
p408
Vrt
p409
sVvalue
p410
Vxjsls.16,prt.16,iml.16,dcl.52,xjses.119,xjsee.253,xjs.254,ol.353,aft.16,wsrt.222,cst.0,dnst.0,rqst.107,rspt.108,rqstt.118,unt.52,cstt.52,dit.263
p411
sasVheaders
p412
(lp413
sVheadersSize
p414
I832
sVbodySize
p415
I0
sVmethod
p416
VGET
p417
sVhttpVersion
p418
VHTTP/1.1
p419
ssVtimings
p420
(dp421
Vcomment
p422
g4
sVreceive
p423
I0
sVsend
p424
I0
sVssl
p425
I-1
sVconnect
p426
I-1
sVdns
p427
I-1
sVwait
p428
I36
sVblocked
p429
I-1
ssVtime
p430
I36
sVresponse
p431
(dp432
Vstatus
p433
I204
sVcomment
p434
g4
sVcookies
p435
(lp436
sVstatusText
p437
VNo Content
p438
sVcontent
p439
(dp440
VmimeType
p441
Vtext/html; charset=UTF-8
p442
sVcomment
p443
g4
sVsize
p444
I0
ssVheaders
p445
(lp446
sVheadersSize
p447
I248
sVredirectURL
p448
g4
sVbodySize
p449
I0
sVhttpVersion
p450
VHTTP/1.1
p451
ssa(dp452
Vcomment
p453
g4
sVserverIPAddress
p454
V172.217.6.4
p455
sVpageref
p456
VFantastic Beasts and Where to Find Them
p457
sVstartedDateTime
p458
V2017-04-16T08:40:54.767-05:00
p459
sVcache
p460
(dp461
sVrequest
p462
(dp463
Vcomment
p464
g4
sVcookies
p465
(lp466
sVurl
p467
Vhttps://www.google.com/complete/search?client=mobile-gws-hp&hl=en&gs_rn=64&gs_ri=mobile-gws-hp&sla=1&pfq=faye%20resnick&gm=602&cp=0&gs_id=1&xhr=t&q=F&tch=1&ech=1&psi=ZXTzWK32CciijwTy7b-4AQ.1492350054488.1
p468
sVqueryString
p469
(lp470
(dp471
Vname
p472
Vclient
p473
sVvalue
p474
Vmobile-gws-hp
p475
sa(dp476
Vname
p477
Vhl
p478
sVvalue
p479
Ven
p480
sa(dp481
Vname
p482
Vgs_rn
p483
sVvalue
p484
V64
p485
sa(dp486
Vname
p487
Vgs_ri
p488
sVvalue
p489
Vmobile-gws-hp
p490
sa(dp491
Vname
p492
Vsla
p493
sVvalue
p494
g59
sa(dp495
Vname
p496
Vpfq
p497
sVvalue
p498
Vfaye resnick
p499
sa(dp500
Vname
p501
Vgm
p502
sVvalue
p503
V602
p504
sa(dp505
Vname
p506
Vcp
p507
sVvalue
p508
g393
sa(dp509
Vname
p510
Vgs_id
p511
sVvalue
p512
g59
sa(dp513
Vname
p514
Vxhr
p515
sVvalue
p516
g52
sa(dp517
Vname
p518
Vq
p519
sVvalue
p520
VF
p521
sa(dp522
Vname
p523
Vtch
p524
sVvalue
p525
g59
sa(dp526
Vname
p527
Vech
p528
sVvalue
p529
g59
sa(dp530
Vname
p531
Vpsi
p532
sVvalue
p533
VZXTzWK32CciijwTy7b-4AQ.1492350054488.1
p534
sasVheaders
p535
(lp536
sVheadersSize
p537
I732
sVbodySize
p538
I0
sVmethod
p539
VGET
p540
sVhttpVersion
p541
VHTTP/1.1
p542
ssVtimings
p543
(dp544
Vcomment
p545
g4
sVreceive
p546
I0
sVsend
p547
I0
sVssl
p548
I-1
sVconnect
p549
I-1
sVdns
p550
I-1
sVwait
p551
I0
sVblocked
p552
I-1
ssVtime
p553
I0
sVresponse
p554
(dp555
Vstatus
p556
I0
sVcomment
p557
g4
sVcookies
p558
(lp559
sV_error
p560
VNo response received
p561
sVstatusText
p562
g4
sVcontent
p563
(dp564
VmimeType
p565
g4
sVcomment
p566
g4
sVsize
p567
I0
ssVheaders
p568
(lp569
sVheadersSize
p570
I-1
sVredirectURL
p571
g4
sVbodySize
p572
I-1
sVhttpVersion
p573
Vunknown
p574
ssa(dp575
Vcomment
p576
g4
sVserverIPAddress
p577
V172.217.6.4
p578
sVpageref
p579
VFantastic Beasts and Where to Find Them
p580
sVstartedDateTime
p581
V2017-04-16T08:40:54.894-05:00
p582
sVcache
p583
(dp584
sVrequest
p585
(dp586
Vcomment
p587
g4
sVcookies
p588
(lp589
sVurl
p590
Vhttps://www.google.com
p591
sVqueryString
p592
(lp593
sVheaders
p594
(lp595
sVheadersSize
p596
I0
sVbodySize
p597
I0
sVmethod
p598
VCONNECT
p599
sVhttpVersion
p600
VHTTP/1.1
p601
ssVtimings
p602
(dp603
Vcomment
p604
g4
sVreceive
p605
I0
sVsend
p606
I0
sVssl
p607
I-1
sVconnect
p608
I42
sVdns
p609
I0
sVwait
p610
I0
sVblocked
p611
I0
ssVtime
p612
I43
sVresponse
p613
(dp614
Vstatus
p615
I0
sVcomment
p616
g4
sVcookies
p617
(lp618
sV_error
p619
VUnable to connect to host
p620
sVstatusText
p621
g4
sVcontent
p622
(dp623
VmimeType
p624
g4
sVcomment
p625
g4
sVsize
p626
I0
ssVheaders
p627
(lp628
sVheadersSize
p629
I-1
sVredirectURL
p630
g4
sVbodySize
p631
I-1
sVhttpVersion
p632
Vunknown
p633
ssa(dp634
Vcomment
p635
g4
sVserverIPAddress
p636
V172.217.6.4
p637
sVpageref
p638
VFantastic Beasts and Where to Find Them
p639
sVstartedDateTime
p640
V2017-04-16T08:40:54.964-05:00
p641
sVcache
p642
(dp643
sVrequest
p644
(dp645
Vcomment
p646
g4
sVcookies
p647
(lp648
sVurl
p649
Vhttps://www.google.com/search?site=&source=hp&ei=ZXTzWK32CciijwTy7b-4AQ&q=Fantastic+Beasts+and+Where+to+Find+Them&oq=Fantastic+Beasts+and+Where+to+Find+Them&gs_l=mobile-gws-hp.3...241.351.0.392.39.2.0.0.0.0.0.0..0.0....0...1c.1.64.mobile-gws-hp..39.0.0.G0pV0DotPe8
p650
sVqueryString
p651
(lp652
(dp653
Vname
p654
Vsite
p655
sVvalue
p656
g4
sa(dp657
Vname
p658
Vsource
p659
sVvalue
p660
Vhp
p661
sa(dp662
Vname
p663
Vei
p664
sVvalue
p665
VZXTzWK32CciijwTy7b-4AQ
p666
sa(dp667
Vname
p668
g519
sVvalue
p669
VFantastic Beasts and Where to Find Them
p670
sa(dp671
Vname
p672
Voq
p673
sVvalue
p674
VFantastic Beasts and Where to Find Them
p675
sa(dp676
Vname
p677
Vgs_l
p678
sVvalue
p679
Vmobile-gws-hp.3...241.351.0.392.39.2.0.0.0.0.0.0..0.0....0...1c.1.64.mobile-gws-hp..39.0.0.G0pV0DotPe8
p680
sasVheaders
p681
(lp682
sVheadersSize
p683
I882
sVbodySize
p684
I0
sVmethod
p685
VGET
p686
sVhttpVersion
p687
VHTTP/1.1
p688
ssVtimings
p689
(dp690
Vcomment
p691
g4
sVreceive
p692
I2019
sVsend
p693
I0
sVssl
p694
I27
sVconnect
p695
I44
sVdns
p696
I0
sVwait
p697
I102
sVblocked
p698
I0
ssVtime
p699
I2166
sVresponse
p700
(dp701
Vstatus
p702
I200
sVcomment
p703
g4
sVcookies
p704
(lp705
sVstatusText
p706
VOK
p707
sVcontent
p708
(dp709
VmimeType
p710
Vtext/html; charset=UTF-8
p711
sVcomment
p712
g4
sVsize
p713
I0
ssVheaders
p714
(lp715
sVheadersSize
p716
I363
sVredirectURL
p717
g4
sVbodySize
p718
I56778
sVhttpVersion
p719
VHTTP/1.1
p720
ssa(dp721
Vcomment
p722
g4
sVserverIPAddress
p723
V172.217.6.4
p724
sVpageref
p725
VFantastic Beasts and Where to Find Them
p726
sVstartedDateTime
p727
V2017-04-16T08:40:57.522-05:00
p728
sVcache
p729
(dp730
sVrequest
p731
(dp732
Vcomment
p733
g4
sVcookies
p734
(lp735
sVurl
p736
Vhttps://www.google.com/xjs/_/js/k=xjs.qs.en_US.pCBXVCvTH3s.O/m=syl,syj,syn,em3,em8,em6,em7,sym,aa,abd,sy2g,sy2k,sy29,sy2j,sy2d,sy2a,sy2c,sy2f,sy2l,sy2m,sy2n,emd,async,sybn,sybi,sybo,sy1f,sy45,sy46,sy9w,sybk,sybj,sybp,sy1g,sy30,sy47,sybm,sybl,sybq,sy1h,sybh,dvl,syep,foot,ipv6,sy32,emj,shm,sy5g,sy5i,sy5k,sykh,tl,sy2x,sy2y,sy2t,sy38,em12,vs,sy5j,sy5h,sy6u,sy66,sy67,sy7d,sy7j,sy4u,sy69,sy89,sy7e,sykk,sykl,tnv,bct,sy48,sy3a,sy3c,sy5b,sy4x,sy4z,sy56,syea,sy4y,syci,syeb,sy4v,sy5d,sya3,sy40,sy76,sye9,syec,sye4,sy5a,sy51,sy5e,sya2,sy65,sye2,sy31,sy4t,sy4w,sy52,sy91,sy9l,sya4,sye6,syg5,sygv,sy5f,sy23,sy3b,sy4h,sy53,sy6d,sydt,sygs,sygw,sygu,sy2u,sygt,sy24,sy34,sygx,kpoe,sy1y,syf5,sy99,syf4,sy26,syfc,syfn,syf7,syff,sy1i,sy22,sy6i,sy68,sy8d,sy9b,syf6,syfl,syfr,syfq,sy25,syfg,sy1j,sy4q,sy5o,sy5r,sy6j,sy6n,sy6p,sy8h,syc7,syc8,syfb,syfj,syfs,syft,syg3,syg7,emb,em9,ema,emn,emo,syg4,syg6,ivg,sy9m,sy9n,iuci,img,sy4d,sy4f,sy4c,sy4e,sy4b,sy6w,shrb,sy4g,syd7,dgm,tbhm,syac,syl6,syl7,tbm,sy41,tcc,kpor,kpcb,sy5x,qif,syhz,ssc,sy72,sykr,strm,sygq,kpc,kpci,vrml,syj7,syj8,syj2,syjc,syj6,syj3,syjg,syjh,syje,syjd,syjk,syji,syjf,syj0,emr,ems,emt,emu,emv,emx,emy,emz,em10,em11,udlg,sy5z,atn,sy4i,sya1,ampfp/am=gCP4LtMEBXQA2RUaq_oFBISzAFA/rt=j/d=0/t=zcms/rs=ACT90oFwm4NZCwIcuuiqmthdlECdBzkhRA
p737
sVqueryString
p738
(lp739
sVheaders
p740
(lp741
sVheadersSize
p742
I1793
sVbodySize
p743
I0
sVmethod
p744
VGET
p745
sVhttpVersion
p746
VHTTP/1.1
p747
ssVtimings
p748
(dp749
Vcomment
p750
g4
sVreceive
p751
I116
sVsend
p752
I0
sVssl
p753
I-1
sVconnect
p754
I-1
sVdns
p755
I-1
sVwait
p756
I33
sVblocked
p757
I-1
ssVtime
p758
I151
sVresponse
p759
(dp760
Vstatus
p761
I200
sVcomment
p762
g4
sVcookies
p763
(lp764
sVstatusText
p765
VOK
p766
sVcontent
p767
(dp768
VmimeType
p769
Vtext/javascript; charset=UTF-8
p770
sVcomment
p771
g4
sVsize
p772
I0
ssVheaders
p773
(lp774
sVheadersSize
p775
I464
sVredirectURL
p776
g4
sVbodySize
p777
I287462
sVhttpVersion
p778
VHTTP/1.1
p779
ssa(dp780
Vcomment
p781
g4
sVserverIPAddress
p782
V172.217.6.4
p783
sVpageref
p784
VFantastic Beasts and Where to Find Them
p785
sVstartedDateTime
p786
V2017-04-16T08:40:58.061-05:00
p787
sVcache
p788
(dp789
sVrequest
p790
(dp791
Vcomment
p792
g4
sVcookies
p793
(lp794
sVurl
p795
Vhttps://www.google.com/async/irc?vet=10ahUKEwiWx-KWjanTAhWn54MKHSZ3CzIQo0EI5QE..i&ved=0ahUKEwiWx-KWjanTAhWn54MKHSZ3CzIQo0EI5QE&ei=ZXTzWNaAOqfPjwSm7q2QAw&yv=2&async=iu:1,ved:0ahUKEwiWx-KWjanTAhWn54MKHSZ3CzIQo0EI5QE,_id:irc_async,_pms:qs
p796
sVqueryString
p797
(lp798
(dp799
Vname
p800
Vvet
p801
sVvalue
p802
V10ahUKEwiWx-KWjanTAhWn54MKHSZ3CzIQo0EI5QE..i
p803
sa(dp804
Vname
p805
Vved
p806
sVvalue
p807
V0ahUKEwiWx-KWjanTAhWn54MKHSZ3CzIQo0EI5QE
p808
sa(dp809
Vname
p810
Vei
p811
sVvalue
p812
VZXTzWNaAOqfPjwSm7q2QAw
p813
sa(dp814
Vname
p815
Vyv
p816
sVvalue
p817
g64
sa(dp818
Vname
p819
Vasync
p820
sVvalue
p821
Viu:1,ved:0ahUKEwiWx-KWjanTAhWn54MKHSZ3CzIQo0EI5QE,_id:irc_async,_pms:qs
p822
sasVheaders
p823
(lp824
sVheadersSize
p825
I752
sVbodySize
p826
I0
sVmethod
p827
VGET
p828
sVhttpVersion
p829
VHTTP/1.1
p830
ssVtimings
p831
(dp832
Vcomment
p833
g4
sVreceive
p834
I1
sVsend
p835
I0
sVssl
p836
I-1
sVconnect
p837
I-1
sVdns
p838
I-1
sVwait
p839
I36
sVblocked
p840
I-1
ssVtime
p841
I38
sVresponse
p842
(dp843
Vstatus
p844
I200
sVcomment
p845
g4
sVcookies
p846
(lp847
sVstatusText
p848
VOK
p849
sVcontent
p850
(dp851
VmimeType
p852
Vtext/html; charset=UTF-8
p853
sVcomment
p854
g4
sVsize
p855
I0
ssVheaders
p856
(lp857
sVheadersSize
p858
I383
sVredirectURL
p859
g4
sVbodySize
p860
I7791
sVhttpVersion
p861
VHTTP/1.1
p862
ssa(dp863
Vcomment
p864
g4
sVserverIPAddress
p865
V172.217.6.4
p866
sVpageref
p867
VFantastic Beasts and Where to Find Them
p868
sVstartedDateTime
p869
V2017-04-16T08:40:58.162-05:00
p870
sVcache
p871
(dp872
sVrequest
p873
(dp874
Vcomment
p875
g4
sVcookies
p876
(lp877
sVurl
p878
Vhttps://www.google.com/async/ampfp?vet=10ahUKEwiWx-KWjanTAhWn54MKHSZ3CzIQtZoBCOMB..i&ei=ZXTzWNaAOqfPjwSm7q2QAw&yv=2&async=_id:ampfp-async,_pms:qs
p879
sVqueryString
p880
(lp881
(dp882
Vname
p883
Vvet
p884
sVvalue
p885
V10ahUKEwiWx-KWjanTAhWn54MKHSZ3CzIQtZoBCOMB..i
p886
sa(dp887
Vname
p888
Vei
p889
sVvalue
p890
VZXTzWNaAOqfPjwSm7q2QAw
p891
sa(dp892
Vname
p893
Vyv
p894
sVvalue
p895
g64
sa(dp896
Vname
p897
Vasync
p898
sVvalue
p899
V_id:ampfp-async,_pms:qs
p900
sasVheaders
p901
(lp902
sVheadersSize
p903
I662
sVbodySize
p904
I0
sVmethod
p905
VGET
p906
sVhttpVersion
p907
VHTTP/1.1
p908
ssVtimings
p909
(dp910
Vcomment
p911
g4
sVreceive
p912
I1
sVsend
p913
I0
sVssl
p914
I-1
sVconnect
p915
I-1
sVdns
p916
I-1
sVwait
p917
I39
sVblocked
p918
I-1
ssVtime
p919
I41
sVresponse
p920
(dp921
Vstatus
p922
I200
sVcomment
p923
g4
sVcookies
p924
(lp925
sVstatusText
p926
VOK
p927
sVcontent
p928
(dp929
VmimeType
p930
Vtext/html; charset=UTF-8
p931
sVcomment
p932
g4
sVsize
p933
I0
ssVheaders
p934
(lp935
sVheadersSize
p936
I383
sVredirectURL
p937
g4
sVbodySize
p938
I4528
sVhttpVersion
p939
VHTTP/1.1
p940
ssa(dp941
Vcomment
p942
g4
sVserverIPAddress
p943
V216.58.216.193
p944
sVpageref
p945
VFantastic Beasts and Where to Find Them
p946
sVstartedDateTime
p947
V2017-04-16T08:40:58.167-05:00
p948
sVcache
p949
(dp950
sVrequest
p951
(dp952
Vcomment
p953
g4
sVcookies
p954
(lp955
sVurl
p956
Vhttps://cdn.ampproject.org/preconnect.gif?0.29476443272443476
p957
sVqueryString
p958
(lp959
(dp960
Vname
p961
V0.29476443272443476
p962
sVvalue
p963
g4
sasVheaders
p964
(lp965
sVheadersSize
p966
I376
sVbodySize
p967
I0
sVmethod
p968
VGET
p969
sVhttpVersion
p970
VHTTP/1.1
p971
ssVtimings
p972
(dp973
Vcomment
p974
g4
sVreceive
p975
I0
sVsend
p976
I0
sVssl
p977
I-1
sVconnect
p978
I-1
sVdns
p979
I-1
sVwait
p980
I27
sVblocked
p981
I-1
ssVtime
p982
I28
sVresponse
p983
(dp984
Vstatus
p985
I200
sVcomment
p986
g4
sVcookies
p987
(lp988
sVstatusText
p989
VOK
p990
sVcontent
p991
(dp992
VmimeType
p993
Vimage/gif
p994
sVcomment
p995
g4
sVsize
p996
I0
ssVheaders
p997
(lp998
sVheadersSize
p999
I826
sVredirectURL
p1000
g4
sVbodySize
p1001
I37
sVhttpVersion
p1002
VHTTP/1.1
p1003
ssa(dp1004
Vcomment
p1005
g4
sVserverIPAddress
p1006
V172.217.6.4
p1007
sVpageref
p1008
VFantastic Beasts and Where to Find Them
p1009
sVstartedDateTime
p1010
V2017-04-16T08:40:59.397-05:00
p1011
sVcache
p1012
(dp1013
sVrequest
p1014
(dp1015
Vcomment
p1016
g4
sVcookies
p1017
(lp1018
sVurl
p1019
Vhttps://www.google.com/async/log_amp_item_set?vet=10ahUKEwj966WYjanTAhWI7oMKHSqtDFkQooQBCAE..i&ei=ZXTzWNaAOqfPjwSm7q2QAw&yv=2&async=num_items:1,_fmt:jspb
p1020
sVqueryString
p1021
(lp1022
(dp1023
Vname
p1024
Vvet
p1025
sVvalue
p1026
V10ahUKEwj966WYjanTAhWI7oMKHSqtDFkQooQBCAE..i
p1027
sa(dp1028
Vname
p1029
Vei
p1030
sVvalue
p1031
VZXTzWNaAOqfPjwSm7q2QAw
p1032
sa(dp1033
Vname
p1034
Vyv
p1035
sVvalue
p1036
g64
sa(dp1037
Vname
p1038
Vasync
p1039
sVvalue
p1040
Vnum_items:1,_fmt:jspb
p1041
sasVheaders
p1042
(lp1043
sVheadersSize
p1044
I670
sVbodySize
p1045
I0
sVmethod
p1046
VGET
p1047
sVhttpVersion
p1048
VHTTP/1.1
p1049
ssVtimings
p1050
(dp1051
Vcomment
p1052
g4
sVreceive
p1053
I0
sVsend
p1054
I0
sVssl
p1055
I-1
sVconnect
p1056
I-1
sVdns
p1057
I-1
sVwait
p1058
I32
sVblocked
p1059
I-1
ssVtime
p1060
I33
sVresponse
p1061
(dp1062
Vstatus
p1063
I200
sVcomment
p1064
g4
sVcookies
p1065
(lp1066
sVstatusText
p1067
VOK
p1068
sVcontent
p1069
(dp1070
VmimeType
p1071
Vapplication/json; charset=UTF-8
p1072
sVcomment
p1073
g4
sVsize
p1074
I0
ssVheaders
p1075
(lp1076
sVheadersSize
p1077
I417
sVredirectURL
p1078
g4
sVbodySize
p1079
I129
sVhttpVersion
p1080
VHTTP/1.1
p1081
ssa(dp1082
Vcomment
p1083
g4
sVserverIPAddress
p1084
V172.217.6.4
p1085
sVpageref
p1086
VFantastic Beasts and Where to Find Them
p1087
sVstartedDateTime
p1088
V2017-04-16T08:40:59.458-05:00
p1089
sVcache
p1090
(dp1091
sVrequest
p1092
(dp1093
Vcomment
p1094
g4
sVcookies
p1095
(lp1096
sVurl
p1097
Vhttps://www.google.com/gen_204?s=web&atyp=csi&ei=ZXTzWNaAOqfPjwSm7q2QAw&imc=31&imn=31&imp=6&adh=&xjs=init.52.14.sb_mob.43.dvl.3.mbsf.2.c.1.jsa.1&ima=0&rt=prt.1991,iml.2037,xjsls.1991,qiml.2234,dcl.2040,xjses.2167,xjsee.2359,xjs.2360,ol.4261,aft.1991,wsrt.236,cst.0,dnst.0,rqst.2123,rspt.2126,rqstt.49,unt.3,cstt.3,dit.2235
p1098
sVqueryString
p1099
(lp1100
(dp1101
Vname
p1102
g57
sVvalue
p1103
Vweb
p1104
sa(dp1105
Vname
p1106
Vatyp
p1107
sVvalue
p1108
Vcsi
p1109
sa(dp1110
Vname
p1111
Vei
p1112
sVvalue
p1113
VZXTzWNaAOqfPjwSm7q2QAw
p1114
sa(dp1115
Vname
p1116
Vimc
p1117
sVvalue
p1118
V31
p1119
sa(dp1120
Vname
p1121
Vimn
p1122
sVvalue
p1123
V31
p1124
sa(dp1125
Vname
p1126
Vimp
p1127
sVvalue
p1128
V6
p1129
sa(dp1130
Vname
p1131
Vadh
p1132
sVvalue
p1133
g4
sa(dp1134
Vname
p1135
Vxjs
p1136
sVvalue
p1137
Vinit.52.14.sb_mob.43.dvl.3.mbsf.2.c.1.jsa.1
p1138
sa(dp1139
Vname
p1140
Vima
p1141
sVvalue
p1142
g393
sa(dp1143
Vname
p1144
Vrt
p1145
sVvalue
p1146
Vprt.1991,iml.2037,xjsls.1991,qiml.2234,dcl.2040,xjses.2167,xjsee.2359,xjs.2360,ol.4261,aft.1991,wsrt.236,cst.0,dnst.0,rqst.2123,rspt.2126,rqstt.49,unt.3,cstt.3,dit.2235
p1147
sasVheaders
p1148
(lp1149
sVheadersSize
p1150
I839
sVbodySize
p1151
I0
sVmethod
p1152
VGET
p1153
sVhttpVersion
p1154
VHTTP/1.1
p1155
ssVtimings
p1156
(dp1157
Vcomment
p1158
g4
sVreceive
p1159
I0
sVsend
p1160
I0
sVssl
p1161
I17
sVconnect
p1162
I33
sVdns
p1163
I0
sVwait
p1164
I40
sVblocked
p1165
I0
ssVtime
p1166
I74
sVresponse
p1167
(dp1168
Vstatus
p1169
I204
sVcomment
p1170
g4
sVcookies
p1171
(lp1172
sVstatusText
p1173
VNo Content
p1174
sVcontent
p1175
(dp1176
VmimeType
p1177
Vtext/html; charset=UTF-8
p1178
sVcomment
p1179
g4
sVsize
p1180
I0
ssVheaders
p1181
(lp1182
sVheadersSize
p1183
I248
sVredirectURL
p1184
g4
sVbodySize
p1185
I0
sVhttpVersion
p1186
VHTTP/1.1
p1187
ssa(dp1188
Vcomment
p1189
g4
sVserverIPAddress
p1190
V172.217.6.4
p1191
sVpageref
p1192
VFantastic Beasts and Where to Find Them
p1193
sVstartedDateTime
p1194
V2017-04-16T08:41:00.141-05:00
p1195
sVcache
p1196
(dp1197
sVrequest
p1198
(dp1199
Vcomment
p1200
g4
sVcookies
p1201
(lp1202
sVurl
p1203
Vhttps://www.google.com/gen_204?atyp=i&ct=slh&cad=&ei=VHTzWLucFMekjwSNpYGoBQ&m=V&t=C&s=1&v=2&pv=0.6897005005300825&me=1:1492350039745,x:4,V,0,0,1280,944:0,N,1,VHTzWLucFMekjwSNpYGoBQ:0,R,1,24,8,155,1249,394:0,R,1,25,8,155,1249,394:0,R,1,29,1171,155,86,116:0,R,1,38,8,193,1163,40:0,R,1,50,8,271,1249,48:0,R,1,52,8,319,1249,56:0,R,1,56,8,392,1249,20:0,R,1,57,24,392,1217,20:0,R,1,62,8,428,1249,20:0,R,1,71,8,456,1249,20:0,R,1,100,8,559,1249,201:0,R,1,101,24,559,1217,190:0,R,1,109,8,770,1249,393:0,R,1,110,8,770,1249,393:0,R,1,113,0,834,1265,349:27,B,4488:14278,e,U&zx=1492350060140
p1204
sVqueryString
p1205
(lp1206
(dp1207
Vname
p1208
Vatyp
p1209
sVvalue
p1210
g30
sa(dp1211
Vname
p1212
Vct
p1213
sVvalue
p1214
Vslh
p1215
sa(dp1216
Vname
p1217
Vcad
p1218
sVvalue
p1219
g4
sa(dp1220
Vname
p1221
Vei
p1222
sVvalue
p1223
VVHTzWLucFMekjwSNpYGoBQ
p1224
sa(dp1225
Vname
p1226
g47
sVvalue
p1227
g49
sa(dp1228
Vname
p1229
g52
sVvalue
p1230
g54
sa(dp1231
Vname
p1232
g57
sVvalue
p1233
g59
sa(dp1234
Vname
p1235
g62
sVvalue
p1236
g64
sa(dp1237
Vname
p1238
Vpv
p1239
sVvalue
p1240
V0.6897005005300825
p1241
sa(dp1242
Vname
p1243
Vme
p1244
sVvalue
p1245
V1:1492350039745,x:4,V,0,0,1280,944:0,N,1,VHTzWLucFMekjwSNpYGoBQ:0,R,1,24,8,155,1249,394:0,R,1,25,8,155,1249,394:0,R,1,29,1171,155,86,116:0,R,1,38,8,193,1163,40:0,R,1,50,8,271,1249,48:0,R,1,52,8,319,1249,56:0,R,1,56,8,392,1249,20:0,R,1,57,24,392,1217,20:0,R,1,62,8,428,1249,20:0,R,1,71,8,456,1249,20:0,R,1,100,8,559,1249,201:0,R,1,101,24,559,1217,190:0,R,1,109,8,770,1249,393:0,R,1,110,8,770,1249,393:0,R,1,113,0,834,1265,349:27,B,4488:14278,e,U
p1246
sa(dp1247
Vname
p1248
Vzx
p1249
sVvalue
p1250
V1492350060140
p1251
sasVheaders
p1252
(lp1253
sVheadersSize
p1254
I1095
sVbodySize
p1255
I0
sVmethod
p1256
VGET
p1257
sVhttpVersion
p1258
VHTTP/1.1
p1259
ssVtimings
p1260
(dp1261
Vcomment
p1262
g4
sVreceive
p1263
I0
sVsend
p1264
I0
sVssl
p1265
I-1
sVconnect
p1266
I-1
sVdns
p1267
I-1
sVwait
p1268
I30
sVblocked
p1269
I-1
ssVtime
p1270
I31
sVresponse
p1271
(dp1272
Vstatus
p1273
I204
sVcomment
p1274
g4
sVcookies
p1275
(lp1276
sVstatusText
p1277
VNo Content
p1278
sVcontent
p1279
(dp1280
VmimeType
p1281
Vtext/html; charset=UTF-8
p1282
sVcomment
p1283
g4
sVsize
p1284
I0
ssVheaders
p1285
(lp1286
sVheadersSize
p1287
I248
sVredirectURL
p1288
g4
sVbodySize
p1289
I0
sVhttpVersion
p1290
VHTTP/1.1
p1291
ssasVversion
p1292
V1.2
p1293
sVpages
p1294
(lp1295
(dp1296
VpageTimings
p1297
(dp1298
Vcomment
p1299
g4
ssVcomment
p1300
g4
sVtitle
p1301
VFantastic Beasts and Where to Find Them
p1302
sVid
p1303
VFantastic Beasts and Where to Find Them
p1304
sVstartedDateTime
p1305
V2017-04-16T08:40:54.046-05:00
p1306
sasVcreator
p1307
(dp1308
Vcomment
p1309
g4
sVversion
p1310
V2.1.4
p1311
sVname
p1312
VBrowserMob Proxy
p1313
sss.