(dp0
Vlog
p1
(dp2
Vcomment
p3
V
p4
sVentries
p5
(lp6
(dp7
Vcomment
p8
g4
sVserverIPAddress
p9
V74.125.70.106
p10
sVpageref
p11
VMaserati
p12
sVstartedDateTime
p13
V2017-04-16T08:49:14.129-05:00
p14
sVcache
p15
(dp16
sVrequest
p17
(dp18
Vcomment
p19
g4
sVcookies
p20
(lp21
sVurl
p22
Vhttps://www.google.com/gen_204?atyp=i&ct=slh&cad=&ei=SHbzWJ3KIuzZjwTZ-LvQDA&m=V&t=C&s=1&v=2&pv=0.7970961535757144&me=1:1492350540310,x:2,V,0,0,1280,944:0,N,1,SHbzWJ3KIuzZjwTZ-LvQDA:0,R,1,24,8,155,1249,337:0,R,1,25,8,155,1249,317:0,R,1,26,8,155,1249,90:0,R,1,47,8,502,1249,445:0,R,1,51,8,615,1249,332:0,R,1,52,0,616,1265,351:2,B,4086:13813,e,U&zx=1492350554128
p23
sVqueryString
p24
(lp25
(dp26
Vname
p27
Vatyp
p28
sVvalue
p29
Vi
p30
sa(dp31
Vname
p32
Vct
p33
sVvalue
p34
Vslh
p35
sa(dp36
Vname
p37
Vcad
p38
sVvalue
p39
g4
sa(dp40
Vname
p41
Vei
p42
sVvalue
p43
VSHbzWJ3KIuzZjwTZ-LvQDA
p44
sa(dp45
Vname
p46
Vm
p47
sVvalue
p48
VV
p49
sa(dp50
Vname
p51
Vt
p52
sVvalue
p53
VC
p54
sa(dp55
Vname
p56
Vs
p57
sVvalue
p58
V1
p59
sa(dp60
Vname
p61
Vv
p62
sVvalue
p63
V2
p64
sa(dp65
Vname
p66
Vpv
p67
sVvalue
p68
V0.7970961535757144
p69
sa(dp70
Vname
p71
Vme
p72
sVvalue
p73
V1:1492350540310,x:2,V,0,0,1280,944:0,N,1,SHbzWJ3KIuzZjwTZ-LvQDA:0,R,1,24,8,155,1249,337:0,R,1,25,8,155,1249,317:0,R,1,26,8,155,1249,90:0,R,1,47,8,502,1249,445:0,R,1,51,8,615,1249,332:0,R,1,52,0,616,1265,351:2,B,4086:13813,e,U
p74
sa(dp75
Vname
p76
Vzx
p77
sVvalue
p78
V1492350554128
p79
sasVheaders
p80
(lp81
sVheadersSize
p82
I876
sVbodySize
p83
I0
sVmethod
p84
VGET
p85
sVhttpVersion
p86
VHTTP/1.1
p87
ssVtimings
p88
(dp89
Vcomment
p90
g4
sVreceive
p91
I0
sVsend
p92
I0
sVssl
p93
I-1
sVconnect
p94
I-1
sVdns
p95
I-1
sVwait
p96
I0
sVblocked
p97
I-1
ssVtime
p98
I0
sVresponse
p99
(dp100
Vstatus
p101
I0
sVcomment
p102
g4
sVcookies
p103
(lp104
sV_error
p105
VNo response received
p106
sVstatusText
p107
g4
sVcontent
p108
(dp109
VmimeType
p110
g4
sVcomment
p111
g4
sVsize
p112
I0
ssVheaders
p113
(lp114
sVheadersSize
p115
I-1
sVredirectURL
p116
g4
sVbodySize
p117
I-1
sVhttpVersion
p118
Vunknown
p119
ssa(dp120
Vcomment
p121
g4
sVserverIPAddress
p122
V74.125.70.106
p123
sVpageref
p124
VMaserati
p125
sVstartedDateTime
p126
V2017-04-16T08:49:14.135-05:00
p127
sVcache
p128
(dp129
sVrequest
p130
(dp131
Vcomment
p132
g4
sVcookies
p133
(lp134
sVurl
p135
Vhttp://www.google.com/
p136
sVqueryString
p137
(lp138
sVheaders
p139
(lp140
sVheadersSize
p141
I613
sVbodySize
p142
I0
sVmethod
p143
VGET
p144
sVhttpVersion
p145
VHTTP/1.1
p146
ssVtimings
p147
(dp148
Vcomment
p149
g4
sVreceive
p150
I0
sVsend
p151
I0
sVssl
p152
I-1
sVconnect
p153
I-1
sVdns
p154
I-1
sVwait
p155
I34
sVblocked
p156
I-1
ssVtime
p157
I34
sVresponse
p158
(dp159
Vstatus
p160
I302
sVcomment
p161
g4
sVcookies
p162
(lp163
sVstatusText
p164
VFound
p165
sVcontent
p166
(dp167
VmimeType
p168
Vtext/html; charset=UTF-8
p169
sVcomment
p170
g4
sVsize
p171
I0
ssVheaders
p172
(lp173
sVheadersSize
p174
I609
sVredirectURL
p175
Vhttps://www.google.com/?gws_rd=ssl
p176
sVbodySize
p177
I231
sVhttpVersion
p178
VHTTP/1.1
p179
ssa(dp180
Vcomment
p181
g4
sVserverIPAddress
p182
V74.125.70.106
p183
sVpageref
p184
VMaserati
p185
sVstartedDateTime
p186
V2017-04-16T08:49:14.175-05:00
p187
sVcache
p188
(dp189
sVrequest
p190
(dp191
Vcomment
p192
g4
sVcookies
p193
(lp194
sVurl
p195
Vhttps://www.google.com/?gws_rd=ssl
p196
sVqueryString
p197
(lp198
(dp199
Vname
p200
Vgws_rd
p201
sVvalue
p202
Vssl
p203
sasVheaders
p204
(lp205
sVheadersSize
p206
I607
sVbodySize
p207
I0
sVmethod
p208
VGET
p209
sVhttpVersion
p210
VHTTP/1.1
p211
ssVtimings
p212
(dp213
Vcomment
p214
g4
sVreceive
p215
I23
sVsend
p216
I0
sVssl
p217
I-1
sVconnect
p218
I-1
sVdns
p219
I-1
sVwait
p220
I99
sVblocked
p221
I-1
ssVtime
p222
I123
sVresponse
p223
(dp224
Vstatus
p225
I200
sVcomment
p226
g4
sVcookies
p227
(lp228
sVstatusText
p229
VOK
p230
sVcontent
p231
(dp232
VmimeType
p233
Vtext/html; charset=UTF-8
p234
sVcomment
p235
g4
sVsize
p236
I0
ssVheaders
p237
(lp238
sVheadersSize
p239
I721
sVredirectURL
p240
g4
sVbodySize
p241
I34291
sVhttpVersion
p242
VHTTP/1.1
p243
ssa(dp244
Vcomment
p245
g4
sVserverIPAddress
p246
V74.125.70.106
p247
sVpageref
p248
VMaserati
p249
sVstartedDateTime
p250
V2017-04-16T08:49:15.597-05:00
p251
sVcache
p252
(dp253
sVrequest
p254
(dp255
Vcomment
p256
g4
sVcookies
p257
(lp258
sVurl
p259
Vhttps://www.google.com/gen_204?s=mobilewebhp&atyp=csi&ei=WXbzWIaCC-XWjwTzhLTwCA&imc=1&imn=1&imp=0&adh=&xjs=init.51.12.sb_mob.42.c.2.mbsf.2.dvl.2.jsa.1&ima=1&rt=xjsls.16,prt.16,iml.16,dcl.45,xjses.777,xjsee.983,xjs.984,ol.1210,aft.16,wsrt.184,cst.0,dnst.0,rqst.125,rspt.25,rqstt.47,unt.44,cstt.44,dit.215
p260
sVqueryString
p261
(lp262
(dp263
Vname
p264
g57
sVvalue
p265
Vmobilewebhp
p266
sa(dp267
Vname
p268
Vatyp
p269
sVvalue
p270
Vcsi
p271
sa(dp272
Vname
p273
Vei
p274
sVvalue
p275
VWXbzWIaCC-XWjwTzhLTwCA
p276
sa(dp277
Vname
p278
Vimc
p279
sVvalue
p280
g59
sa(dp281
Vname
p282
Vimn
p283
sVvalue
p284
g59
sa(dp285
Vname
p286
Vimp
p287
sVvalue
p288
V0
p289
sa(dp290
Vname
p291
Vadh
p292
sVvalue
p293
g4
sa(dp294
Vname
p295
Vxjs
p296
sVvalue
p297
Vinit.51.12.sb_mob.42.c.2.mbsf.2.dvl.2.jsa.1
p298
sa(dp299
Vname
p300
Vima
p301
sVvalue
p302
g59
sa(dp303
Vname
p304
Vrt
p305
sVvalue
p306
Vxjsls.16,prt.16,iml.16,dcl.45,xjses.777,xjsee.983,xjs.984,ol.1210,aft.16,wsrt.184,cst.0,dnst.0,rqst.125,rspt.25,rqstt.47,unt.44,cstt.44,dit.215
p307
sasVheaders
p308
(lp309
sVheadersSize
p310
I831
sVbodySize
p311
I0
sVmethod
p312
VGET
p313
sVhttpVersion
p314
VHTTP/1.1
p315
ssVtimings
p316
(dp317
Vcomment
p318
g4
sVreceive
p319
I0
sVsend
p320
I0
sVssl
p321
I-1
sVconnect
p322
I-1
sVdns
p323
I-1
sVwait
p324
I79
sVblocked
p325
I-1
ssVtime
p326
I79
sVresponse
p327
(dp328
Vstatus
p329
I204
sVcomment
p330
g4
sVcookies
p331
(lp332
sVstatusText
p333
VNo Content
p334
sVcontent
p335
(dp336
VmimeType
p337
Vtext/html; charset=UTF-8
p338
sVcomment
p339
g4
sVsize
p340
I0
ssVheaders
p341
(lp342
sVheadersSize
p343
I248
sVredirectURL
p344
g4
sVbodySize
p345
I0
sVhttpVersion
p346
VHTTP/1.1
p347
ssa(dp348
Vcomment
p349
g4
sVserverIPAddress
p350
V74.125.70.106
p351
sVpageref
p352
VMaserati
p353
sVstartedDateTime
p354
V2017-04-16T08:49:15.685-05:00
p355
sVcache
p356
(dp357
sVrequest
p358
(dp359
Vcomment
p360
g4
sVcookies
p361
(lp362
sVurl
p363
Vhttps://www.google.com/complete/search?client=mobile-gws-hp&hl=en&gs_rn=64&gs_ri=mobile-gws-hp&sla=1&pfq=mercedes-benz&gm=602&cp=0&gs_id=1&xhr=t&q=M&tch=1&ech=1&psi=WXbzWIaCC-XWjwTzhLTwCA.1492350555239.1
p364
sVqueryString
p365
(lp366
(dp367
Vname
p368
Vclient
p369
sVvalue
p370
Vmobile-gws-hp
p371
sa(dp372
Vname
p373
Vhl
p374
sVvalue
p375
Ven
p376
sa(dp377
Vname
p378
Vgs_rn
p379
sVvalue
p380
V64
p381
sa(dp382
Vname
p383
Vgs_ri
p384
sVvalue
p385
Vmobile-gws-hp
p386
sa(dp387
Vname
p388
Vsla
p389
sVvalue
p390
g59
sa(dp391
Vname
p392
Vpfq
p393
sVvalue
p394
Vmercedes-benz
p395
sa(dp396
Vname
p397
Vgm
p398
sVvalue
p399
V602
p400
sa(dp401
Vname
p402
Vcp
p403
sVvalue
p404
g289
sa(dp405
Vname
p406
Vgs_id
p407
sVvalue
p408
g59
sa(dp409
Vname
p410
Vxhr
p411
sVvalue
p412
g52
sa(dp413
Vname
p414
Vq
p415
sVvalue
p416
VM
p417
sa(dp418
Vname
p419
Vtch
p420
sVvalue
p421
g59
sa(dp422
Vname
p423
Vech
p424
sVvalue
p425
g59
sa(dp426
Vname
p427
Vpsi
p428
sVvalue
p429
VWXbzWIaCC-XWjwTzhLTwCA.1492350555239.1
p430
sasVheaders
p431
(lp432
sVheadersSize
p433
I731
sVbodySize
p434
I0
sVmethod
p435
VGET
p436
sVhttpVersion
p437
VHTTP/1.1
p438
ssVtimings
p439
(dp440
Vcomment
p441
g4
sVreceive
p442
I0
sVsend
p443
I0
sVssl
p444
I-1
sVconnect
p445
I-1
sVdns
p446
I-1
sVwait
p447
I0
sVblocked
p448
I-1
ssVtime
p449
I0
sVresponse
p450
(dp451
Vstatus
p452
I0
sVcomment
p453
g4
sVcookies
p454
(lp455
sV_error
p456
VNo response received
p457
sVstatusText
p458
g4
sVcontent
p459
(dp460
VmimeType
p461
g4
sVcomment
p462
g4
sVsize
p463
I0
ssVheaders
p464
(lp465
sVheadersSize
p466
I-1
sVredirectURL
p467
g4
sVbodySize
p468
I-1
sVhttpVersion
p469
Vunknown
p470
ssa(dp471
Vcomment
p472
g4
sVserverIPAddress
p473
V74.125.70.106
p474
sVpageref
p475
VMaserati
p476
sVstartedDateTime
p477
V2017-04-16T08:49:15.762-05:00
p478
sVcache
p479
(dp480
sVrequest
p481
(dp482
Vcomment
p483
g4
sVcookies
p484
(lp485
sVurl
p486
Vhttps://www.google.com/search?site=&source=hp&ei=WXbzWIaCC-XWjwTzhLTwCA&q=Maserati&oq=Maserati&gs_l=mobile-gws-hp.3...397.435.0.470.8.1.0.0.0.0.0.0..0.0....0...1c.1.64.mobile-gws-hp..8.0.0.v8-cU6p1hhY
p487
sVqueryString
p488
(lp489
(dp490
Vname
p491
Vsite
p492
sVvalue
p493
g4
sa(dp494
Vname
p495
Vsource
p496
sVvalue
p497
Vhp
p498
sa(dp499
Vname
p500
Vei
p501
sVvalue
p502
VWXbzWIaCC-XWjwTzhLTwCA
p503
sa(dp504
Vname
p505
g415
sVvalue
p506
VMaserati
p507
sa(dp508
Vname
p509
Voq
p510
sVvalue
p511
VMaserati
p512
sa(dp513
Vname
p514
Vgs_l
p515
sVvalue
p516
Vmobile-gws-hp.3...397.435.0.470.8.1.0.0.0.0.0.0..0.0....0...1c.1.64.mobile-gws-hp..8.0.0.v8-cU6p1hhY
p517
sasVheaders
p518
(lp519
sVheadersSize
p520
I818
sVbodySize
p521
I0
sVmethod
p522
VGET
p523
sVhttpVersion
p524
VHTTP/1.1
p525
ssVtimings
p526
(dp527
Vcomment
p528
g4
sVreceive
p529
I1173
sVsend
p530
I0
sVssl
p531
I-1
sVconnect
p532
I-1
sVdns
p533
I-1
sVwait
p534
I93
sVblocked
p535
I-1
ssVtime
p536
I1267
sVresponse
p537
(dp538
Vstatus
p539
I200
sVcomment
p540
g4
sVcookies
p541
(lp542
sVstatusText
p543
VOK
p544
sVcontent
p545
(dp546
VmimeType
p547
Vtext/html; charset=UTF-8
p548
sVcomment
p549
g4
sVsize
p550
I0
ssVheaders
p551
(lp552
sVheadersSize
p553
I363
sVredirectURL
p554
g4
sVbodySize
p555
I164509
sVhttpVersion
p556
VHTTP/1.1
p557
ssa(dp558
Vcomment
p559
g4
sVserverIPAddress
p560
V74.125.70.106
p561
sVpageref
p562
VMaserati
p563
sVstartedDateTime
p564
V2017-04-16T08:49:16.968-05:00
p565
sVcache
p566
(dp567
sVrequest
p568
(dp569
Vcomment
p570
g4
sVcookies
p571
(lp572
sVurl
p573
Vhttps://www.google.com/gen_204?atyp=i&ct=&cad=udla=1&ei=WnbzWKmnLYOcjwSjx6nYAg&b=0&act=p&ps=0&zx=1492350556967
p574
sVqueryString
p575
(lp576
(dp577
Vname
p578
Vatyp
p579
sVvalue
p580
g30
sa(dp581
Vname
p582
Vct
p583
sVvalue
p584
g4
sa(dp585
Vname
p586
Vcad
p587
sVvalue
p588
Vudla=1
p589
sa(dp590
Vname
p591
Vei
p592
sVvalue
p593
VWnbzWKmnLYOcjwSjx6nYAg
p594
sa(dp595
Vname
p596
Vb
p597
sVvalue
p598
g289
sa(dp599
Vname
p600
Vact
p601
sVvalue
p602
Vp
p603
sa(dp604
Vname
p605
Vps
p606
sVvalue
p607
g289
sa(dp608
Vname
p609
Vzx
p610
sVvalue
p611
V1492350556967
p612
sasVheaders
p613
(lp614
sVheadersSize
p615
I627
sVbodySize
p616
I0
sVmethod
p617
VGET
p618
sVhttpVersion
p619
VHTTP/1.1
p620
ssVtimings
p621
(dp622
Vcomment
p623
g4
sVreceive
p624
I0
sVsend
p625
I0
sVssl
p626
I-1
sVconnect
p627
I-1
sVdns
p628
I-1
sVwait
p629
I29
sVblocked
p630
I-1
ssVtime
p631
I29
sVresponse
p632
(dp633
Vstatus
p634
I204
sVcomment
p635
g4
sVcookies
p636
(lp637
sVstatusText
p638
VNo Content
p639
sVcontent
p640
(dp641
VmimeType
p642
Vtext/html; charset=UTF-8
p643
sVcomment
p644
g4
sVsize
p645
I0
ssVheaders
p646
(lp647
sVheadersSize
p648
I248
sVredirectURL
p649
g4
sVbodySize
p650
I0
sVhttpVersion
p651
VHTTP/1.1
p652
ssa(dp653
Vcomment
p654
g4
sVserverIPAddress
p655
V74.125.70.106
p656
sVpageref
p657
VMaserati
p658
sVstartedDateTime
p659
V2017-04-16T08:49:17.740-05:00
p660
sVcache
p661
(dp662
sVrequest
p663
(dp664
Vcomment
p665
g4
sVcookies
p666
(lp667
sVurl
p668
Vhttps://www.google.com/maps/vt/data=RfCSdfNZ0LFPrHSm0ublXdzhdrDFhtmHhN1u-gM,NnznS-Z13769yHYv8o6Y_hopRAKuj4iIgEj6ScPOoKJ5KWliAogynSpKVoRm2qKkRdVt_J5O9pS2xx2fCpJHbw3xppcRb01MGCxwqC6ul5AJS8CQEcycSoh1-DNglhsiNONuv2w?scale=2&w=997
p669
sVqueryString
p670
(lp671
(dp672
Vname
p673
Vscale
p674
sVvalue
p675
g64
sa(dp676
Vname
p677
Vw
p678
sVvalue
p679
V997
p680
sasVheaders
p681
(lp682
sVheadersSize
p683
I742
sVbodySize
p684
I0
sVmethod
p685
VGET
p686
sVhttpVersion
p687
VHTTP/1.1
p688
ssVtimings
p689
(dp690
Vcomment
p691
g4
sVreceive
p692
I8
sVsend
p693
I0
sVssl
p694
I-1
sVconnect
p695
I-1
sVdns
p696
I-1
sVwait
p697
I110
sVblocked
p698
I-1
ssVtime
p699
I119
sVresponse
p700
(dp701
Vstatus
p702
I200
sVcomment
p703
g4
sVcookies
p704
(lp705
sVstatusText
p706
VOK
p707
sVcontent
p708
(dp709
VmimeType
p710
Vimage/png
p711
sVcomment
p712
g4
sVsize
p713
I0
ssVheaders
p714
(lp715
sVheadersSize
p716
I479
sVredirectURL
p717
g4
sVbodySize
p718
I57154
sVhttpVersion
p719
VHTTP/1.1
p720
ssa(dp721
Vcomment
p722
g4
sVserverIPAddress
p723
V74.125.70.106
p724
sVpageref
p725
VMaserati
p726
sVstartedDateTime
p727
V2017-04-16T08:49:17.778-05:00
p728
sVcache
p729
(dp730
sVrequest
p731
(dp732
Vcomment
p733
g4
sVcookies
p734
(lp735
sVurl
p736
Vhttps://www.google.com/xjs/_/js/k=xjs.qs.en_US.pCBXVCvTH3s.O/m=syl,syj,syn,em3,em8,em6,em7,sym,aa,abd,sy2g,sy2k,sy29,sy2j,sy2d,sy2a,sy2c,sy2f,sy2l,sy2m,sy2n,emd,async,sybn,sybi,sybo,sy1f,sy45,sy46,sy9w,sybk,sybj,sybp,sy1g,sy30,sy47,sybm,sybl,sybq,sy1h,sybh,dvl,syep,foot,ipv6,sy32,emj,shm,sy5g,sy5i,sy5k,sykh,tl,sy2x,sy2y,sy2t,sy38,em12,vs,sy5j,sy5h,sy6u,sy66,sy67,sy7d,sy7j,sy4u,sy69,sy89,sy7e,sykk,sykl,tnv,sy23,sy24,sy4g,adinfo,attl,sy8y,add,apmf,bct,sy1y,sy31,sy22,sy6i,sy4h,sy6h,sy6o,sy25,sy2u,sy5x,sy6j,sy6k,sy6r,emb,em9,ema,sy34,sy4i,sy5y,sy6a,syeg,lie,sy6b,sccm,kch,sy2z,sy2w,syka,trex,sy4d,sy4f,sy4c,sy4e,sy4b,sy6w,shrb,syd7,dgm,sy3d,sy3u,sy5m,sy6e,sy6f,sy6g,ofmc,sy6y,sycu,d3l,mexp,sy7l,sy7t,sy7q,sy87,sy7y,sy80,sy7m,sy82,sy84,sy4l,sy7v,sy7f,sy8k,syi5,syi7,syia,uvl,mtm,sy7u,sy7w,sy7p,sy7s,sy8l,sy85,sy7r,sy81,sy8q,sy7z,sy7o,sy7x,sy86,sy83,sy8t,sy3a,sy3c,sy7g,sy72,sy9u,sy7n,sy3b,sybb,sycx,syew,syi6,syi9,sy91,syb1,syaz,sygq,syhz,syi8,hcar,sy9m,sy4k,sy4v,syd6,sy9n,syi2,syd4,syi3,syi4,fppu,fpv,sst,syi0,cpn,sy37,sycy,sycz,sydv,sae,sy48,sy5b,sy4x,sy4z,sy56,sy52,sy4y,sycv,sy5d,syd0,syda,syd5,sy5e,syd1,sydb,syel,syie,pe,sy5o,sy5r,sy5u,sy5t,sy6z,sy70,sy71,ohi,oh,ohl,syej,sy8b,syek,sybe,syic,syck,syem,syid,eil,di,mpc,sy79,sy8e,sy7b,sy8i,sy7c,sy8n,sy8d,syjz,syk1,sy8s,sy6q,sya0,syf0,syig,syip,syk0,syk2,lor,wrl,rp,syha,fprl,wra,qaim,qif,sy6t,nvm,sy6l,sy6m,qkx,sy41,tcc,kpc,syac,sy9b,syl6,ssc,kpci,img,vrml,iulc,syf5,sy99,syf4,sy26,syfc,syfn,syf7,syff,sy1i,sy68,syf6,syfl,syfr,syfq,syfg,sy1j,sy4q,sy6n,sy6p,sy8h,syc7,syc8,syfb,syfj,syfs,syft,syg3,syg5,syg7,emn,emo,syg4,syg6,ivg,iuci,sy5z,atn,sya3,sya2,sya1,sya4,ampfp/am=gCP4LtMEBXQA2RUaq_oFBISzAFA/rt=j/d=0/t=zcms/rs=ACT90oFwm4NZCwIcuuiqmthdlECdBzkhRA
p737
sVqueryString
p738
(lp739
sVheaders
p740
(lp741
sVheadersSize
p742
I2227
sVbodySize
p743
I0
sVmethod
p744
VGET
p745
sVhttpVersion
p746
VHTTP/1.1
p747
ssVtimings
p748
(dp749
Vcomment
p750
g4
sVreceive
p751
I109
sVsend
p752
I0
sVssl
p753
I-1
sVconnect
p754
I-1
sVdns
p755
I-1
sVwait
p756
I109
sVblocked
p757
I-1
ssVtime
p758
I219
sVresponse
p759
(dp760
Vstatus
p761
I200
sVcomment
p762
g4
sVcookies
p763
(lp764
sVstatusText
p765
VOK
p766
sVcontent
p767
(dp768
VmimeType
p769
Vtext/javascript; charset=UTF-8
p770
sVcomment
p771
g4
sVsize
p772
I0
ssVheaders
p773
(lp774
sVheadersSize
p775
I452
sVredirectURL
p776
g4
sVbodySize
p777
I229641
sVhttpVersion
p778
VHTTP/1.1
p779
ssa(dp780
Vcomment
p781
g4
sVserverIPAddress
p782
V74.125.70.106
p783
sVpageref
p784
VMaserati
p785
sVstartedDateTime
p786
V2017-04-16T08:49:18.081-05:00
p787
sVcache
p788
(dp789
sVrequest
p790
(dp791
Vcomment
p792
g4
sVcookies
p793
(lp794
sVurl
p795
Vhttps://www.google.com/gen_204?s=lu&atyp=csi&ei=WnbzWKmnLYOcjwSjx6nYAg&ima=3&rt=lmap.2166,aft.1560,wsrt.1977,cst.0,dnst.0,rqst.1269,rspt.1175,rqstt.4,unt.3,cstt.3,dit.1392
p796
sVqueryString
p797
(lp798
(dp799
Vname
p800
g57
sVvalue
p801
Vlu
p802
sa(dp803
Vname
p804
Vatyp
p805
sVvalue
p806
Vcsi
p807
sa(dp808
Vname
p809
Vei
p810
sVvalue
p811
VWnbzWKmnLYOcjwSjx6nYAg
p812
sa(dp813
Vname
p814
Vima
p815
sVvalue
p816
V3
p817
sa(dp818
Vname
p819
Vrt
p820
sVvalue
p821
Vlmap.2166,aft.1560,wsrt.1977,cst.0,dnst.0,rqst.1269,rspt.1175,rqstt.4,unt.3,cstt.3,dit.1392
p822
sasVheaders
p823
(lp824
sVheadersSize
p825
I688
sVbodySize
p826
I0
sVmethod
p827
VGET
p828
sVhttpVersion
p829
VHTTP/1.1
p830
ssVtimings
p831
(dp832
Vcomment
p833
g4
sVreceive
p834
I0
sVsend
p835
I0
sVssl
p836
I-1
sVconnect
p837
I-1
sVdns
p838
I-1
sVwait
p839
I31
sVblocked
p840
I-1
ssVtime
p841
I31
sVresponse
p842
(dp843
Vstatus
p844
I204
sVcomment
p845
g4
sVcookies
p846
(lp847
sVstatusText
p848
VNo Content
p849
sVcontent
p850
(dp851
VmimeType
p852
Vtext/html; charset=UTF-8
p853
sVcomment
p854
g4
sVsize
p855
I0
ssVheaders
p856
(lp857
sVheadersSize
p858
I248
sVredirectURL
p859
g4
sVbodySize
p860
I0
sVhttpVersion
p861
VHTTP/1.1
p862
ssa(dp863
Vcomment
p864
g4
sVserverIPAddress
p865
V74.125.70.106
p866
sVpageref
p867
VMaserati
p868
sVstartedDateTime
p869
V2017-04-16T08:49:18.348-05:00
p870
sVcache
p871
(dp872
sVrequest
p873
(dp874
Vcomment
p875
g4
sVcookies
p876
(lp877
sVurl
p878
Vhttps://www.google.com/gen_204?atyp=i&ct=phandle&cad=0,det:0&ei=WnbzWKmnLYOcjwSjx6nYAg&zx=1492350558346
p879
sVqueryString
p880
(lp881
(dp882
Vname
p883
Vatyp
p884
sVvalue
p885
g30
sa(dp886
Vname
p887
Vct
p888
sVvalue
p889
Vphandle
p890
sa(dp891
Vname
p892
Vcad
p893
sVvalue
p894
V0,det:0
p895
sa(dp896
Vname
p897
Vei
p898
sVvalue
p899
VWnbzWKmnLYOcjwSjx6nYAg
p900
sa(dp901
Vname
p902
Vzx
p903
sVvalue
p904
V1492350558346
p905
sasVheaders
p906
(lp907
sVheadersSize
p908
I620
sVbodySize
p909
I0
sVmethod
p910
VGET
p911
sVhttpVersion
p912
VHTTP/1.1
p913
ssVtimings
p914
(dp915
Vcomment
p916
g4
sVreceive
p917
I0
sVsend
p918
I0
sVssl
p919
I-1
sVconnect
p920
I-1
sVdns
p921
I-1
sVwait
p922
I28
sVblocked
p923
I-1
ssVtime
p924
I29
sVresponse
p925
(dp926
Vstatus
p927
I204
sVcomment
p928
g4
sVcookies
p929
(lp930
sVstatusText
p931
VNo Content
p932
sVcontent
p933
(dp934
VmimeType
p935
Vtext/html; charset=UTF-8
p936
sVcomment
p937
g4
sVsize
p938
I0
ssVheaders
p939
(lp940
sVheadersSize
p941
I248
sVredirectURL
p942
g4
sVbodySize
p943
I0
sVhttpVersion
p944
VHTTP/1.1
p945
ssa(dp946
Vcomment
p947
g4
sVserverIPAddress
p948
V74.125.70.106
p949
sVpageref
p950
VMaserati
p951
sVstartedDateTime
p952
V2017-04-16T08:49:18.582-05:00
p953
sVcache
p954
(dp955
sVrequest
p956
(dp957
Vcomment
p958
g4
sVcookies
p959
(lp960
sVurl
p961
Vhttps://www.google.com/async/irc?vet=10ahUKEwipvMiFj6nTAhUDzoMKHaNjCisQo0EI7AI..i&ved=0ahUKEwipvMiFj6nTAhUDzoMKHaNjCisQo0EI7AI&ei=WnbzWKmnLYOcjwSjx6nYAg&yv=2&async=iu:1,ved:0ahUKEwipvMiFj6nTAhUDzoMKHaNjCisQo0EI7AI,_id:irc_async,_pms:qs
p962
sVqueryString
p963
(lp964
(dp965
Vname
p966
Vvet
p967
sVvalue
p968
V10ahUKEwipvMiFj6nTAhUDzoMKHaNjCisQo0EI7AI..i
p969
sa(dp970
Vname
p971
Vved
p972
sVvalue
p973
V0ahUKEwipvMiFj6nTAhUDzoMKHaNjCisQo0EI7AI
p974
sa(dp975
Vname
p976
Vei
p977
sVvalue
p978
VWnbzWKmnLYOcjwSjx6nYAg
p979
sa(dp980
Vname
p981
Vyv
p982
sVvalue
p983
g64
sa(dp984
Vname
p985
Vasync
p986
sVvalue
p987
Viu:1,ved:0ahUKEwipvMiFj6nTAhUDzoMKHaNjCisQo0EI7AI,_id:irc_async,_pms:qs
p988
sasVheaders
p989
(lp990
sVheadersSize
p991
I752
sVbodySize
p992
I0
sVmethod
p993
VGET
p994
sVhttpVersion
p995
VHTTP/1.1
p996
ssVtimings
p997
(dp998
Vcomment
p999
g4
sVreceive
p1000
I0
sVsend
p1001
I0
sVssl
p1002
I-1
sVconnect
p1003
I-1
sVdns
p1004
I-1
sVwait
p1005
I42
sVblocked
p1006
I-1
ssVtime
p1007
I42
sVresponse
p1008
(dp1009
Vstatus
p1010
I200
sVcomment
p1011
g4
sVcookies
p1012
(lp1013
sVstatusText
p1014
VOK
p1015
sVcontent
p1016
(dp1017
VmimeType
p1018
Vtext/html; charset=UTF-8
p1019
sVcomment
p1020
g4
sVsize
p1021
I0
ssVheaders
p1022
(lp1023
sVheadersSize
p1024
I383
sVredirectURL
p1025
g4
sVbodySize
p1026
I7793
sVhttpVersion
p1027
VHTTP/1.1
p1028
ssa(dp1029
Vcomment
p1030
g4
sVserverIPAddress
p1031
V74.125.70.106
p1032
sVpageref
p1033
VMaserati
p1034
sVstartedDateTime
p1035
V2017-04-16T08:49:18.665-05:00
p1036
sVcache
p1037
(dp1038
sVrequest
p1039
(dp1040
Vcomment
p1041
g4
sVcookies
p1042
(lp1043
sVurl
p1044
Vhttps://www.google.com/async/ampfp?vet=10ahUKEwipvMiFj6nTAhUDzoMKHaNjCisQtZoBCOoC..i&ei=WnbzWKmnLYOcjwSjx6nYAg&yv=2&async=_id:ampfp-async,_pms:qs
p1045
sVqueryString
p1046
(lp1047
(dp1048
Vname
p1049
Vvet
p1050
sVvalue
p1051
V10ahUKEwipvMiFj6nTAhUDzoMKHaNjCisQtZoBCOoC..i
p1052
sa(dp1053
Vname
p1054
Vei
p1055
sVvalue
p1056
VWnbzWKmnLYOcjwSjx6nYAg
p1057
sa(dp1058
Vname
p1059
Vyv
p1060
sVvalue
p1061
g64
sa(dp1062
Vname
p1063
Vasync
p1064
sVvalue
p1065
V_id:ampfp-async,_pms:qs
p1066
sasVheaders
p1067
(lp1068
sVheadersSize
p1069
I662
sVbodySize
p1070
I0
sVmethod
p1071
VGET
p1072
sVhttpVersion
p1073
VHTTP/1.1
p1074
ssVtimings
p1075
(dp1076
Vcomment
p1077
g4
sVreceive
p1078
I0
sVsend
p1079
I0
sVssl
p1080
I-1
sVconnect
p1081
I-1
sVdns
p1082
I-1
sVwait
p1083
I80
sVblocked
p1084
I-1
ssVtime
p1085
I81
sVresponse
p1086
(dp1087
Vstatus
p1088
I200
sVcomment
p1089
g4
sVcookies
p1090
(lp1091
sVstatusText
p1092
VOK
p1093
sVcontent
p1094
(dp1095
VmimeType
p1096
Vtext/html; charset=UTF-8
p1097
sVcomment
p1098
g4
sVsize
p1099
I0
ssVheaders
p1100
(lp1101
sVheadersSize
p1102
I383
sVredirectURL
p1103
g4
sVbodySize
p1104
I4526
sVhttpVersion
p1105
VHTTP/1.1
p1106
ssa(dp1107
Vcomment
p1108
g4
sVserverIPAddress
p1109
V216.58.216.193
p1110
sVpageref
p1111
VMaserati
p1112
sVstartedDateTime
p1113
V2017-04-16T08:49:18.666-05:00
p1114
sVcache
p1115
(dp1116
sVrequest
p1117
(dp1118
Vcomment
p1119
g4
sVcookies
p1120
(lp1121
sVurl
p1122
Vhttps://cdn.ampproject.org/preconnect.gif?0.9860155970583444
p1123
sVqueryString
p1124
(lp1125
(dp1126
Vname
p1127
V0.9860155970583444
p1128
sVvalue
p1129
g4
sasVheaders
p1130
(lp1131
sVheadersSize
p1132
I375
sVbodySize
p1133
I0
sVmethod
p1134
VGET
p1135
sVhttpVersion
p1136
VHTTP/1.1
p1137
ssVtimings
p1138
(dp1139
Vcomment
p1140
g4
sVreceive
p1141
I0
sVsend
p1142
I0
sVssl
p1143
I-1
sVconnect
p1144
I-1
sVdns
p1145
I-1
sVwait
p1146
I69
sVblocked
p1147
I-1
ssVtime
p1148
I69
sVresponse
p1149
(dp1150
Vstatus
p1151
I200
sVcomment
p1152
g4
sVcookies
p1153
(lp1154
sVstatusText
p1155
VOK
p1156
sVcontent
p1157
(dp1158
VmimeType
p1159
Vimage/gif
p1160
sVcomment
p1161
g4
sVsize
p1162
I0
ssVheaders
p1163
(lp1164
sVheadersSize
p1165
I826
sVredirectURL
p1166
g4
sVbodySize
p1167
I37
sVhttpVersion
p1168
VHTTP/1.1
p1169
ssa(dp1170
Vcomment
p1171
g4
sVserverIPAddress
p1172
V216.58.216.206
p1173
sVpageref
p1174
VMaserati
p1175
sVstartedDateTime
p1176
V2017-04-16T08:49:18.698-05:00
p1177
sVcache
p1178
(dp1179
sVrequest
p1180
(dp1181
Vcomment
p1182
g4
sVcookies
p1183
(lp1184
sVurl
p1185
Vhttps://encrypted-tbn3.gstatic.com/images?q=tbn:ANd9GcQJAXn0N3s3wAk6uXKFU-VyyuKRrkQFnwdY6I2GW1d3dFQbXVONv_SeLkUk
p1186
sVqueryString
p1187
(lp1188
(dp1189
Vname
p1190
g415
sVvalue
p1191
Vtbn:ANd9GcQJAXn0N3s3wAk6uXKFU-VyyuKRrkQFnwdY6I2GW1d3dFQbXVONv_SeLkUk
p1192
sasVheaders
p1193
(lp1194
sVheadersSize
p1195
I427
sVbodySize
p1196
I0
sVmethod
p1197
VGET
p1198
sVhttpVersion
p1199
VHTTP/1.1
p1200
ssVtimings
p1201
(dp1202
Vcomment
p1203
g4
sVreceive
p1204
I1
sVsend
p1205
I0
sVssl
p1206
I-1
sVconnect
p1207
I-1
sVdns
p1208
I-1
sVwait
p1209
I23
sVblocked
p1210
I-1
ssVtime
p1211
I25
sVresponse
p1212
(dp1213
Vstatus
p1214
I200
sVcomment
p1215
g4
sVcookies
p1216
(lp1217
sVstatusText
p1218
VOK
p1219
sVcontent
p1220
(dp1221
VmimeType
p1222
Vimage/jpeg
p1223
sVcomment
p1224
g4
sVsize
p1225
I0
ssVheaders
p1226
(lp1227
sVheadersSize
p1228
I428
sVredirectURL
p1229
g4
sVbodySize
p1230
I4475
sVhttpVersion
p1231
VHTTP/1.1
p1232
ssa(dp1233
Vcomment
p1234
g4
sVserverIPAddress
p1235
V216.58.216.206
p1236
sVpageref
p1237
VMaserati
p1238
sVstartedDateTime
p1239
V2017-04-16T08:49:18.698-05:00
p1240
sVcache
p1241
(dp1242
sVrequest
p1243
(dp1244
Vcomment
p1245
g4
sVcookies
p1246
(lp1247
sVurl
p1248
Vhttps://encrypted-tbn2.gstatic.com/images?q=tbn:ANd9GcT9JzUAOiKlrDC37vVARXJv4logykmEjBGN3i8mA6ocAOR1nuWKVT5aKZB-aA
p1249
sVqueryString
p1250
(lp1251
(dp1252
Vname
p1253
g415
sVvalue
p1254
Vtbn:ANd9GcT9JzUAOiKlrDC37vVARXJv4logykmEjBGN3i8mA6ocAOR1nuWKVT5aKZB-aA
p1255
sasVheaders
p1256
(lp1257
sVheadersSize
p1258
I429
sVbodySize
p1259
I0
sVmethod
p1260
VGET
p1261
sVhttpVersion
p1262
VHTTP/1.1
p1263
ssVtimings
p1264
(dp1265
Vcomment
p1266
g4
sVreceive
p1267
I0
sVsend
p1268
I0
sVssl
p1269
I-1
sVconnect
p1270
I-1
sVdns
p1271
I-1
sVwait
p1272
I27
sVblocked
p1273
I-1
ssVtime
p1274
I27
sVresponse
p1275
(dp1276
Vstatus
p1277
I200
sVcomment
p1278
g4
sVcookies
p1279
(lp1280
sVstatusText
p1281
VOK
p1282
sVcontent
p1283
(dp1284
VmimeType
p1285
Vimage/jpeg
p1286
sVcomment
p1287
g4
sVsize
p1288
I0
ssVheaders
p1289
(lp1290
sVheadersSize
p1291
I429
sVredirectURL
p1292
g4
sVbodySize
p1293
I4582
sVhttpVersion
p1294
VHTTP/1.1
p1295
ssa(dp1296
Vcomment
p1297
g4
sVserverIPAddress
p1298
V216.58.216.206
p1299
sVpageref
p1300
VMaserati
p1301
sVstartedDateTime
p1302
V2017-04-16T08:49:18.698-05:00
p1303
sVcache
p1304
(dp1305
sVrequest
p1306
(dp1307
Vcomment
p1308
g4
sVcookies
p1309
(lp1310
sVurl
p1311
Vhttps://encrypted-tbn1.gstatic.com/images?q=tbn:ANd9GcQNBNCK2K2CkrPXm4n8AqsfLzunXPrVCC_MMMEfWLx3D7VXFTp7OqSW-Rd3
p1312
sVqueryString
p1313
(lp1314
(dp1315
Vname
p1316
g415
sVvalue
p1317
Vtbn:ANd9GcQNBNCK2K2CkrPXm4n8AqsfLzunXPrVCC_MMMEfWLx3D7VXFTp7OqSW-Rd3
p1318
sasVheaders
p1319
(lp1320
sVheadersSize
p1321
I427
sVbodySize
p1322
I0
sVmethod
p1323
VGET
p1324
sVhttpVersion
p1325
VHTTP/1.1
p1326
ssVtimings
p1327
(dp1328
Vcomment
p1329
g4
sVreceive
p1330
I0
sVsend
p1331
I0
sVssl
p1332
I-1
sVconnect
p1333
I-1
sVdns
p1334
I-1
sVwait
p1335
I26
sVblocked
p1336
I-1
ssVtime
p1337
I26
sVresponse
p1338
(dp1339
Vstatus
p1340
I200
sVcomment
p1341
g4
sVcookies
p1342
(lp1343
sVstatusText
p1344
VOK
p1345
sVcontent
p1346
(dp1347
VmimeType
p1348
Vimage/jpeg
p1349
sVcomment
p1350
g4
sVsize
p1351
I0
ssVheaders
p1352
(lp1353
sVheadersSize
p1354
I429
sVredirectURL
p1355
g4
sVbodySize
p1356
I5529
sVhttpVersion
p1357
VHTTP/1.1
p1358
ssa(dp1359
Vcomment
p1360
g4
sVserverIPAddress
p1361
V216.58.216.193
p1362
sVpageref
p1363
VMaserati
p1364
sVstartedDateTime
p1365
V2017-04-16T08:49:18.752-05:00
p1366
sVcache
p1367
(dp1368
sVrequest
p1369
(dp1370
Vcomment
p1371
g4
sVcookies
p1372
(lp1373
sVurl
p1374
Vhttps://lh3.googleusercontent.com/-deQi6S_6SJ0/VsXv00TiPfI/AAAAAAAAAVQ/eOxGAN0jkgczGXNHYgq6INaER3GDNXxAgCJkC/w1280-h851-k-no-l60/
p1375
sVqueryString
p1376
(lp1377
sVheaders
p1378
(lp1379
sVheadersSize
p1380
I444
sVbodySize
p1381
I0
sVmethod
p1382
VGET
p1383
sVhttpVersion
p1384
VHTTP/1.1
p1385
ssVtimings
p1386
(dp1387
Vcomment
p1388
g4
sVreceive
p1389
I59
sVsend
p1390
I0
sVssl
p1391
I266
sVconnect
p1392
I294
sVdns
p1393
I3
sVwait
p1394
I200
sVblocked
p1395
I0
ssVtime
p1396
I558
sVresponse
p1397
(dp1398
Vstatus
p1399
I200
sVcomment
p1400
g4
sVcookies
p1401
(lp1402
sVstatusText
p1403
VOK
p1404
sVcontent
p1405
(dp1406
VmimeType
p1407
Vimage/jpeg
p1408
sVcomment
p1409
g4
sVsize
p1410
I0
ssVheaders
p1411
(lp1412
sVheadersSize
p1413
I488
sVredirectURL
p1414
g4
sVbodySize
p1415
I103812
sVhttpVersion
p1416
VHTTP/1.1
p1417
ssa(dp1418
Vcomment
p1419
g4
sVserverIPAddress
p1420
V74.125.70.106
p1421
sVpageref
p1422
VMaserati
p1423
sVstartedDateTime
p1424
V2017-04-16T08:49:21.407-05:00
p1425
sVcache
p1426
(dp1427
sVrequest
p1428
(dp1429
Vcomment
p1430
g4
sVcookies
p1431
(lp1432
sVurl
p1433
Vhttps://www.google.com/async/log_amp_item_set?vet=10ahUKEwjdhPyGj6nTAhXK8YMKHaYEBvUQooQBCAE..i&ei=WnbzWKmnLYOcjwSjx6nYAg&yv=2&async=num_items:1,_fmt:jspb
p1434
sVqueryString
p1435
(lp1436
(dp1437
Vname
p1438
Vvet
p1439
sVvalue
p1440
V10ahUKEwjdhPyGj6nTAhXK8YMKHaYEBvUQooQBCAE..i
p1441
sa(dp1442
Vname
p1443
Vei
p1444
sVvalue
p1445
VWnbzWKmnLYOcjwSjx6nYAg
p1446
sa(dp1447
Vname
p1448
Vyv
p1449
sVvalue
p1450
g64
sa(dp1451
Vname
p1452
Vasync
p1453
sVvalue
p1454
Vnum_items:1,_fmt:jspb
p1455
sasVheaders
p1456
(lp1457
sVheadersSize
p1458
I670
sVbodySize
p1459
I0
sVmethod
p1460
VGET
p1461
sVhttpVersion
p1462
VHTTP/1.1
p1463
ssVtimings
p1464
(dp1465
Vcomment
p1466
g4
sVreceive
p1467
I0
sVsend
p1468
I0
sVssl
p1469
I-1
sVconnect
p1470
I-1
sVdns
p1471
I-1
sVwait
p1472
I36
sVblocked
p1473
I-1
ssVtime
p1474
I36
sVresponse
p1475
(dp1476
Vstatus
p1477
I200
sVcomment
p1478
g4
sVcookies
p1479
(lp1480
sVstatusText
p1481
VOK
p1482
sVcontent
p1483
(dp1484
VmimeType
p1485
Vapplication/json; charset=UTF-8
p1486
sVcomment
p1487
g4
sVsize
p1488
I0
ssVheaders
p1489
(lp1490
sVheadersSize
p1491
I417
sVredirectURL
p1492
g4
sVbodySize
p1493
I132
sVhttpVersion
p1494
VHTTP/1.1
p1495
ssa(dp1496
Vcomment
p1497
g4
sVserverIPAddress
p1498
V172.217.0.1
p1499
sVpageref
p1500
VMaserati
p1501
sVstartedDateTime
p1502
V2017-04-16T08:49:21.864-05:00
p1503
sVcache
p1504
(dp1505
sVrequest
p1506
(dp1507
Vcomment
p1508
g4
sVcookies
p1509
(lp1510
sVurl
p1511
Vhttps://www-topspeed-com.cdn.ampproject.org/v/www.topspeed.com/cars/maserati/2017-maserati-ghibli-nerissimo-edition-ar176367.amp.html?amp_js_v=9
p1512
sVqueryString
p1513
(lp1514
(dp1515
Vname
p1516
Vamp_js_v
p1517
sVvalue
p1518
V9
p1519
sasVheaders
p1520
(lp1521
sVheadersSize
p1522
I549
sVbodySize
p1523
I0
sVmethod
p1524
VGET
p1525
sVhttpVersion
p1526
VHTTP/1.1
p1527
ssVtimings
p1528
(dp1529
Vcomment
p1530
g4
sVreceive
p1531
I0
sVsend
p1532
I0
sVssl
p1533
I396
sVconnect
p1534
I416
sVdns
p1535
I33
sVwait
p1536
I60
sVblocked
p1537
I0
ssVtime
p1538
I510
sVresponse
p1539
(dp1540
Vstatus
p1541
I200
sVcomment
p1542
g4
sVcookies
p1543
(lp1544
sVstatusText
p1545
VOK
p1546
sVcontent
p1547
(dp1548
VmimeType
p1549
Vtext/html
p1550
sVcomment
p1551
g4
sVsize
p1552
I0
ssVheaders
p1553
(lp1554
sVheadersSize
p1555
I863
sVredirectURL
p1556
g4
sVbodySize
p1557
I4209
sVhttpVersion
p1558
VHTTP/1.1
p1559
ssa(dp1560
Vcomment
p1561
g4
sVserverIPAddress
p1562
V216.58.216.193
p1563
sVpageref
p1564
VMaserati
p1565
sVstartedDateTime
p1566
V2017-04-16T08:49:22.235-05:00
p1567
sVcache
p1568
(dp1569
sVrequest
p1570
(dp1571
Vcomment
p1572
g4
sVcookies
p1573
(lp1574
sVurl
p1575
Vhttps://pictures-topspeed-com.cdn.ampproject.org/ii/w1200/pictures.topspeed.com/IMG/crop/201704/ny-maserati-ghibli-n-11_800x0w.jpg
p1576
sVqueryString
p1577
(lp1578
sVheaders
p1579
(lp1580
sVheadersSize
p1581
I566
sVbodySize
p1582
I0
sVmethod
p1583
VGET
p1584
sVhttpVersion
p1585
VHTTP/1.1
p1586
ssVtimings
p1587
(dp1588
Vcomment
p1589
g4
sVreceive
p1590
I53
sVsend
p1591
I0
sVssl
p1592
I133
sVconnect
p1593
I147
sVdns
p1594
I31
sVwait
p1595
I33
sVblocked
p1596
I0
ssVtime
p1597
I264
sVresponse
p1598
(dp1599
Vstatus
p1600
I200
sVcomment
p1601
g4
sVcookies
p1602
(lp1603
sVstatusText
p1604
VOK
p1605
sVcontent
p1606
(dp1607
VmimeType
p1608
Vimage/jpeg
p1609
sVcomment
p1610
g4
sVsize
p1611
I0
ssVheaders
p1612
(lp1613
sVheadersSize
p1614
I850
sVredirectURL
p1615
g4
sVbodySize
p1616
I53046
sVhttpVersion
p1617
VHTTP/1.1
p1618
ssa(dp1619
Vcomment
p1620
g4
sVserverIPAddress
p1621
V74.125.70.106
p1622
sVpageref
p1623
VMaserati
p1624
sVstartedDateTime
p1625
V2017-04-16T08:49:22.344-05:00
p1626
sVcache
p1627
(dp1628
sVrequest
p1629
(dp1630
Vcomment
p1631
g4
sVcookies
p1632
(lp1633
sVurl
p1634
Vhttps://www.google.com/gen_204?s=web&atyp=csi&ei=WnbzWKmnLYOcjwSjx6nYAg&imc=48&imn=48&imp=27&adh=tv.245,t.245&xjs=init.89.15.sb_mob.63.dvl.8.mbsf.3.vs.3.c.2&ima=3&rt=prt.1248,iml.1561,xjsls.1249,dcl.1546,qiml.1761,xjses.1624,xjsee.1887,xjs.1888,ol.6455,aft.1560,wsrt.114,cst.0,dnst.0,rqst.1269,rspt.1175,rqstt.4,unt.3,cstt.3,dit.1392
p1635
sVqueryString
p1636
(lp1637
(dp1638
Vname
p1639
g57
sVvalue
p1640
Vweb
p1641
sa(dp1642
Vname
p1643
Vatyp
p1644
sVvalue
p1645
Vcsi
p1646
sa(dp1647
Vname
p1648
Vei
p1649
sVvalue
p1650
VWnbzWKmnLYOcjwSjx6nYAg
p1651
sa(dp1652
Vname
p1653
Vimc
p1654
sVvalue
p1655
V48
p1656
sa(dp1657
Vname
p1658
Vimn
p1659
sVvalue
p1660
V48
p1661
sa(dp1662
Vname
p1663
Vimp
p1664
sVvalue
p1665
V27
p1666
sa(dp1667
Vname
p1668
Vadh
p1669
sVvalue
p1670
Vtv.245,t.245
p1671
sa(dp1672
Vname
p1673
Vxjs
p1674
sVvalue
p1675
Vinit.89.15.sb_mob.63.dvl.8.mbsf.3.vs.3.c.2
p1676
sa(dp1677
Vname
p1678
Vima
p1679
sVvalue
p1680
g817
sa(dp1681
Vname
p1682
Vrt
p1683
sVvalue
p1684
Vprt.1248,iml.1561,xjsls.1249,dcl.1546,qiml.1761,xjses.1624,xjsee.1887,xjs.1888,ol.6455,aft.1560,wsrt.114,cst.0,dnst.0,rqst.1269,rspt.1175,rqstt.4,unt.3,cstt.3,dit.1392
p1685
sasVheaders
p1686
(lp1687
sVheadersSize
p1688
I850
sVbodySize
p1689
I0
sVmethod
p1690
VGET
p1691
sVhttpVersion
p1692
VHTTP/1.1
p1693
ssVtimings
p1694
(dp1695
Vcomment
p1696
g4
sVreceive
p1697
I0
sVsend
p1698
I0
sVssl
p1699
I-1
sVconnect
p1700
I-1
sVdns
p1701
I-1
sVwait
p1702
I25
sVblocked
p1703
I-1
ssVtime
p1704
I26
sVresponse
p1705
(dp1706
Vstatus
p1707
I204
sVcomment
p1708
g4
sVcookies
p1709
(lp1710
sVstatusText
p1711
VNo Content
p1712
sVcontent
p1713
(dp1714
VmimeType
p1715
Vtext/html; charset=UTF-8
p1716
sVcomment
p1717
g4
sVsize
p1718
I0
ssVheaders
p1719
(lp1720
sVheadersSize
p1721
I248
sVredirectURL
p1722
g4
sVbodySize
p1723
I0
sVhttpVersion
p1724
VHTTP/1.1
p1725
ssasVversion
p1726
V1.2
p1727
sVpages
p1728
(lp1729
(dp1730
VpageTimings
p1731
(dp1732
Vcomment
p1733
g4
ssVcomment
p1734
g4
sVtitle
p1735
VMaserati
p1736
sVid
p1737
VMaserati
p1738
sVstartedDateTime
p1739
V2017-04-16T08:49:14.118-05:00
p1740
sasVcreator
p1741
(dp1742
Vcomment
p1743
g4
sVversion
p1744
V2.1.4
p1745
sVname
p1746
VBrowserMob Proxy
p1747
sss.