(dp0
Vlog
p1
(dp2
Vcomment
p3
V
p4
sVentries
p5
(lp6
(dp7
Vcomment
p8
g4
sVserverIPAddress
p9
V172.217.6.4
p10
sVpageref
p11
VMosquito
p12
sVstartedDateTime
p13
V2017-04-16T08:15:41.957-05:00
p14
sVcache
p15
(dp16
sVrequest
p17
(dp18
Vcomment
p19
g4
sVcookies
p20
(lp21
sVurl
p22
Vhttps://www.google.com/gen_204?atyp=i&ct=slh&cad=&ei=cm7zWIviKKGvjwSr741w&m=V&t=C&s=1&v=2&pv=0.45089867471437883&me=1:1492348533670,x:2,V,0,0,1280,944:0,N,1,cm7zWIviKKGvjwSr741w:0,R,1,24,8,155,1249,947:0,R,1,25,8,155,1249,947:0,R,1,28,8,168,1249,40:0,R,1,41,8,219,1249,178:0,R,1,44,0,235,1265,197:0,R,1,84,8,414,1249,20:0,R,1,85,24,414,1217,20:0,R,1,88,8,450,1249,20:0,R,1,109,8,490,1249,310:0,R,1,110,0,535,1265,285:0,R,1,142,8,845,1249,184:0,R,1,143,0,845,1265,204:2,B,3224:8281,e,U&zx=1492348541955
p23
sVqueryString
p24
(lp25
(dp26
Vname
p27
Vatyp
p28
sVvalue
p29
Vi
p30
sa(dp31
Vname
p32
Vct
p33
sVvalue
p34
Vslh
p35
sa(dp36
Vname
p37
Vcad
p38
sVvalue
p39
g4
sa(dp40
Vname
p41
Vei
p42
sVvalue
p43
Vcm7zWIviKKGvjwSr741w
p44
sa(dp45
Vname
p46
Vm
p47
sVvalue
p48
VV
p49
sa(dp50
Vname
p51
Vt
p52
sVvalue
p53
VC
p54
sa(dp55
Vname
p56
Vs
p57
sVvalue
p58
V1
p59
sa(dp60
Vname
p61
Vv
p62
sVvalue
p63
V2
p64
sa(dp65
Vname
p66
Vpv
p67
sVvalue
p68
V0.45089867471437883
p69
sa(dp70
Vname
p71
Vme
p72
sVvalue
p73
V1:1492348533670,x:2,V,0,0,1280,944:0,N,1,cm7zWIviKKGvjwSr741w:0,R,1,24,8,155,1249,947:0,R,1,25,8,155,1249,947:0,R,1,28,8,168,1249,40:0,R,1,41,8,219,1249,178:0,R,1,44,0,235,1265,197:0,R,1,84,8,414,1249,20:0,R,1,85,24,414,1217,20:0,R,1,88,8,450,1249,20:0,R,1,109,8,490,1249,310:0,R,1,110,0,535,1265,285:0,R,1,142,8,845,1249,184:0,R,1,143,0,845,1265,204:2,B,3224:8281,e,U
p74
sa(dp75
Vname
p76
Vzx
p77
sVvalue
p78
V1492348541955
p79
sasVheaders
p80
(lp81
sVheadersSize
p82
I1018
sVbodySize
p83
I0
sVmethod
p84
VGET
p85
sVhttpVersion
p86
VHTTP/1.1
p87
ssVtimings
p88
(dp89
Vcomment
p90
g4
sVreceive
p91
I0
sVsend
p92
I0
sVssl
p93
I-1
sVconnect
p94
I-1
sVdns
p95
I-1
sVwait
p96
I0
sVblocked
p97
I-1
ssVtime
p98
I0
sVresponse
p99
(dp100
Vstatus
p101
I0
sVcomment
p102
g4
sVcookies
p103
(lp104
sV_error
p105
VNo response received
p106
sVstatusText
p107
g4
sVcontent
p108
(dp109
VmimeType
p110
g4
sVcomment
p111
g4
sVsize
p112
I0
ssVheaders
p113
(lp114
sVheadersSize
p115
I-1
sVredirectURL
p116
g4
sVbodySize
p117
I-1
sVhttpVersion
p118
Vunknown
p119
ssa(dp120
Vcomment
p121
g4
sVserverIPAddress
p122
V172.217.6.4
p123
sVpageref
p124
VMosquito
p125
sVstartedDateTime
p126
V2017-04-16T08:15:41.962-05:00
p127
sVcache
p128
(dp129
sVrequest
p130
(dp131
Vcomment
p132
g4
sVcookies
p133
(lp134
sVurl
p135
Vhttp://www.google.com/
p136
sVqueryString
p137
(lp138
sVheaders
p139
(lp140
sVheadersSize
p141
I613
sVbodySize
p142
I0
sVmethod
p143
VGET
p144
sVhttpVersion
p145
VHTTP/1.1
p146
ssVtimings
p147
(dp148
Vcomment
p149
g4
sVreceive
p150
I0
sVsend
p151
I0
sVssl
p152
I-1
sVconnect
p153
I-1
sVdns
p154
I-1
sVwait
p155
I34
sVblocked
p156
I-1
ssVtime
p157
I35
sVresponse
p158
(dp159
Vstatus
p160
I302
sVcomment
p161
g4
sVcookies
p162
(lp163
sVstatusText
p164
VFound
p165
sVcontent
p166
(dp167
VmimeType
p168
Vtext/html; charset=UTF-8
p169
sVcomment
p170
g4
sVsize
p171
I0
ssVheaders
p172
(lp173
sVheadersSize
p174
I609
sVredirectURL
p175
Vhttps://www.google.com/?gws_rd=ssl
p176
sVbodySize
p177
I231
sVhttpVersion
p178
VHTTP/1.1
p179
ssa(dp180
Vcomment
p181
g4
sVserverIPAddress
p182
V172.217.6.4
p183
sVpageref
p184
VMosquito
p185
sVstartedDateTime
p186
V2017-04-16T08:15:42.019-05:00
p187
sVcache
p188
(dp189
sVrequest
p190
(dp191
Vcomment
p192
g4
sVcookies
p193
(lp194
sVurl
p195
Vhttps://www.google.com/?gws_rd=ssl
p196
sVqueryString
p197
(lp198
(dp199
Vname
p200
Vgws_rd
p201
sVvalue
p202
Vssl
p203
sasVheaders
p204
(lp205
sVheadersSize
p206
I607
sVbodySize
p207
I0
sVmethod
p208
VGET
p209
sVhttpVersion
p210
VHTTP/1.1
p211
ssVtimings
p212
(dp213
Vcomment
p214
g4
sVreceive
p215
I4
sVsend
p216
I0
sVssl
p217
I-1
sVconnect
p218
I-1
sVdns
p219
I-1
sVwait
p220
I76
sVblocked
p221
I-1
ssVtime
p222
I82
sVresponse
p223
(dp224
Vstatus
p225
I200
sVcomment
p226
g4
sVcookies
p227
(lp228
sVstatusText
p229
VOK
p230
sVcontent
p231
(dp232
VmimeType
p233
Vtext/html; charset=UTF-8
p234
sVcomment
p235
g4
sVsize
p236
I0
ssVheaders
p237
(lp238
sVheadersSize
p239
I721
sVredirectURL
p240
g4
sVbodySize
p241
I34291
sVhttpVersion
p242
VHTTP/1.1
p243
ssa(dp244
Vcomment
p245
g4
sVserverIPAddress
p246
V172.217.6.4
p247
sVpageref
p248
VMosquito
p249
sVstartedDateTime
p250
V2017-04-16T08:15:42.618-05:00
p251
sVcache
p252
(dp253
sVrequest
p254
(dp255
Vcomment
p256
g4
sVcookies
p257
(lp258
sVurl
p259
Vhttps://www.google.com/gen_204?s=mobilewebhp&atyp=csi&ei=fW7zWLO8AYvQjwTpyaboAQ&imc=1&imn=1&imp=0&adh=&xjs=init.50.12.sb_mob.34.dvl.7.jsa.2.async.2.foot.2&ima=1&rt=xjsls.14,prt.15,iml.15,dcl.86,xjses.247,xjsee.359,xjs.359,ol.493,aft.15,wsrt.161,cst.0,dnst.0,rqst.85,rspt.6,rqstt.64,unt.62,cstt.62,dit.189
p260
sVqueryString
p261
(lp262
(dp263
Vname
p264
g57
sVvalue
p265
Vmobilewebhp
p266
sa(dp267
Vname
p268
Vatyp
p269
sVvalue
p270
Vcsi
p271
sa(dp272
Vname
p273
Vei
p274
sVvalue
p275
VfW7zWLO8AYvQjwTpyaboAQ
p276
sa(dp277
Vname
p278
Vimc
p279
sVvalue
p280
g59
sa(dp281
Vname
p282
Vimn
p283
sVvalue
p284
g59
sa(dp285
Vname
p286
Vimp
p287
sVvalue
p288
V0
p289
sa(dp290
Vname
p291
Vadh
p292
sVvalue
p293
g4
sa(dp294
Vname
p295
Vxjs
p296
sVvalue
p297
Vinit.50.12.sb_mob.34.dvl.7.jsa.2.async.2.foot.2
p298
sa(dp299
Vname
p300
Vima
p301
sVvalue
p302
g59
sa(dp303
Vname
p304
Vrt
p305
sVvalue
p306
Vxjsls.14,prt.15,iml.15,dcl.86,xjses.247,xjsee.359,xjs.359,ol.493,aft.15,wsrt.161,cst.0,dnst.0,rqst.85,rspt.6,rqstt.64,unt.62,cstt.62,dit.189
p307
sasVheaders
p308
(lp309
sVheadersSize
p310
I832
sVbodySize
p311
I0
sVmethod
p312
VGET
p313
sVhttpVersion
p314
VHTTP/1.1
p315
ssVtimings
p316
(dp317
Vcomment
p318
g4
sVreceive
p319
I0
sVsend
p320
I0
sVssl
p321
I-1
sVconnect
p322
I-1
sVdns
p323
I-1
sVwait
p324
I26
sVblocked
p325
I-1
ssVtime
p326
I26
sVresponse
p327
(dp328
Vstatus
p329
I204
sVcomment
p330
g4
sVcookies
p331
(lp332
sVstatusText
p333
VNo Content
p334
sVcontent
p335
(dp336
VmimeType
p337
Vtext/html; charset=UTF-8
p338
sVcomment
p339
g4
sVsize
p340
I0
ssVheaders
p341
(lp342
sVheadersSize
p343
I248
sVredirectURL
p344
g4
sVbodySize
p345
I0
sVhttpVersion
p346
VHTTP/1.1
p347
ssa(dp348
Vcomment
p349
g4
sVserverIPAddress
p350
V172.217.6.4
p351
sVpageref
p352
VMosquito
p353
sVstartedDateTime
p354
V2017-04-16T08:15:42.732-05:00
p355
sVcache
p356
(dp357
sVrequest
p358
(dp359
Vcomment
p360
g4
sVcookies
p361
(lp362
sVurl
p363
Vhttps://www.google.com/complete/search?client=mobile-gws-hp&hl=en&gs_rn=64&gs_ri=mobile-gws-hp&sla=1&pfq=millie%20bobby%20brown&gm=602&cp=0&gs_id=1&xhr=t&q=M&tch=1&ech=1&psi=fW7zWLO8AYvQjwTpyaboAQ.1492348542435.1
p364
sVqueryString
p365
(lp366
(dp367
Vname
p368
Vclient
p369
sVvalue
p370
Vmobile-gws-hp
p371
sa(dp372
Vname
p373
Vhl
p374
sVvalue
p375
Ven
p376
sa(dp377
Vname
p378
Vgs_rn
p379
sVvalue
p380
V64
p381
sa(dp382
Vname
p383
Vgs_ri
p384
sVvalue
p385
Vmobile-gws-hp
p386
sa(dp387
Vname
p388
Vsla
p389
sVvalue
p390
g59
sa(dp391
Vname
p392
Vpfq
p393
sVvalue
p394
Vmillie bobby brown
p395
sa(dp396
Vname
p397
Vgm
p398
sVvalue
p399
V602
p400
sa(dp401
Vname
p402
Vcp
p403
sVvalue
p404
g289
sa(dp405
Vname
p406
Vgs_id
p407
sVvalue
p408
g59
sa(dp409
Vname
p410
Vxhr
p411
sVvalue
p412
g52
sa(dp413
Vname
p414
Vq
p415
sVvalue
p416
VM
p417
sa(dp418
Vname
p419
Vtch
p420
sVvalue
p421
g59
sa(dp422
Vname
p423
Vech
p424
sVvalue
p425
g59
sa(dp426
Vname
p427
Vpsi
p428
sVvalue
p429
VfW7zWLO8AYvQjwTpyaboAQ.1492348542435.1
p430
sasVheaders
p431
(lp432
sVheadersSize
p433
I740
sVbodySize
p434
I0
sVmethod
p435
VGET
p436
sVhttpVersion
p437
VHTTP/1.1
p438
ssVtimings
p439
(dp440
Vcomment
p441
g4
sVreceive
p442
I0
sVsend
p443
I0
sVssl
p444
I-1
sVconnect
p445
I-1
sVdns
p446
I-1
sVwait
p447
I0
sVblocked
p448
I-1
ssVtime
p449
I0
sVresponse
p450
(dp451
Vstatus
p452
I0
sVcomment
p453
g4
sVcookies
p454
(lp455
sV_error
p456
VNo response received
p457
sVstatusText
p458
g4
sVcontent
p459
(dp460
VmimeType
p461
g4
sVcomment
p462
g4
sVsize
p463
I0
ssVheaders
p464
(lp465
sVheadersSize
p466
I-1
sVredirectURL
p467
g4
sVbodySize
p468
I-1
sVhttpVersion
p469
Vunknown
p470
ssa(dp471
Vcomment
p472
g4
sVserverIPAddress
p473
V172.217.6.4
p474
sVpageref
p475
VMosquito
p476
sVstartedDateTime
p477
V2017-04-16T08:15:42.791-05:00
p478
sVcache
p479
(dp480
sVrequest
p481
(dp482
Vcomment
p483
g4
sVcookies
p484
(lp485
sVurl
p486
Vhttps://www.google.com/search?site=&source=hp&ei=fW7zWLO8AYvQjwTpyaboAQ&q=Mosquito&oq=Mosquito&gs_l=mobile-gws-hp.3...263.283.0.313.8.1.0.0.0.0.0.0..0.0....0...1c.1.64.mobile-gws-hp..8.0.0.LIL4CXutsTI
p487
sVqueryString
p488
(lp489
(dp490
Vname
p491
Vsite
p492
sVvalue
p493
g4
sa(dp494
Vname
p495
Vsource
p496
sVvalue
p497
Vhp
p498
sa(dp499
Vname
p500
Vei
p501
sVvalue
p502
VfW7zWLO8AYvQjwTpyaboAQ
p503
sa(dp504
Vname
p505
g415
sVvalue
p506
VMosquito
p507
sa(dp508
Vname
p509
Voq
p510
sVvalue
p511
VMosquito
p512
sa(dp513
Vname
p514
Vgs_l
p515
sVvalue
p516
Vmobile-gws-hp.3...263.283.0.313.8.1.0.0.0.0.0.0..0.0....0...1c.1.64.mobile-gws-hp..8.0.0.LIL4CXutsTI
p517
sasVheaders
p518
(lp519
sVheadersSize
p520
I818
sVbodySize
p521
I0
sVmethod
p522
VGET
p523
sVhttpVersion
p524
VHTTP/1.1
p525
ssVtimings
p526
(dp527
Vcomment
p528
g4
sVreceive
p529
I1212
sVsend
p530
I0
sVssl
p531
I-1
sVconnect
p532
I-1
sVdns
p533
I-1
sVwait
p534
I91
sVblocked
p535
I-1
ssVtime
p536
I1304
sVresponse
p537
(dp538
Vstatus
p539
I200
sVcomment
p540
g4
sVcookies
p541
(lp542
sVstatusText
p543
VOK
p544
sVcontent
p545
(dp546
VmimeType
p547
Vtext/html; charset=UTF-8
p548
sVcomment
p549
g4
sVsize
p550
I0
ssVheaders
p551
(lp552
sVheadersSize
p553
I363
sVredirectURL
p554
g4
sVbodySize
p555
I162195
sVhttpVersion
p556
VHTTP/1.1
p557
ssa(dp558
Vcomment
p559
g4
sVserverIPAddress
p560
V172.217.6.4
p561
sVpageref
p562
VMosquito
p563
sVstartedDateTime
p564
V2017-04-16T08:15:44.009-05:00
p565
sVcache
p566
(dp567
sVrequest
p568
(dp569
Vcomment
p570
g4
sVcookies
p571
(lp572
sVurl
p573
Vhttps://www.google.com/gen_204?atyp=i&ct=&cad=udla=1&ei=fW7zWKjGMIjljwTa_K1Q&b=0&act=p&ps=0&zx=1492348544007
p574
sVqueryString
p575
(lp576
(dp577
Vname
p578
Vatyp
p579
sVvalue
p580
g30
sa(dp581
Vname
p582
Vct
p583
sVvalue
p584
g4
sa(dp585
Vname
p586
Vcad
p587
sVvalue
p588
Vudla=1
p589
sa(dp590
Vname
p591
Vei
p592
sVvalue
p593
VfW7zWKjGMIjljwTa_K1Q
p594
sa(dp595
Vname
p596
Vb
p597
sVvalue
p598
g289
sa(dp599
Vname
p600
Vact
p601
sVvalue
p602
Vp
p603
sa(dp604
Vname
p605
Vps
p606
sVvalue
p607
g289
sa(dp608
Vname
p609
Vzx
p610
sVvalue
p611
V1492348544007
p612
sasVheaders
p613
(lp614
sVheadersSize
p615
I625
sVbodySize
p616
I0
sVmethod
p617
VGET
p618
sVhttpVersion
p619
VHTTP/1.1
p620
ssVtimings
p621
(dp622
Vcomment
p623
g4
sVreceive
p624
I0
sVsend
p625
I0
sVssl
p626
I-1
sVconnect
p627
I-1
sVdns
p628
I-1
sVwait
p629
I37
sVblocked
p630
I-1
ssVtime
p631
I37
sVresponse
p632
(dp633
Vstatus
p634
I204
sVcomment
p635
g4
sVcookies
p636
(lp637
sVstatusText
p638
VNo Content
p639
sVcontent
p640
(dp641
VmimeType
p642
Vtext/html; charset=UTF-8
p643
sVcomment
p644
g4
sVsize
p645
I0
ssVheaders
p646
(lp647
sVheadersSize
p648
I248
sVredirectURL
p649
g4
sVbodySize
p650
I0
sVhttpVersion
p651
VHTTP/1.1
p652
ssa(dp653
Vcomment
p654
g4
sVserverIPAddress
p655
V216.58.216.206
p656
sVpageref
p657
VMosquito
p658
sVstartedDateTime
p659
V2017-04-16T08:15:44.220-05:00
p660
sVcache
p661
(dp662
sVrequest
p663
(dp664
Vcomment
p665
g4
sVcookies
p666
(lp667
sVurl
p668
Vhttps://encrypted-tbn2.gstatic.com/images?q=tbn:ANd9GcTxa-ErY3kVQAFjBmwOMrUKdzL_wu82W-lyOYJBUniTf794L8SIHpprVmStRt9cEJpzgyg
p669
sVqueryString
p670
(lp671
(dp672
Vname
p673
g415
sVvalue
p674
Vtbn:ANd9GcTxa-ErY3kVQAFjBmwOMrUKdzL_wu82W-lyOYJBUniTf794L8SIHpprVmStRt9cEJpzgyg
p675
sasVheaders
p676
(lp677
sVheadersSize
p678
I438
sVbodySize
p679
I0
sVmethod
p680
VGET
p681
sVhttpVersion
p682
VHTTP/1.1
p683
ssVtimings
p684
(dp685
Vcomment
p686
g4
sVreceive
p687
I0
sVsend
p688
I0
sVssl
p689
I-1
sVconnect
p690
I-1
sVdns
p691
I-1
sVwait
p692
I29
sVblocked
p693
I-1
ssVtime
p694
I29
sVresponse
p695
(dp696
Vstatus
p697
I404
sVcomment
p698
g4
sVcookies
p699
(lp700
sVstatusText
p701
VNot Found
p702
sVcontent
p703
(dp704
VmimeType
p705
Vimage/gif
p706
sVcomment
p707
g4
sVsize
p708
I0
ssVheaders
p709
(lp710
sVheadersSize
p711
I238
sVredirectURL
p712
g4
sVbodySize
p713
I43
sVhttpVersion
p714
VHTTP/1.1
p715
ssa(dp716
Vcomment
p717
g4
sVserverIPAddress
p718
V172.217.6.4
p719
sVpageref
p720
VMosquito
p721
sVstartedDateTime
p722
V2017-04-16T08:15:44.754-05:00
p723
sVcache
p724
(dp725
sVrequest
p726
(dp727
Vcomment
p728
g4
sVcookies
p729
(lp730
sVurl
p731
Vhttps://www.google.com/maps/vt/data=RfCSdfNZ0LFPrHSm0ublXdzhdrDFhtmHhN1u-gM,-t1sZkglSoSW0MQX6Zjzdr1QlMXIoYAo7p8Cl5Nse-52_VFYWDuyl92na30DxwyEw-wmebwQo-dNx_UL7PWBGdtPIjokfzIk6DeHFQ8PUd3Tm4tniYqCBVjAUYly352Xh99Au5E?scale=2&w=997
p732
sVqueryString
p733
(lp734
(dp735
Vname
p736
Vscale
p737
sVvalue
p738
g64
sa(dp739
Vname
p740
Vw
p741
sVvalue
p742
V997
p743
sasVheaders
p744
(lp745
sVheadersSize
p746
I742
sVbodySize
p747
I0
sVmethod
p748
VGET
p749
sVhttpVersion
p750
VHTTP/1.1
p751
ssVtimings
p752
(dp753
Vcomment
p754
g4
sVreceive
p755
I152
sVsend
p756
I0
sVssl
p757
I-1
sVconnect
p758
I-1
sVdns
p759
I-1
sVwait
p760
I166
sVblocked
p761
I-1
ssVtime
p762
I319
sVresponse
p763
(dp764
Vstatus
p765
I200
sVcomment
p766
g4
sVcookies
p767
(lp768
sVstatusText
p769
VOK
p770
sVcontent
p771
(dp772
VmimeType
p773
Vimage/png
p774
sVcomment
p775
g4
sVsize
p776
I0
ssVheaders
p777
(lp778
sVheadersSize
p779
I479
sVredirectURL
p780
g4
sVbodySize
p781
I43772
sVhttpVersion
p782
VHTTP/1.1
p783
ssa(dp784
Vcomment
p785
g4
sVserverIPAddress
p786
V172.217.6.4
p787
sVpageref
p788
VMosquito
p789
sVstartedDateTime
p790
V2017-04-16T08:15:44.796-05:00
p791
sVcache
p792
(dp793
sVrequest
p794
(dp795
Vcomment
p796
g4
sVcookies
p797
(lp798
sVurl
p799
Vhttps://www.google.com/xjs/_/js/k=xjs.qs.en_US.pCBXVCvTH3s.O/m=syl,syj,syn,em3,em8,em6,em7,sym,aa,abd,sy2g,sy2k,sy29,sy2j,sy2d,sy2a,sy2c,sy2f,sy2l,sy2m,sy2n,emd,async,sybn,sybi,sybo,sy1f,sy45,sy46,sy9w,sybk,sybj,sybp,sy1g,sy30,sy47,sybm,sybl,sybq,sy1h,sybh,dvl,syep,foot,ipv6,sy32,emj,shm,sy5g,sy5i,sy5k,sykh,tl,sy2x,sy2y,sy2t,sy38,em12,vs,sy5j,sy5h,sy6u,sy66,sy67,sy7d,sy7j,sy4u,sy69,sy89,sy7e,sykk,sykl,tnv,bct,sy1y,sy23,sy2u,sy22,sy6i,sy34,sy31,sy6j,sy25,sy6l,sy6k,sy6h,emb,em9,ema,sy6m,qkx,sy4d,sy4f,sy4c,sy4e,sy24,sy4b,sy6w,shrb,sy4g,syd7,dgm,syf5,syf6,syf8,sygb,syg9,kptm,sy99,syf4,sy26,syfc,syfn,syf7,syff,sy1i,sy68,sy8d,sy9b,syfl,syfr,syfq,syfg,sy1j,sy4q,sy5o,sy5r,sy6n,sy6p,sy8h,syc7,syc8,syfb,syfj,syfs,syft,syg3,syg5,syg7,emn,emo,syg4,syg6,ivg,sy9m,syac,sy9n,syhz,syl6,ssc,iuci,img,sy41,tcc,sygq,kpc,kpci,sy4h,vrml,sy6y,sycu,d3l,sy6o,sy5x,sy6r,sy4i,sy5y,sy6a,syeg,lie,sy6b,sccm,kch,sy2z,sy2w,syka,trex,sy3d,sy3u,sy5m,sy6e,sy6f,sy6g,ofmc,mexp,sy7l,sy7t,sy7q,sy87,sy7y,sy80,sy7m,sy82,sy84,sy4l,sy7v,sy7f,sy8k,syi5,syi7,syia,uvl,sy7u,sy7w,sy7p,sy7s,sy8l,sy85,sy7r,sy81,sy8q,sy7z,sy7o,sy7x,sy86,sy83,sy8t,sy3a,sy3c,sy7g,sy72,sy9u,sy7n,sy3b,sybb,sycx,syew,syi6,syi9,sy91,syb1,syaz,syi8,hcar,sy4k,sy4v,syd6,syi2,syd4,syi3,syi4,fppu,fpv,sst,syi0,cpn,sy48,sy5b,sy4x,sy4z,sy56,sy52,sy4y,sycv,sy5d,sy8y,syd0,syda,syd5,sy5e,syd1,sydb,syel,syie,pe,sy5u,sy5t,sy6z,sy70,sy71,ohi,syej,sy8b,syek,sybe,syic,syck,sycy,syem,syid,eil,di,sy79,sy8e,sy7b,sy8i,sy7c,sy8n,syjz,syk1,sy8s,sy37,sy6q,sya0,sydv,syf0,syig,syip,syk0,syk2,lor,wrl,rp,syha,fprl,wra,qaim,qif,sy5z,atn,sya3,sya2,sya1,sya4,ampfp/am=gCP4LtMEBXQA2RUaq_oFBISzAFA/rt=j/d=0/t=zcms/rs=ACT90oFwm4NZCwIcuuiqmthdlECdBzkhRA
p800
sVqueryString
p801
(lp802
sVheaders
p803
(lp804
sVheadersSize
p805
I2188
sVbodySize
p806
I0
sVmethod
p807
VGET
p808
sVhttpVersion
p809
VHTTP/1.1
p810
ssVtimings
p811
(dp812
Vcomment
p813
g4
sVreceive
p814
I158
sVsend
p815
I0
sVssl
p816
I-1
sVconnect
p817
I-1
sVdns
p818
I-1
sVwait
p819
I117
sVblocked
p820
I-1
ssVtime
p821
I276
sVresponse
p822
(dp823
Vstatus
p824
I200
sVcomment
p825
g4
sVcookies
p826
(lp827
sVstatusText
p828
VOK
p829
sVcontent
p830
(dp831
VmimeType
p832
Vtext/javascript; charset=UTF-8
p833
sVcomment
p834
g4
sVsize
p835
I0
ssVheaders
p836
(lp837
sVheadersSize
p838
I452
sVredirectURL
p839
g4
sVbodySize
p840
I222862
sVhttpVersion
p841
VHTTP/1.1
p842
ssa(dp843
Vcomment
p844
g4
sVserverIPAddress
p845
V172.217.6.4
p846
sVpageref
p847
VMosquito
p848
sVstartedDateTime
p849
V2017-04-16T08:15:45.097-05:00
p850
sVcache
p851
(dp852
sVrequest
p853
(dp854
Vcomment
p855
g4
sVcookies
p856
(lp857
sVurl
p858
Vhttps://www.google.com/gen_204?s=lu&atyp=csi&ei=fW7zWKjGMIjljwTa_K1Q&ima=17&rt=lmap.2187,aft.1275,wsrt.1963,cst.0,dnst.0,rqst.1309,rspt.1217,rqstt.5,unt.5,cstt.5,dit.1447
p859
sVqueryString
p860
(lp861
(dp862
Vname
p863
g57
sVvalue
p864
Vlu
p865
sa(dp866
Vname
p867
Vatyp
p868
sVvalue
p869
Vcsi
p870
sa(dp871
Vname
p872
Vei
p873
sVvalue
p874
VfW7zWKjGMIjljwTa_K1Q
p875
sa(dp876
Vname
p877
Vima
p878
sVvalue
p879
V17
p880
sa(dp881
Vname
p882
Vrt
p883
sVvalue
p884
Vlmap.2187,aft.1275,wsrt.1963,cst.0,dnst.0,rqst.1309,rspt.1217,rqstt.5,unt.5,cstt.5,dit.1447
p885
sasVheaders
p886
(lp887
sVheadersSize
p888
I687
sVbodySize
p889
I0
sVmethod
p890
VGET
p891
sVhttpVersion
p892
VHTTP/1.1
p893
ssVtimings
p894
(dp895
Vcomment
p896
g4
sVreceive
p897
I0
sVsend
p898
I0
sVssl
p899
I-1
sVconnect
p900
I-1
sVdns
p901
I-1
sVwait
p902
I26
sVblocked
p903
I-1
ssVtime
p904
I26
sVresponse
p905
(dp906
Vstatus
p907
I204
sVcomment
p908
g4
sVcookies
p909
(lp910
sVstatusText
p911
VNo Content
p912
sVcontent
p913
(dp914
VmimeType
p915
Vtext/html; charset=UTF-8
p916
sVcomment
p917
g4
sVsize
p918
I0
ssVheaders
p919
(lp920
sVheadersSize
p921
I248
sVredirectURL
p922
g4
sVbodySize
p923
I0
sVhttpVersion
p924
VHTTP/1.1
p925
ssa(dp926
Vcomment
p927
g4
sVserverIPAddress
p928
V216.58.216.193
p929
sVpageref
p930
VMosquito
p931
sVstartedDateTime
p932
V2017-04-16T08:15:45.152-05:00
p933
sVcache
p934
(dp935
sVrequest
p936
(dp937
Vcomment
p938
g4
sVcookies
p939
(lp940
sVurl
p941
Vhttps://geo0.ggpht.com/cbk?panoid=r9AzvvsLJ5aUFqUnNgXYoQ&output=thumbnail&cb_client=search.LOCAL_UNIVERSAL.gps&thumb=2&w=1280&h=220&yaw=71.164154&pitch=0&thumbfov=100
p942
sVqueryString
p943
(lp944
(dp945
Vname
p946
Vpanoid
p947
sVvalue
p948
Vr9AzvvsLJ5aUFqUnNgXYoQ
p949
sa(dp950
Vname
p951
Voutput
p952
sVvalue
p953
Vthumbnail
p954
sa(dp955
Vname
p956
Vcb_client
p957
sVvalue
p958
Vsearch.LOCAL_UNIVERSAL.gps
p959
sa(dp960
Vname
p961
Vthumb
p962
sVvalue
p963
g64
sa(dp964
Vname
p965
g741
sVvalue
p966
V1280
p967
sa(dp968
Vname
p969
Vh
p970
sVvalue
p971
V220
p972
sa(dp973
Vname
p974
Vyaw
p975
sVvalue
p976
V71.164154
p977
sa(dp978
Vname
p979
Vpitch
p980
sVvalue
p981
g289
sa(dp982
Vname
p983
Vthumbfov
p984
sVvalue
p985
V100
p986
sasVheaders
p987
(lp988
sVheadersSize
p989
I481
sVbodySize
p990
I0
sVmethod
p991
VGET
p992
sVhttpVersion
p993
VHTTP/1.1
p994
ssVtimings
p995
(dp996
Vcomment
p997
g4
sVreceive
p998
I21
sVsend
p999
I0
sVssl
p1000
I855
sVconnect
p1001
I872
sVdns
p1002
I48
sVwait
p1003
I227
sVblocked
p1004
I0
ssVtime
p1005
I1170
sVresponse
p1006
(dp1007
Vstatus
p1008
I200
sVcomment
p1009
g4
sVcookies
p1010
(lp1011
sVstatusText
p1012
VOK
p1013
sVcontent
p1014
(dp1015
VmimeType
p1016
Vimage/jpeg; charset=UTF-8
p1017
sVcomment
p1018
g4
sVsize
p1019
I0
ssVheaders
p1020
(lp1021
sVheadersSize
p1022
I463
sVredirectURL
p1023
g4
sVbodySize
p1024
I37884
sVhttpVersion
p1025
VHTTP/1.1
p1026
ssa(dp1027
Vcomment
p1028
g4
sVserverIPAddress
p1029
V172.217.6.4
p1030
sVpageref
p1031
VMosquito
p1032
sVstartedDateTime
p1033
V2017-04-16T08:15:45.363-05:00
p1034
sVcache
p1035
(dp1036
sVrequest
p1037
(dp1038
Vcomment
p1039
g4
sVcookies
p1040
(lp1041
sVurl
p1042
Vhttps://www.google.com/async/irc?vet=10ahUKEwjo-NvFh6nTAhWI8oMKHVp-CwoQo0EIvAI..i&ved=0ahUKEwjo-NvFh6nTAhWI8oMKHVp-CwoQo0EIvAI&ei=fW7zWKjGMIjljwTa_K1Q&yv=2&async=iu:1,ved:0ahUKEwjo-NvFh6nTAhWI8oMKHVp-CwoQo0EIvAI,_id:irc_async,_pms:qs
p1043
sVqueryString
p1044
(lp1045
(dp1046
Vname
p1047
Vvet
p1048
sVvalue
p1049
V10ahUKEwjo-NvFh6nTAhWI8oMKHVp-CwoQo0EIvAI..i
p1050
sa(dp1051
Vname
p1052
Vved
p1053
sVvalue
p1054
V0ahUKEwjo-NvFh6nTAhWI8oMKHVp-CwoQo0EIvAI
p1055
sa(dp1056
Vname
p1057
Vei
p1058
sVvalue
p1059
VfW7zWKjGMIjljwTa_K1Q
p1060
sa(dp1061
Vname
p1062
Vyv
p1063
sVvalue
p1064
g64
sa(dp1065
Vname
p1066
Vasync
p1067
sVvalue
p1068
Viu:1,ved:0ahUKEwjo-NvFh6nTAhWI8oMKHVp-CwoQo0EIvAI,_id:irc_async,_pms:qs
p1069
sasVheaders
p1070
(lp1071
sVheadersSize
p1072
I750
sVbodySize
p1073
I0
sVmethod
p1074
VGET
p1075
sVhttpVersion
p1076
VHTTP/1.1
p1077
ssVtimings
p1078
(dp1079
Vcomment
p1080
g4
sVreceive
p1081
I0
sVsend
p1082
I0
sVssl
p1083
I-1
sVconnect
p1084
I-1
sVdns
p1085
I-1
sVwait
p1086
I63
sVblocked
p1087
I-1
ssVtime
p1088
I63
sVresponse
p1089
(dp1090
Vstatus
p1091
I200
sVcomment
p1092
g4
sVcookies
p1093
(lp1094
sVstatusText
p1095
VOK
p1096
sVcontent
p1097
(dp1098
VmimeType
p1099
Vtext/html; charset=UTF-8
p1100
sVcomment
p1101
g4
sVsize
p1102
I0
ssVheaders
p1103
(lp1104
sVheadersSize
p1105
I383
sVredirectURL
p1106
g4
sVbodySize
p1107
I7795
sVhttpVersion
p1108
VHTTP/1.1
p1109
ssa(dp1110
Vcomment
p1111
g4
sVserverIPAddress
p1112
V172.217.6.4
p1113
sVpageref
p1114
VMosquito
p1115
sVstartedDateTime
p1116
V2017-04-16T08:15:45.413-05:00
p1117
sVcache
p1118
(dp1119
sVrequest
p1120
(dp1121
Vcomment
p1122
g4
sVcookies
p1123
(lp1124
sVurl
p1125
Vhttps://www.google.com/gen_204?atyp=i&ct=&cad=&vet=10ahUKEwjo-NvFh6nTAhWI8oMKHVp-CwoQ5W0IMygC..s&ei=fW7zWKjGMIjljwTa_K1Q&zx=1492348545412
p1126
sVqueryString
p1127
(lp1128
(dp1129
Vname
p1130
Vatyp
p1131
sVvalue
p1132
g30
sa(dp1133
Vname
p1134
Vct
p1135
sVvalue
p1136
g4
sa(dp1137
Vname
p1138
Vcad
p1139
sVvalue
p1140
g4
sa(dp1141
Vname
p1142
Vvet
p1143
sVvalue
p1144
V10ahUKEwjo-NvFh6nTAhWI8oMKHVp-CwoQ5W0IMygC..s
p1145
sa(dp1146
Vname
p1147
Vei
p1148
sVvalue
p1149
VfW7zWKjGMIjljwTa_K1Q
p1150
sa(dp1151
Vname
p1152
Vzx
p1153
sVvalue
p1154
V1492348545412
p1155
sasVheaders
p1156
(lp1157
sVheadersSize
p1158
I654
sVbodySize
p1159
I0
sVmethod
p1160
VGET
p1161
sVhttpVersion
p1162
VHTTP/1.1
p1163
ssVtimings
p1164
(dp1165
Vcomment
p1166
g4
sVreceive
p1167
I0
sVsend
p1168
I0
sVssl
p1169
I-1
sVconnect
p1170
I-1
sVdns
p1171
I-1
sVwait
p1172
I29
sVblocked
p1173
I-1
ssVtime
p1174
I29
sVresponse
p1175
(dp1176
Vstatus
p1177
I204
sVcomment
p1178
g4
sVcookies
p1179
(lp1180
sVstatusText
p1181
VNo Content
p1182
sVcontent
p1183
(dp1184
VmimeType
p1185
Vtext/html; charset=UTF-8
p1186
sVcomment
p1187
g4
sVsize
p1188
I0
ssVheaders
p1189
(lp1190
sVheadersSize
p1191
I248
sVredirectURL
p1192
g4
sVbodySize
p1193
I0
sVhttpVersion
p1194
VHTTP/1.1
p1195
ssa(dp1196
Vcomment
p1197
g4
sVserverIPAddress
p1198
V172.217.6.4
p1199
sVpageref
p1200
VMosquito
p1201
sVstartedDateTime
p1202
V2017-04-16T08:15:45.416-05:00
p1203
sVcache
p1204
(dp1205
sVrequest
p1206
(dp1207
Vcomment
p1208
g4
sVcookies
p1209
(lp1210
sVurl
p1211
Vhttps://www.google.com/gen_204?atyp=i&ct=&cad=&vet=10ahUKEwjo-NvFh6nTAhWI8oMKHVp-CwoQ5W0INigD..s&ei=fW7zWKjGMIjljwTa_K1Q&zx=1492348545415
p1212
sVqueryString
p1213
(lp1214
(dp1215
Vname
p1216
Vatyp
p1217
sVvalue
p1218
g30
sa(dp1219
Vname
p1220
Vct
p1221
sVvalue
p1222
g4
sa(dp1223
Vname
p1224
Vcad
p1225
sVvalue
p1226
g4
sa(dp1227
Vname
p1228
Vvet
p1229
sVvalue
p1230
V10ahUKEwjo-NvFh6nTAhWI8oMKHVp-CwoQ5W0INigD..s
p1231
sa(dp1232
Vname
p1233
Vei
p1234
sVvalue
p1235
VfW7zWKjGMIjljwTa_K1Q
p1236
sa(dp1237
Vname
p1238
Vzx
p1239
sVvalue
p1240
V1492348545415
p1241
sasVheaders
p1242
(lp1243
sVheadersSize
p1244
I654
sVbodySize
p1245
I0
sVmethod
p1246
VGET
p1247
sVhttpVersion
p1248
VHTTP/1.1
p1249
ssVtimings
p1250
(dp1251
Vcomment
p1252
g4
sVreceive
p1253
I0
sVsend
p1254
I0
sVssl
p1255
I-1
sVconnect
p1256
I-1
sVdns
p1257
I-1
sVwait
p1258
I32
sVblocked
p1259
I-1
ssVtime
p1260
I32
sVresponse
p1261
(dp1262
Vstatus
p1263
I204
sVcomment
p1264
g4
sVcookies
p1265
(lp1266
sVstatusText
p1267
VNo Content
p1268
sVcontent
p1269
(dp1270
VmimeType
p1271
Vtext/html; charset=UTF-8
p1272
sVcomment
p1273
g4
sVsize
p1274
I0
ssVheaders
p1275
(lp1276
sVheadersSize
p1277
I248
sVredirectURL
p1278
g4
sVbodySize
p1279
I0
sVhttpVersion
p1280
VHTTP/1.1
p1281
ssa(dp1282
Vcomment
p1283
g4
sVserverIPAddress
p1284
V172.217.6.4
p1285
sVpageref
p1286
VMosquito
p1287
sVstartedDateTime
p1288
V2017-04-16T08:15:45.427-05:00
p1289
sVcache
p1290
(dp1291
sVrequest
p1292
(dp1293
Vcomment
p1294
g4
sVcookies
p1295
(lp1296
sVurl
p1297
Vhttps://www.google.com/gen_204?atyp=i&ct=&cad=&vet=10ahUKEwjo-NvFh6nTAhWI8oMKHVp-CwoQ5W0IOSgE..s&ei=fW7zWKjGMIjljwTa_K1Q&zx=1492348545420
p1298
sVqueryString
p1299
(lp1300
(dp1301
Vname
p1302
Vatyp
p1303
sVvalue
p1304
g30
sa(dp1305
Vname
p1306
Vct
p1307
sVvalue
p1308
g4
sa(dp1309
Vname
p1310
Vcad
p1311
sVvalue
p1312
g4
sa(dp1313
Vname
p1314
Vvet
p1315
sVvalue
p1316
V10ahUKEwjo-NvFh6nTAhWI8oMKHVp-CwoQ5W0IOSgE..s
p1317
sa(dp1318
Vname
p1319
Vei
p1320
sVvalue
p1321
VfW7zWKjGMIjljwTa_K1Q
p1322
sa(dp1323
Vname
p1324
Vzx
p1325
sVvalue
p1326
V1492348545420
p1327
sasVheaders
p1328
(lp1329
sVheadersSize
p1330
I654
sVbodySize
p1331
I0
sVmethod
p1332
VGET
p1333
sVhttpVersion
p1334
VHTTP/1.1
p1335
ssVtimings
p1336
(dp1337
Vcomment
p1338
g4
sVreceive
p1339
I0
sVsend
p1340
I0
sVssl
p1341
I-1
sVconnect
p1342
I-1
sVdns
p1343
I-1
sVwait
p1344
I32
sVblocked
p1345
I-1
ssVtime
p1346
I32
sVresponse
p1347
(dp1348
Vstatus
p1349
I204
sVcomment
p1350
g4
sVcookies
p1351
(lp1352
sVstatusText
p1353
VNo Content
p1354
sVcontent
p1355
(dp1356
VmimeType
p1357
Vtext/html; charset=UTF-8
p1358
sVcomment
p1359
g4
sVsize
p1360
I0
ssVheaders
p1361
(lp1362
sVheadersSize
p1363
I248
sVredirectURL
p1364
g4
sVbodySize
p1365
I0
sVhttpVersion
p1366
VHTTP/1.1
p1367
ssa(dp1368
Vcomment
p1369
g4
sVserverIPAddress
p1370
V172.217.6.4
p1371
sVpageref
p1372
VMosquito
p1373
sVstartedDateTime
p1374
V2017-04-16T08:15:45.437-05:00
p1375
sVcache
p1376
(dp1377
sVrequest
p1378
(dp1379
Vcomment
p1380
g4
sVcookies
p1381
(lp1382
sVurl
p1383
Vhttps://www.google.com/gen_204?atyp=i&ct=&cad=&vet=10ahUKEwjo-NvFh6nTAhWI8oMKHVp-CwoQ5W0IPCgF..s&ei=fW7zWKjGMIjljwTa_K1Q&zx=1492348545428
p1384
sVqueryString
p1385
(lp1386
(dp1387
Vname
p1388
Vatyp
p1389
sVvalue
p1390
g30
sa(dp1391
Vname
p1392
Vct
p1393
sVvalue
p1394
g4
sa(dp1395
Vname
p1396
Vcad
p1397
sVvalue
p1398
g4
sa(dp1399
Vname
p1400
Vvet
p1401
sVvalue
p1402
V10ahUKEwjo-NvFh6nTAhWI8oMKHVp-CwoQ5W0IPCgF..s
p1403
sa(dp1404
Vname
p1405
Vei
p1406
sVvalue
p1407
VfW7zWKjGMIjljwTa_K1Q
p1408
sa(dp1409
Vname
p1410
Vzx
p1411
sVvalue
p1412
V1492348545428
p1413
sasVheaders
p1414
(lp1415
sVheadersSize
p1416
I654
sVbodySize
p1417
I0
sVmethod
p1418
VGET
p1419
sVhttpVersion
p1420
VHTTP/1.1
p1421
ssVtimings
p1422
(dp1423
Vcomment
p1424
g4
sVreceive
p1425
I0
sVsend
p1426
I0
sVssl
p1427
I-1
sVconnect
p1428
I-1
sVdns
p1429
I-1
sVwait
p1430
I37
sVblocked
p1431
I-1
ssVtime
p1432
I38
sVresponse
p1433
(dp1434
Vstatus
p1435
I204
sVcomment
p1436
g4
sVcookies
p1437
(lp1438
sVstatusText
p1439
VNo Content
p1440
sVcontent
p1441
(dp1442
VmimeType
p1443
Vtext/html; charset=UTF-8
p1444
sVcomment
p1445
g4
sVsize
p1446
I0
ssVheaders
p1447
(lp1448
sVheadersSize
p1449
I248
sVredirectURL
p1450
g4
sVbodySize
p1451
I0
sVhttpVersion
p1452
VHTTP/1.1
p1453
ssa(dp1454
Vcomment
p1455
g4
sVserverIPAddress
p1456
V216.58.216.206
p1457
sVpageref
p1458
VMosquito
p1459
sVstartedDateTime
p1460
V2017-04-16T08:15:45.481-05:00
p1461
sVcache
p1462
(dp1463
sVrequest
p1464
(dp1465
Vcomment
p1466
g4
sVcookies
p1467
(lp1468
sVurl
p1469
Vhttps://encrypted-tbn1.gstatic.com/images?q=tbn:ANd9GcRqXTD9hBqf35qctUSNtKuZhoCCdAbjZrVogQUD87wS6VF7Kcicv_-1vUQiSbaXBjWjow
p1470
sVqueryString
p1471
(lp1472
(dp1473
Vname
p1474
g415
sVvalue
p1475
Vtbn:ANd9GcRqXTD9hBqf35qctUSNtKuZhoCCdAbjZrVogQUD87wS6VF7Kcicv_-1vUQiSbaXBjWjow
p1476
sasVheaders
p1477
(lp1478
sVheadersSize
p1479
I437
sVbodySize
p1480
I0
sVmethod
p1481
VGET
p1482
sVhttpVersion
p1483
VHTTP/1.1
p1484
ssVtimings
p1485
(dp1486
Vcomment
p1487
g4
sVreceive
p1488
I0
sVsend
p1489
I0
sVssl
p1490
I-1
sVconnect
p1491
I-1
sVdns
p1492
I-1
sVwait
p1493
I28
sVblocked
p1494
I-1
ssVtime
p1495
I29
sVresponse
p1496
(dp1497
Vstatus
p1498
I200
sVcomment
p1499
g4
sVcookies
p1500
(lp1501
sVstatusText
p1502
VOK
p1503
sVcontent
p1504
(dp1505
VmimeType
p1506
Vimage/jpeg
p1507
sVcomment
p1508
g4
sVsize
p1509
I0
ssVheaders
p1510
(lp1511
sVheadersSize
p1512
I407
sVredirectURL
p1513
g4
sVbodySize
p1514
I2531
sVhttpVersion
p1515
VHTTP/1.1
p1516
ssa(dp1517
Vcomment
p1518
g4
sVserverIPAddress
p1519
V172.217.6.4
p1520
sVpageref
p1521
VMosquito
p1522
sVstartedDateTime
p1523
V2017-04-16T08:15:45.483-05:00
p1524
sVcache
p1525
(dp1526
sVrequest
p1527
(dp1528
Vcomment
p1529
g4
sVcookies
p1530
(lp1531
sVurl
p1532
Vhttps://www.google.com/gen_204?atyp=i&ct=&cad=&vet=10ahUKEwjo-NvFh6nTAhWI8oMKHVp-CwoQtxAIbygDMBQ..s&ei=fW7zWKjGMIjljwTa_K1Q&zx=1492348545481
p1533
sVqueryString
p1534
(lp1535
(dp1536
Vname
p1537
Vatyp
p1538
sVvalue
p1539
g30
sa(dp1540
Vname
p1541
Vct
p1542
sVvalue
p1543
g4
sa(dp1544
Vname
p1545
Vcad
p1546
sVvalue
p1547
g4
sa(dp1548
Vname
p1549
Vvet
p1550
sVvalue
p1551
V10ahUKEwjo-NvFh6nTAhWI8oMKHVp-CwoQtxAIbygDMBQ..s
p1552
sa(dp1553
Vname
p1554
Vei
p1555
sVvalue
p1556
VfW7zWKjGMIjljwTa_K1Q
p1557
sa(dp1558
Vname
p1559
Vzx
p1560
sVvalue
p1561
V1492348545481
p1562
sasVheaders
p1563
(lp1564
sVheadersSize
p1565
I657
sVbodySize
p1566
I0
sVmethod
p1567
VGET
p1568
sVhttpVersion
p1569
VHTTP/1.1
p1570
ssVtimings
p1571
(dp1572
Vcomment
p1573
g4
sVreceive
p1574
I0
sVsend
p1575
I0
sVssl
p1576
I-1
sVconnect
p1577
I-1
sVdns
p1578
I-1
sVwait
p1579
I26
sVblocked
p1580
I-1
ssVtime
p1581
I26
sVresponse
p1582
(dp1583
Vstatus
p1584
I204
sVcomment
p1585
g4
sVcookies
p1586
(lp1587
sVstatusText
p1588
VNo Content
p1589
sVcontent
p1590
(dp1591
VmimeType
p1592
Vtext/html; charset=UTF-8
p1593
sVcomment
p1594
g4
sVsize
p1595
I0
ssVheaders
p1596
(lp1597
sVheadersSize
p1598
I248
sVredirectURL
p1599
g4
sVbodySize
p1600
I0
sVhttpVersion
p1601
VHTTP/1.1
p1602
ssa(dp1603
Vcomment
p1604
g4
sVserverIPAddress
p1605
V216.58.216.206
p1606
sVpageref
p1607
VMosquito
p1608
sVstartedDateTime
p1609
V2017-04-16T08:15:45.484-05:00
p1610
sVcache
p1611
(dp1612
sVrequest
p1613
(dp1614
Vcomment
p1615
g4
sVcookies
p1616
(lp1617
sVurl
p1618
Vhttps://encrypted-tbn2.gstatic.com/images?q=tbn:ANd9GcSwYQTy3cDgILmyJuOo6CYbgx1plIMXyCA82mqOFHLkNa-5rxF9Rp9ZEaxAJF_r3g40-EQ
p1619
sVqueryString
p1620
(lp1621
(dp1622
Vname
p1623
g415
sVvalue
p1624
Vtbn:ANd9GcSwYQTy3cDgILmyJuOo6CYbgx1plIMXyCA82mqOFHLkNa-5rxF9Rp9ZEaxAJF_r3g40-EQ
p1625
sasVheaders
p1626
(lp1627
sVheadersSize
p1628
I438
sVbodySize
p1629
I0
sVmethod
p1630
VGET
p1631
sVhttpVersion
p1632
VHTTP/1.1
p1633
ssVtimings
p1634
(dp1635
Vcomment
p1636
g4
sVreceive
p1637
I0
sVsend
p1638
I0
sVssl
p1639
I-1
sVconnect
p1640
I-1
sVdns
p1641
I-1
sVwait
p1642
I25
sVblocked
p1643
I-1
ssVtime
p1644
I25
sVresponse
p1645
(dp1646
Vstatus
p1647
I200
sVcomment
p1648
g4
sVcookies
p1649
(lp1650
sVstatusText
p1651
VOK
p1652
sVcontent
p1653
(dp1654
VmimeType
p1655
Vimage/jpeg
p1656
sVcomment
p1657
g4
sVsize
p1658
I0
ssVheaders
p1659
(lp1660
sVheadersSize
p1661
I407
sVredirectURL
p1662
g4
sVbodySize
p1663
I2146
sVhttpVersion
p1664
VHTTP/1.1
p1665
ssa(dp1666
Vcomment
p1667
g4
sVserverIPAddress
p1668
V172.217.6.4
p1669
sVpageref
p1670
VMosquito
p1671
sVstartedDateTime
p1672
V2017-04-16T08:15:45.486-05:00
p1673
sVcache
p1674
(dp1675
sVrequest
p1676
(dp1677
Vcomment
p1678
g4
sVcookies
p1679
(lp1680
sVurl
p1681
Vhttps://www.google.com/gen_204?atyp=i&ct=&cad=&vet=10ahUKEwjo-NvFh6nTAhWI8oMKHVp-CwoQtxAIcSgEMBQ..s&ei=fW7zWKjGMIjljwTa_K1Q&zx=1492348545484
p1682
sVqueryString
p1683
(lp1684
(dp1685
Vname
p1686
Vatyp
p1687
sVvalue
p1688
g30
sa(dp1689
Vname
p1690
Vct
p1691
sVvalue
p1692
g4
sa(dp1693
Vname
p1694
Vcad
p1695
sVvalue
p1696
g4
sa(dp1697
Vname
p1698
Vvet
p1699
sVvalue
p1700
V10ahUKEwjo-NvFh6nTAhWI8oMKHVp-CwoQtxAIcSgEMBQ..s
p1701
sa(dp1702
Vname
p1703
Vei
p1704
sVvalue
p1705
VfW7zWKjGMIjljwTa_K1Q
p1706
sa(dp1707
Vname
p1708
Vzx
p1709
sVvalue
p1710
V1492348545484
p1711
sasVheaders
p1712
(lp1713
sVheadersSize
p1714
I657
sVbodySize
p1715
I0
sVmethod
p1716
VGET
p1717
sVhttpVersion
p1718
VHTTP/1.1
p1719
ssVtimings
p1720
(dp1721
Vcomment
p1722
g4
sVreceive
p1723
I0
sVsend
p1724
I0
sVssl
p1725
I-1
sVconnect
p1726
I-1
sVdns
p1727
I-1
sVwait
p1728
I23
sVblocked
p1729
I-1
ssVtime
p1730
I23
sVresponse
p1731
(dp1732
Vstatus
p1733
I204
sVcomment
p1734
g4
sVcookies
p1735
(lp1736
sVstatusText
p1737
VNo Content
p1738
sVcontent
p1739
(dp1740
VmimeType
p1741
Vtext/html; charset=UTF-8
p1742
sVcomment
p1743
g4
sVsize
p1744
I0
ssVheaders
p1745
(lp1746
sVheadersSize
p1747
I248
sVredirectURL
p1748
g4
sVbodySize
p1749
I0
sVhttpVersion
p1750
VHTTP/1.1
p1751
ssa(dp1752
Vcomment
p1753
g4
sVserverIPAddress
p1754
V172.217.6.4
p1755
sVpageref
p1756
VMosquito
p1757
sVstartedDateTime
p1758
V2017-04-16T08:15:45.492-05:00
p1759
sVcache
p1760
(dp1761
sVrequest
p1762
(dp1763
Vcomment
p1764
g4
sVcookies
p1765
(lp1766
sVurl
p1767
Vhttps://www.google.com/gen_204?atyp=i&ct=&cad=&vet=10ahUKEwjo-NvFh6nTAhWI8oMKHVp-CwoQtxAIcygFMBQ..s&ei=fW7zWKjGMIjljwTa_K1Q&zx=1492348545489
p1768
sVqueryString
p1769
(lp1770
(dp1771
Vname
p1772
Vatyp
p1773
sVvalue
p1774
g30
sa(dp1775
Vname
p1776
Vct
p1777
sVvalue
p1778
g4
sa(dp1779
Vname
p1780
Vcad
p1781
sVvalue
p1782
g4
sa(dp1783
Vname
p1784
Vvet
p1785
sVvalue
p1786
V10ahUKEwjo-NvFh6nTAhWI8oMKHVp-CwoQtxAIcygFMBQ..s
p1787
sa(dp1788
Vname
p1789
Vei
p1790
sVvalue
p1791
VfW7zWKjGMIjljwTa_K1Q
p1792
sa(dp1793
Vname
p1794
Vzx
p1795
sVvalue
p1796
V1492348545489
p1797
sasVheaders
p1798
(lp1799
sVheadersSize
p1800
I657
sVbodySize
p1801
I0
sVmethod
p1802
VGET
p1803
sVhttpVersion
p1804
VHTTP/1.1
p1805
ssVtimings
p1806
(dp1807
Vcomment
p1808
g4
sVreceive
p1809
I0
sVsend
p1810
I0
sVssl
p1811
I-1
sVconnect
p1812
I-1
sVdns
p1813
I-1
sVwait
p1814
I29
sVblocked
p1815
I-1
ssVtime
p1816
I30
sVresponse
p1817
(dp1818
Vstatus
p1819
I204
sVcomment
p1820
g4
sVcookies
p1821
(lp1822
sVstatusText
p1823
VNo Content
p1824
sVcontent
p1825
(dp1826
VmimeType
p1827
Vtext/html; charset=UTF-8
p1828
sVcomment
p1829
g4
sVsize
p1830
I0
ssVheaders
p1831
(lp1832
sVheadersSize
p1833
I248
sVredirectURL
p1834
g4
sVbodySize
p1835
I0
sVhttpVersion
p1836
VHTTP/1.1
p1837
ssa(dp1838
Vcomment
p1839
g4
sVserverIPAddress
p1840
V216.58.217.14
p1841
sVpageref
p1842
VMosquito
p1843
sVstartedDateTime
p1844
V2017-04-16T08:15:45.497-05:00
p1845
sVcache
p1846
(dp1847
sVrequest
p1848
(dp1849
Vcomment
p1850
g4
sVcookies
p1851
(lp1852
sVurl
p1853
Vhttps://encrypted-tbn3.gstatic.com/images?q=tbn:ANd9GcTfCmFDkc6j9JmMIxvJuA99RNOd3AbxjJMcFJMUtMHmjy_5QTrlvK_vy4QAA7PoWB5afnw
p1854
sVqueryString
p1855
(lp1856
(dp1857
Vname
p1858
g415
sVvalue
p1859
Vtbn:ANd9GcTfCmFDkc6j9JmMIxvJuA99RNOd3AbxjJMcFJMUtMHmjy_5QTrlvK_vy4QAA7PoWB5afnw
p1860
sasVheaders
p1861
(lp1862
sVheadersSize
p1863
I438
sVbodySize
p1864
I0
sVmethod
p1865
VGET
p1866
sVhttpVersion
p1867
VHTTP/1.1
p1868
ssVtimings
p1869
(dp1870
Vcomment
p1871
g4
sVreceive
p1872
I1
sVsend
p1873
I0
sVssl
p1874
I-1
sVconnect
p1875
I-1
sVdns
p1876
I-1
sVwait
p1877
I18
sVblocked
p1878
I-1
ssVtime
p1879
I20
sVresponse
p1880
(dp1881
Vstatus
p1882
I200
sVcomment
p1883
g4
sVcookies
p1884
(lp1885
sVstatusText
p1886
VOK
p1887
sVcontent
p1888
(dp1889
VmimeType
p1890
Vimage/jpeg
p1891
sVcomment
p1892
g4
sVsize
p1893
I0
ssVheaders
p1894
(lp1895
sVheadersSize
p1896
I407
sVredirectURL
p1897
g4
sVbodySize
p1898
I2088
sVhttpVersion
p1899
VHTTP/1.1
p1900
ssa(dp1901
Vcomment
p1902
g4
sVserverIPAddress
p1903
V172.217.6.4
p1904
sVpageref
p1905
VMosquito
p1906
sVstartedDateTime
p1907
V2017-04-16T08:15:45.513-05:00
p1908
sVcache
p1909
(dp1910
sVrequest
p1911
(dp1912
Vcomment
p1913
g4
sVcookies
p1914
(lp1915
sVurl
p1916
Vhttps://www.google.com/gen_204?atyp=i&ct=&cad=&vet=10ahUKEwjo-NvFh6nTAhWI8oMKHVp-CwoQtxAIdSgGMBQ..s&ei=fW7zWKjGMIjljwTa_K1Q&zx=1492348545495
p1917
sVqueryString
p1918
(lp1919
(dp1920
Vname
p1921
Vatyp
p1922
sVvalue
p1923
g30
sa(dp1924
Vname
p1925
Vct
p1926
sVvalue
p1927
g4
sa(dp1928
Vname
p1929
Vcad
p1930
sVvalue
p1931
g4
sa(dp1932
Vname
p1933
Vvet
p1934
sVvalue
p1935
V10ahUKEwjo-NvFh6nTAhWI8oMKHVp-CwoQtxAIdSgGMBQ..s
p1936
sa(dp1937
Vname
p1938
Vei
p1939
sVvalue
p1940
VfW7zWKjGMIjljwTa_K1Q
p1941
sa(dp1942
Vname
p1943
Vzx
p1944
sVvalue
p1945
V1492348545495
p1946
sasVheaders
p1947
(lp1948
sVheadersSize
p1949
I657
sVbodySize
p1950
I0
sVmethod
p1951
VGET
p1952
sVhttpVersion
p1953
VHTTP/1.1
p1954
ssVtimings
p1955
(dp1956
Vcomment
p1957
g4
sVreceive
p1958
I0
sVsend
p1959
I0
sVssl
p1960
I-1
sVconnect
p1961
I-1
sVdns
p1962
I-1
sVwait
p1963
I34
sVblocked
p1964
I-1
ssVtime
p1965
I34
sVresponse
p1966
(dp1967
Vstatus
p1968
I204
sVcomment
p1969
g4
sVcookies
p1970
(lp1971
sVstatusText
p1972
VNo Content
p1973
sVcontent
p1974
(dp1975
VmimeType
p1976
Vtext/html; charset=UTF-8
p1977
sVcomment
p1978
g4
sVsize
p1979
I0
ssVheaders
p1980
(lp1981
sVheadersSize
p1982
I248
sVredirectURL
p1983
g4
sVbodySize
p1984
I0
sVhttpVersion
p1985
VHTTP/1.1
p1986
ssa(dp1987
Vcomment
p1988
g4
sVserverIPAddress
p1989
V216.58.216.206
p1990
sVpageref
p1991
VMosquito
p1992
sVstartedDateTime
p1993
V2017-04-16T08:15:45.514-05:00
p1994
sVcache
p1995
(dp1996
sVrequest
p1997
(dp1998
Vcomment
p1999
g4
sVcookies
p2000
(lp2001
sVurl
p2002
Vhttps://encrypted-tbn0.gstatic.com/images?q=tbn:ANd9GcQpBzNDsF0vO2LEIC1dsqdvjfowAEqISzHuiraASIGLMoxXUJyxqr7FxyaGGZDWyFNAe8E
p2003
sVqueryString
p2004
(lp2005
(dp2006
Vname
p2007
g415
sVvalue
p2008
Vtbn:ANd9GcQpBzNDsF0vO2LEIC1dsqdvjfowAEqISzHuiraASIGLMoxXUJyxqr7FxyaGGZDWyFNAe8E
p2009
sasVheaders
p2010
(lp2011
sVheadersSize
p2012
I438
sVbodySize
p2013
I0
sVmethod
p2014
VGET
p2015
sVhttpVersion
p2016
VHTTP/1.1
p2017
ssVtimings
p2018
(dp2019
Vcomment
p2020
g4
sVreceive
p2021
I0
sVsend
p2022
I0
sVssl
p2023
I-1
sVconnect
p2024
I-1
sVdns
p2025
I-1
sVwait
p2026
I25
sVblocked
p2027
I-1
ssVtime
p2028
I25
sVresponse
p2029
(dp2030
Vstatus
p2031
I200
sVcomment
p2032
g4
sVcookies
p2033
(lp2034
sVstatusText
p2035
VOK
p2036
sVcontent
p2037
(dp2038
VmimeType
p2039
Vimage/jpeg
p2040
sVcomment
p2041
g4
sVsize
p2042
I0
ssVheaders
p2043
(lp2044
sVheadersSize
p2045
I428
sVredirectURL
p2046
g4
sVbodySize
p2047
I3126
sVhttpVersion
p2048
VHTTP/1.1
p2049
ssa(dp2050
Vcomment
p2051
g4
sVserverIPAddress
p2052
V172.217.6.4
p2053
sVpageref
p2054
VMosquito
p2055
sVstartedDateTime
p2056
V2017-04-16T08:15:45.514-05:00
p2057
sVcache
p2058
(dp2059
sVrequest
p2060
(dp2061
Vcomment
p2062
g4
sVcookies
p2063
(lp2064
sVurl
p2065
Vhttps://www.google.com/gen_204?atyp=i&ct=&cad=&vet=10ahUKEwjo-NvFh6nTAhWI8oMKHVp-CwoQtxAIdygHMBQ..s&ei=fW7zWKjGMIjljwTa_K1Q&zx=1492348545498
p2066
sVqueryString
p2067
(lp2068
(dp2069
Vname
p2070
Vatyp
p2071
sVvalue
p2072
g30
sa(dp2073
Vname
p2074
Vct
p2075
sVvalue
p2076
g4
sa(dp2077
Vname
p2078
Vcad
p2079
sVvalue
p2080
g4
sa(dp2081
Vname
p2082
Vvet
p2083
sVvalue
p2084
V10ahUKEwjo-NvFh6nTAhWI8oMKHVp-CwoQtxAIdygHMBQ..s
p2085
sa(dp2086
Vname
p2087
Vei
p2088
sVvalue
p2089
VfW7zWKjGMIjljwTa_K1Q
p2090
sa(dp2091
Vname
p2092
Vzx
p2093
sVvalue
p2094
V1492348545498
p2095
sasVheaders
p2096
(lp2097
sVheadersSize
p2098
I657
sVbodySize
p2099
I0
sVmethod
p2100
VGET
p2101
sVhttpVersion
p2102
VHTTP/1.1
p2103
ssVtimings
p2104
(dp2105
Vcomment
p2106
g4
sVreceive
p2107
I0
sVsend
p2108
I0
sVssl
p2109
I-1
sVconnect
p2110
I-1
sVdns
p2111
I-1
sVwait
p2112
I37
sVblocked
p2113
I-1
ssVtime
p2114
I37
sVresponse
p2115
(dp2116
Vstatus
p2117
I204
sVcomment
p2118
g4
sVcookies
p2119
(lp2120
sVstatusText
p2121
VNo Content
p2122
sVcontent
p2123
(dp2124
VmimeType
p2125
Vtext/html; charset=UTF-8
p2126
sVcomment
p2127
g4
sVsize
p2128
I0
ssVheaders
p2129
(lp2130
sVheadersSize
p2131
I248
sVredirectURL
p2132
g4
sVbodySize
p2133
I0
sVhttpVersion
p2134
VHTTP/1.1
p2135
ssa(dp2136
Vcomment
p2137
g4
sVserverIPAddress
p2138
V172.217.6.4
p2139
sVpageref
p2140
VMosquito
p2141
sVstartedDateTime
p2142
V2017-04-16T08:15:45.515-05:00
p2143
sVcache
p2144
(dp2145
sVrequest
p2146
(dp2147
Vcomment
p2148
g4
sVcookies
p2149
(lp2150
sVurl
p2151
Vhttps://www.google.com/gen_204?atyp=i&ct=&cad=&vet=10ahUKEwjo-NvFh6nTAhWI8oMKHVp-CwoQ5W0IPygG..s&ei=fW7zWKjGMIjljwTa_K1Q&zx=1492348545433
p2152
sVqueryString
p2153
(lp2154
(dp2155
Vname
p2156
Vatyp
p2157
sVvalue
p2158
g30
sa(dp2159
Vname
p2160
Vct
p2161
sVvalue
p2162
g4
sa(dp2163
Vname
p2164
Vcad
p2165
sVvalue
p2166
g4
sa(dp2167
Vname
p2168
Vvet
p2169
sVvalue
p2170
V10ahUKEwjo-NvFh6nTAhWI8oMKHVp-CwoQ5W0IPygG..s
p2171
sa(dp2172
Vname
p2173
Vei
p2174
sVvalue
p2175
VfW7zWKjGMIjljwTa_K1Q
p2176
sa(dp2177
Vname
p2178
Vzx
p2179
sVvalue
p2180
V1492348545433
p2181
sasVheaders
p2182
(lp2183
sVheadersSize
p2184
I654
sVbodySize
p2185
I0
sVmethod
p2186
VGET
p2187
sVhttpVersion
p2188
VHTTP/1.1
p2189
ssVtimings
p2190
(dp2191
Vcomment
p2192
g4
sVreceive
p2193
I0
sVsend
p2194
I0
sVssl
p2195
I39
sVconnect
p2196
I71
sVdns
p2197
I0
sVwait
p2198
I30
sVblocked
p2199
I0
ssVtime
p2200
I101
sVresponse
p2201
(dp2202
Vstatus
p2203
I204
sVcomment
p2204
g4
sVcookies
p2205
(lp2206
sVstatusText
p2207
VNo Content
p2208
sVcontent
p2209
(dp2210
VmimeType
p2211
Vtext/html; charset=UTF-8
p2212
sVcomment
p2213
g4
sVsize
p2214
I0
ssVheaders
p2215
(lp2216
sVheadersSize
p2217
I248
sVredirectURL
p2218
g4
sVbodySize
p2219
I0
sVhttpVersion
p2220
VHTTP/1.1
p2221
ssa(dp2222
Vcomment
p2223
g4
sVserverIPAddress
p2224
V172.217.6.4
p2225
sVpageref
p2226
VMosquito
p2227
sVstartedDateTime
p2228
V2017-04-16T08:15:45.516-05:00
p2229
sVcache
p2230
(dp2231
sVrequest
p2232
(dp2233
Vcomment
p2234
g4
sVcookies
p2235
(lp2236
sVurl
p2237
Vhttps://www.google.com/gen_204?atyp=i&ct=&cad=&vet=10ahUKEwjo-NvFh6nTAhWI8oMKHVp-CwoQlpQBCHkoCDAU..s&ei=fW7zWKjGMIjljwTa_K1Q&zx=1492348545500
p2238
sVqueryString
p2239
(lp2240
(dp2241
Vname
p2242
Vatyp
p2243
sVvalue
p2244
g30
sa(dp2245
Vname
p2246
Vct
p2247
sVvalue
p2248
g4
sa(dp2249
Vname
p2250
Vcad
p2251
sVvalue
p2252
g4
sa(dp2253
Vname
p2254
Vvet
p2255
sVvalue
p2256
V10ahUKEwjo-NvFh6nTAhWI8oMKHVp-CwoQlpQBCHkoCDAU..s
p2257
sa(dp2258
Vname
p2259
Vei
p2260
sVvalue
p2261
VfW7zWKjGMIjljwTa_K1Q
p2262
sa(dp2263
Vname
p2264
Vzx
p2265
sVvalue
p2266
V1492348545500
p2267
sasVheaders
p2268
(lp2269
sVheadersSize
p2270
I658
sVbodySize
p2271
I0
sVmethod
p2272
VGET
p2273
sVhttpVersion
p2274
VHTTP/1.1
p2275
ssVtimings
p2276
(dp2277
Vcomment
p2278
g4
sVreceive
p2279
I0
sVsend
p2280
I0
sVssl
p2281
I-1
sVconnect
p2282
I-1
sVdns
p2283
I-1
sVwait
p2284
I31
sVblocked
p2285
I-1
ssVtime
p2286
I31
sVresponse
p2287
(dp2288
Vstatus
p2289
I204
sVcomment
p2290
g4
sVcookies
p2291
(lp2292
sVstatusText
p2293
VNo Content
p2294
sVcontent
p2295
(dp2296
VmimeType
p2297
Vtext/html; charset=UTF-8
p2298
sVcomment
p2299
g4
sVsize
p2300
I0
ssVheaders
p2301
(lp2302
sVheadersSize
p2303
I248
sVredirectURL
p2304
g4
sVbodySize
p2305
I0
sVhttpVersion
p2306
VHTTP/1.1
p2307
ssa(dp2308
Vcomment
p2309
g4
sVserverIPAddress
p2310
V172.217.6.4
p2311
sVpageref
p2312
VMosquito
p2313
sVstartedDateTime
p2314
V2017-04-16T08:15:45.518-05:00
p2315
sVcache
p2316
(dp2317
sVrequest
p2318
(dp2319
Vcomment
p2320
g4
sVcookies
p2321
(lp2322
sVurl
p2323
Vhttps://www.google.com/gen_204?atyp=i&ct=&cad=&vet=10ahUKEwjo-NvFh6nTAhWI8oMKHVp-CwoQ5W0IQigH..s&ei=fW7zWKjGMIjljwTa_K1Q&zx=1492348545438
p2324
sVqueryString
p2325
(lp2326
(dp2327
Vname
p2328
Vatyp
p2329
sVvalue
p2330
g30
sa(dp2331
Vname
p2332
Vct
p2333
sVvalue
p2334
g4
sa(dp2335
Vname
p2336
Vcad
p2337
sVvalue
p2338
g4
sa(dp2339
Vname
p2340
Vvet
p2341
sVvalue
p2342
V10ahUKEwjo-NvFh6nTAhWI8oMKHVp-CwoQ5W0IQigH..s
p2343
sa(dp2344
Vname
p2345
Vei
p2346
sVvalue
p2347
VfW7zWKjGMIjljwTa_K1Q
p2348
sa(dp2349
Vname
p2350
Vzx
p2351
sVvalue
p2352
V1492348545438
p2353
sasVheaders
p2354
(lp2355
sVheadersSize
p2356
I654
sVbodySize
p2357
I0
sVmethod
p2358
VGET
p2359
sVhttpVersion
p2360
VHTTP/1.1
p2361
ssVtimings
p2362
(dp2363
Vcomment
p2364
g4
sVreceive
p2365
I0
sVsend
p2366
I0
sVssl
p2367
I42
sVconnect
p2368
I69
sVdns
p2369
I0
sVwait
p2370
I28
sVblocked
p2371
I0
ssVtime
p2372
I98
sVresponse
p2373
(dp2374
Vstatus
p2375
I204
sVcomment
p2376
g4
sVcookies
p2377
(lp2378
sVstatusText
p2379
VNo Content
p2380
sVcontent
p2381
(dp2382
VmimeType
p2383
Vtext/html; charset=UTF-8
p2384
sVcomment
p2385
g4
sVsize
p2386
I0
ssVheaders
p2387
(lp2388
sVheadersSize
p2389
I248
sVredirectURL
p2390
g4
sVbodySize
p2391
I0
sVhttpVersion
p2392
VHTTP/1.1
p2393
ssa(dp2394
Vcomment
p2395
g4
sVserverIPAddress
p2396
V172.217.6.4
p2397
sVpageref
p2398
VMosquito
p2399
sVstartedDateTime
p2400
V2017-04-16T08:15:45.639-05:00
p2401
sVcache
p2402
(dp2403
sVrequest
p2404
(dp2405
Vcomment
p2406
g4
sVcookies
p2407
(lp2408
sVurl
p2409
Vhttps://www.google.com/async/ampfp?vet=10ahUKEwjo-NvFh6nTAhWI8oMKHVp-CwoQtZoBCLoC..i&ei=fW7zWKjGMIjljwTa_K1Q&yv=2&async=_id:ampfp-async,_pms:qs
p2410
sVqueryString
p2411
(lp2412
(dp2413
Vname
p2414
Vvet
p2415
sVvalue
p2416
V10ahUKEwjo-NvFh6nTAhWI8oMKHVp-CwoQtZoBCLoC..i
p2417
sa(dp2418
Vname
p2419
Vei
p2420
sVvalue
p2421
VfW7zWKjGMIjljwTa_K1Q
p2422
sa(dp2423
Vname
p2424
Vyv
p2425
sVvalue
p2426
g64
sa(dp2427
Vname
p2428
Vasync
p2429
sVvalue
p2430
V_id:ampfp-async,_pms:qs
p2431
sasVheaders
p2432
(lp2433
sVheadersSize
p2434
I660
sVbodySize
p2435
I0
sVmethod
p2436
VGET
p2437
sVhttpVersion
p2438
VHTTP/1.1
p2439
ssVtimings
p2440
(dp2441
Vcomment
p2442
g4
sVreceive
p2443
I0
sVsend
p2444
I0
sVssl
p2445
I-1
sVconnect
p2446
I-1
sVdns
p2447
I-1
sVwait
p2448
I48
sVblocked
p2449
I-1
ssVtime
p2450
I48
sVresponse
p2451
(dp2452
Vstatus
p2453
I200
sVcomment
p2454
g4
sVcookies
p2455
(lp2456
sVstatusText
p2457
VOK
p2458
sVcontent
p2459
(dp2460
VmimeType
p2461
Vtext/html; charset=UTF-8
p2462
sVcomment
p2463
g4
sVsize
p2464
I0
ssVheaders
p2465
(lp2466
sVheadersSize
p2467
I383
sVredirectURL
p2468
g4
sVbodySize
p2469
I4526
sVhttpVersion
p2470
VHTTP/1.1
p2471
ssa(dp2472
Vcomment
p2473
g4
sVserverIPAddress
p2474
V216.58.216.193
p2475
sVpageref
p2476
VMosquito
p2477
sVstartedDateTime
p2478
V2017-04-16T08:15:45.640-05:00
p2479
sVcache
p2480
(dp2481
sVrequest
p2482
(dp2483
Vcomment
p2484
g4
sVcookies
p2485
(lp2486
sVurl
p2487
Vhttps://cdn.ampproject.org/preconnect.gif?0.9303995608752299
p2488
sVqueryString
p2489
(lp2490
(dp2491
Vname
p2492
V0.9303995608752299
p2493
sVvalue
p2494
g4
sasVheaders
p2495
(lp2496
sVheadersSize
p2497
I375
sVbodySize
p2498
I0
sVmethod
p2499
VGET
p2500
sVhttpVersion
p2501
VHTTP/1.1
p2502
ssVtimings
p2503
(dp2504
Vcomment
p2505
g4
sVreceive
p2506
I0
sVsend
p2507
I0
sVssl
p2508
I-1
sVconnect
p2509
I-1
sVdns
p2510
I-1
sVwait
p2511
I29
sVblocked
p2512
I-1
ssVtime
p2513
I29
sVresponse
p2514
(dp2515
Vstatus
p2516
I200
sVcomment
p2517
g4
sVcookies
p2518
(lp2519
sVstatusText
p2520
VOK
p2521
sVcontent
p2522
(dp2523
VmimeType
p2524
Vimage/gif
p2525
sVcomment
p2526
g4
sVsize
p2527
I0
ssVheaders
p2528
(lp2529
sVheadersSize
p2530
I826
sVredirectURL
p2531
g4
sVbodySize
p2532
I37
sVhttpVersion
p2533
VHTTP/1.1
p2534
ssa(dp2535
Vcomment
p2536
g4
sVserverIPAddress
p2537
V216.58.217.14
p2538
sVpageref
p2539
VMosquito
p2540
sVstartedDateTime
p2541
V2017-04-16T08:15:45.664-05:00
p2542
sVcache
p2543
(dp2544
sVrequest
p2545
(dp2546
Vcomment
p2547
g4
sVcookies
p2548
(lp2549
sVurl
p2550
Vhttps://encrypted-tbn3.gstatic.com/images?q=tbn:ANd9GcSBVeGB6vc_Tt8bk7JMCcFD2XR2ILh7112Q4XrnMMAbdvijJlCgtnVaIRYgtg
p2551
sVqueryString
p2552
(lp2553
(dp2554
Vname
p2555
g415
sVvalue
p2556
Vtbn:ANd9GcSBVeGB6vc_Tt8bk7JMCcFD2XR2ILh7112Q4XrnMMAbdvijJlCgtnVaIRYgtg
p2557
sasVheaders
p2558
(lp2559
sVheadersSize
p2560
I429
sVbodySize
p2561
I0
sVmethod
p2562
VGET
p2563
sVhttpVersion
p2564
VHTTP/1.1
p2565
ssVtimings
p2566
(dp2567
Vcomment
p2568
g4
sVreceive
p2569
I0
sVsend
p2570
I0
sVssl
p2571
I-1
sVconnect
p2572
I-1
sVdns
p2573
I-1
sVwait
p2574
I37
sVblocked
p2575
I-1
ssVtime
p2576
I38
sVresponse
p2577
(dp2578
Vstatus
p2579
I200
sVcomment
p2580
g4
sVcookies
p2581
(lp2582
sVstatusText
p2583
VOK
p2584
sVcontent
p2585
(dp2586
VmimeType
p2587
Vimage/jpeg
p2588
sVcomment
p2589
g4
sVsize
p2590
I0
ssVheaders
p2591
(lp2592
sVheadersSize
p2593
I428
sVredirectURL
p2594
g4
sVbodySize
p2595
I4413
sVhttpVersion
p2596
VHTTP/1.1
p2597
ssa(dp2598
Vcomment
p2599
g4
sVserverIPAddress
p2600
V216.58.216.206
p2601
sVpageref
p2602
VMosquito
p2603
sVstartedDateTime
p2604
V2017-04-16T08:15:45.665-05:00
p2605
sVcache
p2606
(dp2607
sVrequest
p2608
(dp2609
Vcomment
p2610
g4
sVcookies
p2611
(lp2612
sVurl
p2613
Vhttps://encrypted-tbn1.gstatic.com/images?q=tbn:ANd9GcR-VGavLtFr3OpWh3X8afhzPOa_Ay4j97OxwgdS7w-KUE2P4WwKo0Af63q5vg
p2614
sVqueryString
p2615
(lp2616
(dp2617
Vname
p2618
g415
sVvalue
p2619
Vtbn:ANd9GcR-VGavLtFr3OpWh3X8afhzPOa_Ay4j97OxwgdS7w-KUE2P4WwKo0Af63q5vg
p2620
sasVheaders
p2621
(lp2622
sVheadersSize
p2623
I429
sVbodySize
p2624
I0
sVmethod
p2625
VGET
p2626
sVhttpVersion
p2627
VHTTP/1.1
p2628
ssVtimings
p2629
(dp2630
Vcomment
p2631
g4
sVreceive
p2632
I0
sVsend
p2633
I0
sVssl
p2634
I-1
sVconnect
p2635
I-1
sVdns
p2636
I-1
sVwait
p2637
I38
sVblocked
p2638
I-1
ssVtime
p2639
I39
sVresponse
p2640
(dp2641
Vstatus
p2642
I200
sVcomment
p2643
g4
sVcookies
p2644
(lp2645
sVstatusText
p2646
VOK
p2647
sVcontent
p2648
(dp2649
VmimeType
p2650
Vimage/jpeg
p2651
sVcomment
p2652
g4
sVsize
p2653
I0
ssVheaders
p2654
(lp2655
sVheadersSize
p2656
I428
sVredirectURL
p2657
g4
sVbodySize
p2658
I5952
sVhttpVersion
p2659
VHTTP/1.1
p2660
ssa(dp2661
Vcomment
p2662
g4
sVserverIPAddress
p2663
V216.58.216.206
p2664
sVpageref
p2665
VMosquito
p2666
sVstartedDateTime
p2667
V2017-04-16T08:15:45.668-05:00
p2668
sVcache
p2669
(dp2670
sVrequest
p2671
(dp2672
Vcomment
p2673
g4
sVcookies
p2674
(lp2675
sVurl
p2676
Vhttps://encrypted-tbn2.gstatic.com/images?q=tbn:ANd9GcRGNDD18YMZW02BmrSnlF8jMuZRphSwJmQu0KW5Nm9K-6HQ6mr4AShCJer1
p2677
sVqueryString
p2678
(lp2679
(dp2680
Vname
p2681
g415
sVvalue
p2682
Vtbn:ANd9GcRGNDD18YMZW02BmrSnlF8jMuZRphSwJmQu0KW5Nm9K-6HQ6mr4AShCJer1
p2683
sasVheaders
p2684
(lp2685
sVheadersSize
p2686
I427
sVbodySize
p2687
I0
sVmethod
p2688
VGET
p2689
sVhttpVersion
p2690
VHTTP/1.1
p2691
ssVtimings
p2692
(dp2693
Vcomment
p2694
g4
sVreceive
p2695
I1
sVsend
p2696
I0
sVssl
p2697
I-1
sVconnect
p2698
I-1
sVdns
p2699
I-1
sVwait
p2700
I36
sVblocked
p2701
I-1
ssVtime
p2702
I37
sVresponse
p2703
(dp2704
Vstatus
p2705
I200
sVcomment
p2706
g4
sVcookies
p2707
(lp2708
sVstatusText
p2709
VOK
p2710
sVcontent
p2711
(dp2712
VmimeType
p2713
Vimage/jpeg
p2714
sVcomment
p2715
g4
sVsize
p2716
I0
ssVheaders
p2717
(lp2718
sVheadersSize
p2719
I428
sVredirectURL
p2720
g4
sVbodySize
p2721
I7181
sVhttpVersion
p2722
VHTTP/1.1
p2723
ssa(dp2724
Vcomment
p2725
g4
sVserverIPAddress
p2726
V172.217.6.4
p2727
sVpageref
p2728
VMosquito
p2729
sVstartedDateTime
p2730
V2017-04-16T08:15:45.780-05:00
p2731
sVcache
p2732
(dp2733
sVrequest
p2734
(dp2735
Vcomment
p2736
g4
sVcookies
p2737
(lp2738
sVurl
p2739
Vhttps://www.google.com/xjs/_/js/k=xjs.qs.en_US.pCBXVCvTH3s.O/m=idg,syfu,ish,ivw,sya8,sya6,sya7,sya9,amp,sp/am=gCP4LtMEBXQA2RUaq_oFBISzAFA/rt=j/d=0/t=zcms/rs=ACT90oFwm4NZCwIcuuiqmthdlECdBzkhRA
p2740
sVqueryString
p2741
(lp2742
sVheaders
p2743
(lp2744
sVheadersSize
p2745
I708
sVbodySize
p2746
I0
sVmethod
p2747
VGET
p2748
sVhttpVersion
p2749
VHTTP/1.1
p2750
ssVtimings
p2751
(dp2752
Vcomment
p2753
g4
sVreceive
p2754
I2
sVsend
p2755
I0
sVssl
p2756
I-1
sVconnect
p2757
I-1
sVdns
p2758
I-1
sVwait
p2759
I20
sVblocked
p2760
I-1
ssVtime
p2761
I22
sVresponse
p2762
(dp2763
Vstatus
p2764
I200
sVcomment
p2765
g4
sVcookies
p2766
(lp2767
sVstatusText
p2768
VOK
p2769
sVcontent
p2770
(dp2771
VmimeType
p2772
Vtext/javascript; charset=UTF-8
p2773
sVcomment
p2774
g4
sVsize
p2775
I0
ssVheaders
p2776
(lp2777
sVheadersSize
p2778
I464
sVredirectURL
p2779
g4
sVbodySize
p2780
I24619
sVhttpVersion
p2781
VHTTP/1.1
p2782
ssa(dp2783
Vcomment
p2784
g4
sVserverIPAddress
p2785
V172.217.6.4
p2786
sVpageref
p2787
VMosquito
p2788
sVstartedDateTime
p2789
V2017-04-16T08:15:45.962-05:00
p2790
sVcache
p2791
(dp2792
sVrequest
p2793
(dp2794
Vcomment
p2795
g4
sVcookies
p2796
(lp2797
sVurl
p2798
Vhttps://www.google.com/async/log_amp_item_set?vet=10ahUKEwjF6onHh6nTAhUp3IMKHYucDDkQooQBCAE..i&ei=fW7zWKjGMIjljwTa_K1Q&yv=2&async=num_items:2,_fmt:jspb
p2799
sVqueryString
p2800
(lp2801
(dp2802
Vname
p2803
Vvet
p2804
sVvalue
p2805
V10ahUKEwjF6onHh6nTAhUp3IMKHYucDDkQooQBCAE..i
p2806
sa(dp2807
Vname
p2808
Vei
p2809
sVvalue
p2810
VfW7zWKjGMIjljwTa_K1Q
p2811
sa(dp2812
Vname
p2813
Vyv
p2814
sVvalue
p2815
g64
sa(dp2816
Vname
p2817
Vasync
p2818
sVvalue
p2819
Vnum_items:2,_fmt:jspb
p2820
sasVheaders
p2821
(lp2822
sVheadersSize
p2823
I668
sVbodySize
p2824
I0
sVmethod
p2825
VGET
p2826
sVhttpVersion
p2827
VHTTP/1.1
p2828
ssVtimings
p2829
(dp2830
Vcomment
p2831
g4
sVreceive
p2832
I0
sVsend
p2833
I0
sVssl
p2834
I-1
sVconnect
p2835
I-1
sVdns
p2836
I-1
sVwait
p2837
I31
sVblocked
p2838
I-1
ssVtime
p2839
I32
sVresponse
p2840
(dp2841
Vstatus
p2842
I200
sVcomment
p2843
g4
sVcookies
p2844
(lp2845
sVstatusText
p2846
VOK
p2847
sVcontent
p2848
(dp2849
VmimeType
p2850
Vapplication/json; charset=UTF-8
p2851
sVcomment
p2852
g4
sVsize
p2853
I0
ssVheaders
p2854
(lp2855
sVheadersSize
p2856
I417
sVredirectURL
p2857
g4
sVbodySize
p2858
I140
sVhttpVersion
p2859
VHTTP/1.1
p2860
ssa(dp2861
Vcomment
p2862
g4
sVserverIPAddress
p2863
V216.58.216.206
p2864
sVpageref
p2865
VMosquito
p2866
sVstartedDateTime
p2867
V2017-04-16T08:15:45.978-05:00
p2868
sVcache
p2869
(dp2870
sVrequest
p2871
(dp2872
Vcomment
p2873
g4
sVcookies
p2874
(lp2875
sVurl
p2876
Vhttps://encrypted-tbn1.gstatic.com/images?q=tbn:ANd9GcTd8OqRGD36gXMrTj7XPH7jof8mHM9XgkGWNktPSfQ8lbs--OA_7wvKXax3zLC5z4OAViw
p2877
sVqueryString
p2878
(lp2879
(dp2880
Vname
p2881
g415
sVvalue
p2882
Vtbn:ANd9GcTd8OqRGD36gXMrTj7XPH7jof8mHM9XgkGWNktPSfQ8lbs--OA_7wvKXax3zLC5z4OAViw
p2883
sasVheaders
p2884
(lp2885
sVheadersSize
p2886
I438
sVbodySize
p2887
I0
sVmethod
p2888
VGET
p2889
sVhttpVersion
p2890
VHTTP/1.1
p2891
ssVtimings
p2892
(dp2893
Vcomment
p2894
g4
sVreceive
p2895
I0
sVsend
p2896
I0
sVssl
p2897
I24
sVconnect
p2898
I45
sVdns
p2899
I438
sVwait
p2900
I25
sVblocked
p2901
I0
ssVtime
p2902
I509
sVresponse
p2903
(dp2904
Vstatus
p2905
I200
sVcomment
p2906
g4
sVcookies
p2907
(lp2908
sVstatusText
p2909
VOK
p2910
sVcontent
p2911
(dp2912
VmimeType
p2913
Vimage/jpeg
p2914
sVcomment
p2915
g4
sVsize
p2916
I0
ssVheaders
p2917
(lp2918
sVheadersSize
p2919
I429
sVredirectURL
p2920
g4
sVbodySize
p2921
I2638
sVhttpVersion
p2922
VHTTP/1.1
p2923
ssa(dp2924
Vcomment
p2925
g4
sVserverIPAddress
p2926
V172.217.6.4
p2927
sVpageref
p2928
VMosquito
p2929
sVstartedDateTime
p2930
V2017-04-16T08:15:46.143-05:00
p2931
sVcache
p2932
(dp2933
sVrequest
p2934
(dp2935
Vcomment
p2936
g4
sVcookies
p2937
(lp2938
sVurl
p2939
Vhttps://www.google.com/gen_204?s=web&atyp=csi&ei=fW7zWKjGMIjljwTa_K1Q&imc=53&imn=53&imp=36&adh=&xjs=init.65.15.sb_mob.47.dvl.5.jsa.3.c.2.mbsf.2&ima=17&rt=prt.1256,iml.1420,xjsls.1256,dcl.1433,xjses.1587,xjsee.1881,xjs.1882,qiml.2950,ol.3238,aft.1275,wsrt.109,cst.0,dnst.0,rqst.1309,rspt.1217,rqstt.5,unt.5,cstt.5,dit.1447
p2940
sVqueryString
p2941
(lp2942
(dp2943
Vname
p2944
g57
sVvalue
p2945
Vweb
p2946
sa(dp2947
Vname
p2948
Vatyp
p2949
sVvalue
p2950
Vcsi
p2951
sa(dp2952
Vname
p2953
Vei
p2954
sVvalue
p2955
VfW7zWKjGMIjljwTa_K1Q
p2956
sa(dp2957
Vname
p2958
Vimc
p2959
sVvalue
p2960
V53
p2961
sa(dp2962
Vname
p2963
Vimn
p2964
sVvalue
p2965
V53
p2966
sa(dp2967
Vname
p2968
Vimp
p2969
sVvalue
p2970
V36
p2971
sa(dp2972
Vname
p2973
Vadh
p2974
sVvalue
p2975
g4
sa(dp2976
Vname
p2977
Vxjs
p2978
sVvalue
p2979
Vinit.65.15.sb_mob.47.dvl.5.jsa.3.c.2.mbsf.2
p2980
sa(dp2981
Vname
p2982
Vima
p2983
sVvalue
p2984
V17
p2985
sa(dp2986
Vname
p2987
Vrt
p2988
sVvalue
p2989
Vprt.1256,iml.1420,xjsls.1256,dcl.1433,xjses.1587,xjsee.1881,xjs.1882,qiml.2950,ol.3238,aft.1275,wsrt.109,cst.0,dnst.0,rqst.1309,rspt.1217,rqstt.5,unt.5,cstt.5,dit.1447
p2990
sasVheaders
p2991
(lp2992
sVheadersSize
p2993
I838
sVbodySize
p2994
I0
sVmethod
p2995
VGET
p2996
sVhttpVersion
p2997
VHTTP/1.1
p2998
ssVtimings
p2999
(dp3000
Vcomment
p3001
g4
sVreceive
p3002
I0
sVsend
p3003
I0
sVssl
p3004
I-1
sVconnect
p3005
I-1
sVdns
p3006
I-1
sVwait
p3007
I29
sVblocked
p3008
I-1
ssVtime
p3009
I30
sVresponse
p3010
(dp3011
Vstatus
p3012
I204
sVcomment
p3013
g4
sVcookies
p3014
(lp3015
sVstatusText
p3016
VNo Content
p3017
sVcontent
p3018
(dp3019
VmimeType
p3020
Vtext/html; charset=UTF-8
p3021
sVcomment
p3022
g4
sVsize
p3023
I0
ssVheaders
p3024
(lp3025
sVheadersSize
p3026
I248
sVredirectURL
p3027
g4
sVbodySize
p3028
I0
sVhttpVersion
p3029
VHTTP/1.1
p3030
ssa(dp3031
Vcomment
p3032
g4
sVserverIPAddress
p3033
V172.217.6.4
p3034
sVpageref
p3035
VMosquito
p3036
sVstartedDateTime
p3037
V2017-04-16T08:15:47.584-05:00
p3038
sVcache
p3039
(dp3040
sVrequest
p3041
(dp3042
Vcomment
p3043
g4
sVcookies
p3044
(lp3045
sVurl
p3046
Vhttps://www.google.com/gen_204?atyp=i&ct=slh&cad=&ei=cm7zWIviKKGvjwSr741w&m=V&t=C&s=1&v=2&pv=0.45089867471437883&me=1:1492348533670,x:2,V,0,0,1280,944:0,N,1,cm7zWIviKKGvjwSr741w:0,R,1,24,8,155,1249,947:0,R,1,25,8,155,1249,947:0,R,1,28,8,168,1249,40:0,R,1,41,8,219,1249,178:0,R,1,44,0,235,1265,197:0,R,1,84,8,414,1249,20:0,R,1,85,24,414,1217,20:0,R,1,88,8,450,1249,20:0,R,1,109,8,490,1249,310:0,R,1,110,0,535,1265,285:0,R,1,142,8,845,1249,184:0,R,1,143,0,845,1265,204:2,B,3224:8281,e,U&zx=1492348547583
p3047
sVqueryString
p3048
(lp3049
(dp3050
Vname
p3051
Vatyp
p3052
sVvalue
p3053
g30
sa(dp3054
Vname
p3055
Vct
p3056
sVvalue
p3057
Vslh
p3058
sa(dp3059
Vname
p3060
Vcad
p3061
sVvalue
p3062
g4
sa(dp3063
Vname
p3064
Vei
p3065
sVvalue
p3066
Vcm7zWIviKKGvjwSr741w
p3067
sa(dp3068
Vname
p3069
g47
sVvalue
p3070
g49
sa(dp3071
Vname
p3072
g52
sVvalue
p3073
g54
sa(dp3074
Vname
p3075
g57
sVvalue
p3076
g59
sa(dp3077
Vname
p3078
g62
sVvalue
p3079
g64
sa(dp3080
Vname
p3081
Vpv
p3082
sVvalue
p3083
V0.45089867471437883
p3084
sa(dp3085
Vname
p3086
Vme
p3087
sVvalue
p3088
V1:1492348533670,x:2,V,0,0,1280,944:0,N,1,cm7zWIviKKGvjwSr741w:0,R,1,24,8,155,1249,947:0,R,1,25,8,155,1249,947:0,R,1,28,8,168,1249,40:0,R,1,41,8,219,1249,178:0,R,1,44,0,235,1265,197:0,R,1,84,8,414,1249,20:0,R,1,85,24,414,1217,20:0,R,1,88,8,450,1249,20:0,R,1,109,8,490,1249,310:0,R,1,110,0,535,1265,285:0,R,1,142,8,845,1249,184:0,R,1,143,0,845,1265,204:2,B,3224:8281,e,U
p3089
sa(dp3090
Vname
p3091
Vzx
p3092
sVvalue
p3093
V1492348547583
p3094
sasVheaders
p3095
(lp3096
sVheadersSize
p3097
I1018
sVbodySize
p3098
I0
sVmethod
p3099
VGET
p3100
sVhttpVersion
p3101
VHTTP/1.1
p3102
ssVtimings
p3103
(dp3104
Vcomment
p3105
g4
sVreceive
p3106
I0
sVsend
p3107
I0
sVssl
p3108
I-1
sVconnect
p3109
I-1
sVdns
p3110
I-1
sVwait
p3111
I54
sVblocked
p3112
I-1
ssVtime
p3113
I54
sVresponse
p3114
(dp3115
Vstatus
p3116
I204
sVcomment
p3117
g4
sVcookies
p3118
(lp3119
sVstatusText
p3120
VNo Content
p3121
sVcontent
p3122
(dp3123
VmimeType
p3124
Vtext/html; charset=UTF-8
p3125
sVcomment
p3126
g4
sVsize
p3127
I0
ssVheaders
p3128
(lp3129
sVheadersSize
p3130
I248
sVredirectURL
p3131
g4
sVbodySize
p3132
I0
sVhttpVersion
p3133
VHTTP/1.1
p3134
ssasVversion
p3135
V1.2
p3136
sVpages
p3137
(lp3138
(dp3139
VpageTimings
p3140
(dp3141
Vcomment
p3142
g4
ssVcomment
p3143
g4
sVtitle
p3144
VMosquito
p3145
sVid
p3146
VMosquito
p3147
sVstartedDateTime
p3148
V2017-04-16T08:15:41.949-05:00
p3149
sasVcreator
p3150
(dp3151
Vcomment
p3152
g4
sVversion
p3153
V2.1.4
p3154
sVname
p3155
VBrowserMob Proxy
p3156
sss.