(dp0
Vlog
p1
(dp2
Vcomment
p3
V
p4
sVentries
p5
(lp6
(dp7
Vcomment
p8
g4
sVserverIPAddress
p9
V172.217.6.4
p10
sVpageref
p11
VDevin Booker
p12
sVstartedDateTime
p13
V2017-04-16T08:29:39.790-05:00
p14
sVcache
p15
(dp16
sVrequest
p17
(dp18
Vcomment
p19
g4
sVcookies
p20
(lp21
sVurl
p22
Vhttps://www.google.com/gen_204?atyp=i&ct=slh&cad=&ei=q3HzWMbvD-LTjwTB4KfICA&m=V&t=C&s=1&v=2&pv=0.3112079168787465&me=1:1492349358460,x:1,V,0,0,1280,944:0,N,1,q3HzWMbvD-LTjwTB4KfICA:0,R,1,24,8,155,1249,445:0,R,1,28,8,268,1249,332:0,R,1,29,0,269,1265,351:0,R,1,60,8,610,1249,647:0,R,1,61,8,610,1249,647:0,R,1,64,8,623,1249,40:0,R,1,77,8,675,1249,178:0,R,1,80,0,691,1265,197:0,R,1,120,8,870,1249,20:0,R,1,121,24,870,1217,20:0,R,1,127,8,906,1249,20:0,R,1,136,8,934,1249,20:2,B,3782:21325,e,U&zx=1492349379789
p23
sVqueryString
p24
(lp25
(dp26
Vname
p27
Vatyp
p28
sVvalue
p29
Vi
p30
sa(dp31
Vname
p32
Vct
p33
sVvalue
p34
Vslh
p35
sa(dp36
Vname
p37
Vcad
p38
sVvalue
p39
g4
sa(dp40
Vname
p41
Vei
p42
sVvalue
p43
Vq3HzWMbvD-LTjwTB4KfICA
p44
sa(dp45
Vname
p46
Vm
p47
sVvalue
p48
VV
p49
sa(dp50
Vname
p51
Vt
p52
sVvalue
p53
VC
p54
sa(dp55
Vname
p56
Vs
p57
sVvalue
p58
V1
p59
sa(dp60
Vname
p61
Vv
p62
sVvalue
p63
V2
p64
sa(dp65
Vname
p66
Vpv
p67
sVvalue
p68
V0.3112079168787465
p69
sa(dp70
Vname
p71
Vme
p72
sVvalue
p73
V1:1492349358460,x:1,V,0,0,1280,944:0,N,1,q3HzWMbvD-LTjwTB4KfICA:0,R,1,24,8,155,1249,445:0,R,1,28,8,268,1249,332:0,R,1,29,0,269,1265,351:0,R,1,60,8,610,1249,647:0,R,1,61,8,610,1249,647:0,R,1,64,8,623,1249,40:0,R,1,77,8,675,1249,178:0,R,1,80,0,691,1265,197:0,R,1,120,8,870,1249,20:0,R,1,121,24,870,1217,20:0,R,1,127,8,906,1249,20:0,R,1,136,8,934,1249,20:2,B,3782:21325,e,U
p74
sa(dp75
Vname
p76
Vzx
p77
sVvalue
p78
V1492349379789
p79
sasVheaders
p80
(lp81
sVheadersSize
p82
I1021
sVbodySize
p83
I0
sVmethod
p84
VGET
p85
sVhttpVersion
p86
VHTTP/1.1
p87
ssVtimings
p88
(dp89
Vcomment
p90
g4
sVreceive
p91
I0
sVsend
p92
I0
sVssl
p93
I-1
sVconnect
p94
I-1
sVdns
p95
I-1
sVwait
p96
I0
sVblocked
p97
I-1
ssVtime
p98
I0
sVresponse
p99
(dp100
Vstatus
p101
I0
sVcomment
p102
g4
sVcookies
p103
(lp104
sV_error
p105
VNo response received
p106
sVstatusText
p107
g4
sVcontent
p108
(dp109
VmimeType
p110
g4
sVcomment
p111
g4
sVsize
p112
I0
ssVheaders
p113
(lp114
sVheadersSize
p115
I-1
sVredirectURL
p116
g4
sVbodySize
p117
I-1
sVhttpVersion
p118
Vunknown
p119
ssa(dp120
Vcomment
p121
g4
sVserverIPAddress
p122
V172.217.6.4
p123
sVpageref
p124
VDevin Booker
p125
sVstartedDateTime
p126
V2017-04-16T08:29:39.792-05:00
p127
sVcache
p128
(dp129
sVrequest
p130
(dp131
Vcomment
p132
g4
sVcookies
p133
(lp134
sVurl
p135
Vhttps://www.google.com/gen_204?atyp=i&ct=slh&cad=&ei=iXHzWNK2MYmcjwTlprX4Bw&m=V&t=C&s=1&v=2&pv=0.26723701262739796&me=1:1492349325116,x:3,V,0,0,1280,944:0,N,1,iXHzWNK2MYmcjwTlprX4Bw:0,R,1,24,8,155,1249,647:0,R,1,25,8,155,1249,647:0,R,1,28,8,168,1249,40:0,R,1,41,8,220,1249,178:0,R,1,44,0,236,1265,197:0,R,1,84,8,415,1249,20:0,R,1,85,24,415,1217,20:0,R,1,93,8,451,1249,20:0,R,1,96,8,479,1249,20:0,R,1,145,24,812,1217,115:6,B,3405:17314,e,U&zx=1492349379790
p136
sVqueryString
p137
(lp138
(dp139
Vname
p140
Vatyp
p141
sVvalue
p142
g30
sa(dp143
Vname
p144
Vct
p145
sVvalue
p146
Vslh
p147
sa(dp148
Vname
p149
Vcad
p150
sVvalue
p151
g4
sa(dp152
Vname
p153
Vei
p154
sVvalue
p155
ViXHzWNK2MYmcjwTlprX4Bw
p156
sa(dp157
Vname
p158
g47
sVvalue
p159
g49
sa(dp160
Vname
p161
g52
sVvalue
p162
g54
sa(dp163
Vname
p164
g57
sVvalue
p165
g59
sa(dp166
Vname
p167
g62
sVvalue
p168
g64
sa(dp169
Vname
p170
Vpv
p171
sVvalue
p172
V0.26723701262739796
p173
sa(dp174
Vname
p175
Vme
p176
sVvalue
p177
V1:1492349325116,x:3,V,0,0,1280,944:0,N,1,iXHzWNK2MYmcjwTlprX4Bw:0,R,1,24,8,155,1249,647:0,R,1,25,8,155,1249,647:0,R,1,28,8,168,1249,40:0,R,1,41,8,220,1249,178:0,R,1,44,0,236,1265,197:0,R,1,84,8,415,1249,20:0,R,1,85,24,415,1217,20:0,R,1,93,8,451,1249,20:0,R,1,96,8,479,1249,20:0,R,1,145,24,812,1217,115:6,B,3405:17314,e,U
p178
sa(dp179
Vname
p180
Vzx
p181
sVvalue
p182
V1492349379790
p183
sasVheaders
p184
(lp185
sVheadersSize
p186
I972
sVbodySize
p187
I0
sVmethod
p188
VGET
p189
sVhttpVersion
p190
VHTTP/1.1
p191
ssVtimings
p192
(dp193
Vcomment
p194
g4
sVreceive
p195
I0
sVsend
p196
I0
sVssl
p197
I-1
sVconnect
p198
I-1
sVdns
p199
I-1
sVwait
p200
I0
sVblocked
p201
I-1
ssVtime
p202
I0
sVresponse
p203
(dp204
Vstatus
p205
I0
sVcomment
p206
g4
sVcookies
p207
(lp208
sV_error
p209
VNo response received
p210
sVstatusText
p211
g4
sVcontent
p212
(dp213
VmimeType
p214
g4
sVcomment
p215
g4
sVsize
p216
I0
ssVheaders
p217
(lp218
sVheadersSize
p219
I-1
sVredirectURL
p220
g4
sVbodySize
p221
I-1
sVhttpVersion
p222
Vunknown
p223
ssa(dp224
Vcomment
p225
g4
sVserverIPAddress
p226
V172.217.6.4
p227
sVpageref
p228
VDevin Booker
p229
sVstartedDateTime
p230
V2017-04-16T08:29:39.793-05:00
p231
sVcache
p232
(dp233
sVrequest
p234
(dp235
Vcomment
p236
g4
sVcookies
p237
(lp238
sVurl
p239
Vhttps://www.google.com/gen_204?atyp=i&ct=slh&cad=&ei=nXHzWIKbPKXSjwSo65mwDg&m=V&t=C&s=1&v=2&pv=0.9959760588225225&me=1:1492349344537,x:1,V,0,0,1280,944:0,N,1,nXHzWIKbPKXSjwSo65mwDg:0,R,1,24,8,155,1249,579:0,R,1,28,8,268,1249,332:0,R,1,29,0,269,1265,351:0,R,1,60,8,600,1249,134:0,R,1,91,8,744,1249,409:0,R,1,92,8,744,1249,409:0,R,1,95,8,757,1249,40:0,R,1,108,8,809,1249,170:0,R,1,111,0,825,1265,189:2,B,3148:11100,e,U&zx=1492349379791
p240
sVqueryString
p241
(lp242
(dp243
Vname
p244
Vatyp
p245
sVvalue
p246
g30
sa(dp247
Vname
p248
Vct
p249
sVvalue
p250
Vslh
p251
sa(dp252
Vname
p253
Vcad
p254
sVvalue
p255
g4
sa(dp256
Vname
p257
Vei
p258
sVvalue
p259
VnXHzWIKbPKXSjwSo65mwDg
p260
sa(dp261
Vname
p262
g47
sVvalue
p263
g49
sa(dp264
Vname
p265
g52
sVvalue
p266
g54
sa(dp267
Vname
p268
g57
sVvalue
p269
g59
sa(dp270
Vname
p271
g62
sVvalue
p272
g64
sa(dp273
Vname
p274
Vpv
p275
sVvalue
p276
V0.9959760588225225
p277
sa(dp278
Vname
p279
Vme
p280
sVvalue
p281
V1:1492349344537,x:1,V,0,0,1280,944:0,N,1,nXHzWIKbPKXSjwSo65mwDg:0,R,1,24,8,155,1249,579:0,R,1,28,8,268,1249,332:0,R,1,29,0,269,1265,351:0,R,1,60,8,600,1249,134:0,R,1,91,8,744,1249,409:0,R,1,92,8,744,1249,409:0,R,1,95,8,757,1249,40:0,R,1,108,8,809,1249,170:0,R,1,111,0,825,1265,189:2,B,3148:11100,e,U
p282
sa(dp283
Vname
p284
Vzx
p285
sVvalue
p286
V1492349379791
p287
sasVheaders
p288
(lp289
sVheadersSize
p290
I950
sVbodySize
p291
I0
sVmethod
p292
VGET
p293
sVhttpVersion
p294
VHTTP/1.1
p295
ssVtimings
p296
(dp297
Vcomment
p298
g4
sVreceive
p299
I0
sVsend
p300
I0
sVssl
p301
I-1
sVconnect
p302
I-1
sVdns
p303
I-1
sVwait
p304
I0
sVblocked
p305
I-1
ssVtime
p306
I0
sVresponse
p307
(dp308
Vstatus
p309
I0
sVcomment
p310
g4
sVcookies
p311
(lp312
sV_error
p313
VNo response received
p314
sVstatusText
p315
g4
sVcontent
p316
(dp317
VmimeType
p318
g4
sVcomment
p319
g4
sVsize
p320
I0
ssVheaders
p321
(lp322
sVheadersSize
p323
I-1
sVredirectURL
p324
g4
sVbodySize
p325
I-1
sVhttpVersion
p326
Vunknown
p327
ssa(dp328
Vcomment
p329
g4
sVserverIPAddress
p330
V172.217.6.4
p331
sVpageref
p332
VDevin Booker
p333
sVstartedDateTime
p334
V2017-04-16T08:29:39.793-05:00
p335
sVcache
p336
(dp337
sVrequest
p338
(dp339
Vcomment
p340
g4
sVcookies
p341
(lp342
sVurl
p343
Vhttps://www.google.com/gen_204?atyp=i&ct=slh&cad=&ei=BXHzWIP8Meq-jwTI64z4DQ&m=V&t=C&s=1&v=2&pv=0.8802857241403822&me=1:1492349192964,x:2,V,0,0,1280,944:0,N,1,BXHzWIP8Meq-jwTI64z4DQ:0,R,1,24,8,155,1249,281:0,R,1,25,8,155,1249,261:0,R,1,26,8,155,1249,261:0,R,1,27,8,155,1249,110:0,R,1,42,8,446,1249,251:0,R,1,52,8,707,1249,301:0,R,1,53,8,707,1249,301:0,R,1,57,1142,707,115,107:0,R,1,66,8,741,1134,40:0,R,1,78,8,831,1249,40:0,R,1,79,24,831,1217,40:0,R,1,82,8,887,1249,20:0,R,1,84,8,915,1249,20:1,B,3492:19394,e,U&zx=1492349379791
p344
sVqueryString
p345
(lp346
(dp347
Vname
p348
Vatyp
p349
sVvalue
p350
g30
sa(dp351
Vname
p352
Vct
p353
sVvalue
p354
Vslh
p355
sa(dp356
Vname
p357
Vcad
p358
sVvalue
p359
g4
sa(dp360
Vname
p361
Vei
p362
sVvalue
p363
VBXHzWIP8Meq-jwTI64z4DQ
p364
sa(dp365
Vname
p366
g47
sVvalue
p367
g49
sa(dp368
Vname
p369
g52
sVvalue
p370
g54
sa(dp371
Vname
p372
g57
sVvalue
p373
g59
sa(dp374
Vname
p375
g62
sVvalue
p376
g64
sa(dp377
Vname
p378
Vpv
p379
sVvalue
p380
V0.8802857241403822
p381
sa(dp382
Vname
p383
Vme
p384
sVvalue
p385
V1:1492349192964,x:2,V,0,0,1280,944:0,N,1,BXHzWIP8Meq-jwTI64z4DQ:0,R,1,24,8,155,1249,281:0,R,1,25,8,155,1249,261:0,R,1,26,8,155,1249,261:0,R,1,27,8,155,1249,110:0,R,1,42,8,446,1249,251:0,R,1,52,8,707,1249,301:0,R,1,53,8,707,1249,301:0,R,1,57,1142,707,115,107:0,R,1,66,8,741,1134,40:0,R,1,78,8,831,1249,40:0,R,1,79,24,831,1217,40:0,R,1,82,8,887,1249,20:0,R,1,84,8,915,1249,20:1,B,3492:19394,e,U
p386
sa(dp387
Vname
p388
Vzx
p389
sVvalue
p390
V1492349379791
p391
sasVheaders
p392
(lp393
sVheadersSize
p394
I1043
sVbodySize
p395
I0
sVmethod
p396
VGET
p397
sVhttpVersion
p398
VHTTP/1.1
p399
ssVtimings
p400
(dp401
Vcomment
p402
g4
sVreceive
p403
I0
sVsend
p404
I0
sVssl
p405
I-1
sVconnect
p406
I-1
sVdns
p407
I-1
sVwait
p408
I0
sVblocked
p409
I-1
ssVtime
p410
I0
sVresponse
p411
(dp412
Vstatus
p413
I0
sVcomment
p414
g4
sVcookies
p415
(lp416
sV_error
p417
VNo response received
p418
sVstatusText
p419
g4
sVcontent
p420
(dp421
VmimeType
p422
g4
sVcomment
p423
g4
sVsize
p424
I0
ssVheaders
p425
(lp426
sVheadersSize
p427
I-1
sVredirectURL
p428
g4
sVbodySize
p429
I-1
sVhttpVersion
p430
Vunknown
p431
ssa(dp432
Vcomment
p433
g4
sVserverIPAddress
p434
V172.217.6.4
p435
sVpageref
p436
VDevin Booker
p437
sVstartedDateTime
p438
V2017-04-16T08:29:39.798-05:00
p439
sVcache
p440
(dp441
sVrequest
p442
(dp443
Vcomment
p444
g4
sVcookies
p445
(lp446
sVurl
p447
Vhttp://www.google.com/
p448
sVqueryString
p449
(lp450
sVheaders
p451
(lp452
sVheadersSize
p453
I613
sVbodySize
p454
I0
sVmethod
p455
VGET
p456
sVhttpVersion
p457
VHTTP/1.1
p458
ssVtimings
p459
(dp460
Vcomment
p461
g4
sVreceive
p462
I0
sVsend
p463
I0
sVssl
p464
I-1
sVconnect
p465
I-1
sVdns
p466
I-1
sVwait
p467
I36
sVblocked
p468
I-1
ssVtime
p469
I37
sVresponse
p470
(dp471
Vstatus
p472
I302
sVcomment
p473
g4
sVcookies
p474
(lp475
sVstatusText
p476
VFound
p477
sVcontent
p478
(dp479
VmimeType
p480
Vtext/html; charset=UTF-8
p481
sVcomment
p482
g4
sVsize
p483
I0
ssVheaders
p484
(lp485
sVheadersSize
p486
I609
sVredirectURL
p487
Vhttps://www.google.com/?gws_rd=ssl
p488
sVbodySize
p489
I231
sVhttpVersion
p490
VHTTP/1.1
p491
ssa(dp492
Vcomment
p493
g4
sVserverIPAddress
p494
V172.217.6.4
p495
sVpageref
p496
VDevin Booker
p497
sVstartedDateTime
p498
V2017-04-16T08:29:39.838-05:00
p499
sVcache
p500
(dp501
sVrequest
p502
(dp503
Vcomment
p504
g4
sVcookies
p505
(lp506
sVurl
p507
Vhttps://www.google.com/?gws_rd=ssl
p508
sVqueryString
p509
(lp510
(dp511
Vname
p512
Vgws_rd
p513
sVvalue
p514
Vssl
p515
sasVheaders
p516
(lp517
sVheadersSize
p518
I607
sVbodySize
p519
I0
sVmethod
p520
VGET
p521
sVhttpVersion
p522
VHTTP/1.1
p523
ssVtimings
p524
(dp525
Vcomment
p526
g4
sVreceive
p527
I50
sVsend
p528
I0
sVssl
p529
I-1
sVconnect
p530
I-1
sVdns
p531
I-1
sVwait
p532
I92
sVblocked
p533
I-1
ssVtime
p534
I142
sVresponse
p535
(dp536
Vstatus
p537
I200
sVcomment
p538
g4
sVcookies
p539
(lp540
sVstatusText
p541
VOK
p542
sVcontent
p543
(dp544
VmimeType
p545
Vtext/html; charset=UTF-8
p546
sVcomment
p547
g4
sVsize
p548
I0
ssVheaders
p549
(lp550
sVheadersSize
p551
I721
sVredirectURL
p552
g4
sVbodySize
p553
I34291
sVhttpVersion
p554
VHTTP/1.1
p555
ssa(dp556
Vcomment
p557
g4
sVserverIPAddress
p558
V172.217.6.4
p559
sVpageref
p560
VDevin Booker
p561
sVstartedDateTime
p562
V2017-04-16T08:29:40.165-05:00
p563
sVcache
p564
(dp565
sVrequest
p566
(dp567
Vcomment
p568
g4
sVcookies
p569
(lp570
sVurl
p571
Vhttps://www.google.com/gen_204?s=mobilewebhp&atyp=csi&ei=wnHzWMXUM-S_jwTZlJmIDg&imc=1&imn=1&imp=0&adh=&xjs=init.24.12.sb_mob.17.dvl.3.c.1.jsa.1.mbsf.1&ima=1&rt=xjsls.26,prt.26,iml.26,dcl.55,xjses.80,xjsee.173,xjs.174,ol.210,aft.26,wsrt.163,cst.0,dnst.0,rqst.144,rspt.51,rqstt.50,unt.48,cstt.48,dit.213
p572
sVqueryString
p573
(lp574
(dp575
Vname
p576
g57
sVvalue
p577
Vmobilewebhp
p578
sa(dp579
Vname
p580
Vatyp
p581
sVvalue
p582
Vcsi
p583
sa(dp584
Vname
p585
Vei
p586
sVvalue
p587
VwnHzWMXUM-S_jwTZlJmIDg
p588
sa(dp589
Vname
p590
Vimc
p591
sVvalue
p592
g59
sa(dp593
Vname
p594
Vimn
p595
sVvalue
p596
g59
sa(dp597
Vname
p598
Vimp
p599
sVvalue
p600
V0
p601
sa(dp602
Vname
p603
Vadh
p604
sVvalue
p605
g4
sa(dp606
Vname
p607
Vxjs
p608
sVvalue
p609
Vinit.24.12.sb_mob.17.dvl.3.c.1.jsa.1.mbsf.1
p610
sa(dp611
Vname
p612
Vima
p613
sVvalue
p614
g59
sa(dp615
Vname
p616
Vrt
p617
sVvalue
p618
Vxjsls.26,prt.26,iml.26,dcl.55,xjses.80,xjsee.173,xjs.174,ol.210,aft.26,wsrt.163,cst.0,dnst.0,rqst.144,rspt.51,rqstt.50,unt.48,cstt.48,dit.213
p619
sasVheaders
p620
(lp621
sVheadersSize
p622
I829
sVbodySize
p623
I0
sVmethod
p624
VGET
p625
sVhttpVersion
p626
VHTTP/1.1
p627
ssVtimings
p628
(dp629
Vcomment
p630
g4
sVreceive
p631
I0
sVsend
p632
I0
sVssl
p633
I-1
sVconnect
p634
I-1
sVdns
p635
I-1
sVwait
p636
I27
sVblocked
p637
I-1
ssVtime
p638
I28
sVresponse
p639
(dp640
Vstatus
p641
I204
sVcomment
p642
g4
sVcookies
p643
(lp644
sVstatusText
p645
VNo Content
p646
sVcontent
p647
(dp648
VmimeType
p649
Vtext/html; charset=UTF-8
p650
sVcomment
p651
g4
sVsize
p652
I0
ssVheaders
p653
(lp654
sVheadersSize
p655
I248
sVredirectURL
p656
g4
sVbodySize
p657
I0
sVhttpVersion
p658
VHTTP/1.1
p659
ssa(dp660
Vcomment
p661
g4
sVserverIPAddress
p662
V172.217.6.4
p663
sVpageref
p664
VDevin Booker
p665
sVstartedDateTime
p666
V2017-04-16T08:29:40.289-05:00
p667
sVcache
p668
(dp669
sVrequest
p670
(dp671
Vcomment
p672
g4
sVcookies
p673
(lp674
sVurl
p675
Vhttps://www.google.com/complete/search?client=mobile-gws-hp&hl=en&gs_rn=64&gs_ri=mobile-gws-hp&sla=1&pfq=draymond%20green&gm=602&cp=0&gs_id=1&xhr=t&q=D&tch=1&ech=1&psi=wnHzWMXUM-S_jwTZlJmIDg.1492349380102.1
p676
sVqueryString
p677
(lp678
(dp679
Vname
p680
Vclient
p681
sVvalue
p682
Vmobile-gws-hp
p683
sa(dp684
Vname
p685
Vhl
p686
sVvalue
p687
Ven
p688
sa(dp689
Vname
p690
Vgs_rn
p691
sVvalue
p692
V64
p693
sa(dp694
Vname
p695
Vgs_ri
p696
sVvalue
p697
Vmobile-gws-hp
p698
sa(dp699
Vname
p700
Vsla
p701
sVvalue
p702
g59
sa(dp703
Vname
p704
Vpfq
p705
sVvalue
p706
Vdraymond green
p707
sa(dp708
Vname
p709
Vgm
p710
sVvalue
p711
V602
p712
sa(dp713
Vname
p714
Vcp
p715
sVvalue
p716
g601
sa(dp717
Vname
p718
Vgs_id
p719
sVvalue
p720
g59
sa(dp721
Vname
p722
Vxhr
p723
sVvalue
p724
g52
sa(dp725
Vname
p726
Vq
p727
sVvalue
p728
VD
p729
sa(dp730
Vname
p731
Vtch
p732
sVvalue
p733
g59
sa(dp734
Vname
p735
Vech
p736
sVvalue
p737
g59
sa(dp738
Vname
p739
Vpsi
p740
sVvalue
p741
VwnHzWMXUM-S_jwTZlJmIDg.1492349380102.1
p742
sasVheaders
p743
(lp744
sVheadersSize
p745
I734
sVbodySize
p746
I0
sVmethod
p747
VGET
p748
sVhttpVersion
p749
VHTTP/1.1
p750
ssVtimings
p751
(dp752
Vcomment
p753
g4
sVreceive
p754
I0
sVsend
p755
I0
sVssl
p756
I-1
sVconnect
p757
I-1
sVdns
p758
I-1
sVwait
p759
I0
sVblocked
p760
I-1
ssVtime
p761
I0
sVresponse
p762
(dp763
Vstatus
p764
I0
sVcomment
p765
g4
sVcookies
p766
(lp767
sV_error
p768
VNo response received
p769
sVstatusText
p770
g4
sVcontent
p771
(dp772
VmimeType
p773
g4
sVcomment
p774
g4
sVsize
p775
I0
ssVheaders
p776
(lp777
sVheadersSize
p778
I-1
sVredirectURL
p779
g4
sVbodySize
p780
I-1
sVhttpVersion
p781
Vunknown
p782
ssa(dp783
Vcomment
p784
g4
sVserverIPAddress
p785
V172.217.6.4
p786
sVpageref
p787
VDevin Booker
p788
sVstartedDateTime
p789
V2017-04-16T08:29:40.354-05:00
p790
sVcache
p791
(dp792
sVrequest
p793
(dp794
Vcomment
p795
g4
sVcookies
p796
(lp797
sVurl
p798
Vhttps://www.google.com/search?site=&source=hp&ei=wnHzWMXUM-S_jwTZlJmIDg&q=Devin+Booker&oq=Devin+Booker&gs_l=mobile-gws-hp.3...168.200.0.228.12.1.0.0.0.0.0.0..0.0....0...1c.1.64.mobile-gws-hp..12.0.0.N50Z7BlRfQ8
p799
sVqueryString
p800
(lp801
(dp802
Vname
p803
Vsite
p804
sVvalue
p805
g4
sa(dp806
Vname
p807
Vsource
p808
sVvalue
p809
Vhp
p810
sa(dp811
Vname
p812
Vei
p813
sVvalue
p814
VwnHzWMXUM-S_jwTZlJmIDg
p815
sa(dp816
Vname
p817
g727
sVvalue
p818
VDevin Booker
p819
sa(dp820
Vname
p821
Voq
p822
sVvalue
p823
VDevin Booker
p824
sa(dp825
Vname
p826
Vgs_l
p827
sVvalue
p828
Vmobile-gws-hp.3...168.200.0.228.12.1.0.0.0.0.0.0..0.0....0...1c.1.64.mobile-gws-hp..12.0.0.N50Z7BlRfQ8
p829
sasVheaders
p830
(lp831
sVheadersSize
p832
I828
sVbodySize
p833
I0
sVmethod
p834
VGET
p835
sVhttpVersion
p836
VHTTP/1.1
p837
ssVtimings
p838
(dp839
Vcomment
p840
g4
sVreceive
p841
I837
sVsend
p842
I0
sVssl
p843
I-1
sVconnect
p844
I-1
sVdns
p845
I-1
sVwait
p846
I263
sVblocked
p847
I-1
ssVtime
p848
I1101
sVresponse
p849
(dp850
Vstatus
p851
I200
sVcomment
p852
g4
sVcookies
p853
(lp854
sVstatusText
p855
VOK
p856
sVcontent
p857
(dp858
VmimeType
p859
Vtext/html; charset=UTF-8
p860
sVcomment
p861
g4
sVsize
p862
I0
ssVheaders
p863
(lp864
sVheadersSize
p865
I363
sVredirectURL
p866
g4
sVbodySize
p867
I185171
sVhttpVersion
p868
VHTTP/1.1
p869
ssa(dp870
Vcomment
p871
g4
sVserverIPAddress
p872
V172.217.6.4
p873
sVpageref
p874
VDevin Booker
p875
sVstartedDateTime
p876
V2017-04-16T08:29:41.951-05:00
p877
sVcache
p878
(dp879
sVrequest
p880
(dp881
Vcomment
p882
g4
sVcookies
p883
(lp884
sVurl
p885
Vhttps://www.google.com/xjs/_/js/k=xjs.qs.en_US.pCBXVCvTH3s.O/m=syl,syj,syn,em3,em8,em6,em7,sym,aa,abd,sy2g,sy2k,sy29,sy2j,sy2d,sy2a,sy2c,sy2f,sy2l,sy2m,sy2n,emd,async,sybn,sybi,sybo,sy1f,sy45,sy46,sy9w,sybk,sybj,sybp,sy1g,sy30,sy47,sybm,sybl,sybq,sy1h,sybh,dvl,syep,foot,ipv6,sy5g,sy5j,sy5h,sy6u,sy7d,sy7j,sy2x,sy5i,sy89,sy7e,sy23,sy2y,sy5k,sy6c,sy91,sy9b,sy9l,syhi,syhj,lrli,sy32,emj,shm,sykh,tl,sy2t,sy38,em12,vs,sy66,sy67,sy4u,sy69,sykk,sykl,tnv,bct,sy1y,sy2u,sy22,sy6i,sy34,sy31,sy6j,sy25,sy6l,sy6k,sy6h,emb,em9,ema,sy6m,qkx,sy4d,sy4f,sy4c,sy4e,sy24,sy4b,sy6w,shrb,sy4g,syd7,dgm,syf5,syf6,syf8,sygb,syg9,kptm,sy99,syf4,sy26,syfc,syfn,syf7,syff,sy1i,sy68,sy8d,syfl,syfr,syfq,syfg,sy1j,sy4q,sy5o,sy5r,sy6n,sy6p,sy8h,syc7,syc8,syfb,syfj,syfs,syft,syg3,syg5,syg7,emn,emo,syg4,syg6,ivg,sy9m,syac,sy9n,syhz,syl6,ssc,iuci,img,sy41,tcc,sygq,kpc,kpci,sy4h,vrml,sy6y,sycu,d3l,sya3,sya2,sy72,sya4,sykr,strm,twt,syj7,syj8,syj2,syjc,syj6,syj3,syjg,syjh,syje,syjd,syjk,syji,syjf,syj0,emr,ems,emt,emu,emv,emx,emy,emz,em10,em11,udlg,sy5z,atn,sy4i,sya1,ampfp/am=gCP4LtMEBXQA2RUaq_oFBISzAFA/rt=j/d=0/t=zcms/rs=ACT90oFwm4NZCwIcuuiqmthdlECdBzkhRA
p886
sVqueryString
p887
(lp888
sVheaders
p889
(lp890
sVheadersSize
p891
I1647
sVbodySize
p892
I0
sVmethod
p893
VGET
p894
sVhttpVersion
p895
VHTTP/1.1
p896
ssVtimings
p897
(dp898
Vcomment
p899
g4
sVreceive
p900
I23
sVsend
p901
I0
sVssl
p902
I-1
sVconnect
p903
I-1
sVdns
p904
I-1
sVwait
p905
I12
sVblocked
p906
I-1
ssVtime
p907
I36
sVresponse
p908
(dp909
Vstatus
p910
I200
sVcomment
p911
g4
sVcookies
p912
(lp913
sVstatusText
p914
VOK
p915
sVcontent
p916
(dp917
VmimeType
p918
Vtext/javascript; charset=UTF-8
p919
sVcomment
p920
g4
sVsize
p921
I0
ssVheaders
p922
(lp923
sVheadersSize
p924
I464
sVredirectURL
p925
g4
sVbodySize
p926
I118086
sVhttpVersion
p927
VHTTP/1.1
p928
ssa(dp929
Vcomment
p930
g4
sVserverIPAddress
p931
V172.217.6.4
p932
sVpageref
p933
VDevin Booker
p934
sVstartedDateTime
p935
V2017-04-16T08:29:42.181-05:00
p936
sVcache
p937
(dp938
sVrequest
p939
(dp940
Vcomment
p941
g4
sVcookies
p942
(lp943
sVurl
p944
Vhttps://www.google.com/async/irc?vet=10ahUKEwjYvpbViqnTAhUL0YMKHTIRDEgQo0EIjAI..i&ved=0ahUKEwjYvpbViqnTAhUL0YMKHTIRDEgQo0EIjAI&ei=w3HzWJjRH4uijwSyorDABA&yv=2&async=iu:1,ved:0ahUKEwjYvpbViqnTAhUL0YMKHTIRDEgQo0EIjAI,_id:irc_async,_pms:qs
p945
sVqueryString
p946
(lp947
(dp948
Vname
p949
Vvet
p950
sVvalue
p951
V10ahUKEwjYvpbViqnTAhUL0YMKHTIRDEgQo0EIjAI..i
p952
sa(dp953
Vname
p954
Vved
p955
sVvalue
p956
V0ahUKEwjYvpbViqnTAhUL0YMKHTIRDEgQo0EIjAI
p957
sa(dp958
Vname
p959
Vei
p960
sVvalue
p961
Vw3HzWJjRH4uijwSyorDABA
p962
sa(dp963
Vname
p964
Vyv
p965
sVvalue
p966
g64
sa(dp967
Vname
p968
Vasync
p969
sVvalue
p970
Viu:1,ved:0ahUKEwjYvpbViqnTAhUL0YMKHTIRDEgQo0EIjAI,_id:irc_async,_pms:qs
p971
sasVheaders
p972
(lp973
sVheadersSize
p974
I752
sVbodySize
p975
I0
sVmethod
p976
VGET
p977
sVhttpVersion
p978
VHTTP/1.1
p979
ssVtimings
p980
(dp981
Vcomment
p982
g4
sVreceive
p983
I0
sVsend
p984
I0
sVssl
p985
I-1
sVconnect
p986
I-1
sVdns
p987
I-1
sVwait
p988
I38
sVblocked
p989
I-1
ssVtime
p990
I38
sVresponse
p991
(dp992
Vstatus
p993
I200
sVcomment
p994
g4
sVcookies
p995
(lp996
sVstatusText
p997
VOK
p998
sVcontent
p999
(dp1000
VmimeType
p1001
Vtext/html; charset=UTF-8
p1002
sVcomment
p1003
g4
sVsize
p1004
I0
ssVheaders
p1005
(lp1006
sVheadersSize
p1007
I383
sVredirectURL
p1008
g4
sVbodySize
p1009
I7792
sVhttpVersion
p1010
VHTTP/1.1
p1011
ssa(dp1012
Vcomment
p1013
g4
sVserverIPAddress
p1014
V172.217.6.4
p1015
sVpageref
p1016
VDevin Booker
p1017
sVstartedDateTime
p1018
V2017-04-16T08:29:42.222-05:00
p1019
sVcache
p1020
(dp1021
sVrequest
p1022
(dp1023
Vcomment
p1024
g4
sVcookies
p1025
(lp1026
sVurl
p1027
Vhttps://www.google.com/gen_204?atyp=i&ct=&cad=&vet=10ahUKEwjYvpbViqnTAhUL0YMKHTIRDEgQ5W0IQigH..s&ei=w3HzWJjRH4uijwSyorDABA&zx=1492349382208
p1028
sVqueryString
p1029
(lp1030
(dp1031
Vname
p1032
Vatyp
p1033
sVvalue
p1034
g30
sa(dp1035
Vname
p1036
Vct
p1037
sVvalue
p1038
g4
sa(dp1039
Vname
p1040
Vcad
p1041
sVvalue
p1042
g4
sa(dp1043
Vname
p1044
Vvet
p1045
sVvalue
p1046
V10ahUKEwjYvpbViqnTAhUL0YMKHTIRDEgQ5W0IQigH..s
p1047
sa(dp1048
Vname
p1049
Vei
p1050
sVvalue
p1051
Vw3HzWJjRH4uijwSyorDABA
p1052
sa(dp1053
Vname
p1054
Vzx
p1055
sVvalue
p1056
V1492349382208
p1057
sasVheaders
p1058
(lp1059
sVheadersSize
p1060
I656
sVbodySize
p1061
I0
sVmethod
p1062
VGET
p1063
sVhttpVersion
p1064
VHTTP/1.1
p1065
ssVtimings
p1066
(dp1067
Vcomment
p1068
g4
sVreceive
p1069
I0
sVsend
p1070
I0
sVssl
p1071
I-1
sVconnect
p1072
I-1
sVdns
p1073
I-1
sVwait
p1074
I29
sVblocked
p1075
I-1
ssVtime
p1076
I29
sVresponse
p1077
(dp1078
Vstatus
p1079
I204
sVcomment
p1080
g4
sVcookies
p1081
(lp1082
sVstatusText
p1083
VNo Content
p1084
sVcontent
p1085
(dp1086
VmimeType
p1087
Vtext/html; charset=UTF-8
p1088
sVcomment
p1089
g4
sVsize
p1090
I0
ssVheaders
p1091
(lp1092
sVheadersSize
p1093
I248
sVredirectURL
p1094
g4
sVbodySize
p1095
I0
sVhttpVersion
p1096
VHTTP/1.1
p1097
ssa(dp1098
Vcomment
p1099
g4
sVserverIPAddress
p1100
V172.217.6.4
p1101
sVpageref
p1102
VDevin Booker
p1103
sVstartedDateTime
p1104
V2017-04-16T08:29:42.247-05:00
p1105
sVcache
p1106
(dp1107
sVrequest
p1108
(dp1109
Vcomment
p1110
g4
sVcookies
p1111
(lp1112
sVurl
p1113
Vhttps://www.google.com/gen_204?atyp=i&ct=&cad=&vet=10ahUKEwjYvpbViqnTAhUL0YMKHTIRDEgQ5W0IMygC..s&ei=w3HzWJjRH4uijwSyorDABA&zx=1492349382191
p1114
sVqueryString
p1115
(lp1116
(dp1117
Vname
p1118
Vatyp
p1119
sVvalue
p1120
g30
sa(dp1121
Vname
p1122
Vct
p1123
sVvalue
p1124
g4
sa(dp1125
Vname
p1126
Vcad
p1127
sVvalue
p1128
g4
sa(dp1129
Vname
p1130
Vvet
p1131
sVvalue
p1132
V10ahUKEwjYvpbViqnTAhUL0YMKHTIRDEgQ5W0IMygC..s
p1133
sa(dp1134
Vname
p1135
Vei
p1136
sVvalue
p1137
Vw3HzWJjRH4uijwSyorDABA
p1138
sa(dp1139
Vname
p1140
Vzx
p1141
sVvalue
p1142
V1492349382191
p1143
sasVheaders
p1144
(lp1145
sVheadersSize
p1146
I656
sVbodySize
p1147
I0
sVmethod
p1148
VGET
p1149
sVhttpVersion
p1150
VHTTP/1.1
p1151
ssVtimings
p1152
(dp1153
Vcomment
p1154
g4
sVreceive
p1155
I0
sVsend
p1156
I0
sVssl
p1157
I27
sVconnect
p1158
I50
sVdns
p1159
I1
sVwait
p1160
I32
sVblocked
p1161
I0
ssVtime
p1162
I84
sVresponse
p1163
(dp1164
Vstatus
p1165
I204
sVcomment
p1166
g4
sVcookies
p1167
(lp1168
sVstatusText
p1169
VNo Content
p1170
sVcontent
p1171
(dp1172
VmimeType
p1173
Vtext/html; charset=UTF-8
p1174
sVcomment
p1175
g4
sVsize
p1176
I0
ssVheaders
p1177
(lp1178
sVheadersSize
p1179
I248
sVredirectURL
p1180
g4
sVbodySize
p1181
I0
sVhttpVersion
p1182
VHTTP/1.1
p1183
ssa(dp1184
Vcomment
p1185
g4
sVserverIPAddress
p1186
V172.217.6.4
p1187
sVpageref
p1188
VDevin Booker
p1189
sVstartedDateTime
p1190
V2017-04-16T08:29:42.248-05:00
p1191
sVcache
p1192
(dp1193
sVrequest
p1194
(dp1195
Vcomment
p1196
g4
sVcookies
p1197
(lp1198
sVurl
p1199
Vhttps://www.google.com/gen_204?atyp=i&ct=&cad=&vet=10ahUKEwjYvpbViqnTAhUL0YMKHTIRDEgQ5W0INigD..s&ei=w3HzWJjRH4uijwSyorDABA&zx=1492349382196
p1200
sVqueryString
p1201
(lp1202
(dp1203
Vname
p1204
Vatyp
p1205
sVvalue
p1206
g30
sa(dp1207
Vname
p1208
Vct
p1209
sVvalue
p1210
g4
sa(dp1211
Vname
p1212
Vcad
p1213
sVvalue
p1214
g4
sa(dp1215
Vname
p1216
Vvet
p1217
sVvalue
p1218
V10ahUKEwjYvpbViqnTAhUL0YMKHTIRDEgQ5W0INigD..s
p1219
sa(dp1220
Vname
p1221
Vei
p1222
sVvalue
p1223
Vw3HzWJjRH4uijwSyorDABA
p1224
sa(dp1225
Vname
p1226
Vzx
p1227
sVvalue
p1228
V1492349382196
p1229
sasVheaders
p1230
(lp1231
sVheadersSize
p1232
I656
sVbodySize
p1233
I0
sVmethod
p1234
VGET
p1235
sVhttpVersion
p1236
VHTTP/1.1
p1237
ssVtimings
p1238
(dp1239
Vcomment
p1240
g4
sVreceive
p1241
I0
sVsend
p1242
I0
sVssl
p1243
I28
sVconnect
p1244
I47
sVdns
p1245
I0
sVwait
p1246
I32
sVblocked
p1247
I0
ssVtime
p1248
I80
sVresponse
p1249
(dp1250
Vstatus
p1251
I204
sVcomment
p1252
g4
sVcookies
p1253
(lp1254
sVstatusText
p1255
VNo Content
p1256
sVcontent
p1257
(dp1258
VmimeType
p1259
Vtext/html; charset=UTF-8
p1260
sVcomment
p1261
g4
sVsize
p1262
I0
ssVheaders
p1263
(lp1264
sVheadersSize
p1265
I248
sVredirectURL
p1266
g4
sVbodySize
p1267
I0
sVhttpVersion
p1268
VHTTP/1.1
p1269
ssa(dp1270
Vcomment
p1271
g4
sVserverIPAddress
p1272
V172.217.6.4
p1273
sVpageref
p1274
VDevin Booker
p1275
sVstartedDateTime
p1276
V2017-04-16T08:29:42.248-05:00
p1277
sVcache
p1278
(dp1279
sVrequest
p1280
(dp1281
Vcomment
p1282
g4
sVcookies
p1283
(lp1284
sVurl
p1285
Vhttps://www.google.com/gen_204?atyp=i&ct=&cad=&vet=10ahUKEwjYvpbViqnTAhUL0YMKHTIRDEgQ5W0IOSgE..s&ei=w3HzWJjRH4uijwSyorDABA&zx=1492349382200
p1286
sVqueryString
p1287
(lp1288
(dp1289
Vname
p1290
Vatyp
p1291
sVvalue
p1292
g30
sa(dp1293
Vname
p1294
Vct
p1295
sVvalue
p1296
g4
sa(dp1297
Vname
p1298
Vcad
p1299
sVvalue
p1300
g4
sa(dp1301
Vname
p1302
Vvet
p1303
sVvalue
p1304
V10ahUKEwjYvpbViqnTAhUL0YMKHTIRDEgQ5W0IOSgE..s
p1305
sa(dp1306
Vname
p1307
Vei
p1308
sVvalue
p1309
Vw3HzWJjRH4uijwSyorDABA
p1310
sa(dp1311
Vname
p1312
Vzx
p1313
sVvalue
p1314
V1492349382200
p1315
sasVheaders
p1316
(lp1317
sVheadersSize
p1318
I656
sVbodySize
p1319
I0
sVmethod
p1320
VGET
p1321
sVhttpVersion
p1322
VHTTP/1.1
p1323
ssVtimings
p1324
(dp1325
Vcomment
p1326
g4
sVreceive
p1327
I0
sVsend
p1328
I0
sVssl
p1329
I26
sVconnect
p1330
I44
sVdns
p1331
I0
sVwait
p1332
I31
sVblocked
p1333
I0
ssVtime
p1334
I76
sVresponse
p1335
(dp1336
Vstatus
p1337
I204
sVcomment
p1338
g4
sVcookies
p1339
(lp1340
sVstatusText
p1341
VNo Content
p1342
sVcontent
p1343
(dp1344
VmimeType
p1345
Vtext/html; charset=UTF-8
p1346
sVcomment
p1347
g4
sVsize
p1348
I0
ssVheaders
p1349
(lp1350
sVheadersSize
p1351
I248
sVredirectURL
p1352
g4
sVbodySize
p1353
I0
sVhttpVersion
p1354
VHTTP/1.1
p1355
ssa(dp1356
Vcomment
p1357
g4
sVserverIPAddress
p1358
V172.217.6.4
p1359
sVpageref
p1360
VDevin Booker
p1361
sVstartedDateTime
p1362
V2017-04-16T08:29:42.248-05:00
p1363
sVcache
p1364
(dp1365
sVrequest
p1366
(dp1367
Vcomment
p1368
g4
sVcookies
p1369
(lp1370
sVurl
p1371
Vhttps://www.google.com/gen_204?atyp=i&ct=&cad=&vet=10ahUKEwjYvpbViqnTAhUL0YMKHTIRDEgQ5W0IPCgF..s&ei=w3HzWJjRH4uijwSyorDABA&zx=1492349382203
p1372
sVqueryString
p1373
(lp1374
(dp1375
Vname
p1376
Vatyp
p1377
sVvalue
p1378
g30
sa(dp1379
Vname
p1380
Vct
p1381
sVvalue
p1382
g4
sa(dp1383
Vname
p1384
Vcad
p1385
sVvalue
p1386
g4
sa(dp1387
Vname
p1388
Vvet
p1389
sVvalue
p1390
V10ahUKEwjYvpbViqnTAhUL0YMKHTIRDEgQ5W0IPCgF..s
p1391
sa(dp1392
Vname
p1393
Vei
p1394
sVvalue
p1395
Vw3HzWJjRH4uijwSyorDABA
p1396
sa(dp1397
Vname
p1398
Vzx
p1399
sVvalue
p1400
V1492349382203
p1401
sasVheaders
p1402
(lp1403
sVheadersSize
p1404
I656
sVbodySize
p1405
I0
sVmethod
p1406
VGET
p1407
sVhttpVersion
p1408
VHTTP/1.1
p1409
ssVtimings
p1410
(dp1411
Vcomment
p1412
g4
sVreceive
p1413
I0
sVsend
p1414
I0
sVssl
p1415
I26
sVconnect
p1416
I42
sVdns
p1417
I0
sVwait
p1418
I31
sVblocked
p1419
I0
ssVtime
p1420
I73
sVresponse
p1421
(dp1422
Vstatus
p1423
I204
sVcomment
p1424
g4
sVcookies
p1425
(lp1426
sVstatusText
p1427
VNo Content
p1428
sVcontent
p1429
(dp1430
VmimeType
p1431
Vtext/html; charset=UTF-8
p1432
sVcomment
p1433
g4
sVsize
p1434
I0
ssVheaders
p1435
(lp1436
sVheadersSize
p1437
I248
sVredirectURL
p1438
g4
sVbodySize
p1439
I0
sVhttpVersion
p1440
VHTTP/1.1
p1441
ssa(dp1442
Vcomment
p1443
g4
sVserverIPAddress
p1444
V172.217.6.4
p1445
sVpageref
p1446
VDevin Booker
p1447
sVstartedDateTime
p1448
V2017-04-16T08:29:42.253-05:00
p1449
sVcache
p1450
(dp1451
sVrequest
p1452
(dp1453
Vcomment
p1454
g4
sVcookies
p1455
(lp1456
sVurl
p1457
Vhttps://www.google.com/gen_204?atyp=i&ct=&cad=&vet=10ahUKEwjYvpbViqnTAhUL0YMKHTIRDEgQ5W0IRSgI..s&ei=w3HzWJjRH4uijwSyorDABA&zx=1492349382210
p1458
sVqueryString
p1459
(lp1460
(dp1461
Vname
p1462
Vatyp
p1463
sVvalue
p1464
g30
sa(dp1465
Vname
p1466
Vct
p1467
sVvalue
p1468
g4
sa(dp1469
Vname
p1470
Vcad
p1471
sVvalue
p1472
g4
sa(dp1473
Vname
p1474
Vvet
p1475
sVvalue
p1476
V10ahUKEwjYvpbViqnTAhUL0YMKHTIRDEgQ5W0IRSgI..s
p1477
sa(dp1478
Vname
p1479
Vei
p1480
sVvalue
p1481
Vw3HzWJjRH4uijwSyorDABA
p1482
sa(dp1483
Vname
p1484
Vzx
p1485
sVvalue
p1486
V1492349382210
p1487
sasVheaders
p1488
(lp1489
sVheadersSize
p1490
I656
sVbodySize
p1491
I0
sVmethod
p1492
VGET
p1493
sVhttpVersion
p1494
VHTTP/1.1
p1495
ssVtimings
p1496
(dp1497
Vcomment
p1498
g4
sVreceive
p1499
I0
sVsend
p1500
I0
sVssl
p1501
I-1
sVconnect
p1502
I-1
sVdns
p1503
I-1
sVwait
p1504
I26
sVblocked
p1505
I-1
ssVtime
p1506
I26
sVresponse
p1507
(dp1508
Vstatus
p1509
I204
sVcomment
p1510
g4
sVcookies
p1511
(lp1512
sVstatusText
p1513
VNo Content
p1514
sVcontent
p1515
(dp1516
VmimeType
p1517
Vtext/html; charset=UTF-8
p1518
sVcomment
p1519
g4
sVsize
p1520
I0
ssVheaders
p1521
(lp1522
sVheadersSize
p1523
I248
sVredirectURL
p1524
g4
sVbodySize
p1525
I0
sVhttpVersion
p1526
VHTTP/1.1
p1527
ssa(dp1528
Vcomment
p1529
g4
sVserverIPAddress
p1530
V172.217.6.4
p1531
sVpageref
p1532
VDevin Booker
p1533
sVstartedDateTime
p1534
V2017-04-16T08:29:42.253-05:00
p1535
sVcache
p1536
(dp1537
sVrequest
p1538
(dp1539
Vcomment
p1540
g4
sVcookies
p1541
(lp1542
sVurl
p1543
Vhttps://www.google.com/gen_204?atyp=i&ct=&cad=&vet=10ahUKEwjYvpbViqnTAhUL0YMKHTIRDEgQ5W0IPygG..s&ei=w3HzWJjRH4uijwSyorDABA&zx=1492349382206
p1544
sVqueryString
p1545
(lp1546
(dp1547
Vname
p1548
Vatyp
p1549
sVvalue
p1550
g30
sa(dp1551
Vname
p1552
Vct
p1553
sVvalue
p1554
g4
sa(dp1555
Vname
p1556
Vcad
p1557
sVvalue
p1558
g4
sa(dp1559
Vname
p1560
Vvet
p1561
sVvalue
p1562
V10ahUKEwjYvpbViqnTAhUL0YMKHTIRDEgQ5W0IPygG..s
p1563
sa(dp1564
Vname
p1565
Vei
p1566
sVvalue
p1567
Vw3HzWJjRH4uijwSyorDABA
p1568
sa(dp1569
Vname
p1570
Vzx
p1571
sVvalue
p1572
V1492349382206
p1573
sasVheaders
p1574
(lp1575
sVheadersSize
p1576
I656
sVbodySize
p1577
I0
sVmethod
p1578
VGET
p1579
sVhttpVersion
p1580
VHTTP/1.1
p1581
ssVtimings
p1582
(dp1583
Vcomment
p1584
g4
sVreceive
p1585
I0
sVsend
p1586
I0
sVssl
p1587
I21
sVconnect
p1588
I45
sVdns
p1589
I0
sVwait
p1590
I30
sVblocked
p1591
I0
ssVtime
p1592
I75
sVresponse
p1593
(dp1594
Vstatus
p1595
I204
sVcomment
p1596
g4
sVcookies
p1597
(lp1598
sVstatusText
p1599
VNo Content
p1600
sVcontent
p1601
(dp1602
VmimeType
p1603
Vtext/html; charset=UTF-8
p1604
sVcomment
p1605
g4
sVsize
p1606
I0
ssVheaders
p1607
(lp1608
sVheadersSize
p1609
I248
sVredirectURL
p1610
g4
sVbodySize
p1611
I0
sVhttpVersion
p1612
VHTTP/1.1
p1613
ssa(dp1614
Vcomment
p1615
g4
sVserverIPAddress
p1616
V172.217.6.4
p1617
sVpageref
p1618
VDevin Booker
p1619
sVstartedDateTime
p1620
V2017-04-16T08:29:42.347-05:00
p1621
sVcache
p1622
(dp1623
sVrequest
p1624
(dp1625
Vcomment
p1626
g4
sVcookies
p1627
(lp1628
sVurl
p1629
Vhttps://www.google.com/async/ampfp?vet=10ahUKEwjYvpbViqnTAhUL0YMKHTIRDEgQtZoBCIoC..i&ei=w3HzWJjRH4uijwSyorDABA&yv=2&async=_id:ampfp-async,_pms:qs
p1630
sVqueryString
p1631
(lp1632
(dp1633
Vname
p1634
Vvet
p1635
sVvalue
p1636
V10ahUKEwjYvpbViqnTAhUL0YMKHTIRDEgQtZoBCIoC..i
p1637
sa(dp1638
Vname
p1639
Vei
p1640
sVvalue
p1641
Vw3HzWJjRH4uijwSyorDABA
p1642
sa(dp1643
Vname
p1644
Vyv
p1645
sVvalue
p1646
g64
sa(dp1647
Vname
p1648
Vasync
p1649
sVvalue
p1650
V_id:ampfp-async,_pms:qs
p1651
sasVheaders
p1652
(lp1653
sVheadersSize
p1654
I662
sVbodySize
p1655
I0
sVmethod
p1656
VGET
p1657
sVhttpVersion
p1658
VHTTP/1.1
p1659
ssVtimings
p1660
(dp1661
Vcomment
p1662
g4
sVreceive
p1663
I2
sVsend
p1664
I0
sVssl
p1665
I-1
sVconnect
p1666
I-1
sVdns
p1667
I-1
sVwait
p1668
I37
sVblocked
p1669
I-1
ssVtime
p1670
I39
sVresponse
p1671
(dp1672
Vstatus
p1673
I200
sVcomment
p1674
g4
sVcookies
p1675
(lp1676
sVstatusText
p1677
VOK
p1678
sVcontent
p1679
(dp1680
VmimeType
p1681
Vtext/html; charset=UTF-8
p1682
sVcomment
p1683
g4
sVsize
p1684
I0
ssVheaders
p1685
(lp1686
sVheadersSize
p1687
I383
sVredirectURL
p1688
g4
sVbodySize
p1689
I4526
sVhttpVersion
p1690
VHTTP/1.1
p1691
ssa(dp1692
Vcomment
p1693
g4
sVserverIPAddress
p1694
V216.58.216.193
p1695
sVpageref
p1696
VDevin Booker
p1697
sVstartedDateTime
p1698
V2017-04-16T08:29:42.348-05:00
p1699
sVcache
p1700
(dp1701
sVrequest
p1702
(dp1703
Vcomment
p1704
g4
sVcookies
p1705
(lp1706
sVurl
p1707
Vhttps://cdn.ampproject.org/preconnect.gif?0.46626297988930665
p1708
sVqueryString
p1709
(lp1710
(dp1711
Vname
p1712
V0.46626297988930665
p1713
sVvalue
p1714
g4
sasVheaders
p1715
(lp1716
sVheadersSize
p1717
I376
sVbodySize
p1718
I0
sVmethod
p1719
VGET
p1720
sVhttpVersion
p1721
VHTTP/1.1
p1722
ssVtimings
p1723
(dp1724
Vcomment
p1725
g4
sVreceive
p1726
I0
sVsend
p1727
I0
sVssl
p1728
I-1
sVconnect
p1729
I-1
sVdns
p1730
I-1
sVwait
p1731
I29
sVblocked
p1732
I-1
ssVtime
p1733
I30
sVresponse
p1734
(dp1735
Vstatus
p1736
I200
sVcomment
p1737
g4
sVcookies
p1738
(lp1739
sVstatusText
p1740
VOK
p1741
sVcontent
p1742
(dp1743
VmimeType
p1744
Vimage/gif
p1745
sVcomment
p1746
g4
sVsize
p1747
I0
ssVheaders
p1748
(lp1749
sVheadersSize
p1750
I826
sVredirectURL
p1751
g4
sVbodySize
p1752
I37
sVhttpVersion
p1753
VHTTP/1.1
p1754
ssa(dp1755
Vcomment
p1756
g4
sVserverIPAddress
p1757
V172.217.0.14
p1758
sVpageref
p1759
VDevin Booker
p1760
sVstartedDateTime
p1761
V2017-04-16T08:29:42.371-05:00
p1762
sVcache
p1763
(dp1764
sVrequest
p1765
(dp1766
Vcomment
p1767
g4
sVcookies
p1768
(lp1769
sVurl
p1770
Vhttps://encrypted-tbn1.gstatic.com/images?q=tbn:ANd9GcQQz0La_aPNsW92VGbX8pff1OSzR1Gzaori6Jv79J-VsFfDekk04pBJ1qUc
p1771
sVqueryString
p1772
(lp1773
(dp1774
Vname
p1775
g727
sVvalue
p1776
Vtbn:ANd9GcQQz0La_aPNsW92VGbX8pff1OSzR1Gzaori6Jv79J-VsFfDekk04pBJ1qUc
p1777
sasVheaders
p1778
(lp1779
sVheadersSize
p1780
I427
sVbodySize
p1781
I0
sVmethod
p1782
VGET
p1783
sVhttpVersion
p1784
VHTTP/1.1
p1785
ssVtimings
p1786
(dp1787
Vcomment
p1788
g4
sVreceive
p1789
I1
sVsend
p1790
I0
sVssl
p1791
I-1
sVconnect
p1792
I-1
sVdns
p1793
I-1
sVwait
p1794
I16
sVblocked
p1795
I-1
ssVtime
p1796
I17
sVresponse
p1797
(dp1798
Vstatus
p1799
I200
sVcomment
p1800
g4
sVcookies
p1801
(lp1802
sVstatusText
p1803
VOK
p1804
sVcontent
p1805
(dp1806
VmimeType
p1807
Vimage/jpeg
p1808
sVcomment
p1809
g4
sVsize
p1810
I0
ssVheaders
p1811
(lp1812
sVheadersSize
p1813
I428
sVredirectURL
p1814
g4
sVbodySize
p1815
I3101
sVhttpVersion
p1816
VHTTP/1.1
p1817
ssa(dp1818
Vcomment
p1819
g4
sVserverIPAddress
p1820
V172.217.0.14
p1821
sVpageref
p1822
VDevin Booker
p1823
sVstartedDateTime
p1824
V2017-04-16T08:29:42.371-05:00
p1825
sVcache
p1826
(dp1827
sVrequest
p1828
(dp1829
Vcomment
p1830
g4
sVcookies
p1831
(lp1832
sVurl
p1833
Vhttps://encrypted-tbn0.gstatic.com/images?q=tbn:ANd9GcQ7jHflQyrUduM24lpiPYe2qMKs84nNl1N2TS4jbVskWHWfba7O2seuWcU
p1834
sVqueryString
p1835
(lp1836
(dp1837
Vname
p1838
g727
sVvalue
p1839
Vtbn:ANd9GcQ7jHflQyrUduM24lpiPYe2qMKs84nNl1N2TS4jbVskWHWfba7O2seuWcU
p1840
sasVheaders
p1841
(lp1842
sVheadersSize
p1843
I426
sVbodySize
p1844
I0
sVmethod
p1845
VGET
p1846
sVhttpVersion
p1847
VHTTP/1.1
p1848
ssVtimings
p1849
(dp1850
Vcomment
p1851
g4
sVreceive
p1852
I0
sVsend
p1853
I0
sVssl
p1854
I-1
sVconnect
p1855
I-1
sVdns
p1856
I-1
sVwait
p1857
I38
sVblocked
p1858
I-1
ssVtime
p1859
I38
sVresponse
p1860
(dp1861
Vstatus
p1862
I200
sVcomment
p1863
g4
sVcookies
p1864
(lp1865
sVstatusText
p1866
VOK
p1867
sVcontent
p1868
(dp1869
VmimeType
p1870
Vimage/jpeg
p1871
sVcomment
p1872
g4
sVsize
p1873
I0
ssVheaders
p1874
(lp1875
sVheadersSize
p1876
I415
sVredirectURL
p1877
g4
sVbodySize
p1878
I3606
sVhttpVersion
p1879
VHTTP/1.1
p1880
ssa(dp1881
Vcomment
p1882
g4
sVserverIPAddress
p1883
V172.217.6.4
p1884
sVpageref
p1885
VDevin Booker
p1886
sVstartedDateTime
p1887
V2017-04-16T08:29:42.526-05:00
p1888
sVcache
p1889
(dp1890
sVrequest
p1891
(dp1892
Vcomment
p1893
g4
sVcookies
p1894
(lp1895
sVurl
p1896
Vhttps://www.google.com/async/log_amp_item_set?vet=10ahUKEwjO5oXWiqnTAhVH9YMKHUwiBy0QooQBCAE..i&ei=w3HzWJjRH4uijwSyorDABA&yv=2&async=num_items:6,_fmt:jspb
p1897
sVqueryString
p1898
(lp1899
(dp1900
Vname
p1901
Vvet
p1902
sVvalue
p1903
V10ahUKEwjO5oXWiqnTAhVH9YMKHUwiBy0QooQBCAE..i
p1904
sa(dp1905
Vname
p1906
Vei
p1907
sVvalue
p1908
Vw3HzWJjRH4uijwSyorDABA
p1909
sa(dp1910
Vname
p1911
Vyv
p1912
sVvalue
p1913
g64
sa(dp1914
Vname
p1915
Vasync
p1916
sVvalue
p1917
Vnum_items:6,_fmt:jspb
p1918
sasVheaders
p1919
(lp1920
sVheadersSize
p1921
I670
sVbodySize
p1922
I0
sVmethod
p1923
VGET
p1924
sVhttpVersion
p1925
VHTTP/1.1
p1926
ssVtimings
p1927
(dp1928
Vcomment
p1929
g4
sVreceive
p1930
I0
sVsend
p1931
I0
sVssl
p1932
I-1
sVconnect
p1933
I-1
sVdns
p1934
I-1
sVwait
p1935
I30
sVblocked
p1936
I-1
ssVtime
p1937
I30
sVresponse
p1938
(dp1939
Vstatus
p1940
I200
sVcomment
p1941
g4
sVcookies
p1942
(lp1943
sVstatusText
p1944
VOK
p1945
sVcontent
p1946
(dp1947
VmimeType
p1948
Vapplication/json; charset=UTF-8
p1949
sVcomment
p1950
g4
sVsize
p1951
I0
ssVheaders
p1952
(lp1953
sVheadersSize
p1954
I417
sVredirectURL
p1955
g4
sVbodySize
p1956
I165
sVhttpVersion
p1957
VHTTP/1.1
p1958
ssa(dp1959
Vcomment
p1960
g4
sVserverIPAddress
p1961
V216.58.216.193
p1962
sVpageref
p1963
VDevin Booker
p1964
sVstartedDateTime
p1965
V2017-04-16T08:29:42.839-05:00
p1966
sVcache
p1967
(dp1968
sVrequest
p1969
(dp1970
Vcomment
p1971
g4
sVcookies
p1972
(lp1973
sVurl
p1974
Vhttps://arizonasports-com.cdn.ampproject.org/v/s/arizonasports.com/story/1090146/espn-insider-devin-booker-short-list-improved-player-award/amp/?amp_js_v=9
p1975
sVqueryString
p1976
(lp1977
(dp1978
Vname
p1979
Vamp_js_v
p1980
sVvalue
p1981
V9
p1982
sasVheaders
p1983
(lp1984
sVheadersSize
p1985
I560
sVbodySize
p1986
I0
sVmethod
p1987
VGET
p1988
sVhttpVersion
p1989
VHTTP/1.1
p1990
ssVtimings
p1991
(dp1992
Vcomment
p1993
g4
sVreceive
p1994
I0
sVsend
p1995
I0
sVssl
p1996
I226
sVconnect
p1997
I254
sVdns
p1998
I38
sVwait
p1999
I45
sVblocked
p2000
I0
ssVtime
p2001
I338
sVresponse
p2002
(dp2003
Vstatus
p2004
I200
sVcomment
p2005
g4
sVcookies
p2006
(lp2007
sVstatusText
p2008
VOK
p2009
sVcontent
p2010
(dp2011
VmimeType
p2012
Vtext/html
p2013
sVcomment
p2014
g4
sVsize
p2015
I0
ssVheaders
p2016
(lp2017
sVheadersSize
p2018
I859
sVredirectURL
p2019
g4
sVbodySize
p2020
I3918
sVhttpVersion
p2021
VHTTP/1.1
p2022
ssa(dp2023
Vcomment
p2024
g4
sVserverIPAddress
p2025
V216.58.216.193
p2026
sVpageref
p2027
VDevin Booker
p2028
sVstartedDateTime
p2029
V2017-04-16T08:29:42.896-05:00
p2030
sVcache
p2031
(dp2032
sVrequest
p2033
(dp2034
Vcomment
p2035
g4
sVcookies
p2036
(lp2037
sVurl
p2038
Vhttps://arizonasports-com.cdn.ampproject.org/i/arizonasports.com/wp-content/themes/arizonasports/assets/logo/ArizonaSports_987_112.png
p2039
sVqueryString
p2040
(lp2041
sVheaders
p2042
(lp2043
sVheadersSize
p2044
I581
sVbodySize
p2045
I0
sVmethod
p2046
VGET
p2047
sVhttpVersion
p2048
VHTTP/1.1
p2049
ssVtimings
p2050
(dp2051
Vcomment
p2052
g4
sVreceive
p2053
I0
sVsend
p2054
I0
sVssl
p2055
I-1
sVconnect
p2056
I-1
sVdns
p2057
I-1
sVwait
p2058
I28
sVblocked
p2059
I-1
ssVtime
p2060
I29
sVresponse
p2061
(dp2062
Vstatus
p2063
I200
sVcomment
p2064
g4
sVcookies
p2065
(lp2066
sVstatusText
p2067
VOK
p2068
sVcontent
p2069
(dp2070
VmimeType
p2071
Vimage/png
p2072
sVcomment
p2073
g4
sVsize
p2074
I0
ssVheaders
p2075
(lp2076
sVheadersSize
p2077
I823
sVredirectURL
p2078
g4
sVbodySize
p2079
I1143
sVhttpVersion
p2080
VHTTP/1.1
p2081
ssa(dp2082
Vcomment
p2083
g4
sVserverIPAddress
p2084
V216.58.216.193
p2085
sVpageref
p2086
VDevin Booker
p2087
sVstartedDateTime
p2088
V2017-04-16T08:29:43.007-05:00
p2089
sVcache
p2090
(dp2091
sVrequest
p2092
(dp2093
Vcomment
p2094
g4
sVcookies
p2095
(lp2096
sVurl
p2097
Vhttps://arizonasports-com.cdn.ampproject.org/i/s/arizonasports.com/wp-content/uploads/2017/03/ap_20a33516fc1c4ee58a3b9a7b73db0ba6-1024x672-1.jpg
p2098
sVqueryString
p2099
(lp2100
sVheaders
p2101
(lp2102
sVheadersSize
p2103
I591
sVbodySize
p2104
I0
sVmethod
p2105
VGET
p2106
sVhttpVersion
p2107
VHTTP/1.1
p2108
ssVtimings
p2109
(dp2110
Vcomment
p2111
g4
sVreceive
p2112
I5
sVsend
p2113
I0
sVssl
p2114
I-1
sVconnect
p2115
I-1
sVdns
p2116
I-1
sVwait
p2117
I30
sVblocked
p2118
I-1
ssVtime
p2119
I36
sVresponse
p2120
(dp2121
Vstatus
p2122
I200
sVcomment
p2123
g4
sVcookies
p2124
(lp2125
sVstatusText
p2126
VOK
p2127
sVcontent
p2128
(dp2129
VmimeType
p2130
Vimage/jpeg
p2131
sVcomment
p2132
g4
sVsize
p2133
I0
ssVheaders
p2134
(lp2135
sVheadersSize
p2136
I849
sVredirectURL
p2137
g4
sVbodySize
p2138
I15743
sVhttpVersion
p2139
VHTTP/1.1
p2140
ssa(dp2141
Vcomment
p2142
g4
sVserverIPAddress
p2143
V172.217.6.4
p2144
sVpageref
p2145
VDevin Booker
p2146
sVstartedDateTime
p2147
V2017-04-16T08:29:43.051-05:00
p2148
sVcache
p2149
(dp2150
sVrequest
p2151
(dp2152
Vcomment
p2153
g4
sVcookies
p2154
(lp2155
sVurl
p2156
Vhttps://www.google.com/gen_204?s=amp&atyp=csi&ei=w3HzWJjRH4uijwSyorDABA&ampexp=011492014732688&action=Prerender&rt=msr.88,is.417,mbv.476,e_is.476
p2157
sVqueryString
p2158
(lp2159
(dp2160
Vname
p2161
g57
sVvalue
p2162
Vamp
p2163
sa(dp2164
Vname
p2165
Vatyp
p2166
sVvalue
p2167
Vcsi
p2168
sa(dp2169
Vname
p2170
Vei
p2171
sVvalue
p2172
Vw3HzWJjRH4uijwSyorDABA
p2173
sa(dp2174
Vname
p2175
Vampexp
p2176
sVvalue
p2177
V011492014732688
p2178
sa(dp2179
Vname
p2180
Vaction
p2181
sVvalue
p2182
VPrerender
p2183
sa(dp2184
Vname
p2185
Vrt
p2186
sVvalue
p2187
Vmsr.88,is.417,mbv.476,e_is.476
p2188
sasVheaders
p2189
(lp2190
sVheadersSize
p2191
I662
sVbodySize
p2192
I0
sVmethod
p2193
VGET
p2194
sVhttpVersion
p2195
VHTTP/1.1
p2196
ssVtimings
p2197
(dp2198
Vcomment
p2199
g4
sVreceive
p2200
I0
sVsend
p2201
I0
sVssl
p2202
I-1
sVconnect
p2203
I-1
sVdns
p2204
I-1
sVwait
p2205
I25
sVblocked
p2206
I-1
ssVtime
p2207
I25
sVresponse
p2208
(dp2209
Vstatus
p2210
I204
sVcomment
p2211
g4
sVcookies
p2212
(lp2213
sVstatusText
p2214
VNo Content
p2215
sVcontent
p2216
(dp2217
VmimeType
p2218
Vtext/html; charset=UTF-8
p2219
sVcomment
p2220
g4
sVsize
p2221
I0
ssVheaders
p2222
(lp2223
sVheadersSize
p2224
I248
sVredirectURL
p2225
g4
sVbodySize
p2226
I0
sVhttpVersion
p2227
VHTTP/1.1
p2228
ssa(dp2229
Vcomment
p2230
g4
sVserverIPAddress
p2231
V216.58.216.193
p2232
sVpageref
p2233
VDevin Booker
p2234
sVstartedDateTime
p2235
V2017-04-16T08:29:43.547-05:00
p2236
sVcache
p2237
(dp2238
sVrequest
p2239
(dp2240
Vcomment
p2241
g4
sVcookies
p2242
(lp2243
sVurl
p2244
Vhttps://secure-gravatar-com.cdn.ampproject.org/ii/w56/s/secure.gravatar.com/avatar/b7d4250806b5dda6180001b5610fa28e?s=24&d=mm&r=g
p2245
sVqueryString
p2246
(lp2247
(dp2248
Vname
p2249
g57
sVvalue
p2250
V24
p2251
sa(dp2252
Vname
p2253
Vd
p2254
sVvalue
p2255
Vmm
p2256
sa(dp2257
Vname
p2258
Vr
p2259
sVvalue
p2260
Vg
p2261
sasVheaders
p2262
(lp2263
sVheadersSize
p2264
I576
sVbodySize
p2265
I0
sVmethod
p2266
VGET
p2267
sVhttpVersion
p2268
VHTTP/1.1
p2269
ssVtimings
p2270
(dp2271
Vcomment
p2272
g4
sVreceive
p2273
I0
sVsend
p2274
I0
sVssl
p2275
I486
sVconnect
p2276
I506
sVdns
p2277
I34
sVwait
p2278
I91
sVblocked
p2279
I0
ssVtime
p2280
I633
sVresponse
p2281
(dp2282
Vstatus
p2283
I200
sVcomment
p2284
g4
sVcookies
p2285
(lp2286
sVstatusText
p2287
VOK
p2288
sVcontent
p2289
(dp2290
VmimeType
p2291
Vimage/jpeg
p2292
sVcomment
p2293
g4
sVsize
p2294
I0
ssVheaders
p2295
(lp2296
sVheadersSize
p2297
I843
sVredirectURL
p2298
g4
sVbodySize
p2299
I565
sVhttpVersion
p2300
VHTTP/1.1
p2301
ssa(dp2302
Vcomment
p2303
g4
sVserverIPAddress
p2304
V172.217.6.4
p2305
sVpageref
p2306
VDevin Booker
p2307
sVstartedDateTime
p2308
V2017-04-16T08:29:43.657-05:00
p2309
sVcache
p2310
(dp2311
sVrequest
p2312
(dp2313
Vcomment
p2314
g4
sVcookies
p2315
(lp2316
sVurl
p2317
Vhttps://www.google.com/gen_204?s=web&atyp=csi&ei=w3HzWJjRH4uijwSyorDABA&imc=50&imn=50&imp=31&adh=&xjs=init.40.15.sb_mob.31.dvl.3.mbsf.2.c.1.jsa.1&ima=21&rt=prt.846,iml.976,xjsls.847,dcl.980,xjses.1137,xjsee.1301,xjs.1302,qiml.1909,ol.3005,aft.910,wsrt.289,cst.0,dnst.0,rqst.1103,rspt.839,rqstt.3,unt.2,cstt.2,dit.1220
p2318
sVqueryString
p2319
(lp2320
(dp2321
Vname
p2322
g57
sVvalue
p2323
Vweb
p2324
sa(dp2325
Vname
p2326
Vatyp
p2327
sVvalue
p2328
Vcsi
p2329
sa(dp2330
Vname
p2331
Vei
p2332
sVvalue
p2333
Vw3HzWJjRH4uijwSyorDABA
p2334
sa(dp2335
Vname
p2336
Vimc
p2337
sVvalue
p2338
V50
p2339
sa(dp2340
Vname
p2341
Vimn
p2342
sVvalue
p2343
V50
p2344
sa(dp2345
Vname
p2346
Vimp
p2347
sVvalue
p2348
V31
p2349
sa(dp2350
Vname
p2351
Vadh
p2352
sVvalue
p2353
g4
sa(dp2354
Vname
p2355
Vxjs
p2356
sVvalue
p2357
Vinit.40.15.sb_mob.31.dvl.3.mbsf.2.c.1.jsa.1
p2358
sa(dp2359
Vname
p2360
Vima
p2361
sVvalue
p2362
V21
p2363
sa(dp2364
Vname
p2365
Vrt
p2366
sVvalue
p2367
Vprt.846,iml.976,xjsls.847,dcl.980,xjses.1137,xjsee.1301,xjs.1302,qiml.1909,ol.3005,aft.910,wsrt.289,cst.0,dnst.0,rqst.1103,rspt.839,rqstt.3,unt.2,cstt.2,dit.1220
p2368
sasVheaders
p2369
(lp2370
sVheadersSize
p2371
I834
sVbodySize
p2372
I0
sVmethod
p2373
VGET
p2374
sVhttpVersion
p2375
VHTTP/1.1
p2376
ssVtimings
p2377
(dp2378
Vcomment
p2379
g4
sVreceive
p2380
I0
sVsend
p2381
I0
sVssl
p2382
I-1
sVconnect
p2383
I-1
sVdns
p2384
I-1
sVwait
p2385
I27
sVblocked
p2386
I-1
ssVtime
p2387
I28
sVresponse
p2388
(dp2389
Vstatus
p2390
I204
sVcomment
p2391
g4
sVcookies
p2392
(lp2393
sVstatusText
p2394
VNo Content
p2395
sVcontent
p2396
(dp2397
VmimeType
p2398
Vtext/html; charset=UTF-8
p2399
sVcomment
p2400
g4
sVsize
p2401
I0
ssVheaders
p2402
(lp2403
sVheadersSize
p2404
I248
sVredirectURL
p2405
g4
sVbodySize
p2406
I0
sVhttpVersion
p2407
VHTTP/1.1
p2408
ssa(dp2409
Vcomment
p2410
g4
sVserverIPAddress
p2411
V172.217.6.4
p2412
sVpageref
p2413
VDevin Booker
p2414
sVstartedDateTime
p2415
V2017-04-16T08:29:43.667-05:00
p2416
sVcache
p2417
(dp2418
sVrequest
p2419
(dp2420
Vcomment
p2421
g4
sVcookies
p2422
(lp2423
sVurl
p2424
Vhttps://www.google.com/gen_204?s=amp&atyp=csi&ei=w3HzWJjRH4uijwSyorDABA&ampexp=011492014732688&action=Prerender&rt=pc.1
p2425
sVqueryString
p2426
(lp2427
(dp2428
Vname
p2429
g57
sVvalue
p2430
Vamp
p2431
sa(dp2432
Vname
p2433
Vatyp
p2434
sVvalue
p2435
Vcsi
p2436
sa(dp2437
Vname
p2438
Vei
p2439
sVvalue
p2440
Vw3HzWJjRH4uijwSyorDABA
p2441
sa(dp2442
Vname
p2443
Vampexp
p2444
sVvalue
p2445
V011492014732688
p2446
sa(dp2447
Vname
p2448
Vaction
p2449
sVvalue
p2450
VPrerender
p2451
sa(dp2452
Vname
p2453
Vrt
p2454
sVvalue
p2455
Vpc.1
p2456
sasVheaders
p2457
(lp2458
sVheadersSize
p2459
I636
sVbodySize
p2460
I0
sVmethod
p2461
VGET
p2462
sVhttpVersion
p2463
VHTTP/1.1
p2464
ssVtimings
p2465
(dp2466
Vcomment
p2467
g4
sVreceive
p2468
I0
sVsend
p2469
I0
sVssl
p2470
I-1
sVconnect
p2471
I-1
sVdns
p2472
I-1
sVwait
p2473
I28
sVblocked
p2474
I-1
ssVtime
p2475
I28
sVresponse
p2476
(dp2477
Vstatus
p2478
I204
sVcomment
p2479
g4
sVcookies
p2480
(lp2481
sVstatusText
p2482
VNo Content
p2483
sVcontent
p2484
(dp2485
VmimeType
p2486
Vtext/html; charset=UTF-8
p2487
sVcomment
p2488
g4
sVsize
p2489
I0
ssVheaders
p2490
(lp2491
sVheadersSize
p2492
I248
sVredirectURL
p2493
g4
sVbodySize
p2494
I0
sVhttpVersion
p2495
VHTTP/1.1
p2496
ssa(dp2497
Vcomment
p2498
g4
sVserverIPAddress
p2499
V172.217.6.4
p2500
sVpageref
p2501
VDevin Booker
p2502
sVstartedDateTime
p2503
V2017-04-16T08:29:43.678-05:00
p2504
sVcache
p2505
(dp2506
sVrequest
p2507
(dp2508
Vcomment
p2509
g4
sVcookies
p2510
(lp2511
sVurl
p2512
Vhttps://www.google.com/gen_204?s=amp&atyp=csi&ei=w3HzWJjRH4uijwSyorDABA&ampexp=011492014732688&action=Prerender&rt=ol.1119
p2513
sVqueryString
p2514
(lp2515
(dp2516
Vname
p2517
g57
sVvalue
p2518
Vamp
p2519
sa(dp2520
Vname
p2521
Vatyp
p2522
sVvalue
p2523
Vcsi
p2524
sa(dp2525
Vname
p2526
Vei
p2527
sVvalue
p2528
Vw3HzWJjRH4uijwSyorDABA
p2529
sa(dp2530
Vname
p2531
Vampexp
p2532
sVvalue
p2533
V011492014732688
p2534
sa(dp2535
Vname
p2536
Vaction
p2537
sVvalue
p2538
VPrerender
p2539
sa(dp2540
Vname
p2541
Vrt
p2542
sVvalue
p2543
Vol.1119
p2544
sasVheaders
p2545
(lp2546
sVheadersSize
p2547
I639
sVbodySize
p2548
I0
sVmethod
p2549
VGET
p2550
sVhttpVersion
p2551
VHTTP/1.1
p2552
ssVtimings
p2553
(dp2554
Vcomment
p2555
g4
sVreceive
p2556
I0
sVsend
p2557
I0
sVssl
p2558
I-1
sVconnect
p2559
I-1
sVdns
p2560
I-1
sVwait
p2561
I32
sVblocked
p2562
I-1
ssVtime
p2563
I32
sVresponse
p2564
(dp2565
Vstatus
p2566
I204
sVcomment
p2567
g4
sVcookies
p2568
(lp2569
sVstatusText
p2570
VNo Content
p2571
sVcontent
p2572
(dp2573
VmimeType
p2574
Vtext/html; charset=UTF-8
p2575
sVcomment
p2576
g4
sVsize
p2577
I0
ssVheaders
p2578
(lp2579
sVheadersSize
p2580
I248
sVredirectURL
p2581
g4
sVbodySize
p2582
I0
sVhttpVersion
p2583
VHTTP/1.1
p2584
ssa(dp2585
Vcomment
p2586
g4
sVserverIPAddress
p2587
V172.217.6.4
p2588
sVpageref
p2589
VDevin Booker
p2590
sVstartedDateTime
p2591
V2017-04-16T08:29:44.306-05:00
p2592
sVcache
p2593
(dp2594
sVrequest
p2595
(dp2596
Vcomment
p2597
g4
sVcookies
p2598
(lp2599
sVurl
p2600
Vhttps://www.google.com/gen_204?atyp=i&ct=slh&cad=&ei=iXHzWNK2MYmcjwTlprX4Bw&m=V&t=C&s=1&v=2&pv=0.26723701262739796&me=1:1492349325116,x:3,V,0,0,1280,944:0,N,1,iXHzWNK2MYmcjwTlprX4Bw:0,R,1,24,8,155,1249,647:0,R,1,25,8,155,1249,647:0,R,1,28,8,168,1249,40:0,R,1,41,8,220,1249,178:0,R,1,44,0,236,1265,197:0,R,1,84,8,415,1249,20:0,R,1,85,24,415,1217,20:0,R,1,93,8,451,1249,20:0,R,1,96,8,479,1249,20:0,R,1,145,24,812,1217,115:6,B,3405:17314,e,U&zx=1492349384304
p2601
sVqueryString
p2602
(lp2603
(dp2604
Vname
p2605
Vatyp
p2606
sVvalue
p2607
g30
sa(dp2608
Vname
p2609
Vct
p2610
sVvalue
p2611
Vslh
p2612
sa(dp2613
Vname
p2614
Vcad
p2615
sVvalue
p2616
g4
sa(dp2617
Vname
p2618
Vei
p2619
sVvalue
p2620
ViXHzWNK2MYmcjwTlprX4Bw
p2621
sa(dp2622
Vname
p2623
g47
sVvalue
p2624
g49
sa(dp2625
Vname
p2626
g52
sVvalue
p2627
g54
sa(dp2628
Vname
p2629
g57
sVvalue
p2630
g59
sa(dp2631
Vname
p2632
g62
sVvalue
p2633
g64
sa(dp2634
Vname
p2635
Vpv
p2636
sVvalue
p2637
V0.26723701262739796
p2638
sa(dp2639
Vname
p2640
Vme
p2641
sVvalue
p2642
V1:1492349325116,x:3,V,0,0,1280,944:0,N,1,iXHzWNK2MYmcjwTlprX4Bw:0,R,1,24,8,155,1249,647:0,R,1,25,8,155,1249,647:0,R,1,28,8,168,1249,40:0,R,1,41,8,220,1249,178:0,R,1,44,0,236,1265,197:0,R,1,84,8,415,1249,20:0,R,1,85,24,415,1217,20:0,R,1,93,8,451,1249,20:0,R,1,96,8,479,1249,20:0,R,1,145,24,812,1217,115:6,B,3405:17314,e,U
p2643
sa(dp2644
Vname
p2645
Vzx
p2646
sVvalue
p2647
V1492349384304
p2648
sasVheaders
p2649
(lp2650
sVheadersSize
p2651
I972
sVbodySize
p2652
I0
sVmethod
p2653
VGET
p2654
sVhttpVersion
p2655
VHTTP/1.1
p2656
ssVtimings
p2657
(dp2658
Vcomment
p2659
g4
sVreceive
p2660
I0
sVsend
p2661
I0
sVssl
p2662
I-1
sVconnect
p2663
I-1
sVdns
p2664
I-1
sVwait
p2665
I29
sVblocked
p2666
I-1
ssVtime
p2667
I30
sVresponse
p2668
(dp2669
Vstatus
p2670
I204
sVcomment
p2671
g4
sVcookies
p2672
(lp2673
sVstatusText
p2674
VNo Content
p2675
sVcontent
p2676
(dp2677
VmimeType
p2678
Vtext/html; charset=UTF-8
p2679
sVcomment
p2680
g4
sVsize
p2681
I0
ssVheaders
p2682
(lp2683
sVheadersSize
p2684
I248
sVredirectURL
p2685
g4
sVbodySize
p2686
I0
sVhttpVersion
p2687
VHTTP/1.1
p2688
ssasVversion
p2689
V1.2
p2690
sVpages
p2691
(lp2692
(dp2693
VpageTimings
p2694
(dp2695
Vcomment
p2696
g4
ssVcomment
p2697
g4
sVtitle
p2698
VDevin Booker
p2699
sVid
p2700
VDevin Booker
p2701
sVstartedDateTime
p2702
V2017-04-16T08:29:39.781-05:00
p2703
sasVcreator
p2704
(dp2705
Vcomment
p2706
g4
sVversion
p2707
V2.1.4
p2708
sVname
p2709
VBrowserMob Proxy
p2710
sss.