(dp0
Vlog
p1
(dp2
Vcomment
p3
V
p4
sVentries
p5
(lp6
(dp7
Vcomment
p8
g4
sVserverIPAddress
p9
V216.58.216.196
p10
sVpageref
p11
VMichael Phelps
p12
sVstartedDateTime
p13
V2017-04-16T08:02:01.740-05:00
p14
sVcache
p15
(dp16
sVrequest
p17
(dp18
Vcomment
p19
g4
sVcookies
p20
(lp21
sVurl
p22
Vhttps://www.google.com/gen_204?atyp=i&ct=slh&cad=&ei=PWvzWLDYEIisjwTmubGoBA&m=V&t=C&s=1&v=2&pv=0.5702041288211721&me=1:1492347712071,x:3,V,0,0,1280,944:0,N,1,PWvzWLDYEIisjwTmubGoBA:0,R,1,24,8,155,1249,528:0,R,1,28,8,268,1249,332:0,R,1,29,0,269,1265,351:0,R,1,60,8,600,1249,83:0,R,1,82,8,693,1249,395:0,R,1,83,8,693,1249,395:0,R,1,94,8,693,1249,116:0,R,1,106,8,822,1249,40:0,R,1,113,8,937,1249,20:0,R,1,114,24,937,1217,20:3,B,3048:9662,e,U&zx=1492347721739
p23
sVqueryString
p24
(lp25
(dp26
Vname
p27
Vatyp
p28
sVvalue
p29
Vi
p30
sa(dp31
Vname
p32
Vct
p33
sVvalue
p34
Vslh
p35
sa(dp36
Vname
p37
Vcad
p38
sVvalue
p39
g4
sa(dp40
Vname
p41
Vei
p42
sVvalue
p43
VPWvzWLDYEIisjwTmubGoBA
p44
sa(dp45
Vname
p46
Vm
p47
sVvalue
p48
VV
p49
sa(dp50
Vname
p51
Vt
p52
sVvalue
p53
VC
p54
sa(dp55
Vname
p56
Vs
p57
sVvalue
p58
V1
p59
sa(dp60
Vname
p61
Vv
p62
sVvalue
p63
V2
p64
sa(dp65
Vname
p66
Vpv
p67
sVvalue
p68
V0.5702041288211721
p69
sa(dp70
Vname
p71
Vme
p72
sVvalue
p73
V1:1492347712071,x:3,V,0,0,1280,944:0,N,1,PWvzWLDYEIisjwTmubGoBA:0,R,1,24,8,155,1249,528:0,R,1,28,8,268,1249,332:0,R,1,29,0,269,1265,351:0,R,1,60,8,600,1249,83:0,R,1,82,8,693,1249,395:0,R,1,83,8,693,1249,395:0,R,1,94,8,693,1249,116:0,R,1,106,8,822,1249,40:0,R,1,113,8,937,1249,20:0,R,1,114,24,937,1217,20:3,B,3048:9662,e,U
p74
sa(dp75
Vname
p76
Vzx
p77
sVvalue
p78
V1492347721739
p79
sasVheaders
p80
(lp81
sVheadersSize
p82
I972
sVbodySize
p83
I0
sVmethod
p84
VGET
p85
sVhttpVersion
p86
VHTTP/1.1
p87
ssVtimings
p88
(dp89
Vcomment
p90
g4
sVreceive
p91
I0
sVsend
p92
I0
sVssl
p93
I-1
sVconnect
p94
I-1
sVdns
p95
I-1
sVwait
p96
I0
sVblocked
p97
I-1
ssVtime
p98
I0
sVresponse
p99
(dp100
Vstatus
p101
I0
sVcomment
p102
g4
sVcookies
p103
(lp104
sV_error
p105
VNo response received
p106
sVstatusText
p107
g4
sVcontent
p108
(dp109
VmimeType
p110
g4
sVcomment
p111
g4
sVsize
p112
I0
ssVheaders
p113
(lp114
sVheadersSize
p115
I-1
sVredirectURL
p116
g4
sVbodySize
p117
I-1
sVhttpVersion
p118
Vunknown
p119
ssa(dp120
Vcomment
p121
g4
sVserverIPAddress
p122
V216.58.216.196
p123
sVpageref
p124
VMichael Phelps
p125
sVstartedDateTime
p126
V2017-04-16T08:02:01.744-05:00
p127
sVcache
p128
(dp129
sVrequest
p130
(dp131
Vcomment
p132
g4
sVcookies
p133
(lp134
sVurl
p135
Vhttp://www.google.com/
p136
sVqueryString
p137
(lp138
sVheaders
p139
(lp140
sVheadersSize
p141
I613
sVbodySize
p142
I0
sVmethod
p143
VGET
p144
sVhttpVersion
p145
VHTTP/1.1
p146
ssVtimings
p147
(dp148
Vcomment
p149
g4
sVreceive
p150
I0
sVsend
p151
I0
sVssl
p152
I-1
sVconnect
p153
I-1
sVdns
p154
I-1
sVwait
p155
I42
sVblocked
p156
I-1
ssVtime
p157
I43
sVresponse
p158
(dp159
Vstatus
p160
I302
sVcomment
p161
g4
sVcookies
p162
(lp163
sVstatusText
p164
VFound
p165
sVcontent
p166
(dp167
VmimeType
p168
Vtext/html; charset=UTF-8
p169
sVcomment
p170
g4
sVsize
p171
I0
ssVheaders
p172
(lp173
sVheadersSize
p174
I609
sVredirectURL
p175
Vhttps://www.google.com/?gws_rd=ssl
p176
sVbodySize
p177
I231
sVhttpVersion
p178
VHTTP/1.1
p179
ssa(dp180
Vcomment
p181
g4
sVserverIPAddress
p182
V216.58.216.196
p183
sVpageref
p184
VMichael Phelps
p185
sVstartedDateTime
p186
V2017-04-16T08:02:01.792-05:00
p187
sVcache
p188
(dp189
sVrequest
p190
(dp191
Vcomment
p192
g4
sVcookies
p193
(lp194
sVurl
p195
Vhttps://www.google.com/?gws_rd=ssl
p196
sVqueryString
p197
(lp198
(dp199
Vname
p200
Vgws_rd
p201
sVvalue
p202
Vssl
p203
sasVheaders
p204
(lp205
sVheadersSize
p206
I607
sVbodySize
p207
I0
sVmethod
p208
VGET
p209
sVhttpVersion
p210
VHTTP/1.1
p211
ssVtimings
p212
(dp213
Vcomment
p214
g4
sVreceive
p215
I6
sVsend
p216
I0
sVssl
p217
I-1
sVconnect
p218
I-1
sVdns
p219
I-1
sVwait
p220
I81
sVblocked
p221
I-1
ssVtime
p222
I88
sVresponse
p223
(dp224
Vstatus
p225
I200
sVcomment
p226
g4
sVcookies
p227
(lp228
sVstatusText
p229
VOK
p230
sVcontent
p231
(dp232
VmimeType
p233
Vtext/html; charset=UTF-8
p234
sVcomment
p235
g4
sVsize
p236
I0
ssVheaders
p237
(lp238
sVheadersSize
p239
I721
sVredirectURL
p240
g4
sVbodySize
p241
I34288
sVhttpVersion
p242
VHTTP/1.1
p243
ssa(dp244
Vcomment
p245
g4
sVserverIPAddress
p246
V216.58.216.196
p247
sVpageref
p248
VMichael Phelps
p249
sVstartedDateTime
p250
V2017-04-16T08:02:02.055-05:00
p251
sVcache
p252
(dp253
sVrequest
p254
(dp255
Vcomment
p256
g4
sVcookies
p257
(lp258
sVurl
p259
Vhttps://www.google.com/gen_204?s=mobilewebhp&atyp=csi&ei=SGvzWLWcMcaijwSWv6joDA&imc=1&imn=1&imp=0&adh=&xjs=init.22.12.sb_mob.15.dvl.3.c.1.jsa.1.mbsf.1&ima=1&rt=xjsls.9,prt.9,iml.9,dcl.30,xjses.64,xjsee.134,xjs.134,ol.160,aft.9,wsrt.153,cst.0,dnst.0,rqst.90,rspt.7,rqstt.53,unt.51,cstt.51,dit.172
p260
sVqueryString
p261
(lp262
(dp263
Vname
p264
g57
sVvalue
p265
Vmobilewebhp
p266
sa(dp267
Vname
p268
Vatyp
p269
sVvalue
p270
Vcsi
p271
sa(dp272
Vname
p273
Vei
p274
sVvalue
p275
VSGvzWLWcMcaijwSWv6joDA
p276
sa(dp277
Vname
p278
Vimc
p279
sVvalue
p280
g59
sa(dp281
Vname
p282
Vimn
p283
sVvalue
p284
g59
sa(dp285
Vname
p286
Vimp
p287
sVvalue
p288
V0
p289
sa(dp290
Vname
p291
Vadh
p292
sVvalue
p293
g4
sa(dp294
Vname
p295
Vxjs
p296
sVvalue
p297
Vinit.22.12.sb_mob.15.dvl.3.c.1.jsa.1.mbsf.1
p298
sa(dp299
Vname
p300
Vima
p301
sVvalue
p302
g59
sa(dp303
Vname
p304
Vrt
p305
sVvalue
p306
Vxjsls.9,prt.9,iml.9,dcl.30,xjses.64,xjsee.134,xjs.134,ol.160,aft.9,wsrt.153,cst.0,dnst.0,rqst.90,rspt.7,rqstt.53,unt.51,cstt.51,dit.172
p307
sasVheaders
p308
(lp309
sVheadersSize
p310
I823
sVbodySize
p311
I0
sVmethod
p312
VGET
p313
sVhttpVersion
p314
VHTTP/1.1
p315
ssVtimings
p316
(dp317
Vcomment
p318
g4
sVreceive
p319
I0
sVsend
p320
I0
sVssl
p321
I-1
sVconnect
p322
I-1
sVdns
p323
I-1
sVwait
p324
I29
sVblocked
p325
I-1
ssVtime
p326
I29
sVresponse
p327
(dp328
Vstatus
p329
I204
sVcomment
p330
g4
sVcookies
p331
(lp332
sVstatusText
p333
VNo Content
p334
sVcontent
p335
(dp336
VmimeType
p337
Vtext/html; charset=UTF-8
p338
sVcomment
p339
g4
sVsize
p340
I0
ssVheaders
p341
(lp342
sVheadersSize
p343
I248
sVredirectURL
p344
g4
sVbodySize
p345
I0
sVhttpVersion
p346
VHTTP/1.1
p347
ssa(dp348
Vcomment
p349
g4
sVserverIPAddress
p350
V216.58.216.196
p351
sVpageref
p352
VMichael Phelps
p353
sVstartedDateTime
p354
V2017-04-16T08:02:02.177-05:00
p355
sVcache
p356
(dp357
sVrequest
p358
(dp359
Vcomment
p360
g4
sVcookies
p361
(lp362
sVurl
p363
Vhttps://www.google.com/complete/search?client=mobile-gws-hp&hl=en&gs_rn=64&gs_ri=mobile-gws-hp&sla=1&gm=602&cp=0&gs_id=1&xhr=t&q=M&tch=1&ech=1&psi=SGvzWLWcMcaijwSWv6joDA.1492347722005.1
p364
sVqueryString
p365
(lp366
(dp367
Vname
p368
Vclient
p369
sVvalue
p370
Vmobile-gws-hp
p371
sa(dp372
Vname
p373
Vhl
p374
sVvalue
p375
Ven
p376
sa(dp377
Vname
p378
Vgs_rn
p379
sVvalue
p380
V64
p381
sa(dp382
Vname
p383
Vgs_ri
p384
sVvalue
p385
Vmobile-gws-hp
p386
sa(dp387
Vname
p388
Vsla
p389
sVvalue
p390
g59
sa(dp391
Vname
p392
Vgm
p393
sVvalue
p394
V602
p395
sa(dp396
Vname
p397
Vcp
p398
sVvalue
p399
g289
sa(dp400
Vname
p401
Vgs_id
p402
sVvalue
p403
g59
sa(dp404
Vname
p405
Vxhr
p406
sVvalue
p407
g52
sa(dp408
Vname
p409
Vq
p410
sVvalue
p411
VM
p412
sa(dp413
Vname
p414
Vtch
p415
sVvalue
p416
g59
sa(dp417
Vname
p418
Vech
p419
sVvalue
p420
g59
sa(dp421
Vname
p422
Vpsi
p423
sVvalue
p424
VSGvzWLWcMcaijwSWv6joDA.1492347722005.1
p425
sasVheaders
p426
(lp427
sVheadersSize
p428
I713
sVbodySize
p429
I0
sVmethod
p430
VGET
p431
sVhttpVersion
p432
VHTTP/1.1
p433
ssVtimings
p434
(dp435
Vcomment
p436
g4
sVreceive
p437
I0
sVsend
p438
I0
sVssl
p439
I-1
sVconnect
p440
I-1
sVdns
p441
I-1
sVwait
p442
I0
sVblocked
p443
I-1
ssVtime
p444
I0
sVresponse
p445
(dp446
Vstatus
p447
I0
sVcomment
p448
g4
sVcookies
p449
(lp450
sV_error
p451
VNo response received
p452
sVstatusText
p453
g4
sVcontent
p454
(dp455
VmimeType
p456
g4
sVcomment
p457
g4
sVsize
p458
I0
ssVheaders
p459
(lp460
sVheadersSize
p461
I-1
sVredirectURL
p462
g4
sVbodySize
p463
I-1
sVhttpVersion
p464
Vunknown
p465
ssa(dp466
Vcomment
p467
g4
sVserverIPAddress
p468
V216.58.216.196
p469
sVpageref
p470
VMichael Phelps
p471
sVstartedDateTime
p472
V2017-04-16T08:02:02.237-05:00
p473
sVcache
p474
(dp475
sVrequest
p476
(dp477
Vcomment
p478
g4
sVcookies
p479
(lp480
sVurl
p481
Vhttps://www.google.com/search?site=&source=hp&ei=SGvzWLWcMcaijwSWv6joDA&q=Michael+Phelps&oq=Michael+Phelps&gs_l=mobile-gws-hp.3...155.189.0.211.14.1.0.0.0.0.0.0..0.0....0...1c.1.64.mobile-gws-hp..14.0.0.fla95kDivdM
p482
sVqueryString
p483
(lp484
(dp485
Vname
p486
Vsite
p487
sVvalue
p488
g4
sa(dp489
Vname
p490
Vsource
p491
sVvalue
p492
Vhp
p493
sa(dp494
Vname
p495
Vei
p496
sVvalue
p497
VSGvzWLWcMcaijwSWv6joDA
p498
sa(dp499
Vname
p500
g410
sVvalue
p501
VMichael Phelps
p502
sa(dp503
Vname
p504
Voq
p505
sVvalue
p506
VMichael Phelps
p507
sa(dp508
Vname
p509
Vgs_l
p510
sVvalue
p511
Vmobile-gws-hp.3...155.189.0.211.14.1.0.0.0.0.0.0..0.0....0...1c.1.64.mobile-gws-hp..14.0.0.fla95kDivdM
p512
sasVheaders
p513
(lp514
sVheadersSize
p515
I832
sVbodySize
p516
I0
sVmethod
p517
VGET
p518
sVhttpVersion
p519
VHTTP/1.1
p520
ssVtimings
p521
(dp522
Vcomment
p523
g4
sVreceive
p524
I887
sVsend
p525
I2
sVssl
p526
I-1
sVconnect
p527
I-1
sVdns
p528
I-1
sVwait
p529
I77
sVblocked
p530
I-1
ssVtime
p531
I966
sVresponse
p532
(dp533
Vstatus
p534
I200
sVcomment
p535
g4
sVcookies
p536
(lp537
sVstatusText
p538
VOK
p539
sVcontent
p540
(dp541
VmimeType
p542
Vtext/html; charset=UTF-8
p543
sVcomment
p544
g4
sVsize
p545
I0
ssVheaders
p546
(lp547
sVheadersSize
p548
I363
sVredirectURL
p549
g4
sVbodySize
p550
I113500
sVhttpVersion
p551
VHTTP/1.1
p552
ssa(dp553
Vcomment
p554
g4
sVserverIPAddress
p555
V216.58.216.196
p556
sVpageref
p557
VMichael Phelps
p558
sVstartedDateTime
p559
V2017-04-16T08:02:03.654-05:00
p560
sVcache
p561
(dp562
sVrequest
p563
(dp564
Vcomment
p565
g4
sVcookies
p566
(lp567
sVurl
p568
Vhttps://www.google.com/async/irc?vet=10ahUKEwihibq-hKnTAhWp24MKHelJCgIQo0EI7QE..i&ved=0ahUKEwihibq-hKnTAhWp24MKHelJCgIQo0EI7QE&ei=SWvzWOHAD6m3jwTpk6kQ&yv=2&async=iu:1,ved:0ahUKEwihibq-hKnTAhWp24MKHelJCgIQo0EI7QE,_id:irc_async,_pms:qs
p569
sVqueryString
p570
(lp571
(dp572
Vname
p573
Vvet
p574
sVvalue
p575
V10ahUKEwihibq-hKnTAhWp24MKHelJCgIQo0EI7QE..i
p576
sa(dp577
Vname
p578
Vved
p579
sVvalue
p580
V0ahUKEwihibq-hKnTAhWp24MKHelJCgIQo0EI7QE
p581
sa(dp582
Vname
p583
Vei
p584
sVvalue
p585
VSWvzWOHAD6m3jwTpk6kQ
p586
sa(dp587
Vname
p588
Vyv
p589
sVvalue
p590
g64
sa(dp591
Vname
p592
Vasync
p593
sVvalue
p594
Viu:1,ved:0ahUKEwihibq-hKnTAhWp24MKHelJCgIQo0EI7QE,_id:irc_async,_pms:qs
p595
sasVheaders
p596
(lp597
sVheadersSize
p598
I750
sVbodySize
p599
I0
sVmethod
p600
VGET
p601
sVhttpVersion
p602
VHTTP/1.1
p603
ssVtimings
p604
(dp605
Vcomment
p606
g4
sVreceive
p607
I1
sVsend
p608
I0
sVssl
p609
I-1
sVconnect
p610
I-1
sVdns
p611
I-1
sVwait
p612
I46
sVblocked
p613
I-1
ssVtime
p614
I48
sVresponse
p615
(dp616
Vstatus
p617
I200
sVcomment
p618
g4
sVcookies
p619
(lp620
sVstatusText
p621
VOK
p622
sVcontent
p623
(dp624
VmimeType
p625
Vtext/html; charset=UTF-8
p626
sVcomment
p627
g4
sVsize
p628
I0
ssVheaders
p629
(lp630
sVheadersSize
p631
I383
sVredirectURL
p632
g4
sVbodySize
p633
I7791
sVhttpVersion
p634
VHTTP/1.1
p635
ssa(dp636
Vcomment
p637
g4
sVserverIPAddress
p638
V216.58.216.196
p639
sVpageref
p640
VMichael Phelps
p641
sVstartedDateTime
p642
V2017-04-16T08:02:03.700-05:00
p643
sVcache
p644
(dp645
sVrequest
p646
(dp647
Vcomment
p648
g4
sVcookies
p649
(lp650
sVurl
p651
Vhttps://www.google.com/gen_204?atyp=i&ct=&cad=&vet=10ahUKEwihibq-hKnTAhWp24MKHelJCgIQ5W0IMygC..s&ei=SWvzWOHAD6m3jwTpk6kQ&zx=1492347723663
p652
sVqueryString
p653
(lp654
(dp655
Vname
p656
Vatyp
p657
sVvalue
p658
g30
sa(dp659
Vname
p660
Vct
p661
sVvalue
p662
g4
sa(dp663
Vname
p664
Vcad
p665
sVvalue
p666
g4
sa(dp667
Vname
p668
Vvet
p669
sVvalue
p670
V10ahUKEwihibq-hKnTAhWp24MKHelJCgIQ5W0IMygC..s
p671
sa(dp672
Vname
p673
Vei
p674
sVvalue
p675
VSWvzWOHAD6m3jwTpk6kQ
p676
sa(dp677
Vname
p678
Vzx
p679
sVvalue
p680
V1492347723663
p681
sasVheaders
p682
(lp683
sVheadersSize
p684
I654
sVbodySize
p685
I0
sVmethod
p686
VGET
p687
sVhttpVersion
p688
VHTTP/1.1
p689
ssVtimings
p690
(dp691
Vcomment
p692
g4
sVreceive
p693
I0
sVsend
p694
I0
sVssl
p695
I16
sVconnect
p696
I34
sVdns
p697
I0
sVwait
p698
I28
sVblocked
p699
I0
ssVtime
p700
I63
sVresponse
p701
(dp702
Vstatus
p703
I204
sVcomment
p704
g4
sVcookies
p705
(lp706
sVstatusText
p707
VNo Content
p708
sVcontent
p709
(dp710
VmimeType
p711
Vtext/html; charset=UTF-8
p712
sVcomment
p713
g4
sVsize
p714
I0
ssVheaders
p715
(lp716
sVheadersSize
p717
I248
sVredirectURL
p718
g4
sVbodySize
p719
I0
sVhttpVersion
p720
VHTTP/1.1
p721
ssa(dp722
Vcomment
p723
g4
sVserverIPAddress
p724
V216.58.216.196
p725
sVpageref
p726
VMichael Phelps
p727
sVstartedDateTime
p728
V2017-04-16T08:02:03.720-05:00
p729
sVcache
p730
(dp731
sVrequest
p732
(dp733
Vcomment
p734
g4
sVcookies
p735
(lp736
sVurl
p737
Vhttps://www.google.com/gen_204?atyp=i&ct=&cad=&vet=10ahUKEwihibq-hKnTAhWp24MKHelJCgIQ5W0INigD..s&ei=SWvzWOHAD6m3jwTpk6kQ&zx=1492347723667
p738
sVqueryString
p739
(lp740
(dp741
Vname
p742
Vatyp
p743
sVvalue
p744
g30
sa(dp745
Vname
p746
Vct
p747
sVvalue
p748
g4
sa(dp749
Vname
p750
Vcad
p751
sVvalue
p752
g4
sa(dp753
Vname
p754
Vvet
p755
sVvalue
p756
V10ahUKEwihibq-hKnTAhWp24MKHelJCgIQ5W0INigD..s
p757
sa(dp758
Vname
p759
Vei
p760
sVvalue
p761
VSWvzWOHAD6m3jwTpk6kQ
p762
sa(dp763
Vname
p764
Vzx
p765
sVvalue
p766
V1492347723667
p767
sasVheaders
p768
(lp769
sVheadersSize
p770
I654
sVbodySize
p771
I0
sVmethod
p772
VGET
p773
sVhttpVersion
p774
VHTTP/1.1
p775
ssVtimings
p776
(dp777
Vcomment
p778
g4
sVreceive
p779
I0
sVsend
p780
I0
sVssl
p781
I35
sVconnect
p782
I51
sVdns
p783
I0
sVwait
p784
I28
sVblocked
p785
I0
ssVtime
p786
I79
sVresponse
p787
(dp788
Vstatus
p789
I204
sVcomment
p790
g4
sVcookies
p791
(lp792
sVstatusText
p793
VNo Content
p794
sVcontent
p795
(dp796
VmimeType
p797
Vtext/html; charset=UTF-8
p798
sVcomment
p799
g4
sVsize
p800
I0
ssVheaders
p801
(lp802
sVheadersSize
p803
I248
sVredirectURL
p804
g4
sVbodySize
p805
I0
sVhttpVersion
p806
VHTTP/1.1
p807
ssa(dp808
Vcomment
p809
g4
sVserverIPAddress
p810
V216.58.216.196
p811
sVpageref
p812
VMichael Phelps
p813
sVstartedDateTime
p814
V2017-04-16T08:02:03.721-05:00
p815
sVcache
p816
(dp817
sVrequest
p818
(dp819
Vcomment
p820
g4
sVcookies
p821
(lp822
sVurl
p823
Vhttps://www.google.com/gen_204?atyp=i&ct=&cad=&vet=10ahUKEwihibq-hKnTAhWp24MKHelJCgIQ5W0IOSgE..s&ei=SWvzWOHAD6m3jwTpk6kQ&zx=1492347723670
p824
sVqueryString
p825
(lp826
(dp827
Vname
p828
Vatyp
p829
sVvalue
p830
g30
sa(dp831
Vname
p832
Vct
p833
sVvalue
p834
g4
sa(dp835
Vname
p836
Vcad
p837
sVvalue
p838
g4
sa(dp839
Vname
p840
Vvet
p841
sVvalue
p842
V10ahUKEwihibq-hKnTAhWp24MKHelJCgIQ5W0IOSgE..s
p843
sa(dp844
Vname
p845
Vei
p846
sVvalue
p847
VSWvzWOHAD6m3jwTpk6kQ
p848
sa(dp849
Vname
p850
Vzx
p851
sVvalue
p852
V1492347723670
p853
sasVheaders
p854
(lp855
sVheadersSize
p856
I654
sVbodySize
p857
I0
sVmethod
p858
VGET
p859
sVhttpVersion
p860
VHTTP/1.1
p861
ssVtimings
p862
(dp863
Vcomment
p864
g4
sVreceive
p865
I0
sVsend
p866
I0
sVssl
p867
I22
sVconnect
p868
I48
sVdns
p869
I0
sVwait
p870
I26
sVblocked
p871
I0
ssVtime
p872
I75
sVresponse
p873
(dp874
Vstatus
p875
I204
sVcomment
p876
g4
sVcookies
p877
(lp878
sVstatusText
p879
VNo Content
p880
sVcontent
p881
(dp882
VmimeType
p883
Vtext/html; charset=UTF-8
p884
sVcomment
p885
g4
sVsize
p886
I0
ssVheaders
p887
(lp888
sVheadersSize
p889
I248
sVredirectURL
p890
g4
sVbodySize
p891
I0
sVhttpVersion
p892
VHTTP/1.1
p893
ssa(dp894
Vcomment
p895
g4
sVserverIPAddress
p896
V216.58.216.196
p897
sVpageref
p898
VMichael Phelps
p899
sVstartedDateTime
p900
V2017-04-16T08:02:03.721-05:00
p901
sVcache
p902
(dp903
sVrequest
p904
(dp905
Vcomment
p906
g4
sVcookies
p907
(lp908
sVurl
p909
Vhttps://www.google.com/gen_204?atyp=i&ct=&cad=&vet=10ahUKEwihibq-hKnTAhWp24MKHelJCgIQ5W0IPCgF..s&ei=SWvzWOHAD6m3jwTpk6kQ&zx=1492347723672
p910
sVqueryString
p911
(lp912
(dp913
Vname
p914
Vatyp
p915
sVvalue
p916
g30
sa(dp917
Vname
p918
Vct
p919
sVvalue
p920
g4
sa(dp921
Vname
p922
Vcad
p923
sVvalue
p924
g4
sa(dp925
Vname
p926
Vvet
p927
sVvalue
p928
V10ahUKEwihibq-hKnTAhWp24MKHelJCgIQ5W0IPCgF..s
p929
sa(dp930
Vname
p931
Vei
p932
sVvalue
p933
VSWvzWOHAD6m3jwTpk6kQ
p934
sa(dp935
Vname
p936
Vzx
p937
sVvalue
p938
V1492347723672
p939
sasVheaders
p940
(lp941
sVheadersSize
p942
I654
sVbodySize
p943
I0
sVmethod
p944
VGET
p945
sVhttpVersion
p946
VHTTP/1.1
p947
ssVtimings
p948
(dp949
Vcomment
p950
g4
sVreceive
p951
I0
sVsend
p952
I0
sVssl
p953
I34
sVconnect
p954
I46
sVdns
p955
I0
sVwait
p956
I209
sVblocked
p957
I0
ssVtime
p958
I255
sVresponse
p959
(dp960
Vstatus
p961
I204
sVcomment
p962
g4
sVcookies
p963
(lp964
sVstatusText
p965
VNo Content
p966
sVcontent
p967
(dp968
VmimeType
p969
Vtext/html; charset=UTF-8
p970
sVcomment
p971
g4
sVsize
p972
I0
ssVheaders
p973
(lp974
sVheadersSize
p975
I248
sVredirectURL
p976
g4
sVbodySize
p977
I0
sVhttpVersion
p978
VHTTP/1.1
p979
ssa(dp980
Vcomment
p981
g4
sVserverIPAddress
p982
V216.58.216.196
p983
sVpageref
p984
VMichael Phelps
p985
sVstartedDateTime
p986
V2017-04-16T08:02:03.721-05:00
p987
sVcache
p988
(dp989
sVrequest
p990
(dp991
Vcomment
p992
g4
sVcookies
p993
(lp994
sVurl
p995
Vhttps://www.google.com/gen_204?atyp=i&ct=&cad=&vet=10ahUKEwihibq-hKnTAhWp24MKHelJCgIQ5W0IPygG..s&ei=SWvzWOHAD6m3jwTpk6kQ&zx=1492347723674
p996
sVqueryString
p997
(lp998
(dp999
Vname
p1000
Vatyp
p1001
sVvalue
p1002
g30
sa(dp1003
Vname
p1004
Vct
p1005
sVvalue
p1006
g4
sa(dp1007
Vname
p1008
Vcad
p1009
sVvalue
p1010
g4
sa(dp1011
Vname
p1012
Vvet
p1013
sVvalue
p1014
V10ahUKEwihibq-hKnTAhWp24MKHelJCgIQ5W0IPygG..s
p1015
sa(dp1016
Vname
p1017
Vei
p1018
sVvalue
p1019
VSWvzWOHAD6m3jwTpk6kQ
p1020
sa(dp1021
Vname
p1022
Vzx
p1023
sVvalue
p1024
V1492347723674
p1025
sasVheaders
p1026
(lp1027
sVheadersSize
p1028
I654
sVbodySize
p1029
I0
sVmethod
p1030
VGET
p1031
sVhttpVersion
p1032
VHTTP/1.1
p1033
ssVtimings
p1034
(dp1035
Vcomment
p1036
g4
sVreceive
p1037
I0
sVsend
p1038
I0
sVssl
p1039
I23
sVconnect
p1040
I44
sVdns
p1041
I0
sVwait
p1042
I26
sVblocked
p1043
I0
ssVtime
p1044
I71
sVresponse
p1045
(dp1046
Vstatus
p1047
I204
sVcomment
p1048
g4
sVcookies
p1049
(lp1050
sVstatusText
p1051
VNo Content
p1052
sVcontent
p1053
(dp1054
VmimeType
p1055
Vtext/html; charset=UTF-8
p1056
sVcomment
p1057
g4
sVsize
p1058
I0
ssVheaders
p1059
(lp1060
sVheadersSize
p1061
I248
sVredirectURL
p1062
g4
sVbodySize
p1063
I0
sVhttpVersion
p1064
VHTTP/1.1
p1065
ssa(dp1066
Vcomment
p1067
g4
sVserverIPAddress
p1068
V216.58.216.196
p1069
sVpageref
p1070
VMichael Phelps
p1071
sVstartedDateTime
p1072
V2017-04-16T08:02:03.740-05:00
p1073
sVcache
p1074
(dp1075
sVrequest
p1076
(dp1077
Vcomment
p1078
g4
sVcookies
p1079
(lp1080
sVurl
p1081
Vhttps://www.google.com/async/ampfp?vet=10ahUKEwihibq-hKnTAhWp24MKHelJCgIQtZoBCOsB..i&ei=SWvzWOHAD6m3jwTpk6kQ&yv=2&async=_id:ampfp-async,_pms:qs
p1082
sVqueryString
p1083
(lp1084
(dp1085
Vname
p1086
Vvet
p1087
sVvalue
p1088
V10ahUKEwihibq-hKnTAhWp24MKHelJCgIQtZoBCOsB..i
p1089
sa(dp1090
Vname
p1091
Vei
p1092
sVvalue
p1093
VSWvzWOHAD6m3jwTpk6kQ
p1094
sa(dp1095
Vname
p1096
Vyv
p1097
sVvalue
p1098
g64
sa(dp1099
Vname
p1100
Vasync
p1101
sVvalue
p1102
V_id:ampfp-async,_pms:qs
p1103
sasVheaders
p1104
(lp1105
sVheadersSize
p1106
I660
sVbodySize
p1107
I0
sVmethod
p1108
VGET
p1109
sVhttpVersion
p1110
VHTTP/1.1
p1111
ssVtimings
p1112
(dp1113
Vcomment
p1114
g4
sVreceive
p1115
I0
sVsend
p1116
I0
sVssl
p1117
I-1
sVconnect
p1118
I-1
sVdns
p1119
I-1
sVwait
p1120
I35
sVblocked
p1121
I-1
ssVtime
p1122
I36
sVresponse
p1123
(dp1124
Vstatus
p1125
I200
sVcomment
p1126
g4
sVcookies
p1127
(lp1128
sVstatusText
p1129
VOK
p1130
sVcontent
p1131
(dp1132
VmimeType
p1133
Vtext/html; charset=UTF-8
p1134
sVcomment
p1135
g4
sVsize
p1136
I0
ssVheaders
p1137
(lp1138
sVheadersSize
p1139
I383
sVredirectURL
p1140
g4
sVbodySize
p1141
I4523
sVhttpVersion
p1142
VHTTP/1.1
p1143
ssa(dp1144
Vcomment
p1145
g4
sVserverIPAddress
p1146
V216.58.216.193
p1147
sVpageref
p1148
VMichael Phelps
p1149
sVstartedDateTime
p1150
V2017-04-16T08:02:03.740-05:00
p1151
sVcache
p1152
(dp1153
sVrequest
p1154
(dp1155
Vcomment
p1156
g4
sVcookies
p1157
(lp1158
sVurl
p1159
Vhttps://cdn.ampproject.org/preconnect.gif?0.6873889219107124
p1160
sVqueryString
p1161
(lp1162
(dp1163
Vname
p1164
V0.6873889219107124
p1165
sVvalue
p1166
g4
sasVheaders
p1167
(lp1168
sVheadersSize
p1169
I375
sVbodySize
p1170
I0
sVmethod
p1171
VGET
p1172
sVhttpVersion
p1173
VHTTP/1.1
p1174
ssVtimings
p1175
(dp1176
Vcomment
p1177
g4
sVreceive
p1178
I0
sVsend
p1179
I0
sVssl
p1180
I-1
sVconnect
p1181
I-1
sVdns
p1182
I-1
sVwait
p1183
I29
sVblocked
p1184
I-1
ssVtime
p1185
I29
sVresponse
p1186
(dp1187
Vstatus
p1188
I200
sVcomment
p1189
g4
sVcookies
p1190
(lp1191
sVstatusText
p1192
VOK
p1193
sVcontent
p1194
(dp1195
VmimeType
p1196
Vimage/gif
p1197
sVcomment
p1198
g4
sVsize
p1199
I0
ssVheaders
p1200
(lp1201
sVheadersSize
p1202
I826
sVredirectURL
p1203
g4
sVbodySize
p1204
I37
sVhttpVersion
p1205
VHTTP/1.1
p1206
ssa(dp1207
Vcomment
p1208
g4
sVserverIPAddress
p1209
V216.58.216.206
p1210
sVpageref
p1211
VMichael Phelps
p1212
sVstartedDateTime
p1213
V2017-04-16T08:02:03.759-05:00
p1214
sVcache
p1215
(dp1216
sVrequest
p1217
(dp1218
Vcomment
p1219
g4
sVcookies
p1220
(lp1221
sVurl
p1222
Vhttps://encrypted-tbn3.gstatic.com/images?q=tbn:ANd9GcRExU-sEMmWUf5LkoNvggCcYD1tmdbkE-k0N4tN_3sT88xCb_Mbx44168na
p1223
sVqueryString
p1224
(lp1225
(dp1226
Vname
p1227
g410
sVvalue
p1228
Vtbn:ANd9GcRExU-sEMmWUf5LkoNvggCcYD1tmdbkE-k0N4tN_3sT88xCb_Mbx44168na
p1229
sasVheaders
p1230
(lp1231
sVheadersSize
p1232
I427
sVbodySize
p1233
I0
sVmethod
p1234
VGET
p1235
sVhttpVersion
p1236
VHTTP/1.1
p1237
ssVtimings
p1238
(dp1239
Vcomment
p1240
g4
sVreceive
p1241
I2
sVsend
p1242
I0
sVssl
p1243
I-1
sVconnect
p1244
I-1
sVdns
p1245
I-1
sVwait
p1246
I13
sVblocked
p1247
I-1
ssVtime
p1248
I15
sVresponse
p1249
(dp1250
Vstatus
p1251
I200
sVcomment
p1252
g4
sVcookies
p1253
(lp1254
sVstatusText
p1255
VOK
p1256
sVcontent
p1257
(dp1258
VmimeType
p1259
Vimage/jpeg
p1260
sVcomment
p1261
g4
sVsize
p1262
I0
ssVheaders
p1263
(lp1264
sVheadersSize
p1265
I428
sVredirectURL
p1266
g4
sVbodySize
p1267
I4724
sVhttpVersion
p1268
VHTTP/1.1
p1269
ssa(dp1270
Vcomment
p1271
g4
sVserverIPAddress
p1272
V216.58.216.206
p1273
sVpageref
p1274
VMichael Phelps
p1275
sVstartedDateTime
p1276
V2017-04-16T08:02:03.760-05:00
p1277
sVcache
p1278
(dp1279
sVrequest
p1280
(dp1281
Vcomment
p1282
g4
sVcookies
p1283
(lp1284
sVurl
p1285
Vhttps://encrypted-tbn2.gstatic.com/images?q=tbn:ANd9GcSPitU_JMFcjTkpi0S4_XOG4EHZAnl4sNjFuIQ_yBWgBi3_tOhB6dI3pfel
p1286
sVqueryString
p1287
(lp1288
(dp1289
Vname
p1290
g410
sVvalue
p1291
Vtbn:ANd9GcSPitU_JMFcjTkpi0S4_XOG4EHZAnl4sNjFuIQ_yBWgBi3_tOhB6dI3pfel
p1292
sasVheaders
p1293
(lp1294
sVheadersSize
p1295
I427
sVbodySize
p1296
I0
sVmethod
p1297
VGET
p1298
sVhttpVersion
p1299
VHTTP/1.1
p1300
ssVtimings
p1301
(dp1302
Vcomment
p1303
g4
sVreceive
p1304
I3
sVsend
p1305
I0
sVssl
p1306
I-1
sVconnect
p1307
I-1
sVdns
p1308
I-1
sVwait
p1309
I18
sVblocked
p1310
I-1
ssVtime
p1311
I22
sVresponse
p1312
(dp1313
Vstatus
p1314
I200
sVcomment
p1315
g4
sVcookies
p1316
(lp1317
sVstatusText
p1318
VOK
p1319
sVcontent
p1320
(dp1321
VmimeType
p1322
Vimage/jpeg
p1323
sVcomment
p1324
g4
sVsize
p1325
I0
ssVheaders
p1326
(lp1327
sVheadersSize
p1328
I428
sVredirectURL
p1329
g4
sVbodySize
p1330
I7754
sVhttpVersion
p1331
VHTTP/1.1
p1332
ssa(dp1333
Vcomment
p1334
g4
sVserverIPAddress
p1335
V216.58.216.206
p1336
sVpageref
p1337
VMichael Phelps
p1338
sVstartedDateTime
p1339
V2017-04-16T08:02:03.760-05:00
p1340
sVcache
p1341
(dp1342
sVrequest
p1343
(dp1344
Vcomment
p1345
g4
sVcookies
p1346
(lp1347
sVurl
p1348
Vhttps://encrypted-tbn1.gstatic.com/images?q=tbn:ANd9GcS_MS7uEuaS4USpxf9Nl3V5M_0ILEQkjTvcYuejqmTAtOlG5uK9y-hTghR_
p1349
sVqueryString
p1350
(lp1351
(dp1352
Vname
p1353
g410
sVvalue
p1354
Vtbn:ANd9GcS_MS7uEuaS4USpxf9Nl3V5M_0ILEQkjTvcYuejqmTAtOlG5uK9y-hTghR_
p1355
sasVheaders
p1356
(lp1357
sVheadersSize
p1358
I427
sVbodySize
p1359
I0
sVmethod
p1360
VGET
p1361
sVhttpVersion
p1362
VHTTP/1.1
p1363
ssVtimings
p1364
(dp1365
Vcomment
p1366
g4
sVreceive
p1367
I1
sVsend
p1368
I0
sVssl
p1369
I-1
sVconnect
p1370
I-1
sVdns
p1371
I-1
sVwait
p1372
I19
sVblocked
p1373
I-1
ssVtime
p1374
I21
sVresponse
p1375
(dp1376
Vstatus
p1377
I200
sVcomment
p1378
g4
sVcookies
p1379
(lp1380
sVstatusText
p1381
VOK
p1382
sVcontent
p1383
(dp1384
VmimeType
p1385
Vimage/jpeg
p1386
sVcomment
p1387
g4
sVsize
p1388
I0
ssVheaders
p1389
(lp1390
sVheadersSize
p1391
I429
sVredirectURL
p1392
g4
sVbodySize
p1393
I10393
sVhttpVersion
p1394
VHTTP/1.1
p1395
ssa(dp1396
Vcomment
p1397
g4
sVserverIPAddress
p1398
V216.58.216.196
p1399
sVpageref
p1400
VMichael Phelps
p1401
sVstartedDateTime
p1402
V2017-04-16T08:02:03.869-05:00
p1403
sVcache
p1404
(dp1405
sVrequest
p1406
(dp1407
Vcomment
p1408
g4
sVcookies
p1409
(lp1410
sVurl
p1411
Vhttps://www.google.com/async/log_amp_item_set?vet=10ahUKEwjc0pW_hKnTAhWo6YMKHV83COcQooQBCAE..i&ei=SWvzWOHAD6m3jwTpk6kQ&yv=2&async=num_items:1,_fmt:jspb
p1412
sVqueryString
p1413
(lp1414
(dp1415
Vname
p1416
Vvet
p1417
sVvalue
p1418
V10ahUKEwjc0pW_hKnTAhWo6YMKHV83COcQooQBCAE..i
p1419
sa(dp1420
Vname
p1421
Vei
p1422
sVvalue
p1423
VSWvzWOHAD6m3jwTpk6kQ
p1424
sa(dp1425
Vname
p1426
Vyv
p1427
sVvalue
p1428
g64
sa(dp1429
Vname
p1430
Vasync
p1431
sVvalue
p1432
Vnum_items:1,_fmt:jspb
p1433
sasVheaders
p1434
(lp1435
sVheadersSize
p1436
I668
sVbodySize
p1437
I0
sVmethod
p1438
VGET
p1439
sVhttpVersion
p1440
VHTTP/1.1
p1441
ssVtimings
p1442
(dp1443
Vcomment
p1444
g4
sVreceive
p1445
I0
sVsend
p1446
I0
sVssl
p1447
I-1
sVconnect
p1448
I-1
sVdns
p1449
I-1
sVwait
p1450
I33
sVblocked
p1451
I-1
ssVtime
p1452
I34
sVresponse
p1453
(dp1454
Vstatus
p1455
I200
sVcomment
p1456
g4
sVcookies
p1457
(lp1458
sVstatusText
p1459
VOK
p1460
sVcontent
p1461
(dp1462
VmimeType
p1463
Vapplication/json; charset=UTF-8
p1464
sVcomment
p1465
g4
sVsize
p1466
I0
ssVheaders
p1467
(lp1468
sVheadersSize
p1469
I417
sVredirectURL
p1470
g4
sVbodySize
p1471
I132
sVhttpVersion
p1472
VHTTP/1.1
p1473
ssa(dp1474
Vcomment
p1475
g4
sVserverIPAddress
p1476
V216.58.216.193
p1477
sVpageref
p1478
VMichael Phelps
p1479
sVstartedDateTime
p1480
V2017-04-16T08:02:04.156-05:00
p1481
sVcache
p1482
(dp1483
sVrequest
p1484
(dp1485
Vcomment
p1486
g4
sVcookies
p1487
(lp1488
sVurl
p1489
Vhttps://www-biography-com.cdn.ampproject.org/v/www.biography.com/.amp/people/michael-phelps-345192?amp_js_v=9
p1490
sVqueryString
p1491
(lp1492
(dp1493
Vname
p1494
Vamp_js_v
p1495
sVvalue
p1496
V9
p1497
sasVheaders
p1498
(lp1499
sVheadersSize
p1500
I514
sVbodySize
p1501
I0
sVmethod
p1502
VGET
p1503
sVhttpVersion
p1504
VHTTP/1.1
p1505
ssVtimings
p1506
(dp1507
Vcomment
p1508
g4
sVreceive
p1509
I2
sVsend
p1510
I0
sVssl
p1511
I213
sVconnect
p1512
I247
sVdns
p1513
I33
sVwait
p1514
I92
sVblocked
p1515
I0
ssVtime
p1516
I375
sVresponse
p1517
(dp1518
Vstatus
p1519
I200
sVcomment
p1520
g4
sVcookies
p1521
(lp1522
sVstatusText
p1523
VOK
p1524
sVcontent
p1525
(dp1526
VmimeType
p1527
Vtext/html
p1528
sVcomment
p1529
g4
sVsize
p1530
I0
ssVheaders
p1531
(lp1532
sVheadersSize
p1533
I861
sVredirectURL
p1534
g4
sVbodySize
p1535
I12349
sVhttpVersion
p1536
VHTTP/1.1
p1537
ssa(dp1538
Vcomment
p1539
g4
sVserverIPAddress
p1540
V216.58.216.193
p1541
sVpageref
p1542
VMichael Phelps
p1543
sVstartedDateTime
p1544
V2017-04-16T08:02:04.263-05:00
p1545
sVcache
p1546
(dp1547
sVrequest
p1548
(dp1549
Vcomment
p1550
g4
sVcookies
p1551
(lp1552
sVurl
p1553
Vhttps://cdn.ampproject.org/rtv/011492014732688/v0/amp-sticky-ad-0.1.js
p1554
sVqueryString
p1555
(lp1556
sVheaders
p1557
(lp1558
sVheadersSize
p1559
I471
sVbodySize
p1560
I0
sVmethod
p1561
VGET
p1562
sVhttpVersion
p1563
VHTTP/1.1
p1564
ssVtimings
p1565
(dp1566
Vcomment
p1567
g4
sVreceive
p1568
I1
sVsend
p1569
I0
sVssl
p1570
I-1
sVconnect
p1571
I-1
sVdns
p1572
I-1
sVwait
p1573
I15
sVblocked
p1574
I-1
ssVtime
p1575
I17
sVresponse
p1576
(dp1577
Vstatus
p1578
I200
sVcomment
p1579
g4
sVcookies
p1580
(lp1581
sVstatusText
p1582
VOK
p1583
sVcontent
p1584
(dp1585
VmimeType
p1586
Vtext/javascript
p1587
sVcomment
p1588
g4
sVsize
p1589
I0
ssVheaders
p1590
(lp1591
sVheadersSize
p1592
I1165
sVredirectURL
p1593
g4
sVbodySize
p1594
I2074
sVhttpVersion
p1595
VHTTP/1.1
p1596
ssa(dp1597
Vcomment
p1598
g4
sVserverIPAddress
p1599
V216.58.216.193
p1600
sVpageref
p1601
VMichael Phelps
p1602
sVstartedDateTime
p1603
V2017-04-16T08:02:04.281-05:00
p1604
sVcache
p1605
(dp1606
sVrequest
p1607
(dp1608
Vcomment
p1609
g4
sVcookies
p1610
(lp1611
sVurl
p1612
Vhttps://www-biography-com.cdn.ampproject.org/i/www.biography.com/assets-global/button-play.svg
p1613
sVqueryString
p1614
(lp1615
sVheaders
p1616
(lp1617
sVheadersSize
p1618
I495
sVbodySize
p1619
I0
sVmethod
p1620
VGET
p1621
sVhttpVersion
p1622
VHTTP/1.1
p1623
ssVtimings
p1624
(dp1625
Vcomment
p1626
g4
sVreceive
p1627
I0
sVsend
p1628
I0
sVssl
p1629
I-1
sVconnect
p1630
I-1
sVdns
p1631
I-1
sVwait
p1632
I32
sVblocked
p1633
I-1
ssVtime
p1634
I32
sVresponse
p1635
(dp1636
Vstatus
p1637
I200
sVcomment
p1638
g4
sVcookies
p1639
(lp1640
sVstatusText
p1641
VOK
p1642
sVcontent
p1643
(dp1644
VmimeType
p1645
Vimage/svg+xml
p1646
sVcomment
p1647
g4
sVsize
p1648
I0
ssVheaders
p1649
(lp1650
sVheadersSize
p1651
I875
sVredirectURL
p1652
g4
sVbodySize
p1653
I681
sVhttpVersion
p1654
VHTTP/1.1
p1655
ssa(dp1656
Vcomment
p1657
g4
sVserverIPAddress
p1658
V216.58.216.193
p1659
sVpageref
p1660
VMichael Phelps
p1661
sVstartedDateTime
p1662
V2017-04-16T08:02:04.336-05:00
p1663
sVcache
p1664
(dp1665
sVrequest
p1666
(dp1667
Vcomment
p1668
g4
sVcookies
p1669
(lp1670
sVurl
p1671
Vhttps://www-biography-com.cdn.ampproject.org/r/www.biography.com/fonts/saymedia/sayglyphs-webfont.woff
p1672
sVqueryString
p1673
(lp1674
sVheaders
p1675
(lp1676
sVheadersSize
p1677
I557
sVbodySize
p1678
I0
sVmethod
p1679
VGET
p1680
sVhttpVersion
p1681
VHTTP/1.1
p1682
ssVtimings
p1683
(dp1684
Vcomment
p1685
g4
sVreceive
p1686
I12
sVsend
p1687
I0
sVssl
p1688
I23
sVconnect
p1689
I50
sVdns
p1690
I0
sVwait
p1691
I24
sVblocked
p1692
I0
ssVtime
p1693
I88
sVresponse
p1694
(dp1695
Vstatus
p1696
I200
sVcomment
p1697
g4
sVcookies
p1698
(lp1699
sVstatusText
p1700
VOK
p1701
sVcontent
p1702
(dp1703
VmimeType
p1704
Vapplication/font-woff
p1705
sVcomment
p1706
g4
sVsize
p1707
I0
ssVheaders
p1708
(lp1709
sVheadersSize
p1710
I863
sVredirectURL
p1711
g4
sVbodySize
p1712
I16880
sVhttpVersion
p1713
VHTTP/1.1
p1714
ssa(dp1715
Vcomment
p1716
g4
sVserverIPAddress
p1717
V216.58.216.196
p1718
sVpageref
p1719
VMichael Phelps
p1720
sVstartedDateTime
p1721
V2017-04-16T08:02:05.016-05:00
p1722
sVcache
p1723
(dp1724
sVrequest
p1725
(dp1726
Vcomment
p1727
g4
sVcookies
p1728
(lp1729
sVurl
p1730
Vhttps://www.google.com/gen_204?s=web&atyp=csi&ei=SWvzWOHAD6m3jwTpk6kQ&imc=32&imn=32&imp=15&adh=&xjs=init.29.14.sb_mob.22.dvl.4.c.1.jsa.1.tl.1&ima=9&rt=prt.922,iml.1051,xjsls.922,dcl.1025,xjses.1097,xjsee.1209,xjs.1210,qiml.1617,ol.2680,aft.1051,wsrt.91,cst.0,dnst.0,rqst.968,rspt.887,rqstt.2,unt.2,cstt.2,dit.1041
p1731
sVqueryString
p1732
(lp1733
(dp1734
Vname
p1735
g57
sVvalue
p1736
Vweb
p1737
sa(dp1738
Vname
p1739
Vatyp
p1740
sVvalue
p1741
Vcsi
p1742
sa(dp1743
Vname
p1744
Vei
p1745
sVvalue
p1746
VSWvzWOHAD6m3jwTpk6kQ
p1747
sa(dp1748
Vname
p1749
Vimc
p1750
sVvalue
p1751
V32
p1752
sa(dp1753
Vname
p1754
Vimn
p1755
sVvalue
p1756
V32
p1757
sa(dp1758
Vname
p1759
Vimp
p1760
sVvalue
p1761
V15
p1762
sa(dp1763
Vname
p1764
Vadh
p1765
sVvalue
p1766
g4
sa(dp1767
Vname
p1768
Vxjs
p1769
sVvalue
p1770
Vinit.29.14.sb_mob.22.dvl.4.c.1.jsa.1.tl.1
p1771
sa(dp1772
Vname
p1773
Vima
p1774
sVvalue
p1775
g1497
sa(dp1776
Vname
p1777
Vrt
p1778
sVvalue
p1779
Vprt.922,iml.1051,xjsls.922,dcl.1025,xjses.1097,xjsee.1209,xjs.1210,qiml.1617,ol.2680,aft.1051,wsrt.91,cst.0,dnst.0,rqst.968,rspt.887,rqstt.2,unt.2,cstt.2,dit.1041
p1780
sasVheaders
p1781
(lp1782
sVheadersSize
p1783
I830
sVbodySize
p1784
I0
sVmethod
p1785
VGET
p1786
sVhttpVersion
p1787
VHTTP/1.1
p1788
ssVtimings
p1789
(dp1790
Vcomment
p1791
g4
sVreceive
p1792
I0
sVsend
p1793
I0
sVssl
p1794
I-1
sVconnect
p1795
I-1
sVdns
p1796
I-1
sVwait
p1797
I47
sVblocked
p1798
I-1
ssVtime
p1799
I47
sVresponse
p1800
(dp1801
Vstatus
p1802
I204
sVcomment
p1803
g4
sVcookies
p1804
(lp1805
sVstatusText
p1806
VNo Content
p1807
sVcontent
p1808
(dp1809
VmimeType
p1810
Vtext/html; charset=UTF-8
p1811
sVcomment
p1812
g4
sVsize
p1813
I0
ssVheaders
p1814
(lp1815
sVheadersSize
p1816
I248
sVredirectURL
p1817
g4
sVbodySize
p1818
I0
sVhttpVersion
p1819
VHTTP/1.1
p1820
ssa(dp1821
Vcomment
p1822
g4
sVserverIPAddress
p1823
V216.58.216.193
p1824
sVpageref
p1825
VMichael Phelps
p1826
sVstartedDateTime
p1827
V2017-04-16T08:02:05.163-05:00
p1828
sVcache
p1829
(dp1830
sVrequest
p1831
(dp1832
Vcomment
p1833
g4
sVcookies
p1834
(lp1835
sVurl
p1836
Vhttps://www-biography-com.cdn.ampproject.org/ii/w390/s/www.biography.com/.image/c_fit%2Ccs_srgb%2Ch_50%2Cw_250/MTQ1NTM0MTQ5NzA3NDQxNzE5/navbarwhite.png
p1837
sVqueryString
p1838
(lp1839
sVheaders
p1840
(lp1841
sVheadersSize
p1842
I552
sVbodySize
p1843
I0
sVmethod
p1844
VGET
p1845
sVhttpVersion
p1846
VHTTP/1.1
p1847
ssVtimings
p1848
(dp1849
Vcomment
p1850
g4
sVreceive
p1851
I0
sVsend
p1852
I0
sVssl
p1853
I-1
sVconnect
p1854
I-1
sVdns
p1855
I-1
sVwait
p1856
I23
sVblocked
p1857
I-1
ssVtime
p1858
I23
sVresponse
p1859
(dp1860
Vstatus
p1861
I200
sVcomment
p1862
g4
sVcookies
p1863
(lp1864
sVstatusText
p1865
VOK
p1866
sVcontent
p1867
(dp1868
VmimeType
p1869
Vimage/png
p1870
sVcomment
p1871
g4
sVsize
p1872
I0
ssVheaders
p1873
(lp1874
sVheadersSize
p1875
I824
sVredirectURL
p1876
g4
sVbodySize
p1877
I1050
sVhttpVersion
p1878
VHTTP/1.1
p1879
ssa(dp1880
Vcomment
p1881
g4
sVserverIPAddress
p1882
V216.58.216.193
p1883
sVpageref
p1884
VMichael Phelps
p1885
sVstartedDateTime
p1886
V2017-04-16T08:02:05.165-05:00
p1887
sVcache
p1888
(dp1889
sVrequest
p1890
(dp1891
Vcomment
p1892
g4
sVcookies
p1893
(lp1894
sVurl
p1895
Vhttps://www-biography-com.cdn.ampproject.org/i/s/www.biography.com/.image/c_fill%2Ccs_srgb%2Cg_face%2Cq_80%2Cw_674/MTIwNjA4NjMzNjU5NzUzOTk2/michael-phelps-345192-1-402.jpg
p1896
sVqueryString
p1897
(lp1898
sVheaders
p1899
(lp1900
sVheadersSize
p1901
I572
sVbodySize
p1902
I0
sVmethod
p1903
VGET
p1904
sVhttpVersion
p1905
VHTTP/1.1
p1906
ssVtimings
p1907
(dp1908
Vcomment
p1909
g4
sVreceive
p1910
I24
sVsend
p1911
I0
sVssl
p1912
I-1
sVconnect
p1913
I-1
sVdns
p1914
I-1
sVwait
p1915
I29
sVblocked
p1916
I-1
ssVtime
p1917
I53
sVresponse
p1918
(dp1919
Vstatus
p1920
I200
sVcomment
p1921
g4
sVcookies
p1922
(lp1923
sVstatusText
p1924
VOK
p1925
sVcontent
p1926
(dp1927
VmimeType
p1928
Vimage/jpeg
p1929
sVcomment
p1930
g4
sVsize
p1931
I0
ssVheaders
p1932
(lp1933
sVheadersSize
p1934
I850
sVredirectURL
p1935
g4
sVbodySize
p1936
I37523
sVhttpVersion
p1937
VHTTP/1.1
p1938
ssa(dp1939
Vcomment
p1940
g4
sVserverIPAddress
p1941
V216.58.216.196
p1942
sVpageref
p1943
VMichael Phelps
p1944
sVstartedDateTime
p1945
V2017-04-16T08:02:05.725-05:00
p1946
sVcache
p1947
(dp1948
sVrequest
p1949
(dp1950
Vcomment
p1951
g4
sVcookies
p1952
(lp1953
sVurl
p1954
Vhttps://www.google.com/gen_204?atyp=i&ct=slh&cad=&ei=PWvzWLDYEIisjwTmubGoBA&m=V&t=C&s=1&v=2&pv=0.5702041288211721&me=1:1492347712071,x:3,V,0,0,1280,944:0,N,1,PWvzWLDYEIisjwTmubGoBA:0,R,1,24,8,155,1249,528:0,R,1,28,8,268,1249,332:0,R,1,29,0,269,1265,351:0,R,1,60,8,600,1249,83:0,R,1,82,8,693,1249,395:0,R,1,83,8,693,1249,395:0,R,1,94,8,693,1249,116:0,R,1,106,8,822,1249,40:0,R,1,113,8,937,1249,20:0,R,1,114,24,937,1217,20:3,B,3048:9662,e,U&zx=1492347725723
p1955
sVqueryString
p1956
(lp1957
(dp1958
Vname
p1959
Vatyp
p1960
sVvalue
p1961
g30
sa(dp1962
Vname
p1963
Vct
p1964
sVvalue
p1965
Vslh
p1966
sa(dp1967
Vname
p1968
Vcad
p1969
sVvalue
p1970
g4
sa(dp1971
Vname
p1972
Vei
p1973
sVvalue
p1974
VPWvzWLDYEIisjwTmubGoBA
p1975
sa(dp1976
Vname
p1977
g47
sVvalue
p1978
g49
sa(dp1979
Vname
p1980
g52
sVvalue
p1981
g54
sa(dp1982
Vname
p1983
g57
sVvalue
p1984
g59
sa(dp1985
Vname
p1986
g62
sVvalue
p1987
g64
sa(dp1988
Vname
p1989
Vpv
p1990
sVvalue
p1991
V0.5702041288211721
p1992
sa(dp1993
Vname
p1994
Vme
p1995
sVvalue
p1996
V1:1492347712071,x:3,V,0,0,1280,944:0,N,1,PWvzWLDYEIisjwTmubGoBA:0,R,1,24,8,155,1249,528:0,R,1,28,8,268,1249,332:0,R,1,29,0,269,1265,351:0,R,1,60,8,600,1249,83:0,R,1,82,8,693,1249,395:0,R,1,83,8,693,1249,395:0,R,1,94,8,693,1249,116:0,R,1,106,8,822,1249,40:0,R,1,113,8,937,1249,20:0,R,1,114,24,937,1217,20:3,B,3048:9662,e,U
p1997
sa(dp1998
Vname
p1999
Vzx
p2000
sVvalue
p2001
V1492347725723
p2002
sasVheaders
p2003
(lp2004
sVheadersSize
p2005
I972
sVbodySize
p2006
I0
sVmethod
p2007
VGET
p2008
sVhttpVersion
p2009
VHTTP/1.1
p2010
ssVtimings
p2011
(dp2012
Vcomment
p2013
g4
sVreceive
p2014
I0
sVsend
p2015
I0
sVssl
p2016
I-1
sVconnect
p2017
I-1
sVdns
p2018
I-1
sVwait
p2019
I32
sVblocked
p2020
I-1
ssVtime
p2021
I32
sVresponse
p2022
(dp2023
Vstatus
p2024
I204
sVcomment
p2025
g4
sVcookies
p2026
(lp2027
sVstatusText
p2028
VNo Content
p2029
sVcontent
p2030
(dp2031
VmimeType
p2032
Vtext/html; charset=UTF-8
p2033
sVcomment
p2034
g4
sVsize
p2035
I0
ssVheaders
p2036
(lp2037
sVheadersSize
p2038
I248
sVredirectURL
p2039
g4
sVbodySize
p2040
I0
sVhttpVersion
p2041
VHTTP/1.1
p2042
ssasVversion
p2043
V1.2
p2044
sVpages
p2045
(lp2046
(dp2047
VpageTimings
p2048
(dp2049
Vcomment
p2050
g4
ssVcomment
p2051
g4
sVtitle
p2052
VMichael Phelps
p2053
sVid
p2054
VMichael Phelps
p2055
sVstartedDateTime
p2056
V2017-04-16T08:02:01.733-05:00
p2057
sasVcreator
p2058
(dp2059
Vcomment
p2060
g4
sVversion
p2061
V2.1.4
p2062
sVname
p2063
VBrowserMob Proxy
p2064
sss.