(dp0
Vlog
p1
(dp2
Vcomment
p3
V
p4
sVentries
p5
(lp6
(dp7
Vcomment
p8
g4
sVserverIPAddress
p9
V216.58.216.196
p10
sVpageref
p11
VFelidae
p12
sVstartedDateTime
p13
V2017-04-16T08:14:30.633-05:00
p14
sVcache
p15
(dp16
sVrequest
p17
(dp18
Vcomment
p19
g4
sVcookies
p20
(lp21
sVurl
p22
Vhttps://www.google.com/gen_204?atyp=i&ct=slh&cad=&ei=IW7zWJDPNuzKjwTYrakY&m=V&t=C&s=1&v=2&pv=0.2722219763175575&me=1:1492348452352,x:2,V,0,0,1280,944:0,N,1,IW7zWJDPNuzKjwTYrakY:0,R,1,24,8,155,1249,465:0,R,1,25,8,155,1249,465:0,R,1,28,8,168,1249,40:0,R,1,41,8,219,1249,178:0,R,1,44,0,235,1265,197:0,R,1,84,8,414,1249,40:0,R,1,85,24,414,1217,40:0,R,1,88,8,470,1249,20:0,R,1,90,8,498,1249,20:0,R,1,99,8,526,1249,21:0,R,1,127,8,630,1249,201:0,R,1,128,24,630,1217,190:0,R,1,136,8,841,1249,201:0,R,1,137,24,841,1217,190:2,B,3779:18275,e,U&zx=1492348470632
p23
sVqueryString
p24
(lp25
(dp26
Vname
p27
Vatyp
p28
sVvalue
p29
Vi
p30
sa(dp31
Vname
p32
Vct
p33
sVvalue
p34
Vslh
p35
sa(dp36
Vname
p37
Vcad
p38
sVvalue
p39
g4
sa(dp40
Vname
p41
Vei
p42
sVvalue
p43
VIW7zWJDPNuzKjwTYrakY
p44
sa(dp45
Vname
p46
Vm
p47
sVvalue
p48
VV
p49
sa(dp50
Vname
p51
Vt
p52
sVvalue
p53
VC
p54
sa(dp55
Vname
p56
Vs
p57
sVvalue
p58
V1
p59
sa(dp60
Vname
p61
Vv
p62
sVvalue
p63
V2
p64
sa(dp65
Vname
p66
Vpv
p67
sVvalue
p68
V0.2722219763175575
p69
sa(dp70
Vname
p71
Vme
p72
sVvalue
p73
V1:1492348452352,x:2,V,0,0,1280,944:0,N,1,IW7zWJDPNuzKjwTYrakY:0,R,1,24,8,155,1249,465:0,R,1,25,8,155,1249,465:0,R,1,28,8,168,1249,40:0,R,1,41,8,219,1249,178:0,R,1,44,0,235,1265,197:0,R,1,84,8,414,1249,40:0,R,1,85,24,414,1217,40:0,R,1,88,8,470,1249,20:0,R,1,90,8,498,1249,20:0,R,1,99,8,526,1249,21:0,R,1,127,8,630,1249,201:0,R,1,128,24,630,1217,190:0,R,1,136,8,841,1249,201:0,R,1,137,24,841,1217,190:2,B,3779:18275,e,U
p74
sa(dp75
Vname
p76
Vzx
p77
sVvalue
p78
V1492348470632
p79
sasVheaders
p80
(lp81
sVheadersSize
p82
I1066
sVbodySize
p83
I0
sVmethod
p84
VGET
p85
sVhttpVersion
p86
VHTTP/1.1
p87
ssVtimings
p88
(dp89
Vcomment
p90
g4
sVreceive
p91
I0
sVsend
p92
I0
sVssl
p93
I-1
sVconnect
p94
I-1
sVdns
p95
I-1
sVwait
p96
I0
sVblocked
p97
I-1
ssVtime
p98
I0
sVresponse
p99
(dp100
Vstatus
p101
I0
sVcomment
p102
g4
sVcookies
p103
(lp104
sV_error
p105
VNo response received
p106
sVstatusText
p107
g4
sVcontent
p108
(dp109
VmimeType
p110
g4
sVcomment
p111
g4
sVsize
p112
I0
ssVheaders
p113
(lp114
sVheadersSize
p115
I-1
sVredirectURL
p116
g4
sVbodySize
p117
I-1
sVhttpVersion
p118
Vunknown
p119
ssa(dp120
Vcomment
p121
g4
sVserverIPAddress
p122
V216.58.216.196
p123
sVpageref
p124
VFelidae
p125
sVstartedDateTime
p126
V2017-04-16T08:14:30.633-05:00
p127
sVcache
p128
(dp129
sVrequest
p130
(dp131
Vcomment
p132
g4
sVcookies
p133
(lp134
sVurl
p135
Vhttps://www.google.com/gen_204?atyp=i&ct=slh&cad=&ei=Dm7zWIimNYXijwTPlLRA&s=2&v=2&pv=0.514992098051889&me=15:1492348450384,e,H&zx=1492348470632
p136
sVqueryString
p137
(lp138
(dp139
Vname
p140
Vatyp
p141
sVvalue
p142
g30
sa(dp143
Vname
p144
Vct
p145
sVvalue
p146
Vslh
p147
sa(dp148
Vname
p149
Vcad
p150
sVvalue
p151
g4
sa(dp152
Vname
p153
Vei
p154
sVvalue
p155
VDm7zWIimNYXijwTPlLRA
p156
sa(dp157
Vname
p158
g57
sVvalue
p159
g64
sa(dp160
Vname
p161
g62
sVvalue
p162
g64
sa(dp163
Vname
p164
Vpv
p165
sVvalue
p166
V0.514992098051889
p167
sa(dp168
Vname
p169
Vme
p170
sVvalue
p171
V15:1492348450384,e,H
p172
sa(dp173
Vname
p174
Vzx
p175
sVvalue
p176
V1492348470632
p177
sasVheaders
p178
(lp179
sVheadersSize
p180
I660
sVbodySize
p181
I0
sVmethod
p182
VGET
p183
sVhttpVersion
p184
VHTTP/1.1
p185
ssVtimings
p186
(dp187
Vcomment
p188
g4
sVreceive
p189
I0
sVsend
p190
I0
sVssl
p191
I-1
sVconnect
p192
I-1
sVdns
p193
I-1
sVwait
p194
I0
sVblocked
p195
I-1
ssVtime
p196
I0
sVresponse
p197
(dp198
Vstatus
p199
I0
sVcomment
p200
g4
sVcookies
p201
(lp202
sV_error
p203
VNo response received
p204
sVstatusText
p205
g4
sVcontent
p206
(dp207
VmimeType
p208
g4
sVcomment
p209
g4
sVsize
p210
I0
ssVheaders
p211
(lp212
sVheadersSize
p213
I-1
sVredirectURL
p214
g4
sVbodySize
p215
I-1
sVhttpVersion
p216
Vunknown
p217
ssa(dp218
Vcomment
p219
g4
sVserverIPAddress
p220
V216.58.216.196
p221
sVpageref
p222
VFelidae
p223
sVstartedDateTime
p224
V2017-04-16T08:14:30.636-05:00
p225
sVcache
p226
(dp227
sVrequest
p228
(dp229
Vcomment
p230
g4
sVcookies
p231
(lp232
sVurl
p233
Vhttp://www.google.com/
p234
sVqueryString
p235
(lp236
sVheaders
p237
(lp238
sVheadersSize
p239
I613
sVbodySize
p240
I0
sVmethod
p241
VGET
p242
sVhttpVersion
p243
VHTTP/1.1
p244
ssVtimings
p245
(dp246
Vcomment
p247
g4
sVreceive
p248
I0
sVsend
p249
I0
sVssl
p250
I-1
sVconnect
p251
I-1
sVdns
p252
I-1
sVwait
p253
I29
sVblocked
p254
I-1
ssVtime
p255
I29
sVresponse
p256
(dp257
Vstatus
p258
I302
sVcomment
p259
g4
sVcookies
p260
(lp261
sVstatusText
p262
VFound
p263
sVcontent
p264
(dp265
VmimeType
p266
Vtext/html; charset=UTF-8
p267
sVcomment
p268
g4
sVsize
p269
I0
ssVheaders
p270
(lp271
sVheadersSize
p272
I609
sVredirectURL
p273
Vhttps://www.google.com/?gws_rd=ssl
p274
sVbodySize
p275
I231
sVhttpVersion
p276
VHTTP/1.1
p277
ssa(dp278
Vcomment
p279
g4
sVserverIPAddress
p280
V216.58.216.196
p281
sVpageref
p282
VFelidae
p283
sVstartedDateTime
p284
V2017-04-16T08:14:30.669-05:00
p285
sVcache
p286
(dp287
sVrequest
p288
(dp289
Vcomment
p290
g4
sVcookies
p291
(lp292
sVurl
p293
Vhttps://www.google.com/?gws_rd=ssl
p294
sVqueryString
p295
(lp296
(dp297
Vname
p298
Vgws_rd
p299
sVvalue
p300
Vssl
p301
sasVheaders
p302
(lp303
sVheadersSize
p304
I607
sVbodySize
p305
I0
sVmethod
p306
VGET
p307
sVhttpVersion
p308
VHTTP/1.1
p309
ssVtimings
p310
(dp311
Vcomment
p312
g4
sVreceive
p313
I37
sVsend
p314
I0
sVssl
p315
I-1
sVconnect
p316
I-1
sVdns
p317
I-1
sVwait
p318
I75
sVblocked
p319
I-1
ssVtime
p320
I112
sVresponse
p321
(dp322
Vstatus
p323
I200
sVcomment
p324
g4
sVcookies
p325
(lp326
sVstatusText
p327
VOK
p328
sVcontent
p329
(dp330
VmimeType
p331
Vtext/html; charset=UTF-8
p332
sVcomment
p333
g4
sVsize
p334
I0
ssVheaders
p335
(lp336
sVheadersSize
p337
I721
sVredirectURL
p338
g4
sVbodySize
p339
I34293
sVhttpVersion
p340
VHTTP/1.1
p341
ssa(dp342
Vcomment
p343
g4
sVserverIPAddress
p344
V216.58.216.196
p345
sVpageref
p346
VFelidae
p347
sVstartedDateTime
p348
V2017-04-16T08:14:31.025-05:00
p349
sVcache
p350
(dp351
sVrequest
p352
(dp353
Vcomment
p354
g4
sVcookies
p355
(lp356
sVurl
p357
Vhttps://www.google.com/gen_204?s=mobilewebhp&atyp=csi&ei=NW7zWIGvKcHPjwTX2qfwAQ&imc=1&imn=1&imp=0&adh=&xjs=init.26.12.sb_mob.19.dvl.3.mbsf.2.c.1.jsa.1&ima=1&rt=xjsls.12,prt.13,iml.13,dcl.54,xjses.113,xjsee.204,xjs.205,ol.253,aft.13,wsrt.134,cst.0,dnst.0,rqst.114,rspt.38,rqstt.38,unt.36,cstt.36,dit.177
p358
sVqueryString
p359
(lp360
(dp361
Vname
p362
g57
sVvalue
p363
Vmobilewebhp
p364
sa(dp365
Vname
p366
Vatyp
p367
sVvalue
p368
Vcsi
p369
sa(dp370
Vname
p371
Vei
p372
sVvalue
p373
VNW7zWIGvKcHPjwTX2qfwAQ
p374
sa(dp375
Vname
p376
Vimc
p377
sVvalue
p378
g59
sa(dp379
Vname
p380
Vimn
p381
sVvalue
p382
g59
sa(dp383
Vname
p384
Vimp
p385
sVvalue
p386
V0
p387
sa(dp388
Vname
p389
Vadh
p390
sVvalue
p391
g4
sa(dp392
Vname
p393
Vxjs
p394
sVvalue
p395
Vinit.26.12.sb_mob.19.dvl.3.mbsf.2.c.1.jsa.1
p396
sa(dp397
Vname
p398
Vima
p399
sVvalue
p400
g59
sa(dp401
Vname
p402
Vrt
p403
sVvalue
p404
Vxjsls.12,prt.13,iml.13,dcl.54,xjses.113,xjsee.204,xjs.205,ol.253,aft.13,wsrt.134,cst.0,dnst.0,rqst.114,rspt.38,rqstt.38,unt.36,cstt.36,dit.177
p405
sasVheaders
p406
(lp407
sVheadersSize
p408
I830
sVbodySize
p409
I0
sVmethod
p410
VGET
p411
sVhttpVersion
p412
VHTTP/1.1
p413
ssVtimings
p414
(dp415
Vcomment
p416
g4
sVreceive
p417
I0
sVsend
p418
I0
sVssl
p419
I-1
sVconnect
p420
I-1
sVdns
p421
I-1
sVwait
p422
I46
sVblocked
p423
I-1
ssVtime
p424
I46
sVresponse
p425
(dp426
Vstatus
p427
I204
sVcomment
p428
g4
sVcookies
p429
(lp430
sVstatusText
p431
VNo Content
p432
sVcontent
p433
(dp434
VmimeType
p435
Vtext/html; charset=UTF-8
p436
sVcomment
p437
g4
sVsize
p438
I0
ssVheaders
p439
(lp440
sVheadersSize
p441
I248
sVredirectURL
p442
g4
sVbodySize
p443
I0
sVhttpVersion
p444
VHTTP/1.1
p445
ssa(dp446
Vcomment
p447
g4
sVserverIPAddress
p448
V216.58.216.196
p449
sVpageref
p450
VFelidae
p451
sVstartedDateTime
p452
V2017-04-16T08:14:31.151-05:00
p453
sVcache
p454
(dp455
sVrequest
p456
(dp457
Vcomment
p458
g4
sVcookies
p459
(lp460
sVurl
p461
Vhttps://www.google.com/complete/search?client=mobile-gws-hp&hl=en&gs_rn=64&gs_ri=mobile-gws-hp&sla=1&gm=602&cp=0&gs_id=1&xhr=t&q=F&tch=1&ech=1&psi=NW7zWIGvKcHPjwTX2qfwAQ.1492348470942.1
p462
sVqueryString
p463
(lp464
(dp465
Vname
p466
Vclient
p467
sVvalue
p468
Vmobile-gws-hp
p469
sa(dp470
Vname
p471
Vhl
p472
sVvalue
p473
Ven
p474
sa(dp475
Vname
p476
Vgs_rn
p477
sVvalue
p478
V64
p479
sa(dp480
Vname
p481
Vgs_ri
p482
sVvalue
p483
Vmobile-gws-hp
p484
sa(dp485
Vname
p486
Vsla
p487
sVvalue
p488
g59
sa(dp489
Vname
p490
Vgm
p491
sVvalue
p492
V602
p493
sa(dp494
Vname
p495
Vcp
p496
sVvalue
p497
g387
sa(dp498
Vname
p499
Vgs_id
p500
sVvalue
p501
g59
sa(dp502
Vname
p503
Vxhr
p504
sVvalue
p505
g52
sa(dp506
Vname
p507
Vq
p508
sVvalue
p509
VF
p510
sa(dp511
Vname
p512
Vtch
p513
sVvalue
p514
g59
sa(dp515
Vname
p516
Vech
p517
sVvalue
p518
g59
sa(dp519
Vname
p520
Vpsi
p521
sVvalue
p522
VNW7zWIGvKcHPjwTX2qfwAQ.1492348470942.1
p523
sasVheaders
p524
(lp525
sVheadersSize
p526
I713
sVbodySize
p527
I0
sVmethod
p528
VGET
p529
sVhttpVersion
p530
VHTTP/1.1
p531
ssVtimings
p532
(dp533
Vcomment
p534
g4
sVreceive
p535
I0
sVsend
p536
I0
sVssl
p537
I-1
sVconnect
p538
I-1
sVdns
p539
I-1
sVwait
p540
I0
sVblocked
p541
I-1
ssVtime
p542
I0
sVresponse
p543
(dp544
Vstatus
p545
I0
sVcomment
p546
g4
sVcookies
p547
(lp548
sV_error
p549
VNo response received
p550
sVstatusText
p551
g4
sVcontent
p552
(dp553
VmimeType
p554
g4
sVcomment
p555
g4
sVsize
p556
I0
ssVheaders
p557
(lp558
sVheadersSize
p559
I-1
sVredirectURL
p560
g4
sVbodySize
p561
I-1
sVhttpVersion
p562
Vunknown
p563
ssa(dp564
Vcomment
p565
g4
sVserverIPAddress
p566
V216.58.216.196
p567
sVpageref
p568
VFelidae
p569
sVstartedDateTime
p570
V2017-04-16T08:14:31.203-05:00
p571
sVcache
p572
(dp573
sVrequest
p574
(dp575
Vcomment
p576
g4
sVcookies
p577
(lp578
sVurl
p579
Vhttps://www.google.com/search?site=&source=hp&ei=NW7zWIGvKcHPjwTX2qfwAQ&q=Felidae&oq=Felidae&gs_l=mobile-gws-hp.3...186.207.0.236.7.1.0.0.0.0.0.0..0.0....0...1c.1.64.mobile-gws-hp..7.0.0.MdzO7x2XJ2w
p580
sVqueryString
p581
(lp582
(dp583
Vname
p584
Vsite
p585
sVvalue
p586
g4
sa(dp587
Vname
p588
Vsource
p589
sVvalue
p590
Vhp
p591
sa(dp592
Vname
p593
Vei
p594
sVvalue
p595
VNW7zWIGvKcHPjwTX2qfwAQ
p596
sa(dp597
Vname
p598
g508
sVvalue
p599
VFelidae
p600
sa(dp601
Vname
p602
Voq
p603
sVvalue
p604
VFelidae
p605
sa(dp606
Vname
p607
Vgs_l
p608
sVvalue
p609
Vmobile-gws-hp.3...186.207.0.236.7.1.0.0.0.0.0.0..0.0....0...1c.1.64.mobile-gws-hp..7.0.0.MdzO7x2XJ2w
p610
sasVheaders
p611
(lp612
sVheadersSize
p613
I816
sVbodySize
p614
I0
sVmethod
p615
VGET
p616
sVhttpVersion
p617
VHTTP/1.1
p618
ssVtimings
p619
(dp620
Vcomment
p621
g4
sVreceive
p622
I834
sVsend
p623
I0
sVssl
p624
I-1
sVconnect
p625
I-1
sVdns
p626
I-1
sVwait
p627
I138
sVblocked
p628
I-1
ssVtime
p629
I972
sVresponse
p630
(dp631
Vstatus
p632
I200
sVcomment
p633
g4
sVcookies
p634
(lp635
sVstatusText
p636
VOK
p637
sVcontent
p638
(dp639
VmimeType
p640
Vtext/html; charset=UTF-8
p641
sVcomment
p642
g4
sVsize
p643
I0
ssVheaders
p644
(lp645
sVheadersSize
p646
I363
sVredirectURL
p647
g4
sVbodySize
p648
I133039
sVhttpVersion
p649
VHTTP/1.1
p650
ssa(dp651
Vcomment
p652
g4
sVserverIPAddress
p653
V216.58.216.196
p654
sVpageref
p655
VFelidae
p656
sVstartedDateTime
p657
V2017-04-16T08:14:32.591-05:00
p658
sVcache
p659
(dp660
sVrequest
p661
(dp662
Vcomment
p663
g4
sVcookies
p664
(lp665
sVurl
p666
Vhttps://www.google.com/xjs/_/js/k=xjs.qs.en_US.pCBXVCvTH3s.O/m=syl,syj,syn,em3,em8,em6,em7,sym,aa,abd,sy2g,sy2k,sy29,sy2j,sy2d,sy2a,sy2c,sy2f,sy2l,sy2m,sy2n,emd,async,sybn,sybi,sybo,sy1f,sy45,sy46,sy9w,sybk,sybj,sybp,sy1g,sy30,sy47,sybm,sybl,sybq,sy1h,sybh,dvl,syep,foot,ipv6,sy32,emj,shm,sy5g,sy5i,sy5k,sykh,tl,sy2x,sy2y,sy2t,sy38,em12,vs,sy5j,sy5h,sy6u,sy66,sy67,sy7d,sy7j,sy4u,sy69,sy89,sy7e,sykk,sykl,tnv,bct,sy1y,sy23,sy2u,sy22,sy6i,sy34,sy31,sy6j,sy25,sy6l,sy6k,sy6h,emb,em9,ema,sy6m,qkx,sy4d,sy4f,sy4c,sy4e,sy24,sy4b,sy6w,shrb,sy4g,syd7,dgm,syf5,syf6,syf8,sygb,syg9,kptm,sy99,syf4,sy26,syfc,syfn,syf7,syff,sy1i,sy68,sy8d,sy9b,syfl,syfr,syfq,syfg,sy1j,sy4q,sy5o,sy5r,sy6n,sy6p,sy8h,syc7,syc8,syfb,syfj,syfs,syft,syg3,syg5,syg7,emn,emo,syg4,syg6,ivg,sy9m,syac,sy9n,syhz,syl6,ssc,iuci,img,sy41,tcc,sygq,kpc,kpci,sy4h,vrml,sy6y,sycu,d3l,sya3,sya2,sy72,sya4,sykr,strm,syj7,syj8,syj2,syjc,syj6,syj3,syjg,syjh,syje,syjd,syjk,syji,syjf,syj0,emr,ems,emt,emu,emv,emx,emy,emz,em10,em11,udlg,sy5z,atn,sy4i,sya1,ampfp/am=gCP4LtMEBXQA2RUaq_oFBISzAFA/rt=j/d=0/t=zcms/rs=ACT90oFwm4NZCwIcuuiqmthdlECdBzkhRA
p667
sVqueryString
p668
(lp669
sVheaders
p670
(lp671
sVheadersSize
p672
I1613
sVbodySize
p673
I0
sVmethod
p674
VGET
p675
sVhttpVersion
p676
VHTTP/1.1
p677
ssVtimings
p678
(dp679
Vcomment
p680
g4
sVreceive
p681
I33
sVsend
p682
I0
sVssl
p683
I-1
sVconnect
p684
I-1
sVdns
p685
I-1
sVwait
p686
I12
sVblocked
p687
I-1
ssVtime
p688
I45
sVresponse
p689
(dp690
Vstatus
p691
I200
sVcomment
p692
g4
sVcookies
p693
(lp694
sVstatusText
p695
VOK
p696
sVcontent
p697
(dp698
VmimeType
p699
Vtext/javascript; charset=UTF-8
p700
sVcomment
p701
g4
sVsize
p702
I0
ssVheaders
p703
(lp704
sVheadersSize
p705
I465
sVredirectURL
p706
g4
sVbodySize
p707
I114284
sVhttpVersion
p708
VHTTP/1.1
p709
ssa(dp710
Vcomment
p711
g4
sVserverIPAddress
p712
V216.58.216.196
p713
sVpageref
p714
VFelidae
p715
sVstartedDateTime
p716
V2017-04-16T08:14:32.798-05:00
p717
sVcache
p718
(dp719
sVrequest
p720
(dp721
Vcomment
p722
g4
sVcookies
p723
(lp724
sVurl
p725
Vhttps://www.google.com/async/irc?vet=10ahUKEwjC4Mujh6nTAhUsxoMKHapHCLkQo0EI6wE..i&ved=0ahUKEwjC4Mujh6nTAhUsxoMKHapHCLkQo0EI6wE&ei=Nm7zWMLtDayMjwSqj6HICw&yv=2&async=iu:1,ved:0ahUKEwjC4Mujh6nTAhUsxoMKHapHCLkQo0EI6wE,_id:irc_async,_pms:qs
p726
sVqueryString
p727
(lp728
(dp729
Vname
p730
Vvet
p731
sVvalue
p732
V10ahUKEwjC4Mujh6nTAhUsxoMKHapHCLkQo0EI6wE..i
p733
sa(dp734
Vname
p735
Vved
p736
sVvalue
p737
V0ahUKEwjC4Mujh6nTAhUsxoMKHapHCLkQo0EI6wE
p738
sa(dp739
Vname
p740
Vei
p741
sVvalue
p742
VNm7zWMLtDayMjwSqj6HICw
p743
sa(dp744
Vname
p745
Vyv
p746
sVvalue
p747
g64
sa(dp748
Vname
p749
Vasync
p750
sVvalue
p751
Viu:1,ved:0ahUKEwjC4Mujh6nTAhUsxoMKHapHCLkQo0EI6wE,_id:irc_async,_pms:qs
p752
sasVheaders
p753
(lp754
sVheadersSize
p755
I752
sVbodySize
p756
I0
sVmethod
p757
VGET
p758
sVhttpVersion
p759
VHTTP/1.1
p760
ssVtimings
p761
(dp762
Vcomment
p763
g4
sVreceive
p764
I0
sVsend
p765
I0
sVssl
p766
I-1
sVconnect
p767
I-1
sVdns
p768
I-1
sVwait
p769
I40
sVblocked
p770
I-1
ssVtime
p771
I41
sVresponse
p772
(dp773
Vstatus
p774
I200
sVcomment
p775
g4
sVcookies
p776
(lp777
sVstatusText
p778
VOK
p779
sVcontent
p780
(dp781
VmimeType
p782
Vtext/html; charset=UTF-8
p783
sVcomment
p784
g4
sVsize
p785
I0
ssVheaders
p786
(lp787
sVheadersSize
p788
I383
sVredirectURL
p789
g4
sVbodySize
p790
I7790
sVhttpVersion
p791
VHTTP/1.1
p792
ssa(dp793
Vcomment
p794
g4
sVserverIPAddress
p795
V216.58.216.196
p796
sVpageref
p797
VFelidae
p798
sVstartedDateTime
p799
V2017-04-16T08:14:32.807-05:00
p800
sVcache
p801
(dp802
sVrequest
p803
(dp804
Vcomment
p805
g4
sVcookies
p806
(lp807
sVurl
p808
Vhttps://www.google.com/gen_204?atyp=i&ct=&cad=&vet=10ahUKEwjC4Mujh6nTAhUsxoMKHapHCLkQ5W0IMygC..s&ei=Nm7zWMLtDayMjwSqj6HICw&zx=1492348472806
p809
sVqueryString
p810
(lp811
(dp812
Vname
p813
Vatyp
p814
sVvalue
p815
g30
sa(dp816
Vname
p817
Vct
p818
sVvalue
p819
g4
sa(dp820
Vname
p821
Vcad
p822
sVvalue
p823
g4
sa(dp824
Vname
p825
Vvet
p826
sVvalue
p827
V10ahUKEwjC4Mujh6nTAhUsxoMKHapHCLkQ5W0IMygC..s
p828
sa(dp829
Vname
p830
Vei
p831
sVvalue
p832
VNm7zWMLtDayMjwSqj6HICw
p833
sa(dp834
Vname
p835
Vzx
p836
sVvalue
p837
V1492348472806
p838
sasVheaders
p839
(lp840
sVheadersSize
p841
I656
sVbodySize
p842
I0
sVmethod
p843
VGET
p844
sVhttpVersion
p845
VHTTP/1.1
p846
ssVtimings
p847
(dp848
Vcomment
p849
g4
sVreceive
p850
I0
sVsend
p851
I0
sVssl
p852
I-1
sVconnect
p853
I-1
sVdns
p854
I-1
sVwait
p855
I30
sVblocked
p856
I-1
ssVtime
p857
I30
sVresponse
p858
(dp859
Vstatus
p860
I204
sVcomment
p861
g4
sVcookies
p862
(lp863
sVstatusText
p864
VNo Content
p865
sVcontent
p866
(dp867
VmimeType
p868
Vtext/html; charset=UTF-8
p869
sVcomment
p870
g4
sVsize
p871
I0
ssVheaders
p872
(lp873
sVheadersSize
p874
I248
sVredirectURL
p875
g4
sVbodySize
p876
I0
sVhttpVersion
p877
VHTTP/1.1
p878
ssa(dp879
Vcomment
p880
g4
sVserverIPAddress
p881
V216.58.216.196
p882
sVpageref
p883
VFelidae
p884
sVstartedDateTime
p885
V2017-04-16T08:14:32.810-05:00
p886
sVcache
p887
(dp888
sVrequest
p889
(dp890
Vcomment
p891
g4
sVcookies
p892
(lp893
sVurl
p894
Vhttps://www.google.com/gen_204?atyp=i&ct=&cad=&vet=10ahUKEwjC4Mujh6nTAhUsxoMKHapHCLkQ5W0INigD..s&ei=Nm7zWMLtDayMjwSqj6HICw&zx=1492348472809
p895
sVqueryString
p896
(lp897
(dp898
Vname
p899
Vatyp
p900
sVvalue
p901
g30
sa(dp902
Vname
p903
Vct
p904
sVvalue
p905
g4
sa(dp906
Vname
p907
Vcad
p908
sVvalue
p909
g4
sa(dp910
Vname
p911
Vvet
p912
sVvalue
p913
V10ahUKEwjC4Mujh6nTAhUsxoMKHapHCLkQ5W0INigD..s
p914
sa(dp915
Vname
p916
Vei
p917
sVvalue
p918
VNm7zWMLtDayMjwSqj6HICw
p919
sa(dp920
Vname
p921
Vzx
p922
sVvalue
p923
V1492348472809
p924
sasVheaders
p925
(lp926
sVheadersSize
p927
I656
sVbodySize
p928
I0
sVmethod
p929
VGET
p930
sVhttpVersion
p931
VHTTP/1.1
p932
ssVtimings
p933
(dp934
Vcomment
p935
g4
sVreceive
p936
I0
sVsend
p937
I0
sVssl
p938
I-1
sVconnect
p939
I-1
sVdns
p940
I-1
sVwait
p941
I22
sVblocked
p942
I-1
ssVtime
p943
I22
sVresponse
p944
(dp945
Vstatus
p946
I204
sVcomment
p947
g4
sVcookies
p948
(lp949
sVstatusText
p950
VNo Content
p951
sVcontent
p952
(dp953
VmimeType
p954
Vtext/html; charset=UTF-8
p955
sVcomment
p956
g4
sVsize
p957
I0
ssVheaders
p958
(lp959
sVheadersSize
p960
I248
sVredirectURL
p961
g4
sVbodySize
p962
I0
sVhttpVersion
p963
VHTTP/1.1
p964
ssa(dp965
Vcomment
p966
g4
sVserverIPAddress
p967
V216.58.216.206
p968
sVpageref
p969
VFelidae
p970
sVstartedDateTime
p971
V2017-04-16T08:14:32.849-05:00
p972
sVcache
p973
(dp974
sVrequest
p975
(dp976
Vcomment
p977
g4
sVcookies
p978
(lp979
sVurl
p980
Vhttps://encrypted-tbn2.gstatic.com/images?q=tbn:ANd9GcQN1NLvKGGa_9vyghVPv2iCsS3QANYtkjVXh0NQSJzUvvuWZ1YDs-yC4ngQnaBl1I_sG0o
p981
sVqueryString
p982
(lp983
(dp984
Vname
p985
g508
sVvalue
p986
Vtbn:ANd9GcQN1NLvKGGa_9vyghVPv2iCsS3QANYtkjVXh0NQSJzUvvuWZ1YDs-yC4ngQnaBl1I_sG0o
p987
sasVheaders
p988
(lp989
sVheadersSize
p990
I438
sVbodySize
p991
I0
sVmethod
p992
VGET
p993
sVhttpVersion
p994
VHTTP/1.1
p995
ssVtimings
p996
(dp997
Vcomment
p998
g4
sVreceive
p999
I0
sVsend
p1000
I0
sVssl
p1001
I-1
sVconnect
p1002
I-1
sVdns
p1003
I-1
sVwait
p1004
I22
sVblocked
p1005
I-1
ssVtime
p1006
I22
sVresponse
p1007
(dp1008
Vstatus
p1009
I200
sVcomment
p1010
g4
sVcookies
p1011
(lp1012
sVstatusText
p1013
VOK
p1014
sVcontent
p1015
(dp1016
VmimeType
p1017
Vimage/jpeg
p1018
sVcomment
p1019
g4
sVsize
p1020
I0
ssVheaders
p1021
(lp1022
sVheadersSize
p1023
I429
sVredirectURL
p1024
g4
sVbodySize
p1025
I4263
sVhttpVersion
p1026
VHTTP/1.1
p1027
ssa(dp1028
Vcomment
p1029
g4
sVserverIPAddress
p1030
V216.58.216.196
p1031
sVpageref
p1032
VFelidae
p1033
sVstartedDateTime
p1034
V2017-04-16T08:14:32.852-05:00
p1035
sVcache
p1036
(dp1037
sVrequest
p1038
(dp1039
Vcomment
p1040
g4
sVcookies
p1041
(lp1042
sVurl
p1043
Vhttps://www.google.com/gen_204?atyp=i&ct=&cad=&vet=10ahUKEwjC4Mujh6nTAhUsxoMKHapHCLkQ5W0IOSgE..s&ei=Nm7zWMLtDayMjwSqj6HICw&zx=1492348472812
p1044
sVqueryString
p1045
(lp1046
(dp1047
Vname
p1048
Vatyp
p1049
sVvalue
p1050
g30
sa(dp1051
Vname
p1052
Vct
p1053
sVvalue
p1054
g4
sa(dp1055
Vname
p1056
Vcad
p1057
sVvalue
p1058
g4
sa(dp1059
Vname
p1060
Vvet
p1061
sVvalue
p1062
V10ahUKEwjC4Mujh6nTAhUsxoMKHapHCLkQ5W0IOSgE..s
p1063
sa(dp1064
Vname
p1065
Vei
p1066
sVvalue
p1067
VNm7zWMLtDayMjwSqj6HICw
p1068
sa(dp1069
Vname
p1070
Vzx
p1071
sVvalue
p1072
V1492348472812
p1073
sasVheaders
p1074
(lp1075
sVheadersSize
p1076
I656
sVbodySize
p1077
I0
sVmethod
p1078
VGET
p1079
sVhttpVersion
p1080
VHTTP/1.1
p1081
ssVtimings
p1082
(dp1083
Vcomment
p1084
g4
sVreceive
p1085
I0
sVsend
p1086
I0
sVssl
p1087
I22
sVconnect
p1088
I37
sVdns
p1089
I0
sVwait
p1090
I32
sVblocked
p1091
I0
ssVtime
p1092
I70
sVresponse
p1093
(dp1094
Vstatus
p1095
I204
sVcomment
p1096
g4
sVcookies
p1097
(lp1098
sVstatusText
p1099
VNo Content
p1100
sVcontent
p1101
(dp1102
VmimeType
p1103
Vtext/html; charset=UTF-8
p1104
sVcomment
p1105
g4
sVsize
p1106
I0
ssVheaders
p1107
(lp1108
sVheadersSize
p1109
I248
sVredirectURL
p1110
g4
sVbodySize
p1111
I0
sVhttpVersion
p1112
VHTTP/1.1
p1113
ssa(dp1114
Vcomment
p1115
g4
sVserverIPAddress
p1116
V216.58.216.196
p1117
sVpageref
p1118
VFelidae
p1119
sVstartedDateTime
p1120
V2017-04-16T08:14:32.858-05:00
p1121
sVcache
p1122
(dp1123
sVrequest
p1124
(dp1125
Vcomment
p1126
g4
sVcookies
p1127
(lp1128
sVurl
p1129
Vhttps://www.google.com/gen_204?atyp=i&ct=&cad=&vet=10ahUKEwjC4Mujh6nTAhUsxoMKHapHCLkQtxAIeigDMBQ..s&ei=Nm7zWMLtDayMjwSqj6HICw&zx=1492348472855
p1130
sVqueryString
p1131
(lp1132
(dp1133
Vname
p1134
Vatyp
p1135
sVvalue
p1136
g30
sa(dp1137
Vname
p1138
Vct
p1139
sVvalue
p1140
g4
sa(dp1141
Vname
p1142
Vcad
p1143
sVvalue
p1144
g4
sa(dp1145
Vname
p1146
Vvet
p1147
sVvalue
p1148
V10ahUKEwjC4Mujh6nTAhUsxoMKHapHCLkQtxAIeigDMBQ..s
p1149
sa(dp1150
Vname
p1151
Vei
p1152
sVvalue
p1153
VNm7zWMLtDayMjwSqj6HICw
p1154
sa(dp1155
Vname
p1156
Vzx
p1157
sVvalue
p1158
V1492348472855
p1159
sasVheaders
p1160
(lp1161
sVheadersSize
p1162
I659
sVbodySize
p1163
I0
sVmethod
p1164
VGET
p1165
sVhttpVersion
p1166
VHTTP/1.1
p1167
ssVtimings
p1168
(dp1169
Vcomment
p1170
g4
sVreceive
p1171
I0
sVsend
p1172
I0
sVssl
p1173
I-1
sVconnect
p1174
I-1
sVdns
p1175
I-1
sVwait
p1176
I44
sVblocked
p1177
I-1
ssVtime
p1178
I44
sVresponse
p1179
(dp1180
Vstatus
p1181
I204
sVcomment
p1182
g4
sVcookies
p1183
(lp1184
sVstatusText
p1185
VNo Content
p1186
sVcontent
p1187
(dp1188
VmimeType
p1189
Vtext/html; charset=UTF-8
p1190
sVcomment
p1191
g4
sVsize
p1192
I0
ssVheaders
p1193
(lp1194
sVheadersSize
p1195
I248
sVredirectURL
p1196
g4
sVbodySize
p1197
I0
sVhttpVersion
p1198
VHTTP/1.1
p1199
ssa(dp1200
Vcomment
p1201
g4
sVserverIPAddress
p1202
V216.58.216.196
p1203
sVpageref
p1204
VFelidae
p1205
sVstartedDateTime
p1206
V2017-04-16T08:14:32.860-05:00
p1207
sVcache
p1208
(dp1209
sVrequest
p1210
(dp1211
Vcomment
p1212
g4
sVcookies
p1213
(lp1214
sVurl
p1215
Vhttps://www.google.com/gen_204?atyp=i&ct=&cad=&vet=10ahUKEwjC4Mujh6nTAhUsxoMKHapHCLkQtxAIfCgEMBQ..s&ei=Nm7zWMLtDayMjwSqj6HICw&zx=1492348472858
p1216
sVqueryString
p1217
(lp1218
(dp1219
Vname
p1220
Vatyp
p1221
sVvalue
p1222
g30
sa(dp1223
Vname
p1224
Vct
p1225
sVvalue
p1226
g4
sa(dp1227
Vname
p1228
Vcad
p1229
sVvalue
p1230
g4
sa(dp1231
Vname
p1232
Vvet
p1233
sVvalue
p1234
V10ahUKEwjC4Mujh6nTAhUsxoMKHapHCLkQtxAIfCgEMBQ..s
p1235
sa(dp1236
Vname
p1237
Vei
p1238
sVvalue
p1239
VNm7zWMLtDayMjwSqj6HICw
p1240
sa(dp1241
Vname
p1242
Vzx
p1243
sVvalue
p1244
V1492348472858
p1245
sasVheaders
p1246
(lp1247
sVheadersSize
p1248
I659
sVbodySize
p1249
I0
sVmethod
p1250
VGET
p1251
sVhttpVersion
p1252
VHTTP/1.1
p1253
ssVtimings
p1254
(dp1255
Vcomment
p1256
g4
sVreceive
p1257
I0
sVsend
p1258
I0
sVssl
p1259
I-1
sVconnect
p1260
I-1
sVdns
p1261
I-1
sVwait
p1262
I42
sVblocked
p1263
I-1
ssVtime
p1264
I42
sVresponse
p1265
(dp1266
Vstatus
p1267
I204
sVcomment
p1268
g4
sVcookies
p1269
(lp1270
sVstatusText
p1271
VNo Content
p1272
sVcontent
p1273
(dp1274
VmimeType
p1275
Vtext/html; charset=UTF-8
p1276
sVcomment
p1277
g4
sVsize
p1278
I0
ssVheaders
p1279
(lp1280
sVheadersSize
p1281
I248
sVredirectURL
p1282
g4
sVbodySize
p1283
I0
sVhttpVersion
p1284
VHTTP/1.1
p1285
ssa(dp1286
Vcomment
p1287
g4
sVserverIPAddress
p1288
V216.58.216.196
p1289
sVpageref
p1290
VFelidae
p1291
sVstartedDateTime
p1292
V2017-04-16T08:14:32.866-05:00
p1293
sVcache
p1294
(dp1295
sVrequest
p1296
(dp1297
Vcomment
p1298
g4
sVcookies
p1299
(lp1300
sVurl
p1301
Vhttps://www.google.com/gen_204?atyp=i&ct=&cad=&vet=10ahUKEwjC4Mujh6nTAhUsxoMKHapHCLkQtxAIfigFMBQ..s&ei=Nm7zWMLtDayMjwSqj6HICw&zx=1492348472864
p1302
sVqueryString
p1303
(lp1304
(dp1305
Vname
p1306
Vatyp
p1307
sVvalue
p1308
g30
sa(dp1309
Vname
p1310
Vct
p1311
sVvalue
p1312
g4
sa(dp1313
Vname
p1314
Vcad
p1315
sVvalue
p1316
g4
sa(dp1317
Vname
p1318
Vvet
p1319
sVvalue
p1320
V10ahUKEwjC4Mujh6nTAhUsxoMKHapHCLkQtxAIfigFMBQ..s
p1321
sa(dp1322
Vname
p1323
Vei
p1324
sVvalue
p1325
VNm7zWMLtDayMjwSqj6HICw
p1326
sa(dp1327
Vname
p1328
Vzx
p1329
sVvalue
p1330
V1492348472864
p1331
sasVheaders
p1332
(lp1333
sVheadersSize
p1334
I659
sVbodySize
p1335
I0
sVmethod
p1336
VGET
p1337
sVhttpVersion
p1338
VHTTP/1.1
p1339
ssVtimings
p1340
(dp1341
Vcomment
p1342
g4
sVreceive
p1343
I0
sVsend
p1344
I0
sVssl
p1345
I-1
sVconnect
p1346
I-1
sVdns
p1347
I-1
sVwait
p1348
I37
sVblocked
p1349
I-1
ssVtime
p1350
I37
sVresponse
p1351
(dp1352
Vstatus
p1353
I204
sVcomment
p1354
g4
sVcookies
p1355
(lp1356
sVstatusText
p1357
VNo Content
p1358
sVcontent
p1359
(dp1360
VmimeType
p1361
Vtext/html; charset=UTF-8
p1362
sVcomment
p1363
g4
sVsize
p1364
I0
ssVheaders
p1365
(lp1366
sVheadersSize
p1367
I248
sVredirectURL
p1368
g4
sVbodySize
p1369
I0
sVhttpVersion
p1370
VHTTP/1.1
p1371
ssa(dp1372
Vcomment
p1373
g4
sVserverIPAddress
p1374
V216.58.216.206
p1375
sVpageref
p1376
VFelidae
p1377
sVstartedDateTime
p1378
V2017-04-16T08:14:32.867-05:00
p1379
sVcache
p1380
(dp1381
sVrequest
p1382
(dp1383
Vcomment
p1384
g4
sVcookies
p1385
(lp1386
sVurl
p1387
Vhttps://encrypted-tbn1.gstatic.com/images?q=tbn:ANd9GcQXGubplB5ys0T6r6YKK3ZK5Ug4NUEHyv7fi5nqFCFiNdAF-AcW6nsWJ7vNEAwV0y3Gs5E
p1388
sVqueryString
p1389
(lp1390
(dp1391
Vname
p1392
g508
sVvalue
p1393
Vtbn:ANd9GcQXGubplB5ys0T6r6YKK3ZK5Ug4NUEHyv7fi5nqFCFiNdAF-AcW6nsWJ7vNEAwV0y3Gs5E
p1394
sasVheaders
p1395
(lp1396
sVheadersSize
p1397
I438
sVbodySize
p1398
I0
sVmethod
p1399
VGET
p1400
sVhttpVersion
p1401
VHTTP/1.1
p1402
ssVtimings
p1403
(dp1404
Vcomment
p1405
g4
sVreceive
p1406
I1
sVsend
p1407
I0
sVssl
p1408
I-1
sVconnect
p1409
I-1
sVdns
p1410
I-1
sVwait
p1411
I21
sVblocked
p1412
I-1
ssVtime
p1413
I23
sVresponse
p1414
(dp1415
Vstatus
p1416
I200
sVcomment
p1417
g4
sVcookies
p1418
(lp1419
sVstatusText
p1420
VOK
p1421
sVcontent
p1422
(dp1423
VmimeType
p1424
Vimage/jpeg
p1425
sVcomment
p1426
g4
sVsize
p1427
I0
ssVheaders
p1428
(lp1429
sVheadersSize
p1430
I427
sVredirectURL
p1431
g4
sVbodySize
p1432
I3545
sVhttpVersion
p1433
VHTTP/1.1
p1434
ssa(dp1435
Vcomment
p1436
g4
sVserverIPAddress
p1437
V216.58.217.14
p1438
sVpageref
p1439
VFelidae
p1440
sVstartedDateTime
p1441
V2017-04-16T08:14:32.873-05:00
p1442
sVcache
p1443
(dp1444
sVrequest
p1445
(dp1446
Vcomment
p1447
g4
sVcookies
p1448
(lp1449
sVurl
p1450
Vhttps://encrypted-tbn3.gstatic.com/images?q=tbn:ANd9GcRW0JXnUEeh_t86-oBv-hS6Eae9MD3HMrOYBbgU3fk52rth20o3GEh5eRPgEWhSIhWXt9g
p1451
sVqueryString
p1452
(lp1453
(dp1454
Vname
p1455
g508
sVvalue
p1456
Vtbn:ANd9GcRW0JXnUEeh_t86-oBv-hS6Eae9MD3HMrOYBbgU3fk52rth20o3GEh5eRPgEWhSIhWXt9g
p1457
sasVheaders
p1458
(lp1459
sVheadersSize
p1460
I438
sVbodySize
p1461
I0
sVmethod
p1462
VGET
p1463
sVhttpVersion
p1464
VHTTP/1.1
p1465
ssVtimings
p1466
(dp1467
Vcomment
p1468
g4
sVreceive
p1469
I0
sVsend
p1470
I0
sVssl
p1471
I-1
sVconnect
p1472
I-1
sVdns
p1473
I-1
sVwait
p1474
I19
sVblocked
p1475
I-1
ssVtime
p1476
I19
sVresponse
p1477
(dp1478
Vstatus
p1479
I200
sVcomment
p1480
g4
sVcookies
p1481
(lp1482
sVstatusText
p1483
VOK
p1484
sVcontent
p1485
(dp1486
VmimeType
p1487
Vimage/jpeg
p1488
sVcomment
p1489
g4
sVsize
p1490
I0
ssVheaders
p1491
(lp1492
sVheadersSize
p1493
I429
sVredirectURL
p1494
g4
sVbodySize
p1495
I3173
sVhttpVersion
p1496
VHTTP/1.1
p1497
ssa(dp1498
Vcomment
p1499
g4
sVserverIPAddress
p1500
V216.58.216.196
p1501
sVpageref
p1502
VFelidae
p1503
sVstartedDateTime
p1504
V2017-04-16T08:14:32.875-05:00
p1505
sVcache
p1506
(dp1507
sVrequest
p1508
(dp1509
Vcomment
p1510
g4
sVcookies
p1511
(lp1512
sVurl
p1513
Vhttps://www.google.com/gen_204?atyp=i&ct=&cad=&vet=10ahUKEwjC4Mujh6nTAhUsxoMKHapHCLkQ5W0IPCgF..s&ei=Nm7zWMLtDayMjwSqj6HICw&zx=1492348472816
p1514
sVqueryString
p1515
(lp1516
(dp1517
Vname
p1518
Vatyp
p1519
sVvalue
p1520
g30
sa(dp1521
Vname
p1522
Vct
p1523
sVvalue
p1524
g4
sa(dp1525
Vname
p1526
Vcad
p1527
sVvalue
p1528
g4
sa(dp1529
Vname
p1530
Vvet
p1531
sVvalue
p1532
V10ahUKEwjC4Mujh6nTAhUsxoMKHapHCLkQ5W0IPCgF..s
p1533
sa(dp1534
Vname
p1535
Vei
p1536
sVvalue
p1537
VNm7zWMLtDayMjwSqj6HICw
p1538
sa(dp1539
Vname
p1540
Vzx
p1541
sVvalue
p1542
V1492348472816
p1543
sasVheaders
p1544
(lp1545
sVheadersSize
p1546
I656
sVbodySize
p1547
I0
sVmethod
p1548
VGET
p1549
sVhttpVersion
p1550
VHTTP/1.1
p1551
ssVtimings
p1552
(dp1553
Vcomment
p1554
g4
sVreceive
p1555
I0
sVsend
p1556
I0
sVssl
p1557
I37
sVconnect
p1558
I56
sVdns
p1559
I0
sVwait
p1560
I26
sVblocked
p1561
I0
ssVtime
p1562
I83
sVresponse
p1563
(dp1564
Vstatus
p1565
I204
sVcomment
p1566
g4
sVcookies
p1567
(lp1568
sVstatusText
p1569
VNo Content
p1570
sVcontent
p1571
(dp1572
VmimeType
p1573
Vtext/html; charset=UTF-8
p1574
sVcomment
p1575
g4
sVsize
p1576
I0
ssVheaders
p1577
(lp1578
sVheadersSize
p1579
I248
sVredirectURL
p1580
g4
sVbodySize
p1581
I0
sVhttpVersion
p1582
VHTTP/1.1
p1583
ssa(dp1584
Vcomment
p1585
g4
sVserverIPAddress
p1586
V216.58.216.196
p1587
sVpageref
p1588
VFelidae
p1589
sVstartedDateTime
p1590
V2017-04-16T08:14:32.876-05:00
p1591
sVcache
p1592
(dp1593
sVrequest
p1594
(dp1595
Vcomment
p1596
g4
sVcookies
p1597
(lp1598
sVurl
p1599
Vhttps://www.google.com/gen_204?atyp=i&ct=&cad=&vet=10ahUKEwjC4Mujh6nTAhUsxoMKHapHCLkQ5W0IPygG..s&ei=Nm7zWMLtDayMjwSqj6HICw&zx=1492348472819
p1600
sVqueryString
p1601
(lp1602
(dp1603
Vname
p1604
Vatyp
p1605
sVvalue
p1606
g30
sa(dp1607
Vname
p1608
Vct
p1609
sVvalue
p1610
g4
sa(dp1611
Vname
p1612
Vcad
p1613
sVvalue
p1614
g4
sa(dp1615
Vname
p1616
Vvet
p1617
sVvalue
p1618
V10ahUKEwjC4Mujh6nTAhUsxoMKHapHCLkQ5W0IPygG..s
p1619
sa(dp1620
Vname
p1621
Vei
p1622
sVvalue
p1623
VNm7zWMLtDayMjwSqj6HICw
p1624
sa(dp1625
Vname
p1626
Vzx
p1627
sVvalue
p1628
V1492348472819
p1629
sasVheaders
p1630
(lp1631
sVheadersSize
p1632
I656
sVbodySize
p1633
I0
sVmethod
p1634
VGET
p1635
sVhttpVersion
p1636
VHTTP/1.1
p1637
ssVtimings
p1638
(dp1639
Vcomment
p1640
g4
sVreceive
p1641
I0
sVsend
p1642
I0
sVssl
p1643
I37
sVconnect
p1644
I53
sVdns
p1645
I0
sVwait
p1646
I26
sVblocked
p1647
I0
ssVtime
p1648
I80
sVresponse
p1649
(dp1650
Vstatus
p1651
I204
sVcomment
p1652
g4
sVcookies
p1653
(lp1654
sVstatusText
p1655
VNo Content
p1656
sVcontent
p1657
(dp1658
VmimeType
p1659
Vtext/html; charset=UTF-8
p1660
sVcomment
p1661
g4
sVsize
p1662
I0
ssVheaders
p1663
(lp1664
sVheadersSize
p1665
I248
sVredirectURL
p1666
g4
sVbodySize
p1667
I0
sVhttpVersion
p1668
VHTTP/1.1
p1669
ssa(dp1670
Vcomment
p1671
g4
sVserverIPAddress
p1672
V216.58.216.196
p1673
sVpageref
p1674
VFelidae
p1675
sVstartedDateTime
p1676
V2017-04-16T08:14:32.886-05:00
p1677
sVcache
p1678
(dp1679
sVrequest
p1680
(dp1681
Vcomment
p1682
g4
sVcookies
p1683
(lp1684
sVurl
p1685
Vhttps://www.google.com/gen_204?atyp=i&ct=&cad=&vet=10ahUKEwjC4Mujh6nTAhUsxoMKHapHCLkQtxAIgAEoBjAU..s&ei=Nm7zWMLtDayMjwSqj6HICw&zx=1492348472868
p1686
sVqueryString
p1687
(lp1688
(dp1689
Vname
p1690
Vatyp
p1691
sVvalue
p1692
g30
sa(dp1693
Vname
p1694
Vct
p1695
sVvalue
p1696
g4
sa(dp1697
Vname
p1698
Vcad
p1699
sVvalue
p1700
g4
sa(dp1701
Vname
p1702
Vvet
p1703
sVvalue
p1704
V10ahUKEwjC4Mujh6nTAhUsxoMKHapHCLkQtxAIgAEoBjAU..s
p1705
sa(dp1706
Vname
p1707
Vei
p1708
sVvalue
p1709
VNm7zWMLtDayMjwSqj6HICw
p1710
sa(dp1711
Vname
p1712
Vzx
p1713
sVvalue
p1714
V1492348472868
p1715
sasVheaders
p1716
(lp1717
sVheadersSize
p1718
I660
sVbodySize
p1719
I0
sVmethod
p1720
VGET
p1721
sVhttpVersion
p1722
VHTTP/1.1
p1723
ssVtimings
p1724
(dp1725
Vcomment
p1726
g4
sVreceive
p1727
I0
sVsend
p1728
I0
sVssl
p1729
I-1
sVconnect
p1730
I-1
sVdns
p1731
I-1
sVwait
p1732
I25
sVblocked
p1733
I-1
ssVtime
p1734
I25
sVresponse
p1735
(dp1736
Vstatus
p1737
I204
sVcomment
p1738
g4
sVcookies
p1739
(lp1740
sVstatusText
p1741
VNo Content
p1742
sVcontent
p1743
(dp1744
VmimeType
p1745
Vtext/html; charset=UTF-8
p1746
sVcomment
p1747
g4
sVsize
p1748
I0
ssVheaders
p1749
(lp1750
sVheadersSize
p1751
I248
sVredirectURL
p1752
g4
sVbodySize
p1753
I0
sVhttpVersion
p1754
VHTTP/1.1
p1755
ssa(dp1756
Vcomment
p1757
g4
sVserverIPAddress
p1758
V216.58.216.196
p1759
sVpageref
p1760
VFelidae
p1761
sVstartedDateTime
p1762
V2017-04-16T08:14:32.904-05:00
p1763
sVcache
p1764
(dp1765
sVrequest
p1766
(dp1767
Vcomment
p1768
g4
sVcookies
p1769
(lp1770
sVurl
p1771
Vhttps://www.google.com/gen_204?atyp=i&ct=&cad=&vet=10ahUKEwjC4Mujh6nTAhUsxoMKHapHCLkQtxAIggEoBzAU..s&ei=Nm7zWMLtDayMjwSqj6HICw&zx=1492348472871
p1772
sVqueryString
p1773
(lp1774
(dp1775
Vname
p1776
Vatyp
p1777
sVvalue
p1778
g30
sa(dp1779
Vname
p1780
Vct
p1781
sVvalue
p1782
g4
sa(dp1783
Vname
p1784
Vcad
p1785
sVvalue
p1786
g4
sa(dp1787
Vname
p1788
Vvet
p1789
sVvalue
p1790
V10ahUKEwjC4Mujh6nTAhUsxoMKHapHCLkQtxAIggEoBzAU..s
p1791
sa(dp1792
Vname
p1793
Vei
p1794
sVvalue
p1795
VNm7zWMLtDayMjwSqj6HICw
p1796
sa(dp1797
Vname
p1798
Vzx
p1799
sVvalue
p1800
V1492348472871
p1801
sasVheaders
p1802
(lp1803
sVheadersSize
p1804
I660
sVbodySize
p1805
I0
sVmethod
p1806
VGET
p1807
sVhttpVersion
p1808
VHTTP/1.1
p1809
ssVtimings
p1810
(dp1811
Vcomment
p1812
g4
sVreceive
p1813
I0
sVsend
p1814
I0
sVssl
p1815
I-1
sVconnect
p1816
I-1
sVdns
p1817
I-1
sVwait
p1818
I36
sVblocked
p1819
I-1
ssVtime
p1820
I36
sVresponse
p1821
(dp1822
Vstatus
p1823
I204
sVcomment
p1824
g4
sVcookies
p1825
(lp1826
sVstatusText
p1827
VNo Content
p1828
sVcontent
p1829
(dp1830
VmimeType
p1831
Vtext/html; charset=UTF-8
p1832
sVcomment
p1833
g4
sVsize
p1834
I0
ssVheaders
p1835
(lp1836
sVheadersSize
p1837
I248
sVredirectURL
p1838
g4
sVbodySize
p1839
I0
sVhttpVersion
p1840
VHTTP/1.1
p1841
ssa(dp1842
Vcomment
p1843
g4
sVserverIPAddress
p1844
V216.58.216.206
p1845
sVpageref
p1846
VFelidae
p1847
sVstartedDateTime
p1848
V2017-04-16T08:14:32.904-05:00
p1849
sVcache
p1850
(dp1851
sVrequest
p1852
(dp1853
Vcomment
p1854
g4
sVcookies
p1855
(lp1856
sVurl
p1857
Vhttps://encrypted-tbn0.gstatic.com/images?q=tbn:ANd9GcQOle3qpoAhv_84b6p66noG1-l_D3lYq8HILJvKdC9NWfsf-ufyNErilT1uMpEvjDsViJo
p1858
sVqueryString
p1859
(lp1860
(dp1861
Vname
p1862
g508
sVvalue
p1863
Vtbn:ANd9GcQOle3qpoAhv_84b6p66noG1-l_D3lYq8HILJvKdC9NWfsf-ufyNErilT1uMpEvjDsViJo
p1864
sasVheaders
p1865
(lp1866
sVheadersSize
p1867
I438
sVbodySize
p1868
I0
sVmethod
p1869
VGET
p1870
sVhttpVersion
p1871
VHTTP/1.1
p1872
ssVtimings
p1873
(dp1874
Vcomment
p1875
g4
sVreceive
p1876
I0
sVsend
p1877
I0
sVssl
p1878
I-1
sVconnect
p1879
I-1
sVdns
p1880
I-1
sVwait
p1881
I18
sVblocked
p1882
I-1
ssVtime
p1883
I19
sVresponse
p1884
(dp1885
Vstatus
p1886
I200
sVcomment
p1887
g4
sVcookies
p1888
(lp1889
sVstatusText
p1890
VOK
p1891
sVcontent
p1892
(dp1893
VmimeType
p1894
Vimage/jpeg
p1895
sVcomment
p1896
g4
sVsize
p1897
I0
ssVheaders
p1898
(lp1899
sVheadersSize
p1900
I407
sVredirectURL
p1901
g4
sVbodySize
p1902
I3331
sVhttpVersion
p1903
VHTTP/1.1
p1904
ssa(dp1905
Vcomment
p1906
g4
sVserverIPAddress
p1907
V216.58.216.196
p1908
sVpageref
p1909
VFelidae
p1910
sVstartedDateTime
p1911
V2017-04-16T08:14:32.904-05:00
p1912
sVcache
p1913
(dp1914
sVrequest
p1915
(dp1916
Vcomment
p1917
g4
sVcookies
p1918
(lp1919
sVurl
p1920
Vhttps://www.google.com/gen_204?atyp=i&ct=&cad=&vet=10ahUKEwjC4Mujh6nTAhUsxoMKHapHCLkQlpQBCIQBKAgwFA..s&ei=Nm7zWMLtDayMjwSqj6HICw&zx=1492348472875
p1921
sVqueryString
p1922
(lp1923
(dp1924
Vname
p1925
Vatyp
p1926
sVvalue
p1927
g30
sa(dp1928
Vname
p1929
Vct
p1930
sVvalue
p1931
g4
sa(dp1932
Vname
p1933
Vcad
p1934
sVvalue
p1935
g4
sa(dp1936
Vname
p1937
Vvet
p1938
sVvalue
p1939
V10ahUKEwjC4Mujh6nTAhUsxoMKHapHCLkQlpQBCIQBKAgwFA..s
p1940
sa(dp1941
Vname
p1942
Vei
p1943
sVvalue
p1944
VNm7zWMLtDayMjwSqj6HICw
p1945
sa(dp1946
Vname
p1947
Vzx
p1948
sVvalue
p1949
V1492348472875
p1950
sasVheaders
p1951
(lp1952
sVheadersSize
p1953
I662
sVbodySize
p1954
I0
sVmethod
p1955
VGET
p1956
sVhttpVersion
p1957
VHTTP/1.1
p1958
ssVtimings
p1959
(dp1960
Vcomment
p1961
g4
sVreceive
p1962
I0
sVsend
p1963
I0
sVssl
p1964
I-1
sVconnect
p1965
I-1
sVdns
p1966
I-1
sVwait
p1967
I28
sVblocked
p1968
I-1
ssVtime
p1969
I28
sVresponse
p1970
(dp1971
Vstatus
p1972
I204
sVcomment
p1973
g4
sVcookies
p1974
(lp1975
sVstatusText
p1976
VNo Content
p1977
sVcontent
p1978
(dp1979
VmimeType
p1980
Vtext/html; charset=UTF-8
p1981
sVcomment
p1982
g4
sVsize
p1983
I0
ssVheaders
p1984
(lp1985
sVheadersSize
p1986
I248
sVredirectURL
p1987
g4
sVbodySize
p1988
I0
sVhttpVersion
p1989
VHTTP/1.1
p1990
ssa(dp1991
Vcomment
p1992
g4
sVserverIPAddress
p1993
V216.58.216.193
p1994
sVpageref
p1995
VFelidae
p1996
sVstartedDateTime
p1997
V2017-04-16T08:14:32.926-05:00
p1998
sVcache
p1999
(dp2000
sVrequest
p2001
(dp2002
Vcomment
p2003
g4
sVcookies
p2004
(lp2005
sVurl
p2006
Vhttps://cdn.ampproject.org/preconnect.gif?0.7595863549982632
p2007
sVqueryString
p2008
(lp2009
(dp2010
Vname
p2011
V0.7595863549982632
p2012
sVvalue
p2013
g4
sasVheaders
p2014
(lp2015
sVheadersSize
p2016
I375
sVbodySize
p2017
I0
sVmethod
p2018
VGET
p2019
sVhttpVersion
p2020
VHTTP/1.1
p2021
ssVtimings
p2022
(dp2023
Vcomment
p2024
g4
sVreceive
p2025
I0
sVsend
p2026
I0
sVssl
p2027
I-1
sVconnect
p2028
I-1
sVdns
p2029
I-1
sVwait
p2030
I31
sVblocked
p2031
I-1
ssVtime
p2032
I31
sVresponse
p2033
(dp2034
Vstatus
p2035
I200
sVcomment
p2036
g4
sVcookies
p2037
(lp2038
sVstatusText
p2039
VOK
p2040
sVcontent
p2041
(dp2042
VmimeType
p2043
Vimage/gif
p2044
sVcomment
p2045
g4
sVsize
p2046
I0
ssVheaders
p2047
(lp2048
sVheadersSize
p2049
I826
sVredirectURL
p2050
g4
sVbodySize
p2051
I37
sVhttpVersion
p2052
VHTTP/1.1
p2053
ssa(dp2054
Vcomment
p2055
g4
sVserverIPAddress
p2056
V216.58.217.14
p2057
sVpageref
p2058
VFelidae
p2059
sVstartedDateTime
p2060
V2017-04-16T08:14:32.944-05:00
p2061
sVcache
p2062
(dp2063
sVrequest
p2064
(dp2065
Vcomment
p2066
g4
sVcookies
p2067
(lp2068
sVurl
p2069
Vhttps://encrypted-tbn3.gstatic.com/images?q=tbn:ANd9GcTo-sSMzLaUOA6FNQq25GHBK83EkIqN1S1nLhmxdNpTu9tK-8oC6oLXIyVV
p2070
sVqueryString
p2071
(lp2072
(dp2073
Vname
p2074
g508
sVvalue
p2075
Vtbn:ANd9GcTo-sSMzLaUOA6FNQq25GHBK83EkIqN1S1nLhmxdNpTu9tK-8oC6oLXIyVV
p2076
sasVheaders
p2077
(lp2078
sVheadersSize
p2079
I427
sVbodySize
p2080
I0
sVmethod
p2081
VGET
p2082
sVhttpVersion
p2083
VHTTP/1.1
p2084
ssVtimings
p2085
(dp2086
Vcomment
p2087
g4
sVreceive
p2088
I16
sVsend
p2089
I0
sVssl
p2090
I-1
sVconnect
p2091
I-1
sVdns
p2092
I-1
sVwait
p2093
I15
sVblocked
p2094
I-1
ssVtime
p2095
I32
sVresponse
p2096
(dp2097
Vstatus
p2098
I200
sVcomment
p2099
g4
sVcookies
p2100
(lp2101
sVstatusText
p2102
VOK
p2103
sVcontent
p2104
(dp2105
VmimeType
p2106
Vimage/jpeg
p2107
sVcomment
p2108
g4
sVsize
p2109
I0
ssVheaders
p2110
(lp2111
sVheadersSize
p2112
I428
sVredirectURL
p2113
g4
sVbodySize
p2114
I6979
sVhttpVersion
p2115
VHTTP/1.1
p2116
ssa(dp2117
Vcomment
p2118
g4
sVserverIPAddress
p2119
V216.58.216.206
p2120
sVpageref
p2121
VFelidae
p2122
sVstartedDateTime
p2123
V2017-04-16T08:14:32.945-05:00
p2124
sVcache
p2125
(dp2126
sVrequest
p2127
(dp2128
Vcomment
p2129
g4
sVcookies
p2130
(lp2131
sVurl
p2132
Vhttps://encrypted-tbn1.gstatic.com/images?q=tbn:ANd9GcQplR6Nkrf7DKcgO2tbzk5UJhp3RRkQO2_gaI-sdYTC9QcVi9jXHBMoOSqb
p2133
sVqueryString
p2134
(lp2135
(dp2136
Vname
p2137
g508
sVvalue
p2138
Vtbn:ANd9GcQplR6Nkrf7DKcgO2tbzk5UJhp3RRkQO2_gaI-sdYTC9QcVi9jXHBMoOSqb
p2139
sasVheaders
p2140
(lp2141
sVheadersSize
p2142
I427
sVbodySize
p2143
I0
sVmethod
p2144
VGET
p2145
sVhttpVersion
p2146
VHTTP/1.1
p2147
ssVtimings
p2148
(dp2149
Vcomment
p2150
g4
sVreceive
p2151
I0
sVsend
p2152
I0
sVssl
p2153
I-1
sVconnect
p2154
I-1
sVdns
p2155
I-1
sVwait
p2156
I32
sVblocked
p2157
I-1
ssVtime
p2158
I32
sVresponse
p2159
(dp2160
Vstatus
p2161
I200
sVcomment
p2162
g4
sVcookies
p2163
(lp2164
sVstatusText
p2165
VOK
p2166
sVcontent
p2167
(dp2168
VmimeType
p2169
Vimage/jpeg
p2170
sVcomment
p2171
g4
sVsize
p2172
I0
ssVheaders
p2173
(lp2174
sVheadersSize
p2175
I427
sVredirectURL
p2176
g4
sVbodySize
p2177
I6145
sVhttpVersion
p2178
VHTTP/1.1
p2179
ssa(dp2180
Vcomment
p2181
g4
sVserverIPAddress
p2182
V216.58.216.206
p2183
sVpageref
p2184
VFelidae
p2185
sVstartedDateTime
p2186
V2017-04-16T08:14:32.945-05:00
p2187
sVcache
p2188
(dp2189
sVrequest
p2190
(dp2191
Vcomment
p2192
g4
sVcookies
p2193
(lp2194
sVurl
p2195
Vhttps://encrypted-tbn2.gstatic.com/images?q=tbn:ANd9GcT72ws_-RKw7KTflzm8Cbhsm82d23uMjwmjoJaEsjQVU_vjNTahDbAGMGzSTj5HxPXyX8g
p2196
sVqueryString
p2197
(lp2198
(dp2199
Vname
p2200
g508
sVvalue
p2201
Vtbn:ANd9GcT72ws_-RKw7KTflzm8Cbhsm82d23uMjwmjoJaEsjQVU_vjNTahDbAGMGzSTj5HxPXyX8g
p2202
sasVheaders
p2203
(lp2204
sVheadersSize
p2205
I438
sVbodySize
p2206
I0
sVmethod
p2207
VGET
p2208
sVhttpVersion
p2209
VHTTP/1.1
p2210
ssVtimings
p2211
(dp2212
Vcomment
p2213
g4
sVreceive
p2214
I0
sVsend
p2215
I0
sVssl
p2216
I23
sVconnect
p2217
I40
sVdns
p2218
I42
sVwait
p2219
I32
sVblocked
p2220
I0
ssVtime
p2221
I116
sVresponse
p2222
(dp2223
Vstatus
p2224
I200
sVcomment
p2225
g4
sVcookies
p2226
(lp2227
sVstatusText
p2228
VOK
p2229
sVcontent
p2230
(dp2231
VmimeType
p2232
Vimage/jpeg
p2233
sVcomment
p2234
g4
sVsize
p2235
I0
ssVheaders
p2236
(lp2237
sVheadersSize
p2238
I415
sVredirectURL
p2239
g4
sVbodySize
p2240
I4121
sVhttpVersion
p2241
VHTTP/1.1
p2242
ssa(dp2243
Vcomment
p2244
g4
sVserverIPAddress
p2245
V216.58.216.206
p2246
sVpageref
p2247
VFelidae
p2248
sVstartedDateTime
p2249
V2017-04-16T08:14:32.945-05:00
p2250
sVcache
p2251
(dp2252
sVrequest
p2253
(dp2254
Vcomment
p2255
g4
sVcookies
p2256
(lp2257
sVurl
p2258
Vhttps://encrypted-tbn2.gstatic.com/images?q=tbn:ANd9GcTFrGHPbxT57C-sce1npFLrSM4KdxZzrtM180UpFzX2GrGZpLwGUuNoubc
p2259
sVqueryString
p2260
(lp2261
(dp2262
Vname
p2263
g508
sVvalue
p2264
Vtbn:ANd9GcTFrGHPbxT57C-sce1npFLrSM4KdxZzrtM180UpFzX2GrGZpLwGUuNoubc
p2265
sasVheaders
p2266
(lp2267
sVheadersSize
p2268
I426
sVbodySize
p2269
I0
sVmethod
p2270
VGET
p2271
sVhttpVersion
p2272
VHTTP/1.1
p2273
ssVtimings
p2274
(dp2275
Vcomment
p2276
g4
sVreceive
p2277
I0
sVsend
p2278
I0
sVssl
p2279
I-1
sVconnect
p2280
I-1
sVdns
p2281
I-1
sVwait
p2282
I30
sVblocked
p2283
I-1
ssVtime
p2284
I31
sVresponse
p2285
(dp2286
Vstatus
p2287
I200
sVcomment
p2288
g4
sVcookies
p2289
(lp2290
sVstatusText
p2291
VOK
p2292
sVcontent
p2293
(dp2294
VmimeType
p2295
Vimage/jpeg
p2296
sVcomment
p2297
g4
sVsize
p2298
I0
ssVheaders
p2299
(lp2300
sVheadersSize
p2301
I428
sVredirectURL
p2302
g4
sVbodySize
p2303
I5036
sVhttpVersion
p2304
VHTTP/1.1
p2305
ssa(dp2306
Vcomment
p2307
g4
sVserverIPAddress
p2308
V216.58.216.196
p2309
sVpageref
p2310
VFelidae
p2311
sVstartedDateTime
p2312
V2017-04-16T08:14:33.069-05:00
p2313
sVcache
p2314
(dp2315
sVrequest
p2316
(dp2317
Vcomment
p2318
g4
sVcookies
p2319
(lp2320
sVurl
p2321
Vhttps://www.google.com/gen_204?s=web&atyp=csi&ei=Nm7zWMLtDayMjwSqj6HICw&imc=44&imn=44&imp=20&adh=&xjs=init.65.14.sb_mob.40.c.15.dvl.5.async.2.r.1&ima=16&rt=prt.855,iml.909,xjsls.855,qiml.1107,dcl.976,xjses.1033,xjsee.1229,xjs.1229,ol.1701,aft.909,wsrt.153,cst.0,dnst.0,rqst.973,rspt.834,rqstt.2,unt.1,cstt.1,dit.1054
p2322
sVqueryString
p2323
(lp2324
(dp2325
Vname
p2326
g57
sVvalue
p2327
Vweb
p2328
sa(dp2329
Vname
p2330
Vatyp
p2331
sVvalue
p2332
Vcsi
p2333
sa(dp2334
Vname
p2335
Vei
p2336
sVvalue
p2337
VNm7zWMLtDayMjwSqj6HICw
p2338
sa(dp2339
Vname
p2340
Vimc
p2341
sVvalue
p2342
V44
p2343
sa(dp2344
Vname
p2345
Vimn
p2346
sVvalue
p2347
V44
p2348
sa(dp2349
Vname
p2350
Vimp
p2351
sVvalue
p2352
V20
p2353
sa(dp2354
Vname
p2355
Vadh
p2356
sVvalue
p2357
g4
sa(dp2358
Vname
p2359
Vxjs
p2360
sVvalue
p2361
Vinit.65.14.sb_mob.40.c.15.dvl.5.async.2.r.1
p2362
sa(dp2363
Vname
p2364
Vima
p2365
sVvalue
p2366
V16
p2367
sa(dp2368
Vname
p2369
Vrt
p2370
sVvalue
p2371
Vprt.855,iml.909,xjsls.855,qiml.1107,dcl.976,xjses.1033,xjsee.1229,xjs.1229,ol.1701,aft.909,wsrt.153,cst.0,dnst.0,rqst.973,rspt.834,rqstt.2,unt.1,cstt.1,dit.1054
p2372
sasVheaders
p2373
(lp2374
sVheadersSize
p2375
I833
sVbodySize
p2376
I0
sVmethod
p2377
VGET
p2378
sVhttpVersion
p2379
VHTTP/1.1
p2380
ssVtimings
p2381
(dp2382
Vcomment
p2383
g4
sVreceive
p2384
I0
sVsend
p2385
I0
sVssl
p2386
I-1
sVconnect
p2387
I-1
sVdns
p2388
I-1
sVwait
p2389
I40
sVblocked
p2390
I-1
ssVtime
p2391
I40
sVresponse
p2392
(dp2393
Vstatus
p2394
I204
sVcomment
p2395
g4
sVcookies
p2396
(lp2397
sVstatusText
p2398
VNo Content
p2399
sVcontent
p2400
(dp2401
VmimeType
p2402
Vtext/html; charset=UTF-8
p2403
sVcomment
p2404
g4
sVsize
p2405
I0
ssVheaders
p2406
(lp2407
sVheadersSize
p2408
I248
sVredirectURL
p2409
g4
sVbodySize
p2410
I0
sVhttpVersion
p2411
VHTTP/1.1
p2412
ssa(dp2413
Vcomment
p2414
g4
sVserverIPAddress
p2415
V216.58.216.196
p2416
sVpageref
p2417
VFelidae
p2418
sVstartedDateTime
p2419
V2017-04-16T08:14:34.909-05:00
p2420
sVcache
p2421
(dp2422
sVrequest
p2423
(dp2424
Vcomment
p2425
g4
sVcookies
p2426
(lp2427
sVurl
p2428
Vhttps://www.google.com/gen_204?atyp=i&ct=slh&cad=&ei=Dm7zWIimNYXijwTPlLRA&s=2&v=2&pv=0.514992098051889&me=15:1492348450384,e,H&zx=1492348474907
p2429
sVqueryString
p2430
(lp2431
(dp2432
Vname
p2433
Vatyp
p2434
sVvalue
p2435
g30
sa(dp2436
Vname
p2437
Vct
p2438
sVvalue
p2439
Vslh
p2440
sa(dp2441
Vname
p2442
Vcad
p2443
sVvalue
p2444
g4
sa(dp2445
Vname
p2446
Vei
p2447
sVvalue
p2448
VDm7zWIimNYXijwTPlLRA
p2449
sa(dp2450
Vname
p2451
g57
sVvalue
p2452
g64
sa(dp2453
Vname
p2454
g62
sVvalue
p2455
g64
sa(dp2456
Vname
p2457
Vpv
p2458
sVvalue
p2459
V0.514992098051889
p2460
sa(dp2461
Vname
p2462
Vme
p2463
sVvalue
p2464
V15:1492348450384,e,H
p2465
sa(dp2466
Vname
p2467
Vzx
p2468
sVvalue
p2469
V1492348474907
p2470
sasVheaders
p2471
(lp2472
sVheadersSize
p2473
I660
sVbodySize
p2474
I0
sVmethod
p2475
VGET
p2476
sVhttpVersion
p2477
VHTTP/1.1
p2478
ssVtimings
p2479
(dp2480
Vcomment
p2481
g4
sVreceive
p2482
I0
sVsend
p2483
I0
sVssl
p2484
I-1
sVconnect
p2485
I-1
sVdns
p2486
I-1
sVwait
p2487
I41
sVblocked
p2488
I-1
ssVtime
p2489
I42
sVresponse
p2490
(dp2491
Vstatus
p2492
I204
sVcomment
p2493
g4
sVcookies
p2494
(lp2495
sVstatusText
p2496
VNo Content
p2497
sVcontent
p2498
(dp2499
VmimeType
p2500
Vtext/html; charset=UTF-8
p2501
sVcomment
p2502
g4
sVsize
p2503
I0
ssVheaders
p2504
(lp2505
sVheadersSize
p2506
I248
sVredirectURL
p2507
g4
sVbodySize
p2508
I0
sVhttpVersion
p2509
VHTTP/1.1
p2510
ssasVversion
p2511
V1.2
p2512
sVpages
p2513
(lp2514
(dp2515
VpageTimings
p2516
(dp2517
Vcomment
p2518
g4
ssVcomment
p2519
g4
sVtitle
p2520
VFelidae
p2521
sVid
p2522
VFelidae
p2523
sVstartedDateTime
p2524
V2017-04-16T08:14:30.626-05:00
p2525
sasVcreator
p2526
(dp2527
Vcomment
p2528
g4
sVversion
p2529
V2.1.4
p2530
sVname
p2531
VBrowserMob Proxy
p2532
sss.