(dp0
Vlog
p1
(dp2
Vcomment
p3
V
p4
sVentries
p5
(lp6
(dp7
Vcomment
p8
g4
sVserverIPAddress
p9
V216.58.216.196
p10
sVpageref
p11
VAndrew Benintendi
p12
sVstartedDateTime
p13
V2017-04-16T08:22:01.185-05:00
p14
sVcache
p15
(dp16
sVrequest
p17
(dp18
Vcomment
p19
g4
sVcookies
p20
(lp21
sVurl
p22
Vhttps://www.google.com/gen_204?atyp=i&ct=slh&cad=&ei=4m_zWMCpCczVjwTyhpHoAg&m=V&t=C&s=1&v=2&pv=0.27773193260042783&me=1:1492348900960,x:3,V,0,0,1280,944:0,N,1,4m_zWMCpCczVjwTyhpHoAg:0,R,1,24,8,155,1249,736:0,R,1,25,8,155,1249,736:0,R,1,28,8,168,1249,40:0,R,1,41,8,219,1249,178:0,R,1,44,0,235,1265,197:0,R,1,84,8,414,1249,40:0,R,1,85,24,414,1217,40:0,R,1,91,8,470,1249,20:0,R,1,115,8,555,1249,263:0,R,1,116,0,555,1265,283:0,R,1,150,24,901,1217,135:3,B,2947:20217,e,U&zx=1492348921184
p23
sVqueryString
p24
(lp25
(dp26
Vname
p27
Vatyp
p28
sVvalue
p29
Vi
p30
sa(dp31
Vname
p32
Vct
p33
sVvalue
p34
Vslh
p35
sa(dp36
Vname
p37
Vcad
p38
sVvalue
p39
g4
sa(dp40
Vname
p41
Vei
p42
sVvalue
p43
V4m_zWMCpCczVjwTyhpHoAg
p44
sa(dp45
Vname
p46
Vm
p47
sVvalue
p48
VV
p49
sa(dp50
Vname
p51
Vt
p52
sVvalue
p53
VC
p54
sa(dp55
Vname
p56
Vs
p57
sVvalue
p58
V1
p59
sa(dp60
Vname
p61
Vv
p62
sVvalue
p63
V2
p64
sa(dp65
Vname
p66
Vpv
p67
sVvalue
p68
V0.27773193260042783
p69
sa(dp70
Vname
p71
Vme
p72
sVvalue
p73
V1:1492348900960,x:3,V,0,0,1280,944:0,N,1,4m_zWMCpCczVjwTyhpHoAg:0,R,1,24,8,155,1249,736:0,R,1,25,8,155,1249,736:0,R,1,28,8,168,1249,40:0,R,1,41,8,219,1249,178:0,R,1,44,0,235,1265,197:0,R,1,84,8,414,1249,40:0,R,1,85,24,414,1217,40:0,R,1,91,8,470,1249,20:0,R,1,115,8,555,1249,263:0,R,1,116,0,555,1265,283:0,R,1,150,24,901,1217,135:3,B,2947:20217,e,U
p74
sa(dp75
Vname
p76
Vzx
p77
sVvalue
p78
V1492348921184
p79
sasVheaders
p80
(lp81
sVheadersSize
p82
I999
sVbodySize
p83
I0
sVmethod
p84
VGET
p85
sVhttpVersion
p86
VHTTP/1.1
p87
ssVtimings
p88
(dp89
Vcomment
p90
g4
sVreceive
p91
I0
sVsend
p92
I0
sVssl
p93
I-1
sVconnect
p94
I-1
sVdns
p95
I-1
sVwait
p96
I0
sVblocked
p97
I-1
ssVtime
p98
I0
sVresponse
p99
(dp100
Vstatus
p101
I0
sVcomment
p102
g4
sVcookies
p103
(lp104
sV_error
p105
VNo response received
p106
sVstatusText
p107
g4
sVcontent
p108
(dp109
VmimeType
p110
g4
sVcomment
p111
g4
sVsize
p112
I0
ssVheaders
p113
(lp114
sVheadersSize
p115
I-1
sVredirectURL
p116
g4
sVbodySize
p117
I-1
sVhttpVersion
p118
Vunknown
p119
ssa(dp120
Vcomment
p121
g4
sVserverIPAddress
p122
V216.58.216.196
p123
sVpageref
p124
VAndrew Benintendi
p125
sVstartedDateTime
p126
V2017-04-16T08:22:01.191-05:00
p127
sVcache
p128
(dp129
sVrequest
p130
(dp131
Vcomment
p132
g4
sVcookies
p133
(lp134
sVurl
p135
Vhttp://www.google.com/
p136
sVqueryString
p137
(lp138
sVheaders
p139
(lp140
sVheadersSize
p141
I613
sVbodySize
p142
I0
sVmethod
p143
VGET
p144
sVhttpVersion
p145
VHTTP/1.1
p146
ssVtimings
p147
(dp148
Vcomment
p149
g4
sVreceive
p150
I0
sVsend
p151
I0
sVssl
p152
I-1
sVconnect
p153
I-1
sVdns
p154
I-1
sVwait
p155
I36
sVblocked
p156
I-1
ssVtime
p157
I36
sVresponse
p158
(dp159
Vstatus
p160
I302
sVcomment
p161
g4
sVcookies
p162
(lp163
sVstatusText
p164
VFound
p165
sVcontent
p166
(dp167
VmimeType
p168
Vtext/html; charset=UTF-8
p169
sVcomment
p170
g4
sVsize
p171
I0
ssVheaders
p172
(lp173
sVheadersSize
p174
I609
sVredirectURL
p175
Vhttps://www.google.com/?gws_rd=ssl
p176
sVbodySize
p177
I231
sVhttpVersion
p178
VHTTP/1.1
p179
ssa(dp180
Vcomment
p181
g4
sVserverIPAddress
p182
V216.58.216.196
p183
sVpageref
p184
VAndrew Benintendi
p185
sVstartedDateTime
p186
V2017-04-16T08:22:01.232-05:00
p187
sVcache
p188
(dp189
sVrequest
p190
(dp191
Vcomment
p192
g4
sVcookies
p193
(lp194
sVurl
p195
Vhttps://www.google.com/?gws_rd=ssl
p196
sVqueryString
p197
(lp198
(dp199
Vname
p200
Vgws_rd
p201
sVvalue
p202
Vssl
p203
sasVheaders
p204
(lp205
sVheadersSize
p206
I607
sVbodySize
p207
I0
sVmethod
p208
VGET
p209
sVhttpVersion
p210
VHTTP/1.1
p211
ssVtimings
p212
(dp213
Vcomment
p214
g4
sVreceive
p215
I14
sVsend
p216
I0
sVssl
p217
I-1
sVconnect
p218
I-1
sVdns
p219
I-1
sVwait
p220
I84
sVblocked
p221
I-1
ssVtime
p222
I98
sVresponse
p223
(dp224
Vstatus
p225
I200
sVcomment
p226
g4
sVcookies
p227
(lp228
sVstatusText
p229
VOK
p230
sVcontent
p231
(dp232
VmimeType
p233
Vtext/html; charset=UTF-8
p234
sVcomment
p235
g4
sVsize
p236
I0
ssVheaders
p237
(lp238
sVheadersSize
p239
I721
sVredirectURL
p240
g4
sVbodySize
p241
I34293
sVhttpVersion
p242
VHTTP/1.1
p243
ssa(dp244
Vcomment
p245
g4
sVserverIPAddress
p246
V216.58.216.196
p247
sVpageref
p248
VAndrew Benintendi
p249
sVstartedDateTime
p250
V2017-04-16T08:22:01.634-05:00
p251
sVcache
p252
(dp253
sVrequest
p254
(dp255
Vcomment
p256
g4
sVcookies
p257
(lp258
sVurl
p259
Vhttps://www.google.com/gen_204?s=mobilewebhp&atyp=csi&ei=-G_zWKeVDsfdjwSh3IGQDQ&imc=1&imn=1&imp=0&adh=&xjs=init.38.12.sb_mob.26.dvl.6.c.2.mbsf.2.async.1&ima=1&rt=xjsls.12,prt.12,iml.12,dcl.38,xjses.92,xjsee.219,xjs.220,ol.291,aft.12,wsrt.156,cst.0,dnst.0,rqst.100,rspt.15,rqstt.49,unt.47,cstt.47,dit.192
p260
sVqueryString
p261
(lp262
(dp263
Vname
p264
g57
sVvalue
p265
Vmobilewebhp
p266
sa(dp267
Vname
p268
Vatyp
p269
sVvalue
p270
Vcsi
p271
sa(dp272
Vname
p273
Vei
p274
sVvalue
p275
V-G_zWKeVDsfdjwSh3IGQDQ
p276
sa(dp277
Vname
p278
Vimc
p279
sVvalue
p280
g59
sa(dp281
Vname
p282
Vimn
p283
sVvalue
p284
g59
sa(dp285
Vname
p286
Vimp
p287
sVvalue
p288
V0
p289
sa(dp290
Vname
p291
Vadh
p292
sVvalue
p293
g4
sa(dp294
Vname
p295
Vxjs
p296
sVvalue
p297
Vinit.38.12.sb_mob.26.dvl.6.c.2.mbsf.2.async.1
p298
sa(dp299
Vname
p300
Vima
p301
sVvalue
p302
g59
sa(dp303
Vname
p304
Vrt
p305
sVvalue
p306
Vxjsls.12,prt.12,iml.12,dcl.38,xjses.92,xjsee.219,xjs.220,ol.291,aft.12,wsrt.156,cst.0,dnst.0,rqst.100,rspt.15,rqstt.49,unt.47,cstt.47,dit.192
p307
sasVheaders
p308
(lp309
sVheadersSize
p310
I831
sVbodySize
p311
I0
sVmethod
p312
VGET
p313
sVhttpVersion
p314
VHTTP/1.1
p315
ssVtimings
p316
(dp317
Vcomment
p318
g4
sVreceive
p319
I0
sVsend
p320
I0
sVssl
p321
I-1
sVconnect
p322
I-1
sVdns
p323
I-1
sVwait
p324
I27
sVblocked
p325
I-1
ssVtime
p326
I27
sVresponse
p327
(dp328
Vstatus
p329
I204
sVcomment
p330
g4
sVcookies
p331
(lp332
sVstatusText
p333
VNo Content
p334
sVcontent
p335
(dp336
VmimeType
p337
Vtext/html; charset=UTF-8
p338
sVcomment
p339
g4
sVsize
p340
I0
ssVheaders
p341
(lp342
sVheadersSize
p343
I248
sVredirectURL
p344
g4
sVbodySize
p345
I0
sVhttpVersion
p346
VHTTP/1.1
p347
ssa(dp348
Vcomment
p349
g4
sVserverIPAddress
p350
V216.58.216.196
p351
sVpageref
p352
VAndrew Benintendi
p353
sVstartedDateTime
p354
V2017-04-16T08:22:01.786-05:00
p355
sVcache
p356
(dp357
sVrequest
p358
(dp359
Vcomment
p360
g4
sVcookies
p361
(lp362
sVurl
p363
Vhttps://www.google.com/complete/search?client=mobile-gws-hp&hl=en&gs_rn=64&gs_ri=mobile-gws-hp&sla=1&pfq=anita%20hill&gm=602&cp=0&gs_id=1&xhr=t&q=A&tch=1&ech=1&psi=-G_zWKeVDsfdjwSh3IGQDQ.1492348921524.1
p364
sVqueryString
p365
(lp366
(dp367
Vname
p368
Vclient
p369
sVvalue
p370
Vmobile-gws-hp
p371
sa(dp372
Vname
p373
Vhl
p374
sVvalue
p375
Ven
p376
sa(dp377
Vname
p378
Vgs_rn
p379
sVvalue
p380
V64
p381
sa(dp382
Vname
p383
Vgs_ri
p384
sVvalue
p385
Vmobile-gws-hp
p386
sa(dp387
Vname
p388
Vsla
p389
sVvalue
p390
g59
sa(dp391
Vname
p392
Vpfq
p393
sVvalue
p394
Vanita hill
p395
sa(dp396
Vname
p397
Vgm
p398
sVvalue
p399
V602
p400
sa(dp401
Vname
p402
Vcp
p403
sVvalue
p404
g289
sa(dp405
Vname
p406
Vgs_id
p407
sVvalue
p408
g59
sa(dp409
Vname
p410
Vxhr
p411
sVvalue
p412
g52
sa(dp413
Vname
p414
Vq
p415
sVvalue
p416
VA
p417
sa(dp418
Vname
p419
Vtch
p420
sVvalue
p421
g59
sa(dp422
Vname
p423
Vech
p424
sVvalue
p425
g59
sa(dp426
Vname
p427
Vpsi
p428
sVvalue
p429
V-G_zWKeVDsfdjwSh3IGQDQ.1492348921524.1
p430
sasVheaders
p431
(lp432
sVheadersSize
p433
I730
sVbodySize
p434
I0
sVmethod
p435
VGET
p436
sVhttpVersion
p437
VHTTP/1.1
p438
ssVtimings
p439
(dp440
Vcomment
p441
g4
sVreceive
p442
I0
sVsend
p443
I0
sVssl
p444
I-1
sVconnect
p445
I-1
sVdns
p446
I-1
sVwait
p447
I0
sVblocked
p448
I-1
ssVtime
p449
I0
sVresponse
p450
(dp451
Vstatus
p452
I0
sVcomment
p453
g4
sVcookies
p454
(lp455
sV_error
p456
VNo response received
p457
sVstatusText
p458
g4
sVcontent
p459
(dp460
VmimeType
p461
g4
sVcomment
p462
g4
sVsize
p463
I0
ssVheaders
p464
(lp465
sVheadersSize
p466
I-1
sVredirectURL
p467
g4
sVbodySize
p468
I-1
sVhttpVersion
p469
Vunknown
p470
ssa(dp471
Vcomment
p472
g4
sVserverIPAddress
p473
V216.58.216.196
p474
sVpageref
p475
VAndrew Benintendi
p476
sVstartedDateTime
p477
V2017-04-16T08:22:01.882-05:00
p478
sVcache
p479
(dp480
sVrequest
p481
(dp482
Vcomment
p483
g4
sVcookies
p484
(lp485
sVurl
p486
Vhttps://www.google.com/search?site=&source=hp&ei=-G_zWKeVDsfdjwSh3IGQDQ&q=Andrew+Benintendi&oq=Andrew+Benintendi&gs_l=mobile-gws-hp.3...233.287.0.324.17.1.0.0.0.0.0.0..0.0....0...1c.1.64.mobile-gws-hp..17.0.0.m7r_p-xqwsg
p487
sVqueryString
p488
(lp489
(dp490
Vname
p491
Vsite
p492
sVvalue
p493
g4
sa(dp494
Vname
p495
Vsource
p496
sVvalue
p497
Vhp
p498
sa(dp499
Vname
p500
Vei
p501
sVvalue
p502
V-G_zWKeVDsfdjwSh3IGQDQ
p503
sa(dp504
Vname
p505
g415
sVvalue
p506
VAndrew Benintendi
p507
sa(dp508
Vname
p509
Voq
p510
sVvalue
p511
VAndrew Benintendi
p512
sa(dp513
Vname
p514
Vgs_l
p515
sVvalue
p516
Vmobile-gws-hp.3...233.287.0.324.17.1.0.0.0.0.0.0..0.0....0...1c.1.64.mobile-gws-hp..17.0.0.m7r_p-xqwsg
p517
sasVheaders
p518
(lp519
sVheadersSize
p520
I838
sVbodySize
p521
I0
sVmethod
p522
VGET
p523
sVhttpVersion
p524
VHTTP/1.1
p525
ssVtimings
p526
(dp527
Vcomment
p528
g4
sVreceive
p529
I652
sVsend
p530
I0
sVssl
p531
I-1
sVconnect
p532
I-1
sVdns
p533
I-1
sVwait
p534
I111
sVblocked
p535
I-1
ssVtime
p536
I764
sVresponse
p537
(dp538
Vstatus
p539
I200
sVcomment
p540
g4
sVcookies
p541
(lp542
sVstatusText
p543
VOK
p544
sVcontent
p545
(dp546
VmimeType
p547
Vtext/html; charset=UTF-8
p548
sVcomment
p549
g4
sVsize
p550
I0
ssVheaders
p551
(lp552
sVheadersSize
p553
I363
sVredirectURL
p554
g4
sVbodySize
p555
I92616
sVhttpVersion
p556
VHTTP/1.1
p557
ssa(dp558
Vcomment
p559
g4
sVserverIPAddress
p560
V216.58.216.196
p561
sVpageref
p562
VAndrew Benintendi
p563
sVstartedDateTime
p564
V2017-04-16T08:22:03.456-05:00
p565
sVcache
p566
(dp567
sVrequest
p568
(dp569
Vcomment
p570
g4
sVcookies
p571
(lp572
sVurl
p573
Vhttps://www.google.com/async/irc?vet=10ahUKEwjMkL76iKnTAhXl7YMKHbRLDhEQo0EI0AE..i&ved=0ahUKEwjMkL76iKnTAhXl7YMKHbRLDhEQo0EI0AE&ei=-G_zWMy0NuXbjwS0l7mIAQ&yv=2&async=iu:1,ved:0ahUKEwjMkL76iKnTAhXl7YMKHbRLDhEQo0EI0AE,_id:irc_async,_pms:qs
p574
sVqueryString
p575
(lp576
(dp577
Vname
p578
Vvet
p579
sVvalue
p580
V10ahUKEwjMkL76iKnTAhXl7YMKHbRLDhEQo0EI0AE..i
p581
sa(dp582
Vname
p583
Vved
p584
sVvalue
p585
V0ahUKEwjMkL76iKnTAhXl7YMKHbRLDhEQo0EI0AE
p586
sa(dp587
Vname
p588
Vei
p589
sVvalue
p590
V-G_zWMy0NuXbjwS0l7mIAQ
p591
sa(dp592
Vname
p593
Vyv
p594
sVvalue
p595
g64
sa(dp596
Vname
p597
Vasync
p598
sVvalue
p599
Viu:1,ved:0ahUKEwjMkL76iKnTAhXl7YMKHbRLDhEQo0EI0AE,_id:irc_async,_pms:qs
p600
sasVheaders
p601
(lp602
sVheadersSize
p603
I752
sVbodySize
p604
I0
sVmethod
p605
VGET
p606
sVhttpVersion
p607
VHTTP/1.1
p608
ssVtimings
p609
(dp610
Vcomment
p611
g4
sVreceive
p612
I1
sVsend
p613
I0
sVssl
p614
I-1
sVconnect
p615
I-1
sVdns
p616
I-1
sVwait
p617
I46
sVblocked
p618
I-1
ssVtime
p619
I47
sVresponse
p620
(dp621
Vstatus
p622
I200
sVcomment
p623
g4
sVcookies
p624
(lp625
sVstatusText
p626
VOK
p627
sVcontent
p628
(dp629
VmimeType
p630
Vtext/html; charset=UTF-8
p631
sVcomment
p632
g4
sVsize
p633
I0
ssVheaders
p634
(lp635
sVheadersSize
p636
I383
sVredirectURL
p637
g4
sVbodySize
p638
I7791
sVhttpVersion
p639
VHTTP/1.1
p640
ssa(dp641
Vcomment
p642
g4
sVserverIPAddress
p643
V216.58.216.196
p644
sVpageref
p645
VAndrew Benintendi
p646
sVstartedDateTime
p647
V2017-04-16T08:22:03.472-05:00
p648
sVcache
p649
(dp650
sVrequest
p651
(dp652
Vcomment
p653
g4
sVcookies
p654
(lp655
sVurl
p656
Vhttps://www.google.com/gen_204?atyp=i&ct=&cad=&vet=10ahUKEwjMkL76iKnTAhXl7YMKHbRLDhEQ5W0IPSgC..s&ei=-G_zWMy0NuXbjwS0l7mIAQ&zx=1492348923470
p657
sVqueryString
p658
(lp659
(dp660
Vname
p661
Vatyp
p662
sVvalue
p663
g30
sa(dp664
Vname
p665
Vct
p666
sVvalue
p667
g4
sa(dp668
Vname
p669
Vcad
p670
sVvalue
p671
g4
sa(dp672
Vname
p673
Vvet
p674
sVvalue
p675
V10ahUKEwjMkL76iKnTAhXl7YMKHbRLDhEQ5W0IPSgC..s
p676
sa(dp677
Vname
p678
Vei
p679
sVvalue
p680
V-G_zWMy0NuXbjwS0l7mIAQ
p681
sa(dp682
Vname
p683
Vzx
p684
sVvalue
p685
V1492348923470
p686
sasVheaders
p687
(lp688
sVheadersSize
p689
I656
sVbodySize
p690
I0
sVmethod
p691
VGET
p692
sVhttpVersion
p693
VHTTP/1.1
p694
ssVtimings
p695
(dp696
Vcomment
p697
g4
sVreceive
p698
I0
sVsend
p699
I0
sVssl
p700
I-1
sVconnect
p701
I-1
sVdns
p702
I-1
sVwait
p703
I37
sVblocked
p704
I-1
ssVtime
p705
I37
sVresponse
p706
(dp707
Vstatus
p708
I204
sVcomment
p709
g4
sVcookies
p710
(lp711
sVstatusText
p712
VNo Content
p713
sVcontent
p714
(dp715
VmimeType
p716
Vtext/html; charset=UTF-8
p717
sVcomment
p718
g4
sVsize
p719
I0
ssVheaders
p720
(lp721
sVheadersSize
p722
I248
sVredirectURL
p723
g4
sVbodySize
p724
I0
sVhttpVersion
p725
VHTTP/1.1
p726
ssa(dp727
Vcomment
p728
g4
sVserverIPAddress
p729
V216.58.216.196
p730
sVpageref
p731
VAndrew Benintendi
p732
sVstartedDateTime
p733
V2017-04-16T08:22:03.482-05:00
p734
sVcache
p735
(dp736
sVrequest
p737
(dp738
Vcomment
p739
g4
sVcookies
p740
(lp741
sVurl
p742
Vhttps://www.google.com/gen_204?atyp=i&ct=&cad=&vet=10ahUKEwjMkL76iKnTAhXl7YMKHbRLDhEQ5W0IQCgD..s&ei=-G_zWMy0NuXbjwS0l7mIAQ&zx=1492348923477
p743
sVqueryString
p744
(lp745
(dp746
Vname
p747
Vatyp
p748
sVvalue
p749
g30
sa(dp750
Vname
p751
Vct
p752
sVvalue
p753
g4
sa(dp754
Vname
p755
Vcad
p756
sVvalue
p757
g4
sa(dp758
Vname
p759
Vvet
p760
sVvalue
p761
V10ahUKEwjMkL76iKnTAhXl7YMKHbRLDhEQ5W0IQCgD..s
p762
sa(dp763
Vname
p764
Vei
p765
sVvalue
p766
V-G_zWMy0NuXbjwS0l7mIAQ
p767
sa(dp768
Vname
p769
Vzx
p770
sVvalue
p771
V1492348923477
p772
sasVheaders
p773
(lp774
sVheadersSize
p775
I656
sVbodySize
p776
I0
sVmethod
p777
VGET
p778
sVhttpVersion
p779
VHTTP/1.1
p780
ssVtimings
p781
(dp782
Vcomment
p783
g4
sVreceive
p784
I0
sVsend
p785
I4
sVssl
p786
I-1
sVconnect
p787
I-1
sVdns
p788
I-1
sVwait
p789
I30
sVblocked
p790
I-1
ssVtime
p791
I34
sVresponse
p792
(dp793
Vstatus
p794
I204
sVcomment
p795
g4
sVcookies
p796
(lp797
sVstatusText
p798
VNo Content
p799
sVcontent
p800
(dp801
VmimeType
p802
Vtext/html; charset=UTF-8
p803
sVcomment
p804
g4
sVsize
p805
I0
ssVheaders
p806
(lp807
sVheadersSize
p808
I248
sVredirectURL
p809
g4
sVbodySize
p810
I0
sVhttpVersion
p811
VHTTP/1.1
p812
ssa(dp813
Vcomment
p814
g4
sVserverIPAddress
p815
V216.58.216.196
p816
sVpageref
p817
VAndrew Benintendi
p818
sVstartedDateTime
p819
V2017-04-16T08:22:03.490-05:00
p820
sVcache
p821
(dp822
sVrequest
p823
(dp824
Vcomment
p825
g4
sVcookies
p826
(lp827
sVurl
p828
Vhttps://www.google.com/gen_204?atyp=i&ct=&cad=&vet=10ahUKEwjMkL76iKnTAhXl7YMKHbRLDhEQ5W0IQygE..s&ei=-G_zWMy0NuXbjwS0l7mIAQ&zx=1492348923484
p829
sVqueryString
p830
(lp831
(dp832
Vname
p833
Vatyp
p834
sVvalue
p835
g30
sa(dp836
Vname
p837
Vct
p838
sVvalue
p839
g4
sa(dp840
Vname
p841
Vcad
p842
sVvalue
p843
g4
sa(dp844
Vname
p845
Vvet
p846
sVvalue
p847
V10ahUKEwjMkL76iKnTAhXl7YMKHbRLDhEQ5W0IQygE..s
p848
sa(dp849
Vname
p850
Vei
p851
sVvalue
p852
V-G_zWMy0NuXbjwS0l7mIAQ
p853
sa(dp854
Vname
p855
Vzx
p856
sVvalue
p857
V1492348923484
p858
sasVheaders
p859
(lp860
sVheadersSize
p861
I656
sVbodySize
p862
I0
sVmethod
p863
VGET
p864
sVhttpVersion
p865
VHTTP/1.1
p866
ssVtimings
p867
(dp868
Vcomment
p869
g4
sVreceive
p870
I0
sVsend
p871
I0
sVssl
p872
I-1
sVconnect
p873
I-1
sVdns
p874
I-1
sVwait
p875
I157
sVblocked
p876
I-1
ssVtime
p877
I158
sVresponse
p878
(dp879
Vstatus
p880
I204
sVcomment
p881
g4
sVcookies
p882
(lp883
sVstatusText
p884
VNo Content
p885
sVcontent
p886
(dp887
VmimeType
p888
Vtext/html; charset=UTF-8
p889
sVcomment
p890
g4
sVsize
p891
I0
ssVheaders
p892
(lp893
sVheadersSize
p894
I248
sVredirectURL
p895
g4
sVbodySize
p896
I0
sVhttpVersion
p897
VHTTP/1.1
p898
ssa(dp899
Vcomment
p900
g4
sVserverIPAddress
p901
V216.58.216.196
p902
sVpageref
p903
VAndrew Benintendi
p904
sVstartedDateTime
p905
V2017-04-16T08:22:03.504-05:00
p906
sVcache
p907
(dp908
sVrequest
p909
(dp910
Vcomment
p911
g4
sVcookies
p912
(lp913
sVurl
p914
Vhttps://www.google.com/gen_204?atyp=i&ct=&cad=&vet=10ahUKEwjMkL76iKnTAhXl7YMKHbRLDhEQ5W0ITCgH..s&ei=-G_zWMy0NuXbjwS0l7mIAQ&zx=1492348923500
p915
sVqueryString
p916
(lp917
(dp918
Vname
p919
Vatyp
p920
sVvalue
p921
g30
sa(dp922
Vname
p923
Vct
p924
sVvalue
p925
g4
sa(dp926
Vname
p927
Vcad
p928
sVvalue
p929
g4
sa(dp930
Vname
p931
Vvet
p932
sVvalue
p933
V10ahUKEwjMkL76iKnTAhXl7YMKHbRLDhEQ5W0ITCgH..s
p934
sa(dp935
Vname
p936
Vei
p937
sVvalue
p938
V-G_zWMy0NuXbjwS0l7mIAQ
p939
sa(dp940
Vname
p941
Vzx
p942
sVvalue
p943
V1492348923500
p944
sasVheaders
p945
(lp946
sVheadersSize
p947
I656
sVbodySize
p948
I0
sVmethod
p949
VGET
p950
sVhttpVersion
p951
VHTTP/1.1
p952
ssVtimings
p953
(dp954
Vcomment
p955
g4
sVreceive
p956
I0
sVsend
p957
I0
sVssl
p958
I-1
sVconnect
p959
I-1
sVdns
p960
I-1
sVwait
p961
I41
sVblocked
p962
I-1
ssVtime
p963
I41
sVresponse
p964
(dp965
Vstatus
p966
I204
sVcomment
p967
g4
sVcookies
p968
(lp969
sVstatusText
p970
VNo Content
p971
sVcontent
p972
(dp973
VmimeType
p974
Vtext/html; charset=UTF-8
p975
sVcomment
p976
g4
sVsize
p977
I0
ssVheaders
p978
(lp979
sVheadersSize
p980
I248
sVredirectURL
p981
g4
sVbodySize
p982
I0
sVhttpVersion
p983
VHTTP/1.1
p984
ssa(dp985
Vcomment
p986
g4
sVserverIPAddress
p987
V216.58.216.196
p988
sVpageref
p989
VAndrew Benintendi
p990
sVstartedDateTime
p991
V2017-04-16T08:22:03.511-05:00
p992
sVcache
p993
(dp994
sVrequest
p995
(dp996
Vcomment
p997
g4
sVcookies
p998
(lp999
sVurl
p1000
Vhttps://www.google.com/gen_204?atyp=i&ct=&cad=&vet=10ahUKEwjMkL76iKnTAhXl7YMKHbRLDhEQ5W0ITygI..s&ei=-G_zWMy0NuXbjwS0l7mIAQ&zx=1492348923504
p1001
sVqueryString
p1002
(lp1003
(dp1004
Vname
p1005
Vatyp
p1006
sVvalue
p1007
g30
sa(dp1008
Vname
p1009
Vct
p1010
sVvalue
p1011
g4
sa(dp1012
Vname
p1013
Vcad
p1014
sVvalue
p1015
g4
sa(dp1016
Vname
p1017
Vvet
p1018
sVvalue
p1019
V10ahUKEwjMkL76iKnTAhXl7YMKHbRLDhEQ5W0ITygI..s
p1020
sa(dp1021
Vname
p1022
Vei
p1023
sVvalue
p1024
V-G_zWMy0NuXbjwS0l7mIAQ
p1025
sa(dp1026
Vname
p1027
Vzx
p1028
sVvalue
p1029
V1492348923504
p1030
sasVheaders
p1031
(lp1032
sVheadersSize
p1033
I656
sVbodySize
p1034
I0
sVmethod
p1035
VGET
p1036
sVhttpVersion
p1037
VHTTP/1.1
p1038
ssVtimings
p1039
(dp1040
Vcomment
p1041
g4
sVreceive
p1042
I0
sVsend
p1043
I1
sVssl
p1044
I-1
sVconnect
p1045
I-1
sVdns
p1046
I-1
sVwait
p1047
I33
sVblocked
p1048
I-1
ssVtime
p1049
I34
sVresponse
p1050
(dp1051
Vstatus
p1052
I204
sVcomment
p1053
g4
sVcookies
p1054
(lp1055
sVstatusText
p1056
VNo Content
p1057
sVcontent
p1058
(dp1059
VmimeType
p1060
Vtext/html; charset=UTF-8
p1061
sVcomment
p1062
g4
sVsize
p1063
I0
ssVheaders
p1064
(lp1065
sVheadersSize
p1066
I248
sVredirectURL
p1067
g4
sVbodySize
p1068
I0
sVhttpVersion
p1069
VHTTP/1.1
p1070
ssa(dp1071
Vcomment
p1072
g4
sVserverIPAddress
p1073
V216.58.216.196
p1074
sVpageref
p1075
VAndrew Benintendi
p1076
sVstartedDateTime
p1077
V2017-04-16T08:22:03.519-05:00
p1078
sVcache
p1079
(dp1080
sVrequest
p1081
(dp1082
Vcomment
p1083
g4
sVcookies
p1084
(lp1085
sVurl
p1086
Vhttps://www.google.com/gen_204?atyp=i&ct=&cad=&vet=10ahUKEwjMkL76iKnTAhXl7YMKHbRLDhEQ5W0IUigJ..s&ei=-G_zWMy0NuXbjwS0l7mIAQ&zx=1492348923506
p1087
sVqueryString
p1088
(lp1089
(dp1090
Vname
p1091
Vatyp
p1092
sVvalue
p1093
g30
sa(dp1094
Vname
p1095
Vct
p1096
sVvalue
p1097
g4
sa(dp1098
Vname
p1099
Vcad
p1100
sVvalue
p1101
g4
sa(dp1102
Vname
p1103
Vvet
p1104
sVvalue
p1105
V10ahUKEwjMkL76iKnTAhXl7YMKHbRLDhEQ5W0IUigJ..s
p1106
sa(dp1107
Vname
p1108
Vei
p1109
sVvalue
p1110
V-G_zWMy0NuXbjwS0l7mIAQ
p1111
sa(dp1112
Vname
p1113
Vzx
p1114
sVvalue
p1115
V1492348923506
p1116
sasVheaders
p1117
(lp1118
sVheadersSize
p1119
I656
sVbodySize
p1120
I0
sVmethod
p1121
VGET
p1122
sVhttpVersion
p1123
VHTTP/1.1
p1124
ssVtimings
p1125
(dp1126
Vcomment
p1127
g4
sVreceive
p1128
I0
sVsend
p1129
I0
sVssl
p1130
I-1
sVconnect
p1131
I-1
sVdns
p1132
I-1
sVwait
p1133
I31
sVblocked
p1134
I-1
ssVtime
p1135
I32
sVresponse
p1136
(dp1137
Vstatus
p1138
I204
sVcomment
p1139
g4
sVcookies
p1140
(lp1141
sVstatusText
p1142
VNo Content
p1143
sVcontent
p1144
(dp1145
VmimeType
p1146
Vtext/html; charset=UTF-8
p1147
sVcomment
p1148
g4
sVsize
p1149
I0
ssVheaders
p1150
(lp1151
sVheadersSize
p1152
I248
sVredirectURL
p1153
g4
sVbodySize
p1154
I0
sVhttpVersion
p1155
VHTTP/1.1
p1156
ssa(dp1157
Vcomment
p1158
g4
sVserverIPAddress
p1159
V216.58.216.196
p1160
sVpageref
p1161
VAndrew Benintendi
p1162
sVstartedDateTime
p1163
V2017-04-16T08:22:03.551-05:00
p1164
sVcache
p1165
(dp1166
sVrequest
p1167
(dp1168
Vcomment
p1169
g4
sVcookies
p1170
(lp1171
sVurl
p1172
Vhttps://www.google.com/gen_204?atyp=i&ct=&cad=&vet=10ahUKEwjMkL76iKnTAhXl7YMKHbRLDhEQ5W0IRigF..s&ei=-G_zWMy0NuXbjwS0l7mIAQ&zx=1492348923490
p1173
sVqueryString
p1174
(lp1175
(dp1176
Vname
p1177
Vatyp
p1178
sVvalue
p1179
g30
sa(dp1180
Vname
p1181
Vct
p1182
sVvalue
p1183
g4
sa(dp1184
Vname
p1185
Vcad
p1186
sVvalue
p1187
g4
sa(dp1188
Vname
p1189
Vvet
p1190
sVvalue
p1191
V10ahUKEwjMkL76iKnTAhXl7YMKHbRLDhEQ5W0IRigF..s
p1192
sa(dp1193
Vname
p1194
Vei
p1195
sVvalue
p1196
V-G_zWMy0NuXbjwS0l7mIAQ
p1197
sa(dp1198
Vname
p1199
Vzx
p1200
sVvalue
p1201
V1492348923490
p1202
sasVheaders
p1203
(lp1204
sVheadersSize
p1205
I656
sVbodySize
p1206
I0
sVmethod
p1207
VGET
p1208
sVhttpVersion
p1209
VHTTP/1.1
p1210
ssVtimings
p1211
(dp1212
Vcomment
p1213
g4
sVreceive
p1214
I0
sVsend
p1215
I0
sVssl
p1216
I33
sVconnect
p1217
I52
sVdns
p1218
I2
sVwait
p1219
I36
sVblocked
p1220
I0
ssVtime
p1221
I91
sVresponse
p1222
(dp1223
Vstatus
p1224
I204
sVcomment
p1225
g4
sVcookies
p1226
(lp1227
sVstatusText
p1228
VNo Content
p1229
sVcontent
p1230
(dp1231
VmimeType
p1232
Vtext/html; charset=UTF-8
p1233
sVcomment
p1234
g4
sVsize
p1235
I0
ssVheaders
p1236
(lp1237
sVheadersSize
p1238
I248
sVredirectURL
p1239
g4
sVbodySize
p1240
I0
sVhttpVersion
p1241
VHTTP/1.1
p1242
ssa(dp1243
Vcomment
p1244
g4
sVserverIPAddress
p1245
V216.58.216.196
p1246
sVpageref
p1247
VAndrew Benintendi
p1248
sVstartedDateTime
p1249
V2017-04-16T08:22:03.552-05:00
p1250
sVcache
p1251
(dp1252
sVrequest
p1253
(dp1254
Vcomment
p1255
g4
sVcookies
p1256
(lp1257
sVurl
p1258
Vhttps://www.google.com/gen_204?atyp=i&ct=&cad=&vet=10ahUKEwjMkL76iKnTAhXl7YMKHbRLDhEQ5W0ISSgG..s&ei=-G_zWMy0NuXbjwS0l7mIAQ&zx=1492348923498
p1259
sVqueryString
p1260
(lp1261
(dp1262
Vname
p1263
Vatyp
p1264
sVvalue
p1265
g30
sa(dp1266
Vname
p1267
Vct
p1268
sVvalue
p1269
g4
sa(dp1270
Vname
p1271
Vcad
p1272
sVvalue
p1273
g4
sa(dp1274
Vname
p1275
Vvet
p1276
sVvalue
p1277
V10ahUKEwjMkL76iKnTAhXl7YMKHbRLDhEQ5W0ISSgG..s
p1278
sa(dp1279
Vname
p1280
Vei
p1281
sVvalue
p1282
V-G_zWMy0NuXbjwS0l7mIAQ
p1283
sa(dp1284
Vname
p1285
Vzx
p1286
sVvalue
p1287
V1492348923498
p1288
sasVheaders
p1289
(lp1290
sVheadersSize
p1291
I656
sVbodySize
p1292
I0
sVmethod
p1293
VGET
p1294
sVhttpVersion
p1295
VHTTP/1.1
p1296
ssVtimings
p1297
(dp1298
Vcomment
p1299
g4
sVreceive
p1300
I0
sVsend
p1301
I0
sVssl
p1302
I35
sVconnect
p1303
I50
sVdns
p1304
I0
sVwait
p1305
I42
sVblocked
p1306
I0
ssVtime
p1307
I93
sVresponse
p1308
(dp1309
Vstatus
p1310
I204
sVcomment
p1311
g4
sVcookies
p1312
(lp1313
sVstatusText
p1314
VNo Content
p1315
sVcontent
p1316
(dp1317
VmimeType
p1318
Vtext/html; charset=UTF-8
p1319
sVcomment
p1320
g4
sVsize
p1321
I0
ssVheaders
p1322
(lp1323
sVheadersSize
p1324
I248
sVredirectURL
p1325
g4
sVbodySize
p1326
I0
sVhttpVersion
p1327
VHTTP/1.1
p1328
ssa(dp1329
Vcomment
p1330
g4
sVserverIPAddress
p1331
V216.58.216.196
p1332
sVpageref
p1333
VAndrew Benintendi
p1334
sVstartedDateTime
p1335
V2017-04-16T08:22:03.635-05:00
p1336
sVcache
p1337
(dp1338
sVrequest
p1339
(dp1340
Vcomment
p1341
g4
sVcookies
p1342
(lp1343
sVurl
p1344
Vhttps://www.google.com/async/ampfp?vet=10ahUKEwjMkL76iKnTAhXl7YMKHbRLDhEQtZoBCM4B..i&ei=-G_zWMy0NuXbjwS0l7mIAQ&yv=2&async=_id:ampfp-async,_pms:qs
p1345
sVqueryString
p1346
(lp1347
(dp1348
Vname
p1349
Vvet
p1350
sVvalue
p1351
V10ahUKEwjMkL76iKnTAhXl7YMKHbRLDhEQtZoBCM4B..i
p1352
sa(dp1353
Vname
p1354
Vei
p1355
sVvalue
p1356
V-G_zWMy0NuXbjwS0l7mIAQ
p1357
sa(dp1358
Vname
p1359
Vyv
p1360
sVvalue
p1361
g64
sa(dp1362
Vname
p1363
Vasync
p1364
sVvalue
p1365
V_id:ampfp-async,_pms:qs
p1366
sasVheaders
p1367
(lp1368
sVheadersSize
p1369
I662
sVbodySize
p1370
I0
sVmethod
p1371
VGET
p1372
sVhttpVersion
p1373
VHTTP/1.1
p1374
ssVtimings
p1375
(dp1376
Vcomment
p1377
g4
sVreceive
p1378
I0
sVsend
p1379
I0
sVssl
p1380
I-1
sVconnect
p1381
I-1
sVdns
p1382
I-1
sVwait
p1383
I48
sVblocked
p1384
I-1
ssVtime
p1385
I48
sVresponse
p1386
(dp1387
Vstatus
p1388
I200
sVcomment
p1389
g4
sVcookies
p1390
(lp1391
sVstatusText
p1392
VOK
p1393
sVcontent
p1394
(dp1395
VmimeType
p1396
Vtext/html; charset=UTF-8
p1397
sVcomment
p1398
g4
sVsize
p1399
I0
ssVheaders
p1400
(lp1401
sVheadersSize
p1402
I383
sVredirectURL
p1403
g4
sVbodySize
p1404
I4528
sVhttpVersion
p1405
VHTTP/1.1
p1406
ssa(dp1407
Vcomment
p1408
g4
sVserverIPAddress
p1409
V216.58.216.193
p1410
sVpageref
p1411
VAndrew Benintendi
p1412
sVstartedDateTime
p1413
V2017-04-16T08:22:03.636-05:00
p1414
sVcache
p1415
(dp1416
sVrequest
p1417
(dp1418
Vcomment
p1419
g4
sVcookies
p1420
(lp1421
sVurl
p1422
Vhttps://cdn.ampproject.org/preconnect.gif?0.06019751606940149
p1423
sVqueryString
p1424
(lp1425
(dp1426
Vname
p1427
V0.06019751606940149
p1428
sVvalue
p1429
g4
sasVheaders
p1430
(lp1431
sVheadersSize
p1432
I376
sVbodySize
p1433
I0
sVmethod
p1434
VGET
p1435
sVhttpVersion
p1436
VHTTP/1.1
p1437
ssVtimings
p1438
(dp1439
Vcomment
p1440
g4
sVreceive
p1441
I0
sVsend
p1442
I0
sVssl
p1443
I-1
sVconnect
p1444
I-1
sVdns
p1445
I-1
sVwait
p1446
I33
sVblocked
p1447
I-1
ssVtime
p1448
I33
sVresponse
p1449
(dp1450
Vstatus
p1451
I200
sVcomment
p1452
g4
sVcookies
p1453
(lp1454
sVstatusText
p1455
VOK
p1456
sVcontent
p1457
(dp1458
VmimeType
p1459
Vimage/gif
p1460
sVcomment
p1461
g4
sVsize
p1462
I0
ssVheaders
p1463
(lp1464
sVheadersSize
p1465
I826
sVredirectURL
p1466
g4
sVbodySize
p1467
I37
sVhttpVersion
p1468
VHTTP/1.1
p1469
ssa(dp1470
Vcomment
p1471
g4
sVserverIPAddress
p1472
V216.58.216.206
p1473
sVpageref
p1474
VAndrew Benintendi
p1475
sVstartedDateTime
p1476
V2017-04-16T08:22:03.668-05:00
p1477
sVcache
p1478
(dp1479
sVrequest
p1480
(dp1481
Vcomment
p1482
g4
sVcookies
p1483
(lp1484
sVurl
p1485
Vhttps://encrypted-tbn0.gstatic.com/images?q=tbn:ANd9GcRdO9Jgq9yZAv2fnbUIK-lnq9i5_Yp2PyZIAG5t9uIkYaP4WWiknfbUB8A
p1486
sVqueryString
p1487
(lp1488
(dp1489
Vname
p1490
g415
sVvalue
p1491
Vtbn:ANd9GcRdO9Jgq9yZAv2fnbUIK-lnq9i5_Yp2PyZIAG5t9uIkYaP4WWiknfbUB8A
p1492
sasVheaders
p1493
(lp1494
sVheadersSize
p1495
I426
sVbodySize
p1496
I0
sVmethod
p1497
VGET
p1498
sVhttpVersion
p1499
VHTTP/1.1
p1500
ssVtimings
p1501
(dp1502
Vcomment
p1503
g4
sVreceive
p1504
I0
sVsend
p1505
I0
sVssl
p1506
I-1
sVconnect
p1507
I-1
sVdns
p1508
I-1
sVwait
p1509
I18
sVblocked
p1510
I-1
ssVtime
p1511
I18
sVresponse
p1512
(dp1513
Vstatus
p1514
I200
sVcomment
p1515
g4
sVcookies
p1516
(lp1517
sVstatusText
p1518
VOK
p1519
sVcontent
p1520
(dp1521
VmimeType
p1522
Vimage/jpeg
p1523
sVcomment
p1524
g4
sVsize
p1525
I0
ssVheaders
p1526
(lp1527
sVheadersSize
p1528
I428
sVredirectURL
p1529
g4
sVbodySize
p1530
I3261
sVhttpVersion
p1531
VHTTP/1.1
p1532
ssa(dp1533
Vcomment
p1534
g4
sVserverIPAddress
p1535
V216.58.216.196
p1536
sVpageref
p1537
VAndrew Benintendi
p1538
sVstartedDateTime
p1539
V2017-04-16T08:22:03.826-05:00
p1540
sVcache
p1541
(dp1542
sVrequest
p1543
(dp1544
Vcomment
p1545
g4
sVcookies
p1546
(lp1547
sVurl
p1548
Vhttps://www.google.com/async/log_amp_item_set?vet=10ahUKEwidiqn7iKnTAhVo3IMKHYK_A8cQooQBCAE..i&ei=-G_zWMy0NuXbjwS0l7mIAQ&yv=2&async=num_items:2,_fmt:jspb
p1549
sVqueryString
p1550
(lp1551
(dp1552
Vname
p1553
Vvet
p1554
sVvalue
p1555
V10ahUKEwidiqn7iKnTAhVo3IMKHYK_A8cQooQBCAE..i
p1556
sa(dp1557
Vname
p1558
Vei
p1559
sVvalue
p1560
V-G_zWMy0NuXbjwS0l7mIAQ
p1561
sa(dp1562
Vname
p1563
Vyv
p1564
sVvalue
p1565
g64
sa(dp1566
Vname
p1567
Vasync
p1568
sVvalue
p1569
Vnum_items:2,_fmt:jspb
p1570
sasVheaders
p1571
(lp1572
sVheadersSize
p1573
I670
sVbodySize
p1574
I0
sVmethod
p1575
VGET
p1576
sVhttpVersion
p1577
VHTTP/1.1
p1578
ssVtimings
p1579
(dp1580
Vcomment
p1581
g4
sVreceive
p1582
I0
sVsend
p1583
I0
sVssl
p1584
I-1
sVconnect
p1585
I-1
sVdns
p1586
I-1
sVwait
p1587
I33
sVblocked
p1588
I-1
ssVtime
p1589
I34
sVresponse
p1590
(dp1591
Vstatus
p1592
I200
sVcomment
p1593
g4
sVcookies
p1594
(lp1595
sVstatusText
p1596
VOK
p1597
sVcontent
p1598
(dp1599
VmimeType
p1600
Vapplication/json; charset=UTF-8
p1601
sVcomment
p1602
g4
sVsize
p1603
I0
ssVheaders
p1604
(lp1605
sVheadersSize
p1606
I417
sVredirectURL
p1607
g4
sVbodySize
p1608
I141
sVhttpVersion
p1609
VHTTP/1.1
p1610
ssa(dp1611
Vcomment
p1612
g4
sVserverIPAddress
p1613
V216.58.216.193
p1614
sVpageref
p1615
VAndrew Benintendi
p1616
sVstartedDateTime
p1617
V2017-04-16T08:22:04.275-05:00
p1618
sVcache
p1619
(dp1620
sVrequest
p1621
(dp1622
Vcomment
p1623
g4
sVcookies
p1624
(lp1625
sVurl
p1626
Vhttps://amp-masslive-com.cdn.ampproject.org/v/amp.masslive.com/v1/articles/20485038/andrew_benintendi_mookie_betts.amp?amp_js_v=9
p1627
sVqueryString
p1628
(lp1629
(dp1630
Vname
p1631
Vamp_js_v
p1632
sVvalue
p1633
V9
p1634
sasVheaders
p1635
(lp1636
sVheadersSize
p1637
I534
sVbodySize
p1638
I0
sVmethod
p1639
VGET
p1640
sVhttpVersion
p1641
VHTTP/1.1
p1642
ssVtimings
p1643
(dp1644
Vcomment
p1645
g4
sVreceive
p1646
I1
sVsend
p1647
I0
sVssl
p1648
I370
sVconnect
p1649
I389
sVdns
p1650
I49
sVwait
p1651
I47
sVblocked
p1652
I0
ssVtime
p1653
I488
sVresponse
p1654
(dp1655
Vstatus
p1656
I200
sVcomment
p1657
g4
sVcookies
p1658
(lp1659
sVstatusText
p1660
VOK
p1661
sVcontent
p1662
(dp1663
VmimeType
p1664
Vtext/html
p1665
sVcomment
p1666
g4
sVsize
p1667
I0
ssVheaders
p1668
(lp1669
sVheadersSize
p1670
I861
sVredirectURL
p1671
g4
sVbodySize
p1672
I5741
sVhttpVersion
p1673
VHTTP/1.1
p1674
ssa(dp1675
Vcomment
p1676
g4
sVserverIPAddress
p1677
V216.58.216.196
p1678
sVpageref
p1679
VAndrew Benintendi
p1680
sVstartedDateTime
p1681
V2017-04-16T08:22:05.015-05:00
p1682
sVcache
p1683
(dp1684
sVrequest
p1685
(dp1686
Vcomment
p1687
g4
sVcookies
p1688
(lp1689
sVurl
p1690
Vhttps://www.google.com/gen_204?s=amp&atyp=csi&ei=-G_zWMy0NuXbjwS0l7mIAQ&ampexp=011492014732688&action=Prerender&rt=msr.302,is.600,mbv.789,e_is.789
p1691
sVqueryString
p1692
(lp1693
(dp1694
Vname
p1695
g57
sVvalue
p1696
Vamp
p1697
sa(dp1698
Vname
p1699
Vatyp
p1700
sVvalue
p1701
Vcsi
p1702
sa(dp1703
Vname
p1704
Vei
p1705
sVvalue
p1706
V-G_zWMy0NuXbjwS0l7mIAQ
p1707
sa(dp1708
Vname
p1709
Vampexp
p1710
sVvalue
p1711
V011492014732688
p1712
sa(dp1713
Vname
p1714
Vaction
p1715
sVvalue
p1716
VPrerender
p1717
sa(dp1718
Vname
p1719
Vrt
p1720
sVvalue
p1721
Vmsr.302,is.600,mbv.789,e_is.789
p1722
sasVheaders
p1723
(lp1724
sVheadersSize
p1725
I663
sVbodySize
p1726
I0
sVmethod
p1727
VGET
p1728
sVhttpVersion
p1729
VHTTP/1.1
p1730
ssVtimings
p1731
(dp1732
Vcomment
p1733
g4
sVreceive
p1734
I0
sVsend
p1735
I0
sVssl
p1736
I-1
sVconnect
p1737
I-1
sVdns
p1738
I-1
sVwait
p1739
I31
sVblocked
p1740
I-1
ssVtime
p1741
I31
sVresponse
p1742
(dp1743
Vstatus
p1744
I204
sVcomment
p1745
g4
sVcookies
p1746
(lp1747
sVstatusText
p1748
VNo Content
p1749
sVcontent
p1750
(dp1751
VmimeType
p1752
Vtext/html; charset=UTF-8
p1753
sVcomment
p1754
g4
sVsize
p1755
I0
ssVheaders
p1756
(lp1757
sVheadersSize
p1758
I248
sVredirectURL
p1759
g4
sVbodySize
p1760
I0
sVhttpVersion
p1761
VHTTP/1.1
p1762
ssa(dp1763
Vcomment
p1764
g4
sVserverIPAddress
p1765
V216.58.216.193
p1766
sVpageref
p1767
VAndrew Benintendi
p1768
sVstartedDateTime
p1769
V2017-04-16T08:22:05.040-05:00
p1770
sVcache
p1771
(dp1772
sVrequest
p1773
(dp1774
Vcomment
p1775
g4
sVcookies
p1776
(lp1777
sVurl
p1778
Vhttps://media-advance-net.cdn.ampproject.org/i/media.advance.net/avatars/11/71/90/60.png
p1779
sVqueryString
p1780
(lp1781
sVheaders
p1782
(lp1783
sVheadersSize
p1784
I509
sVbodySize
p1785
I0
sVmethod
p1786
VGET
p1787
sVhttpVersion
p1788
VHTTP/1.1
p1789
ssVtimings
p1790
(dp1791
Vcomment
p1792
g4
sVreceive
p1793
I0
sVsend
p1794
I0
sVssl
p1795
I618
sVconnect
p1796
I637
sVdns
p1797
I33
sVwait
p1798
I46
sVblocked
p1799
I0
ssVtime
p1800
I718
sVresponse
p1801
(dp1802
Vstatus
p1803
I200
sVcomment
p1804
g4
sVcookies
p1805
(lp1806
sVstatusText
p1807
VOK
p1808
sVcontent
p1809
(dp1810
VmimeType
p1811
Vimage/png
p1812
sVcomment
p1813
g4
sVsize
p1814
I0
ssVheaders
p1815
(lp1816
sVheadersSize
p1817
I819
sVredirectURL
p1818
g4
sVbodySize
p1819
I3247
sVhttpVersion
p1820
VHTTP/1.1
p1821
ssa(dp1822
Vcomment
p1823
g4
sVserverIPAddress
p1824
V216.58.216.196
p1825
sVpageref
p1826
VAndrew Benintendi
p1827
sVstartedDateTime
p1828
V2017-04-16T08:22:05.581-05:00
p1829
sVcache
p1830
(dp1831
sVrequest
p1832
(dp1833
Vcomment
p1834
g4
sVcookies
p1835
(lp1836
sVurl
p1837
Vhttps://www.google.com/gen_204?atyp=i&ct=slh&cad=&ei=4m_zWMCpCczVjwTyhpHoAg&m=V&t=C&s=1&v=2&pv=0.27773193260042783&me=1:1492348900960,x:3,V,0,0,1280,944:0,N,1,4m_zWMCpCczVjwTyhpHoAg:0,R,1,24,8,155,1249,736:0,R,1,25,8,155,1249,736:0,R,1,28,8,168,1249,40:0,R,1,41,8,219,1249,178:0,R,1,44,0,235,1265,197:0,R,1,84,8,414,1249,40:0,R,1,85,24,414,1217,40:0,R,1,91,8,470,1249,20:0,R,1,115,8,555,1249,263:0,R,1,116,0,555,1265,283:0,R,1,150,24,901,1217,135:3,B,2947:20217,e,U&zx=1492348925580
p1838
sVqueryString
p1839
(lp1840
(dp1841
Vname
p1842
Vatyp
p1843
sVvalue
p1844
g30
sa(dp1845
Vname
p1846
Vct
p1847
sVvalue
p1848
Vslh
p1849
sa(dp1850
Vname
p1851
Vcad
p1852
sVvalue
p1853
g4
sa(dp1854
Vname
p1855
Vei
p1856
sVvalue
p1857
V4m_zWMCpCczVjwTyhpHoAg
p1858
sa(dp1859
Vname
p1860
g47
sVvalue
p1861
g49
sa(dp1862
Vname
p1863
g52
sVvalue
p1864
g54
sa(dp1865
Vname
p1866
g57
sVvalue
p1867
g59
sa(dp1868
Vname
p1869
g62
sVvalue
p1870
g64
sa(dp1871
Vname
p1872
Vpv
p1873
sVvalue
p1874
V0.27773193260042783
p1875
sa(dp1876
Vname
p1877
Vme
p1878
sVvalue
p1879
V1:1492348900960,x:3,V,0,0,1280,944:0,N,1,4m_zWMCpCczVjwTyhpHoAg:0,R,1,24,8,155,1249,736:0,R,1,25,8,155,1249,736:0,R,1,28,8,168,1249,40:0,R,1,41,8,219,1249,178:0,R,1,44,0,235,1265,197:0,R,1,84,8,414,1249,40:0,R,1,85,24,414,1217,40:0,R,1,91,8,470,1249,20:0,R,1,115,8,555,1249,263:0,R,1,116,0,555,1265,283:0,R,1,150,24,901,1217,135:3,B,2947:20217,e,U
p1880
sa(dp1881
Vname
p1882
Vzx
p1883
sVvalue
p1884
V1492348925580
p1885
sasVheaders
p1886
(lp1887
sVheadersSize
p1888
I999
sVbodySize
p1889
I0
sVmethod
p1890
VGET
p1891
sVhttpVersion
p1892
VHTTP/1.1
p1893
ssVtimings
p1894
(dp1895
Vcomment
p1896
g4
sVreceive
p1897
I0
sVsend
p1898
I0
sVssl
p1899
I-1
sVconnect
p1900
I-1
sVdns
p1901
I-1
sVwait
p1902
I252
sVblocked
p1903
I-1
ssVtime
p1904
I252
sVresponse
p1905
(dp1906
Vstatus
p1907
I204
sVcomment
p1908
g4
sVcookies
p1909
(lp1910
sVstatusText
p1911
VNo Content
p1912
sVcontent
p1913
(dp1914
VmimeType
p1915
Vtext/html; charset=UTF-8
p1916
sVcomment
p1917
g4
sVsize
p1918
I0
ssVheaders
p1919
(lp1920
sVheadersSize
p1921
I248
sVredirectURL
p1922
g4
sVbodySize
p1923
I0
sVhttpVersion
p1924
VHTTP/1.1
p1925
ssa(dp1926
Vcomment
p1927
g4
sVserverIPAddress
p1928
V216.58.216.193
p1929
sVpageref
p1930
VAndrew Benintendi
p1931
sVstartedDateTime
p1932
V2017-04-16T08:22:06.179-05:00
p1933
sVcache
p1934
(dp1935
sVrequest
p1936
(dp1937
Vcomment
p1938
g4
sVcookies
p1939
(lp1940
sVurl
p1941
Vhttps://static-advance-net.cdn.ampproject.org/i/static.advance.net/static/common/img/sprites/social_sprite48x48.png
p1942
sVqueryString
p1943
(lp1944
sVheaders
p1945
(lp1946
sVheadersSize
p1947
I536
sVbodySize
p1948
I0
sVmethod
p1949
VGET
p1950
sVhttpVersion
p1951
VHTTP/1.1
p1952
ssVtimings
p1953
(dp1954
Vcomment
p1955
g4
sVreceive
p1956
I1
sVsend
p1957
I0
sVssl
p1958
I1759
sVconnect
p1959
I1781
sVdns
p1960
I29
sVwait
p1961
I28
sVblocked
p1962
I0
ssVtime
p1963
I1840
sVresponse
p1964
(dp1965
Vstatus
p1966
I200
sVcomment
p1967
g4
sVcookies
p1968
(lp1969
sVstatusText
p1970
VOK
p1971
sVcontent
p1972
(dp1973
VmimeType
p1974
Vimage/png
p1975
sVcomment
p1976
g4
sVsize
p1977
I0
ssVheaders
p1978
(lp1979
sVheadersSize
p1980
I821
sVredirectURL
p1981
g4
sVbodySize
p1982
I6420
sVhttpVersion
p1983
VHTTP/1.1
p1984
ssa(dp1985
Vcomment
p1986
g4
sVserverIPAddress
p1987
V216.58.216.193
p1988
sVpageref
p1989
VAndrew Benintendi
p1990
sVstartedDateTime
p1991
V2017-04-16T08:22:06.180-05:00
p1992
sVcache
p1993
(dp1994
sVrequest
p1995
(dp1996
Vcomment
p1997
g4
sVcookies
p1998
(lp1999
sVurl
p2000
Vhttps://static-advance-net.cdn.ampproject.org/i/static.advance.net/static/mass/static/img/logos/logo_full.svg
p2001
sVqueryString
p2002
(lp2003
sVheaders
p2004
(lp2005
sVheadersSize
p2006
I530
sVbodySize
p2007
I0
sVmethod
p2008
VGET
p2009
sVhttpVersion
p2010
VHTTP/1.1
p2011
ssVtimings
p2012
(dp2013
Vcomment
p2014
g4
sVreceive
p2015
I0
sVsend
p2016
I0
sVssl
p2017
I1760
sVconnect
p2018
I1778
sVdns
p2019
I38
sVwait
p2020
I30
sVblocked
p2021
I0
ssVtime
p2022
I1847
sVresponse
p2023
(dp2024
Vstatus
p2025
I200
sVcomment
p2026
g4
sVcookies
p2027
(lp2028
sVstatusText
p2029
VOK
p2030
sVcontent
p2031
(dp2032
VmimeType
p2033
Vimage/svg+xml
p2034
sVcomment
p2035
g4
sVsize
p2036
I0
ssVheaders
p2037
(lp2038
sVheadersSize
p2039
I878
sVredirectURL
p2040
g4
sVbodySize
p2041
I917
sVhttpVersion
p2042
VHTTP/1.1
p2043
ssa(dp2044
Vcomment
p2045
g4
sVserverIPAddress
p2046
V216.58.216.193
p2047
sVpageref
p2048
VAndrew Benintendi
p2049
sVstartedDateTime
p2050
V2017-04-16T08:22:06.222-05:00
p2051
sVcache
p2052
(dp2053
sVrequest
p2054
(dp2055
Vcomment
p2056
g4
sVcookies
p2057
(lp2058
sVurl
p2059
Vhttps://static-advance-net.cdn.ampproject.org/i/static.advance.net/static/common/img/socialshare/facebook_80x80.png
p2060
sVqueryString
p2061
(lp2062
sVheaders
p2063
(lp2064
sVheadersSize
p2065
I536
sVbodySize
p2066
I0
sVmethod
p2067
VGET
p2068
sVhttpVersion
p2069
VHTTP/1.1
p2070
ssVtimings
p2071
(dp2072
Vcomment
p2073
g4
sVreceive
p2074
I2
sVsend
p2075
I0
sVssl
p2076
I1607
sVconnect
p2077
I1628
sVdns
p2078
I0
sVwait
p2079
I29
sVblocked
p2080
I0
ssVtime
p2081
I1660
sVresponse
p2082
(dp2083
Vstatus
p2084
I200
sVcomment
p2085
g4
sVcookies
p2086
(lp2087
sVstatusText
p2088
VOK
p2089
sVcontent
p2090
(dp2091
VmimeType
p2092
Vimage/png
p2093
sVcomment
p2094
g4
sVsize
p2095
I0
ssVheaders
p2096
(lp2097
sVheadersSize
p2098
I820
sVredirectURL
p2099
g4
sVbodySize
p2100
I715
sVhttpVersion
p2101
VHTTP/1.1
p2102
ssa(dp2103
Vcomment
p2104
g4
sVserverIPAddress
p2105
V216.58.216.193
p2106
sVpageref
p2107
VAndrew Benintendi
p2108
sVstartedDateTime
p2109
V2017-04-16T08:22:06.222-05:00
p2110
sVcache
p2111
(dp2112
sVrequest
p2113
(dp2114
Vcomment
p2115
g4
sVcookies
p2116
(lp2117
sVurl
p2118
Vhttps://static-advance-net.cdn.ampproject.org/i/static.advance.net/static/common/img/shd-large-top.png
p2119
sVqueryString
p2120
(lp2121
sVheaders
p2122
(lp2123
sVheadersSize
p2124
I523
sVbodySize
p2125
I0
sVmethod
p2126
VGET
p2127
sVhttpVersion
p2128
VHTTP/1.1
p2129
ssVtimings
p2130
(dp2131
Vcomment
p2132
g4
sVreceive
p2133
I0
sVsend
p2134
I0
sVssl
p2135
I1776
sVconnect
p2136
I1799
sVdns
p2137
I25
sVwait
p2138
I31
sVblocked
p2139
I0
ssVtime
p2140
I1857
sVresponse
p2141
(dp2142
Vstatus
p2143
I200
sVcomment
p2144
g4
sVcookies
p2145
(lp2146
sVstatusText
p2147
VOK
p2148
sVcontent
p2149
(dp2150
VmimeType
p2151
Vimage/png
p2152
sVcomment
p2153
g4
sVsize
p2154
I0
ssVheaders
p2155
(lp2156
sVheadersSize
p2157
I820
sVredirectURL
p2158
g4
sVbodySize
p2159
I120
sVhttpVersion
p2160
VHTTP/1.1
p2161
ssa(dp2162
Vcomment
p2163
g4
sVserverIPAddress
p2164
V216.58.216.193
p2165
sVpageref
p2166
VAndrew Benintendi
p2167
sVstartedDateTime
p2168
V2017-04-16T08:22:06.236-05:00
p2169
sVcache
p2170
(dp2171
sVrequest
p2172
(dp2173
Vcomment
p2174
g4
sVcookies
p2175
(lp2176
sVurl
p2177
Vhttps://static-advance-net.cdn.ampproject.org/i/static.advance.net/static/common/img/socialshare/more_80x80.png
p2178
sVqueryString
p2179
(lp2180
sVheaders
p2181
(lp2182
sVheadersSize
p2183
I532
sVbodySize
p2184
I0
sVmethod
p2185
VGET
p2186
sVhttpVersion
p2187
VHTTP/1.1
p2188
ssVtimings
p2189
(dp2190
Vcomment
p2191
g4
sVreceive
p2192
I0
sVsend
p2193
I0
sVssl
p2194
I-1
sVconnect
p2195
I-1
sVdns
p2196
I-1
sVwait
p2197
I23
sVblocked
p2198
I-1
ssVtime
p2199
I23
sVresponse
p2200
(dp2201
Vstatus
p2202
I200
sVcomment
p2203
g4
sVcookies
p2204
(lp2205
sVstatusText
p2206
VOK
p2207
sVcontent
p2208
(dp2209
VmimeType
p2210
Vimage/png
p2211
sVcomment
p2212
g4
sVsize
p2213
I0
ssVheaders
p2214
(lp2215
sVheadersSize
p2216
I820
sVredirectURL
p2217
g4
sVbodySize
p2218
I667
sVhttpVersion
p2219
VHTTP/1.1
p2220
ssa(dp2221
Vcomment
p2222
g4
sVserverIPAddress
p2223
V216.58.216.193
p2224
sVpageref
p2225
VAndrew Benintendi
p2226
sVstartedDateTime
p2227
V2017-04-16T08:22:06.237-05:00
p2228
sVcache
p2229
(dp2230
sVrequest
p2231
(dp2232
Vcomment
p2233
g4
sVcookies
p2234
(lp2235
sVurl
p2236
Vhttps://static-advance-net.cdn.ampproject.org/i/static.advance.net/static/common/img/socialshare/text%20message_80x80.png
p2237
sVqueryString
p2238
(lp2239
sVheaders
p2240
(lp2241
sVheadersSize
p2242
I542
sVbodySize
p2243
I0
sVmethod
p2244
VGET
p2245
sVhttpVersion
p2246
VHTTP/1.1
p2247
ssVtimings
p2248
(dp2249
Vcomment
p2250
g4
sVreceive
p2251
I1
sVsend
p2252
I0
sVssl
p2253
I-1
sVconnect
p2254
I-1
sVdns
p2255
I-1
sVwait
p2256
I23
sVblocked
p2257
I-1
ssVtime
p2258
I24
sVresponse
p2259
(dp2260
Vstatus
p2261
I200
sVcomment
p2262
g4
sVcookies
p2263
(lp2264
sVstatusText
p2265
VOK
p2266
sVcontent
p2267
(dp2268
VmimeType
p2269
Vimage/png
p2270
sVcomment
p2271
g4
sVsize
p2272
I0
ssVheaders
p2273
(lp2274
sVheadersSize
p2275
I821
sVredirectURL
p2276
g4
sVbodySize
p2277
I1004
sVhttpVersion
p2278
VHTTP/1.1
p2279
ssa(dp2280
Vcomment
p2281
g4
sVserverIPAddress
p2282
V216.58.216.193
p2283
sVpageref
p2284
VAndrew Benintendi
p2285
sVstartedDateTime
p2286
V2017-04-16T08:22:06.238-05:00
p2287
sVcache
p2288
(dp2289
sVrequest
p2290
(dp2291
Vcomment
p2292
g4
sVcookies
p2293
(lp2294
sVurl
p2295
Vhttps://static-advance-net.cdn.ampproject.org/i/static.advance.net/static/common/img/socialshare/email_80x80.png
p2296
sVqueryString
p2297
(lp2298
sVheaders
p2299
(lp2300
sVheadersSize
p2301
I533
sVbodySize
p2302
I0
sVmethod
p2303
VGET
p2304
sVhttpVersion
p2305
VHTTP/1.1
p2306
ssVtimings
p2307
(dp2308
Vcomment
p2309
g4
sVreceive
p2310
I0
sVsend
p2311
I0
sVssl
p2312
I1624
sVconnect
p2313
I1639
sVdns
p2314
I0
sVwait
p2315
I23
sVblocked
p2316
I0
ssVtime
p2317
I1662
sVresponse
p2318
(dp2319
Vstatus
p2320
I200
sVcomment
p2321
g4
sVcookies
p2322
(lp2323
sVstatusText
p2324
VOK
p2325
sVcontent
p2326
(dp2327
VmimeType
p2328
Vimage/png
p2329
sVcomment
p2330
g4
sVsize
p2331
I0
ssVheaders
p2332
(lp2333
sVheadersSize
p2334
I820
sVredirectURL
p2335
g4
sVbodySize
p2336
I922
sVhttpVersion
p2337
VHTTP/1.1
p2338
ssa(dp2339
Vcomment
p2340
g4
sVserverIPAddress
p2341
V216.58.216.193
p2342
sVpageref
p2343
VAndrew Benintendi
p2344
sVstartedDateTime
p2345
V2017-04-16T08:22:06.239-05:00
p2346
sVcache
p2347
(dp2348
sVrequest
p2349
(dp2350
Vcomment
p2351
g4
sVcookies
p2352
(lp2353
sVurl
p2354
Vhttps://static-advance-net.cdn.ampproject.org/i/static.advance.net/static/common/img/socialshare/Twitter_80x80.png
p2355
sVqueryString
p2356
(lp2357
sVheaders
p2358
(lp2359
sVheadersSize
p2360
I535
sVbodySize
p2361
I0
sVmethod
p2362
VGET
p2363
sVhttpVersion
p2364
VHTTP/1.1
p2365
ssVtimings
p2366
(dp2367
Vcomment
p2368
g4
sVreceive
p2369
I0
sVsend
p2370
I0
sVssl
p2371
I1632
sVconnect
p2372
I1647
sVdns
p2373
I0
sVwait
p2374
I30
sVblocked
p2375
I0
ssVtime
p2376
I1678
sVresponse
p2377
(dp2378
Vstatus
p2379
I200
sVcomment
p2380
g4
sVcookies
p2381
(lp2382
sVstatusText
p2383
VOK
p2384
sVcontent
p2385
(dp2386
VmimeType
p2387
Vimage/png
p2388
sVcomment
p2389
g4
sVsize
p2390
I0
ssVheaders
p2391
(lp2392
sVheadersSize
p2393
I820
sVredirectURL
p2394
g4
sVbodySize
p2395
I873
sVhttpVersion
p2396
VHTTP/1.1
p2397
ssa(dp2398
Vcomment
p2399
g4
sVserverIPAddress
p2400
V172.217.0.1
p2401
sVpageref
p2402
VAndrew Benintendi
p2403
sVstartedDateTime
p2404
V2017-04-16T08:22:07.001-05:00
p2405
sVcache
p2406
(dp2407
sVrequest
p2408
(dp2409
Vcomment
p2410
g4
sVcookies
p2411
(lp2412
sVurl
p2413
Vhttps://media-masslive-com.cdn.ampproject.org/i/media.masslive.com/redsox_impact/photo/chris-stewartmookie-betts-d5a768ef6aa1e4b5.jpg
p2414
sVqueryString
p2415
(lp2416
sVheaders
p2417
(lp2418
sVheadersSize
p2419
I554
sVbodySize
p2420
I0
sVmethod
p2421
VGET
p2422
sVhttpVersion
p2423
VHTTP/1.1
p2424
ssVtimings
p2425
(dp2426
Vcomment
p2427
g4
sVreceive
p2428
I82
sVsend
p2429
I0
sVssl
p2430
I2365
sVconnect
p2431
I2383
sVdns
p2432
I31
sVwait
p2433
I202
sVblocked
p2434
I0
ssVtime
p2435
I2699
sVresponse
p2436
(dp2437
Vstatus
p2438
I200
sVcomment
p2439
g4
sVcookies
p2440
(lp2441
sVstatusText
p2442
VOK
p2443
sVcontent
p2444
(dp2445
VmimeType
p2446
Vimage/jpeg
p2447
sVcomment
p2448
g4
sVsize
p2449
I0
ssVheaders
p2450
(lp2451
sVheadersSize
p2452
I846
sVredirectURL
p2453
g4
sVbodySize
p2454
I190554
sVhttpVersion
p2455
VHTTP/1.1
p2456
ssa(dp2457
Vcomment
p2458
g4
sVserverIPAddress
p2459
V216.58.216.196
p2460
sVpageref
p2461
VAndrew Benintendi
p2462
sVstartedDateTime
p2463
V2017-04-16T08:22:07.316-05:00
p2464
sVcache
p2465
(dp2466
sVrequest
p2467
(dp2468
Vcomment
p2469
g4
sVcookies
p2470
(lp2471
sVurl
p2472
Vhttps://www.google.com/gen_204?s=web&atyp=csi&ei=-G_zWMy0NuXbjwS0l7mIAQ&imc=30&imn=30&imp=15&adh=&xjs=init.52.14.sb_mob.37.dvl.7.c.2.tl.2.r.1&ima=10&rt=prt.701,iml.873,xjsls.701,dcl.741,xjses.908,xjsee.1106,xjs.1107,qiml.1807,ol.5268,aft.873,wsrt.152,cst.0,dnst.0,rqst.767,rspt.654,rqstt.3,unt.3,cstt.3,dit.874
p2473
sVqueryString
p2474
(lp2475
(dp2476
Vname
p2477
g57
sVvalue
p2478
Vweb
p2479
sa(dp2480
Vname
p2481
Vatyp
p2482
sVvalue
p2483
Vcsi
p2484
sa(dp2485
Vname
p2486
Vei
p2487
sVvalue
p2488
V-G_zWMy0NuXbjwS0l7mIAQ
p2489
sa(dp2490
Vname
p2491
Vimc
p2492
sVvalue
p2493
V30
p2494
sa(dp2495
Vname
p2496
Vimn
p2497
sVvalue
p2498
V30
p2499
sa(dp2500
Vname
p2501
Vimp
p2502
sVvalue
p2503
V15
p2504
sa(dp2505
Vname
p2506
Vadh
p2507
sVvalue
p2508
g4
sa(dp2509
Vname
p2510
Vxjs
p2511
sVvalue
p2512
Vinit.52.14.sb_mob.37.dvl.7.c.2.tl.2.r.1
p2513
sa(dp2514
Vname
p2515
Vima
p2516
sVvalue
p2517
V10
p2518
sa(dp2519
Vname
p2520
Vrt
p2521
sVvalue
p2522
Vprt.701,iml.873,xjsls.701,dcl.741,xjses.908,xjsee.1106,xjs.1107,qiml.1807,ol.5268,aft.873,wsrt.152,cst.0,dnst.0,rqst.767,rspt.654,rqstt.3,unt.3,cstt.3,dit.874
p2523
sasVheaders
p2524
(lp2525
sVheadersSize
p2526
I827
sVbodySize
p2527
I0
sVmethod
p2528
VGET
p2529
sVhttpVersion
p2530
VHTTP/1.1
p2531
ssVtimings
p2532
(dp2533
Vcomment
p2534
g4
sVreceive
p2535
I0
sVsend
p2536
I0
sVssl
p2537
I-1
sVconnect
p2538
I-1
sVdns
p2539
I-1
sVwait
p2540
I56
sVblocked
p2541
I-1
ssVtime
p2542
I57
sVresponse
p2543
(dp2544
Vstatus
p2545
I204
sVcomment
p2546
g4
sVcookies
p2547
(lp2548
sVstatusText
p2549
VNo Content
p2550
sVcontent
p2551
(dp2552
VmimeType
p2553
Vtext/html; charset=UTF-8
p2554
sVcomment
p2555
g4
sVsize
p2556
I0
ssVheaders
p2557
(lp2558
sVheadersSize
p2559
I248
sVredirectURL
p2560
g4
sVbodySize
p2561
I0
sVhttpVersion
p2562
VHTTP/1.1
p2563
ssa(dp2564
Vcomment
p2565
g4
sVserverIPAddress
p2566
V216.58.216.196
p2567
sVpageref
p2568
VAndrew Benintendi
p2569
sVstartedDateTime
p2570
V2017-04-16T08:22:07.332-05:00
p2571
sVcache
p2572
(dp2573
sVrequest
p2574
(dp2575
Vcomment
p2576
g4
sVcookies
p2577
(lp2578
sVurl
p2579
Vhttps://www.google.com/gen_204?s=amp&atyp=csi&ei=-G_zWMy0NuXbjwS0l7mIAQ&ampexp=011492014732688&action=Prerender&rt=pc.1
p2580
sVqueryString
p2581
(lp2582
(dp2583
Vname
p2584
g57
sVvalue
p2585
Vamp
p2586
sa(dp2587
Vname
p2588
Vatyp
p2589
sVvalue
p2590
Vcsi
p2591
sa(dp2592
Vname
p2593
Vei
p2594
sVvalue
p2595
V-G_zWMy0NuXbjwS0l7mIAQ
p2596
sa(dp2597
Vname
p2598
Vampexp
p2599
sVvalue
p2600
V011492014732688
p2601
sa(dp2602
Vname
p2603
Vaction
p2604
sVvalue
p2605
VPrerender
p2606
sa(dp2607
Vname
p2608
Vrt
p2609
sVvalue
p2610
Vpc.1
p2611
sasVheaders
p2612
(lp2613
sVheadersSize
p2614
I636
sVbodySize
p2615
I0
sVmethod
p2616
VGET
p2617
sVhttpVersion
p2618
VHTTP/1.1
p2619
ssVtimings
p2620
(dp2621
Vcomment
p2622
g4
sVreceive
p2623
I0
sVsend
p2624
I0
sVssl
p2625
I-1
sVconnect
p2626
I-1
sVdns
p2627
I-1
sVwait
p2628
I39
sVblocked
p2629
I-1
ssVtime
p2630
I40
sVresponse
p2631
(dp2632
Vstatus
p2633
I204
sVcomment
p2634
g4
sVcookies
p2635
(lp2636
sVstatusText
p2637
VNo Content
p2638
sVcontent
p2639
(dp2640
VmimeType
p2641
Vtext/html; charset=UTF-8
p2642
sVcomment
p2643
g4
sVsize
p2644
I0
ssVheaders
p2645
(lp2646
sVheadersSize
p2647
I248
sVredirectURL
p2648
g4
sVbodySize
p2649
I0
sVhttpVersion
p2650
VHTTP/1.1
p2651
ssa(dp2652
Vcomment
p2653
g4
sVserverIPAddress
p2654
V216.58.216.196
p2655
sVpageref
p2656
VAndrew Benintendi
p2657
sVstartedDateTime
p2658
V2017-04-16T08:22:07.336-05:00
p2659
sVcache
p2660
(dp2661
sVrequest
p2662
(dp2663
Vcomment
p2664
g4
sVcookies
p2665
(lp2666
sVurl
p2667
Vhttps://www.google.com/gen_204?s=amp&atyp=csi&ei=-G_zWMy0NuXbjwS0l7mIAQ&ampexp=011492014732688&action=Prerender&rt=ol.3487
p2668
sVqueryString
p2669
(lp2670
(dp2671
Vname
p2672
g57
sVvalue
p2673
Vamp
p2674
sa(dp2675
Vname
p2676
Vatyp
p2677
sVvalue
p2678
Vcsi
p2679
sa(dp2680
Vname
p2681
Vei
p2682
sVvalue
p2683
V-G_zWMy0NuXbjwS0l7mIAQ
p2684
sa(dp2685
Vname
p2686
Vampexp
p2687
sVvalue
p2688
V011492014732688
p2689
sa(dp2690
Vname
p2691
Vaction
p2692
sVvalue
p2693
VPrerender
p2694
sa(dp2695
Vname
p2696
Vrt
p2697
sVvalue
p2698
Vol.3487
p2699
sasVheaders
p2700
(lp2701
sVheadersSize
p2702
I639
sVbodySize
p2703
I0
sVmethod
p2704
VGET
p2705
sVhttpVersion
p2706
VHTTP/1.1
p2707
ssVtimings
p2708
(dp2709
Vcomment
p2710
g4
sVreceive
p2711
I0
sVsend
p2712
I0
sVssl
p2713
I-1
sVconnect
p2714
I-1
sVdns
p2715
I-1
sVwait
p2716
I40
sVblocked
p2717
I-1
ssVtime
p2718
I41
sVresponse
p2719
(dp2720
Vstatus
p2721
I204
sVcomment
p2722
g4
sVcookies
p2723
(lp2724
sVstatusText
p2725
VNo Content
p2726
sVcontent
p2727
(dp2728
VmimeType
p2729
Vtext/html; charset=UTF-8
p2730
sVcomment
p2731
g4
sVsize
p2732
I0
ssVheaders
p2733
(lp2734
sVheadersSize
p2735
I248
sVredirectURL
p2736
g4
sVbodySize
p2737
I0
sVhttpVersion
p2738
VHTTP/1.1
p2739
ssasVversion
p2740
V1.2
p2741
sVpages
p2742
(lp2743
(dp2744
VpageTimings
p2745
(dp2746
Vcomment
p2747
g4
ssVcomment
p2748
g4
sVtitle
p2749
VAndrew Benintendi
p2750
sVid
p2751
VAndrew Benintendi
p2752
sVstartedDateTime
p2753
V2017-04-16T08:22:01.176-05:00
p2754
sasVcreator
p2755
(dp2756
Vcomment
p2757
g4
sVversion
p2758
V2.1.4
p2759
sVname
p2760
VBrowserMob Proxy
p2761
sss.