(dp0
Vlog
p1
(dp2
Vcomment
p3
V
p4
sVentries
p5
(lp6
(dp7
Vcomment
p8
g4
sVserverIPAddress
p9
V216.58.216.196
p10
sVpageref
p11
VLos Angeles Clippers
p12
sVstartedDateTime
p13
V2017-04-16T08:33:57.481-05:00
p14
sVcache
p15
(dp16
sVrequest
p17
(dp18
Vcomment
p19
g4
sVcookies
p20
(lp21
sVurl
p22
Vhttps://www.google.com/gen_204?atyp=i&ct=slh&cad=&ei=tnLzWJ3aGsP-jwSIiYyABQ&m=V&t=C&s=1&v=2&pv=0.4895160054824699&me=1:1492349625856,x:1,V,0,0,1280,944:0,N,1,tnLzWJ3aGsP-jwSIiYyABQ:0,R,1,24,0,155,1197,506:0,R,1,25,0,155,1197,504:0,R,1,79,8,669,1264,309:0,R,1,80,8,713,1264,265:0,R,1,81,0,713,1280,285:4,B,4431:11618,e,U&zx=1492349637480
p23
sVqueryString
p24
(lp25
(dp26
Vname
p27
Vatyp
p28
sVvalue
p29
Vi
p30
sa(dp31
Vname
p32
Vct
p33
sVvalue
p34
Vslh
p35
sa(dp36
Vname
p37
Vcad
p38
sVvalue
p39
g4
sa(dp40
Vname
p41
Vei
p42
sVvalue
p43
VtnLzWJ3aGsP-jwSIiYyABQ
p44
sa(dp45
Vname
p46
Vm
p47
sVvalue
p48
VV
p49
sa(dp50
Vname
p51
Vt
p52
sVvalue
p53
VC
p54
sa(dp55
Vname
p56
Vs
p57
sVvalue
p58
V1
p59
sa(dp60
Vname
p61
Vv
p62
sVvalue
p63
V2
p64
sa(dp65
Vname
p66
Vpv
p67
sVvalue
p68
V0.4895160054824699
p69
sa(dp70
Vname
p71
Vme
p72
sVvalue
p73
V1:1492349625856,x:1,V,0,0,1280,944:0,N,1,tnLzWJ3aGsP-jwSIiYyABQ:0,R,1,24,0,155,1197,506:0,R,1,25,0,155,1197,504:0,R,1,79,8,669,1264,309:0,R,1,80,8,713,1264,265:0,R,1,81,0,713,1280,285:4,B,4431:11618,e,U
p74
sa(dp75
Vname
p76
Vzx
p77
sVvalue
p78
V1492349637480
p79
sasVheaders
p80
(lp81
sVheadersSize
p82
I853
sVbodySize
p83
I0
sVmethod
p84
VGET
p85
sVhttpVersion
p86
VHTTP/1.1
p87
ssVtimings
p88
(dp89
Vcomment
p90
g4
sVreceive
p91
I0
sVsend
p92
I0
sVssl
p93
I-1
sVconnect
p94
I-1
sVdns
p95
I-1
sVwait
p96
I0
sVblocked
p97
I-1
ssVtime
p98
I0
sVresponse
p99
(dp100
Vstatus
p101
I0
sVcomment
p102
g4
sVcookies
p103
(lp104
sV_error
p105
VNo response received
p106
sVstatusText
p107
g4
sVcontent
p108
(dp109
VmimeType
p110
g4
sVcomment
p111
g4
sVsize
p112
I0
ssVheaders
p113
(lp114
sVheadersSize
p115
I-1
sVredirectURL
p116
g4
sVbodySize
p117
I-1
sVhttpVersion
p118
Vunknown
p119
ssa(dp120
Vcomment
p121
g4
sVserverIPAddress
p122
V216.58.216.196
p123
sVpageref
p124
VLos Angeles Clippers
p125
sVstartedDateTime
p126
V2017-04-16T08:33:57.486-05:00
p127
sVcache
p128
(dp129
sVrequest
p130
(dp131
Vcomment
p132
g4
sVcookies
p133
(lp134
sVurl
p135
Vhttp://www.google.com/
p136
sVqueryString
p137
(lp138
sVheaders
p139
(lp140
sVheadersSize
p141
I613
sVbodySize
p142
I0
sVmethod
p143
VGET
p144
sVhttpVersion
p145
VHTTP/1.1
p146
ssVtimings
p147
(dp148
Vcomment
p149
g4
sVreceive
p150
I0
sVsend
p151
I0
sVssl
p152
I-1
sVconnect
p153
I-1
sVdns
p154
I-1
sVwait
p155
I60
sVblocked
p156
I-1
ssVtime
p157
I61
sVresponse
p158
(dp159
Vstatus
p160
I302
sVcomment
p161
g4
sVcookies
p162
(lp163
sVstatusText
p164
VFound
p165
sVcontent
p166
(dp167
VmimeType
p168
Vtext/html; charset=UTF-8
p169
sVcomment
p170
g4
sVsize
p171
I0
ssVheaders
p172
(lp173
sVheadersSize
p174
I609
sVredirectURL
p175
Vhttps://www.google.com/?gws_rd=ssl
p176
sVbodySize
p177
I231
sVhttpVersion
p178
VHTTP/1.1
p179
ssa(dp180
Vcomment
p181
g4
sVserverIPAddress
p182
V216.58.216.196
p183
sVpageref
p184
VLos Angeles Clippers
p185
sVstartedDateTime
p186
V2017-04-16T08:33:57.556-05:00
p187
sVcache
p188
(dp189
sVrequest
p190
(dp191
Vcomment
p192
g4
sVcookies
p193
(lp194
sVurl
p195
Vhttps://www.google.com/?gws_rd=ssl
p196
sVqueryString
p197
(lp198
(dp199
Vname
p200
Vgws_rd
p201
sVvalue
p202
Vssl
p203
sasVheaders
p204
(lp205
sVheadersSize
p206
I607
sVbodySize
p207
I0
sVmethod
p208
VGET
p209
sVhttpVersion
p210
VHTTP/1.1
p211
ssVtimings
p212
(dp213
Vcomment
p214
g4
sVreceive
p215
I41
sVsend
p216
I0
sVssl
p217
I-1
sVconnect
p218
I-1
sVdns
p219
I-1
sVwait
p220
I70
sVblocked
p221
I-1
ssVtime
p222
I111
sVresponse
p223
(dp224
Vstatus
p225
I200
sVcomment
p226
g4
sVcookies
p227
(lp228
sVstatusText
p229
VOK
p230
sVcontent
p231
(dp232
VmimeType
p233
Vtext/html; charset=UTF-8
p234
sVcomment
p235
g4
sVsize
p236
I0
ssVheaders
p237
(lp238
sVheadersSize
p239
I721
sVredirectURL
p240
g4
sVbodySize
p241
I34290
sVhttpVersion
p242
VHTTP/1.1
p243
ssa(dp244
Vcomment
p245
g4
sVserverIPAddress
p246
V216.58.216.196
p247
sVpageref
p248
VLos Angeles Clippers
p249
sVstartedDateTime
p250
V2017-04-16T08:33:58.680-05:00
p251
sVcache
p252
(dp253
sVrequest
p254
(dp255
Vcomment
p256
g4
sVcookies
p257
(lp258
sVurl
p259
Vhttps://www.google.com/gen_204?s=mobilewebhp&atyp=csi&ei=xHLzWJSzIYi2jwSIhbfQBg&imc=1&imn=1&imp=0&adh=&xjs=init.41.12.sb_mob.33.dvl.4.jsa.1.mbsf.1.r.1&ima=1&rt=xjsls.17,prt.19,iml.19,dcl.55,xjses.652,xjsee.817,xjs.818,ol.968,aft.19,wsrt.182,cst.0,dnst.0,rqst.114,rspt.42,rqstt.76,unt.70,cstt.70,dit.226
p260
sVqueryString
p261
(lp262
(dp263
Vname
p264
g57
sVvalue
p265
Vmobilewebhp
p266
sa(dp267
Vname
p268
Vatyp
p269
sVvalue
p270
Vcsi
p271
sa(dp272
Vname
p273
Vei
p274
sVvalue
p275
VxHLzWJSzIYi2jwSIhbfQBg
p276
sa(dp277
Vname
p278
Vimc
p279
sVvalue
p280
g59
sa(dp281
Vname
p282
Vimn
p283
sVvalue
p284
g59
sa(dp285
Vname
p286
Vimp
p287
sVvalue
p288
V0
p289
sa(dp290
Vname
p291
Vadh
p292
sVvalue
p293
g4
sa(dp294
Vname
p295
Vxjs
p296
sVvalue
p297
Vinit.41.12.sb_mob.33.dvl.4.jsa.1.mbsf.1.r.1
p298
sa(dp299
Vname
p300
Vima
p301
sVvalue
p302
g59
sa(dp303
Vname
p304
Vrt
p305
sVvalue
p306
Vxjsls.17,prt.19,iml.19,dcl.55,xjses.652,xjsee.817,xjs.818,ol.968,aft.19,wsrt.182,cst.0,dnst.0,rqst.114,rspt.42,rqstt.76,unt.70,cstt.70,dit.226
p307
sasVheaders
p308
(lp309
sVheadersSize
p310
I830
sVbodySize
p311
I0
sVmethod
p312
VGET
p313
sVhttpVersion
p314
VHTTP/1.1
p315
ssVtimings
p316
(dp317
Vcomment
p318
g4
sVreceive
p319
I0
sVsend
p320
I0
sVssl
p321
I-1
sVconnect
p322
I-1
sVdns
p323
I-1
sVwait
p324
I41
sVblocked
p325
I-1
ssVtime
p326
I41
sVresponse
p327
(dp328
Vstatus
p329
I204
sVcomment
p330
g4
sVcookies
p331
(lp332
sVstatusText
p333
VNo Content
p334
sVcontent
p335
(dp336
VmimeType
p337
Vtext/html; charset=UTF-8
p338
sVcomment
p339
g4
sVsize
p340
I0
ssVheaders
p341
(lp342
sVheadersSize
p343
I248
sVredirectURL
p344
g4
sVbodySize
p345
I0
sVhttpVersion
p346
VHTTP/1.1
p347
ssa(dp348
Vcomment
p349
g4
sVserverIPAddress
p350
V216.58.216.196
p351
sVpageref
p352
VLos Angeles Clippers
p353
sVstartedDateTime
p354
V2017-04-16T08:33:58.791-05:00
p355
sVcache
p356
(dp357
sVrequest
p358
(dp359
Vcomment
p360
g4
sVcookies
p361
(lp362
sVurl
p363
Vhttps://www.google.com/complete/search?client=mobile-gws-hp&hl=en&gs_rn=64&gs_ri=mobile-gws-hp&sla=1&pfq=los%20angeles%20lakers&gm=602&cp=0&gs_id=1&xhr=t&q=L&tch=1&ech=1&psi=xHLzWJSzIYi2jwSIhbfQBg.1492349638433.1
p364
sVqueryString
p365
(lp366
(dp367
Vname
p368
Vclient
p369
sVvalue
p370
Vmobile-gws-hp
p371
sa(dp372
Vname
p373
Vhl
p374
sVvalue
p375
Ven
p376
sa(dp377
Vname
p378
Vgs_rn
p379
sVvalue
p380
V64
p381
sa(dp382
Vname
p383
Vgs_ri
p384
sVvalue
p385
Vmobile-gws-hp
p386
sa(dp387
Vname
p388
Vsla
p389
sVvalue
p390
g59
sa(dp391
Vname
p392
Vpfq
p393
sVvalue
p394
Vlos angeles lakers
p395
sa(dp396
Vname
p397
Vgm
p398
sVvalue
p399
V602
p400
sa(dp401
Vname
p402
Vcp
p403
sVvalue
p404
g289
sa(dp405
Vname
p406
Vgs_id
p407
sVvalue
p408
g59
sa(dp409
Vname
p410
Vxhr
p411
sVvalue
p412
g52
sa(dp413
Vname
p414
Vq
p415
sVvalue
p416
VL
p417
sa(dp418
Vname
p419
Vtch
p420
sVvalue
p421
g59
sa(dp422
Vname
p423
Vech
p424
sVvalue
p425
g59
sa(dp426
Vname
p427
Vpsi
p428
sVvalue
p429
VxHLzWJSzIYi2jwSIhbfQBg.1492349638433.1
p430
sasVheaders
p431
(lp432
sVheadersSize
p433
I740
sVbodySize
p434
I0
sVmethod
p435
VGET
p436
sVhttpVersion
p437
VHTTP/1.1
p438
ssVtimings
p439
(dp440
Vcomment
p441
g4
sVreceive
p442
I0
sVsend
p443
I0
sVssl
p444
I-1
sVconnect
p445
I-1
sVdns
p446
I-1
sVwait
p447
I0
sVblocked
p448
I-1
ssVtime
p449
I0
sVresponse
p450
(dp451
Vstatus
p452
I0
sVcomment
p453
g4
sVcookies
p454
(lp455
sV_error
p456
VNo response received
p457
sVstatusText
p458
g4
sVcontent
p459
(dp460
VmimeType
p461
g4
sVcomment
p462
g4
sVsize
p463
I0
ssVheaders
p464
(lp465
sVheadersSize
p466
I-1
sVredirectURL
p467
g4
sVbodySize
p468
I-1
sVhttpVersion
p469
Vunknown
p470
ssa(dp471
Vcomment
p472
g4
sVserverIPAddress
p473
V216.58.216.196
p474
sVpageref
p475
VLos Angeles Clippers
p476
sVstartedDateTime
p477
V2017-04-16T08:33:58.957-05:00
p478
sVcache
p479
(dp480
sVrequest
p481
(dp482
Vcomment
p483
g4
sVcookies
p484
(lp485
sVurl
p486
Vhttps://www.google.com/search?site=&source=hp&ei=xHLzWJSzIYi2jwSIhbfQBg&q=Los+Angeles+Clippers&oq=Los+Angeles+Clippers&gs_l=mobile-gws-hp.3...321.388.0.428.20.1.0.0.0.0.0.0..0.0....0...1c.1.64.mobile-gws-hp..20.0.0.-oZPQprJjUg
p487
sVqueryString
p488
(lp489
(dp490
Vname
p491
Vsite
p492
sVvalue
p493
g4
sa(dp494
Vname
p495
Vsource
p496
sVvalue
p497
Vhp
p498
sa(dp499
Vname
p500
Vei
p501
sVvalue
p502
VxHLzWJSzIYi2jwSIhbfQBg
p503
sa(dp504
Vname
p505
g415
sVvalue
p506
VLos Angeles Clippers
p507
sa(dp508
Vname
p509
Voq
p510
sVvalue
p511
VLos Angeles Clippers
p512
sa(dp513
Vname
p514
Vgs_l
p515
sVvalue
p516
Vmobile-gws-hp.3...321.388.0.428.20.1.0.0.0.0.0.0..0.0....0...1c.1.64.mobile-gws-hp..20.0.0.-oZPQprJjUg
p517
sasVheaders
p518
(lp519
sVheadersSize
p520
I844
sVbodySize
p521
I0
sVmethod
p522
VGET
p523
sVhttpVersion
p524
VHTTP/1.1
p525
ssVtimings
p526
(dp527
Vcomment
p528
g4
sVreceive
p529
I849
sVsend
p530
I0
sVssl
p531
I16
sVconnect
p532
I49
sVdns
p533
I3
sVwait
p534
I100
sVblocked
p535
I0
ssVtime
p536
I1003
sVresponse
p537
(dp538
Vstatus
p539
I200
sVcomment
p540
g4
sVcookies
p541
(lp542
sVstatusText
p543
VOK
p544
sVcontent
p545
(dp546
VmimeType
p547
Vtext/html; charset=UTF-8
p548
sVcomment
p549
g4
sVsize
p550
I0
ssVheaders
p551
(lp552
sVheadersSize
p553
I363
sVredirectURL
p554
g4
sVbodySize
p555
I122575
sVhttpVersion
p556
VHTTP/1.1
p557
ssa(dp558
Vcomment
p559
g4
sVserverIPAddress
p560
V216.58.216.195
p561
sVpageref
p562
VLos Angeles Clippers
p563
sVstartedDateTime
p564
V2017-04-16T08:33:59.884-05:00
p565
sVcache
p566
(dp567
sVrequest
p568
(dp569
Vcomment
p570
g4
sVcookies
p571
(lp572
sVurl
p573
Vhttps://ssl.gstatic.com/onebox/media/sports/logos/F36nQLCQ2FND3za-Eteeqg_48x48.png
p574
sVqueryString
p575
(lp576
sVheaders
p577
(lp578
sVheadersSize
p579
I397
sVbodySize
p580
I0
sVmethod
p581
VGET
p582
sVhttpVersion
p583
VHTTP/1.1
p584
ssVtimings
p585
(dp586
Vcomment
p587
g4
sVreceive
p588
I0
sVsend
p589
I0
sVssl
p590
I-1
sVconnect
p591
I-1
sVdns
p592
I-1
sVwait
p593
I14
sVblocked
p594
I-1
ssVtime
p595
I14
sVresponse
p596
(dp597
Vstatus
p598
I200
sVcomment
p599
g4
sVcookies
p600
(lp601
sVstatusText
p602
VOK
p603
sVcontent
p604
(dp605
VmimeType
p606
Vimage/png
p607
sVcomment
p608
g4
sVsize
p609
I0
ssVheaders
p610
(lp611
sVheadersSize
p612
I423
sVredirectURL
p613
g4
sVbodySize
p614
I962
sVhttpVersion
p615
VHTTP/1.1
p616
ssa(dp617
Vcomment
p618
g4
sVserverIPAddress
p619
V216.58.216.195
p620
sVpageref
p621
VLos Angeles Clippers
p622
sVstartedDateTime
p623
V2017-04-16T08:33:59.886-05:00
p624
sVcache
p625
(dp626
sVrequest
p627
(dp628
Vcomment
p629
g4
sVcookies
p630
(lp631
sVurl
p632
Vhttps://ssl.gstatic.com/onebox/media/sports/logos/SP_dsmXEKFVZH5N1DQpZ4A_96x96.png
p633
sVqueryString
p634
(lp635
sVheaders
p636
(lp637
sVheadersSize
p638
I397
sVbodySize
p639
I0
sVmethod
p640
VGET
p641
sVhttpVersion
p642
VHTTP/1.1
p643
ssVtimings
p644
(dp645
Vcomment
p646
g4
sVreceive
p647
I0
sVsend
p648
I0
sVssl
p649
I-1
sVconnect
p650
I-1
sVdns
p651
I-1
sVwait
p652
I31
sVblocked
p653
I-1
ssVtime
p654
I31
sVresponse
p655
(dp656
Vstatus
p657
I200
sVcomment
p658
g4
sVcookies
p659
(lp660
sVstatusText
p661
VOK
p662
sVcontent
p663
(dp664
VmimeType
p665
Vimage/png
p666
sVcomment
p667
g4
sVsize
p668
I0
ssVheaders
p669
(lp670
sVheadersSize
p671
I425
sVredirectURL
p672
g4
sVbodySize
p673
I10253
sVhttpVersion
p674
VHTTP/1.1
p675
ssa(dp676
Vcomment
p677
g4
sVserverIPAddress
p678
V216.58.216.195
p679
sVpageref
p680
VLos Angeles Clippers
p681
sVstartedDateTime
p682
V2017-04-16T08:33:59.886-05:00
p683
sVcache
p684
(dp685
sVrequest
p686
(dp687
Vcomment
p688
g4
sVcookies
p689
(lp690
sVurl
p691
Vhttps://ssl.gstatic.com/onebox/media/sports/logos/F36nQLCQ2FND3za-Eteeqg_96x96.png
p692
sVqueryString
p693
(lp694
sVheaders
p695
(lp696
sVheadersSize
p697
I397
sVbodySize
p698
I0
sVmethod
p699
VGET
p700
sVhttpVersion
p701
VHTTP/1.1
p702
ssVtimings
p703
(dp704
Vcomment
p705
g4
sVreceive
p706
I0
sVsend
p707
I0
sVssl
p708
I-1
sVconnect
p709
I-1
sVdns
p710
I-1
sVwait
p711
I23
sVblocked
p712
I-1
ssVtime
p713
I23
sVresponse
p714
(dp715
Vstatus
p716
I200
sVcomment
p717
g4
sVcookies
p718
(lp719
sVstatusText
p720
VOK
p721
sVcontent
p722
(dp723
VmimeType
p724
Vimage/png
p725
sVcomment
p726
g4
sVsize
p727
I0
ssVheaders
p728
(lp729
sVheadersSize
p730
I424
sVredirectURL
p731
g4
sVbodySize
p732
I1475
sVhttpVersion
p733
VHTTP/1.1
p734
ssa(dp735
Vcomment
p736
g4
sVserverIPAddress
p737
V216.58.216.195
p738
sVpageref
p739
VLos Angeles Clippers
p740
sVstartedDateTime
p741
V2017-04-16T08:33:59.886-05:00
p742
sVcache
p743
(dp744
sVrequest
p745
(dp746
Vcomment
p747
g4
sVcookies
p748
(lp749
sVurl
p750
Vhttps://ssl.gstatic.com/onebox/media/sports/videos/nba/kleC6LMyRfc_192x108.jpg
p751
sVqueryString
p752
(lp753
sVheaders
p754
(lp755
sVheadersSize
p756
I393
sVbodySize
p757
I0
sVmethod
p758
VGET
p759
sVhttpVersion
p760
VHTTP/1.1
p761
ssVtimings
p762
(dp763
Vcomment
p764
g4
sVreceive
p765
I0
sVsend
p766
I0
sVssl
p767
I-1
sVconnect
p768
I-1
sVdns
p769
I-1
sVwait
p770
I24
sVblocked
p771
I-1
ssVtime
p772
I25
sVresponse
p773
(dp774
Vstatus
p775
I200
sVcomment
p776
g4
sVcookies
p777
(lp778
sVstatusText
p779
VOK
p780
sVcontent
p781
(dp782
VmimeType
p783
Vimage/jpeg
p784
sVcomment
p785
g4
sVsize
p786
I0
ssVheaders
p787
(lp788
sVheadersSize
p789
I392
sVredirectURL
p790
g4
sVbodySize
p791
I9922
sVhttpVersion
p792
VHTTP/1.1
p793
ssa(dp794
Vcomment
p795
g4
sVserverIPAddress
p796
V216.58.216.195
p797
sVpageref
p798
VLos Angeles Clippers
p799
sVstartedDateTime
p800
V2017-04-16T08:33:59.886-05:00
p801
sVcache
p802
(dp803
sVrequest
p804
(dp805
Vcomment
p806
g4
sVcookies
p807
(lp808
sVurl
p809
Vhttps://ssl.gstatic.com/onebox/media/sports/logos/SP_dsmXEKFVZH5N1DQpZ4A_48x48.png
p810
sVqueryString
p811
(lp812
sVheaders
p813
(lp814
sVheadersSize
p815
I397
sVbodySize
p816
I0
sVmethod
p817
VGET
p818
sVhttpVersion
p819
VHTTP/1.1
p820
ssVtimings
p821
(dp822
Vcomment
p823
g4
sVreceive
p824
I0
sVsend
p825
I0
sVssl
p826
I-1
sVconnect
p827
I-1
sVdns
p828
I-1
sVwait
p829
I30
sVblocked
p830
I-1
ssVtime
p831
I30
sVresponse
p832
(dp833
Vstatus
p834
I200
sVcomment
p835
g4
sVcookies
p836
(lp837
sVstatusText
p838
VOK
p839
sVcontent
p840
(dp841
VmimeType
p842
Vimage/png
p843
sVcomment
p844
g4
sVsize
p845
I0
ssVheaders
p846
(lp847
sVheadersSize
p848
I424
sVredirectURL
p849
g4
sVbodySize
p850
I3901
sVhttpVersion
p851
VHTTP/1.1
p852
ssa(dp853
Vcomment
p854
g4
sVserverIPAddress
p855
V216.58.216.196
p856
sVpageref
p857
VLos Angeles Clippers
p858
sVstartedDateTime
p859
V2017-04-16T08:34:00.563-05:00
p860
sVcache
p861
(dp862
sVrequest
p863
(dp864
Vcomment
p865
g4
sVcookies
p866
(lp867
sVurl
p868
Vhttps://www.google.com/xjs/_/js/k=xjs.qs.en_US.pCBXVCvTH3s.O/m=syl,syj,syn,em3,em8,em6,em7,sym,aa,abd,sy2g,sy2k,sy29,sy2j,sy2d,sy2a,sy2c,sy2f,sy2l,sy2m,sy2n,emd,async,sybn,sybi,sybo,sy1f,sy45,sy46,sy9w,sybk,sybj,sybp,sy1g,sy30,sy47,sybm,sybl,sybq,sy1h,sybh,dvl,syep,foot,ipv6,sy5g,sy5j,sy5h,sy6u,sy7d,sy7j,sy2x,sy5i,sy89,sy7e,sy23,sy2y,sy5k,sy6c,sy91,sy9b,sy9l,syhi,syhj,syhk,syhl,lr,lrli,sy32,emj,shm,sykh,tl,sy2t,sy38,em12,vs,sy66,sy67,sy4u,sy69,sykk,sykl,tnv,bct,sy48,sy3a,sy3c,sy5b,sy4x,sy4z,sy56,sy1y,sy31,sy4y,sy22,sy6i,sy4h,sy6h,sy6o,sya3,sy5d,sy25,sy6j,sy6k,sy6r,sya2,sy5e,sy6n,emb,em9,ema,sy24,sy2o,sy4c,sy65,sy6p,sy6s,sy6w,sy72,sya4,syd7,syel,syho,syhs,syhu,syhv,sio,sy6y,sycu,d3l,sy5x,qif,tabs,sy9m,syac,sy4g,sy9n,syhz,syl6,ssc,sy26,sykr,strm,syh6,syl5,kac,kae,strx,sy2u,sy34,sy6l,sy6m,qkx,syf5,sy99,syf4,syfc,syfn,syf7,syff,sy1i,sy68,sy8d,syf6,syfl,syfr,syfq,syfg,sy1j,sy4q,sy5o,sy5r,sy8h,syc7,syc8,syfb,syfj,syfs,syft,syg3,syg5,syg7,emn,emo,syg4,syg6,ivg,iuci,img,sy4d,sy4f,sy4e,sy4b,shrb,dgm,sy41,tcc,sygq,kpc,kpci,syj7,syj8,syj2,syjc,syj6,syj3,syjg,syjh,syje,syjd,syjk,syji,syjf,syj0,emr,ems,emt,emu,emv,emx,emy,emz,em10,em11,udlg,sy5z,atn,sy4i,sya1,ampfp/am=gCP4LtMEBXQA2RUaq_oFBISzAFA/rt=j/d=0/t=zcms/rs=ACT90oFwm4NZCwIcuuiqmthdlECdBzkhRA
p869
sVqueryString
p870
(lp871
sVheaders
p872
(lp873
sVheadersSize
p874
I1772
sVbodySize
p875
I0
sVmethod
p876
VGET
p877
sVhttpVersion
p878
VHTTP/1.1
p879
ssVtimings
p880
(dp881
Vcomment
p882
g4
sVreceive
p883
I223
sVsend
p884
I0
sVssl
p885
I-1
sVconnect
p886
I-1
sVdns
p887
I-1
sVwait
p888
I124
sVblocked
p889
I-1
ssVtime
p890
I349
sVresponse
p891
(dp892
Vstatus
p893
I200
sVcomment
p894
g4
sVcookies
p895
(lp896
sVstatusText
p897
VOK
p898
sVcontent
p899
(dp900
VmimeType
p901
Vtext/javascript; charset=UTF-8
p902
sVcomment
p903
g4
sVsize
p904
I0
ssVheaders
p905
(lp906
sVheadersSize
p907
I452
sVredirectURL
p908
g4
sVbodySize
p909
I209835
sVhttpVersion
p910
VHTTP/1.1
p911
ssa(dp912
Vcomment
p913
g4
sVserverIPAddress
p914
V216.58.216.196
p915
sVpageref
p916
VLos Angeles Clippers
p917
sVstartedDateTime
p918
V2017-04-16T08:34:01.445-05:00
p919
sVcache
p920
(dp921
sVrequest
p922
(dp923
Vcomment
p924
g4
sVcookies
p925
(lp926
sVurl
p927
Vhttps://www.google.com/async/irc?vet=10ahUKEwim6rPQi6nTAhUD64MKHTCVD3kQo0EIvAI..i&ved=0ahUKEwim6rPQi6nTAhUD64MKHTCVD3kQo0EIvAI&ei=xXLzWObzOYPWjwSwqr7IBw&yv=2&async=iu:1,ved:0ahUKEwim6rPQi6nTAhUD64MKHTCVD3kQo0EIvAI,_id:irc_async,_pms:qs
p928
sVqueryString
p929
(lp930
(dp931
Vname
p932
Vvet
p933
sVvalue
p934
V10ahUKEwim6rPQi6nTAhUD64MKHTCVD3kQo0EIvAI..i
p935
sa(dp936
Vname
p937
Vved
p938
sVvalue
p939
V0ahUKEwim6rPQi6nTAhUD64MKHTCVD3kQo0EIvAI
p940
sa(dp941
Vname
p942
Vei
p943
sVvalue
p944
VxXLzWObzOYPWjwSwqr7IBw
p945
sa(dp946
Vname
p947
Vyv
p948
sVvalue
p949
g64
sa(dp950
Vname
p951
Vasync
p952
sVvalue
p953
Viu:1,ved:0ahUKEwim6rPQi6nTAhUD64MKHTCVD3kQo0EIvAI,_id:irc_async,_pms:qs
p954
sasVheaders
p955
(lp956
sVheadersSize
p957
I752
sVbodySize
p958
I0
sVmethod
p959
VGET
p960
sVhttpVersion
p961
VHTTP/1.1
p962
ssVtimings
p963
(dp964
Vcomment
p965
g4
sVreceive
p966
I1
sVsend
p967
I0
sVssl
p968
I-1
sVconnect
p969
I-1
sVdns
p970
I-1
sVwait
p971
I42
sVblocked
p972
I-1
ssVtime
p973
I44
sVresponse
p974
(dp975
Vstatus
p976
I200
sVcomment
p977
g4
sVcookies
p978
(lp979
sVstatusText
p980
VOK
p981
sVcontent
p982
(dp983
VmimeType
p984
Vtext/html; charset=UTF-8
p985
sVcomment
p986
g4
sVsize
p987
I0
ssVheaders
p988
(lp989
sVheadersSize
p990
I383
sVredirectURL
p991
g4
sVbodySize
p992
I7792
sVhttpVersion
p993
VHTTP/1.1
p994
ssa(dp995
Vcomment
p996
g4
sVserverIPAddress
p997
V216.58.216.196
p998
sVpageref
p999
VLos Angeles Clippers
p1000
sVstartedDateTime
p1001
V2017-04-16T08:34:01.541-05:00
p1002
sVcache
p1003
(dp1004
sVrequest
p1005
(dp1006
Vcomment
p1007
g4
sVcookies
p1008
(lp1009
sVurl
p1010
Vhttps://www.google.com/async/ampfp?vet=10ahUKEwim6rPQi6nTAhUD64MKHTCVD3kQtZoBCLoC..i&ei=xXLzWObzOYPWjwSwqr7IBw&yv=2&async=_id:ampfp-async,_pms:qs
p1011
sVqueryString
p1012
(lp1013
(dp1014
Vname
p1015
Vvet
p1016
sVvalue
p1017
V10ahUKEwim6rPQi6nTAhUD64MKHTCVD3kQtZoBCLoC..i
p1018
sa(dp1019
Vname
p1020
Vei
p1021
sVvalue
p1022
VxXLzWObzOYPWjwSwqr7IBw
p1023
sa(dp1024
Vname
p1025
Vyv
p1026
sVvalue
p1027
g64
sa(dp1028
Vname
p1029
Vasync
p1030
sVvalue
p1031
V_id:ampfp-async,_pms:qs
p1032
sasVheaders
p1033
(lp1034
sVheadersSize
p1035
I662
sVbodySize
p1036
I0
sVmethod
p1037
VGET
p1038
sVhttpVersion
p1039
VHTTP/1.1
p1040
ssVtimings
p1041
(dp1042
Vcomment
p1043
g4
sVreceive
p1044
I0
sVsend
p1045
I0
sVssl
p1046
I-1
sVconnect
p1047
I-1
sVdns
p1048
I-1
sVwait
p1049
I48
sVblocked
p1050
I-1
ssVtime
p1051
I49
sVresponse
p1052
(dp1053
Vstatus
p1054
I200
sVcomment
p1055
g4
sVcookies
p1056
(lp1057
sVstatusText
p1058
VOK
p1059
sVcontent
p1060
(dp1061
VmimeType
p1062
Vtext/html; charset=UTF-8
p1063
sVcomment
p1064
g4
sVsize
p1065
I0
ssVheaders
p1066
(lp1067
sVheadersSize
p1068
I383
sVredirectURL
p1069
g4
sVbodySize
p1070
I4524
sVhttpVersion
p1071
VHTTP/1.1
p1072
ssa(dp1073
Vcomment
p1074
g4
sVserverIPAddress
p1075
V216.58.216.193
p1076
sVpageref
p1077
VLos Angeles Clippers
p1078
sVstartedDateTime
p1079
V2017-04-16T08:34:01.541-05:00
p1080
sVcache
p1081
(dp1082
sVrequest
p1083
(dp1084
Vcomment
p1085
g4
sVcookies
p1086
(lp1087
sVurl
p1088
Vhttps://cdn.ampproject.org/preconnect.gif?0.7640870323535205
p1089
sVqueryString
p1090
(lp1091
(dp1092
Vname
p1093
V0.7640870323535205
p1094
sVvalue
p1095
g4
sasVheaders
p1096
(lp1097
sVheadersSize
p1098
I375
sVbodySize
p1099
I0
sVmethod
p1100
VGET
p1101
sVhttpVersion
p1102
VHTTP/1.1
p1103
ssVtimings
p1104
(dp1105
Vcomment
p1106
g4
sVreceive
p1107
I0
sVsend
p1108
I0
sVssl
p1109
I-1
sVconnect
p1110
I-1
sVdns
p1111
I-1
sVwait
p1112
I48
sVblocked
p1113
I-1
ssVtime
p1114
I48
sVresponse
p1115
(dp1116
Vstatus
p1117
I200
sVcomment
p1118
g4
sVcookies
p1119
(lp1120
sVstatusText
p1121
VOK
p1122
sVcontent
p1123
(dp1124
VmimeType
p1125
Vimage/gif
p1126
sVcomment
p1127
g4
sVsize
p1128
I0
ssVheaders
p1129
(lp1130
sVheadersSize
p1131
I826
sVredirectURL
p1132
g4
sVbodySize
p1133
I37
sVhttpVersion
p1134
VHTTP/1.1
p1135
ssa(dp1136
Vcomment
p1137
g4
sVserverIPAddress
p1138
V216.58.216.196
p1139
sVpageref
p1140
VLos Angeles Clippers
p1141
sVstartedDateTime
p1142
V2017-04-16T08:34:01.948-05:00
p1143
sVcache
p1144
(dp1145
sVrequest
p1146
(dp1147
Vcomment
p1148
g4
sVcookies
p1149
(lp1150
sVurl
p1151
Vhttps://www.google.com/gen_204?s=web&atyp=csi&ei=xXLzWObzOYPWjwSwqr7IBw&imc=82&imn=82&imp=25&adh=&xjs=init.57.16.sb_mob.44.async.3.dvl.3.lr.3.mbsf.1&ima=13&rt=prt.958,iml.1145,xjsls.958,qiml.1208,dcl.1015,xjses.1257,xjsee.1460,xjs.1460,ol.2814,aft.1145,wsrt.193,cst.0,dnst.0,rqst.951,rspt.954,rqstt.59,unt.3,cstt.3,dit.1167
p1152
sVqueryString
p1153
(lp1154
(dp1155
Vname
p1156
g57
sVvalue
p1157
Vweb
p1158
sa(dp1159
Vname
p1160
Vatyp
p1161
sVvalue
p1162
Vcsi
p1163
sa(dp1164
Vname
p1165
Vei
p1166
sVvalue
p1167
VxXLzWObzOYPWjwSwqr7IBw
p1168
sa(dp1169
Vname
p1170
Vimc
p1171
sVvalue
p1172
V82
p1173
sa(dp1174
Vname
p1175
Vimn
p1176
sVvalue
p1177
V82
p1178
sa(dp1179
Vname
p1180
Vimp
p1181
sVvalue
p1182
V25
p1183
sa(dp1184
Vname
p1185
Vadh
p1186
sVvalue
p1187
g4
sa(dp1188
Vname
p1189
Vxjs
p1190
sVvalue
p1191
Vinit.57.16.sb_mob.44.async.3.dvl.3.lr.3.mbsf.1
p1192
sa(dp1193
Vname
p1194
Vima
p1195
sVvalue
p1196
V13
p1197
sa(dp1198
Vname
p1199
Vrt
p1200
sVvalue
p1201
Vprt.958,iml.1145,xjsls.958,qiml.1208,dcl.1015,xjses.1257,xjsee.1460,xjs.1460,ol.2814,aft.1145,wsrt.193,cst.0,dnst.0,rqst.951,rspt.954,rqstt.59,unt.3,cstt.3,dit.1167
p1202
sasVheaders
p1203
(lp1204
sVheadersSize
p1205
I840
sVbodySize
p1206
I0
sVmethod
p1207
VGET
p1208
sVhttpVersion
p1209
VHTTP/1.1
p1210
ssVtimings
p1211
(dp1212
Vcomment
p1213
g4
sVreceive
p1214
I0
sVsend
p1215
I0
sVssl
p1216
I-1
sVconnect
p1217
I-1
sVdns
p1218
I-1
sVwait
p1219
I29
sVblocked
p1220
I-1
ssVtime
p1221
I29
sVresponse
p1222
(dp1223
Vstatus
p1224
I204
sVcomment
p1225
g4
sVcookies
p1226
(lp1227
sVstatusText
p1228
VNo Content
p1229
sVcontent
p1230
(dp1231
VmimeType
p1232
Vtext/html; charset=UTF-8
p1233
sVcomment
p1234
g4
sVsize
p1235
I0
ssVheaders
p1236
(lp1237
sVheadersSize
p1238
I248
sVredirectURL
p1239
g4
sVbodySize
p1240
I0
sVhttpVersion
p1241
VHTTP/1.1
p1242
ssa(dp1243
Vcomment
p1244
g4
sVserverIPAddress
p1245
V216.58.216.196
p1246
sVpageref
p1247
VLos Angeles Clippers
p1248
sVstartedDateTime
p1249
V2017-04-16T08:34:02.024-05:00
p1250
sVcache
p1251
(dp1252
sVrequest
p1253
(dp1254
Vcomment
p1255
g4
sVcookies
p1256
(lp1257
sVurl
p1258
Vhttps://www.google.com/async/log_amp_item_set?vet=10ahUKEwjQndLRi6nTAhUl3IMKHWQUCvMQooQBCAE..i&ei=xXLzWObzOYPWjwSwqr7IBw&yv=2&async=num_items:10,_fmt:jspb
p1259
sVqueryString
p1260
(lp1261
(dp1262
Vname
p1263
Vvet
p1264
sVvalue
p1265
V10ahUKEwjQndLRi6nTAhUl3IMKHWQUCvMQooQBCAE..i
p1266
sa(dp1267
Vname
p1268
Vei
p1269
sVvalue
p1270
VxXLzWObzOYPWjwSwqr7IBw
p1271
sa(dp1272
Vname
p1273
Vyv
p1274
sVvalue
p1275
g64
sa(dp1276
Vname
p1277
Vasync
p1278
sVvalue
p1279
Vnum_items:10,_fmt:jspb
p1280
sasVheaders
p1281
(lp1282
sVheadersSize
p1283
I671
sVbodySize
p1284
I0
sVmethod
p1285
VGET
p1286
sVhttpVersion
p1287
VHTTP/1.1
p1288
ssVtimings
p1289
(dp1290
Vcomment
p1291
g4
sVreceive
p1292
I0
sVsend
p1293
I0
sVssl
p1294
I-1
sVconnect
p1295
I-1
sVdns
p1296
I-1
sVwait
p1297
I40
sVblocked
p1298
I-1
ssVtime
p1299
I41
sVresponse
p1300
(dp1301
Vstatus
p1302
I200
sVcomment
p1303
g4
sVcookies
p1304
(lp1305
sVstatusText
p1306
VOK
p1307
sVcontent
p1308
(dp1309
VmimeType
p1310
Vapplication/json; charset=UTF-8
p1311
sVcomment
p1312
g4
sVsize
p1313
I0
ssVheaders
p1314
(lp1315
sVheadersSize
p1316
I417
sVredirectURL
p1317
g4
sVbodySize
p1318
I180
sVhttpVersion
p1319
VHTTP/1.1
p1320
ssa(dp1321
Vcomment
p1322
g4
sVserverIPAddress
p1323
V216.58.216.193
p1324
sVpageref
p1325
VLos Angeles Clippers
p1326
sVstartedDateTime
p1327
V2017-04-16T08:34:02.885-05:00
p1328
sVcache
p1329
(dp1330
sVrequest
p1331
(dp1332
Vcomment
p1333
g4
sVcookies
p1334
(lp1335
sVurl
p1336
Vhttps://www-sbnation-com.cdn.ampproject.org/v/www.sbnation.com/platform/amp/2017/4/16/15317672/chris-paul-clippers-loss-jazz-nba-playoffs-2017?amp_js_v=9
p1337
sVqueryString
p1338
(lp1339
(dp1340
Vname
p1341
Vamp_js_v
p1342
sVvalue
p1343
V9
p1344
sasVheaders
p1345
(lp1346
sVheadersSize
p1347
I558
sVbodySize
p1348
I0
sVmethod
p1349
VGET
p1350
sVhttpVersion
p1351
VHTTP/1.1
p1352
ssVtimings
p1353
(dp1354
Vcomment
p1355
g4
sVreceive
p1356
I0
sVsend
p1357
I0
sVssl
p1358
I371
sVconnect
p1359
I394
sVdns
p1360
I449
sVwait
p1361
I36
sVblocked
p1362
I0
ssVtime
p1363
I880
sVresponse
p1364
(dp1365
Vstatus
p1366
I200
sVcomment
p1367
g4
sVcookies
p1368
(lp1369
sVstatusText
p1370
VOK
p1371
sVcontent
p1372
(dp1373
VmimeType
p1374
Vtext/html
p1375
sVcomment
p1376
g4
sVsize
p1377
I0
ssVheaders
p1378
(lp1379
sVheadersSize
p1380
I859
sVredirectURL
p1381
g4
sVbodySize
p1382
I9653
sVhttpVersion
p1383
VHTTP/1.1
p1384
ssa(dp1385
Vcomment
p1386
g4
sVserverIPAddress
p1387
V216.58.216.193
p1388
sVpageref
p1389
VLos Angeles Clippers
p1390
sVstartedDateTime
p1391
V2017-04-16T08:34:03.515-05:00
p1392
sVcache
p1393
(dp1394
sVrequest
p1395
(dp1396
Vcomment
p1397
g4
sVcookies
p1398
(lp1399
sVurl
p1400
Vhttps://cdn0-vox--cdn-com.cdn.ampproject.org/i/s/cdn0.vox-cdn.com/thumbor/jrk3giUht3nM-BjUpfuMx0ul3Vo=/0x0:3887x2591/1310x873/cdn0.vox-cdn.com/uploads/chorus_image/image/54281959/usa_today_10015480.0.jpg
p1401
sVqueryString
p1402
(lp1403
sVheaders
p1404
(lp1405
sVheadersSize
p1406
I648
sVbodySize
p1407
I0
sVmethod
p1408
VGET
p1409
sVhttpVersion
p1410
VHTTP/1.1
p1411
ssVtimings
p1412
(dp1413
Vcomment
p1414
g4
sVreceive
p1415
I30
sVsend
p1416
I0
sVssl
p1417
I-1
sVconnect
p1418
I-1
sVdns
p1419
I-1
sVwait
p1420
I29
sVblocked
p1421
I-1
ssVtime
p1422
I59
sVresponse
p1423
(dp1424
Vstatus
p1425
I200
sVcomment
p1426
g4
sVcookies
p1427
(lp1428
sVstatusText
p1429
VOK
p1430
sVcontent
p1431
(dp1432
VmimeType
p1433
Vimage/jpeg
p1434
sVcomment
p1435
g4
sVsize
p1436
I0
ssVheaders
p1437
(lp1438
sVheadersSize
p1439
I851
sVredirectURL
p1440
g4
sVbodySize
p1441
I132181
sVhttpVersion
p1442
VHTTP/1.1
p1443
ssa(dp1444
Vcomment
p1445
g4
sVserverIPAddress
p1446
V216.58.216.196
p1447
sVpageref
p1448
VLos Angeles Clippers
p1449
sVstartedDateTime
p1450
V2017-04-16T08:34:03.572-05:00
p1451
sVcache
p1452
(dp1453
sVrequest
p1454
(dp1455
Vcomment
p1456
g4
sVcookies
p1457
(lp1458
sVurl
p1459
Vhttps://www.google.com/gen_204?atyp=i&ct=slh&cad=&ei=tnLzWJ3aGsP-jwSIiYyABQ&m=V&t=C&s=1&v=2&pv=0.4895160054824699&me=1:1492349625856,x:1,V,0,0,1280,944:0,N,1,tnLzWJ3aGsP-jwSIiYyABQ:0,R,1,24,0,155,1197,506:0,R,1,25,0,155,1197,504:0,R,1,79,8,669,1264,309:0,R,1,80,8,713,1264,265:0,R,1,81,0,713,1280,285:4,B,4431:11618,e,U&zx=1492349643566
p1460
sVqueryString
p1461
(lp1462
(dp1463
Vname
p1464
Vatyp
p1465
sVvalue
p1466
g30
sa(dp1467
Vname
p1468
Vct
p1469
sVvalue
p1470
Vslh
p1471
sa(dp1472
Vname
p1473
Vcad
p1474
sVvalue
p1475
g4
sa(dp1476
Vname
p1477
Vei
p1478
sVvalue
p1479
VtnLzWJ3aGsP-jwSIiYyABQ
p1480
sa(dp1481
Vname
p1482
g47
sVvalue
p1483
g49
sa(dp1484
Vname
p1485
g52
sVvalue
p1486
g54
sa(dp1487
Vname
p1488
g57
sVvalue
p1489
g59
sa(dp1490
Vname
p1491
g62
sVvalue
p1492
g64
sa(dp1493
Vname
p1494
Vpv
p1495
sVvalue
p1496
V0.4895160054824699
p1497
sa(dp1498
Vname
p1499
Vme
p1500
sVvalue
p1501
V1:1492349625856,x:1,V,0,0,1280,944:0,N,1,tnLzWJ3aGsP-jwSIiYyABQ:0,R,1,24,0,155,1197,506:0,R,1,25,0,155,1197,504:0,R,1,79,8,669,1264,309:0,R,1,80,8,713,1264,265:0,R,1,81,0,713,1280,285:4,B,4431:11618,e,U
p1502
sa(dp1503
Vname
p1504
Vzx
p1505
sVvalue
p1506
V1492349643566
p1507
sasVheaders
p1508
(lp1509
sVheadersSize
p1510
I853
sVbodySize
p1511
I0
sVmethod
p1512
VGET
p1513
sVhttpVersion
p1514
VHTTP/1.1
p1515
ssVtimings
p1516
(dp1517
Vcomment
p1518
g4
sVreceive
p1519
I0
sVsend
p1520
I0
sVssl
p1521
I-1
sVconnect
p1522
I-1
sVdns
p1523
I-1
sVwait
p1524
I33
sVblocked
p1525
I-1
ssVtime
p1526
I33
sVresponse
p1527
(dp1528
Vstatus
p1529
I204
sVcomment
p1530
g4
sVcookies
p1531
(lp1532
sVstatusText
p1533
VNo Content
p1534
sVcontent
p1535
(dp1536
VmimeType
p1537
Vtext/html; charset=UTF-8
p1538
sVcomment
p1539
g4
sVsize
p1540
I0
ssVheaders
p1541
(lp1542
sVheadersSize
p1543
I248
sVredirectURL
p1544
g4
sVbodySize
p1545
I0
sVhttpVersion
p1546
VHTTP/1.1
p1547
ssasVversion
p1548
V1.2
p1549
sVpages
p1550
(lp1551
(dp1552
VpageTimings
p1553
(dp1554
Vcomment
p1555
g4
ssVcomment
p1556
g4
sVtitle
p1557
VLos Angeles Clippers
p1558
sVid
p1559
VLos Angeles Clippers
p1560
sVstartedDateTime
p1561
V2017-04-16T08:33:57.474-05:00
p1562
sasVcreator
p1563
(dp1564
Vcomment
p1565
g4
sVversion
p1566
V2.1.4
p1567
sVname
p1568
VBrowserMob Proxy
p1569
sss.