(dp0
Vlog
p1
(dp2
Vcomment
p3
V
p4
sVentries
p5
(lp6
(dp7
Vcomment
p8
g4
sVserverIPAddress
p9
V216.58.216.196
p10
sVpageref
p11
VPokemon Go
p12
sVstartedDateTime
p13
V2017-04-16T07:57:53.565-05:00
p14
sVcache
p15
(dp16
sVrequest
p17
(dp18
Vcomment
p19
g4
sVcookies
p20
(lp21
sVurl
p22
Vhttps://www.google.com/gen_204?atyp=i&ct=slh&cad=&ei=RmrzWLzXBKWZjwTT9KvoBQ&m=V&t=C&s=1&v=2&pv=0.12024153054020037&me=1:1492347464974,x:1,V,0,0,1280,944:0,N,1,RmrzWLzXBKWZjwTT9KvoBQ:0,R,1,24,8,155,1249,756:0,R,1,25,8,155,1249,756:0,R,1,28,8,168,1249,40:0,R,1,41,8,220,1249,178:0,R,1,44,0,236,1265,197:0,R,1,84,8,415,1249,20:0,R,1,85,24,415,1217,20:0,R,1,88,8,451,1249,20:0,R,1,96,8,479,1249,20:0,R,1,104,8,507,1249,21:0,R,1,107,8,548,1249,310:0,R,1,108,0,593,1265,285:0,R,1,164,24,921,1217,135:1,B,3539:8587,e,U&zx=1492347473564
p23
sVqueryString
p24
(lp25
(dp26
Vname
p27
Vatyp
p28
sVvalue
p29
Vi
p30
sa(dp31
Vname
p32
Vct
p33
sVvalue
p34
Vslh
p35
sa(dp36
Vname
p37
Vcad
p38
sVvalue
p39
g4
sa(dp40
Vname
p41
Vei
p42
sVvalue
p43
VRmrzWLzXBKWZjwTT9KvoBQ
p44
sa(dp45
Vname
p46
Vm
p47
sVvalue
p48
VV
p49
sa(dp50
Vname
p51
Vt
p52
sVvalue
p53
VC
p54
sa(dp55
Vname
p56
Vs
p57
sVvalue
p58
V1
p59
sa(dp60
Vname
p61
Vv
p62
sVvalue
p63
V2
p64
sa(dp65
Vname
p66
Vpv
p67
sVvalue
p68
V0.12024153054020037
p69
sa(dp70
Vname
p71
Vme
p72
sVvalue
p73
V1:1492347464974,x:1,V,0,0,1280,944:0,N,1,RmrzWLzXBKWZjwTT9KvoBQ:0,R,1,24,8,155,1249,756:0,R,1,25,8,155,1249,756:0,R,1,28,8,168,1249,40:0,R,1,41,8,220,1249,178:0,R,1,44,0,236,1265,197:0,R,1,84,8,415,1249,20:0,R,1,85,24,415,1217,20:0,R,1,88,8,451,1249,20:0,R,1,96,8,479,1249,20:0,R,1,104,8,507,1249,21:0,R,1,107,8,548,1249,310:0,R,1,108,0,593,1265,285:0,R,1,164,24,921,1217,135:1,B,3539:8587,e,U
p74
sa(dp75
Vname
p76
Vzx
p77
sVvalue
p78
V1492347473564
p79
sasVheaders
p80
(lp81
sVheadersSize
p82
I1045
sVbodySize
p83
I0
sVmethod
p84
VGET
p85
sVhttpVersion
p86
VHTTP/1.1
p87
ssVtimings
p88
(dp89
Vcomment
p90
g4
sVreceive
p91
I0
sVsend
p92
I0
sVssl
p93
I-1
sVconnect
p94
I-1
sVdns
p95
I-1
sVwait
p96
I0
sVblocked
p97
I-1
ssVtime
p98
I0
sVresponse
p99
(dp100
Vstatus
p101
I0
sVcomment
p102
g4
sVcookies
p103
(lp104
sV_error
p105
VNo response received
p106
sVstatusText
p107
g4
sVcontent
p108
(dp109
VmimeType
p110
g4
sVcomment
p111
g4
sVsize
p112
I0
ssVheaders
p113
(lp114
sVheadersSize
p115
I-1
sVredirectURL
p116
g4
sVbodySize
p117
I-1
sVhttpVersion
p118
Vunknown
p119
ssa(dp120
Vcomment
p121
g4
sVserverIPAddress
p122
V216.58.216.196
p123
sVpageref
p124
VPokemon Go
p125
sVstartedDateTime
p126
V2017-04-16T07:57:53.569-05:00
p127
sVcache
p128
(dp129
sVrequest
p130
(dp131
Vcomment
p132
g4
sVcookies
p133
(lp134
sVurl
p135
Vhttp://www.google.com/
p136
sVqueryString
p137
(lp138
sVheaders
p139
(lp140
sVheadersSize
p141
I613
sVbodySize
p142
I0
sVmethod
p143
VGET
p144
sVhttpVersion
p145
VHTTP/1.1
p146
ssVtimings
p147
(dp148
Vcomment
p149
g4
sVreceive
p150
I0
sVsend
p151
I0
sVssl
p152
I-1
sVconnect
p153
I-1
sVdns
p154
I-1
sVwait
p155
I44
sVblocked
p156
I-1
ssVtime
p157
I44
sVresponse
p158
(dp159
Vstatus
p160
I302
sVcomment
p161
g4
sVcookies
p162
(lp163
sVstatusText
p164
VFound
p165
sVcontent
p166
(dp167
VmimeType
p168
Vtext/html; charset=UTF-8
p169
sVcomment
p170
g4
sVsize
p171
I0
ssVheaders
p172
(lp173
sVheadersSize
p174
I609
sVredirectURL
p175
Vhttps://www.google.com/?gws_rd=ssl
p176
sVbodySize
p177
I231
sVhttpVersion
p178
VHTTP/1.1
p179
ssa(dp180
Vcomment
p181
g4
sVserverIPAddress
p182
V216.58.216.196
p183
sVpageref
p184
VPokemon Go
p185
sVstartedDateTime
p186
V2017-04-16T07:57:53.616-05:00
p187
sVcache
p188
(dp189
sVrequest
p190
(dp191
Vcomment
p192
g4
sVcookies
p193
(lp194
sVurl
p195
Vhttps://www.google.com/?gws_rd=ssl
p196
sVqueryString
p197
(lp198
(dp199
Vname
p200
Vgws_rd
p201
sVvalue
p202
Vssl
p203
sasVheaders
p204
(lp205
sVheadersSize
p206
I607
sVbodySize
p207
I0
sVmethod
p208
VGET
p209
sVhttpVersion
p210
VHTTP/1.1
p211
ssVtimings
p212
(dp213
Vcomment
p214
g4
sVreceive
p215
I24
sVsend
p216
I0
sVssl
p217
I-1
sVconnect
p218
I-1
sVdns
p219
I-1
sVwait
p220
I73
sVblocked
p221
I-1
ssVtime
p222
I97
sVresponse
p223
(dp224
Vstatus
p225
I200
sVcomment
p226
g4
sVcookies
p227
(lp228
sVstatusText
p229
VOK
p230
sVcontent
p231
(dp232
VmimeType
p233
Vtext/html; charset=UTF-8
p234
sVcomment
p235
g4
sVsize
p236
I0
ssVheaders
p237
(lp238
sVheadersSize
p239
I721
sVredirectURL
p240
g4
sVbodySize
p241
I34294
sVhttpVersion
p242
VHTTP/1.1
p243
ssa(dp244
Vcomment
p245
g4
sVserverIPAddress
p246
V216.58.216.196
p247
sVpageref
p248
VPokemon Go
p249
sVstartedDateTime
p250
V2017-04-16T07:57:53.895-05:00
p251
sVcache
p252
(dp253
sVrequest
p254
(dp255
Vcomment
p256
g4
sVcookies
p257
(lp258
sVurl
p259
Vhttps://www.google.com/gen_204?s=mobilewebhp&atyp=csi&ei=UGrzWKT1Jo-9jwStlbDwAw&imc=1&imn=1&imp=0&adh=&xjs=init.22.12.sb_mob.16.c.2.dvl.2.jsa.1.mbsf.1&ima=1&rt=xjsls.8,prt.9,iml.9,dcl.38,xjses.67,xjsee.148,xjs.148,ol.181,aft.9,wsrt.146,cst.0,dnst.0,rqst.99,rspt.25,rqstt.53,unt.52,cstt.52,dit.177
p260
sVqueryString
p261
(lp262
(dp263
Vname
p264
g57
sVvalue
p265
Vmobilewebhp
p266
sa(dp267
Vname
p268
Vatyp
p269
sVvalue
p270
Vcsi
p271
sa(dp272
Vname
p273
Vei
p274
sVvalue
p275
VUGrzWKT1Jo-9jwStlbDwAw
p276
sa(dp277
Vname
p278
Vimc
p279
sVvalue
p280
g59
sa(dp281
Vname
p282
Vimn
p283
sVvalue
p284
g59
sa(dp285
Vname
p286
Vimp
p287
sVvalue
p288
V0
p289
sa(dp290
Vname
p291
Vadh
p292
sVvalue
p293
g4
sa(dp294
Vname
p295
Vxjs
p296
sVvalue
p297
Vinit.22.12.sb_mob.16.c.2.dvl.2.jsa.1.mbsf.1
p298
sa(dp299
Vname
p300
Vima
p301
sVvalue
p302
g59
sa(dp303
Vname
p304
Vrt
p305
sVvalue
p306
Vxjsls.8,prt.9,iml.9,dcl.38,xjses.67,xjsee.148,xjs.148,ol.181,aft.9,wsrt.146,cst.0,dnst.0,rqst.99,rspt.25,rqstt.53,unt.52,cstt.52,dit.177
p307
sasVheaders
p308
(lp309
sVheadersSize
p310
I824
sVbodySize
p311
I0
sVmethod
p312
VGET
p313
sVhttpVersion
p314
VHTTP/1.1
p315
ssVtimings
p316
(dp317
Vcomment
p318
g4
sVreceive
p319
I0
sVsend
p320
I0
sVssl
p321
I-1
sVconnect
p322
I-1
sVdns
p323
I-1
sVwait
p324
I28
sVblocked
p325
I-1
ssVtime
p326
I28
sVresponse
p327
(dp328
Vstatus
p329
I204
sVcomment
p330
g4
sVcookies
p331
(lp332
sVstatusText
p333
VNo Content
p334
sVcontent
p335
(dp336
VmimeType
p337
Vtext/html; charset=UTF-8
p338
sVcomment
p339
g4
sVsize
p340
I0
ssVheaders
p341
(lp342
sVheadersSize
p343
I248
sVredirectURL
p344
g4
sVbodySize
p345
I0
sVhttpVersion
p346
VHTTP/1.1
p347
ssa(dp348
Vcomment
p349
g4
sVserverIPAddress
p350
V216.58.216.196
p351
sVpageref
p352
VPokemon Go
p353
sVstartedDateTime
p354
V2017-04-16T07:57:54.013-05:00
p355
sVcache
p356
(dp357
sVrequest
p358
(dp359
Vcomment
p360
g4
sVcookies
p361
(lp362
sVurl
p363
Vhttps://www.google.com/complete/search?client=mobile-gws-hp&hl=en&gs_rn=64&gs_ri=mobile-gws-hp&sla=1&pfq=prince&gm=602&cp=0&gs_id=1&xhr=t&q=P&tch=1&ech=1&psi=UGrzWKT1Jo-9jwStlbDwAw.1492347473835.1
p364
sVqueryString
p365
(lp366
(dp367
Vname
p368
Vclient
p369
sVvalue
p370
Vmobile-gws-hp
p371
sa(dp372
Vname
p373
Vhl
p374
sVvalue
p375
Ven
p376
sa(dp377
Vname
p378
Vgs_rn
p379
sVvalue
p380
V64
p381
sa(dp382
Vname
p383
Vgs_ri
p384
sVvalue
p385
Vmobile-gws-hp
p386
sa(dp387
Vname
p388
Vsla
p389
sVvalue
p390
g59
sa(dp391
Vname
p392
Vpfq
p393
sVvalue
p394
Vprince
p395
sa(dp396
Vname
p397
Vgm
p398
sVvalue
p399
V602
p400
sa(dp401
Vname
p402
Vcp
p403
sVvalue
p404
g289
sa(dp405
Vname
p406
Vgs_id
p407
sVvalue
p408
g59
sa(dp409
Vname
p410
Vxhr
p411
sVvalue
p412
g52
sa(dp413
Vname
p414
Vq
p415
sVvalue
p416
VP
p417
sa(dp418
Vname
p419
Vtch
p420
sVvalue
p421
g59
sa(dp422
Vname
p423
Vech
p424
sVvalue
p425
g59
sa(dp426
Vname
p427
Vpsi
p428
sVvalue
p429
VUGrzWKT1Jo-9jwStlbDwAw.1492347473835.1
p430
sasVheaders
p431
(lp432
sVheadersSize
p433
I724
sVbodySize
p434
I0
sVmethod
p435
VGET
p436
sVhttpVersion
p437
VHTTP/1.1
p438
ssVtimings
p439
(dp440
Vcomment
p441
g4
sVreceive
p442
I0
sVsend
p443
I0
sVssl
p444
I-1
sVconnect
p445
I-1
sVdns
p446
I-1
sVwait
p447
I0
sVblocked
p448
I-1
ssVtime
p449
I0
sVresponse
p450
(dp451
Vstatus
p452
I0
sVcomment
p453
g4
sVcookies
p454
(lp455
sV_error
p456
VNo response received
p457
sVstatusText
p458
g4
sVcontent
p459
(dp460
VmimeType
p461
g4
sVcomment
p462
g4
sVsize
p463
I0
ssVheaders
p464
(lp465
sVheadersSize
p466
I-1
sVredirectURL
p467
g4
sVbodySize
p468
I-1
sVhttpVersion
p469
Vunknown
p470
ssa(dp471
Vcomment
p472
g4
sVserverIPAddress
p473
V216.58.216.196
p474
sVpageref
p475
VPokemon Go
p476
sVstartedDateTime
p477
V2017-04-16T07:57:54.061-05:00
p478
sVcache
p479
(dp480
sVrequest
p481
(dp482
Vcomment
p483
g4
sVcookies
p484
(lp485
sVurl
p486
Vhttps://www.google.com/search?site=&source=hp&ei=UGrzWKT1Jo-9jwStlbDwAw&q=Pokemon+Go&oq=Pokemon+Go&gs_l=mobile-gws-hp.3...159.181.0.204.10.1.0.0.0.0.0.0..0.0....0...1c.1.64.mobile-gws-hp..10.0.0.lvljjbVCFqk
p487
sVqueryString
p488
(lp489
(dp490
Vname
p491
Vsite
p492
sVvalue
p493
g4
sa(dp494
Vname
p495
Vsource
p496
sVvalue
p497
Vhp
p498
sa(dp499
Vname
p500
Vei
p501
sVvalue
p502
VUGrzWKT1Jo-9jwStlbDwAw
p503
sa(dp504
Vname
p505
g415
sVvalue
p506
VPokemon Go
p507
sa(dp508
Vname
p509
Voq
p510
sVvalue
p511
VPokemon Go
p512
sa(dp513
Vname
p514
Vgs_l
p515
sVvalue
p516
Vmobile-gws-hp.3...159.181.0.204.10.1.0.0.0.0.0.0..0.0....0...1c.1.64.mobile-gws-hp..10.0.0.lvljjbVCFqk
p517
sasVheaders
p518
(lp519
sVheadersSize
p520
I824
sVbodySize
p521
I0
sVmethod
p522
VGET
p523
sVhttpVersion
p524
VHTTP/1.1
p525
ssVtimings
p526
(dp527
Vcomment
p528
g4
sVreceive
p529
I1034
sVsend
p530
I0
sVssl
p531
I-1
sVconnect
p532
I-1
sVdns
p533
I-1
sVwait
p534
I88
sVblocked
p535
I-1
ssVtime
p536
I1123
sVresponse
p537
(dp538
Vstatus
p539
I200
sVcomment
p540
g4
sVcookies
p541
(lp542
sVstatusText
p543
VOK
p544
sVcontent
p545
(dp546
VmimeType
p547
Vtext/html; charset=UTF-8
p548
sVcomment
p549
g4
sVsize
p550
I0
ssVheaders
p551
(lp552
sVheadersSize
p553
I363
sVredirectURL
p554
g4
sVbodySize
p555
I114214
sVhttpVersion
p556
VHTTP/1.1
p557
ssa(dp558
Vcomment
p559
g4
sVserverIPAddress
p560
V216.58.216.206
p561
sVpageref
p562
VPokemon Go
p563
sVstartedDateTime
p564
V2017-04-16T07:57:55.422-05:00
p565
sVcache
p566
(dp567
sVrequest
p568
(dp569
Vcomment
p570
g4
sVcookies
p571
(lp572
sVurl
p573
Vhttps://encrypted-tbn3.gstatic.com/images?q=tbn:ANd9GcRurpScj7jTIlMvm29_lVABDgSYr1ec6K0iLT744uHj8Z_cyhFHcMg
p574
sVqueryString
p575
(lp576
(dp577
Vname
p578
g415
sVvalue
p579
Vtbn:ANd9GcRurpScj7jTIlMvm29_lVABDgSYr1ec6K0iLT744uHj8Z_cyhFHcMg
p580
sasVheaders
p581
(lp582
sVheadersSize
p583
I422
sVbodySize
p584
I0
sVmethod
p585
VGET
p586
sVhttpVersion
p587
VHTTP/1.1
p588
ssVtimings
p589
(dp590
Vcomment
p591
g4
sVreceive
p592
I0
sVsend
p593
I0
sVssl
p594
I-1
sVconnect
p595
I-1
sVdns
p596
I-1
sVwait
p597
I20
sVblocked
p598
I-1
ssVtime
p599
I21
sVresponse
p600
(dp601
Vstatus
p602
I200
sVcomment
p603
g4
sVcookies
p604
(lp605
sVstatusText
p606
VOK
p607
sVcontent
p608
(dp609
VmimeType
p610
Vimage/jpeg
p611
sVcomment
p612
g4
sVsize
p613
I0
ssVheaders
p614
(lp615
sVheadersSize
p616
I428
sVredirectURL
p617
g4
sVbodySize
p618
I3345
sVhttpVersion
p619
VHTTP/1.1
p620
ssa(dp621
Vcomment
p622
g4
sVserverIPAddress
p623
V216.58.216.206
p624
sVpageref
p625
VPokemon Go
p626
sVstartedDateTime
p627
V2017-04-16T07:57:55.423-05:00
p628
sVcache
p629
(dp630
sVrequest
p631
(dp632
Vcomment
p633
g4
sVcookies
p634
(lp635
sVurl
p636
Vhttps://encrypted-tbn1.gstatic.com/images?q=tbn:ANd9GcR26NHC_O34kuhoCh_KOWJ9Px90cs-qWPPbpI_aHLNhXX0yCSD3a2o
p637
sVqueryString
p638
(lp639
(dp640
Vname
p641
g415
sVvalue
p642
Vtbn:ANd9GcR26NHC_O34kuhoCh_KOWJ9Px90cs-qWPPbpI_aHLNhXX0yCSD3a2o
p643
sasVheaders
p644
(lp645
sVheadersSize
p646
I422
sVbodySize
p647
I0
sVmethod
p648
VGET
p649
sVhttpVersion
p650
VHTTP/1.1
p651
ssVtimings
p652
(dp653
Vcomment
p654
g4
sVreceive
p655
I0
sVsend
p656
I0
sVssl
p657
I-1
sVconnect
p658
I-1
sVdns
p659
I-1
sVwait
p660
I19
sVblocked
p661
I-1
ssVtime
p662
I19
sVresponse
p663
(dp664
Vstatus
p665
I200
sVcomment
p666
g4
sVcookies
p667
(lp668
sVstatusText
p669
VOK
p670
sVcontent
p671
(dp672
VmimeType
p673
Vimage/jpeg
p674
sVcomment
p675
g4
sVsize
p676
I0
ssVheaders
p677
(lp678
sVheadersSize
p679
I407
sVredirectURL
p680
g4
sVbodySize
p681
I3386
sVhttpVersion
p682
VHTTP/1.1
p683
ssa(dp684
Vcomment
p685
g4
sVserverIPAddress
p686
V216.58.216.206
p687
sVpageref
p688
VPokemon Go
p689
sVstartedDateTime
p690
V2017-04-16T07:57:55.423-05:00
p691
sVcache
p692
(dp693
sVrequest
p694
(dp695
Vcomment
p696
g4
sVcookies
p697
(lp698
sVurl
p699
Vhttps://encrypted-tbn2.gstatic.com/images?q=tbn:ANd9GcTTcvx6cWYcfhEcVg6mgJQltspF69gHmIWFntEnXBYn3HlONA9QJVA
p700
sVqueryString
p701
(lp702
(dp703
Vname
p704
g415
sVvalue
p705
Vtbn:ANd9GcTTcvx6cWYcfhEcVg6mgJQltspF69gHmIWFntEnXBYn3HlONA9QJVA
p706
sasVheaders
p707
(lp708
sVheadersSize
p709
I422
sVbodySize
p710
I0
sVmethod
p711
VGET
p712
sVhttpVersion
p713
VHTTP/1.1
p714
ssVtimings
p715
(dp716
Vcomment
p717
g4
sVreceive
p718
I0
sVsend
p719
I0
sVssl
p720
I-1
sVconnect
p721
I-1
sVdns
p722
I-1
sVwait
p723
I18
sVblocked
p724
I-1
ssVtime
p725
I19
sVresponse
p726
(dp727
Vstatus
p728
I200
sVcomment
p729
g4
sVcookies
p730
(lp731
sVstatusText
p732
VOK
p733
sVcontent
p734
(dp735
VmimeType
p736
Vimage/jpeg
p737
sVcomment
p738
g4
sVsize
p739
I0
ssVheaders
p740
(lp741
sVheadersSize
p742
I407
sVredirectURL
p743
g4
sVbodySize
p744
I2325
sVhttpVersion
p745
VHTTP/1.1
p746
ssa(dp747
Vcomment
p748
g4
sVserverIPAddress
p749
V216.58.216.206
p750
sVpageref
p751
VPokemon Go
p752
sVstartedDateTime
p753
V2017-04-16T07:57:55.424-05:00
p754
sVcache
p755
(dp756
sVrequest
p757
(dp758
Vcomment
p759
g4
sVcookies
p760
(lp761
sVurl
p762
Vhttps://encrypted-tbn2.gstatic.com/images?q=tbn:ANd9GcQXl4dF-2jUyhiXQUvcCLD2OGc_I9Y-GA4liTKK0GYz6Q7CxVAV84tKtYq54z4FwlxMdPU
p763
sVqueryString
p764
(lp765
(dp766
Vname
p767
g415
sVvalue
p768
Vtbn:ANd9GcQXl4dF-2jUyhiXQUvcCLD2OGc_I9Y-GA4liTKK0GYz6Q7CxVAV84tKtYq54z4FwlxMdPU
p769
sasVheaders
p770
(lp771
sVheadersSize
p772
I438
sVbodySize
p773
I0
sVmethod
p774
VGET
p775
sVhttpVersion
p776
VHTTP/1.1
p777
ssVtimings
p778
(dp779
Vcomment
p780
g4
sVreceive
p781
I0
sVsend
p782
I0
sVssl
p783
I-1
sVconnect
p784
I-1
sVdns
p785
I-1
sVwait
p786
I19
sVblocked
p787
I-1
ssVtime
p788
I19
sVresponse
p789
(dp790
Vstatus
p791
I200
sVcomment
p792
g4
sVcookies
p793
(lp794
sVstatusText
p795
VOK
p796
sVcontent
p797
(dp798
VmimeType
p799
Vimage/jpeg
p800
sVcomment
p801
g4
sVsize
p802
I0
ssVheaders
p803
(lp804
sVheadersSize
p805
I407
sVredirectURL
p806
g4
sVbodySize
p807
I2362
sVhttpVersion
p808
VHTTP/1.1
p809
ssa(dp810
Vcomment
p811
g4
sVserverIPAddress
p812
V216.58.216.206
p813
sVpageref
p814
VPokemon Go
p815
sVstartedDateTime
p816
V2017-04-16T07:57:55.425-05:00
p817
sVcache
p818
(dp819
sVrequest
p820
(dp821
Vcomment
p822
g4
sVcookies
p823
(lp824
sVurl
p825
Vhttps://encrypted-tbn1.gstatic.com/images?q=tbn:ANd9GcT0KfYoVQhLcruHIC-4-PLILZlnAxNrvkucJjIUz52KIJlnhNxb6yPWdIHv0L_t5btrFn4
p826
sVqueryString
p827
(lp828
(dp829
Vname
p830
g415
sVvalue
p831
Vtbn:ANd9GcT0KfYoVQhLcruHIC-4-PLILZlnAxNrvkucJjIUz52KIJlnhNxb6yPWdIHv0L_t5btrFn4
p832
sasVheaders
p833
(lp834
sVheadersSize
p835
I438
sVbodySize
p836
I0
sVmethod
p837
VGET
p838
sVhttpVersion
p839
VHTTP/1.1
p840
ssVtimings
p841
(dp842
Vcomment
p843
g4
sVreceive
p844
I0
sVsend
p845
I0
sVssl
p846
I-1
sVconnect
p847
I-1
sVdns
p848
I-1
sVwait
p849
I17
sVblocked
p850
I-1
ssVtime
p851
I17
sVresponse
p852
(dp853
Vstatus
p854
I200
sVcomment
p855
g4
sVcookies
p856
(lp857
sVstatusText
p858
VOK
p859
sVcontent
p860
(dp861
VmimeType
p862
Vimage/jpeg
p863
sVcomment
p864
g4
sVsize
p865
I0
ssVheaders
p866
(lp867
sVheadersSize
p868
I407
sVredirectURL
p869
g4
sVbodySize
p870
I2201
sVhttpVersion
p871
VHTTP/1.1
p872
ssa(dp873
Vcomment
p874
g4
sVserverIPAddress
p875
V216.58.216.206
p876
sVpageref
p877
VPokemon Go
p878
sVstartedDateTime
p879
V2017-04-16T07:57:55.426-05:00
p880
sVcache
p881
(dp882
sVrequest
p883
(dp884
Vcomment
p885
g4
sVcookies
p886
(lp887
sVurl
p888
Vhttps://encrypted-tbn1.gstatic.com/images?q=tbn:ANd9GcQaVNh6bY3ahcY2OxNhQUi1SPrwa_-8Qu44Kv3m56-hZbP0QJE8GLg
p889
sVqueryString
p890
(lp891
(dp892
Vname
p893
g415
sVvalue
p894
Vtbn:ANd9GcQaVNh6bY3ahcY2OxNhQUi1SPrwa_-8Qu44Kv3m56-hZbP0QJE8GLg
p895
sasVheaders
p896
(lp897
sVheadersSize
p898
I422
sVbodySize
p899
I0
sVmethod
p900
VGET
p901
sVhttpVersion
p902
VHTTP/1.1
p903
ssVtimings
p904
(dp905
Vcomment
p906
g4
sVreceive
p907
I0
sVsend
p908
I0
sVssl
p909
I-1
sVconnect
p910
I-1
sVdns
p911
I-1
sVwait
p912
I27
sVblocked
p913
I-1
ssVtime
p914
I27
sVresponse
p915
(dp916
Vstatus
p917
I200
sVcomment
p918
g4
sVcookies
p919
(lp920
sVstatusText
p921
VOK
p922
sVcontent
p923
(dp924
VmimeType
p925
Vimage/png
p926
sVcomment
p927
g4
sVsize
p928
I0
ssVheaders
p929
(lp930
sVheadersSize
p931
I406
sVredirectURL
p932
g4
sVbodySize
p933
I1328
sVhttpVersion
p934
VHTTP/1.1
p935
ssa(dp936
Vcomment
p937
g4
sVserverIPAddress
p938
V216.58.216.196
p939
sVpageref
p940
VPokemon Go
p941
sVstartedDateTime
p942
V2017-04-16T07:57:55.434-05:00
p943
sVcache
p944
(dp945
sVrequest
p946
(dp947
Vcomment
p948
g4
sVcookies
p949
(lp950
sVurl
p951
Vhttps://www.google.com/xjs/_/js/k=xjs.qs.en_US.pCBXVCvTH3s.O/m=syl,syj,syn,em3,em8,em6,em7,sym,aa,abd,sy2g,sy2k,sy29,sy2j,sy2d,sy2a,sy2c,sy2f,sy2l,sy2m,sy2n,emd,async,sybn,sybi,sybo,sy1f,sy45,sy46,sy9w,sybk,sybj,sybp,sy1g,sy30,sy47,sybm,sybl,sybq,sy1h,sybh,dvl,syep,foot,ipv6,sy32,emj,shm,sy5g,sy5i,sy5k,sykh,tl,sy2x,sy2y,sy2t,sy38,em12,vs,sy5j,sy5h,sy6u,sy66,sy67,sy7d,sy7j,sy4u,sy69,sy89,sy7e,sykk,sykl,tnv,bct,sy23,sy9m,sy24,sy9n,twt,sy1y,sy2u,sy22,sy6i,sy34,sy31,sy6j,sy25,sy6l,sy6k,sy6h,emb,em9,ema,sy6m,qkx,syf5,sy99,syf4,sy26,syfc,syfn,syf7,syff,sy1i,sy68,sy8d,sy9b,syf6,syfl,syfr,syfq,syfg,sy1j,sy4q,sy5o,sy5r,sy6n,sy6p,sy8h,syc7,syc8,syfb,syfj,syfs,syft,syg3,syg5,syg7,emn,emo,syg4,syg6,ivg,iuci,img,sy4d,sy4f,sy4c,sy4e,sy4b,sy6w,shrb,sy4g,syd7,dgm,sy41,tcc,syac,syhz,syl6,ssc,sya3,sya2,sy72,sya4,sykr,strm,sy6y,sycu,d3l,syj7,syj8,syj2,syjc,syj6,syj3,syjg,syjh,syje,syjd,syjk,syji,syjf,syj0,emr,ems,emt,emu,emv,emx,emy,emz,em10,em11,udlg,sy5z,atn,sy4h,sy4i,sya1,ampfp/am=gCP4LtMEBXQA2RUaq_oFBISzAFA/rt=j/d=0/t=zcms/rs=ACT90oFwm4NZCwIcuuiqmthdlECdBzkhRA
p952
sVqueryString
p953
(lp954
sVheaders
p955
(lp956
sVheadersSize
p957
I1578
sVbodySize
p958
I0
sVmethod
p959
VGET
p960
sVhttpVersion
p961
VHTTP/1.1
p962
ssVtimings
p963
(dp964
Vcomment
p965
g4
sVreceive
p966
I33
sVsend
p967
I0
sVssl
p968
I-1
sVconnect
p969
I-1
sVdns
p970
I-1
sVwait
p971
I76
sVblocked
p972
I-1
ssVtime
p973
I110
sVresponse
p974
(dp975
Vstatus
p976
I200
sVcomment
p977
g4
sVcookies
p978
(lp979
sVstatusText
p980
VOK
p981
sVcontent
p982
(dp983
VmimeType
p984
Vtext/javascript; charset=UTF-8
p985
sVcomment
p986
g4
sVsize
p987
I0
ssVheaders
p988
(lp989
sVheadersSize
p990
I452
sVredirectURL
p991
g4
sVbodySize
p992
I110916
sVhttpVersion
p993
VHTTP/1.1
p994
ssa(dp995
Vcomment
p996
g4
sVserverIPAddress
p997
V216.58.216.206
p998
sVpageref
p999
VPokemon Go
p1000
sVstartedDateTime
p1001
V2017-04-16T07:57:55.480-05:00
p1002
sVcache
p1003
(dp1004
sVrequest
p1005
(dp1006
Vcomment
p1007
g4
sVcookies
p1008
(lp1009
sVurl
p1010
Vhttps://encrypted-tbn3.gstatic.com/images?q=tbn:ANd9GcTsA69CIeyAJ4BO3iQrKkLsyZ4HWNOS08v8XJikporzeZvIWDxs8Ew
p1011
sVqueryString
p1012
(lp1013
(dp1014
Vname
p1015
g415
sVvalue
p1016
Vtbn:ANd9GcTsA69CIeyAJ4BO3iQrKkLsyZ4HWNOS08v8XJikporzeZvIWDxs8Ew
p1017
sasVheaders
p1018
(lp1019
sVheadersSize
p1020
I422
sVbodySize
p1021
I0
sVmethod
p1022
VGET
p1023
sVhttpVersion
p1024
VHTTP/1.1
p1025
ssVtimings
p1026
(dp1027
Vcomment
p1028
g4
sVreceive
p1029
I0
sVsend
p1030
I0
sVssl
p1031
I33
sVconnect
p1032
I51
sVdns
p1033
I0
sVwait
p1034
I16
sVblocked
p1035
I0
ssVtime
p1036
I68
sVresponse
p1037
(dp1038
Vstatus
p1039
I200
sVcomment
p1040
g4
sVcookies
p1041
(lp1042
sVstatusText
p1043
VOK
p1044
sVcontent
p1045
(dp1046
VmimeType
p1047
Vimage/jpeg
p1048
sVcomment
p1049
g4
sVsize
p1050
I0
ssVheaders
p1051
(lp1052
sVheadersSize
p1053
I428
sVredirectURL
p1054
g4
sVbodySize
p1055
I2174
sVhttpVersion
p1056
VHTTP/1.1
p1057
ssa(dp1058
Vcomment
p1059
g4
sVserverIPAddress
p1060
V216.58.216.206
p1061
sVpageref
p1062
VPokemon Go
p1063
sVstartedDateTime
p1064
V2017-04-16T07:57:55.481-05:00
p1065
sVcache
p1066
(dp1067
sVrequest
p1068
(dp1069
Vcomment
p1070
g4
sVcookies
p1071
(lp1072
sVurl
p1073
Vhttps://encrypted-tbn2.gstatic.com/images?q=tbn:ANd9GcRNX17yyKPTrchDi5JDAFSF68vwiHRqqNHw1caYdDZt1gocg6ct9Q3nwZQ8KPsqtTOIDC4
p1074
sVqueryString
p1075
(lp1076
(dp1077
Vname
p1078
g415
sVvalue
p1079
Vtbn:ANd9GcRNX17yyKPTrchDi5JDAFSF68vwiHRqqNHw1caYdDZt1gocg6ct9Q3nwZQ8KPsqtTOIDC4
p1080
sasVheaders
p1081
(lp1082
sVheadersSize
p1083
I438
sVbodySize
p1084
I0
sVmethod
p1085
VGET
p1086
sVhttpVersion
p1087
VHTTP/1.1
p1088
ssVtimings
p1089
(dp1090
Vcomment
p1091
g4
sVreceive
p1092
I0
sVsend
p1093
I0
sVssl
p1094
I34
sVconnect
p1095
I51
sVdns
p1096
I0
sVwait
p1097
I15
sVblocked
p1098
I0
ssVtime
p1099
I67
sVresponse
p1100
(dp1101
Vstatus
p1102
I200
sVcomment
p1103
g4
sVcookies
p1104
(lp1105
sVstatusText
p1106
VOK
p1107
sVcontent
p1108
(dp1109
VmimeType
p1110
Vimage/jpeg
p1111
sVcomment
p1112
g4
sVsize
p1113
I0
ssVheaders
p1114
(lp1115
sVheadersSize
p1116
I407
sVredirectURL
p1117
g4
sVbodySize
p1118
I2786
sVhttpVersion
p1119
VHTTP/1.1
p1120
ssa(dp1121
Vcomment
p1122
g4
sVserverIPAddress
p1123
V216.58.216.196
p1124
sVpageref
p1125
VPokemon Go
p1126
sVstartedDateTime
p1127
V2017-04-16T07:57:55.617-05:00
p1128
sVcache
p1129
(dp1130
sVrequest
p1131
(dp1132
Vcomment
p1133
g4
sVcookies
p1134
(lp1135
sVurl
p1136
Vhttps://www.google.com/async/irc?vet=10ahUKEwj98Y7Ig6nTAhVC34MKHUpKDTEQo0EI4AE..i&ved=0ahUKEwj98Y7Ig6nTAhVC34MKHUpKDTEQo0EI4AE&ei=UWrzWL2FBcK-jwTKlLWIAw&yv=2&async=iu:1,ved:0ahUKEwj98Y7Ig6nTAhVC34MKHUpKDTEQo0EI4AE,_id:irc_async,_pms:qs
p1137
sVqueryString
p1138
(lp1139
(dp1140
Vname
p1141
Vvet
p1142
sVvalue
p1143
V10ahUKEwj98Y7Ig6nTAhVC34MKHUpKDTEQo0EI4AE..i
p1144
sa(dp1145
Vname
p1146
Vved
p1147
sVvalue
p1148
V0ahUKEwj98Y7Ig6nTAhVC34MKHUpKDTEQo0EI4AE
p1149
sa(dp1150
Vname
p1151
Vei
p1152
sVvalue
p1153
VUWrzWL2FBcK-jwTKlLWIAw
p1154
sa(dp1155
Vname
p1156
Vyv
p1157
sVvalue
p1158
g64
sa(dp1159
Vname
p1160
Vasync
p1161
sVvalue
p1162
Viu:1,ved:0ahUKEwj98Y7Ig6nTAhVC34MKHUpKDTEQo0EI4AE,_id:irc_async,_pms:qs
p1163
sasVheaders
p1164
(lp1165
sVheadersSize
p1166
I752
sVbodySize
p1167
I0
sVmethod
p1168
VGET
p1169
sVhttpVersion
p1170
VHTTP/1.1
p1171
ssVtimings
p1172
(dp1173
Vcomment
p1174
g4
sVreceive
p1175
I1
sVsend
p1176
I0
sVssl
p1177
I-1
sVconnect
p1178
I-1
sVdns
p1179
I-1
sVwait
p1180
I39
sVblocked
p1181
I-1
ssVtime
p1182
I40
sVresponse
p1183
(dp1184
Vstatus
p1185
I200
sVcomment
p1186
g4
sVcookies
p1187
(lp1188
sVstatusText
p1189
VOK
p1190
sVcontent
p1191
(dp1192
VmimeType
p1193
Vtext/html; charset=UTF-8
p1194
sVcomment
p1195
g4
sVsize
p1196
I0
ssVheaders
p1197
(lp1198
sVheadersSize
p1199
I383
sVredirectURL
p1200
g4
sVbodySize
p1201
I7791
sVhttpVersion
p1202
VHTTP/1.1
p1203
ssa(dp1204
Vcomment
p1205
g4
sVserverIPAddress
p1206
V216.58.216.196
p1207
sVpageref
p1208
VPokemon Go
p1209
sVstartedDateTime
p1210
V2017-04-16T07:57:55.678-05:00
p1211
sVcache
p1212
(dp1213
sVrequest
p1214
(dp1215
Vcomment
p1216
g4
sVcookies
p1217
(lp1218
sVurl
p1219
Vhttps://www.google.com/async/ampfp?vet=10ahUKEwj98Y7Ig6nTAhVC34MKHUpKDTEQtZoBCN4B..i&ei=UWrzWL2FBcK-jwTKlLWIAw&yv=2&async=_id:ampfp-async,_pms:qs
p1220
sVqueryString
p1221
(lp1222
(dp1223
Vname
p1224
Vvet
p1225
sVvalue
p1226
V10ahUKEwj98Y7Ig6nTAhVC34MKHUpKDTEQtZoBCN4B..i
p1227
sa(dp1228
Vname
p1229
Vei
p1230
sVvalue
p1231
VUWrzWL2FBcK-jwTKlLWIAw
p1232
sa(dp1233
Vname
p1234
Vyv
p1235
sVvalue
p1236
g64
sa(dp1237
Vname
p1238
Vasync
p1239
sVvalue
p1240
V_id:ampfp-async,_pms:qs
p1241
sasVheaders
p1242
(lp1243
sVheadersSize
p1244
I662
sVbodySize
p1245
I0
sVmethod
p1246
VGET
p1247
sVhttpVersion
p1248
VHTTP/1.1
p1249
ssVtimings
p1250
(dp1251
Vcomment
p1252
g4
sVreceive
p1253
I0
sVsend
p1254
I0
sVssl
p1255
I-1
sVconnect
p1256
I-1
sVdns
p1257
I-1
sVwait
p1258
I34
sVblocked
p1259
I-1
ssVtime
p1260
I35
sVresponse
p1261
(dp1262
Vstatus
p1263
I200
sVcomment
p1264
g4
sVcookies
p1265
(lp1266
sVstatusText
p1267
VOK
p1268
sVcontent
p1269
(dp1270
VmimeType
p1271
Vtext/html; charset=UTF-8
p1272
sVcomment
p1273
g4
sVsize
p1274
I0
ssVheaders
p1275
(lp1276
sVheadersSize
p1277
I383
sVredirectURL
p1278
g4
sVbodySize
p1279
I4526
sVhttpVersion
p1280
VHTTP/1.1
p1281
ssa(dp1282
Vcomment
p1283
g4
sVserverIPAddress
p1284
V216.58.216.193
p1285
sVpageref
p1286
VPokemon Go
p1287
sVstartedDateTime
p1288
V2017-04-16T07:57:55.678-05:00
p1289
sVcache
p1290
(dp1291
sVrequest
p1292
(dp1293
Vcomment
p1294
g4
sVcookies
p1295
(lp1296
sVurl
p1297
Vhttps://cdn.ampproject.org/preconnect.gif?0.9836848234957736
p1298
sVqueryString
p1299
(lp1300
(dp1301
Vname
p1302
V0.9836848234957736
p1303
sVvalue
p1304
g4
sasVheaders
p1305
(lp1306
sVheadersSize
p1307
I375
sVbodySize
p1308
I0
sVmethod
p1309
VGET
p1310
sVhttpVersion
p1311
VHTTP/1.1
p1312
ssVtimings
p1313
(dp1314
Vcomment
p1315
g4
sVreceive
p1316
I0
sVsend
p1317
I0
sVssl
p1318
I-1
sVconnect
p1319
I-1
sVdns
p1320
I-1
sVwait
p1321
I38
sVblocked
p1322
I-1
ssVtime
p1323
I38
sVresponse
p1324
(dp1325
Vstatus
p1326
I200
sVcomment
p1327
g4
sVcookies
p1328
(lp1329
sVstatusText
p1330
VOK
p1331
sVcontent
p1332
(dp1333
VmimeType
p1334
Vimage/gif
p1335
sVcomment
p1336
g4
sVsize
p1337
I0
ssVheaders
p1338
(lp1339
sVheadersSize
p1340
I826
sVredirectURL
p1341
g4
sVbodySize
p1342
I37
sVhttpVersion
p1343
VHTTP/1.1
p1344
ssa(dp1345
Vcomment
p1346
g4
sVserverIPAddress
p1347
V216.58.216.196
p1348
sVpageref
p1349
VPokemon Go
p1350
sVstartedDateTime
p1351
V2017-04-16T07:57:55.729-05:00
p1352
sVcache
p1353
(dp1354
sVrequest
p1355
(dp1356
Vcomment
p1357
g4
sVcookies
p1358
(lp1359
sVurl
p1360
Vhttps://www.google.com/xjs/_/js/k=xjs.qs.en_US.pCBXVCvTH3s.O/m=pz,syi2,syi5,syi4,fpv,sy48,sy3a,sy3c,sy5b,sy4x,sy4z,sy56,sy4y,sy5d,sy8e,sya8,sy5e,sy91,sya6,sya7,sya9,amp,sp/am=gCP4LtMEBXQA2RUaq_oFBISzAFA/rt=j/d=0/t=zcms/rs=ACT90oFwm4NZCwIcuuiqmthdlECdBzkhRA
p1361
sVqueryString
p1362
(lp1363
sVheaders
p1364
(lp1365
sVheadersSize
p1366
I773
sVbodySize
p1367
I0
sVmethod
p1368
VGET
p1369
sVhttpVersion
p1370
VHTTP/1.1
p1371
ssVtimings
p1372
(dp1373
Vcomment
p1374
g4
sVreceive
p1375
I4
sVsend
p1376
I0
sVssl
p1377
I-1
sVconnect
p1378
I-1
sVdns
p1379
I-1
sVwait
p1380
I130
sVblocked
p1381
I-1
ssVtime
p1382
I135
sVresponse
p1383
(dp1384
Vstatus
p1385
I200
sVcomment
p1386
g4
sVcookies
p1387
(lp1388
sVstatusText
p1389
VOK
p1390
sVcontent
p1391
(dp1392
VmimeType
p1393
Vtext/javascript; charset=UTF-8
p1394
sVcomment
p1395
g4
sVsize
p1396
I0
ssVheaders
p1397
(lp1398
sVheadersSize
p1399
I464
sVredirectURL
p1400
g4
sVbodySize
p1401
I56161
sVhttpVersion
p1402
VHTTP/1.1
p1403
ssa(dp1404
Vcomment
p1405
g4
sVserverIPAddress
p1406
V216.58.216.196
p1407
sVpageref
p1408
VPokemon Go
p1409
sVstartedDateTime
p1410
V2017-04-16T07:57:55.903-05:00
p1411
sVcache
p1412
(dp1413
sVrequest
p1414
(dp1415
Vcomment
p1416
g4
sVcookies
p1417
(lp1418
sVurl
p1419
Vhttps://www.google.com/async/log_amp_item_set?vet=10ahUKEwiHpfHIg6nTAhUr3IMKHWj1A5UQooQBCAE..i&ei=UWrzWL2FBcK-jwTKlLWIAw&yv=2&async=num_items:2,_fmt:jspb
p1420
sVqueryString
p1421
(lp1422
(dp1423
Vname
p1424
Vvet
p1425
sVvalue
p1426
V10ahUKEwiHpfHIg6nTAhUr3IMKHWj1A5UQooQBCAE..i
p1427
sa(dp1428
Vname
p1429
Vei
p1430
sVvalue
p1431
VUWrzWL2FBcK-jwTKlLWIAw
p1432
sa(dp1433
Vname
p1434
Vyv
p1435
sVvalue
p1436
g64
sa(dp1437
Vname
p1438
Vasync
p1439
sVvalue
p1440
Vnum_items:2,_fmt:jspb
p1441
sasVheaders
p1442
(lp1443
sVheadersSize
p1444
I670
sVbodySize
p1445
I0
sVmethod
p1446
VGET
p1447
sVhttpVersion
p1448
VHTTP/1.1
p1449
ssVtimings
p1450
(dp1451
Vcomment
p1452
g4
sVreceive
p1453
I0
sVsend
p1454
I0
sVssl
p1455
I-1
sVconnect
p1456
I-1
sVdns
p1457
I-1
sVwait
p1458
I44
sVblocked
p1459
I-1
ssVtime
p1460
I44
sVresponse
p1461
(dp1462
Vstatus
p1463
I200
sVcomment
p1464
g4
sVcookies
p1465
(lp1466
sVstatusText
p1467
VOK
p1468
sVcontent
p1469
(dp1470
VmimeType
p1471
Vapplication/json; charset=UTF-8
p1472
sVcomment
p1473
g4
sVsize
p1474
I0
ssVheaders
p1475
(lp1476
sVheadersSize
p1477
I417
sVredirectURL
p1478
g4
sVbodySize
p1479
I141
sVhttpVersion
p1480
VHTTP/1.1
p1481
ssa(dp1482
Vcomment
p1483
g4
sVserverIPAddress
p1484
V216.58.216.196
p1485
sVpageref
p1486
VPokemon Go
p1487
sVstartedDateTime
p1488
V2017-04-16T07:57:56.238-05:00
p1489
sVcache
p1490
(dp1491
sVrequest
p1492
(dp1493
Vcomment
p1494
g4
sVcookies
p1495
(lp1496
sVurl
p1497
Vhttps://www.google.com/gen_204?atyp=i&ct=ampipf&cad=&ampve&ei=UWrzWL2FBcK-jwTKlLWIAw&zx=1492347475906
p1498
sVqueryString
p1499
(lp1500
(dp1501
Vname
p1502
Vatyp
p1503
sVvalue
p1504
g30
sa(dp1505
Vname
p1506
Vct
p1507
sVvalue
p1508
Vampipf
p1509
sa(dp1510
Vname
p1511
Vcad
p1512
sVvalue
p1513
g4
sa(dp1514
Vname
p1515
Vampve
p1516
sVvalue
p1517
g4
sa(dp1518
Vname
p1519
Vei
p1520
sVvalue
p1521
VUWrzWL2FBcK-jwTKlLWIAw
p1522
sa(dp1523
Vname
p1524
Vzx
p1525
sVvalue
p1526
V1492347475906
p1527
sasVheaders
p1528
(lp1529
sVheadersSize
p1530
I618
sVbodySize
p1531
I0
sVmethod
p1532
VGET
p1533
sVhttpVersion
p1534
VHTTP/1.1
p1535
ssVtimings
p1536
(dp1537
Vcomment
p1538
g4
sVreceive
p1539
I0
sVsend
p1540
I0
sVssl
p1541
I-1
sVconnect
p1542
I-1
sVdns
p1543
I-1
sVwait
p1544
I27
sVblocked
p1545
I-1
ssVtime
p1546
I27
sVresponse
p1547
(dp1548
Vstatus
p1549
I204
sVcomment
p1550
g4
sVcookies
p1551
(lp1552
sVstatusText
p1553
VNo Content
p1554
sVcontent
p1555
(dp1556
VmimeType
p1557
Vtext/html; charset=UTF-8
p1558
sVcomment
p1559
g4
sVsize
p1560
I0
ssVheaders
p1561
(lp1562
sVheadersSize
p1563
I248
sVredirectURL
p1564
g4
sVbodySize
p1565
I0
sVhttpVersion
p1566
VHTTP/1.1
p1567
ssa(dp1568
Vcomment
p1569
g4
sVserverIPAddress
p1570
V216.58.216.206
p1571
sVpageref
p1572
VPokemon Go
p1573
sVstartedDateTime
p1574
V2017-04-16T07:57:56.251-05:00
p1575
sVcache
p1576
(dp1577
sVrequest
p1578
(dp1579
Vcomment
p1580
g4
sVcookies
p1581
(lp1582
sVurl
p1583
Vhttps://encrypted-tbn0.gstatic.com/images?q=tbn:ANd9GcSRsvoTBz7Lqyb0Z6QIkUqUAsluma78WkeKSl9v4pMSzXFTrpVLRsWAYq_QprYE_TJqsqc
p1584
sVqueryString
p1585
(lp1586
(dp1587
Vname
p1588
g415
sVvalue
p1589
Vtbn:ANd9GcSRsvoTBz7Lqyb0Z6QIkUqUAsluma78WkeKSl9v4pMSzXFTrpVLRsWAYq_QprYE_TJqsqc
p1590
sasVheaders
p1591
(lp1592
sVheadersSize
p1593
I438
sVbodySize
p1594
I0
sVmethod
p1595
VGET
p1596
sVhttpVersion
p1597
VHTTP/1.1
p1598
ssVtimings
p1599
(dp1600
Vcomment
p1601
g4
sVreceive
p1602
I0
sVsend
p1603
I0
sVssl
p1604
I805
sVconnect
p1605
I825
sVdns
p1606
I1
sVwait
p1607
I12
sVblocked
p1608
I0
ssVtime
p1609
I840
sVresponse
p1610
(dp1611
Vstatus
p1612
I200
sVcomment
p1613
g4
sVcookies
p1614
(lp1615
sVstatusText
p1616
VOK
p1617
sVcontent
p1618
(dp1619
VmimeType
p1620
Vimage/jpeg
p1621
sVcomment
p1622
g4
sVsize
p1623
I0
ssVheaders
p1624
(lp1625
sVheadersSize
p1626
I428
sVredirectURL
p1627
g4
sVbodySize
p1628
I2846
sVhttpVersion
p1629
VHTTP/1.1
p1630
ssa(dp1631
Vcomment
p1632
g4
sVserverIPAddress
p1633
V216.58.216.206
p1634
sVpageref
p1635
VPokemon Go
p1636
sVstartedDateTime
p1637
V2017-04-16T07:57:56.254-05:00
p1638
sVcache
p1639
(dp1640
sVrequest
p1641
(dp1642
Vcomment
p1643
g4
sVcookies
p1644
(lp1645
sVurl
p1646
Vhttps://encrypted-tbn0.gstatic.com/images?q=tbn:ANd9GcRWA2xUcb2ooPrS9d9ojYOP1FGzxc_x7cuaq3t0aksVW2i-y-5qReo8H36XVU_e8P1GZ0g
p1647
sVqueryString
p1648
(lp1649
(dp1650
Vname
p1651
g415
sVvalue
p1652
Vtbn:ANd9GcRWA2xUcb2ooPrS9d9ojYOP1FGzxc_x7cuaq3t0aksVW2i-y-5qReo8H36XVU_e8P1GZ0g
p1653
sasVheaders
p1654
(lp1655
sVheadersSize
p1656
I438
sVbodySize
p1657
I0
sVmethod
p1658
VGET
p1659
sVhttpVersion
p1660
VHTTP/1.1
p1661
ssVtimings
p1662
(dp1663
Vcomment
p1664
g4
sVreceive
p1665
I0
sVsend
p1666
I0
sVssl
p1667
I808
sVconnect
p1668
I826
sVdns
p1669
I0
sVwait
p1670
I17
sVblocked
p1671
I0
ssVtime
p1672
I845
sVresponse
p1673
(dp1674
Vstatus
p1675
I200
sVcomment
p1676
g4
sVcookies
p1677
(lp1678
sVstatusText
p1679
VOK
p1680
sVcontent
p1681
(dp1682
VmimeType
p1683
Vimage/jpeg
p1684
sVcomment
p1685
g4
sVsize
p1686
I0
ssVheaders
p1687
(lp1688
sVheadersSize
p1689
I407
sVredirectURL
p1690
g4
sVbodySize
p1691
I2758
sVhttpVersion
p1692
VHTTP/1.1
p1693
ssa(dp1694
Vcomment
p1695
g4
sVserverIPAddress
p1696
V216.58.216.193
p1697
sVpageref
p1698
VPokemon Go
p1699
sVstartedDateTime
p1700
V2017-04-16T07:57:56.555-05:00
p1701
sVcache
p1702
(dp1703
sVrequest
p1704
(dp1705
Vcomment
p1706
g4
sVcookies
p1707
(lp1708
sVurl
p1709
Vhttps://amp-androidcentral-com.cdn.ampproject.org/v/amp.androidcentral.com/pok-mon-go-legendary-event-may-finally-be-coming-july?amp_js_v=9
p1710
sVqueryString
p1711
(lp1712
(dp1713
Vname
p1714
Vamp_js_v
p1715
sVvalue
p1716
V9
p1717
sasVheaders
p1718
(lp1719
sVheadersSize
p1720
I544
sVbodySize
p1721
I0
sVmethod
p1722
VGET
p1723
sVhttpVersion
p1724
VHTTP/1.1
p1725
ssVtimings
p1726
(dp1727
Vcomment
p1728
g4
sVreceive
p1729
I3
sVsend
p1730
I0
sVssl
p1731
I621
sVconnect
p1732
I643
sVdns
p1733
I1
sVwait
p1734
I23
sVblocked
p1735
I0
ssVtime
p1736
I671
sVresponse
p1737
(dp1738
Vstatus
p1739
I200
sVcomment
p1740
g4
sVcookies
p1741
(lp1742
sVstatusText
p1743
VOK
p1744
sVcontent
p1745
(dp1746
VmimeType
p1747
Vtext/html
p1748
sVcomment
p1749
g4
sVsize
p1750
I0
ssVheaders
p1751
(lp1752
sVheadersSize
p1753
I860
sVredirectURL
p1754
g4
sVbodySize
p1755
I13566
sVhttpVersion
p1756
VHTTP/1.1
p1757
ssa(dp1758
Vcomment
p1759
g4
sVserverIPAddress
p1760
V216.58.216.193
p1761
sVpageref
p1762
VPokemon Go
p1763
sVstartedDateTime
p1764
V2017-04-16T07:57:56.598-05:00
p1765
sVcache
p1766
(dp1767
sVrequest
p1768
(dp1769
Vcomment
p1770
g4
sVcookies
p1771
(lp1772
sVurl
p1773
Vhttps://cdn.ampproject.org/rtv/011492014732688/v0/amp-form-0.1.js
p1774
sVqueryString
p1775
(lp1776
sVheaders
p1777
(lp1778
sVheadersSize
p1779
I496
sVbodySize
p1780
I0
sVmethod
p1781
VGET
p1782
sVhttpVersion
p1783
VHTTP/1.1
p1784
ssVtimings
p1785
(dp1786
Vcomment
p1787
g4
sVreceive
p1788
I2
sVsend
p1789
I0
sVssl
p1790
I-1
sVconnect
p1791
I-1
sVdns
p1792
I-1
sVwait
p1793
I14
sVblocked
p1794
I-1
ssVtime
p1795
I16
sVresponse
p1796
(dp1797
Vstatus
p1798
I200
sVcomment
p1799
g4
sVcookies
p1800
(lp1801
sVstatusText
p1802
VOK
p1803
sVcontent
p1804
(dp1805
VmimeType
p1806
Vtext/javascript
p1807
sVcomment
p1808
g4
sVsize
p1809
I0
ssVheaders
p1810
(lp1811
sVheadersSize
p1812
I1165
sVredirectURL
p1813
g4
sVbodySize
p1814
I9116
sVhttpVersion
p1815
VHTTP/1.1
p1816
ssa(dp1817
Vcomment
p1818
g4
sVserverIPAddress
p1819
V216.58.216.193
p1820
sVpageref
p1821
VPokemon Go
p1822
sVstartedDateTime
p1823
V2017-04-16T07:57:56.598-05:00
p1824
sVcache
p1825
(dp1826
sVrequest
p1827
(dp1828
Vcomment
p1829
g4
sVcookies
p1830
(lp1831
sVurl
p1832
Vhttps://cdn.ampproject.org/rtv/011492014732688/v0/amp-lightbox-0.1.js
p1833
sVqueryString
p1834
(lp1835
sVheaders
p1836
(lp1837
sVheadersSize
p1838
I500
sVbodySize
p1839
I0
sVmethod
p1840
VGET
p1841
sVhttpVersion
p1842
VHTTP/1.1
p1843
ssVtimings
p1844
(dp1845
Vcomment
p1846
g4
sVreceive
p1847
I3
sVsend
p1848
I0
sVssl
p1849
I-1
sVconnect
p1850
I-1
sVdns
p1851
I-1
sVwait
p1852
I19
sVblocked
p1853
I-1
ssVtime
p1854
I23
sVresponse
p1855
(dp1856
Vstatus
p1857
I200
sVcomment
p1858
g4
sVcookies
p1859
(lp1860
sVstatusText
p1861
VOK
p1862
sVcontent
p1863
(dp1864
VmimeType
p1865
Vtext/javascript
p1866
sVcomment
p1867
g4
sVsize
p1868
I0
ssVheaders
p1869
(lp1870
sVheadersSize
p1871
I1164
sVredirectURL
p1872
g4
sVbodySize
p1873
I4658
sVhttpVersion
p1874
VHTTP/1.1
p1875
ssa(dp1876
Vcomment
p1877
g4
sVserverIPAddress
p1878
V216.58.216.193
p1879
sVpageref
p1880
VPokemon Go
p1881
sVstartedDateTime
p1882
V2017-04-16T07:57:56.600-05:00
p1883
sVcache
p1884
(dp1885
sVrequest
p1886
(dp1887
Vcomment
p1888
g4
sVcookies
p1889
(lp1890
sVurl
p1891
Vhttps://cdn.ampproject.org/rtv/011492014732688/v0/amp-social-share-0.1.js
p1892
sVqueryString
p1893
(lp1894
sVheaders
p1895
(lp1896
sVheadersSize
p1897
I504
sVbodySize
p1898
I0
sVmethod
p1899
VGET
p1900
sVhttpVersion
p1901
VHTTP/1.1
p1902
ssVtimings
p1903
(dp1904
Vcomment
p1905
g4
sVreceive
p1906
I3
sVsend
p1907
I0
sVssl
p1908
I-1
sVconnect
p1909
I-1
sVdns
p1910
I-1
sVwait
p1911
I15
sVblocked
p1912
I-1
ssVtime
p1913
I19
sVresponse
p1914
(dp1915
Vstatus
p1916
I200
sVcomment
p1917
g4
sVcookies
p1918
(lp1919
sVstatusText
p1920
VOK
p1921
sVcontent
p1922
(dp1923
VmimeType
p1924
Vtext/javascript
p1925
sVcomment
p1926
g4
sVsize
p1927
I0
ssVheaders
p1928
(lp1929
sVheadersSize
p1930
I1165
sVredirectURL
p1931
g4
sVbodySize
p1932
I6284
sVhttpVersion
p1933
VHTTP/1.1
p1934
ssa(dp1935
Vcomment
p1936
g4
sVserverIPAddress
p1937
V216.58.216.196
p1938
sVpageref
p1939
VPokemon Go
p1940
sVstartedDateTime
p1941
V2017-04-16T07:57:56.849-05:00
p1942
sVcache
p1943
(dp1944
sVrequest
p1945
(dp1946
Vcomment
p1947
g4
sVcookies
p1948
(lp1949
sVurl
p1950
Vhttps://www.google.com/gen_204?s=amp&atyp=csi&ei=UWrzWL2FBcK-jwTKlLWIAw&ampexp=011492014732688&action=Prerender&rt=msr.194,is.739,mbv.857,e_is.857,pc.1
p1951
sVqueryString
p1952
(lp1953
(dp1954
Vname
p1955
g57
sVvalue
p1956
Vamp
p1957
sa(dp1958
Vname
p1959
Vatyp
p1960
sVvalue
p1961
Vcsi
p1962
sa(dp1963
Vname
p1964
Vei
p1965
sVvalue
p1966
VUWrzWL2FBcK-jwTKlLWIAw
p1967
sa(dp1968
Vname
p1969
Vampexp
p1970
sVvalue
p1971
V011492014732688
p1972
sa(dp1973
Vname
p1974
Vaction
p1975
sVvalue
p1976
VPrerender
p1977
sa(dp1978
Vname
p1979
Vrt
p1980
sVvalue
p1981
Vmsr.194,is.739,mbv.857,e_is.857,pc.1
p1982
sasVheaders
p1983
(lp1984
sVheadersSize
p1985
I668
sVbodySize
p1986
I0
sVmethod
p1987
VGET
p1988
sVhttpVersion
p1989
VHTTP/1.1
p1990
ssVtimings
p1991
(dp1992
Vcomment
p1993
g4
sVreceive
p1994
I0
sVsend
p1995
I0
sVssl
p1996
I-1
sVconnect
p1997
I-1
sVdns
p1998
I-1
sVwait
p1999
I26
sVblocked
p2000
I-1
ssVtime
p2001
I27
sVresponse
p2002
(dp2003
Vstatus
p2004
I204
sVcomment
p2005
g4
sVcookies
p2006
(lp2007
sVstatusText
p2008
VNo Content
p2009
sVcontent
p2010
(dp2011
VmimeType
p2012
Vtext/html; charset=UTF-8
p2013
sVcomment
p2014
g4
sVsize
p2015
I0
ssVheaders
p2016
(lp2017
sVheadersSize
p2018
I248
sVredirectURL
p2019
g4
sVbodySize
p2020
I0
sVhttpVersion
p2021
VHTTP/1.1
p2022
ssa(dp2023
Vcomment
p2024
g4
sVserverIPAddress
p2025
V198.232.125.123
p2026
sVpageref
p2027
VPokemon Go
p2028
sVstartedDateTime
p2029
V2017-04-16T07:57:57.042-05:00
p2030
sVcache
p2031
(dp2032
sVrequest
p2033
(dp2034
Vcomment
p2035
g4
sVcookies
p2036
(lp2037
sVurl
p2038
Vhttps://maxcdn.bootstrapcdn.com/font-awesome/4.6.3/css/font-awesome.min.css
p2039
sVqueryString
p2040
(lp2041
sVheaders
p2042
(lp2043
sVheadersSize
p2044
I521
sVbodySize
p2045
I0
sVmethod
p2046
VGET
p2047
sVhttpVersion
p2048
VHTTP/1.1
p2049
ssVtimings
p2050
(dp2051
Vcomment
p2052
g4
sVreceive
p2053
I1
sVsend
p2054
I0
sVssl
p2055
I395
sVconnect
p2056
I409
sVdns
p2057
I28
sVwait
p2058
I25
sVblocked
p2059
I0
ssVtime
p2060
I465
sVresponse
p2061
(dp2062
Vstatus
p2063
I200
sVcomment
p2064
g4
sVcookies
p2065
(lp2066
sVstatusText
p2067
VOK
p2068
sVcontent
p2069
(dp2070
VmimeType
p2071
Vtext/css
p2072
sVcomment
p2073
g4
sVsize
p2074
I0
ssVheaders
p2075
(lp2076
sVheadersSize
p2077
I467
sVredirectURL
p2078
g4
sVbodySize
p2079
I29063
sVhttpVersion
p2080
VHTTP/1.1
p2081
ssa(dp2082
Vcomment
p2083
g4
sVserverIPAddress
p2084
V216.58.216.193
p2085
sVpageref
p2086
VPokemon Go
p2087
sVstartedDateTime
p2088
V2017-04-16T07:57:57.071-05:00
p2089
sVcache
p2090
(dp2091
sVrequest
p2092
(dp2093
Vcomment
p2094
g4
sVcookies
p2095
(lp2096
sVurl
p2097
Vhttps://amp-androidcentral-com.cdn.ampproject.org/i/amp.androidcentral.com/sites/all/modules/visor_header/images/logo-ac.png
p2098
sVqueryString
p2099
(lp2100
sVheaders
p2101
(lp2102
sVheadersSize
p2103
I555
sVbodySize
p2104
I0
sVmethod
p2105
VGET
p2106
sVhttpVersion
p2107
VHTTP/1.1
p2108
ssVtimings
p2109
(dp2110
Vcomment
p2111
g4
sVreceive
p2112
I1
sVsend
p2113
I0
sVssl
p2114
I-1
sVconnect
p2115
I-1
sVdns
p2116
I-1
sVwait
p2117
I24
sVblocked
p2118
I-1
ssVtime
p2119
I26
sVresponse
p2120
(dp2121
Vstatus
p2122
I200
sVcomment
p2123
g4
sVcookies
p2124
(lp2125
sVstatusText
p2126
VOK
p2127
sVcontent
p2128
(dp2129
VmimeType
p2130
Vimage/png
p2131
sVcomment
p2132
g4
sVsize
p2133
I0
ssVheaders
p2134
(lp2135
sVheadersSize
p2136
I823
sVredirectURL
p2137
g4
sVbodySize
p2138
I1873
sVhttpVersion
p2139
VHTTP/1.1
p2140
ssa(dp2141
Vcomment
p2142
g4
sVserverIPAddress
p2143
V216.58.216.193
p2144
sVpageref
p2145
VPokemon Go
p2146
sVstartedDateTime
p2147
V2017-04-16T07:57:57.098-05:00
p2148
sVcache
p2149
(dp2150
sVrequest
p2151
(dp2152
Vcomment
p2153
g4
sVcookies
p2154
(lp2155
sVurl
p2156
Vhttps://amp-androidcentral-com.cdn.ampproject.org/i/amp.androidcentral.com/sites/all/modules/visor_header/images/logo-vr-burger.png
p2157
sVqueryString
p2158
(lp2159
sVheaders
p2160
(lp2161
sVheadersSize
p2162
I562
sVbodySize
p2163
I0
sVmethod
p2164
VGET
p2165
sVhttpVersion
p2166
VHTTP/1.1
p2167
ssVtimings
p2168
(dp2169
Vcomment
p2170
g4
sVreceive
p2171
I0
sVsend
p2172
I4
sVssl
p2173
I-1
sVconnect
p2174
I-1
sVdns
p2175
I-1
sVwait
p2176
I29
sVblocked
p2177
I-1
ssVtime
p2178
I34
sVresponse
p2179
(dp2180
Vstatus
p2181
I200
sVcomment
p2182
g4
sVcookies
p2183
(lp2184
sVstatusText
p2185
VOK
p2186
sVcontent
p2187
(dp2188
VmimeType
p2189
Vimage/png
p2190
sVcomment
p2191
g4
sVsize
p2192
I0
ssVheaders
p2193
(lp2194
sVheadersSize
p2195
I822
sVredirectURL
p2196
g4
sVbodySize
p2197
I440
sVhttpVersion
p2198
VHTTP/1.1
p2199
ssa(dp2200
Vcomment
p2201
g4
sVserverIPAddress
p2202
V216.58.216.193
p2203
sVpageref
p2204
VPokemon Go
p2205
sVstartedDateTime
p2206
V2017-04-16T07:57:57.116-05:00
p2207
sVcache
p2208
(dp2209
sVrequest
p2210
(dp2211
Vcomment
p2212
g4
sVcookies
p2213
(lp2214
sVurl
p2215
Vhttps://amp-androidcentral-com.cdn.ampproject.org/i/amp.androidcentral.com/sites/all/modules/visor_header/images/logo-im-burger.png
p2216
sVqueryString
p2217
(lp2218
sVheaders
p2219
(lp2220
sVheadersSize
p2221
I562
sVbodySize
p2222
I0
sVmethod
p2223
VGET
p2224
sVhttpVersion
p2225
VHTTP/1.1
p2226
ssVtimings
p2227
(dp2228
Vcomment
p2229
g4
sVreceive
p2230
I0
sVsend
p2231
I0
sVssl
p2232
I21
sVconnect
p2233
I39
sVdns
p2234
I0
sVwait
p2235
I29
sVblocked
p2236
I0
ssVtime
p2237
I68
sVresponse
p2238
(dp2239
Vstatus
p2240
I200
sVcomment
p2241
g4
sVcookies
p2242
(lp2243
sVstatusText
p2244
VOK
p2245
sVcontent
p2246
(dp2247
VmimeType
p2248
Vimage/png
p2249
sVcomment
p2250
g4
sVsize
p2251
I0
ssVheaders
p2252
(lp2253
sVheadersSize
p2254
I823
sVredirectURL
p2255
g4
sVbodySize
p2256
I1053
sVhttpVersion
p2257
VHTTP/1.1
p2258
ssa(dp2259
Vcomment
p2260
g4
sVserverIPAddress
p2261
V216.58.216.193
p2262
sVpageref
p2263
VPokemon Go
p2264
sVstartedDateTime
p2265
V2017-04-16T07:57:57.120-05:00
p2266
sVcache
p2267
(dp2268
sVrequest
p2269
(dp2270
Vcomment
p2271
g4
sVcookies
p2272
(lp2273
sVurl
p2274
Vhttps://amp-androidcentral-com.cdn.ampproject.org/i/amp.androidcentral.com/sites/all/modules/visor_header/images/logo-tc-burger.png
p2275
sVqueryString
p2276
(lp2277
sVheaders
p2278
(lp2279
sVheadersSize
p2280
I562
sVbodySize
p2281
I0
sVmethod
p2282
VGET
p2283
sVhttpVersion
p2284
VHTTP/1.1
p2285
ssVtimings
p2286
(dp2287
Vcomment
p2288
g4
sVreceive
p2289
I0
sVsend
p2290
I0
sVssl
p2291
I21
sVconnect
p2292
I42
sVdns
p2293
I0
sVwait
p2294
I73
sVblocked
p2295
I0
ssVtime
p2296
I116
sVresponse
p2297
(dp2298
Vstatus
p2299
I200
sVcomment
p2300
g4
sVcookies
p2301
(lp2302
sVstatusText
p2303
VOK
p2304
sVcontent
p2305
(dp2306
VmimeType
p2307
Vimage/png
p2308
sVcomment
p2309
g4
sVsize
p2310
I0
ssVheaders
p2311
(lp2312
sVheadersSize
p2313
I822
sVredirectURL
p2314
g4
sVbodySize
p2315
I532
sVhttpVersion
p2316
VHTTP/1.1
p2317
ssa(dp2318
Vcomment
p2319
g4
sVserverIPAddress
p2320
V216.58.216.193
p2321
sVpageref
p2322
VPokemon Go
p2323
sVstartedDateTime
p2324
V2017-04-16T07:57:57.122-05:00
p2325
sVcache
p2326
(dp2327
sVrequest
p2328
(dp2329
Vcomment
p2330
g4
sVcookies
p2331
(lp2332
sVurl
p2333
Vhttps://amp-androidcentral-com.cdn.ampproject.org/i/amp.androidcentral.com/sites/all/modules/visor_header/images/logo-wc-burger.png
p2334
sVqueryString
p2335
(lp2336
sVheaders
p2337
(lp2338
sVheadersSize
p2339
I562
sVbodySize
p2340
I0
sVmethod
p2341
VGET
p2342
sVhttpVersion
p2343
VHTTP/1.1
p2344
ssVtimings
p2345
(dp2346
Vcomment
p2347
g4
sVreceive
p2348
I0
sVsend
p2349
I0
sVssl
p2350
I24
sVconnect
p2351
I47
sVdns
p2352
I0
sVwait
p2353
I70
sVblocked
p2354
I0
ssVtime
p2355
I118
sVresponse
p2356
(dp2357
Vstatus
p2358
I200
sVcomment
p2359
g4
sVcookies
p2360
(lp2361
sVstatusText
p2362
VOK
p2363
sVcontent
p2364
(dp2365
VmimeType
p2366
Vimage/png
p2367
sVcomment
p2368
g4
sVsize
p2369
I0
ssVheaders
p2370
(lp2371
sVheadersSize
p2372
I822
sVredirectURL
p2373
g4
sVbodySize
p2374
I358
sVhttpVersion
p2375
VHTTP/1.1
p2376
ssa(dp2377
Vcomment
p2378
g4
sVserverIPAddress
p2379
V216.58.216.193
p2380
sVpageref
p2381
VPokemon Go
p2382
sVstartedDateTime
p2383
V2017-04-16T07:57:57.134-05:00
p2384
sVcache
p2385
(dp2386
sVrequest
p2387
(dp2388
Vcomment
p2389
g4
sVcookies
p2390
(lp2391
sVurl
p2392
Vhttps://amp-androidcentral-com.cdn.ampproject.org/i/amp.androidcentral.com/sites/all/modules/visor_header/images/logo-mm-burger.png
p2393
sVqueryString
p2394
(lp2395
sVheaders
p2396
(lp2397
sVheadersSize
p2398
I562
sVbodySize
p2399
I0
sVmethod
p2400
VGET
p2401
sVhttpVersion
p2402
VHTTP/1.1
p2403
ssVtimings
p2404
(dp2405
Vcomment
p2406
g4
sVreceive
p2407
I0
sVsend
p2408
I0
sVssl
p2409
I-1
sVconnect
p2410
I-1
sVdns
p2411
I-1
sVwait
p2412
I61
sVblocked
p2413
I-1
ssVtime
p2414
I61
sVresponse
p2415
(dp2416
Vstatus
p2417
I200
sVcomment
p2418
g4
sVcookies
p2419
(lp2420
sVstatusText
p2421
VOK
p2422
sVcontent
p2423
(dp2424
VmimeType
p2425
Vimage/png
p2426
sVcomment
p2427
g4
sVsize
p2428
I0
ssVheaders
p2429
(lp2430
sVheadersSize
p2431
I822
sVredirectURL
p2432
g4
sVbodySize
p2433
I406
sVhttpVersion
p2434
VHTTP/1.1
p2435
ssa(dp2436
Vcomment
p2437
g4
sVserverIPAddress
p2438
V216.58.216.193
p2439
sVpageref
p2440
VPokemon Go
p2441
sVstartedDateTime
p2442
V2017-04-16T07:57:57.136-05:00
p2443
sVcache
p2444
(dp2445
sVrequest
p2446
(dp2447
Vcomment
p2448
g4
sVcookies
p2449
(lp2450
sVurl
p2451
Vhttps://amp-androidcentral-com.cdn.ampproject.org/i/amp.androidcentral.com/sites/all/modules/visor_header/images/logo-cb-burger.png
p2452
sVqueryString
p2453
(lp2454
sVheaders
p2455
(lp2456
sVheadersSize
p2457
I562
sVbodySize
p2458
I0
sVmethod
p2459
VGET
p2460
sVhttpVersion
p2461
VHTTP/1.1
p2462
ssVtimings
p2463
(dp2464
Vcomment
p2465
g4
sVreceive
p2466
I0
sVsend
p2467
I0
sVssl
p2468
I37
sVconnect
p2469
I59
sVdns
p2470
I0
sVwait
p2471
I57
sVblocked
p2472
I0
ssVtime
p2473
I117
sVresponse
p2474
(dp2475
Vstatus
p2476
I200
sVcomment
p2477
g4
sVcookies
p2478
(lp2479
sVstatusText
p2480
VOK
p2481
sVcontent
p2482
(dp2483
VmimeType
p2484
Vimage/png
p2485
sVcomment
p2486
g4
sVsize
p2487
I0
ssVheaders
p2488
(lp2489
sVheadersSize
p2490
I822
sVredirectURL
p2491
g4
sVbodySize
p2492
I564
sVhttpVersion
p2493
VHTTP/1.1
p2494
ssa(dp2495
Vcomment
p2496
g4
sVserverIPAddress
p2497
V216.58.216.193
p2498
sVpageref
p2499
VPokemon Go
p2500
sVstartedDateTime
p2501
V2017-04-16T07:57:57.136-05:00
p2502
sVcache
p2503
(dp2504
sVrequest
p2505
(dp2506
Vcomment
p2507
g4
sVcookies
p2508
(lp2509
sVurl
p2510
Vhttps://amp-androidcentral-com.cdn.ampproject.org/i/amp.androidcentral.com/sites/all/modules/visor_header/images/logo-cy-burger.png
p2511
sVqueryString
p2512
(lp2513
sVheaders
p2514
(lp2515
sVheadersSize
p2516
I562
sVbodySize
p2517
I0
sVmethod
p2518
VGET
p2519
sVhttpVersion
p2520
VHTTP/1.1
p2521
ssVtimings
p2522
(dp2523
Vcomment
p2524
g4
sVreceive
p2525
I0
sVsend
p2526
I0
sVssl
p2527
I33
sVconnect
p2528
I58
sVdns
p2529
I0
sVwait
p2530
I58
sVblocked
p2531
I0
ssVtime
p2532
I117
sVresponse
p2533
(dp2534
Vstatus
p2535
I200
sVcomment
p2536
g4
sVcookies
p2537
(lp2538
sVstatusText
p2539
VOK
p2540
sVcontent
p2541
(dp2542
VmimeType
p2543
Vimage/png
p2544
sVcomment
p2545
g4
sVsize
p2546
I0
ssVheaders
p2547
(lp2548
sVheadersSize
p2549
I822
sVredirectURL
p2550
g4
sVbodySize
p2551
I494
sVhttpVersion
p2552
VHTTP/1.1
p2553
ssa(dp2554
Vcomment
p2555
g4
sVserverIPAddress
p2556
V216.58.216.193
p2557
sVpageref
p2558
VPokemon Go
p2559
sVstartedDateTime
p2560
V2017-04-16T07:57:57.146-05:00
p2561
sVcache
p2562
(dp2563
sVrequest
p2564
(dp2565
Vcomment
p2566
g4
sVcookies
p2567
(lp2568
sVurl
p2569
Vhttps://amp-androidcentral-com.cdn.ampproject.org/i/amp.androidcentral.com/sites/all/modules/mbn_common/images/mbn-logo-footer.png
p2570
sVqueryString
p2571
(lp2572
sVheaders
p2573
(lp2574
sVheadersSize
p2575
I561
sVbodySize
p2576
I0
sVmethod
p2577
VGET
p2578
sVhttpVersion
p2579
VHTTP/1.1
p2580
ssVtimings
p2581
(dp2582
Vcomment
p2583
g4
sVreceive
p2584
I1
sVsend
p2585
I0
sVssl
p2586
I-1
sVconnect
p2587
I-1
sVdns
p2588
I-1
sVwait
p2589
I45
sVblocked
p2590
I-1
ssVtime
p2591
I47
sVresponse
p2592
(dp2593
Vstatus
p2594
I200
sVcomment
p2595
g4
sVcookies
p2596
(lp2597
sVstatusText
p2598
VOK
p2599
sVcontent
p2600
(dp2601
VmimeType
p2602
Vimage/png
p2603
sVcomment
p2604
g4
sVsize
p2605
I0
ssVheaders
p2606
(lp2607
sVheadersSize
p2608
I823
sVredirectURL
p2609
g4
sVbodySize
p2610
I1360
sVhttpVersion
p2611
VHTTP/1.1
p2612
ssa(dp2613
Vcomment
p2614
g4
sVserverIPAddress
p2615
V216.58.216.193
p2616
sVpageref
p2617
VPokemon Go
p2618
sVstartedDateTime
p2619
V2017-04-16T07:57:57.194-05:00
p2620
sVcache
p2621
(dp2622
sVrequest
p2623
(dp2624
Vcomment
p2625
g4
sVcookies
p2626
(lp2627
sVurl
p2628
Vhttps://amp-androidcentral-com.cdn.ampproject.org/i/amp.androidcentral.com/sites/all/modules/mbn_common/images/purch-logo.png
p2629
sVqueryString
p2630
(lp2631
sVheaders
p2632
(lp2633
sVheadersSize
p2634
I556
sVbodySize
p2635
I0
sVmethod
p2636
VGET
p2637
sVhttpVersion
p2638
VHTTP/1.1
p2639
ssVtimings
p2640
(dp2641
Vcomment
p2642
g4
sVreceive
p2643
I0
sVsend
p2644
I0
sVssl
p2645
I-1
sVconnect
p2646
I-1
sVdns
p2647
I-1
sVwait
p2648
I27
sVblocked
p2649
I-1
ssVtime
p2650
I27
sVresponse
p2651
(dp2652
Vstatus
p2653
I200
sVcomment
p2654
g4
sVcookies
p2655
(lp2656
sVstatusText
p2657
VOK
p2658
sVcontent
p2659
(dp2660
VmimeType
p2661
Vimage/png
p2662
sVcomment
p2663
g4
sVsize
p2664
I0
ssVheaders
p2665
(lp2666
sVheadersSize
p2667
I822
sVredirectURL
p2668
g4
sVbodySize
p2669
I541
sVhttpVersion
p2670
VHTTP/1.1
p2671
ssa(dp2672
Vcomment
p2673
g4
sVserverIPAddress
p2674
V216.58.216.193
p2675
sVpageref
p2676
VPokemon Go
p2677
sVstartedDateTime
p2678
V2017-04-16T07:57:57.194-05:00
p2679
sVcache
p2680
(dp2681
sVrequest
p2682
(dp2683
Vcomment
p2684
g4
sVcookies
p2685
(lp2686
sVurl
p2687
Vhttps://amp-androidcentral-com.cdn.ampproject.org/r/amp.androidcentral.com/sites/all/fonts/ac_iconset.woff
p2688
sVqueryString
p2689
(lp2690
sVheaders
p2691
(lp2692
sVheadersSize
p2693
I591
sVbodySize
p2694
I0
sVmethod
p2695
VGET
p2696
sVhttpVersion
p2697
VHTTP/1.1
p2698
ssVtimings
p2699
(dp2700
Vcomment
p2701
g4
sVreceive
p2702
I2
sVsend
p2703
I0
sVssl
p2704
I-1
sVconnect
p2705
I-1
sVdns
p2706
I-1
sVwait
p2707
I33
sVblocked
p2708
I-1
ssVtime
p2709
I35
sVresponse
p2710
(dp2711
Vstatus
p2712
I200
sVcomment
p2713
g4
sVcookies
p2714
(lp2715
sVstatusText
p2716
VOK
p2717
sVcontent
p2718
(dp2719
VmimeType
p2720
Vapplication/x-font-woff
p2721
sVcomment
p2722
g4
sVsize
p2723
I0
ssVheaders
p2724
(lp2725
sVheadersSize
p2726
I870
sVredirectURL
p2727
g4
sVbodySize
p2728
I13512
sVhttpVersion
p2729
VHTTP/1.1
p2730
ssa(dp2731
Vcomment
p2732
g4
sVserverIPAddress
p2733
V216.58.216.193
p2734
sVpageref
p2735
VPokemon Go
p2736
sVstartedDateTime
p2737
V2017-04-16T07:57:57.195-05:00
p2738
sVcache
p2739
(dp2740
sVrequest
p2741
(dp2742
Vcomment
p2743
g4
sVcookies
p2744
(lp2745
sVurl
p2746
Vhttps://amp-androidcentral-com.cdn.ampproject.org/r/amp.androidcentral.com/sites/all/fonts/proxima_nova_bold-webfont.woff
p2747
sVqueryString
p2748
(lp2749
sVheaders
p2750
(lp2751
sVheadersSize
p2752
I606
sVbodySize
p2753
I0
sVmethod
p2754
VGET
p2755
sVhttpVersion
p2756
VHTTP/1.1
p2757
ssVtimings
p2758
(dp2759
Vcomment
p2760
g4
sVreceive
p2761
I23
sVsend
p2762
I0
sVssl
p2763
I-1
sVconnect
p2764
I-1
sVdns
p2765
I-1
sVwait
p2766
I27
sVblocked
p2767
I-1
ssVtime
p2768
I50
sVresponse
p2769
(dp2770
Vstatus
p2771
I200
sVcomment
p2772
g4
sVcookies
p2773
(lp2774
sVstatusText
p2775
VOK
p2776
sVcontent
p2777
(dp2778
VmimeType
p2779
Vapplication/x-font-woff
p2780
sVcomment
p2781
g4
sVsize
p2782
I0
ssVheaders
p2783
(lp2784
sVheadersSize
p2785
I870
sVredirectURL
p2786
g4
sVbodySize
p2787
I26844
sVhttpVersion
p2788
VHTTP/1.1
p2789
ssa(dp2790
Vcomment
p2791
g4
sVserverIPAddress
p2792
V216.58.216.193
p2793
sVpageref
p2794
VPokemon Go
p2795
sVstartedDateTime
p2796
V2017-04-16T07:57:57.195-05:00
p2797
sVcache
p2798
(dp2799
sVrequest
p2800
(dp2801
Vcomment
p2802
g4
sVcookies
p2803
(lp2804
sVurl
p2805
Vhttps://amp-androidcentral-com.cdn.ampproject.org/r/amp.androidcentral.com/sites/all/fonts/proxima_nova_reg-webfont.woff
p2806
sVqueryString
p2807
(lp2808
sVheaders
p2809
(lp2810
sVheadersSize
p2811
I605
sVbodySize
p2812
I0
sVmethod
p2813
VGET
p2814
sVhttpVersion
p2815
VHTTP/1.1
p2816
ssVtimings
p2817
(dp2818
Vcomment
p2819
g4
sVreceive
p2820
I21
sVsend
p2821
I0
sVssl
p2822
I-1
sVconnect
p2823
I-1
sVdns
p2824
I-1
sVwait
p2825
I24
sVblocked
p2826
I-1
ssVtime
p2827
I46
sVresponse
p2828
(dp2829
Vstatus
p2830
I200
sVcomment
p2831
g4
sVcookies
p2832
(lp2833
sVstatusText
p2834
VOK
p2835
sVcontent
p2836
(dp2837
VmimeType
p2838
Vapplication/x-font-woff
p2839
sVcomment
p2840
g4
sVsize
p2841
I0
ssVheaders
p2842
(lp2843
sVheadersSize
p2844
I870
sVredirectURL
p2845
g4
sVbodySize
p2846
I26636
sVhttpVersion
p2847
VHTTP/1.1
p2848
ssa(dp2849
Vcomment
p2850
g4
sVserverIPAddress
p2851
V216.58.216.193
p2852
sVpageref
p2853
VPokemon Go
p2854
sVstartedDateTime
p2855
V2017-04-16T07:57:57.196-05:00
p2856
sVcache
p2857
(dp2858
sVrequest
p2859
(dp2860
Vcomment
p2861
g4
sVcookies
p2862
(lp2863
sVurl
p2864
Vhttps://amp-androidcentral-com.cdn.ampproject.org/r/amp.androidcentral.com/sites/all/fonts/proxima_nova_sbold-webfont.woff
p2865
sVqueryString
p2866
(lp2867
sVheaders
p2868
(lp2869
sVheadersSize
p2870
I607
sVbodySize
p2871
I0
sVmethod
p2872
VGET
p2873
sVhttpVersion
p2874
VHTTP/1.1
p2875
ssVtimings
p2876
(dp2877
Vcomment
p2878
g4
sVreceive
p2879
I5
sVsend
p2880
I0
sVssl
p2881
I-1
sVconnect
p2882
I-1
sVdns
p2883
I-1
sVwait
p2884
I34
sVblocked
p2885
I-1
ssVtime
p2886
I39
sVresponse
p2887
(dp2888
Vstatus
p2889
I200
sVcomment
p2890
g4
sVcookies
p2891
(lp2892
sVstatusText
p2893
VOK
p2894
sVcontent
p2895
(dp2896
VmimeType
p2897
Vapplication/x-font-woff
p2898
sVcomment
p2899
g4
sVsize
p2900
I0
ssVheaders
p2901
(lp2902
sVheadersSize
p2903
I870
sVredirectURL
p2904
g4
sVbodySize
p2905
I26760
sVhttpVersion
p2906
VHTTP/1.1
p2907
ssa(dp2908
Vcomment
p2909
g4
sVserverIPAddress
p2910
V216.58.216.193
p2911
sVpageref
p2912
VPokemon Go
p2913
sVstartedDateTime
p2914
V2017-04-16T07:57:57.196-05:00
p2915
sVcache
p2916
(dp2917
sVrequest
p2918
(dp2919
Vcomment
p2920
g4
sVcookies
p2921
(lp2922
sVurl
p2923
Vhttps://amp-androidcentral-com.cdn.ampproject.org/r/amp.androidcentral.com/sites/all/fonts/proxima_nova_xbold-webfont.woff
p2924
sVqueryString
p2925
(lp2926
sVheaders
p2927
(lp2928
sVheadersSize
p2929
I607
sVbodySize
p2930
I0
sVmethod
p2931
VGET
p2932
sVhttpVersion
p2933
VHTTP/1.1
p2934
ssVtimings
p2935
(dp2936
Vcomment
p2937
g4
sVreceive
p2938
I28
sVsend
p2939
I0
sVssl
p2940
I-1
sVconnect
p2941
I-1
sVdns
p2942
I-1
sVwait
p2943
I27
sVblocked
p2944
I-1
ssVtime
p2945
I55
sVresponse
p2946
(dp2947
Vstatus
p2948
I200
sVcomment
p2949
g4
sVcookies
p2950
(lp2951
sVstatusText
p2952
VOK
p2953
sVcontent
p2954
(dp2955
VmimeType
p2956
Vapplication/x-font-woff
p2957
sVcomment
p2958
g4
sVsize
p2959
I0
ssVheaders
p2960
(lp2961
sVheadersSize
p2962
I870
sVredirectURL
p2963
g4
sVbodySize
p2964
I26624
sVhttpVersion
p2965
VHTTP/1.1
p2966
ssa(dp2967
Vcomment
p2968
g4
sVserverIPAddress
p2969
V216.58.216.193
p2970
sVpageref
p2971
VPokemon Go
p2972
sVstartedDateTime
p2973
V2017-04-16T07:57:57.224-05:00
p2974
sVcache
p2975
(dp2976
sVrequest
p2977
(dp2978
Vcomment
p2979
g4
sVcookies
p2980
(lp2981
sVurl
p2982
Vhttps://amp-androidcentral-com.cdn.ampproject.org/r/amp.androidcentral.com/sites/all/fonts/Vitesse-Medium.woff
p2983
sVqueryString
p2984
(lp2985
sVheaders
p2986
(lp2987
sVheadersSize
p2988
I595
sVbodySize
p2989
I0
sVmethod
p2990
VGET
p2991
sVhttpVersion
p2992
VHTTP/1.1
p2993
ssVtimings
p2994
(dp2995
Vcomment
p2996
g4
sVreceive
p2997
I28
sVsend
p2998
I0
sVssl
p2999
I-1
sVconnect
p3000
I-1
sVdns
p3001
I-1
sVwait
p3002
I35
sVblocked
p3003
I-1
ssVtime
p3004
I64
sVresponse
p3005
(dp3006
Vstatus
p3007
I200
sVcomment
p3008
g4
sVcookies
p3009
(lp3010
sVstatusText
p3011
VOK
p3012
sVcontent
p3013
(dp3014
VmimeType
p3015
Vapplication/x-font-woff
p3016
sVcomment
p3017
g4
sVsize
p3018
I0
ssVheaders
p3019
(lp3020
sVheadersSize
p3021
I870
sVredirectURL
p3022
g4
sVbodySize
p3023
I47624
sVhttpVersion
p3024
VHTTP/1.1
p3025
ssa(dp3026
Vcomment
p3027
g4
sVserverIPAddress
p3028
V216.58.216.193
p3029
sVpageref
p3030
VPokemon Go
p3031
sVstartedDateTime
p3032
V2017-04-16T07:57:57.232-05:00
p3033
sVcache
p3034
(dp3035
sVrequest
p3036
(dp3037
Vcomment
p3038
g4
sVcookies
p3039
(lp3040
sVurl
p3041
Vhttps://amp-androidcentral-com.cdn.ampproject.org/r/amp.androidcentral.com/sites/all/fonts/Vitesse-Book.woff
p3042
sVqueryString
p3043
(lp3044
sVheaders
p3045
(lp3046
sVheadersSize
p3047
I593
sVbodySize
p3048
I0
sVmethod
p3049
VGET
p3050
sVhttpVersion
p3051
VHTTP/1.1
p3052
ssVtimings
p3053
(dp3054
Vcomment
p3055
g4
sVreceive
p3056
I29
sVsend
p3057
I0
sVssl
p3058
I-1
sVconnect
p3059
I-1
sVdns
p3060
I-1
sVwait
p3061
I33
sVblocked
p3062
I-1
ssVtime
p3063
I62
sVresponse
p3064
(dp3065
Vstatus
p3066
I200
sVcomment
p3067
g4
sVcookies
p3068
(lp3069
sVstatusText
p3070
VOK
p3071
sVcontent
p3072
(dp3073
VmimeType
p3074
Vapplication/x-font-woff
p3075
sVcomment
p3076
g4
sVsize
p3077
I0
ssVheaders
p3078
(lp3079
sVheadersSize
p3080
I870
sVredirectURL
p3081
g4
sVbodySize
p3082
I48540
sVhttpVersion
p3083
VHTTP/1.1
p3084
ssa(dp3085
Vcomment
p3086
g4
sVserverIPAddress
p3087
V216.58.216.193
p3088
sVpageref
p3089
VPokemon Go
p3090
sVstartedDateTime
p3091
V2017-04-16T07:57:57.500-05:00
p3092
sVcache
p3093
(dp3094
sVrequest
p3095
(dp3096
Vcomment
p3097
g4
sVcookies
p3098
(lp3099
sVurl
p3100
Vhttps://www-androidcentral-com.cdn.ampproject.org/i/s/www.androidcentral.com/sites/androidcentral.com/files/styles/large/public/article_images/2017/03/totodile-pokemon.jpg?itok=KaXkm59a
p3101
sVqueryString
p3102
(lp3103
(dp3104
Vname
p3105
Vitok
p3106
sVvalue
p3107
VKaXkm59a
p3108
sasVheaders
p3109
(lp3110
sVheadersSize
p3111
I616
sVbodySize
p3112
I0
sVmethod
p3113
VGET
p3114
sVhttpVersion
p3115
VHTTP/1.1
p3116
ssVtimings
p3117
(dp3118
Vcomment
p3119
g4
sVreceive
p3120
I18
sVsend
p3121
I0
sVssl
p3122
I402
sVconnect
p3123
I424
sVdns
p3124
I3
sVwait
p3125
I123
sVblocked
p3126
I0
ssVtime
p3127
I570
sVresponse
p3128
(dp3129
Vstatus
p3130
I200
sVcomment
p3131
g4
sVcookies
p3132
(lp3133
sVstatusText
p3134
VOK
p3135
sVcontent
p3136
(dp3137
VmimeType
p3138
Vimage/jpeg
p3139
sVcomment
p3140
g4
sVsize
p3141
I0
ssVheaders
p3142
(lp3143
sVheadersSize
p3144
I849
sVredirectURL
p3145
g4
sVbodySize
p3146
I32903
sVhttpVersion
p3147
VHTTP/1.1
p3148
ssa(dp3149
Vcomment
p3150
g4
sVserverIPAddress
p3151
V216.58.216.196
p3152
sVpageref
p3153
VPokemon Go
p3154
sVstartedDateTime
p3155
V2017-04-16T07:57:57.658-05:00
p3156
sVcache
p3157
(dp3158
sVrequest
p3159
(dp3160
Vcomment
p3161
g4
sVcookies
p3162
(lp3163
sVurl
p3164
Vhttps://www.google.com/gen_204?atyp=i&ct=slh&cad=&ei=RmrzWLzXBKWZjwTT9KvoBQ&m=V&t=C&s=1&v=2&pv=0.12024153054020037&me=1:1492347464974,x:1,V,0,0,1280,944:0,N,1,RmrzWLzXBKWZjwTT9KvoBQ:0,R,1,24,8,155,1249,756:0,R,1,25,8,155,1249,756:0,R,1,28,8,168,1249,40:0,R,1,41,8,220,1249,178:0,R,1,44,0,236,1265,197:0,R,1,84,8,415,1249,20:0,R,1,85,24,415,1217,20:0,R,1,88,8,451,1249,20:0,R,1,96,8,479,1249,20:0,R,1,104,8,507,1249,21:0,R,1,107,8,548,1249,310:0,R,1,108,0,593,1265,285:0,R,1,164,24,921,1217,135:1,B,3539:8587,e,U&zx=1492347477657
p3165
sVqueryString
p3166
(lp3167
(dp3168
Vname
p3169
Vatyp
p3170
sVvalue
p3171
g30
sa(dp3172
Vname
p3173
Vct
p3174
sVvalue
p3175
Vslh
p3176
sa(dp3177
Vname
p3178
Vcad
p3179
sVvalue
p3180
g4
sa(dp3181
Vname
p3182
Vei
p3183
sVvalue
p3184
VRmrzWLzXBKWZjwTT9KvoBQ
p3185
sa(dp3186
Vname
p3187
g47
sVvalue
p3188
g49
sa(dp3189
Vname
p3190
g52
sVvalue
p3191
g54
sa(dp3192
Vname
p3193
g57
sVvalue
p3194
g59
sa(dp3195
Vname
p3196
g62
sVvalue
p3197
g64
sa(dp3198
Vname
p3199
Vpv
p3200
sVvalue
p3201
V0.12024153054020037
p3202
sa(dp3203
Vname
p3204
Vme
p3205
sVvalue
p3206
V1:1492347464974,x:1,V,0,0,1280,944:0,N,1,RmrzWLzXBKWZjwTT9KvoBQ:0,R,1,24,8,155,1249,756:0,R,1,25,8,155,1249,756:0,R,1,28,8,168,1249,40:0,R,1,41,8,220,1249,178:0,R,1,44,0,236,1265,197:0,R,1,84,8,415,1249,20:0,R,1,85,24,415,1217,20:0,R,1,88,8,451,1249,20:0,R,1,96,8,479,1249,20:0,R,1,104,8,507,1249,21:0,R,1,107,8,548,1249,310:0,R,1,108,0,593,1265,285:0,R,1,164,24,921,1217,135:1,B,3539:8587,e,U
p3207
sa(dp3208
Vname
p3209
Vzx
p3210
sVvalue
p3211
V1492347477657
p3212
sasVheaders
p3213
(lp3214
sVheadersSize
p3215
I1045
sVbodySize
p3216
I0
sVmethod
p3217
VGET
p3218
sVhttpVersion
p3219
VHTTP/1.1
p3220
ssVtimings
p3221
(dp3222
Vcomment
p3223
g4
sVreceive
p3224
I0
sVsend
p3225
I0
sVssl
p3226
I-1
sVconnect
p3227
I-1
sVdns
p3228
I-1
sVwait
p3229
I25
sVblocked
p3230
I-1
ssVtime
p3231
I25
sVresponse
p3232
(dp3233
Vstatus
p3234
I204
sVcomment
p3235
g4
sVcookies
p3236
(lp3237
sVstatusText
p3238
VNo Content
p3239
sVcontent
p3240
(dp3241
VmimeType
p3242
Vtext/html; charset=UTF-8
p3243
sVcomment
p3244
g4
sVsize
p3245
I0
ssVheaders
p3246
(lp3247
sVheadersSize
p3248
I248
sVredirectURL
p3249
g4
sVbodySize
p3250
I0
sVhttpVersion
p3251
VHTTP/1.1
p3252
ssa(dp3253
Vcomment
p3254
g4
sVserverIPAddress
p3255
V216.58.216.206
p3256
sVpageref
p3257
VPokemon Go
p3258
sVstartedDateTime
p3259
V2017-04-16T07:57:57.996-05:00
p3260
sVcache
p3261
(dp3262
sVrequest
p3263
(dp3264
Vcomment
p3265
g4
sVcookies
p3266
(lp3267
sVurl
p3268
Vhttps://i.ytimg.com/vi/W-0OrEs2nr4/sddefault.jpg
p3269
sVqueryString
p3270
(lp3271
sVheaders
p3272
(lp3273
sVheadersSize
p3274
I416
sVbodySize
p3275
I0
sVmethod
p3276
VGET
p3277
sVhttpVersion
p3278
VHTTP/1.1
p3279
ssVtimings
p3280
(dp3281
Vcomment
p3282
g4
sVreceive
p3283
I113
sVsend
p3284
I0
sVssl
p3285
I897
sVconnect
p3286
I919
sVdns
p3287
I3
sVwait
p3288
I12
sVblocked
p3289
I0
ssVtime
p3290
I1048
sVresponse
p3291
(dp3292
Vstatus
p3293
I200
sVcomment
p3294
g4
sVcookies
p3295
(lp3296
sVstatusText
p3297
VOK
p3298
sVcontent
p3299
(dp3300
VmimeType
p3301
Vimage/jpeg
p3302
sVcomment
p3303
g4
sVsize
p3304
I0
ssVheaders
p3305
(lp3306
sVheadersSize
p3307
I365
sVredirectURL
p3308
g4
sVbodySize
p3309
I61914
sVhttpVersion
p3310
VHTTP/1.1
p3311
ssa(dp3312
Vcomment
p3313
g4
sVserverIPAddress
p3314
V216.58.216.212
p3315
sVpageref
p3316
VPokemon Go
p3317
sVstartedDateTime
p3318
V2017-04-16T07:57:58.279-05:00
p3319
sVcache
p3320
(dp3321
sVrequest
p3322
(dp3323
Vcomment
p3324
g4
sVcookies
p3325
(lp3326
sVurl
p3327
Vhttps://amp-error-reporting.appspot.com/r?v=1492014732688&noAmp=0&m=Use%20autoplay%20attribute%20instead%20of%20data-param-autoplay&a=1&rt=1p&vs=channelOpen&iem=1&rvu=https%3A%2F%2Fwww.google.com%2Famp%2Famp.androidcentral.com%2Fpok-mon-go-legendary-event-may-finally-be-coming-july&mso=https%3A%2F%2Fwww.google.com&jse=Firefox&exps=canary%3D0%2Camp-experiment%3D1%2Cpan-y%3D1%2CexpAdsenseA4A%3D0%2CexpDoubleclickA4A%3D0%2Ca4aProfilingRate%3D1%2Cad-type-custom%3D1%2Camp-scrollable-carousel%3D1%2Camp-inabox%3D1%2Camp-ad-loading-ux%3D1%2Cios-embed-wrapper%3D1%2Camp-apester-media%3D1%2Camp-accordion-session-state-optout%3D1%2Camp-playbuzz%3D1%2Cmake-body-relative%3D1%2Cchunked-amp%3D1%2Cvisibility-v2%3D1%2Camp-selector%3D1%2Csentinel-name-change%3D1%2Csticky-ad-early-load%3D1%2Camp-auto-ads%3D1%2Cslidescroll-disable-css-snap%3D1%2Cvisibility-v3%3D1&el=u&r=https%3A%2F%2Fwww.google.com%2F&ae=&fr=%23origin%3Dhttps%253A%252F%252Fwww.google.com%26exp%3Da4a%253A0%26cid%3D1%26dialog%3D0%26prerenderSize%3D1%26visibilityState%3Dprerender%26paddingTop%3D54%26history%3D1%26p2r%3D0%26horizontalScrolling%3D0%26csi%3D1%26storage%3D1%26viewerUrl%3Dhttps%253A%252F%252Fwww.google.com%252Famp%252Famp.androidcentral.com%252Fpok-mon-go-legendary-event-may-finally-be-coming-july%26cap%3Dswipe
p3328
sVqueryString
p3329
(lp3330
(dp3331
Vname
p3332
g62
sVvalue
p3333
V1492014732688
p3334
sa(dp3335
Vname
p3336
VnoAmp
p3337
sVvalue
p3338
g289
sa(dp3339
Vname
p3340
g47
sVvalue
p3341
VUse autoplay attribute instead of data-param-autoplay
p3342
sa(dp3343
Vname
p3344
Va
p3345
sVvalue
p3346
g59
sa(dp3347
Vname
p3348
Vrt
p3349
sVvalue
p3350
V1p
p3351
sa(dp3352
Vname
p3353
Vvs
p3354
sVvalue
p3355
VchannelOpen
p3356
sa(dp3357
Vname
p3358
Viem
p3359
sVvalue
p3360
g59
sa(dp3361
Vname
p3362
Vrvu
p3363
sVvalue
p3364
Vhttps://www.google.com/amp/amp.androidcentral.com/pok-mon-go-legendary-event-may-finally-be-coming-july
p3365
sa(dp3366
Vname
p3367
Vmso
p3368
sVvalue
p3369
Vhttps://www.google.com
p3370
sa(dp3371
Vname
p3372
Vjse
p3373
sVvalue
p3374
VFirefox
p3375
sa(dp3376
Vname
p3377
Vexps
p3378
sVvalue
p3379
Vcanary=0,amp-experiment=1,pan-y=1,expAdsenseA4A=0,expDoubleclickA4A=0,a4aProfilingRate=1,ad-type-custom=1,amp-scrollable-carousel=1,amp-inabox=1,amp-ad-loading-ux=1,ios-embed-wrapper=1,amp-apester-media=1,amp-accordion-session-state-optout=1,amp-playbuzz=1,make-body-relative=1,chunked-amp=1,visibility-v2=1,amp-selector=1,sentinel-name-change=1,sticky-ad-early-load=1,amp-auto-ads=1,slidescroll-disable-css-snap=1,visibility-v3=1
p3380
sa(dp3381
Vname
p3382
Vel
p3383
sVvalue
p3384
Vu
p3385
sa(dp3386
Vname
p3387
Vr
p3388
sVvalue
p3389
Vhttps://www.google.com/
p3390
sa(dp3391
Vname
p3392
Vae
p3393
sVvalue
p3394
g4
sa(dp3395
Vname
p3396
Vfr
p3397
sVvalue
p3398
V#origin=https%3A%2F%2Fwww.google.com&exp=a4a%3A0&cid=1&dialog=0&prerenderSize=1&visibilityState=prerender&paddingTop=54&history=1&p2r=0&horizontalScrolling=0&csi=1&storage=1&viewerUrl=https%3A%2F%2Fwww.google.com%2Famp%2Famp.androidcentral.com%2Fpok-mon-go-legendary-event-may-finally-be-coming-july&cap=swipe
p3399
sasVheaders
p3400
(lp3401
sVheadersSize
p3402
I1716
sVbodySize
p3403
I0
sVmethod
p3404
VGET
p3405
sVhttpVersion
p3406
VHTTP/1.1
p3407
ssVtimings
p3408
(dp3409
Vcomment
p3410
g4
sVreceive
p3411
I0
sVsend
p3412
I0
sVssl
p3413
I572
sVconnect
p3414
I588
sVdns
p3415
I1
sVwait
p3416
I38
sVblocked
p3417
I0
ssVtime
p3418
I628
sVresponse
p3419
(dp3420
Vstatus
p3421
I200
sVcomment
p3422
g4
sVcookies
p3423
(lp3424
sVstatusText
p3425
VOK
p3426
sVcontent
p3427
(dp3428
VmimeType
p3429
Vtext/plain; charset=utf-8
p3430
sVcomment
p3431
g4
sVsize
p3432
I0
ssVheaders
p3433
(lp3434
sVheadersSize
p3435
I328
sVredirectURL
p3436
g4
sVbodySize
p3437
I31
sVhttpVersion
p3438
VHTTP/1.1
p3439
ssa(dp3440
Vcomment
p3441
g4
sVserverIPAddress
p3442
V216.58.216.196
p3443
sVpageref
p3444
VPokemon Go
p3445
sVstartedDateTime
p3446
V2017-04-16T07:57:58.334-05:00
p3447
sVcache
p3448
(dp3449
sVrequest
p3450
(dp3451
Vcomment
p3452
g4
sVcookies
p3453
(lp3454
sVurl
p3455
Vhttps://www.google.com/gen_204?s=web&atyp=csi&ei=UWrzWL2FBcK-jwTKlLWIAw&imc=33&imn=33&imp=14&adh=&xjs=init.25.14.sb_mob.19.dvl.3.c.1.r.1.foot.1&ima=2&rt=prt.1038,iml.1135,xjsls.1038,dcl.1117,qiml.1335,xjses.1160,xjsee.1259,xjs.1259,ol.4153,aft.1135,wsrt.111,cst.0,dnst.0,rqst.1124,rspt.1035,rqstt.2,unt.2,cstt.2,dit.1187
p3456
sVqueryString
p3457
(lp3458
(dp3459
Vname
p3460
g57
sVvalue
p3461
Vweb
p3462
sa(dp3463
Vname
p3464
Vatyp
p3465
sVvalue
p3466
Vcsi
p3467
sa(dp3468
Vname
p3469
Vei
p3470
sVvalue
p3471
VUWrzWL2FBcK-jwTKlLWIAw
p3472
sa(dp3473
Vname
p3474
Vimc
p3475
sVvalue
p3476
V33
p3477
sa(dp3478
Vname
p3479
Vimn
p3480
sVvalue
p3481
V33
p3482
sa(dp3483
Vname
p3484
Vimp
p3485
sVvalue
p3486
V14
p3487
sa(dp3488
Vname
p3489
Vadh
p3490
sVvalue
p3491
g4
sa(dp3492
Vname
p3493
Vxjs
p3494
sVvalue
p3495
Vinit.25.14.sb_mob.19.dvl.3.c.1.r.1.foot.1
p3496
sa(dp3497
Vname
p3498
Vima
p3499
sVvalue
p3500
g64
sa(dp3501
Vname
p3502
Vrt
p3503
sVvalue
p3504
Vprt.1038,iml.1135,xjsls.1038,dcl.1117,qiml.1335,xjses.1160,xjsee.1259,xjs.1259,ol.4153,aft.1135,wsrt.111,cst.0,dnst.0,rqst.1124,rspt.1035,rqstt.2,unt.2,cstt.2,dit.1187
p3505
sasVheaders
p3506
(lp3507
sVheadersSize
p3508
I837
sVbodySize
p3509
I0
sVmethod
p3510
VGET
p3511
sVhttpVersion
p3512
VHTTP/1.1
p3513
ssVtimings
p3514
(dp3515
Vcomment
p3516
g4
sVreceive
p3517
I0
sVsend
p3518
I0
sVssl
p3519
I-1
sVconnect
p3520
I-1
sVdns
p3521
I-1
sVwait
p3522
I35
sVblocked
p3523
I-1
ssVtime
p3524
I35
sVresponse
p3525
(dp3526
Vstatus
p3527
I204
sVcomment
p3528
g4
sVcookies
p3529
(lp3530
sVstatusText
p3531
VNo Content
p3532
sVcontent
p3533
(dp3534
VmimeType
p3535
Vtext/html; charset=UTF-8
p3536
sVcomment
p3537
g4
sVsize
p3538
I0
ssVheaders
p3539
(lp3540
sVheadersSize
p3541
I248
sVredirectURL
p3542
g4
sVbodySize
p3543
I0
sVhttpVersion
p3544
VHTTP/1.1
p3545
ssa(dp3546
Vcomment
p3547
g4
sVserverIPAddress
p3548
V216.58.216.196
p3549
sVpageref
p3550
VPokemon Go
p3551
sVstartedDateTime
p3552
V2017-04-16T07:57:58.338-05:00
p3553
sVcache
p3554
(dp3555
sVrequest
p3556
(dp3557
Vcomment
p3558
g4
sVcookies
p3559
(lp3560
sVurl
p3561
Vhttps://www.google.com/gen_204?s=amp&atyp=csi&ei=UWrzWL2FBcK-jwTKlLWIAw&ampexp=011492014732688&action=Prerender&rt=ol.2428
p3562
sVqueryString
p3563
(lp3564
(dp3565
Vname
p3566
g57
sVvalue
p3567
Vamp
p3568
sa(dp3569
Vname
p3570
Vatyp
p3571
sVvalue
p3572
Vcsi
p3573
sa(dp3574
Vname
p3575
Vei
p3576
sVvalue
p3577
VUWrzWL2FBcK-jwTKlLWIAw
p3578
sa(dp3579
Vname
p3580
Vampexp
p3581
sVvalue
p3582
V011492014732688
p3583
sa(dp3584
Vname
p3585
Vaction
p3586
sVvalue
p3587
VPrerender
p3588
sa(dp3589
Vname
p3590
Vrt
p3591
sVvalue
p3592
Vol.2428
p3593
sasVheaders
p3594
(lp3595
sVheadersSize
p3596
I639
sVbodySize
p3597
I0
sVmethod
p3598
VGET
p3599
sVhttpVersion
p3600
VHTTP/1.1
p3601
ssVtimings
p3602
(dp3603
Vcomment
p3604
g4
sVreceive
p3605
I0
sVsend
p3606
I0
sVssl
p3607
I-1
sVconnect
p3608
I-1
sVdns
p3609
I-1
sVwait
p3610
I35
sVblocked
p3611
I-1
ssVtime
p3612
I35
sVresponse
p3613
(dp3614
Vstatus
p3615
I204
sVcomment
p3616
g4
sVcookies
p3617
(lp3618
sVstatusText
p3619
VNo Content
p3620
sVcontent
p3621
(dp3622
VmimeType
p3623
Vtext/html; charset=UTF-8
p3624
sVcomment
p3625
g4
sVsize
p3626
I0
ssVheaders
p3627
(lp3628
sVheadersSize
p3629
I248
sVredirectURL
p3630
g4
sVbodySize
p3631
I0
sVhttpVersion
p3632
VHTTP/1.1
p3633
ssasVversion
p3634
V1.2
p3635
sVpages
p3636
(lp3637
(dp3638
VpageTimings
p3639
(dp3640
Vcomment
p3641
g4
ssVcomment
p3642
g4
sVtitle
p3643
VPokemon Go
p3644
sVid
p3645
VPokemon Go
p3646
sVstartedDateTime
p3647
V2017-04-16T07:57:53.556-05:00
p3648
sasVcreator
p3649
(dp3650
Vcomment
p3651
g4
sVversion
p3652
V2.1.4
p3653
sVname
p3654
VBrowserMob Proxy
p3655
sss.