(dp0
Vlog
p1
(dp2
Vcomment
p3
V
p4
sVentries
p5
(lp6
(dp7
Vcomment
p8
g4
sVserverIPAddress
p9
V172.217.6.4
p10
sVpageref
p11
VGrey: Fifty Shades of Grey as Told By Christian
p12
sVstartedDateTime
p13
V2017-04-16T08:42:45.734-05:00
p14
sVcache
p15
(dp16
sVrequest
p17
(dp18
Vcomment
p19
g4
sVcookies
p20
(lp21
sVurl
p22
Vhttps://www.google.com/gen_204?atyp=i&ct=slh&cad=&ei=wHTzWPS_EYnbjwTUw6-YDA&m=V&t=C&s=1&v=2&pv=0.17654331979349303&me=1:1492350147655,x:2,V,0,0,1280,944:0,N,1,wHTzWPS_EYnbjwTUw6-YDA:0,R,1,24,8,155,1249,1023:0,R,1,25,8,155,1249,1023:0,R,1,30,1185,155,72,116:0,R,1,39,8,193,1177,40:0,R,1,56,8,319,1249,48:0,R,1,58,8,367,1249,72:0,R,1,66,8,456,1249,40:0,R,1,67,24,456,1217,40:0,R,1,70,8,512,1249,20:0,R,1,104,8,552,1249,310:0,R,1,105,0,597,1265,285:0,R,1,128,8,907,1249,204:0,R,1,129,0,907,1265,224:3,B,4705:18072,e,U&zx=1492350165732
p23
sVqueryString
p24
(lp25
(dp26
Vname
p27
Vatyp
p28
sVvalue
p29
Vi
p30
sa(dp31
Vname
p32
Vct
p33
sVvalue
p34
Vslh
p35
sa(dp36
Vname
p37
Vcad
p38
sVvalue
p39
g4
sa(dp40
Vname
p41
Vei
p42
sVvalue
p43
VwHTzWPS_EYnbjwTUw6-YDA
p44
sa(dp45
Vname
p46
Vm
p47
sVvalue
p48
VV
p49
sa(dp50
Vname
p51
Vt
p52
sVvalue
p53
VC
p54
sa(dp55
Vname
p56
Vs
p57
sVvalue
p58
V1
p59
sa(dp60
Vname
p61
Vv
p62
sVvalue
p63
V2
p64
sa(dp65
Vname
p66
Vpv
p67
sVvalue
p68
V0.17654331979349303
p69
sa(dp70
Vname
p71
Vme
p72
sVvalue
p73
V1:1492350147655,x:2,V,0,0,1280,944:0,N,1,wHTzWPS_EYnbjwTUw6-YDA:0,R,1,24,8,155,1249,1023:0,R,1,25,8,155,1249,1023:0,R,1,30,1185,155,72,116:0,R,1,39,8,193,1177,40:0,R,1,56,8,319,1249,48:0,R,1,58,8,367,1249,72:0,R,1,66,8,456,1249,40:0,R,1,67,24,456,1217,40:0,R,1,70,8,512,1249,20:0,R,1,104,8,552,1249,310:0,R,1,105,0,597,1265,285:0,R,1,128,8,907,1249,204:0,R,1,129,0,907,1265,224:3,B,4705:18072,e,U
p74
sa(dp75
Vname
p76
Vzx
p77
sVvalue
p78
V1492350165732
p79
sasVheaders
p80
(lp81
sVheadersSize
p82
I1048
sVbodySize
p83
I0
sVmethod
p84
VGET
p85
sVhttpVersion
p86
VHTTP/1.1
p87
ssVtimings
p88
(dp89
Vcomment
p90
g4
sVreceive
p91
I0
sVsend
p92
I0
sVssl
p93
I-1
sVconnect
p94
I-1
sVdns
p95
I-1
sVwait
p96
I0
sVblocked
p97
I-1
ssVtime
p98
I0
sVresponse
p99
(dp100
Vstatus
p101
I0
sVcomment
p102
g4
sVcookies
p103
(lp104
sV_error
p105
VNo response received
p106
sVstatusText
p107
g4
sVcontent
p108
(dp109
VmimeType
p110
g4
sVcomment
p111
g4
sVsize
p112
I0
ssVheaders
p113
(lp114
sVheadersSize
p115
I-1
sVredirectURL
p116
g4
sVbodySize
p117
I-1
sVhttpVersion
p118
Vunknown
p119
ssa(dp120
Vcomment
p121
g4
sVserverIPAddress
p122
V172.217.6.4
p123
sVpageref
p124
VGrey: Fifty Shades of Grey as Told By Christian
p125
sVstartedDateTime
p126
V2017-04-16T08:42:45.735-05:00
p127
sVcache
p128
(dp129
sVrequest
p130
(dp131
Vcomment
p132
g4
sVcookies
p133
(lp134
sVurl
p135
Vhttps://www.google.com/gen_204?atyp=i&ct=slh&cad=&ei=d3TzWK6wMKbUjwTI3aaACQ&m=V&t=C&s=1&v=2&pv=0.862083874440354&me=1:1492350075123,x:1,V,0,0,1280,944:0,N,1,d3TzWK6wMKbUjwTI3aaACQ:0,R,1,25,24,155,1217,114:0,R,1,27,8,290,1249,210:0,R,1,28,8,290,1249,48:0,R,1,30,8,339,1249,80:0,R,1,34,8,420,1249,80:0,R,1,39,24,510,1217,189:0,R,1,47,24,720,1217,199:2,B,3360:21224,e,U&zx=1492350165733
p136
sVqueryString
p137
(lp138
(dp139
Vname
p140
Vatyp
p141
sVvalue
p142
g30
sa(dp143
Vname
p144
Vct
p145
sVvalue
p146
Vslh
p147
sa(dp148
Vname
p149
Vcad
p150
sVvalue
p151
g4
sa(dp152
Vname
p153
Vei
p154
sVvalue
p155
Vd3TzWK6wMKbUjwTI3aaACQ
p156
sa(dp157
Vname
p158
g47
sVvalue
p159
g49
sa(dp160
Vname
p161
g52
sVvalue
p162
g54
sa(dp163
Vname
p164
g57
sVvalue
p165
g59
sa(dp166
Vname
p167
g62
sVvalue
p168
g64
sa(dp169
Vname
p170
Vpv
p171
sVvalue
p172
V0.862083874440354
p173
sa(dp174
Vname
p175
Vme
p176
sVvalue
p177
V1:1492350075123,x:1,V,0,0,1280,944:0,N,1,d3TzWK6wMKbUjwTI3aaACQ:0,R,1,25,24,155,1217,114:0,R,1,27,8,290,1249,210:0,R,1,28,8,290,1249,48:0,R,1,30,8,339,1249,80:0,R,1,34,8,420,1249,80:0,R,1,39,24,510,1217,189:0,R,1,47,24,720,1217,199:2,B,3360:21224,e,U
p178
sa(dp179
Vname
p180
Vzx
p181
sVvalue
p182
V1492350165733
p183
sasVheaders
p184
(lp185
sVheadersSize
p186
I900
sVbodySize
p187
I0
sVmethod
p188
VGET
p189
sVhttpVersion
p190
VHTTP/1.1
p191
ssVtimings
p192
(dp193
Vcomment
p194
g4
sVreceive
p195
I0
sVsend
p196
I0
sVssl
p197
I-1
sVconnect
p198
I-1
sVdns
p199
I-1
sVwait
p200
I0
sVblocked
p201
I-1
ssVtime
p202
I0
sVresponse
p203
(dp204
Vstatus
p205
I0
sVcomment
p206
g4
sVcookies
p207
(lp208
sV_error
p209
VNo response received
p210
sVstatusText
p211
g4
sVcontent
p212
(dp213
VmimeType
p214
g4
sVcomment
p215
g4
sVsize
p216
I0
ssVheaders
p217
(lp218
sVheadersSize
p219
I-1
sVredirectURL
p220
g4
sVbodySize
p221
I-1
sVhttpVersion
p222
Vunknown
p223
ssa(dp224
Vcomment
p225
g4
sVserverIPAddress
p226
V172.217.6.4
p227
sVpageref
p228
VGrey: Fifty Shades of Grey as Told By Christian
p229
sVstartedDateTime
p230
V2017-04-16T08:42:45.736-05:00
p231
sVcache
p232
(dp233
sVrequest
p234
(dp235
Vcomment
p236
g4
sVcookies
p237
(lp238
sVurl
p239
Vhttps://www.google.com/gen_204?atyp=i&ct=slh&cad=&ei=d3TzWK6wMKbUjwTI3aaACQ&s=2&v=2&pv=0.862083874440354&me=13:1492350096791,e,H&zx=1492350165734
p240
sVqueryString
p241
(lp242
(dp243
Vname
p244
Vatyp
p245
sVvalue
p246
g30
sa(dp247
Vname
p248
Vct
p249
sVvalue
p250
Vslh
p251
sa(dp252
Vname
p253
Vcad
p254
sVvalue
p255
g4
sa(dp256
Vname
p257
Vei
p258
sVvalue
p259
Vd3TzWK6wMKbUjwTI3aaACQ
p260
sa(dp261
Vname
p262
g57
sVvalue
p263
g64
sa(dp264
Vname
p265
g62
sVvalue
p266
g64
sa(dp267
Vname
p268
Vpv
p269
sVvalue
p270
V0.862083874440354
p271
sa(dp272
Vname
p273
Vme
p274
sVvalue
p275
V13:1492350096791,e,H
p276
sa(dp277
Vname
p278
Vzx
p279
sVvalue
p280
V1492350165734
p281
sasVheaders
p282
(lp283
sVheadersSize
p284
I662
sVbodySize
p285
I0
sVmethod
p286
VGET
p287
sVhttpVersion
p288
VHTTP/1.1
p289
ssVtimings
p290
(dp291
Vcomment
p292
g4
sVreceive
p293
I0
sVsend
p294
I0
sVssl
p295
I-1
sVconnect
p296
I-1
sVdns
p297
I-1
sVwait
p298
I0
sVblocked
p299
I-1
ssVtime
p300
I0
sVresponse
p301
(dp302
Vstatus
p303
I0
sVcomment
p304
g4
sVcookies
p305
(lp306
sV_error
p307
VNo response received
p308
sVstatusText
p309
g4
sVcontent
p310
(dp311
VmimeType
p312
g4
sVcomment
p313
g4
sVsize
p314
I0
ssVheaders
p315
(lp316
sVheadersSize
p317
I-1
sVredirectURL
p318
g4
sVbodySize
p319
I-1
sVhttpVersion
p320
Vunknown
p321
ssa(dp322
Vcomment
p323
g4
sVserverIPAddress
p324
V172.217.6.4
p325
sVpageref
p326
VGrey: Fifty Shades of Grey as Told By Christian
p327
sVstartedDateTime
p328
V2017-04-16T08:42:45.738-05:00
p329
sVcache
p330
(dp331
sVrequest
p332
(dp333
Vcomment
p334
g4
sVcookies
p335
(lp336
sVurl
p337
Vhttp://www.google.com/
p338
sVqueryString
p339
(lp340
sVheaders
p341
(lp342
sVheadersSize
p343
I613
sVbodySize
p344
I0
sVmethod
p345
VGET
p346
sVhttpVersion
p347
VHTTP/1.1
p348
ssVtimings
p349
(dp350
Vcomment
p351
g4
sVreceive
p352
I0
sVsend
p353
I0
sVssl
p354
I-1
sVconnect
p355
I-1
sVdns
p356
I-1
sVwait
p357
I33
sVblocked
p358
I-1
ssVtime
p359
I33
sVresponse
p360
(dp361
Vstatus
p362
I302
sVcomment
p363
g4
sVcookies
p364
(lp365
sVstatusText
p366
VFound
p367
sVcontent
p368
(dp369
VmimeType
p370
Vtext/html; charset=UTF-8
p371
sVcomment
p372
g4
sVsize
p373
I0
ssVheaders
p374
(lp375
sVheadersSize
p376
I609
sVredirectURL
p377
Vhttps://www.google.com/?gws_rd=ssl
p378
sVbodySize
p379
I231
sVhttpVersion
p380
VHTTP/1.1
p381
ssa(dp382
Vcomment
p383
g4
sVserverIPAddress
p384
V172.217.6.4
p385
sVpageref
p386
VGrey: Fifty Shades of Grey as Told By Christian
p387
sVstartedDateTime
p388
V2017-04-16T08:42:45.774-05:00
p389
sVcache
p390
(dp391
sVrequest
p392
(dp393
Vcomment
p394
g4
sVcookies
p395
(lp396
sVurl
p397
Vhttps://www.google.com/?gws_rd=ssl
p398
sVqueryString
p399
(lp400
(dp401
Vname
p402
Vgws_rd
p403
sVvalue
p404
Vssl
p405
sasVheaders
p406
(lp407
sVheadersSize
p408
I607
sVbodySize
p409
I0
sVmethod
p410
VGET
p411
sVhttpVersion
p412
VHTTP/1.1
p413
ssVtimings
p414
(dp415
Vcomment
p416
g4
sVreceive
p417
I28
sVsend
p418
I0
sVssl
p419
I-1
sVconnect
p420
I-1
sVdns
p421
I-1
sVwait
p422
I116
sVblocked
p423
I-1
ssVtime
p424
I145
sVresponse
p425
(dp426
Vstatus
p427
I200
sVcomment
p428
g4
sVcookies
p429
(lp430
sVstatusText
p431
VOK
p432
sVcontent
p433
(dp434
VmimeType
p435
Vtext/html; charset=UTF-8
p436
sVcomment
p437
g4
sVsize
p438
I0
ssVheaders
p439
(lp440
sVheadersSize
p441
I721
sVredirectURL
p442
g4
sVbodySize
p443
I34291
sVhttpVersion
p444
VHTTP/1.1
p445
ssa(dp446
Vcomment
p447
g4
sVserverIPAddress
p448
V172.217.6.4
p449
sVpageref
p450
VGrey: Fifty Shades of Grey as Told By Christian
p451
sVstartedDateTime
p452
V2017-04-16T08:42:46.188-05:00
p453
sVcache
p454
(dp455
sVrequest
p456
(dp457
Vcomment
p458
g4
sVcookies
p459
(lp460
sVurl
p461
Vhttps://www.google.com/gen_204?s=mobilewebhp&atyp=csi&ei=1HTzWMvAL-rWjwSRyaiwBg&imc=1&imn=1&imp=0&adh=&xjs=init.31.12.sb_mob.23.dvl.5.c.1.jsa.1.mbsf.1&ima=1&rt=xjsls.22,prt.23,iml.23,dcl.51,xjses.108,xjsee.204,xjs.204,ol.260,aft.23,wsrt.188,cst.0,dnst.0,rqst.146,rspt.29,rqstt.42,unt.40,cstt.40,dit.223
p462
sVqueryString
p463
(lp464
(dp465
Vname
p466
g57
sVvalue
p467
Vmobilewebhp
p468
sa(dp469
Vname
p470
Vatyp
p471
sVvalue
p472
Vcsi
p473
sa(dp474
Vname
p475
Vei
p476
sVvalue
p477
V1HTzWMvAL-rWjwSRyaiwBg
p478
sa(dp479
Vname
p480
Vimc
p481
sVvalue
p482
g59
sa(dp483
Vname
p484
Vimn
p485
sVvalue
p486
g59
sa(dp487
Vname
p488
Vimp
p489
sVvalue
p490
V0
p491
sa(dp492
Vname
p493
Vadh
p494
sVvalue
p495
g4
sa(dp496
Vname
p497
Vxjs
p498
sVvalue
p499
Vinit.31.12.sb_mob.23.dvl.5.c.1.jsa.1.mbsf.1
p500
sa(dp501
Vname
p502
Vima
p503
sVvalue
p504
g59
sa(dp505
Vname
p506
Vrt
p507
sVvalue
p508
Vxjsls.22,prt.23,iml.23,dcl.51,xjses.108,xjsee.204,xjs.204,ol.260,aft.23,wsrt.188,cst.0,dnst.0,rqst.146,rspt.29,rqstt.42,unt.40,cstt.40,dit.223
p509
sasVheaders
p510
(lp511
sVheadersSize
p512
I830
sVbodySize
p513
I0
sVmethod
p514
VGET
p515
sVhttpVersion
p516
VHTTP/1.1
p517
ssVtimings
p518
(dp519
Vcomment
p520
g4
sVreceive
p521
I0
sVsend
p522
I0
sVssl
p523
I-1
sVconnect
p524
I-1
sVdns
p525
I-1
sVwait
p526
I31
sVblocked
p527
I-1
ssVtime
p528
I31
sVresponse
p529
(dp530
Vstatus
p531
I204
sVcomment
p532
g4
sVcookies
p533
(lp534
sVstatusText
p535
VNo Content
p536
sVcontent
p537
(dp538
VmimeType
p539
Vtext/html; charset=UTF-8
p540
sVcomment
p541
g4
sVsize
p542
I0
ssVheaders
p543
(lp544
sVheadersSize
p545
I248
sVredirectURL
p546
g4
sVbodySize
p547
I0
sVhttpVersion
p548
VHTTP/1.1
p549
ssa(dp550
Vcomment
p551
g4
sVserverIPAddress
p552
V172.217.6.4
p553
sVpageref
p554
VGrey: Fifty Shades of Grey as Told By Christian
p555
sVstartedDateTime
p556
V2017-04-16T08:42:47.189-05:00
p557
sVcache
p558
(dp559
sVrequest
p560
(dp561
Vcomment
p562
g4
sVcookies
p563
(lp564
sVurl
p565
Vhttps://www.google.com/complete/search?client=mobile-gws-hp&hl=en&gs_rn=64&gs_ri=mobile-gws-hp&sla=1&pfq=goose%20island&gm=602&cp=0&gs_id=1&xhr=t&q=G&tch=1&ech=1&psi=1HTzWMvAL-rWjwSRyaiwBg.1492350166094.1
p566
sVqueryString
p567
(lp568
(dp569
Vname
p570
Vclient
p571
sVvalue
p572
Vmobile-gws-hp
p573
sa(dp574
Vname
p575
Vhl
p576
sVvalue
p577
Ven
p578
sa(dp579
Vname
p580
Vgs_rn
p581
sVvalue
p582
V64
p583
sa(dp584
Vname
p585
Vgs_ri
p586
sVvalue
p587
Vmobile-gws-hp
p588
sa(dp589
Vname
p590
Vsla
p591
sVvalue
p592
g59
sa(dp593
Vname
p594
Vpfq
p595
sVvalue
p596
Vgoose island
p597
sa(dp598
Vname
p599
Vgm
p600
sVvalue
p601
V602
p602
sa(dp603
Vname
p604
Vcp
p605
sVvalue
p606
g491
sa(dp607
Vname
p608
Vgs_id
p609
sVvalue
p610
g59
sa(dp611
Vname
p612
Vxhr
p613
sVvalue
p614
g52
sa(dp615
Vname
p616
Vq
p617
sVvalue
p618
VG
p619
sa(dp620
Vname
p621
Vtch
p622
sVvalue
p623
g59
sa(dp624
Vname
p625
Vech
p626
sVvalue
p627
g59
sa(dp628
Vname
p629
Vpsi
p630
sVvalue
p631
V1HTzWMvAL-rWjwSRyaiwBg.1492350166094.1
p632
sasVheaders
p633
(lp634
sVheadersSize
p635
I732
sVbodySize
p636
I0
sVmethod
p637
VGET
p638
sVhttpVersion
p639
VHTTP/1.1
p640
ssVtimings
p641
(dp642
Vcomment
p643
g4
sVreceive
p644
I0
sVsend
p645
I0
sVssl
p646
I-1
sVconnect
p647
I-1
sVdns
p648
I-1
sVwait
p649
I0
sVblocked
p650
I-1
ssVtime
p651
I0
sVresponse
p652
(dp653
Vstatus
p654
I0
sVcomment
p655
g4
sVcookies
p656
(lp657
sV_error
p658
VNo response received
p659
sVstatusText
p660
g4
sVcontent
p661
(dp662
VmimeType
p663
g4
sVcomment
p664
g4
sVsize
p665
I0
ssVheaders
p666
(lp667
sVheadersSize
p668
I-1
sVredirectURL
p669
g4
sVbodySize
p670
I-1
sVhttpVersion
p671
Vunknown
p672
ssa(dp673
Vcomment
p674
g4
sVserverIPAddress
p675
V172.217.6.4
p676
sVpageref
p677
VGrey: Fifty Shades of Grey as Told By Christian
p678
sVstartedDateTime
p679
V2017-04-16T08:42:47.436-05:00
p680
sVcache
p681
(dp682
sVrequest
p683
(dp684
Vcomment
p685
g4
sVcookies
p686
(lp687
sVurl
p688
Vhttps://www.google.com/complete/search?client=mobile-gws-hp&hl=en&gs_rn=64&gs_ri=mobile-gws-hp&sla=1&gm=602&cp=0&gs_id=2l&xhr=t&q=Grey%3A%20Fifty%20Shades%20of%20Grey%20as%20Told%20By%20Christian&tch=1&ech=2&psi=1HTzWMvAL-rWjwSRyaiwBg.1492350166094.1
p689
sVqueryString
p690
(lp691
(dp692
Vname
p693
Vclient
p694
sVvalue
p695
Vmobile-gws-hp
p696
sa(dp697
Vname
p698
Vhl
p699
sVvalue
p700
Ven
p701
sa(dp702
Vname
p703
Vgs_rn
p704
sVvalue
p705
V64
p706
sa(dp707
Vname
p708
Vgs_ri
p709
sVvalue
p710
Vmobile-gws-hp
p711
sa(dp712
Vname
p713
Vsla
p714
sVvalue
p715
g59
sa(dp716
Vname
p717
Vgm
p718
sVvalue
p719
V602
p720
sa(dp721
Vname
p722
Vcp
p723
sVvalue
p724
g491
sa(dp725
Vname
p726
Vgs_id
p727
sVvalue
p728
V2l
p729
sa(dp730
Vname
p731
Vxhr
p732
sVvalue
p733
g52
sa(dp734
Vname
p735
g617
sVvalue
p736
VGrey: Fifty Shades of Grey as Told By Christian
p737
sa(dp738
Vname
p739
Vtch
p740
sVvalue
p741
g59
sa(dp742
Vname
p743
Vech
p744
sVvalue
p745
g64
sa(dp746
Vname
p747
Vpsi
p748
sVvalue
p749
V1HTzWMvAL-rWjwSRyaiwBg.1492350166094.1
p750
sasVheaders
p751
(lp752
sVheadersSize
p753
I778
sVbodySize
p754
I0
sVmethod
p755
VGET
p756
sVhttpVersion
p757
VHTTP/1.1
p758
ssVtimings
p759
(dp760
Vcomment
p761
g4
sVreceive
p762
I0
sVsend
p763
I0
sVssl
p764
I-1
sVconnect
p765
I-1
sVdns
p766
I-1
sVwait
p767
I0
sVblocked
p768
I-1
ssVtime
p769
I0
sVresponse
p770
(dp771
Vstatus
p772
I0
sVcomment
p773
g4
sVcookies
p774
(lp775
sV_error
p776
VNo response received
p777
sVstatusText
p778
g4
sVcontent
p779
(dp780
VmimeType
p781
g4
sVcomment
p782
g4
sVsize
p783
I0
ssVheaders
p784
(lp785
sVheadersSize
p786
I-1
sVredirectURL
p787
g4
sVbodySize
p788
I-1
sVhttpVersion
p789
Vunknown
p790
ssa(dp791
Vcomment
p792
g4
sVserverIPAddress
p793
V172.217.6.4
p794
sVpageref
p795
VGrey: Fifty Shades of Grey as Told By Christian
p796
sVstartedDateTime
p797
V2017-04-16T08:42:47.452-05:00
p798
sVcache
p799
(dp800
sVrequest
p801
(dp802
Vcomment
p803
g4
sVcookies
p804
(lp805
sVurl
p806
Vhttps://www.google.com/search?site=&source=hp&ei=1HTzWMvAL-rWjwSRyaiwBg&q=Grey%3A+Fifty+Shades+of+Grey+as+Told+By+Christian&oq=Grey%3A+Fifty+Shades+of+Grey+as+Told+By+Christian&gs_l=mobile-gws-hp.3...1072.1181.0.1329.47.2.0.0.0.0.0.0..0.0....0...1c.1.64.mobile-gws-hp..47.0.0.LP8SoPybtWw
p807
sVqueryString
p808
(lp809
(dp810
Vname
p811
Vsite
p812
sVvalue
p813
g4
sa(dp814
Vname
p815
Vsource
p816
sVvalue
p817
Vhp
p818
sa(dp819
Vname
p820
Vei
p821
sVvalue
p822
V1HTzWMvAL-rWjwSRyaiwBg
p823
sa(dp824
Vname
p825
g617
sVvalue
p826
VGrey: Fifty Shades of Grey as Told By Christian
p827
sa(dp828
Vname
p829
Voq
p830
sVvalue
p831
VGrey: Fifty Shades of Grey as Told By Christian
p832
sa(dp833
Vname
p834
Vgs_l
p835
sVvalue
p836
Vmobile-gws-hp.3...1072.1181.0.1329.47.2.0.0.0.0.0.0..0.0....0...1c.1.64.mobile-gws-hp..47.0.0.LP8SoPybtWw
p837
sasVheaders
p838
(lp839
sVheadersSize
p840
I905
sVbodySize
p841
I0
sVmethod
p842
VGET
p843
sVhttpVersion
p844
VHTTP/1.1
p845
ssVtimings
p846
(dp847
Vcomment
p848
g4
sVreceive
p849
I1014
sVsend
p850
I0
sVssl
p851
I-1
sVconnect
p852
I-1
sVdns
p853
I-1
sVwait
p854
I103
sVblocked
p855
I-1
ssVtime
p856
I1117
sVresponse
p857
(dp858
Vstatus
p859
I200
sVcomment
p860
g4
sVcookies
p861
(lp862
sVstatusText
p863
VOK
p864
sVcontent
p865
(dp866
VmimeType
p867
Vtext/html; charset=UTF-8
p868
sVcomment
p869
g4
sVsize
p870
I0
ssVheaders
p871
(lp872
sVheadersSize
p873
I363
sVredirectURL
p874
g4
sVbodySize
p875
I112603
sVhttpVersion
p876
VHTTP/1.1
p877
ssa(dp878
Vcomment
p879
g4
sVserverIPAddress
p880
V216.58.216.206
p881
sVpageref
p882
VGrey: Fifty Shades of Grey as Told By Christian
p883
sVstartedDateTime
p884
V2017-04-16T08:42:49.005-05:00
p885
sVcache
p886
(dp887
sVrequest
p888
(dp889
Vcomment
p890
g4
sVcookies
p891
(lp892
sVurl
p893
Vhttps://encrypted-tbn3.gstatic.com/images?q=tbn:ANd9GcTdJSQVRRHyGwR-Fo8hHJC1BEAefu8M-InHUZIMGC92FqeFD46_acjmRcjAKF_5PhH004o
p894
sVqueryString
p895
(lp896
(dp897
Vname
p898
g617
sVvalue
p899
Vtbn:ANd9GcTdJSQVRRHyGwR-Fo8hHJC1BEAefu8M-InHUZIMGC92FqeFD46_acjmRcjAKF_5PhH004o
p900
sasVheaders
p901
(lp902
sVheadersSize
p903
I438
sVbodySize
p904
I0
sVmethod
p905
VGET
p906
sVhttpVersion
p907
VHTTP/1.1
p908
ssVtimings
p909
(dp910
Vcomment
p911
g4
sVreceive
p912
I5
sVsend
p913
I0
sVssl
p914
I-1
sVconnect
p915
I-1
sVdns
p916
I-1
sVwait
p917
I15
sVblocked
p918
I-1
ssVtime
p919
I20
sVresponse
p920
(dp921
Vstatus
p922
I200
sVcomment
p923
g4
sVcookies
p924
(lp925
sVstatusText
p926
VOK
p927
sVcontent
p928
(dp929
VmimeType
p930
Vimage/jpeg
p931
sVcomment
p932
g4
sVsize
p933
I0
ssVheaders
p934
(lp935
sVheadersSize
p936
I428
sVredirectURL
p937
g4
sVbodySize
p938
I2298
sVhttpVersion
p939
VHTTP/1.1
p940
ssa(dp941
Vcomment
p942
g4
sVserverIPAddress
p943
V216.58.216.206
p944
sVpageref
p945
VGrey: Fifty Shades of Grey as Told By Christian
p946
sVstartedDateTime
p947
V2017-04-16T08:42:49.006-05:00
p948
sVcache
p949
(dp950
sVrequest
p951
(dp952
Vcomment
p953
g4
sVcookies
p954
(lp955
sVurl
p956
Vhttps://encrypted-tbn1.gstatic.com/images?q=tbn:ANd9GcS_yb5xKqlz5YS0iZ3iY1SbR8h0AsqpVNRshB44SO1L_W92Sr6fgLdwT0CADBHdG9u7B_A
p957
sVqueryString
p958
(lp959
(dp960
Vname
p961
g617
sVvalue
p962
Vtbn:ANd9GcS_yb5xKqlz5YS0iZ3iY1SbR8h0AsqpVNRshB44SO1L_W92Sr6fgLdwT0CADBHdG9u7B_A
p963
sasVheaders
p964
(lp965
sVheadersSize
p966
I438
sVbodySize
p967
I0
sVmethod
p968
VGET
p969
sVhttpVersion
p970
VHTTP/1.1
p971
ssVtimings
p972
(dp973
Vcomment
p974
g4
sVreceive
p975
I1
sVsend
p976
I0
sVssl
p977
I-1
sVconnect
p978
I-1
sVdns
p979
I-1
sVwait
p980
I20
sVblocked
p981
I-1
ssVtime
p982
I22
sVresponse
p983
(dp984
Vstatus
p985
I200
sVcomment
p986
g4
sVcookies
p987
(lp988
sVstatusText
p989
VOK
p990
sVcontent
p991
(dp992
VmimeType
p993
Vimage/jpeg
p994
sVcomment
p995
g4
sVsize
p996
I0
ssVheaders
p997
(lp998
sVheadersSize
p999
I429
sVredirectURL
p1000
g4
sVbodySize
p1001
I2687
sVhttpVersion
p1002
VHTTP/1.1
p1003
ssa(dp1004
Vcomment
p1005
g4
sVserverIPAddress
p1006
V216.58.216.206
p1007
sVpageref
p1008
VGrey: Fifty Shades of Grey as Told By Christian
p1009
sVstartedDateTime
p1010
V2017-04-16T08:42:49.006-05:00
p1011
sVcache
p1012
(dp1013
sVrequest
p1014
(dp1015
Vcomment
p1016
g4
sVcookies
p1017
(lp1018
sVurl
p1019
Vhttps://encrypted-tbn1.gstatic.com/images?q=tbn:ANd9GcQRW6Y1zOnK4rCC_LiIjnX8q2akO_zmGss6Sc_fZW4SIeElvPyA2EzL6ks180rrS0-efAE
p1020
sVqueryString
p1021
(lp1022
(dp1023
Vname
p1024
g617
sVvalue
p1025
Vtbn:ANd9GcQRW6Y1zOnK4rCC_LiIjnX8q2akO_zmGss6Sc_fZW4SIeElvPyA2EzL6ks180rrS0-efAE
p1026
sasVheaders
p1027
(lp1028
sVheadersSize
p1029
I438
sVbodySize
p1030
I0
sVmethod
p1031
VGET
p1032
sVhttpVersion
p1033
VHTTP/1.1
p1034
ssVtimings
p1035
(dp1036
Vcomment
p1037
g4
sVreceive
p1038
I0
sVsend
p1039
I0
sVssl
p1040
I-1
sVconnect
p1041
I-1
sVdns
p1042
I-1
sVwait
p1043
I21
sVblocked
p1044
I-1
ssVtime
p1045
I22
sVresponse
p1046
(dp1047
Vstatus
p1048
I200
sVcomment
p1049
g4
sVcookies
p1050
(lp1051
sVstatusText
p1052
VOK
p1053
sVcontent
p1054
(dp1055
VmimeType
p1056
Vimage/jpeg
p1057
sVcomment
p1058
g4
sVsize
p1059
I0
ssVheaders
p1060
(lp1061
sVheadersSize
p1062
I429
sVredirectURL
p1063
g4
sVbodySize
p1064
I2697
sVhttpVersion
p1065
VHTTP/1.1
p1066
ssa(dp1067
Vcomment
p1068
g4
sVserverIPAddress
p1069
V216.58.216.206
p1070
sVpageref
p1071
VGrey: Fifty Shades of Grey as Told By Christian
p1072
sVstartedDateTime
p1073
V2017-04-16T08:42:49.006-05:00
p1074
sVcache
p1075
(dp1076
sVrequest
p1077
(dp1078
Vcomment
p1079
g4
sVcookies
p1080
(lp1081
sVurl
p1082
Vhttps://encrypted-tbn3.gstatic.com/images?q=tbn:ANd9GcR7ISCqbLt1v2XMjGggOVe_8U_-bzZkD29S7zLdq3mkeddJeL6RNM1ryzMngwmmmOE7GLQ
p1083
sVqueryString
p1084
(lp1085
(dp1086
Vname
p1087
g617
sVvalue
p1088
Vtbn:ANd9GcR7ISCqbLt1v2XMjGggOVe_8U_-bzZkD29S7zLdq3mkeddJeL6RNM1ryzMngwmmmOE7GLQ
p1089
sasVheaders
p1090
(lp1091
sVheadersSize
p1092
I438
sVbodySize
p1093
I0
sVmethod
p1094
VGET
p1095
sVhttpVersion
p1096
VHTTP/1.1
p1097
ssVtimings
p1098
(dp1099
Vcomment
p1100
g4
sVreceive
p1101
I0
sVsend
p1102
I0
sVssl
p1103
I-1
sVconnect
p1104
I-1
sVdns
p1105
I-1
sVwait
p1106
I19
sVblocked
p1107
I-1
ssVtime
p1108
I19
sVresponse
p1109
(dp1110
Vstatus
p1111
I200
sVcomment
p1112
g4
sVcookies
p1113
(lp1114
sVstatusText
p1115
VOK
p1116
sVcontent
p1117
(dp1118
VmimeType
p1119
Vimage/jpeg
p1120
sVcomment
p1121
g4
sVsize
p1122
I0
ssVheaders
p1123
(lp1124
sVheadersSize
p1125
I429
sVredirectURL
p1126
g4
sVbodySize
p1127
I2210
sVhttpVersion
p1128
VHTTP/1.1
p1129
ssa(dp1130
Vcomment
p1131
g4
sVserverIPAddress
p1132
V216.58.216.206
p1133
sVpageref
p1134
VGrey: Fifty Shades of Grey as Told By Christian
p1135
sVstartedDateTime
p1136
V2017-04-16T08:42:49.008-05:00
p1137
sVcache
p1138
(dp1139
sVrequest
p1140
(dp1141
Vcomment
p1142
g4
sVcookies
p1143
(lp1144
sVurl
p1145
Vhttps://encrypted-tbn0.gstatic.com/images?q=tbn:ANd9GcRSzEvPJ0jydjnALydlPad0RqIT7W6zZBwhQ7sAgS8-VGBpiEOjXyKkyq__nCMHHTwDMp0
p1146
sVqueryString
p1147
(lp1148
(dp1149
Vname
p1150
g617
sVvalue
p1151
Vtbn:ANd9GcRSzEvPJ0jydjnALydlPad0RqIT7W6zZBwhQ7sAgS8-VGBpiEOjXyKkyq__nCMHHTwDMp0
p1152
sasVheaders
p1153
(lp1154
sVheadersSize
p1155
I438
sVbodySize
p1156
I0
sVmethod
p1157
VGET
p1158
sVhttpVersion
p1159
VHTTP/1.1
p1160
ssVtimings
p1161
(dp1162
Vcomment
p1163
g4
sVreceive
p1164
I3
sVsend
p1165
I0
sVssl
p1166
I-1
sVconnect
p1167
I-1
sVdns
p1168
I-1
sVwait
p1169
I28
sVblocked
p1170
I-1
ssVtime
p1171
I32
sVresponse
p1172
(dp1173
Vstatus
p1174
I200
sVcomment
p1175
g4
sVcookies
p1176
(lp1177
sVstatusText
p1178
VOK
p1179
sVcontent
p1180
(dp1181
VmimeType
p1182
Vimage/jpeg
p1183
sVcomment
p1184
g4
sVsize
p1185
I0
ssVheaders
p1186
(lp1187
sVheadersSize
p1188
I415
sVredirectURL
p1189
g4
sVbodySize
p1190
I2497
sVhttpVersion
p1191
VHTTP/1.1
p1192
ssa(dp1193
Vcomment
p1194
g4
sVserverIPAddress
p1195
V172.217.6.4
p1196
sVpageref
p1197
VGrey: Fifty Shades of Grey as Told By Christian
p1198
sVstartedDateTime
p1199
V2017-04-16T08:42:49.023-05:00
p1200
sVcache
p1201
(dp1202
sVrequest
p1203
(dp1204
Vcomment
p1205
g4
sVcookies
p1206
(lp1207
sVurl
p1208
Vhttps://www.google.com/xjs/_/js/k=xjs.qs.en_US.pCBXVCvTH3s.O/m=syl,syj,syn,em3,em8,em6,em7,sym,aa,abd,sy2g,sy2k,sy29,sy2j,sy2d,sy2a,sy2c,sy2f,sy2l,sy2m,sy2n,emd,async,sybn,sybi,sybo,sy1f,sy45,sy46,sy9w,sybk,sybj,sybp,sy1g,sy30,sy47,sybm,sybl,sybq,sy1h,sybh,dvl,syep,foot,ipv6,sy3d,sy2u,sy3u,sy5m,sy89,sy78,sy6e,sy79,sy8e,sy5g,sy88,sy9b,sy6f,sy7b,sy8i,sy5j,sy5h,sy6u,sy9e,sy7k,sy9d,sy6g,sy7c,sy8n,sy7d,sy7j,sy9a,sy9h,sy9i,sy7h,sy98,sy97,sy9g,sy8s,sy7e,sy9j,sy99,sy9f,sy9k,sy96,pla,sy32,emj,shm,sy5i,sy5k,sykh,tl,sy2x,sy2y,sy2t,sy38,em12,vs,sy66,sy67,sy4u,sy69,sykk,sykl,tnv,sy4d,sy4f,sy4e,sy8z,sbbl,sy23,sy24,sy9c,plasc,sy9m,syac,sy4g,sy9n,syhz,syl6,ssc,apmf,bct,sy1y,sy22,sy6i,sy34,sy31,sy6j,sy25,sy6l,sy6k,sy6h,emb,em9,ema,sy6m,qkx,syf5,syf4,sy26,syfc,syfn,syf7,syff,sy1i,sy68,sy8d,syf6,syfl,syfr,syfq,syfg,sy1j,sy4q,sy5o,sy5r,sy6n,sy6p,sy8h,syc7,syc8,syfb,syfj,syfs,syft,syg3,syg5,syg7,emn,emo,syg4,syg6,ivg,iuci,img,sy4c,sy4b,sy6w,shrb,syd7,dgm,sy41,tcc,sygq,kpc,kpci,sy6y,sycu,d3l,sya3,sya2,sy72,sya4,sykr,strm,sy4h,vrml,syj7,syj8,syj2,syjc,syj6,syj3,syjg,syjh,syje,syjd,syjk,syji,syjf,syj0,emr,ems,emt,emu,emv,emx,emy,emz,em10,em11,udlg,sy5z,atn,sy4i,sya1,ampfp/am=gCP4LtMEBXQA2RUaq_oFBISzAFA/rt=j/d=0/t=zcms/rs=ACT90oFwm4NZCwIcuuiqmthdlECdBzkhRA
p1209
sVqueryString
p1210
(lp1211
sVheaders
p1212
(lp1213
sVheadersSize
p1214
I1768
sVbodySize
p1215
I0
sVmethod
p1216
VGET
p1217
sVhttpVersion
p1218
VHTTP/1.1
p1219
ssVtimings
p1220
(dp1221
Vcomment
p1222
g4
sVreceive
p1223
I30
sVsend
p1224
I0
sVssl
p1225
I-1
sVconnect
p1226
I-1
sVdns
p1227
I-1
sVwait
p1228
I29
sVblocked
p1229
I-1
ssVtime
p1230
I60
sVresponse
p1231
(dp1232
Vstatus
p1233
I200
sVcomment
p1234
g4
sVcookies
p1235
(lp1236
sVstatusText
p1237
VOK
p1238
sVcontent
p1239
(dp1240
VmimeType
p1241
Vtext/javascript; charset=UTF-8
p1242
sVcomment
p1243
g4
sVsize
p1244
I0
ssVheaders
p1245
(lp1246
sVheadersSize
p1247
I464
sVredirectURL
p1248
g4
sVbodySize
p1249
I138977
sVhttpVersion
p1250
VHTTP/1.1
p1251
ssa(dp1252
Vcomment
p1253
g4
sVserverIPAddress
p1254
V216.58.216.206
p1255
sVpageref
p1256
VGrey: Fifty Shades of Grey as Told By Christian
p1257
sVstartedDateTime
p1258
V2017-04-16T08:42:49.109-05:00
p1259
sVcache
p1260
(dp1261
sVrequest
p1262
(dp1263
Vcomment
p1264
g4
sVcookies
p1265
(lp1266
sVurl
p1267
Vhttps://encrypted-tbn3.gstatic.com/images?q=tbn:ANd9GcQy8LMYpq50T5pqW28zo8O0YnY0aHvaHdWw0sqI4U6ldrrchKFTRLdnCJFyocqSV5d0l_4
p1268
sVqueryString
p1269
(lp1270
(dp1271
Vname
p1272
g617
sVvalue
p1273
Vtbn:ANd9GcQy8LMYpq50T5pqW28zo8O0YnY0aHvaHdWw0sqI4U6ldrrchKFTRLdnCJFyocqSV5d0l_4
p1274
sasVheaders
p1275
(lp1276
sVheadersSize
p1277
I438
sVbodySize
p1278
I0
sVmethod
p1279
VGET
p1280
sVhttpVersion
p1281
VHTTP/1.1
p1282
ssVtimings
p1283
(dp1284
Vcomment
p1285
g4
sVreceive
p1286
I0
sVsend
p1287
I0
sVssl
p1288
I22
sVconnect
p1289
I55
sVdns
p1290
I33
sVwait
p1291
I18
sVblocked
p1292
I0
ssVtime
p1293
I107
sVresponse
p1294
(dp1295
Vstatus
p1296
I200
sVcomment
p1297
g4
sVcookies
p1298
(lp1299
sVstatusText
p1300
VOK
p1301
sVcontent
p1302
(dp1303
VmimeType
p1304
Vimage/jpeg
p1305
sVcomment
p1306
g4
sVsize
p1307
I0
ssVheaders
p1308
(lp1309
sVheadersSize
p1310
I429
sVredirectURL
p1311
g4
sVbodySize
p1312
I2617
sVhttpVersion
p1313
VHTTP/1.1
p1314
ssa(dp1315
Vcomment
p1316
g4
sVserverIPAddress
p1317
V216.58.216.206
p1318
sVpageref
p1319
VGrey: Fifty Shades of Grey as Told By Christian
p1320
sVstartedDateTime
p1321
V2017-04-16T08:42:49.109-05:00
p1322
sVcache
p1323
(dp1324
sVrequest
p1325
(dp1326
Vcomment
p1327
g4
sVcookies
p1328
(lp1329
sVurl
p1330
Vhttps://encrypted-tbn3.gstatic.com/images?q=tbn:ANd9GcT3LjzmMgmk6SCSY4AQfYs2sqg6eaQq4Mkv46AXkXxlb1si2nDxHdX81auFnjApShJvlfk
p1331
sVqueryString
p1332
(lp1333
(dp1334
Vname
p1335
g617
sVvalue
p1336
Vtbn:ANd9GcT3LjzmMgmk6SCSY4AQfYs2sqg6eaQq4Mkv46AXkXxlb1si2nDxHdX81auFnjApShJvlfk
p1337
sasVheaders
p1338
(lp1339
sVheadersSize
p1340
I438
sVbodySize
p1341
I0
sVmethod
p1342
VGET
p1343
sVhttpVersion
p1344
VHTTP/1.1
p1345
ssVtimings
p1346
(dp1347
Vcomment
p1348
g4
sVreceive
p1349
I0
sVsend
p1350
I0
sVssl
p1351
I22
sVconnect
p1352
I53
sVdns
p1353
I32
sVwait
p1354
I18
sVblocked
p1355
I0
ssVtime
p1356
I105
sVresponse
p1357
(dp1358
Vstatus
p1359
I200
sVcomment
p1360
g4
sVcookies
p1361
(lp1362
sVstatusText
p1363
VOK
p1364
sVcontent
p1365
(dp1366
VmimeType
p1367
Vimage/jpeg
p1368
sVcomment
p1369
g4
sVsize
p1370
I0
ssVheaders
p1371
(lp1372
sVheadersSize
p1373
I429
sVredirectURL
p1374
g4
sVbodySize
p1375
I2561
sVhttpVersion
p1376
VHTTP/1.1
p1377
ssa(dp1378
Vcomment
p1379
g4
sVserverIPAddress
p1380
V172.217.6.4
p1381
sVpageref
p1382
VGrey: Fifty Shades of Grey as Told By Christian
p1383
sVstartedDateTime
p1384
V2017-04-16T08:42:49.272-05:00
p1385
sVcache
p1386
(dp1387
sVrequest
p1388
(dp1389
Vcomment
p1390
g4
sVcookies
p1391
(lp1392
sVurl
p1393
Vhttps://www.google.com/async/irc?vet=10ahUKEwiLp7TMjanTAhUC5IMKHWN9AUkQo0EIgwI..i&ved=0ahUKEwiLp7TMjanTAhUC5IMKHWN9AUkQo0EIgwI&ei=1nTzWIvkGoLIjwTj-oXIBA&yv=2&async=iu:1,ved:0ahUKEwiLp7TMjanTAhUC5IMKHWN9AUkQo0EIgwI,_id:irc_async,_pms:qs
p1394
sVqueryString
p1395
(lp1396
(dp1397
Vname
p1398
Vvet
p1399
sVvalue
p1400
V10ahUKEwiLp7TMjanTAhUC5IMKHWN9AUkQo0EIgwI..i
p1401
sa(dp1402
Vname
p1403
Vved
p1404
sVvalue
p1405
V0ahUKEwiLp7TMjanTAhUC5IMKHWN9AUkQo0EIgwI
p1406
sa(dp1407
Vname
p1408
Vei
p1409
sVvalue
p1410
V1nTzWIvkGoLIjwTj-oXIBA
p1411
sa(dp1412
Vname
p1413
Vyv
p1414
sVvalue
p1415
g64
sa(dp1416
Vname
p1417
Vasync
p1418
sVvalue
p1419
Viu:1,ved:0ahUKEwiLp7TMjanTAhUC5IMKHWN9AUkQo0EIgwI,_id:irc_async,_pms:qs
p1420
sasVheaders
p1421
(lp1422
sVheadersSize
p1423
I752
sVbodySize
p1424
I0
sVmethod
p1425
VGET
p1426
sVhttpVersion
p1427
VHTTP/1.1
p1428
ssVtimings
p1429
(dp1430
Vcomment
p1431
g4
sVreceive
p1432
I2
sVsend
p1433
I0
sVssl
p1434
I-1
sVconnect
p1435
I-1
sVdns
p1436
I-1
sVwait
p1437
I41
sVblocked
p1438
I-1
ssVtime
p1439
I44
sVresponse
p1440
(dp1441
Vstatus
p1442
I200
sVcomment
p1443
g4
sVcookies
p1444
(lp1445
sVstatusText
p1446
VOK
p1447
sVcontent
p1448
(dp1449
VmimeType
p1450
Vtext/html; charset=UTF-8
p1451
sVcomment
p1452
g4
sVsize
p1453
I0
ssVheaders
p1454
(lp1455
sVheadersSize
p1456
I383
sVredirectURL
p1457
g4
sVbodySize
p1458
I7792
sVhttpVersion
p1459
VHTTP/1.1
p1460
ssa(dp1461
Vcomment
p1462
g4
sVserverIPAddress
p1463
V172.217.6.4
p1464
sVpageref
p1465
VGrey: Fifty Shades of Grey as Told By Christian
p1466
sVstartedDateTime
p1467
V2017-04-16T08:42:49.397-05:00
p1468
sVcache
p1469
(dp1470
sVrequest
p1471
(dp1472
Vcomment
p1473
g4
sVcookies
p1474
(lp1475
sVurl
p1476
Vhttps://www.google.com/async/ampfp?vet=10ahUKEwiLp7TMjanTAhUC5IMKHWN9AUkQtZoBCIEC..i&ei=1nTzWIvkGoLIjwTj-oXIBA&yv=2&async=_id:ampfp-async,_pms:qs
p1477
sVqueryString
p1478
(lp1479
(dp1480
Vname
p1481
Vvet
p1482
sVvalue
p1483
V10ahUKEwiLp7TMjanTAhUC5IMKHWN9AUkQtZoBCIEC..i
p1484
sa(dp1485
Vname
p1486
Vei
p1487
sVvalue
p1488
V1nTzWIvkGoLIjwTj-oXIBA
p1489
sa(dp1490
Vname
p1491
Vyv
p1492
sVvalue
p1493
g64
sa(dp1494
Vname
p1495
Vasync
p1496
sVvalue
p1497
V_id:ampfp-async,_pms:qs
p1498
sasVheaders
p1499
(lp1500
sVheadersSize
p1501
I662
sVbodySize
p1502
I0
sVmethod
p1503
VGET
p1504
sVhttpVersion
p1505
VHTTP/1.1
p1506
ssVtimings
p1507
(dp1508
Vcomment
p1509
g4
sVreceive
p1510
I1
sVsend
p1511
I0
sVssl
p1512
I-1
sVconnect
p1513
I-1
sVdns
p1514
I-1
sVwait
p1515
I38
sVblocked
p1516
I-1
ssVtime
p1517
I39
sVresponse
p1518
(dp1519
Vstatus
p1520
I200
sVcomment
p1521
g4
sVcookies
p1522
(lp1523
sVstatusText
p1524
VOK
p1525
sVcontent
p1526
(dp1527
VmimeType
p1528
Vtext/html; charset=UTF-8
p1529
sVcomment
p1530
g4
sVsize
p1531
I0
ssVheaders
p1532
(lp1533
sVheadersSize
p1534
I383
sVredirectURL
p1535
g4
sVbodySize
p1536
I4526
sVhttpVersion
p1537
VHTTP/1.1
p1538
ssa(dp1539
Vcomment
p1540
g4
sVserverIPAddress
p1541
V216.58.216.193
p1542
sVpageref
p1543
VGrey: Fifty Shades of Grey as Told By Christian
p1544
sVstartedDateTime
p1545
V2017-04-16T08:42:49.397-05:00
p1546
sVcache
p1547
(dp1548
sVrequest
p1549
(dp1550
Vcomment
p1551
g4
sVcookies
p1552
(lp1553
sVurl
p1554
Vhttps://cdn.ampproject.org/preconnect.gif?0.0037169357927364644
p1555
sVqueryString
p1556
(lp1557
(dp1558
Vname
p1559
V0.0037169357927364644
p1560
sVvalue
p1561
g4
sasVheaders
p1562
(lp1563
sVheadersSize
p1564
I378
sVbodySize
p1565
I0
sVmethod
p1566
VGET
p1567
sVhttpVersion
p1568
VHTTP/1.1
p1569
ssVtimings
p1570
(dp1571
Vcomment
p1572
g4
sVreceive
p1573
I0
sVsend
p1574
I0
sVssl
p1575
I-1
sVconnect
p1576
I-1
sVdns
p1577
I-1
sVwait
p1578
I27
sVblocked
p1579
I-1
ssVtime
p1580
I27
sVresponse
p1581
(dp1582
Vstatus
p1583
I200
sVcomment
p1584
g4
sVcookies
p1585
(lp1586
sVstatusText
p1587
VOK
p1588
sVcontent
p1589
(dp1590
VmimeType
p1591
Vimage/gif
p1592
sVcomment
p1593
g4
sVsize
p1594
I0
ssVheaders
p1595
(lp1596
sVheadersSize
p1597
I826
sVredirectURL
p1598
g4
sVbodySize
p1599
I37
sVhttpVersion
p1600
VHTTP/1.1
p1601
ssa(dp1602
Vcomment
p1603
g4
sVserverIPAddress
p1604
V172.217.6.4
p1605
sVpageref
p1606
VGrey: Fifty Shades of Grey as Told By Christian
p1607
sVstartedDateTime
p1608
V2017-04-16T08:42:49.605-05:00
p1609
sVcache
p1610
(dp1611
sVrequest
p1612
(dp1613
Vcomment
p1614
g4
sVcookies
p1615
(lp1616
sVurl
p1617
Vhttps://www.google.com/xjs/_/js/k=xjs.qs.en_US.pCBXVCvTH3s.O/m=idg,syfu,ish,ivw,syi2,syi5,syi4,fpv,sy48,sy3a,sy3c,sy5b,sy4x,sy4z,sy56,sy4y,sy5d,sya8,sy5e,sy91,sya6,sya7,sya9,amp,sp/am=gCP4LtMEBXQA2RUaq_oFBISzAFA/rt=j/d=0/t=zcms/rs=ACT90oFwm4NZCwIcuuiqmthdlECdBzkhRA
p1618
sVqueryString
p1619
(lp1620
sVheaders
p1621
(lp1622
sVheadersSize
p1623
I782
sVbodySize
p1624
I0
sVmethod
p1625
VGET
p1626
sVhttpVersion
p1627
VHTTP/1.1
p1628
ssVtimings
p1629
(dp1630
Vcomment
p1631
g4
sVreceive
p1632
I5
sVsend
p1633
I0
sVssl
p1634
I-1
sVconnect
p1635
I-1
sVdns
p1636
I-1
sVwait
p1637
I24
sVblocked
p1638
I-1
ssVtime
p1639
I30
sVresponse
p1640
(dp1641
Vstatus
p1642
I200
sVcomment
p1643
g4
sVcookies
p1644
(lp1645
sVstatusText
p1646
VOK
p1647
sVcontent
p1648
(dp1649
VmimeType
p1650
Vtext/javascript; charset=UTF-8
p1651
sVcomment
p1652
g4
sVsize
p1653
I0
ssVheaders
p1654
(lp1655
sVheadersSize
p1656
I464
sVredirectURL
p1657
g4
sVbodySize
p1658
I53505
sVhttpVersion
p1659
VHTTP/1.1
p1660
ssa(dp1661
Vcomment
p1662
g4
sVserverIPAddress
p1663
V172.217.6.4
p1664
sVpageref
p1665
VGrey: Fifty Shades of Grey as Told By Christian
p1666
sVstartedDateTime
p1667
V2017-04-16T08:42:50.875-05:00
p1668
sVcache
p1669
(dp1670
sVrequest
p1671
(dp1672
Vcomment
p1673
g4
sVcookies
p1674
(lp1675
sVurl
p1676
Vhttps://www.google.com/async/log_amp_item_set?vet=10ahUKEwjt7qrNjanTAhXDz4MKHZx5B3QQooQBCAE..i&ei=1nTzWIvkGoLIjwTj-oXIBA&yv=2&async=num_items:1,_fmt:jspb
p1677
sVqueryString
p1678
(lp1679
(dp1680
Vname
p1681
Vvet
p1682
sVvalue
p1683
V10ahUKEwjt7qrNjanTAhXDz4MKHZx5B3QQooQBCAE..i
p1684
sa(dp1685
Vname
p1686
Vei
p1687
sVvalue
p1688
V1nTzWIvkGoLIjwTj-oXIBA
p1689
sa(dp1690
Vname
p1691
Vyv
p1692
sVvalue
p1693
g64
sa(dp1694
Vname
p1695
Vasync
p1696
sVvalue
p1697
Vnum_items:1,_fmt:jspb
p1698
sasVheaders
p1699
(lp1700
sVheadersSize
p1701
I670
sVbodySize
p1702
I0
sVmethod
p1703
VGET
p1704
sVhttpVersion
p1705
VHTTP/1.1
p1706
ssVtimings
p1707
(dp1708
Vcomment
p1709
g4
sVreceive
p1710
I0
sVsend
p1711
I0
sVssl
p1712
I-1
sVconnect
p1713
I-1
sVdns
p1714
I-1
sVwait
p1715
I36
sVblocked
p1716
I-1
ssVtime
p1717
I36
sVresponse
p1718
(dp1719
Vstatus
p1720
I200
sVcomment
p1721
g4
sVcookies
p1722
(lp1723
sVstatusText
p1724
VOK
p1725
sVcontent
p1726
(dp1727
VmimeType
p1728
Vapplication/json; charset=UTF-8
p1729
sVcomment
p1730
g4
sVsize
p1731
I0
ssVheaders
p1732
(lp1733
sVheadersSize
p1734
I417
sVredirectURL
p1735
g4
sVbodySize
p1736
I132
sVhttpVersion
p1737
VHTTP/1.1
p1738
ssa(dp1739
Vcomment
p1740
g4
sVserverIPAddress
p1741
V216.58.216.193
p1742
sVpageref
p1743
VGrey: Fifty Shades of Grey as Told By Christian
p1744
sVstartedDateTime
p1745
V2017-04-16T08:42:51.140-05:00
p1746
sVcache
p1747
(dp1748
sVrequest
p1749
(dp1750
Vcomment
p1751
g4
sVcookies
p1752
(lp1753
sVurl
p1754
Vhttps://www-latimes-com.cdn.ampproject.org/v/www.latimes.com/books/jacketcopy/la-et-jc-fifty-shades-darker-grey-20160912-snap-story,amp.html?amp_js_v=9
p1755
sVqueryString
p1756
(lp1757
(dp1758
Vname
p1759
Vamp_js_v
p1760
sVvalue
p1761
V9
p1762
sasVheaders
p1763
(lp1764
sVheadersSize
p1765
I556
sVbodySize
p1766
I0
sVmethod
p1767
VGET
p1768
sVhttpVersion
p1769
VHTTP/1.1
p1770
ssVtimings
p1771
(dp1772
Vcomment
p1773
g4
sVreceive
p1774
I0
sVsend
p1775
I0
sVssl
p1776
I208
sVconnect
p1777
I224
sVdns
p1778
I32
sVwait
p1779
I71
sVblocked
p1780
I0
ssVtime
p1781
I328
sVresponse
p1782
(dp1783
Vstatus
p1784
I200
sVcomment
p1785
g4
sVcookies
p1786
(lp1787
sVstatusText
p1788
VOK
p1789
sVcontent
p1790
(dp1791
VmimeType
p1792
Vtext/html
p1793
sVcomment
p1794
g4
sVsize
p1795
I0
ssVheaders
p1796
(lp1797
sVheadersSize
p1798
I860
sVredirectURL
p1799
g4
sVbodySize
p1800
I9493
sVhttpVersion
p1801
VHTTP/1.1
p1802
ssa(dp1803
Vcomment
p1804
g4
sVserverIPAddress
p1805
V216.58.216.193
p1806
sVpageref
p1807
VGrey: Fifty Shades of Grey as Told By Christian
p1808
sVstartedDateTime
p1809
V2017-04-16T08:42:51.231-05:00
p1810
sVcache
p1811
(dp1812
sVrequest
p1813
(dp1814
Vcomment
p1815
g4
sVcookies
p1816
(lp1817
sVurl
p1818
Vhttps://www-latimes-com.cdn.ampproject.org/i/www.latimes.com/as/prod/lanews/images/logo_amp.1q2w3_e4215398151c02d39eda0551a168955a.svg
p1819
sVqueryString
p1820
(lp1821
sVheaders
p1822
(lp1823
sVheadersSize
p1824
I577
sVbodySize
p1825
I0
sVmethod
p1826
VGET
p1827
sVhttpVersion
p1828
VHTTP/1.1
p1829
ssVtimings
p1830
(dp1831
Vcomment
p1832
g4
sVreceive
p1833
I0
sVsend
p1834
I0
sVssl
p1835
I-1
sVconnect
p1836
I-1
sVdns
p1837
I-1
sVwait
p1838
I25
sVblocked
p1839
I-1
ssVtime
p1840
I25
sVresponse
p1841
(dp1842
Vstatus
p1843
I200
sVcomment
p1844
g4
sVcookies
p1845
(lp1846
sVstatusText
p1847
VOK
p1848
sVcontent
p1849
(dp1850
VmimeType
p1851
Vimage/svg+xml
p1852
sVcomment
p1853
g4
sVsize
p1854
I0
ssVheaders
p1855
(lp1856
sVheadersSize
p1857
I881
sVredirectURL
p1858
g4
sVbodySize
p1859
I3695
sVhttpVersion
p1860
VHTTP/1.1
p1861
ssa(dp1862
Vcomment
p1863
g4
sVserverIPAddress
p1864
V172.217.6.4
p1865
sVpageref
p1866
VGrey: Fifty Shades of Grey as Told By Christian
p1867
sVstartedDateTime
p1868
V2017-04-16T08:42:51.438-05:00
p1869
sVcache
p1870
(dp1871
sVrequest
p1872
(dp1873
Vcomment
p1874
g4
sVcookies
p1875
(lp1876
sVurl
p1877
Vhttps://www.google.com/gen_204?s=web&atyp=csi&ei=1nTzWIvkGoLIjwTj-oXIBA&imc=50&imn=50&imp=16&adh=tv.294&xjs=init.43.15.sb_mob.31.dvl.4.pla.4.c.1.r.1&ima=11&rt=prt.1070,iml.1096,xjsls.1071,qiml.1292,dcl.1113,xjses.1267,xjsee.1436,xjs.1436,ol.3846,aft.1096,wsrt.130,cst.0,dnst.0,rqst.1122,rspt.1018,rqstt.4,unt.4,cstt.4,dit.1219
p1878
sVqueryString
p1879
(lp1880
(dp1881
Vname
p1882
g57
sVvalue
p1883
Vweb
p1884
sa(dp1885
Vname
p1886
Vatyp
p1887
sVvalue
p1888
Vcsi
p1889
sa(dp1890
Vname
p1891
Vei
p1892
sVvalue
p1893
V1nTzWIvkGoLIjwTj-oXIBA
p1894
sa(dp1895
Vname
p1896
Vimc
p1897
sVvalue
p1898
V50
p1899
sa(dp1900
Vname
p1901
Vimn
p1902
sVvalue
p1903
V50
p1904
sa(dp1905
Vname
p1906
Vimp
p1907
sVvalue
p1908
V16
p1909
sa(dp1910
Vname
p1911
Vadh
p1912
sVvalue
p1913
Vtv.294
p1914
sa(dp1915
Vname
p1916
Vxjs
p1917
sVvalue
p1918
Vinit.43.15.sb_mob.31.dvl.4.pla.4.c.1.r.1
p1919
sa(dp1920
Vname
p1921
Vima
p1922
sVvalue
p1923
V11
p1924
sa(dp1925
Vname
p1926
Vrt
p1927
sVvalue
p1928
Vprt.1070,iml.1096,xjsls.1071,qiml.1292,dcl.1113,xjses.1267,xjsee.1436,xjs.1436,ol.3846,aft.1096,wsrt.130,cst.0,dnst.0,rqst.1122,rspt.1018,rqstt.4,unt.4,cstt.4,dit.1219
p1929
sasVheaders
p1930
(lp1931
sVheadersSize
p1932
I843
sVbodySize
p1933
I0
sVmethod
p1934
VGET
p1935
sVhttpVersion
p1936
VHTTP/1.1
p1937
ssVtimings
p1938
(dp1939
Vcomment
p1940
g4
sVreceive
p1941
I0
sVsend
p1942
I0
sVssl
p1943
I-1
sVconnect
p1944
I-1
sVdns
p1945
I-1
sVwait
p1946
I29
sVblocked
p1947
I-1
ssVtime
p1948
I29
sVresponse
p1949
(dp1950
Vstatus
p1951
I204
sVcomment
p1952
g4
sVcookies
p1953
(lp1954
sVstatusText
p1955
VNo Content
p1956
sVcontent
p1957
(dp1958
VmimeType
p1959
Vtext/html; charset=UTF-8
p1960
sVcomment
p1961
g4
sVsize
p1962
I0
ssVheaders
p1963
(lp1964
sVheadersSize
p1965
I248
sVredirectURL
p1966
g4
sVbodySize
p1967
I0
sVhttpVersion
p1968
VHTTP/1.1
p1969
ssa(dp1970
Vcomment
p1971
g4
sVserverIPAddress
p1972
V172.217.6.4
p1973
sVpageref
p1974
VGrey: Fifty Shades of Grey as Told By Christian
p1975
sVstartedDateTime
p1976
V2017-04-16T08:42:51.511-05:00
p1977
sVcache
p1978
(dp1979
sVrequest
p1980
(dp1981
Vcomment
p1982
g4
sVcookies
p1983
(lp1984
sVurl
p1985
Vhttps://www.google.com/gen_204?atyp=i&ct=slh&cad=&ei=wHTzWPS_EYnbjwTUw6-YDA&m=V&t=C&s=1&v=2&pv=0.17654331979349303&me=1:1492350147655,x:2,V,0,0,1280,944:0,N,1,wHTzWPS_EYnbjwTUw6-YDA:0,R,1,24,8,155,1249,1023:0,R,1,25,8,155,1249,1023:0,R,1,30,1185,155,72,116:0,R,1,39,8,193,1177,40:0,R,1,56,8,319,1249,48:0,R,1,58,8,367,1249,72:0,R,1,66,8,456,1249,40:0,R,1,67,24,456,1217,40:0,R,1,70,8,512,1249,20:0,R,1,104,8,552,1249,310:0,R,1,105,0,597,1265,285:0,R,1,128,8,907,1249,204:0,R,1,129,0,907,1265,224:3,B,4705:18072,e,U&zx=1492350171509
p1986
sVqueryString
p1987
(lp1988
(dp1989
Vname
p1990
Vatyp
p1991
sVvalue
p1992
g30
sa(dp1993
Vname
p1994
Vct
p1995
sVvalue
p1996
Vslh
p1997
sa(dp1998
Vname
p1999
Vcad
p2000
sVvalue
p2001
g4
sa(dp2002
Vname
p2003
Vei
p2004
sVvalue
p2005
VwHTzWPS_EYnbjwTUw6-YDA
p2006
sa(dp2007
Vname
p2008
g47
sVvalue
p2009
g49
sa(dp2010
Vname
p2011
g52
sVvalue
p2012
g54
sa(dp2013
Vname
p2014
g57
sVvalue
p2015
g59
sa(dp2016
Vname
p2017
g62
sVvalue
p2018
g64
sa(dp2019
Vname
p2020
Vpv
p2021
sVvalue
p2022
V0.17654331979349303
p2023
sa(dp2024
Vname
p2025
Vme
p2026
sVvalue
p2027
V1:1492350147655,x:2,V,0,0,1280,944:0,N,1,wHTzWPS_EYnbjwTUw6-YDA:0,R,1,24,8,155,1249,1023:0,R,1,25,8,155,1249,1023:0,R,1,30,1185,155,72,116:0,R,1,39,8,193,1177,40:0,R,1,56,8,319,1249,48:0,R,1,58,8,367,1249,72:0,R,1,66,8,456,1249,40:0,R,1,67,24,456,1217,40:0,R,1,70,8,512,1249,20:0,R,1,104,8,552,1249,310:0,R,1,105,0,597,1265,285:0,R,1,128,8,907,1249,204:0,R,1,129,0,907,1265,224:3,B,4705:18072,e,U
p2028
sa(dp2029
Vname
p2030
Vzx
p2031
sVvalue
p2032
V1492350171509
p2033
sasVheaders
p2034
(lp2035
sVheadersSize
p2036
I1048
sVbodySize
p2037
I0
sVmethod
p2038
VGET
p2039
sVhttpVersion
p2040
VHTTP/1.1
p2041
ssVtimings
p2042
(dp2043
Vcomment
p2044
g4
sVreceive
p2045
I0
sVsend
p2046
I0
sVssl
p2047
I-1
sVconnect
p2048
I-1
sVdns
p2049
I-1
sVwait
p2050
I32
sVblocked
p2051
I-1
ssVtime
p2052
I33
sVresponse
p2053
(dp2054
Vstatus
p2055
I204
sVcomment
p2056
g4
sVcookies
p2057
(lp2058
sVstatusText
p2059
VNo Content
p2060
sVcontent
p2061
(dp2062
VmimeType
p2063
Vtext/html; charset=UTF-8
p2064
sVcomment
p2065
g4
sVsize
p2066
I0
ssVheaders
p2067
(lp2068
sVheadersSize
p2069
I248
sVredirectURL
p2070
g4
sVbodySize
p2071
I0
sVhttpVersion
p2072
VHTTP/1.1
p2073
ssasVversion
p2074
V1.2
p2075
sVpages
p2076
(lp2077
(dp2078
VpageTimings
p2079
(dp2080
Vcomment
p2081
g4
ssVcomment
p2082
g4
sVtitle
p2083
VGrey: Fifty Shades of Grey as Told By Christian
p2084
sVid
p2085
VGrey: Fifty Shades of Grey as Told By Christian
p2086
sVstartedDateTime
p2087
V2017-04-16T08:42:45.724-05:00
p2088
sasVcreator
p2089
(dp2090
Vcomment
p2091
g4
sVversion
p2092
V2.1.4
p2093
sVname
p2094
VBrowserMob Proxy
p2095
sss.