(dp0
Vlog
p1
(dp2
Vcomment
p3
V
p4
sVentries
p5
(lp6
(dp7
Vcomment
p8
g4
sVserverIPAddress
p9
V216.58.216.196
p10
sVpageref
p11
VBrussels
p12
sVstartedDateTime
p13
V2017-04-16T08:00:56.874-05:00
p14
sVcache
p15
(dp16
sVrequest
p17
(dp18
Vcomment
p19
g4
sVcookies
p20
(lp21
sVurl
p22
Vhttps://www.google.com/gen_204?atyp=i&ct=slh&cad=&ei=9WrzWPyaNZ6gjwTVk6CoDw&m=V&t=C&s=1&v=2&pv=0.7055788370910112&me=1:1492347640349,x:1,V,0,0,1280,944:0,N,1,9WrzWPyaNZ6gjwTVk6CoDw:0,R,1,24,8,155,1249,445:0,R,1,28,8,268,1249,332:0,R,1,29,0,269,1265,351:0,R,1,60,8,610,1249,421:0,R,1,61,8,610,1249,421:0,R,1,62,0,654,1265,397:2,B,4158:16520,e,U&zx=1492347656873
p23
sVqueryString
p24
(lp25
(dp26
Vname
p27
Vatyp
p28
sVvalue
p29
Vi
p30
sa(dp31
Vname
p32
Vct
p33
sVvalue
p34
Vslh
p35
sa(dp36
Vname
p37
Vcad
p38
sVvalue
p39
g4
sa(dp40
Vname
p41
Vei
p42
sVvalue
p43
V9WrzWPyaNZ6gjwTVk6CoDw
p44
sa(dp45
Vname
p46
Vm
p47
sVvalue
p48
VV
p49
sa(dp50
Vname
p51
Vt
p52
sVvalue
p53
VC
p54
sa(dp55
Vname
p56
Vs
p57
sVvalue
p58
V1
p59
sa(dp60
Vname
p61
Vv
p62
sVvalue
p63
V2
p64
sa(dp65
Vname
p66
Vpv
p67
sVvalue
p68
V0.7055788370910112
p69
sa(dp70
Vname
p71
Vme
p72
sVvalue
p73
V1:1492347640349,x:1,V,0,0,1280,944:0,N,1,9WrzWPyaNZ6gjwTVk6CoDw:0,R,1,24,8,155,1249,445:0,R,1,28,8,268,1249,332:0,R,1,29,0,269,1265,351:0,R,1,60,8,610,1249,421:0,R,1,61,8,610,1249,421:0,R,1,62,0,654,1265,397:2,B,4158:16520,e,U
p74
sa(dp75
Vname
p76
Vzx
p77
sVvalue
p78
V1492347656873
p79
sasVheaders
p80
(lp81
sVheadersSize
p82
I877
sVbodySize
p83
I0
sVmethod
p84
VGET
p85
sVhttpVersion
p86
VHTTP/1.1
p87
ssVtimings
p88
(dp89
Vcomment
p90
g4
sVreceive
p91
I0
sVsend
p92
I0
sVssl
p93
I-1
sVconnect
p94
I-1
sVdns
p95
I-1
sVwait
p96
I0
sVblocked
p97
I-1
ssVtime
p98
I0
sVresponse
p99
(dp100
Vstatus
p101
I0
sVcomment
p102
g4
sVcookies
p103
(lp104
sV_error
p105
VNo response received
p106
sVstatusText
p107
g4
sVcontent
p108
(dp109
VmimeType
p110
g4
sVcomment
p111
g4
sVsize
p112
I0
ssVheaders
p113
(lp114
sVheadersSize
p115
I-1
sVredirectURL
p116
g4
sVbodySize
p117
I-1
sVhttpVersion
p118
Vunknown
p119
ssa(dp120
Vcomment
p121
g4
sVserverIPAddress
p122
V216.58.216.196
p123
sVpageref
p124
VBrussels
p125
sVstartedDateTime
p126
V2017-04-16T08:00:56.877-05:00
p127
sVcache
p128
(dp129
sVrequest
p130
(dp131
Vcomment
p132
g4
sVcookies
p133
(lp134
sVurl
p135
Vhttp://www.google.com/
p136
sVqueryString
p137
(lp138
sVheaders
p139
(lp140
sVheadersSize
p141
I613
sVbodySize
p142
I0
sVmethod
p143
VGET
p144
sVhttpVersion
p145
VHTTP/1.1
p146
ssVtimings
p147
(dp148
Vcomment
p149
g4
sVreceive
p150
I0
sVsend
p151
I0
sVssl
p152
I-1
sVconnect
p153
I-1
sVdns
p154
I-1
sVwait
p155
I39
sVblocked
p156
I-1
ssVtime
p157
I39
sVresponse
p158
(dp159
Vstatus
p160
I302
sVcomment
p161
g4
sVcookies
p162
(lp163
sVstatusText
p164
VFound
p165
sVcontent
p166
(dp167
VmimeType
p168
Vtext/html; charset=UTF-8
p169
sVcomment
p170
g4
sVsize
p171
I0
ssVheaders
p172
(lp173
sVheadersSize
p174
I609
sVredirectURL
p175
Vhttps://www.google.com/?gws_rd=ssl
p176
sVbodySize
p177
I231
sVhttpVersion
p178
VHTTP/1.1
p179
ssa(dp180
Vcomment
p181
g4
sVserverIPAddress
p182
V216.58.216.196
p183
sVpageref
p184
VBrussels
p185
sVstartedDateTime
p186
V2017-04-16T08:00:56.919-05:00
p187
sVcache
p188
(dp189
sVrequest
p190
(dp191
Vcomment
p192
g4
sVcookies
p193
(lp194
sVurl
p195
Vhttps://www.google.com/?gws_rd=ssl
p196
sVqueryString
p197
(lp198
(dp199
Vname
p200
Vgws_rd
p201
sVvalue
p202
Vssl
p203
sasVheaders
p204
(lp205
sVheadersSize
p206
I607
sVbodySize
p207
I0
sVmethod
p208
VGET
p209
sVhttpVersion
p210
VHTTP/1.1
p211
ssVtimings
p212
(dp213
Vcomment
p214
g4
sVreceive
p215
I5
sVsend
p216
I0
sVssl
p217
I-1
sVconnect
p218
I-1
sVdns
p219
I-1
sVwait
p220
I84
sVblocked
p221
I-1
ssVtime
p222
I90
sVresponse
p223
(dp224
Vstatus
p225
I200
sVcomment
p226
g4
sVcookies
p227
(lp228
sVstatusText
p229
VOK
p230
sVcontent
p231
(dp232
VmimeType
p233
Vtext/html; charset=UTF-8
p234
sVcomment
p235
g4
sVsize
p236
I0
ssVheaders
p237
(lp238
sVheadersSize
p239
I721
sVredirectURL
p240
g4
sVbodySize
p241
I34293
sVhttpVersion
p242
VHTTP/1.1
p243
ssa(dp244
Vcomment
p245
g4
sVserverIPAddress
p246
V216.58.216.196
p247
sVpageref
p248
VBrussels
p249
sVstartedDateTime
p250
V2017-04-16T08:00:57.171-05:00
p251
sVcache
p252
(dp253
sVrequest
p254
(dp255
Vcomment
p256
g4
sVcookies
p257
(lp258
sVurl
p259
Vhttps://www.google.com/gen_204?s=mobilewebhp&atyp=csi&ei=B2vzWM_kOefAjwTSgbywCg&imc=1&imn=1&imp=0&adh=&xjs=init.18.12.sb_mob.15.dvl.2.mbsf.1.TG8rFw.0.c.0&ima=1&rt=xjsls.8,prt.8,iml.8,dcl.25,xjses.57,xjsee.122,xjs.123,ol.148,aft.8,wsrt.147,cst.0,dnst.0,rqst.92,rspt.7,rqstt.46,unt.45,cstt.45,dit.163
p260
sVqueryString
p261
(lp262
(dp263
Vname
p264
g57
sVvalue
p265
Vmobilewebhp
p266
sa(dp267
Vname
p268
Vatyp
p269
sVvalue
p270
Vcsi
p271
sa(dp272
Vname
p273
Vei
p274
sVvalue
p275
VB2vzWM_kOefAjwTSgbywCg
p276
sa(dp277
Vname
p278
Vimc
p279
sVvalue
p280
g59
sa(dp281
Vname
p282
Vimn
p283
sVvalue
p284
g59
sa(dp285
Vname
p286
Vimp
p287
sVvalue
p288
V0
p289
sa(dp290
Vname
p291
Vadh
p292
sVvalue
p293
g4
sa(dp294
Vname
p295
Vxjs
p296
sVvalue
p297
Vinit.18.12.sb_mob.15.dvl.2.mbsf.1.TG8rFw.0.c.0
p298
sa(dp299
Vname
p300
Vima
p301
sVvalue
p302
g59
sa(dp303
Vname
p304
Vrt
p305
sVvalue
p306
Vxjsls.8,prt.8,iml.8,dcl.25,xjses.57,xjsee.122,xjs.123,ol.148,aft.8,wsrt.147,cst.0,dnst.0,rqst.92,rspt.7,rqstt.46,unt.45,cstt.45,dit.163
p307
sasVheaders
p308
(lp309
sVheadersSize
p310
I826
sVbodySize
p311
I0
sVmethod
p312
VGET
p313
sVhttpVersion
p314
VHTTP/1.1
p315
ssVtimings
p316
(dp317
Vcomment
p318
g4
sVreceive
p319
I0
sVsend
p320
I0
sVssl
p321
I-1
sVconnect
p322
I-1
sVdns
p323
I-1
sVwait
p324
I25
sVblocked
p325
I-1
ssVtime
p326
I26
sVresponse
p327
(dp328
Vstatus
p329
I204
sVcomment
p330
g4
sVcookies
p331
(lp332
sVstatusText
p333
VNo Content
p334
sVcontent
p335
(dp336
VmimeType
p337
Vtext/html; charset=UTF-8
p338
sVcomment
p339
g4
sVsize
p340
I0
ssVheaders
p341
(lp342
sVheadersSize
p343
I248
sVredirectURL
p344
g4
sVbodySize
p345
I0
sVhttpVersion
p346
VHTTP/1.1
p347
ssa(dp348
Vcomment
p349
g4
sVserverIPAddress
p350
V216.58.216.196
p351
sVpageref
p352
VBrussels
p353
sVstartedDateTime
p354
V2017-04-16T08:00:57.306-05:00
p355
sVcache
p356
(dp357
sVrequest
p358
(dp359
Vcomment
p360
g4
sVcookies
p361
(lp362
sVurl
p363
Vhttps://www.google.com/complete/search?client=mobile-gws-hp&hl=en&gs_rn=64&gs_ri=mobile-gws-hp&sla=1&pfq=brexit&gm=602&cp=0&gs_id=1&xhr=t&q=B&tch=1&ech=1&psi=B2vzWM_kOefAjwTSgbywCg.1492347657121.1
p364
sVqueryString
p365
(lp366
(dp367
Vname
p368
Vclient
p369
sVvalue
p370
Vmobile-gws-hp
p371
sa(dp372
Vname
p373
Vhl
p374
sVvalue
p375
Ven
p376
sa(dp377
Vname
p378
Vgs_rn
p379
sVvalue
p380
V64
p381
sa(dp382
Vname
p383
Vgs_ri
p384
sVvalue
p385
Vmobile-gws-hp
p386
sa(dp387
Vname
p388
Vsla
p389
sVvalue
p390
g59
sa(dp391
Vname
p392
Vpfq
p393
sVvalue
p394
Vbrexit
p395
sa(dp396
Vname
p397
Vgm
p398
sVvalue
p399
V602
p400
sa(dp401
Vname
p402
Vcp
p403
sVvalue
p404
g289
sa(dp405
Vname
p406
Vgs_id
p407
sVvalue
p408
g59
sa(dp409
Vname
p410
Vxhr
p411
sVvalue
p412
g52
sa(dp413
Vname
p414
Vq
p415
sVvalue
p416
VB
p417
sa(dp418
Vname
p419
Vtch
p420
sVvalue
p421
g59
sa(dp422
Vname
p423
Vech
p424
sVvalue
p425
g59
sa(dp426
Vname
p427
Vpsi
p428
sVvalue
p429
VB2vzWM_kOefAjwTSgbywCg.1492347657121.1
p430
sasVheaders
p431
(lp432
sVheadersSize
p433
I724
sVbodySize
p434
I0
sVmethod
p435
VGET
p436
sVhttpVersion
p437
VHTTP/1.1
p438
ssVtimings
p439
(dp440
Vcomment
p441
g4
sVreceive
p442
I0
sVsend
p443
I0
sVssl
p444
I-1
sVconnect
p445
I-1
sVdns
p446
I-1
sVwait
p447
I0
sVblocked
p448
I-1
ssVtime
p449
I0
sVresponse
p450
(dp451
Vstatus
p452
I0
sVcomment
p453
g4
sVcookies
p454
(lp455
sV_error
p456
VNo response received
p457
sVstatusText
p458
g4
sVcontent
p459
(dp460
VmimeType
p461
g4
sVcomment
p462
g4
sVsize
p463
I0
ssVheaders
p464
(lp465
sVheadersSize
p466
I-1
sVredirectURL
p467
g4
sVbodySize
p468
I-1
sVhttpVersion
p469
Vunknown
p470
ssa(dp471
Vcomment
p472
g4
sVserverIPAddress
p473
V216.58.216.196
p474
sVpageref
p475
VBrussels
p476
sVstartedDateTime
p477
V2017-04-16T08:00:57.402-05:00
p478
sVcache
p479
(dp480
sVrequest
p481
(dp482
Vcomment
p483
g4
sVcookies
p484
(lp485
sVurl
p486
Vhttps://www.google.com/search?site=&source=hp&ei=B2vzWM_kOefAjwTSgbywCg&q=Brussels&oq=Brussels&gs_l=mobile-gws-hp.3...167.190.0.222.8.1.0.0.0.0.0.0..0.0....0...1c.1.64.mobile-gws-hp..8.0.0.deLJM7YkrcY
p487
sVqueryString
p488
(lp489
(dp490
Vname
p491
Vsite
p492
sVvalue
p493
g4
sa(dp494
Vname
p495
Vsource
p496
sVvalue
p497
Vhp
p498
sa(dp499
Vname
p500
Vei
p501
sVvalue
p502
VB2vzWM_kOefAjwTSgbywCg
p503
sa(dp504
Vname
p505
g415
sVvalue
p506
VBrussels
p507
sa(dp508
Vname
p509
Voq
p510
sVvalue
p511
VBrussels
p512
sa(dp513
Vname
p514
Vgs_l
p515
sVvalue
p516
Vmobile-gws-hp.3...167.190.0.222.8.1.0.0.0.0.0.0..0.0....0...1c.1.64.mobile-gws-hp..8.0.0.deLJM7YkrcY
p517
sasVheaders
p518
(lp519
sVheadersSize
p520
I818
sVbodySize
p521
I0
sVmethod
p522
VGET
p523
sVhttpVersion
p524
VHTTP/1.1
p525
ssVtimings
p526
(dp527
Vcomment
p528
g4
sVreceive
p529
I726
sVsend
p530
I0
sVssl
p531
I20
sVconnect
p532
I34
sVdns
p533
I0
sVwait
p534
I82
sVblocked
p535
I0
ssVtime
p536
I844
sVresponse
p537
(dp538
Vstatus
p539
I200
sVcomment
p540
g4
sVcookies
p541
(lp542
sVstatusText
p543
VOK
p544
sVcontent
p545
(dp546
VmimeType
p547
Vtext/html; charset=UTF-8
p548
sVcomment
p549
g4
sVsize
p550
I0
ssVheaders
p551
(lp552
sVheadersSize
p553
I363
sVredirectURL
p554
g4
sVbodySize
p555
I92093
sVhttpVersion
p556
VHTTP/1.1
p557
ssa(dp558
Vcomment
p559
g4
sVserverIPAddress
p560
V216.58.216.196
p561
sVpageref
p562
VBrussels
p563
sVstartedDateTime
p564
V2017-04-16T08:00:58.476-05:00
p565
sVcache
p566
(dp567
sVrequest
p568
(dp569
Vcomment
p570
g4
sVcookies
p571
(lp572
sVurl
p573
Vhttps://www.google.com/maps/vt/data=RfCSdfNZ0LFPrHSm0ublXdzhdrDFhtmHhN1u-gM,Mba6vpsBjNgBcvqK1sTkjJHk8VCJa_rGXkB-UZQbBSaG0G3GNIPmfGvxIldnJKKksZFxSBw5aSo2xLXwjyLCE9LdzCjfA0nbRTI3gY8fC_kMJZFMlTeGI7vd4uxEMLqfW1Tw8hVcUWIYJcx5BlynI6DiP1S7BzearkdZ0SDRMWfcS5CA2QRWyHCPBnI1I08_t7Xc1p-7iMpX?scale=2&h=109&w=1024
p574
sVqueryString
p575
(lp576
(dp577
Vname
p578
Vscale
p579
sVvalue
p580
g64
sa(dp581
Vname
p582
Vh
p583
sVvalue
p584
V109
p585
sa(dp586
Vname
p587
Vw
p588
sVvalue
p589
V1024
p590
sasVheaders
p591
(lp592
sVheadersSize
p593
I818
sVbodySize
p594
I0
sVmethod
p595
VGET
p596
sVhttpVersion
p597
VHTTP/1.1
p598
ssVtimings
p599
(dp600
Vcomment
p601
g4
sVreceive
p602
I56
sVsend
p603
I0
sVssl
p604
I-1
sVconnect
p605
I-1
sVdns
p606
I-1
sVwait
p607
I140
sVblocked
p608
I-1
ssVtime
p609
I196
sVresponse
p610
(dp611
Vstatus
p612
I200
sVcomment
p613
g4
sVcookies
p614
(lp615
sVstatusText
p616
VOK
p617
sVcontent
p618
(dp619
VmimeType
p620
Vimage/png
p621
sVcomment
p622
g4
sVsize
p623
I0
ssVheaders
p624
(lp625
sVheadersSize
p626
I480
sVredirectURL
p627
g4
sVbodySize
p628
I117567
sVhttpVersion
p629
VHTTP/1.1
p630
ssa(dp631
Vcomment
p632
g4
sVserverIPAddress
p633
V216.58.216.196
p634
sVpageref
p635
VBrussels
p636
sVstartedDateTime
p637
V2017-04-16T08:00:58.539-05:00
p638
sVcache
p639
(dp640
sVrequest
p641
(dp642
Vcomment
p643
g4
sVcookies
p644
(lp645
sVurl
p646
Vhttps://www.google.com/xjs/_/js/k=xjs.qs.en_US.pCBXVCvTH3s.O/m=syl,syj,syn,em3,em8,em6,em7,sym,aa,abd,sy2g,sy2k,sy29,sy2j,sy2d,sy2a,sy2c,sy2f,sy2l,sy2m,sy2n,emd,async,sybn,sybi,sybo,sy1f,sy45,sy46,sy9w,sybk,sybj,sybp,sy1g,sy30,sy47,sybm,sybl,sybq,sy1h,sybh,dvl,syep,foot,ipv6,sy32,emj,shm,sy5g,sy5i,sy5k,sykh,tl,sy2x,sy2y,sy2t,sy38,em12,vs,sy5j,sy5h,sy6u,sy66,sy67,sy7d,sy7j,sy4u,sy69,sy89,sy7e,sykk,sykl,tnv,bct,sy1y,sy31,sy22,sy6i,sy4h,sy6h,sy6o,sy25,sy23,sy2u,sy5x,sy6j,sy6k,sy6r,emb,em9,ema,sy24,sy34,sy4i,sy5y,sy6a,syeg,lie,sy6b,sccm,kch,sy2z,sy2w,syka,trex,sy3d,sy3u,sy5m,sy6e,sy6f,sy6g,ofmc,sy6y,sycu,d3l,syf5,sy99,syf4,sy26,syfc,syfn,syf7,syff,sy1i,sy68,sy8d,sy9b,syf6,syfl,syfr,syfq,syfg,sy1j,sy4q,sy5o,sy5r,sy6n,sy6p,sy8h,syc7,syc8,syfb,syfj,syfs,syft,syg3,syg5,syg7,emn,emo,syg4,syg6,ivg,sy9m,sy9n,iuci,img,mexp,sy41,tcc,sy48,sy3a,sy3c,sy5b,sy4x,sy3x,sy4z,sy56,syci,syea,sy3w,sy65,sy4y,sy5a,sydt,sye9,sygr,syha,sy76,syb0,sye4,sykt,sy3v,sy5c,syeb,sygu,syhb,syku,syky,dsti,sy2i,sy2o,sy2p,akpc,sygq,kpc,syac,sy4g,syhz,syl6,ssc,kpci,vrml,sy4v,sy5d,sya3,sy40,syec,sy51,sy5e,sya2,sye2,sy4t,sy4w,sy52,sy91,sy9l,sya4,sye6,sygv,sy5f,sy3b,sy53,sy6d,sygs,sygw,sygt,kpor,kpcb,qaim,qif,syj7,syj8,syj2,syjc,syj6,syj3,syjg,syjh,syje,syjd,syjk,syji,syjf,syj0,emr,ems,emt,emu,emv,emx,emy,emz,em10,em11,udlg,sy5z,atn,sya1,ampfp/am=gCP4LtMEBXQA2RUaq_oFBISzAFA/rt=j/d=0/t=zcms/rs=ACT90oFwm4NZCwIcuuiqmthdlECdBzkhRA
p647
sVqueryString
p648
(lp649
sVheaders
p650
(lp651
sVheadersSize
p652
I1922
sVbodySize
p653
I0
sVmethod
p654
VGET
p655
sVhttpVersion
p656
VHTTP/1.1
p657
ssVtimings
p658
(dp659
Vcomment
p660
g4
sVreceive
p661
I296
sVsend
p662
I0
sVssl
p663
I32
sVconnect
p664
I47
sVdns
p665
I0
sVwait
p666
I29
sVblocked
p667
I0
ssVtime
p668
I374
sVresponse
p669
(dp670
Vstatus
p671
I200
sVcomment
p672
g4
sVcookies
p673
(lp674
sVstatusText
p675
VOK
p676
sVcontent
p677
(dp678
VmimeType
p679
Vtext/javascript; charset=UTF-8
p680
sVcomment
p681
g4
sVsize
p682
I0
ssVheaders
p683
(lp684
sVheadersSize
p685
I465
sVredirectURL
p686
g4
sVbodySize
p687
I308660
sVhttpVersion
p688
VHTTP/1.1
p689
ssa(dp690
Vcomment
p691
g4
sVserverIPAddress
p692
V216.58.216.196
p693
sVpageref
p694
VBrussels
p695
sVstartedDateTime
p696
V2017-04-16T08:00:58.692-05:00
p697
sVcache
p698
(dp699
sVrequest
p700
(dp701
Vcomment
p702
g4
sVcookies
p703
(lp704
sVurl
p705
Vhttps://www.google.com/gen_204?s=lu&atyp=csi&ei=CGvzWLHKGaesjwS114CoBA&ima=11&rt=lmap.1185,aft.1184,wsrt.1108,cst.0,dnst.0,rqst.811,rspt.813,rqstt.38,unt.2,cstt.2,dit.908
p706
sVqueryString
p707
(lp708
(dp709
Vname
p710
g57
sVvalue
p711
Vlu
p712
sa(dp713
Vname
p714
Vatyp
p715
sVvalue
p716
Vcsi
p717
sa(dp718
Vname
p719
Vei
p720
sVvalue
p721
VCGvzWLHKGaesjwS114CoBA
p722
sa(dp723
Vname
p724
Vima
p725
sVvalue
p726
V11
p727
sa(dp728
Vname
p729
Vrt
p730
sVvalue
p731
Vlmap.1185,aft.1184,wsrt.1108,cst.0,dnst.0,rqst.811,rspt.813,rqstt.38,unt.2,cstt.2,dit.908
p732
sasVheaders
p733
(lp734
sVheadersSize
p735
I687
sVbodySize
p736
I0
sVmethod
p737
VGET
p738
sVhttpVersion
p739
VHTTP/1.1
p740
ssVtimings
p741
(dp742
Vcomment
p743
g4
sVreceive
p744
I0
sVsend
p745
I0
sVssl
p746
I-1
sVconnect
p747
I-1
sVdns
p748
I-1
sVwait
p749
I27
sVblocked
p750
I-1
ssVtime
p751
I28
sVresponse
p752
(dp753
Vstatus
p754
I204
sVcomment
p755
g4
sVcookies
p756
(lp757
sVstatusText
p758
VNo Content
p759
sVcontent
p760
(dp761
VmimeType
p762
Vtext/html; charset=UTF-8
p763
sVcomment
p764
g4
sVsize
p765
I0
ssVheaders
p766
(lp767
sVheadersSize
p768
I248
sVredirectURL
p769
g4
sVbodySize
p770
I0
sVhttpVersion
p771
VHTTP/1.1
p772
ssa(dp773
Vcomment
p774
g4
sVserverIPAddress
p775
V216.58.216.196
p776
sVpageref
p777
VBrussels
p778
sVstartedDateTime
p779
V2017-04-16T08:00:59.088-05:00
p780
sVcache
p781
(dp782
sVrequest
p783
(dp784
Vcomment
p785
g4
sVcookies
p786
(lp787
sVurl
p788
Vhttps://www.google.com/async/irc?vet=10ahUKEwix7sSfhKnTAhUn1oMKHbUrAEUQo0EIxwE..i&ved=0ahUKEwix7sSfhKnTAhUn1oMKHbUrAEUQo0EIxwE&ei=CGvzWLHKGaesjwS114CoBA&yv=2&async=iu:1,ved:0ahUKEwix7sSfhKnTAhUn1oMKHbUrAEUQo0EIxwE,_id:irc_async,_pms:qs
p789
sVqueryString
p790
(lp791
(dp792
Vname
p793
Vvet
p794
sVvalue
p795
V10ahUKEwix7sSfhKnTAhUn1oMKHbUrAEUQo0EIxwE..i
p796
sa(dp797
Vname
p798
Vved
p799
sVvalue
p800
V0ahUKEwix7sSfhKnTAhUn1oMKHbUrAEUQo0EIxwE
p801
sa(dp802
Vname
p803
Vei
p804
sVvalue
p805
VCGvzWLHKGaesjwS114CoBA
p806
sa(dp807
Vname
p808
Vyv
p809
sVvalue
p810
g64
sa(dp811
Vname
p812
Vasync
p813
sVvalue
p814
Viu:1,ved:0ahUKEwix7sSfhKnTAhUn1oMKHbUrAEUQo0EIxwE,_id:irc_async,_pms:qs
p815
sasVheaders
p816
(lp817
sVheadersSize
p818
I752
sVbodySize
p819
I0
sVmethod
p820
VGET
p821
sVhttpVersion
p822
VHTTP/1.1
p823
ssVtimings
p824
(dp825
Vcomment
p826
g4
sVreceive
p827
I0
sVsend
p828
I0
sVssl
p829
I-1
sVconnect
p830
I-1
sVdns
p831
I-1
sVwait
p832
I41
sVblocked
p833
I-1
ssVtime
p834
I41
sVresponse
p835
(dp836
Vstatus
p837
I200
sVcomment
p838
g4
sVcookies
p839
(lp840
sVstatusText
p841
VOK
p842
sVcontent
p843
(dp844
VmimeType
p845
Vtext/html; charset=UTF-8
p846
sVcomment
p847
g4
sVsize
p848
I0
ssVheaders
p849
(lp850
sVheadersSize
p851
I383
sVredirectURL
p852
g4
sVbodySize
p853
I7787
sVhttpVersion
p854
VHTTP/1.1
p855
ssa(dp856
Vcomment
p857
g4
sVserverIPAddress
p858
V216.58.216.196
p859
sVpageref
p860
VBrussels
p861
sVstartedDateTime
p862
V2017-04-16T08:00:59.106-05:00
p863
sVcache
p864
(dp865
sVrequest
p866
(dp867
Vcomment
p868
g4
sVcookies
p869
(lp870
sVurl
p871
Vhttps://www.google.com/gen_204?atyp=i&ct=&cad=&vet=10ahUKEwix7sSfhKnTAhUn1oMKHbUrAEUQtxAIXSgDMAs..s&ei=CGvzWLHKGaesjwS114CoBA&zx=1492347659106
p872
sVqueryString
p873
(lp874
(dp875
Vname
p876
Vatyp
p877
sVvalue
p878
g30
sa(dp879
Vname
p880
Vct
p881
sVvalue
p882
g4
sa(dp883
Vname
p884
Vcad
p885
sVvalue
p886
g4
sa(dp887
Vname
p888
Vvet
p889
sVvalue
p890
V10ahUKEwix7sSfhKnTAhUn1oMKHbUrAEUQtxAIXSgDMAs..s
p891
sa(dp892
Vname
p893
Vei
p894
sVvalue
p895
VCGvzWLHKGaesjwS114CoBA
p896
sa(dp897
Vname
p898
Vzx
p899
sVvalue
p900
V1492347659106
p901
sasVheaders
p902
(lp903
sVheadersSize
p904
I659
sVbodySize
p905
I0
sVmethod
p906
VGET
p907
sVhttpVersion
p908
VHTTP/1.1
p909
ssVtimings
p910
(dp911
Vcomment
p912
g4
sVreceive
p913
I0
sVsend
p914
I0
sVssl
p915
I-1
sVconnect
p916
I-1
sVdns
p917
I-1
sVwait
p918
I24
sVblocked
p919
I-1
ssVtime
p920
I24
sVresponse
p921
(dp922
Vstatus
p923
I204
sVcomment
p924
g4
sVcookies
p925
(lp926
sVstatusText
p927
VNo Content
p928
sVcontent
p929
(dp930
VmimeType
p931
Vtext/html; charset=UTF-8
p932
sVcomment
p933
g4
sVsize
p934
I0
ssVheaders
p935
(lp936
sVheadersSize
p937
I248
sVredirectURL
p938
g4
sVbodySize
p939
I0
sVhttpVersion
p940
VHTTP/1.1
p941
ssa(dp942
Vcomment
p943
g4
sVserverIPAddress
p944
V216.58.216.206
p945
sVpageref
p946
VBrussels
p947
sVstartedDateTime
p948
V2017-04-16T08:00:59.117-05:00
p949
sVcache
p950
(dp951
sVrequest
p952
(dp953
Vcomment
p954
g4
sVcookies
p955
(lp956
sVurl
p957
Vhttps://encrypted-tbn0.gstatic.com/images?q=tbn:ANd9GcSgbgbC_h16zSo4zfYu4L7zB3xQFNsJeVi7jETEExV37LV6ie8UTwmedqJxDW-a-aCNM-Q
p958
sVqueryString
p959
(lp960
(dp961
Vname
p962
g415
sVvalue
p963
Vtbn:ANd9GcSgbgbC_h16zSo4zfYu4L7zB3xQFNsJeVi7jETEExV37LV6ie8UTwmedqJxDW-a-aCNM-Q
p964
sasVheaders
p965
(lp966
sVheadersSize
p967
I438
sVbodySize
p968
I0
sVmethod
p969
VGET
p970
sVhttpVersion
p971
VHTTP/1.1
p972
ssVtimings
p973
(dp974
Vcomment
p975
g4
sVreceive
p976
I6
sVsend
p977
I0
sVssl
p978
I-1
sVconnect
p979
I-1
sVdns
p980
I-1
sVwait
p981
I59
sVblocked
p982
I-1
ssVtime
p983
I65
sVresponse
p984
(dp985
Vstatus
p986
I200
sVcomment
p987
g4
sVcookies
p988
(lp989
sVstatusText
p990
VOK
p991
sVcontent
p992
(dp993
VmimeType
p994
Vimage/jpeg
p995
sVcomment
p996
g4
sVsize
p997
I0
ssVheaders
p998
(lp999
sVheadersSize
p1000
I415
sVredirectURL
p1001
g4
sVbodySize
p1002
I4072
sVhttpVersion
p1003
VHTTP/1.1
p1004
ssa(dp1005
Vcomment
p1006
g4
sVserverIPAddress
p1007
V216.58.216.196
p1008
sVpageref
p1009
VBrussels
p1010
sVstartedDateTime
p1011
V2017-04-16T08:00:59.131-05:00
p1012
sVcache
p1013
(dp1014
sVrequest
p1015
(dp1016
Vcomment
p1017
g4
sVcookies
p1018
(lp1019
sVurl
p1020
Vhttps://www.google.com/gen_204?atyp=i&ct=&cad=&vet=10ahUKEwix7sSfhKnTAhUn1oMKHbUrAEUQlpQBCGcoCDAL..s&ei=CGvzWLHKGaesjwS114CoBA&zx=1492347659121
p1021
sVqueryString
p1022
(lp1023
(dp1024
Vname
p1025
Vatyp
p1026
sVvalue
p1027
g30
sa(dp1028
Vname
p1029
Vct
p1030
sVvalue
p1031
g4
sa(dp1032
Vname
p1033
Vcad
p1034
sVvalue
p1035
g4
sa(dp1036
Vname
p1037
Vvet
p1038
sVvalue
p1039
V10ahUKEwix7sSfhKnTAhUn1oMKHbUrAEUQlpQBCGcoCDAL..s
p1040
sa(dp1041
Vname
p1042
Vei
p1043
sVvalue
p1044
VCGvzWLHKGaesjwS114CoBA
p1045
sa(dp1046
Vname
p1047
Vzx
p1048
sVvalue
p1049
V1492347659121
p1050
sasVheaders
p1051
(lp1052
sVheadersSize
p1053
I660
sVbodySize
p1054
I0
sVmethod
p1055
VGET
p1056
sVhttpVersion
p1057
VHTTP/1.1
p1058
ssVtimings
p1059
(dp1060
Vcomment
p1061
g4
sVreceive
p1062
I0
sVsend
p1063
I0
sVssl
p1064
I-1
sVconnect
p1065
I-1
sVdns
p1066
I-1
sVwait
p1067
I53
sVblocked
p1068
I-1
ssVtime
p1069
I53
sVresponse
p1070
(dp1071
Vstatus
p1072
I204
sVcomment
p1073
g4
sVcookies
p1074
(lp1075
sVstatusText
p1076
VNo Content
p1077
sVcontent
p1078
(dp1079
VmimeType
p1080
Vtext/html; charset=UTF-8
p1081
sVcomment
p1082
g4
sVsize
p1083
I0
ssVheaders
p1084
(lp1085
sVheadersSize
p1086
I248
sVredirectURL
p1087
g4
sVbodySize
p1088
I0
sVhttpVersion
p1089
VHTTP/1.1
p1090
ssa(dp1091
Vcomment
p1092
g4
sVserverIPAddress
p1093
V216.58.216.196
p1094
sVpageref
p1095
VBrussels
p1096
sVstartedDateTime
p1097
V2017-04-16T08:00:59.186-05:00
p1098
sVcache
p1099
(dp1100
sVrequest
p1101
(dp1102
Vcomment
p1103
g4
sVcookies
p1104
(lp1105
sVurl
p1106
Vhttps://www.google.com/gen_204?atyp=i&ct=&cad=&vet=10ahUKEwix7sSfhKnTAhUn1oMKHbUrAEUQtxAIXygEMAs..s&ei=CGvzWLHKGaesjwS114CoBA&zx=1492347659108
p1107
sVqueryString
p1108
(lp1109
(dp1110
Vname
p1111
Vatyp
p1112
sVvalue
p1113
g30
sa(dp1114
Vname
p1115
Vct
p1116
sVvalue
p1117
g4
sa(dp1118
Vname
p1119
Vcad
p1120
sVvalue
p1121
g4
sa(dp1122
Vname
p1123
Vvet
p1124
sVvalue
p1125
V10ahUKEwix7sSfhKnTAhUn1oMKHbUrAEUQtxAIXygEMAs..s
p1126
sa(dp1127
Vname
p1128
Vei
p1129
sVvalue
p1130
VCGvzWLHKGaesjwS114CoBA
p1131
sa(dp1132
Vname
p1133
Vzx
p1134
sVvalue
p1135
V1492347659108
p1136
sasVheaders
p1137
(lp1138
sVheadersSize
p1139
I659
sVbodySize
p1140
I0
sVmethod
p1141
VGET
p1142
sVhttpVersion
p1143
VHTTP/1.1
p1144
ssVtimings
p1145
(dp1146
Vcomment
p1147
g4
sVreceive
p1148
I0
sVsend
p1149
I0
sVssl
p1150
I48
sVconnect
p1151
I75
sVdns
p1152
I0
sVwait
p1153
I102
sVblocked
p1154
I0
ssVtime
p1155
I177
sVresponse
p1156
(dp1157
Vstatus
p1158
I204
sVcomment
p1159
g4
sVcookies
p1160
(lp1161
sVstatusText
p1162
VNo Content
p1163
sVcontent
p1164
(dp1165
VmimeType
p1166
Vtext/html; charset=UTF-8
p1167
sVcomment
p1168
g4
sVsize
p1169
I0
ssVheaders
p1170
(lp1171
sVheadersSize
p1172
I248
sVredirectURL
p1173
g4
sVbodySize
p1174
I0
sVhttpVersion
p1175
VHTTP/1.1
p1176
ssa(dp1177
Vcomment
p1178
g4
sVserverIPAddress
p1179
V216.58.216.206
p1180
sVpageref
p1181
VBrussels
p1182
sVstartedDateTime
p1183
V2017-04-16T08:00:59.186-05:00
p1184
sVcache
p1185
(dp1186
sVrequest
p1187
(dp1188
Vcomment
p1189
g4
sVcookies
p1190
(lp1191
sVurl
p1192
Vhttps://encrypted-tbn3.gstatic.com/images?q=tbn:ANd9GcSZUX0iTfP10u7zt1-y0IKEapaS6KitXCab6j8_PP1f7Sd5RX3B7wRtTAdugGS0r557mmA
p1193
sVqueryString
p1194
(lp1195
(dp1196
Vname
p1197
g415
sVvalue
p1198
Vtbn:ANd9GcSZUX0iTfP10u7zt1-y0IKEapaS6KitXCab6j8_PP1f7Sd5RX3B7wRtTAdugGS0r557mmA
p1199
sasVheaders
p1200
(lp1201
sVheadersSize
p1202
I438
sVbodySize
p1203
I0
sVmethod
p1204
VGET
p1205
sVhttpVersion
p1206
VHTTP/1.1
p1207
ssVtimings
p1208
(dp1209
Vcomment
p1210
g4
sVreceive
p1211
I0
sVsend
p1212
I0
sVssl
p1213
I48
sVconnect
p1214
I69
sVdns
p1215
I0
sVwait
p1216
I100
sVblocked
p1217
I0
ssVtime
p1218
I170
sVresponse
p1219
(dp1220
Vstatus
p1221
I200
sVcomment
p1222
g4
sVcookies
p1223
(lp1224
sVstatusText
p1225
VOK
p1226
sVcontent
p1227
(dp1228
VmimeType
p1229
Vimage/jpeg
p1230
sVcomment
p1231
g4
sVsize
p1232
I0
ssVheaders
p1233
(lp1234
sVheadersSize
p1235
I407
sVredirectURL
p1236
g4
sVbodySize
p1237
I3948
sVhttpVersion
p1238
VHTTP/1.1
p1239
ssa(dp1240
Vcomment
p1241
g4
sVserverIPAddress
p1242
V216.58.216.206
p1243
sVpageref
p1244
VBrussels
p1245
sVstartedDateTime
p1246
V2017-04-16T08:00:59.186-05:00
p1247
sVcache
p1248
(dp1249
sVrequest
p1250
(dp1251
Vcomment
p1252
g4
sVcookies
p1253
(lp1254
sVurl
p1255
Vhttps://encrypted-tbn3.gstatic.com/images?q=tbn:ANd9GcTvLVloH8bTnZY2QVvyQMm-7S9NEeNZwMTnEf1U2gRFZSPOFm1QMDUx1tnlq3OnG9iItQ
p1256
sVqueryString
p1257
(lp1258
(dp1259
Vname
p1260
g415
sVvalue
p1261
Vtbn:ANd9GcTvLVloH8bTnZY2QVvyQMm-7S9NEeNZwMTnEf1U2gRFZSPOFm1QMDUx1tnlq3OnG9iItQ
p1262
sasVheaders
p1263
(lp1264
sVheadersSize
p1265
I437
sVbodySize
p1266
I0
sVmethod
p1267
VGET
p1268
sVhttpVersion
p1269
VHTTP/1.1
p1270
ssVtimings
p1271
(dp1272
Vcomment
p1273
g4
sVreceive
p1274
I0
sVsend
p1275
I0
sVssl
p1276
I54
sVconnect
p1277
I75
sVdns
p1278
I1
sVwait
p1279
I100
sVblocked
p1280
I0
ssVtime
p1281
I177
sVresponse
p1282
(dp1283
Vstatus
p1284
I200
sVcomment
p1285
g4
sVcookies
p1286
(lp1287
sVstatusText
p1288
VOK
p1289
sVcontent
p1290
(dp1291
VmimeType
p1292
Vimage/jpeg
p1293
sVcomment
p1294
g4
sVsize
p1295
I0
ssVheaders
p1296
(lp1297
sVheadersSize
p1298
I429
sVredirectURL
p1299
g4
sVbodySize
p1300
I3317
sVhttpVersion
p1301
VHTTP/1.1
p1302
ssa(dp1303
Vcomment
p1304
g4
sVserverIPAddress
p1305
V216.58.216.193
p1306
sVpageref
p1307
VBrussels
p1308
sVstartedDateTime
p1309
V2017-04-16T08:00:59.198-05:00
p1310
sVcache
p1311
(dp1312
sVrequest
p1313
(dp1314
Vcomment
p1315
g4
sVcookies
p1316
(lp1317
sVurl
p1318
Vhttps://cdn.ampproject.org/preconnect.gif?0.1414837641842568
p1319
sVqueryString
p1320
(lp1321
(dp1322
Vname
p1323
V0.1414837641842568
p1324
sVvalue
p1325
g4
sasVheaders
p1326
(lp1327
sVheadersSize
p1328
I375
sVbodySize
p1329
I0
sVmethod
p1330
VGET
p1331
sVhttpVersion
p1332
VHTTP/1.1
p1333
ssVtimings
p1334
(dp1335
Vcomment
p1336
g4
sVreceive
p1337
I0
sVsend
p1338
I0
sVssl
p1339
I-1
sVconnect
p1340
I-1
sVdns
p1341
I-1
sVwait
p1342
I107
sVblocked
p1343
I-1
ssVtime
p1344
I107
sVresponse
p1345
(dp1346
Vstatus
p1347
I200
sVcomment
p1348
g4
sVcookies
p1349
(lp1350
sVstatusText
p1351
VOK
p1352
sVcontent
p1353
(dp1354
VmimeType
p1355
Vimage/gif
p1356
sVcomment
p1357
g4
sVsize
p1358
I0
ssVheaders
p1359
(lp1360
sVheadersSize
p1361
I826
sVredirectURL
p1362
g4
sVbodySize
p1363
I37
sVhttpVersion
p1364
VHTTP/1.1
p1365
ssa(dp1366
Vcomment
p1367
g4
sVserverIPAddress
p1368
V172.217.6.3
p1369
sVpageref
p1370
VBrussels
p1371
sVstartedDateTime
p1372
V2017-04-16T08:00:59.222-05:00
p1373
sVcache
p1374
(dp1375
sVrequest
p1376
(dp1377
Vcomment
p1378
g4
sVcookies
p1379
(lp1380
sVurl
p1381
Vhttps://www.gstatic.com/ui/v2/activityindicator/mspin_googcolor_medium.svg
p1382
sVqueryString
p1383
(lp1384
sVheaders
p1385
(lp1386
sVheadersSize
p1387
I389
sVbodySize
p1388
I0
sVmethod
p1389
VGET
p1390
sVhttpVersion
p1391
VHTTP/1.1
p1392
ssVtimings
p1393
(dp1394
Vcomment
p1395
g4
sVreceive
p1396
I0
sVsend
p1397
I0
sVssl
p1398
I-1
sVconnect
p1399
I-1
sVdns
p1400
I-1
sVwait
p1401
I66
sVblocked
p1402
I-1
ssVtime
p1403
I66
sVresponse
p1404
(dp1405
Vstatus
p1406
I200
sVcomment
p1407
g4
sVcookies
p1408
(lp1409
sVstatusText
p1410
VOK
p1411
sVcontent
p1412
(dp1413
VmimeType
p1414
Vimage/svg+xml
p1415
sVcomment
p1416
g4
sVsize
p1417
I0
ssVheaders
p1418
(lp1419
sVheadersSize
p1420
I455
sVredirectURL
p1421
g4
sVbodySize
p1422
I1055
sVhttpVersion
p1423
VHTTP/1.1
p1424
ssa(dp1425
Vcomment
p1426
g4
sVserverIPAddress
p1427
V216.58.216.196
p1428
sVpageref
p1429
VBrussels
p1430
sVstartedDateTime
p1431
V2017-04-16T08:00:59.232-05:00
p1432
sVcache
p1433
(dp1434
sVrequest
p1435
(dp1436
Vcomment
p1437
g4
sVcookies
p1438
(lp1439
sVurl
p1440
Vhttps://www.google.com/xjs/_/js/k=xjs.qs.en_US.pCBXVCvTH3s.O/m=idg,sy4d,sy4f,sy4c,sy4e,sy4b,syd7,dgm,syfu,ish,ivw/am=gCP4LtMEBXQA2RUaq_oFBISzAFA/rt=j/d=0/t=zcms/rs=ACT90oFwm4NZCwIcuuiqmthdlECdBzkhRA
p1441
sVqueryString
p1442
(lp1443
sVheaders
p1444
(lp1445
sVheadersSize
p1446
I715
sVbodySize
p1447
I0
sVmethod
p1448
VGET
p1449
sVhttpVersion
p1450
VHTTP/1.1
p1451
ssVtimings
p1452
(dp1453
Vcomment
p1454
g4
sVreceive
p1455
I0
sVsend
p1456
I0
sVssl
p1457
I-1
sVconnect
p1458
I-1
sVdns
p1459
I-1
sVwait
p1460
I54
sVblocked
p1461
I-1
ssVtime
p1462
I54
sVresponse
p1463
(dp1464
Vstatus
p1465
I200
sVcomment
p1466
g4
sVcookies
p1467
(lp1468
sVstatusText
p1469
VOK
p1470
sVcontent
p1471
(dp1472
VmimeType
p1473
Vtext/javascript; charset=UTF-8
p1474
sVcomment
p1475
g4
sVsize
p1476
I0
ssVheaders
p1477
(lp1478
sVheadersSize
p1479
I463
sVredirectURL
p1480
g4
sVbodySize
p1481
I5450
sVhttpVersion
p1482
VHTTP/1.1
p1483
ssa(dp1484
Vcomment
p1485
g4
sVserverIPAddress
p1486
V216.58.216.196
p1487
sVpageref
p1488
VBrussels
p1489
sVstartedDateTime
p1490
V2017-04-16T08:00:59.293-05:00
p1491
sVcache
p1492
(dp1493
sVrequest
p1494
(dp1495
Vcomment
p1496
g4
sVcookies
p1497
(lp1498
sVurl
p1499
Vhttps://www.google.com/gen_204?atyp=i&ct=&cad=&vet=10ahUKEwix7sSfhKnTAhUn1oMKHbUrAEUQtxAIYSgFMAs..s&ei=CGvzWLHKGaesjwS114CoBA&zx=1492347659115
p1500
sVqueryString
p1501
(lp1502
(dp1503
Vname
p1504
Vatyp
p1505
sVvalue
p1506
g30
sa(dp1507
Vname
p1508
Vct
p1509
sVvalue
p1510
g4
sa(dp1511
Vname
p1512
Vcad
p1513
sVvalue
p1514
g4
sa(dp1515
Vname
p1516
Vvet
p1517
sVvalue
p1518
V10ahUKEwix7sSfhKnTAhUn1oMKHbUrAEUQtxAIYSgFMAs..s
p1519
sa(dp1520
Vname
p1521
Vei
p1522
sVvalue
p1523
VCGvzWLHKGaesjwS114CoBA
p1524
sa(dp1525
Vname
p1526
Vzx
p1527
sVvalue
p1528
V1492347659115
p1529
sasVheaders
p1530
(lp1531
sVheadersSize
p1532
I659
sVbodySize
p1533
I0
sVmethod
p1534
VGET
p1535
sVhttpVersion
p1536
VHTTP/1.1
p1537
ssVtimings
p1538
(dp1539
Vcomment
p1540
g4
sVreceive
p1541
I0
sVsend
p1542
I0
sVssl
p1543
I116
sVconnect
p1544
I175
sVdns
p1545
I0
sVwait
p1546
I50
sVblocked
p1547
I0
ssVtime
p1548
I226
sVresponse
p1549
(dp1550
Vstatus
p1551
I204
sVcomment
p1552
g4
sVcookies
p1553
(lp1554
sVstatusText
p1555
VNo Content
p1556
sVcontent
p1557
(dp1558
VmimeType
p1559
Vtext/html; charset=UTF-8
p1560
sVcomment
p1561
g4
sVsize
p1562
I0
ssVheaders
p1563
(lp1564
sVheadersSize
p1565
I248
sVredirectURL
p1566
g4
sVbodySize
p1567
I0
sVhttpVersion
p1568
VHTTP/1.1
p1569
ssa(dp1570
Vcomment
p1571
g4
sVserverIPAddress
p1572
V216.58.216.206
p1573
sVpageref
p1574
VBrussels
p1575
sVstartedDateTime
p1576
V2017-04-16T08:00:59.295-05:00
p1577
sVcache
p1578
(dp1579
sVrequest
p1580
(dp1581
Vcomment
p1582
g4
sVcookies
p1583
(lp1584
sVurl
p1585
Vhttps://encrypted-tbn0.gstatic.com/images?q=tbn:ANd9GcT7d5zAwUwM6DXAcYM75nM5sq4QyZ9h-O6axYXoi5Cydz7jM-BgJ-lq_mWH8fAHmnC-m4s
p1586
sVqueryString
p1587
(lp1588
(dp1589
Vname
p1590
g415
sVvalue
p1591
Vtbn:ANd9GcT7d5zAwUwM6DXAcYM75nM5sq4QyZ9h-O6axYXoi5Cydz7jM-BgJ-lq_mWH8fAHmnC-m4s
p1592
sasVheaders
p1593
(lp1594
sVheadersSize
p1595
I438
sVbodySize
p1596
I0
sVmethod
p1597
VGET
p1598
sVhttpVersion
p1599
VHTTP/1.1
p1600
ssVtimings
p1601
(dp1602
Vcomment
p1603
g4
sVreceive
p1604
I0
sVsend
p1605
I0
sVssl
p1606
I111
sVconnect
p1607
I172
sVdns
p1608
I0
sVwait
p1609
I37
sVblocked
p1610
I0
ssVtime
p1611
I211
sVresponse
p1612
(dp1613
Vstatus
p1614
I200
sVcomment
p1615
g4
sVcookies
p1616
(lp1617
sVstatusText
p1618
VOK
p1619
sVcontent
p1620
(dp1621
VmimeType
p1622
Vimage/jpeg
p1623
sVcomment
p1624
g4
sVsize
p1625
I0
ssVheaders
p1626
(lp1627
sVheadersSize
p1628
I407
sVredirectURL
p1629
g4
sVbodySize
p1630
I3816
sVhttpVersion
p1631
VHTTP/1.1
p1632
ssa(dp1633
Vcomment
p1634
g4
sVserverIPAddress
p1635
V216.58.216.196
p1636
sVpageref
p1637
VBrussels
p1638
sVstartedDateTime
p1639
V2017-04-16T08:00:59.295-05:00
p1640
sVcache
p1641
(dp1642
sVrequest
p1643
(dp1644
Vcomment
p1645
g4
sVcookies
p1646
(lp1647
sVurl
p1648
Vhttps://www.google.com/gen_204?atyp=i&ct=&cad=&vet=10ahUKEwix7sSfhKnTAhUn1oMKHbUrAEUQtxAIYygGMAs..s&ei=CGvzWLHKGaesjwS114CoBA&zx=1492347659117
p1649
sVqueryString
p1650
(lp1651
(dp1652
Vname
p1653
Vatyp
p1654
sVvalue
p1655
g30
sa(dp1656
Vname
p1657
Vct
p1658
sVvalue
p1659
g4
sa(dp1660
Vname
p1661
Vcad
p1662
sVvalue
p1663
g4
sa(dp1664
Vname
p1665
Vvet
p1666
sVvalue
p1667
V10ahUKEwix7sSfhKnTAhUn1oMKHbUrAEUQtxAIYygGMAs..s
p1668
sa(dp1669
Vname
p1670
Vei
p1671
sVvalue
p1672
VCGvzWLHKGaesjwS114CoBA
p1673
sa(dp1674
Vname
p1675
Vzx
p1676
sVvalue
p1677
V1492347659117
p1678
sasVheaders
p1679
(lp1680
sVheadersSize
p1681
I659
sVbodySize
p1682
I0
sVmethod
p1683
VGET
p1684
sVhttpVersion
p1685
VHTTP/1.1
p1686
ssVtimings
p1687
(dp1688
Vcomment
p1689
g4
sVreceive
p1690
I0
sVsend
p1691
I0
sVssl
p1692
I117
sVconnect
p1693
I174
sVdns
p1694
I0
sVwait
p1695
I39
sVblocked
p1696
I0
ssVtime
p1697
I215
sVresponse
p1698
(dp1699
Vstatus
p1700
I204
sVcomment
p1701
g4
sVcookies
p1702
(lp1703
sVstatusText
p1704
VNo Content
p1705
sVcontent
p1706
(dp1707
VmimeType
p1708
Vtext/html; charset=UTF-8
p1709
sVcomment
p1710
g4
sVsize
p1711
I0
ssVheaders
p1712
(lp1713
sVheadersSize
p1714
I248
sVredirectURL
p1715
g4
sVbodySize
p1716
I0
sVhttpVersion
p1717
VHTTP/1.1
p1718
ssa(dp1719
Vcomment
p1720
g4
sVserverIPAddress
p1721
V216.58.216.196
p1722
sVpageref
p1723
VBrussels
p1724
sVstartedDateTime
p1725
V2017-04-16T08:00:59.295-05:00
p1726
sVcache
p1727
(dp1728
sVrequest
p1729
(dp1730
Vcomment
p1731
g4
sVcookies
p1732
(lp1733
sVurl
p1734
Vhttps://www.google.com/gen_204?atyp=i&ct=&cad=&vet=10ahUKEwix7sSfhKnTAhUn1oMKHbUrAEUQtxAIZSgHMAs..s&ei=CGvzWLHKGaesjwS114CoBA&zx=1492347659119
p1735
sVqueryString
p1736
(lp1737
(dp1738
Vname
p1739
Vatyp
p1740
sVvalue
p1741
g30
sa(dp1742
Vname
p1743
Vct
p1744
sVvalue
p1745
g4
sa(dp1746
Vname
p1747
Vcad
p1748
sVvalue
p1749
g4
sa(dp1750
Vname
p1751
Vvet
p1752
sVvalue
p1753
V10ahUKEwix7sSfhKnTAhUn1oMKHbUrAEUQtxAIZSgHMAs..s
p1754
sa(dp1755
Vname
p1756
Vei
p1757
sVvalue
p1758
VCGvzWLHKGaesjwS114CoBA
p1759
sa(dp1760
Vname
p1761
Vzx
p1762
sVvalue
p1763
V1492347659119
p1764
sasVheaders
p1765
(lp1766
sVheadersSize
p1767
I659
sVbodySize
p1768
I0
sVmethod
p1769
VGET
p1770
sVhttpVersion
p1771
VHTTP/1.1
p1772
ssVtimings
p1773
(dp1774
Vcomment
p1775
g4
sVreceive
p1776
I0
sVsend
p1777
I0
sVssl
p1778
I111
sVconnect
p1779
I173
sVdns
p1780
I0
sVwait
p1781
I48
sVblocked
p1782
I0
ssVtime
p1783
I222
sVresponse
p1784
(dp1785
Vstatus
p1786
I204
sVcomment
p1787
g4
sVcookies
p1788
(lp1789
sVstatusText
p1790
VNo Content
p1791
sVcontent
p1792
(dp1793
VmimeType
p1794
Vtext/html; charset=UTF-8
p1795
sVcomment
p1796
g4
sVsize
p1797
I0
ssVheaders
p1798
(lp1799
sVheadersSize
p1800
I248
sVredirectURL
p1801
g4
sVbodySize
p1802
I0
sVhttpVersion
p1803
VHTTP/1.1
p1804
ssa(dp1805
Vcomment
p1806
g4
sVserverIPAddress
p1807
V216.58.216.193
p1808
sVpageref
p1809
VBrussels
p1810
sVstartedDateTime
p1811
V2017-04-16T08:01:00.130-05:00
p1812
sVcache
p1813
(dp1814
sVrequest
p1815
(dp1816
Vcomment
p1817
g4
sVcookies
p1818
(lp1819
sVurl
p1820
Vhttps://lh5.googleusercontent.com/-To7AQ3-Z1yY/VGW5KqH5KPI/AAAAAAAAAGk/KbQ18yq8uGYj7R_zCPE46SbvbCp_omzgQCJkC/w115-h115-k-no/
p1821
sVqueryString
p1822
(lp1823
sVheaders
p1824
(lp1825
sVheadersSize
p1826
I439
sVbodySize
p1827
I0
sVmethod
p1828
VGET
p1829
sVhttpVersion
p1830
VHTTP/1.1
p1831
ssVtimings
p1832
(dp1833
Vcomment
p1834
g4
sVreceive
p1835
I1
sVsend
p1836
I0
sVssl
p1837
I574
sVconnect
p1838
I588
sVdns
p1839
I435
sVwait
p1840
I26
sVblocked
p1841
I0
ssVtime
p1842
I1052
sVresponse
p1843
(dp1844
Vstatus
p1845
I200
sVcomment
p1846
g4
sVcookies
p1847
(lp1848
sVstatusText
p1849
VOK
p1850
sVcontent
p1851
(dp1852
VmimeType
p1853
Vimage/jpeg
p1854
sVcomment
p1855
g4
sVsize
p1856
I0
ssVheaders
p1857
(lp1858
sVheadersSize
p1859
I501
sVredirectURL
p1860
g4
sVbodySize
p1861
I8456
sVhttpVersion
p1862
VHTTP/1.1
p1863
ssa(dp1864
Vcomment
p1865
g4
sVserverIPAddress
p1866
V216.58.216.196
p1867
sVpageref
p1868
VBrussels
p1869
sVstartedDateTime
p1870
V2017-04-16T08:01:00.170-05:00
p1871
sVcache
p1872
(dp1873
sVrequest
p1874
(dp1875
Vcomment
p1876
g4
sVcookies
p1877
(lp1878
sVurl
p1879
Vhttps://www.google.com/gen_204?s=web&atyp=csi&ei=CGvzWLHKGaesjwS114CoBA&imc=25&imn=25&imp=13&adh=&xjs=init.30.15.sb_mob.21.dvl.3.vs.2.jsa.1.async.1&ima=11&rt=prt.761,iml.1184,xjsls.762,dcl.807,qiml.1024,xjses.880,xjsee.991,xjs.991,ol.2669,aft.1184,wsrt.129,cst.0,dnst.0,rqst.811,rspt.813,rqstt.38,unt.2,cstt.2,dit.908
p1880
sVqueryString
p1881
(lp1882
(dp1883
Vname
p1884
g57
sVvalue
p1885
Vweb
p1886
sa(dp1887
Vname
p1888
Vatyp
p1889
sVvalue
p1890
Vcsi
p1891
sa(dp1892
Vname
p1893
Vei
p1894
sVvalue
p1895
VCGvzWLHKGaesjwS114CoBA
p1896
sa(dp1897
Vname
p1898
Vimc
p1899
sVvalue
p1900
V25
p1901
sa(dp1902
Vname
p1903
Vimn
p1904
sVvalue
p1905
V25
p1906
sa(dp1907
Vname
p1908
Vimp
p1909
sVvalue
p1910
V13
p1911
sa(dp1912
Vname
p1913
Vadh
p1914
sVvalue
p1915
g4
sa(dp1916
Vname
p1917
Vxjs
p1918
sVvalue
p1919
Vinit.30.15.sb_mob.21.dvl.3.vs.2.jsa.1.async.1
p1920
sa(dp1921
Vname
p1922
Vima
p1923
sVvalue
p1924
V11
p1925
sa(dp1926
Vname
p1927
Vrt
p1928
sVvalue
p1929
Vprt.761,iml.1184,xjsls.762,dcl.807,qiml.1024,xjses.880,xjsee.991,xjs.991,ol.2669,aft.1184,wsrt.129,cst.0,dnst.0,rqst.811,rspt.813,rqstt.38,unt.2,cstt.2,dit.908
p1930
sasVheaders
p1931
(lp1932
sVheadersSize
p1933
I834
sVbodySize
p1934
I0
sVmethod
p1935
VGET
p1936
sVhttpVersion
p1937
VHTTP/1.1
p1938
ssVtimings
p1939
(dp1940
Vcomment
p1941
g4
sVreceive
p1942
I0
sVsend
p1943
I0
sVssl
p1944
I-1
sVconnect
p1945
I-1
sVdns
p1946
I-1
sVwait
p1947
I83
sVblocked
p1948
I-1
ssVtime
p1949
I83
sVresponse
p1950
(dp1951
Vstatus
p1952
I204
sVcomment
p1953
g4
sVcookies
p1954
(lp1955
sVstatusText
p1956
VNo Content
p1957
sVcontent
p1958
(dp1959
VmimeType
p1960
Vtext/html; charset=UTF-8
p1961
sVcomment
p1962
g4
sVsize
p1963
I0
ssVheaders
p1964
(lp1965
sVheadersSize
p1966
I248
sVredirectURL
p1967
g4
sVbodySize
p1968
I0
sVhttpVersion
p1969
VHTTP/1.1
p1970
ssa(dp1971
Vcomment
p1972
g4
sVserverIPAddress
p1973
V216.58.216.196
p1974
sVpageref
p1975
VBrussels
p1976
sVstartedDateTime
p1977
V2017-04-16T08:01:01.252-05:00
p1978
sVcache
p1979
(dp1980
sVrequest
p1981
(dp1982
Vcomment
p1983
g4
sVcookies
p1984
(lp1985
sVurl
p1986
Vhttps://www.google.com/gen_204?atyp=i&ct=slh&cad=&ei=9WrzWPyaNZ6gjwTVk6CoDw&m=V&t=C&s=1&v=2&pv=0.7055788370910112&me=1:1492347640349,x:1,V,0,0,1280,944:0,N,1,9WrzWPyaNZ6gjwTVk6CoDw:0,R,1,24,8,155,1249,445:0,R,1,28,8,268,1249,332:0,R,1,29,0,269,1265,351:0,R,1,60,8,610,1249,421:0,R,1,61,8,610,1249,421:0,R,1,62,0,654,1265,397:2,B,4158:16520,e,U&zx=1492347661221
p1987
sVqueryString
p1988
(lp1989
(dp1990
Vname
p1991
Vatyp
p1992
sVvalue
p1993
g30
sa(dp1994
Vname
p1995
Vct
p1996
sVvalue
p1997
Vslh
p1998
sa(dp1999
Vname
p2000
Vcad
p2001
sVvalue
p2002
g4
sa(dp2003
Vname
p2004
Vei
p2005
sVvalue
p2006
V9WrzWPyaNZ6gjwTVk6CoDw
p2007
sa(dp2008
Vname
p2009
g47
sVvalue
p2010
g49
sa(dp2011
Vname
p2012
g52
sVvalue
p2013
g54
sa(dp2014
Vname
p2015
g57
sVvalue
p2016
g59
sa(dp2017
Vname
p2018
g62
sVvalue
p2019
g64
sa(dp2020
Vname
p2021
Vpv
p2022
sVvalue
p2023
V0.7055788370910112
p2024
sa(dp2025
Vname
p2026
Vme
p2027
sVvalue
p2028
V1:1492347640349,x:1,V,0,0,1280,944:0,N,1,9WrzWPyaNZ6gjwTVk6CoDw:0,R,1,24,8,155,1249,445:0,R,1,28,8,268,1249,332:0,R,1,29,0,269,1265,351:0,R,1,60,8,610,1249,421:0,R,1,61,8,610,1249,421:0,R,1,62,0,654,1265,397:2,B,4158:16520,e,U
p2029
sa(dp2030
Vname
p2031
Vzx
p2032
sVvalue
p2033
V1492347661221
p2034
sasVheaders
p2035
(lp2036
sVheadersSize
p2037
I877
sVbodySize
p2038
I0
sVmethod
p2039
VGET
p2040
sVhttpVersion
p2041
VHTTP/1.1
p2042
ssVtimings
p2043
(dp2044
Vcomment
p2045
g4
sVreceive
p2046
I0
sVsend
p2047
I0
sVssl
p2048
I-1
sVconnect
p2049
I-1
sVdns
p2050
I-1
sVwait
p2051
I24
sVblocked
p2052
I-1
ssVtime
p2053
I25
sVresponse
p2054
(dp2055
Vstatus
p2056
I204
sVcomment
p2057
g4
sVcookies
p2058
(lp2059
sVstatusText
p2060
VNo Content
p2061
sVcontent
p2062
(dp2063
VmimeType
p2064
Vtext/html; charset=UTF-8
p2065
sVcomment
p2066
g4
sVsize
p2067
I0
ssVheaders
p2068
(lp2069
sVheadersSize
p2070
I248
sVredirectURL
p2071
g4
sVbodySize
p2072
I0
sVhttpVersion
p2073
VHTTP/1.1
p2074
ssasVversion
p2075
V1.2
p2076
sVpages
p2077
(lp2078
(dp2079
VpageTimings
p2080
(dp2081
Vcomment
p2082
g4
ssVcomment
p2083
g4
sVtitle
p2084
VBrussels
p2085
sVid
p2086
VBrussels
p2087
sVstartedDateTime
p2088
V2017-04-16T08:00:56.866-05:00
p2089
sasVcreator
p2090
(dp2091
Vcomment
p2092
g4
sVversion
p2093
V2.1.4
p2094
sVname
p2095
VBrowserMob Proxy
p2096
sss.