(dp0
Vlog
p1
(dp2
Vcomment
p3
V
p4
sVentries
p5
(lp6
(dp7
Vcomment
p8
g4
sVserverIPAddress
p9
V172.217.6.4
p10
sVpageref
p11
VColin Kaepernick
p12
sVstartedDateTime
p13
V2017-04-16T08:19:11.084-05:00
p14
sVcache
p15
(dp16
sVrequest
p17
(dp18
Vcomment
p19
g4
sVcookies
p20
(lp21
sVurl
p22
Vhttps://www.google.com/gen_204?atyp=i&ct=slh&cad=&ei=Pm_zWJOuJ6nNjwS60ZGoAg&s=2&v=2&pv=0.6585819231904064&me=16:1492348740984,V,0,0,0,0:10099,e,U&zx=1492348751083
p23
sVqueryString
p24
(lp25
(dp26
Vname
p27
Vatyp
p28
sVvalue
p29
Vi
p30
sa(dp31
Vname
p32
Vct
p33
sVvalue
p34
Vslh
p35
sa(dp36
Vname
p37
Vcad
p38
sVvalue
p39
g4
sa(dp40
Vname
p41
Vei
p42
sVvalue
p43
VPm_zWJOuJ6nNjwS60ZGoAg
p44
sa(dp45
Vname
p46
Vs
p47
sVvalue
p48
V2
p49
sa(dp50
Vname
p51
Vv
p52
sVvalue
p53
g49
sa(dp54
Vname
p55
Vpv
p56
sVvalue
p57
V0.6585819231904064
p58
sa(dp59
Vname
p60
Vme
p61
sVvalue
p62
V16:1492348740984,V,0,0,0,0:10099,e,U
p63
sa(dp64
Vname
p65
Vzx
p66
sVvalue
p67
V1492348751083
p68
sasVheaders
p69
(lp70
sVheadersSize
p71
I679
sVbodySize
p72
I0
sVmethod
p73
VGET
p74
sVhttpVersion
p75
VHTTP/1.1
p76
ssVtimings
p77
(dp78
Vcomment
p79
g4
sVreceive
p80
I0
sVsend
p81
I0
sVssl
p82
I-1
sVconnect
p83
I-1
sVdns
p84
I-1
sVwait
p85
I0
sVblocked
p86
I-1
ssVtime
p87
I0
sVresponse
p88
(dp89
Vstatus
p90
I0
sVcomment
p91
g4
sVcookies
p92
(lp93
sV_error
p94
VNo response received
p95
sVstatusText
p96
g4
sVcontent
p97
(dp98
VmimeType
p99
g4
sVcomment
p100
g4
sVsize
p101
I0
ssVheaders
p102
(lp103
sVheadersSize
p104
I-1
sVredirectURL
p105
g4
sVbodySize
p106
I-1
sVhttpVersion
p107
Vunknown
p108
ssa(dp109
Vcomment
p110
g4
sVserverIPAddress
p111
V172.217.6.4
p112
sVpageref
p113
VColin Kaepernick
p114
sVstartedDateTime
p115
V2017-04-16T08:19:11.087-05:00
p116
sVcache
p117
(dp118
sVrequest
p119
(dp120
Vcomment
p121
g4
sVcookies
p122
(lp123
sVurl
p124
Vhttp://www.google.com/
p125
sVqueryString
p126
(lp127
sVheaders
p128
(lp129
sVheadersSize
p130
I613
sVbodySize
p131
I0
sVmethod
p132
VGET
p133
sVhttpVersion
p134
VHTTP/1.1
p135
ssVtimings
p136
(dp137
Vcomment
p138
g4
sVreceive
p139
I0
sVsend
p140
I0
sVssl
p141
I-1
sVconnect
p142
I-1
sVdns
p143
I-1
sVwait
p144
I56
sVblocked
p145
I-1
ssVtime
p146
I56
sVresponse
p147
(dp148
Vstatus
p149
I302
sVcomment
p150
g4
sVcookies
p151
(lp152
sVstatusText
p153
VFound
p154
sVcontent
p155
(dp156
VmimeType
p157
Vtext/html; charset=UTF-8
p158
sVcomment
p159
g4
sVsize
p160
I0
ssVheaders
p161
(lp162
sVheadersSize
p163
I609
sVredirectURL
p164
Vhttps://www.google.com/?gws_rd=ssl
p165
sVbodySize
p166
I231
sVhttpVersion
p167
VHTTP/1.1
p168
ssa(dp169
Vcomment
p170
g4
sVserverIPAddress
p171
V172.217.6.4
p172
sVpageref
p173
VColin Kaepernick
p174
sVstartedDateTime
p175
V2017-04-16T08:19:11.148-05:00
p176
sVcache
p177
(dp178
sVrequest
p179
(dp180
Vcomment
p181
g4
sVcookies
p182
(lp183
sVurl
p184
Vhttps://www.google.com/?gws_rd=ssl
p185
sVqueryString
p186
(lp187
(dp188
Vname
p189
Vgws_rd
p190
sVvalue
p191
Vssl
p192
sasVheaders
p193
(lp194
sVheadersSize
p195
I607
sVbodySize
p196
I0
sVmethod
p197
VGET
p198
sVhttpVersion
p199
VHTTP/1.1
p200
ssVtimings
p201
(dp202
Vcomment
p203
g4
sVreceive
p204
I23
sVsend
p205
I0
sVssl
p206
I-1
sVconnect
p207
I-1
sVdns
p208
I-1
sVwait
p209
I74
sVblocked
p210
I-1
ssVtime
p211
I98
sVresponse
p212
(dp213
Vstatus
p214
I200
sVcomment
p215
g4
sVcookies
p216
(lp217
sVstatusText
p218
VOK
p219
sVcontent
p220
(dp221
VmimeType
p222
Vtext/html; charset=UTF-8
p223
sVcomment
p224
g4
sVsize
p225
I0
ssVheaders
p226
(lp227
sVheadersSize
p228
I721
sVredirectURL
p229
g4
sVbodySize
p230
I34289
sVhttpVersion
p231
VHTTP/1.1
p232
ssa(dp233
Vcomment
p234
g4
sVserverIPAddress
p235
V172.217.6.4
p236
sVpageref
p237
VColin Kaepernick
p238
sVstartedDateTime
p239
V2017-04-16T08:19:11.625-05:00
p240
sVcache
p241
(dp242
sVrequest
p243
(dp244
Vcomment
p245
g4
sVcookies
p246
(lp247
sVurl
p248
Vhttps://www.google.com/gen_204?s=mobilewebhp&atyp=csi&ei=Tm_zWPiMCcjcjwSJgqeADg&imc=1&imn=1&imp=0&adh=&xjs=init.23.12.sb_mob.16.dvl.3.c.1.jsa.1.r.1&ima=1&rt=xjsls.8,prt.15,iml.15,dcl.188,xjses.240,xjsee.317,xjs.317,ol.376,aft.15,wsrt.161,cst.0,dnst.0,rqst.99,rspt.24,rqstt.65,unt.62,cstt.62,dit.186
p249
sVqueryString
p250
(lp251
(dp252
Vname
p253
g47
sVvalue
p254
Vmobilewebhp
p255
sa(dp256
Vname
p257
Vatyp
p258
sVvalue
p259
Vcsi
p260
sa(dp261
Vname
p262
Vei
p263
sVvalue
p264
VTm_zWPiMCcjcjwSJgqeADg
p265
sa(dp266
Vname
p267
Vimc
p268
sVvalue
p269
V1
p270
sa(dp271
Vname
p272
Vimn
p273
sVvalue
p274
g270
sa(dp275
Vname
p276
Vimp
p277
sVvalue
p278
V0
p279
sa(dp280
Vname
p281
Vadh
p282
sVvalue
p283
g4
sa(dp284
Vname
p285
Vxjs
p286
sVvalue
p287
Vinit.23.12.sb_mob.16.dvl.3.c.1.jsa.1.r.1
p288
sa(dp289
Vname
p290
Vima
p291
sVvalue
p292
g270
sa(dp293
Vname
p294
Vrt
p295
sVvalue
p296
Vxjsls.8,prt.15,iml.15,dcl.188,xjses.240,xjsee.317,xjs.317,ol.376,aft.15,wsrt.161,cst.0,dnst.0,rqst.99,rspt.24,rqstt.65,unt.62,cstt.62,dit.186
p297
sasVheaders
p298
(lp299
sVheadersSize
p300
I826
sVbodySize
p301
I0
sVmethod
p302
VGET
p303
sVhttpVersion
p304
VHTTP/1.1
p305
ssVtimings
p306
(dp307
Vcomment
p308
g4
sVreceive
p309
I0
sVsend
p310
I0
sVssl
p311
I-1
sVconnect
p312
I-1
sVdns
p313
I-1
sVwait
p314
I53
sVblocked
p315
I-1
ssVtime
p316
I53
sVresponse
p317
(dp318
Vstatus
p319
I204
sVcomment
p320
g4
sVcookies
p321
(lp322
sVstatusText
p323
VNo Content
p324
sVcontent
p325
(dp326
VmimeType
p327
Vtext/html; charset=UTF-8
p328
sVcomment
p329
g4
sVsize
p330
I0
ssVheaders
p331
(lp332
sVheadersSize
p333
I248
sVredirectURL
p334
g4
sVbodySize
p335
I0
sVhttpVersion
p336
VHTTP/1.1
p337
ssa(dp338
Vcomment
p339
g4
sVserverIPAddress
p340
V172.217.6.4
p341
sVpageref
p342
VColin Kaepernick
p343
sVstartedDateTime
p344
V2017-04-16T08:19:11.730-05:00
p345
sVcache
p346
(dp347
sVrequest
p348
(dp349
Vcomment
p350
g4
sVcookies
p351
(lp352
sVurl
p353
Vhttps://www.google.com/complete/search?client=mobile-gws-hp&hl=en&gs_rn=64&gs_ri=mobile-gws-hp&sla=1&pfq=conor%20mcgregor&gm=602&cp=0&gs_id=1&xhr=t&q=C&tch=1&ech=1&psi=Tm_zWPiMCcjcjwSJgqeADg.1492348751539.1
p354
sVqueryString
p355
(lp356
(dp357
Vname
p358
Vclient
p359
sVvalue
p360
Vmobile-gws-hp
p361
sa(dp362
Vname
p363
Vhl
p364
sVvalue
p365
Ven
p366
sa(dp367
Vname
p368
Vgs_rn
p369
sVvalue
p370
V64
p371
sa(dp372
Vname
p373
Vgs_ri
p374
sVvalue
p375
Vmobile-gws-hp
p376
sa(dp377
Vname
p378
Vsla
p379
sVvalue
p380
g270
sa(dp381
Vname
p382
Vpfq
p383
sVvalue
p384
Vconor mcgregor
p385
sa(dp386
Vname
p387
Vgm
p388
sVvalue
p389
V602
p390
sa(dp391
Vname
p392
Vcp
p393
sVvalue
p394
g279
sa(dp395
Vname
p396
Vgs_id
p397
sVvalue
p398
g270
sa(dp399
Vname
p400
Vxhr
p401
sVvalue
p402
Vt
p403
sa(dp404
Vname
p405
Vq
p406
sVvalue
p407
VC
p408
sa(dp409
Vname
p410
Vtch
p411
sVvalue
p412
g270
sa(dp413
Vname
p414
Vech
p415
sVvalue
p416
g270
sa(dp417
Vname
p418
Vpsi
p419
sVvalue
p420
VTm_zWPiMCcjcjwSJgqeADg.1492348751539.1
p421
sasVheaders
p422
(lp423
sVheadersSize
p424
I734
sVbodySize
p425
I0
sVmethod
p426
VGET
p427
sVhttpVersion
p428
VHTTP/1.1
p429
ssVtimings
p430
(dp431
Vcomment
p432
g4
sVreceive
p433
I0
sVsend
p434
I0
sVssl
p435
I-1
sVconnect
p436
I-1
sVdns
p437
I-1
sVwait
p438
I0
sVblocked
p439
I-1
ssVtime
p440
I0
sVresponse
p441
(dp442
Vstatus
p443
I0
sVcomment
p444
g4
sVcookies
p445
(lp446
sV_error
p447
VNo response received
p448
sVstatusText
p449
g4
sVcontent
p450
(dp451
VmimeType
p452
g4
sVcomment
p453
g4
sVsize
p454
I0
ssVheaders
p455
(lp456
sVheadersSize
p457
I-1
sVredirectURL
p458
g4
sVbodySize
p459
I-1
sVhttpVersion
p460
Vunknown
p461
ssa(dp462
Vcomment
p463
g4
sVserverIPAddress
p464
V172.217.6.4
p465
sVpageref
p466
VColin Kaepernick
p467
sVstartedDateTime
p468
V2017-04-16T08:19:11.795-05:00
p469
sVcache
p470
(dp471
sVrequest
p472
(dp473
Vcomment
p474
g4
sVcookies
p475
(lp476
sVurl
p477
Vhttps://www.google.com/search?site=&source=hp&ei=Tm_zWPiMCcjcjwSJgqeADg&q=Colin+Kaepernick&oq=Colin+Kaepernick&gs_l=mobile-gws-hp.3...171.209.0.234.16.1.0.0.0.0.0.0..0.0....0...1c.1.64.mobile-gws-hp..16.0.0.owbWwal-Bbs
p478
sVqueryString
p479
(lp480
(dp481
Vname
p482
Vsite
p483
sVvalue
p484
g4
sa(dp485
Vname
p486
Vsource
p487
sVvalue
p488
Vhp
p489
sa(dp490
Vname
p491
Vei
p492
sVvalue
p493
VTm_zWPiMCcjcjwSJgqeADg
p494
sa(dp495
Vname
p496
g406
sVvalue
p497
VColin Kaepernick
p498
sa(dp499
Vname
p500
Voq
p501
sVvalue
p502
VColin Kaepernick
p503
sa(dp504
Vname
p505
Vgs_l
p506
sVvalue
p507
Vmobile-gws-hp.3...171.209.0.234.16.1.0.0.0.0.0.0..0.0....0...1c.1.64.mobile-gws-hp..16.0.0.owbWwal-Bbs
p508
sasVheaders
p509
(lp510
sVheadersSize
p511
I836
sVbodySize
p512
I0
sVmethod
p513
VGET
p514
sVhttpVersion
p515
VHTTP/1.1
p516
ssVtimings
p517
(dp518
Vcomment
p519
g4
sVreceive
p520
I697
sVsend
p521
I0
sVssl
p522
I-1
sVconnect
p523
I-1
sVdns
p524
I-1
sVwait
p525
I93
sVblocked
p526
I-1
ssVtime
p527
I791
sVresponse
p528
(dp529
Vstatus
p530
I200
sVcomment
p531
g4
sVcookies
p532
(lp533
sVstatusText
p534
VOK
p535
sVcontent
p536
(dp537
VmimeType
p538
Vtext/html; charset=UTF-8
p539
sVcomment
p540
g4
sVsize
p541
I0
ssVheaders
p542
(lp543
sVheadersSize
p544
I363
sVredirectURL
p545
g4
sVbodySize
p546
I146960
sVhttpVersion
p547
VHTTP/1.1
p548
ssa(dp549
Vcomment
p550
g4
sVserverIPAddress
p551
V172.217.6.4
p552
sVpageref
p553
VColin Kaepernick
p554
sVstartedDateTime
p555
V2017-04-16T08:19:13.178-05:00
p556
sVcache
p557
(dp558
sVrequest
p559
(dp560
Vcomment
p561
g4
sVcookies
p562
(lp563
sVurl
p564
Vhttps://www.google.com/async/irc?vet=10ahUKEwiT1LCpiKnTAhUJzIMKHXytCRwQo0EI9gE..i&ved=0ahUKEwiT1LCpiKnTAhUJzIMKHXytCRwQo0EI9gE&ei=Tm_zWJP1MImYjwT82qbgAQ&yv=2&async=iu:1,ved:0ahUKEwiT1LCpiKnTAhUJzIMKHXytCRwQo0EI9gE,_id:irc_async,_pms:qs
p565
sVqueryString
p566
(lp567
(dp568
Vname
p569
Vvet
p570
sVvalue
p571
V10ahUKEwiT1LCpiKnTAhUJzIMKHXytCRwQo0EI9gE..i
p572
sa(dp573
Vname
p574
Vved
p575
sVvalue
p576
V0ahUKEwiT1LCpiKnTAhUJzIMKHXytCRwQo0EI9gE
p577
sa(dp578
Vname
p579
Vei
p580
sVvalue
p581
VTm_zWJP1MImYjwT82qbgAQ
p582
sa(dp583
Vname
p584
Vyv
p585
sVvalue
p586
g49
sa(dp587
Vname
p588
Vasync
p589
sVvalue
p590
Viu:1,ved:0ahUKEwiT1LCpiKnTAhUJzIMKHXytCRwQo0EI9gE,_id:irc_async,_pms:qs
p591
sasVheaders
p592
(lp593
sVheadersSize
p594
I752
sVbodySize
p595
I0
sVmethod
p596
VGET
p597
sVhttpVersion
p598
VHTTP/1.1
p599
ssVtimings
p600
(dp601
Vcomment
p602
g4
sVreceive
p603
I1
sVsend
p604
I0
sVssl
p605
I-1
sVconnect
p606
I-1
sVdns
p607
I-1
sVwait
p608
I39
sVblocked
p609
I-1
ssVtime
p610
I41
sVresponse
p611
(dp612
Vstatus
p613
I200
sVcomment
p614
g4
sVcookies
p615
(lp616
sVstatusText
p617
VOK
p618
sVcontent
p619
(dp620
VmimeType
p621
Vtext/html; charset=UTF-8
p622
sVcomment
p623
g4
sVsize
p624
I0
ssVheaders
p625
(lp626
sVheadersSize
p627
I383
sVredirectURL
p628
g4
sVbodySize
p629
I7792
sVhttpVersion
p630
VHTTP/1.1
p631
ssa(dp632
Vcomment
p633
g4
sVserverIPAddress
p634
V172.217.6.4
p635
sVpageref
p636
VColin Kaepernick
p637
sVstartedDateTime
p638
V2017-04-16T08:19:13.185-05:00
p639
sVcache
p640
(dp641
sVrequest
p642
(dp643
Vcomment
p644
g4
sVcookies
p645
(lp646
sVurl
p647
Vhttps://www.google.com/gen_204?atyp=i&ct=&cad=&vet=10ahUKEwiT1LCpiKnTAhUJzIMKHXytCRwQ5W0IVCgC..s&ei=Tm_zWJP1MImYjwT82qbgAQ&zx=1492348753184
p648
sVqueryString
p649
(lp650
(dp651
Vname
p652
Vatyp
p653
sVvalue
p654
g30
sa(dp655
Vname
p656
Vct
p657
sVvalue
p658
g4
sa(dp659
Vname
p660
Vcad
p661
sVvalue
p662
g4
sa(dp663
Vname
p664
Vvet
p665
sVvalue
p666
V10ahUKEwiT1LCpiKnTAhUJzIMKHXytCRwQ5W0IVCgC..s
p667
sa(dp668
Vname
p669
Vei
p670
sVvalue
p671
VTm_zWJP1MImYjwT82qbgAQ
p672
sa(dp673
Vname
p674
Vzx
p675
sVvalue
p676
V1492348753184
p677
sasVheaders
p678
(lp679
sVheadersSize
p680
I656
sVbodySize
p681
I0
sVmethod
p682
VGET
p683
sVhttpVersion
p684
VHTTP/1.1
p685
ssVtimings
p686
(dp687
Vcomment
p688
g4
sVreceive
p689
I0
sVsend
p690
I0
sVssl
p691
I-1
sVconnect
p692
I-1
sVdns
p693
I-1
sVwait
p694
I30
sVblocked
p695
I-1
ssVtime
p696
I30
sVresponse
p697
(dp698
Vstatus
p699
I204
sVcomment
p700
g4
sVcookies
p701
(lp702
sVstatusText
p703
VNo Content
p704
sVcontent
p705
(dp706
VmimeType
p707
Vtext/html; charset=UTF-8
p708
sVcomment
p709
g4
sVsize
p710
I0
ssVheaders
p711
(lp712
sVheadersSize
p713
I248
sVredirectURL
p714
g4
sVbodySize
p715
I0
sVhttpVersion
p716
VHTTP/1.1
p717
ssa(dp718
Vcomment
p719
g4
sVserverIPAddress
p720
V172.217.6.4
p721
sVpageref
p722
VColin Kaepernick
p723
sVstartedDateTime
p724
V2017-04-16T08:19:13.187-05:00
p725
sVcache
p726
(dp727
sVrequest
p728
(dp729
Vcomment
p730
g4
sVcookies
p731
(lp732
sVurl
p733
Vhttps://www.google.com/gen_204?atyp=i&ct=&cad=&vet=10ahUKEwiT1LCpiKnTAhUJzIMKHXytCRwQ5W0IVygD..s&ei=Tm_zWJP1MImYjwT82qbgAQ&zx=1492348753185
p734
sVqueryString
p735
(lp736
(dp737
Vname
p738
Vatyp
p739
sVvalue
p740
g30
sa(dp741
Vname
p742
Vct
p743
sVvalue
p744
g4
sa(dp745
Vname
p746
Vcad
p747
sVvalue
p748
g4
sa(dp749
Vname
p750
Vvet
p751
sVvalue
p752
V10ahUKEwiT1LCpiKnTAhUJzIMKHXytCRwQ5W0IVygD..s
p753
sa(dp754
Vname
p755
Vei
p756
sVvalue
p757
VTm_zWJP1MImYjwT82qbgAQ
p758
sa(dp759
Vname
p760
Vzx
p761
sVvalue
p762
V1492348753185
p763
sasVheaders
p764
(lp765
sVheadersSize
p766
I656
sVbodySize
p767
I0
sVmethod
p768
VGET
p769
sVhttpVersion
p770
VHTTP/1.1
p771
ssVtimings
p772
(dp773
Vcomment
p774
g4
sVreceive
p775
I0
sVsend
p776
I0
sVssl
p777
I-1
sVconnect
p778
I-1
sVdns
p779
I-1
sVwait
p780
I27
sVblocked
p781
I-1
ssVtime
p782
I27
sVresponse
p783
(dp784
Vstatus
p785
I204
sVcomment
p786
g4
sVcookies
p787
(lp788
sVstatusText
p789
VNo Content
p790
sVcontent
p791
(dp792
VmimeType
p793
Vtext/html; charset=UTF-8
p794
sVcomment
p795
g4
sVsize
p796
I0
ssVheaders
p797
(lp798
sVheadersSize
p799
I248
sVredirectURL
p800
g4
sVbodySize
p801
I0
sVhttpVersion
p802
VHTTP/1.1
p803
ssa(dp804
Vcomment
p805
g4
sVserverIPAddress
p806
V172.217.6.4
p807
sVpageref
p808
VColin Kaepernick
p809
sVstartedDateTime
p810
V2017-04-16T08:19:13.188-05:00
p811
sVcache
p812
(dp813
sVrequest
p814
(dp815
Vcomment
p816
g4
sVcookies
p817
(lp818
sVurl
p819
Vhttps://www.google.com/gen_204?atyp=i&ct=&cad=&vet=10ahUKEwiT1LCpiKnTAhUJzIMKHXytCRwQ5W0IWigE..s&ei=Tm_zWJP1MImYjwT82qbgAQ&zx=1492348753187
p820
sVqueryString
p821
(lp822
(dp823
Vname
p824
Vatyp
p825
sVvalue
p826
g30
sa(dp827
Vname
p828
Vct
p829
sVvalue
p830
g4
sa(dp831
Vname
p832
Vcad
p833
sVvalue
p834
g4
sa(dp835
Vname
p836
Vvet
p837
sVvalue
p838
V10ahUKEwiT1LCpiKnTAhUJzIMKHXytCRwQ5W0IWigE..s
p839
sa(dp840
Vname
p841
Vei
p842
sVvalue
p843
VTm_zWJP1MImYjwT82qbgAQ
p844
sa(dp845
Vname
p846
Vzx
p847
sVvalue
p848
V1492348753187
p849
sasVheaders
p850
(lp851
sVheadersSize
p852
I656
sVbodySize
p853
I0
sVmethod
p854
VGET
p855
sVhttpVersion
p856
VHTTP/1.1
p857
ssVtimings
p858
(dp859
Vcomment
p860
g4
sVreceive
p861
I0
sVsend
p862
I0
sVssl
p863
I-1
sVconnect
p864
I-1
sVdns
p865
I-1
sVwait
p866
I35
sVblocked
p867
I-1
ssVtime
p868
I35
sVresponse
p869
(dp870
Vstatus
p871
I204
sVcomment
p872
g4
sVcookies
p873
(lp874
sVstatusText
p875
VNo Content
p876
sVcontent
p877
(dp878
VmimeType
p879
Vtext/html; charset=UTF-8
p880
sVcomment
p881
g4
sVsize
p882
I0
ssVheaders
p883
(lp884
sVheadersSize
p885
I248
sVredirectURL
p886
g4
sVbodySize
p887
I0
sVhttpVersion
p888
VHTTP/1.1
p889
ssa(dp890
Vcomment
p891
g4
sVserverIPAddress
p892
V172.217.6.4
p893
sVpageref
p894
VColin Kaepernick
p895
sVstartedDateTime
p896
V2017-04-16T08:19:13.274-05:00
p897
sVcache
p898
(dp899
sVrequest
p900
(dp901
Vcomment
p902
g4
sVcookies
p903
(lp904
sVurl
p905
Vhttps://www.google.com/gen_204?atyp=i&ct=&cad=&vet=10ahUKEwiT1LCpiKnTAhUJzIMKHXytCRwQ5W0IXSgF..s&ei=Tm_zWJP1MImYjwT82qbgAQ&zx=1492348753189
p906
sVqueryString
p907
(lp908
(dp909
Vname
p910
Vatyp
p911
sVvalue
p912
g30
sa(dp913
Vname
p914
Vct
p915
sVvalue
p916
g4
sa(dp917
Vname
p918
Vcad
p919
sVvalue
p920
g4
sa(dp921
Vname
p922
Vvet
p923
sVvalue
p924
V10ahUKEwiT1LCpiKnTAhUJzIMKHXytCRwQ5W0IXSgF..s
p925
sa(dp926
Vname
p927
Vei
p928
sVvalue
p929
VTm_zWJP1MImYjwT82qbgAQ
p930
sa(dp931
Vname
p932
Vzx
p933
sVvalue
p934
V1492348753189
p935
sasVheaders
p936
(lp937
sVheadersSize
p938
I656
sVbodySize
p939
I0
sVmethod
p940
VGET
p941
sVhttpVersion
p942
VHTTP/1.1
p943
ssVtimings
p944
(dp945
Vcomment
p946
g4
sVreceive
p947
I0
sVsend
p948
I0
sVssl
p949
I25
sVconnect
p950
I48
sVdns
p951
I33
sVwait
p952
I28
sVblocked
p953
I0
ssVtime
p954
I110
sVresponse
p955
(dp956
Vstatus
p957
I204
sVcomment
p958
g4
sVcookies
p959
(lp960
sVstatusText
p961
VNo Content
p962
sVcontent
p963
(dp964
VmimeType
p965
Vtext/html; charset=UTF-8
p966
sVcomment
p967
g4
sVsize
p968
I0
ssVheaders
p969
(lp970
sVheadersSize
p971
I248
sVredirectURL
p972
g4
sVbodySize
p973
I0
sVhttpVersion
p974
VHTTP/1.1
p975
ssa(dp976
Vcomment
p977
g4
sVserverIPAddress
p978
V172.217.6.4
p979
sVpageref
p980
VColin Kaepernick
p981
sVstartedDateTime
p982
V2017-04-16T08:19:13.274-05:00
p983
sVcache
p984
(dp985
sVrequest
p986
(dp987
Vcomment
p988
g4
sVcookies
p989
(lp990
sVurl
p991
Vhttps://www.google.com/gen_204?atyp=i&ct=&cad=&vet=10ahUKEwiT1LCpiKnTAhUJzIMKHXytCRwQ5W0IYCgG..s&ei=Tm_zWJP1MImYjwT82qbgAQ&zx=1492348753193
p992
sVqueryString
p993
(lp994
(dp995
Vname
p996
Vatyp
p997
sVvalue
p998
g30
sa(dp999
Vname
p1000
Vct
p1001
sVvalue
p1002
g4
sa(dp1003
Vname
p1004
Vcad
p1005
sVvalue
p1006
g4
sa(dp1007
Vname
p1008
Vvet
p1009
sVvalue
p1010
V10ahUKEwiT1LCpiKnTAhUJzIMKHXytCRwQ5W0IYCgG..s
p1011
sa(dp1012
Vname
p1013
Vei
p1014
sVvalue
p1015
VTm_zWJP1MImYjwT82qbgAQ
p1016
sa(dp1017
Vname
p1018
Vzx
p1019
sVvalue
p1020
V1492348753193
p1021
sasVheaders
p1022
(lp1023
sVheadersSize
p1024
I656
sVbodySize
p1025
I0
sVmethod
p1026
VGET
p1027
sVhttpVersion
p1028
VHTTP/1.1
p1029
ssVtimings
p1030
(dp1031
Vcomment
p1032
g4
sVreceive
p1033
I0
sVsend
p1034
I0
sVssl
p1035
I25
sVconnect
p1036
I48
sVdns
p1037
I30
sVwait
p1038
I28
sVblocked
p1039
I0
ssVtime
p1040
I107
sVresponse
p1041
(dp1042
Vstatus
p1043
I204
sVcomment
p1044
g4
sVcookies
p1045
(lp1046
sVstatusText
p1047
VNo Content
p1048
sVcontent
p1049
(dp1050
VmimeType
p1051
Vtext/html; charset=UTF-8
p1052
sVcomment
p1053
g4
sVsize
p1054
I0
ssVheaders
p1055
(lp1056
sVheadersSize
p1057
I248
sVredirectURL
p1058
g4
sVbodySize
p1059
I0
sVhttpVersion
p1060
VHTTP/1.1
p1061
ssa(dp1062
Vcomment
p1063
g4
sVserverIPAddress
p1064
V172.217.6.4
p1065
sVpageref
p1066
VColin Kaepernick
p1067
sVstartedDateTime
p1068
V2017-04-16T08:19:13.281-05:00
p1069
sVcache
p1070
(dp1071
sVrequest
p1072
(dp1073
Vcomment
p1074
g4
sVcookies
p1075
(lp1076
sVurl
p1077
Vhttps://www.google.com/async/ampfp?vet=10ahUKEwiT1LCpiKnTAhUJzIMKHXytCRwQtZoBCPQB..i&ei=Tm_zWJP1MImYjwT82qbgAQ&yv=2&async=_id:ampfp-async,_pms:qs
p1078
sVqueryString
p1079
(lp1080
(dp1081
Vname
p1082
Vvet
p1083
sVvalue
p1084
V10ahUKEwiT1LCpiKnTAhUJzIMKHXytCRwQtZoBCPQB..i
p1085
sa(dp1086
Vname
p1087
Vei
p1088
sVvalue
p1089
VTm_zWJP1MImYjwT82qbgAQ
p1090
sa(dp1091
Vname
p1092
Vyv
p1093
sVvalue
p1094
g49
sa(dp1095
Vname
p1096
Vasync
p1097
sVvalue
p1098
V_id:ampfp-async,_pms:qs
p1099
sasVheaders
p1100
(lp1101
sVheadersSize
p1102
I662
sVbodySize
p1103
I0
sVmethod
p1104
VGET
p1105
sVhttpVersion
p1106
VHTTP/1.1
p1107
ssVtimings
p1108
(dp1109
Vcomment
p1110
g4
sVreceive
p1111
I0
sVsend
p1112
I0
sVssl
p1113
I-1
sVconnect
p1114
I-1
sVdns
p1115
I-1
sVwait
p1116
I35
sVblocked
p1117
I-1
ssVtime
p1118
I36
sVresponse
p1119
(dp1120
Vstatus
p1121
I200
sVcomment
p1122
g4
sVcookies
p1123
(lp1124
sVstatusText
p1125
VOK
p1126
sVcontent
p1127
(dp1128
VmimeType
p1129
Vtext/html; charset=UTF-8
p1130
sVcomment
p1131
g4
sVsize
p1132
I0
ssVheaders
p1133
(lp1134
sVheadersSize
p1135
I383
sVredirectURL
p1136
g4
sVbodySize
p1137
I4526
sVhttpVersion
p1138
VHTTP/1.1
p1139
ssa(dp1140
Vcomment
p1141
g4
sVserverIPAddress
p1142
V216.58.216.193
p1143
sVpageref
p1144
VColin Kaepernick
p1145
sVstartedDateTime
p1146
V2017-04-16T08:19:13.282-05:00
p1147
sVcache
p1148
(dp1149
sVrequest
p1150
(dp1151
Vcomment
p1152
g4
sVcookies
p1153
(lp1154
sVurl
p1155
Vhttps://cdn.ampproject.org/preconnect.gif?0.17826549909479528
p1156
sVqueryString
p1157
(lp1158
(dp1159
Vname
p1160
V0.17826549909479528
p1161
sVvalue
p1162
g4
sasVheaders
p1163
(lp1164
sVheadersSize
p1165
I376
sVbodySize
p1166
I0
sVmethod
p1167
VGET
p1168
sVhttpVersion
p1169
VHTTP/1.1
p1170
ssVtimings
p1171
(dp1172
Vcomment
p1173
g4
sVreceive
p1174
I0
sVsend
p1175
I0
sVssl
p1176
I-1
sVconnect
p1177
I-1
sVdns
p1178
I-1
sVwait
p1179
I29
sVblocked
p1180
I-1
ssVtime
p1181
I29
sVresponse
p1182
(dp1183
Vstatus
p1184
I200
sVcomment
p1185
g4
sVcookies
p1186
(lp1187
sVstatusText
p1188
VOK
p1189
sVcontent
p1190
(dp1191
VmimeType
p1192
Vimage/gif
p1193
sVcomment
p1194
g4
sVsize
p1195
I0
ssVheaders
p1196
(lp1197
sVheadersSize
p1198
I826
sVredirectURL
p1199
g4
sVbodySize
p1200
I37
sVhttpVersion
p1201
VHTTP/1.1
p1202
ssa(dp1203
Vcomment
p1204
g4
sVserverIPAddress
p1205
V172.217.6.4
p1206
sVpageref
p1207
VColin Kaepernick
p1208
sVstartedDateTime
p1209
V2017-04-16T08:19:13.449-05:00
p1210
sVcache
p1211
(dp1212
sVrequest
p1213
(dp1214
Vcomment
p1215
g4
sVcookies
p1216
(lp1217
sVurl
p1218
Vhttps://www.google.com/async/log_amp_item_set?vet=10ahUKEwjOhouqiKnTAhWn8YMKHY0YAvwQooQBCAE..i&ei=Tm_zWJP1MImYjwT82qbgAQ&yv=2&async=num_items:10,_fmt:jspb
p1219
sVqueryString
p1220
(lp1221
(dp1222
Vname
p1223
Vvet
p1224
sVvalue
p1225
V10ahUKEwjOhouqiKnTAhWn8YMKHY0YAvwQooQBCAE..i
p1226
sa(dp1227
Vname
p1228
Vei
p1229
sVvalue
p1230
VTm_zWJP1MImYjwT82qbgAQ
p1231
sa(dp1232
Vname
p1233
Vyv
p1234
sVvalue
p1235
g49
sa(dp1236
Vname
p1237
Vasync
p1238
sVvalue
p1239
Vnum_items:10,_fmt:jspb
p1240
sasVheaders
p1241
(lp1242
sVheadersSize
p1243
I671
sVbodySize
p1244
I0
sVmethod
p1245
VGET
p1246
sVhttpVersion
p1247
VHTTP/1.1
p1248
ssVtimings
p1249
(dp1250
Vcomment
p1251
g4
sVreceive
p1252
I0
sVsend
p1253
I0
sVssl
p1254
I-1
sVconnect
p1255
I-1
sVdns
p1256
I-1
sVwait
p1257
I112
sVblocked
p1258
I-1
ssVtime
p1259
I112
sVresponse
p1260
(dp1261
Vstatus
p1262
I200
sVcomment
p1263
g4
sVcookies
p1264
(lp1265
sVstatusText
p1266
VOK
p1267
sVcontent
p1268
(dp1269
VmimeType
p1270
Vapplication/json; charset=UTF-8
p1271
sVcomment
p1272
g4
sVsize
p1273
I0
ssVheaders
p1274
(lp1275
sVheadersSize
p1276
I417
sVredirectURL
p1277
g4
sVbodySize
p1278
I184
sVhttpVersion
p1279
VHTTP/1.1
p1280
ssa(dp1281
Vcomment
p1282
g4
sVserverIPAddress
p1283
V216.58.216.193
p1284
sVpageref
p1285
VColin Kaepernick
p1286
sVstartedDateTime
p1287
V2017-04-16T08:19:13.585-05:00
p1288
sVcache
p1289
(dp1290
sVrequest
p1291
(dp1292
Vcomment
p1293
g4
sVcookies
p1294
(lp1295
sVurl
p1296
Vhttps://www-forbes-com.cdn.ampproject.org/v/s/www.forbes.com/sites/simonogus/2017/04/15/broncos-lb-brandon-marshall-is-latest-nfl-player-to-voice-support-for-colin-kaepernick-to-get-signed/amp/?amp_js_v=9
p1297
sVqueryString
p1298
(lp1299
(dp1300
Vname
p1301
Vamp_js_v
p1302
sVvalue
p1303
V9
p1304
sasVheaders
p1305
(lp1306
sVheadersSize
p1307
I659
sVbodySize
p1308
I0
sVmethod
p1309
VGET
p1310
sVhttpVersion
p1311
VHTTP/1.1
p1312
ssVtimings
p1313
(dp1314
Vcomment
p1315
g4
sVreceive
p1316
I19
sVsend
p1317
I0
sVssl
p1318
I26
sVconnect
p1319
I106
sVdns
p1320
I3
sVwait
p1321
I39
sVblocked
p1322
I0
ssVtime
p1323
I169
sVresponse
p1324
(dp1325
Vstatus
p1326
I200
sVcomment
p1327
g4
sVcookies
p1328
(lp1329
sVstatusText
p1330
VOK
p1331
sVcontent
p1332
(dp1333
VmimeType
p1334
Vtext/html
p1335
sVcomment
p1336
g4
sVsize
p1337
I0
ssVheaders
p1338
(lp1339
sVheadersSize
p1340
I862
sVredirectURL
p1341
g4
sVbodySize
p1342
I17339
sVhttpVersion
p1343
VHTTP/1.1
p1344
ssa(dp1345
Vcomment
p1346
g4
sVserverIPAddress
p1347
V172.217.6.4
p1348
sVpageref
p1349
VColin Kaepernick
p1350
sVstartedDateTime
p1351
V2017-04-16T08:19:14.735-05:00
p1352
sVcache
p1353
(dp1354
sVrequest
p1355
(dp1356
Vcomment
p1357
g4
sVcookies
p1358
(lp1359
sVurl
p1360
Vhttps://www.google.com/gen_204?s=web&atyp=csi&ei=Tm_zWJP1MImYjwT82qbgAQ&imc=48&imn=48&imp=24&adh=&xjs=init.32.14.sb_mob.24.dvl.3.c.1.mbsf.1.jsa.1&ima=18&rt=prt.668,iml.805,xjsls.668,qiml.1005,dcl.865,xjses.935,xjsee.1068,xjs.1069,ol.2815,aft.803,wsrt.105,cst.0,dnst.0,rqst.792,rspt.697,rqstt.2,unt.1,cstt.1,dit.905
p1361
sVqueryString
p1362
(lp1363
(dp1364
Vname
p1365
g47
sVvalue
p1366
Vweb
p1367
sa(dp1368
Vname
p1369
Vatyp
p1370
sVvalue
p1371
Vcsi
p1372
sa(dp1373
Vname
p1374
Vei
p1375
sVvalue
p1376
VTm_zWJP1MImYjwT82qbgAQ
p1377
sa(dp1378
Vname
p1379
Vimc
p1380
sVvalue
p1381
V48
p1382
sa(dp1383
Vname
p1384
Vimn
p1385
sVvalue
p1386
V48
p1387
sa(dp1388
Vname
p1389
Vimp
p1390
sVvalue
p1391
V24
p1392
sa(dp1393
Vname
p1394
Vadh
p1395
sVvalue
p1396
g4
sa(dp1397
Vname
p1398
Vxjs
p1399
sVvalue
p1400
Vinit.32.14.sb_mob.24.dvl.3.c.1.mbsf.1.jsa.1
p1401
sa(dp1402
Vname
p1403
Vima
p1404
sVvalue
p1405
V18
p1406
sa(dp1407
Vname
p1408
Vrt
p1409
sVvalue
p1410
Vprt.668,iml.805,xjsls.668,qiml.1005,dcl.865,xjses.935,xjsee.1068,xjs.1069,ol.2815,aft.803,wsrt.105,cst.0,dnst.0,rqst.792,rspt.697,rqstt.2,unt.1,cstt.1,dit.905
p1411
sasVheaders
p1412
(lp1413
sVheadersSize
p1414
I831
sVbodySize
p1415
I0
sVmethod
p1416
VGET
p1417
sVhttpVersion
p1418
VHTTP/1.1
p1419
ssVtimings
p1420
(dp1421
Vcomment
p1422
g4
sVreceive
p1423
I0
sVsend
p1424
I0
sVssl
p1425
I-1
sVconnect
p1426
I-1
sVdns
p1427
I-1
sVwait
p1428
I28
sVblocked
p1429
I-1
ssVtime
p1430
I29
sVresponse
p1431
(dp1432
Vstatus
p1433
I204
sVcomment
p1434
g4
sVcookies
p1435
(lp1436
sVstatusText
p1437
VNo Content
p1438
sVcontent
p1439
(dp1440
VmimeType
p1441
Vtext/html; charset=UTF-8
p1442
sVcomment
p1443
g4
sVsize
p1444
I0
ssVheaders
p1445
(lp1446
sVheadersSize
p1447
I248
sVredirectURL
p1448
g4
sVbodySize
p1449
I0
sVhttpVersion
p1450
VHTTP/1.1
p1451
ssa(dp1452
Vcomment
p1453
g4
sVserverIPAddress
p1454
V172.217.6.4
p1455
sVpageref
p1456
VColin Kaepernick
p1457
sVstartedDateTime
p1458
V2017-04-16T08:19:15.245-05:00
p1459
sVcache
p1460
(dp1461
sVrequest
p1462
(dp1463
Vcomment
p1464
g4
sVcookies
p1465
(lp1466
sVurl
p1467
Vhttps://www.google.com/gen_204?atyp=i&ct=slh&cad=&ei=Pm_zWJOuJ6nNjwS60ZGoAg&s=2&v=2&pv=0.6585819231904064&me=16:1492348740984,V,0,0,0,0:10099,e,U&zx=1492348755244
p1468
sVqueryString
p1469
(lp1470
(dp1471
Vname
p1472
Vatyp
p1473
sVvalue
p1474
g30
sa(dp1475
Vname
p1476
Vct
p1477
sVvalue
p1478
Vslh
p1479
sa(dp1480
Vname
p1481
Vcad
p1482
sVvalue
p1483
g4
sa(dp1484
Vname
p1485
Vei
p1486
sVvalue
p1487
VPm_zWJOuJ6nNjwS60ZGoAg
p1488
sa(dp1489
Vname
p1490
g47
sVvalue
p1491
g49
sa(dp1492
Vname
p1493
g52
sVvalue
p1494
g49
sa(dp1495
Vname
p1496
Vpv
p1497
sVvalue
p1498
V0.6585819231904064
p1499
sa(dp1500
Vname
p1501
Vme
p1502
sVvalue
p1503
V16:1492348740984,V,0,0,0,0:10099,e,U
p1504
sa(dp1505
Vname
p1506
Vzx
p1507
sVvalue
p1508
V1492348755244
p1509
sasVheaders
p1510
(lp1511
sVheadersSize
p1512
I679
sVbodySize
p1513
I0
sVmethod
p1514
VGET
p1515
sVhttpVersion
p1516
VHTTP/1.1
p1517
ssVtimings
p1518
(dp1519
Vcomment
p1520
g4
sVreceive
p1521
I0
sVsend
p1522
I0
sVssl
p1523
I-1
sVconnect
p1524
I-1
sVdns
p1525
I-1
sVwait
p1526
I298
sVblocked
p1527
I-1
ssVtime
p1528
I298
sVresponse
p1529
(dp1530
Vstatus
p1531
I204
sVcomment
p1532
g4
sVcookies
p1533
(lp1534
sVstatusText
p1535
VNo Content
p1536
sVcontent
p1537
(dp1538
VmimeType
p1539
Vtext/html; charset=UTF-8
p1540
sVcomment
p1541
g4
sVsize
p1542
I0
ssVheaders
p1543
(lp1544
sVheadersSize
p1545
I248
sVredirectURL
p1546
g4
sVbodySize
p1547
I0
sVhttpVersion
p1548
VHTTP/1.1
p1549
ssasVversion
p1550
V1.2
p1551
sVpages
p1552
(lp1553
(dp1554
VpageTimings
p1555
(dp1556
Vcomment
p1557
g4
ssVcomment
p1558
g4
sVtitle
p1559
VColin Kaepernick
p1560
sVid
p1561
VColin Kaepernick
p1562
sVstartedDateTime
p1563
V2017-04-16T08:19:11.076-05:00
p1564
sasVcreator
p1565
(dp1566
Vcomment
p1567
g4
sVversion
p1568
V2.1.4
p1569
sVname
p1570
VBrowserMob Proxy
p1571
sss.