(dp0
Vlog
p1
(dp2
Vcomment
p3
V
p4
sVentries
p5
(lp6
(dp7
Vcomment
p8
g4
sVserverIPAddress
p9
V216.58.216.196
p10
sVpageref
p11
VChicago Cubs
p12
sVstartedDateTime
p13
V2017-04-16T08:24:42.021-05:00
p14
sVcache
p15
(dp16
sVrequest
p17
(dp18
Vcomment
p19
g4
sVcookies
p20
(lp21
sVurl
p22
Vhttps://www.google.com/gen_204?atyp=i&ct=slh&cad=&ei=hXDzWJzKCIemjwTNpKy4Bw&m=V&t=C&s=1&v=2&pv=0.40385463963755264&me=1:1492349063750,x:1,V,0,0,1280,944:0,N,1,hXDzWJzKCIemjwTNpKy4Bw:0,R,1,24,8,155,1249,445:0,R,1,28,8,268,1249,332:0,R,1,29,0,269,1265,351:0,R,1,60,8,610,1249,417:0,R,1,61,8,610,1249,417:0,R,1,64,8,623,1249,40:0,R,1,77,8,675,1249,178:0,R,1,80,0,691,1265,197:0,R,1,120,8,870,1249,20:0,R,1,121,24,870,1217,20:0,R,1,131,8,906,1249,20:0,R,1,134,8,934,1249,20:2,B,3409:18266,e,U&zx=1492349082019
p23
sVqueryString
p24
(lp25
(dp26
Vname
p27
Vatyp
p28
sVvalue
p29
Vi
p30
sa(dp31
Vname
p32
Vct
p33
sVvalue
p34
Vslh
p35
sa(dp36
Vname
p37
Vcad
p38
sVvalue
p39
g4
sa(dp40
Vname
p41
Vei
p42
sVvalue
p43
VhXDzWJzKCIemjwTNpKy4Bw
p44
sa(dp45
Vname
p46
Vm
p47
sVvalue
p48
VV
p49
sa(dp50
Vname
p51
Vt
p52
sVvalue
p53
VC
p54
sa(dp55
Vname
p56
Vs
p57
sVvalue
p58
V1
p59
sa(dp60
Vname
p61
Vv
p62
sVvalue
p63
V2
p64
sa(dp65
Vname
p66
Vpv
p67
sVvalue
p68
V0.40385463963755264
p69
sa(dp70
Vname
p71
Vme
p72
sVvalue
p73
V1:1492349063750,x:1,V,0,0,1280,944:0,N,1,hXDzWJzKCIemjwTNpKy4Bw:0,R,1,24,8,155,1249,445:0,R,1,28,8,268,1249,332:0,R,1,29,0,269,1265,351:0,R,1,60,8,610,1249,417:0,R,1,61,8,610,1249,417:0,R,1,64,8,623,1249,40:0,R,1,77,8,675,1249,178:0,R,1,80,0,691,1265,197:0,R,1,120,8,870,1249,20:0,R,1,121,24,870,1217,20:0,R,1,131,8,906,1249,20:0,R,1,134,8,934,1249,20:2,B,3409:18266,e,U
p74
sa(dp75
Vname
p76
Vzx
p77
sVvalue
p78
V1492349082019
p79
sasVheaders
p80
(lp81
sVheadersSize
p82
I1022
sVbodySize
p83
I0
sVmethod
p84
VGET
p85
sVhttpVersion
p86
VHTTP/1.1
p87
ssVtimings
p88
(dp89
Vcomment
p90
g4
sVreceive
p91
I0
sVsend
p92
I0
sVssl
p93
I-1
sVconnect
p94
I-1
sVdns
p95
I-1
sVwait
p96
I0
sVblocked
p97
I-1
ssVtime
p98
I0
sVresponse
p99
(dp100
Vstatus
p101
I0
sVcomment
p102
g4
sVcookies
p103
(lp104
sV_error
p105
VNo response received
p106
sVstatusText
p107
g4
sVcontent
p108
(dp109
VmimeType
p110
g4
sVcomment
p111
g4
sVsize
p112
I0
ssVheaders
p113
(lp114
sVheadersSize
p115
I-1
sVredirectURL
p116
g4
sVbodySize
p117
I-1
sVhttpVersion
p118
Vunknown
p119
ssa(dp120
Vcomment
p121
g4
sVserverIPAddress
p122
V216.58.216.196
p123
sVpageref
p124
VChicago Cubs
p125
sVstartedDateTime
p126
V2017-04-16T08:24:42.021-05:00
p127
sVcache
p128
(dp129
sVrequest
p130
(dp131
Vcomment
p132
g4
sVcookies
p133
(lp134
sVurl
p135
Vhttps://www.google.com/gen_204?atyp=i&ct=slh&cad=&ei=UXDzWPr8N6qijwSRuYvwBA&s=3&v=2&pv=0.3333314943202711&me=21:1492349022727,e,H&zx=1492349082020
p136
sVqueryString
p137
(lp138
(dp139
Vname
p140
Vatyp
p141
sVvalue
p142
g30
sa(dp143
Vname
p144
Vct
p145
sVvalue
p146
Vslh
p147
sa(dp148
Vname
p149
Vcad
p150
sVvalue
p151
g4
sa(dp152
Vname
p153
Vei
p154
sVvalue
p155
VUXDzWPr8N6qijwSRuYvwBA
p156
sa(dp157
Vname
p158
g57
sVvalue
p159
V3
p160
sa(dp161
Vname
p162
g62
sVvalue
p163
g64
sa(dp164
Vname
p165
Vpv
p166
sVvalue
p167
V0.3333314943202711
p168
sa(dp169
Vname
p170
Vme
p171
sVvalue
p172
V21:1492349022727,e,H
p173
sa(dp174
Vname
p175
Vzx
p176
sVvalue
p177
V1492349082020
p178
sasVheaders
p179
(lp180
sVheadersSize
p181
I663
sVbodySize
p182
I0
sVmethod
p183
VGET
p184
sVhttpVersion
p185
VHTTP/1.1
p186
ssVtimings
p187
(dp188
Vcomment
p189
g4
sVreceive
p190
I0
sVsend
p191
I0
sVssl
p192
I-1
sVconnect
p193
I-1
sVdns
p194
I-1
sVwait
p195
I0
sVblocked
p196
I-1
ssVtime
p197
I0
sVresponse
p198
(dp199
Vstatus
p200
I0
sVcomment
p201
g4
sVcookies
p202
(lp203
sV_error
p204
VNo response received
p205
sVstatusText
p206
g4
sVcontent
p207
(dp208
VmimeType
p209
g4
sVcomment
p210
g4
sVsize
p211
I0
ssVheaders
p212
(lp213
sVheadersSize
p214
I-1
sVredirectURL
p215
g4
sVbodySize
p216
I-1
sVhttpVersion
p217
Vunknown
p218
ssa(dp219
Vcomment
p220
g4
sVserverIPAddress
p221
V216.58.216.196
p222
sVpageref
p223
VChicago Cubs
p224
sVstartedDateTime
p225
V2017-04-16T08:24:42.024-05:00
p226
sVcache
p227
(dp228
sVrequest
p229
(dp230
Vcomment
p231
g4
sVcookies
p232
(lp233
sVurl
p234
Vhttp://www.google.com/
p235
sVqueryString
p236
(lp237
sVheaders
p238
(lp239
sVheadersSize
p240
I613
sVbodySize
p241
I0
sVmethod
p242
VGET
p243
sVhttpVersion
p244
VHTTP/1.1
p245
ssVtimings
p246
(dp247
Vcomment
p248
g4
sVreceive
p249
I0
sVsend
p250
I0
sVssl
p251
I-1
sVconnect
p252
I-1
sVdns
p253
I-1
sVwait
p254
I42
sVblocked
p255
I-1
ssVtime
p256
I42
sVresponse
p257
(dp258
Vstatus
p259
I302
sVcomment
p260
g4
sVcookies
p261
(lp262
sVstatusText
p263
VFound
p264
sVcontent
p265
(dp266
VmimeType
p267
Vtext/html; charset=UTF-8
p268
sVcomment
p269
g4
sVsize
p270
I0
ssVheaders
p271
(lp272
sVheadersSize
p273
I609
sVredirectURL
p274
Vhttps://www.google.com/?gws_rd=ssl
p275
sVbodySize
p276
I231
sVhttpVersion
p277
VHTTP/1.1
p278
ssa(dp279
Vcomment
p280
g4
sVserverIPAddress
p281
V216.58.216.196
p282
sVpageref
p283
VChicago Cubs
p284
sVstartedDateTime
p285
V2017-04-16T08:24:42.070-05:00
p286
sVcache
p287
(dp288
sVrequest
p289
(dp290
Vcomment
p291
g4
sVcookies
p292
(lp293
sVurl
p294
Vhttps://www.google.com/?gws_rd=ssl
p295
sVqueryString
p296
(lp297
(dp298
Vname
p299
Vgws_rd
p300
sVvalue
p301
Vssl
p302
sasVheaders
p303
(lp304
sVheadersSize
p305
I607
sVbodySize
p306
I0
sVmethod
p307
VGET
p308
sVhttpVersion
p309
VHTTP/1.1
p310
ssVtimings
p311
(dp312
Vcomment
p313
g4
sVreceive
p314
I41
sVsend
p315
I0
sVssl
p316
I-1
sVconnect
p317
I-1
sVdns
p318
I-1
sVwait
p319
I75
sVblocked
p320
I-1
ssVtime
p321
I117
sVresponse
p322
(dp323
Vstatus
p324
I200
sVcomment
p325
g4
sVcookies
p326
(lp327
sVstatusText
p328
VOK
p329
sVcontent
p330
(dp331
VmimeType
p332
Vtext/html; charset=UTF-8
p333
sVcomment
p334
g4
sVsize
p335
I0
ssVheaders
p336
(lp337
sVheadersSize
p338
I721
sVredirectURL
p339
g4
sVbodySize
p340
I34294
sVhttpVersion
p341
VHTTP/1.1
p342
ssa(dp343
Vcomment
p344
g4
sVserverIPAddress
p345
V216.58.216.196
p346
sVpageref
p347
VChicago Cubs
p348
sVstartedDateTime
p349
V2017-04-16T08:24:42.421-05:00
p350
sVcache
p351
(dp352
sVrequest
p353
(dp354
Vcomment
p355
g4
sVcookies
p356
(lp357
sVurl
p358
Vhttps://www.google.com/gen_204?s=mobilewebhp&atyp=csi&ei=mXDzWLWVBIfYjwSPkZWQAg&imc=1&imn=1&imp=0&adh=&xjs=init.28.12.sb_mob.20.dvl.3.foot.2.c.1.jsa.1&ima=1&rt=xjsls.11,prt.37,iml.37,dcl.56,xjses.100,xjsee.194,xjs.194,ol.249,aft.37,wsrt.148,cst.0,dnst.0,rqst.118,rspt.42,rqstt.51,unt.49,cstt.49,dit.200
p359
sVqueryString
p360
(lp361
(dp362
Vname
p363
g57
sVvalue
p364
Vmobilewebhp
p365
sa(dp366
Vname
p367
Vatyp
p368
sVvalue
p369
Vcsi
p370
sa(dp371
Vname
p372
Vei
p373
sVvalue
p374
VmXDzWLWVBIfYjwSPkZWQAg
p375
sa(dp376
Vname
p377
Vimc
p378
sVvalue
p379
g59
sa(dp380
Vname
p381
Vimn
p382
sVvalue
p383
g59
sa(dp384
Vname
p385
Vimp
p386
sVvalue
p387
V0
p388
sa(dp389
Vname
p390
Vadh
p391
sVvalue
p392
g4
sa(dp393
Vname
p394
Vxjs
p395
sVvalue
p396
Vinit.28.12.sb_mob.20.dvl.3.foot.2.c.1.jsa.1
p397
sa(dp398
Vname
p399
Vima
p400
sVvalue
p401
g59
sa(dp402
Vname
p403
Vrt
p404
sVvalue
p405
Vxjsls.11,prt.37,iml.37,dcl.56,xjses.100,xjsee.194,xjs.194,ol.249,aft.37,wsrt.148,cst.0,dnst.0,rqst.118,rspt.42,rqstt.51,unt.49,cstt.49,dit.200
p406
sasVheaders
p407
(lp408
sVheadersSize
p409
I830
sVbodySize
p410
I0
sVmethod
p411
VGET
p412
sVhttpVersion
p413
VHTTP/1.1
p414
ssVtimings
p415
(dp416
Vcomment
p417
g4
sVreceive
p418
I0
sVsend
p419
I0
sVssl
p420
I-1
sVconnect
p421
I-1
sVdns
p422
I-1
sVwait
p423
I50
sVblocked
p424
I-1
ssVtime
p425
I50
sVresponse
p426
(dp427
Vstatus
p428
I204
sVcomment
p429
g4
sVcookies
p430
(lp431
sVstatusText
p432
VNo Content
p433
sVcontent
p434
(dp435
VmimeType
p436
Vtext/html; charset=UTF-8
p437
sVcomment
p438
g4
sVsize
p439
I0
ssVheaders
p440
(lp441
sVheadersSize
p442
I248
sVredirectURL
p443
g4
sVbodySize
p444
I0
sVhttpVersion
p445
VHTTP/1.1
p446
ssa(dp447
Vcomment
p448
g4
sVserverIPAddress
p449
V216.58.216.196
p450
sVpageref
p451
VChicago Cubs
p452
sVstartedDateTime
p453
V2017-04-16T08:24:42.552-05:00
p454
sVcache
p455
(dp456
sVrequest
p457
(dp458
Vcomment
p459
g4
sVcookies
p460
(lp461
sVurl
p462
Vhttps://www.google.com/complete/search?client=mobile-gws-hp&hl=en&gs_rn=64&gs_ri=mobile-gws-hp&sla=1&pfq=chris%20sale&gm=602&cp=0&gs_id=1&xhr=t&q=C&tch=1&ech=1&psi=mXDzWLWVBIfYjwSPkZWQAg.1492349082333.1
p463
sVqueryString
p464
(lp465
(dp466
Vname
p467
Vclient
p468
sVvalue
p469
Vmobile-gws-hp
p470
sa(dp471
Vname
p472
Vhl
p473
sVvalue
p474
Ven
p475
sa(dp476
Vname
p477
Vgs_rn
p478
sVvalue
p479
V64
p480
sa(dp481
Vname
p482
Vgs_ri
p483
sVvalue
p484
Vmobile-gws-hp
p485
sa(dp486
Vname
p487
Vsla
p488
sVvalue
p489
g59
sa(dp490
Vname
p491
Vpfq
p492
sVvalue
p493
Vchris sale
p494
sa(dp495
Vname
p496
Vgm
p497
sVvalue
p498
V602
p499
sa(dp500
Vname
p501
Vcp
p502
sVvalue
p503
g388
sa(dp504
Vname
p505
Vgs_id
p506
sVvalue
p507
g59
sa(dp508
Vname
p509
Vxhr
p510
sVvalue
p511
g52
sa(dp512
Vname
p513
Vq
p514
sVvalue
p515
g54
sa(dp516
Vname
p517
Vtch
p518
sVvalue
p519
g59
sa(dp520
Vname
p521
Vech
p522
sVvalue
p523
g59
sa(dp524
Vname
p525
Vpsi
p526
sVvalue
p527
VmXDzWLWVBIfYjwSPkZWQAg.1492349082333.1
p528
sasVheaders
p529
(lp530
sVheadersSize
p531
I730
sVbodySize
p532
I0
sVmethod
p533
VGET
p534
sVhttpVersion
p535
VHTTP/1.1
p536
ssVtimings
p537
(dp538
Vcomment
p539
g4
sVreceive
p540
I0
sVsend
p541
I0
sVssl
p542
I-1
sVconnect
p543
I-1
sVdns
p544
I-1
sVwait
p545
I0
sVblocked
p546
I-1
ssVtime
p547
I0
sVresponse
p548
(dp549
Vstatus
p550
I0
sVcomment
p551
g4
sVcookies
p552
(lp553
sV_error
p554
VNo response received
p555
sVstatusText
p556
g4
sVcontent
p557
(dp558
VmimeType
p559
g4
sVcomment
p560
g4
sVsize
p561
I0
ssVheaders
p562
(lp563
sVheadersSize
p564
I-1
sVredirectURL
p565
g4
sVbodySize
p566
I-1
sVhttpVersion
p567
Vunknown
p568
ssa(dp569
Vcomment
p570
g4
sVserverIPAddress
p571
V216.58.216.196
p572
sVpageref
p573
VChicago Cubs
p574
sVstartedDateTime
p575
V2017-04-16T08:24:42.623-05:00
p576
sVcache
p577
(dp578
sVrequest
p579
(dp580
Vcomment
p581
g4
sVcookies
p582
(lp583
sVurl
p584
Vhttps://www.google.com/search?site=&source=hp&ei=mXDzWLWVBIfYjwSPkZWQAg&q=Chicago+Cubs&oq=Chicago+Cubs&gs_l=mobile-gws-hp.3...196.230.0.265.12.1.0.0.0.0.0.0..0.0....0...1c.1.64.mobile-gws-hp..12.0.0.BjURxppP6PM
p585
sVqueryString
p586
(lp587
(dp588
Vname
p589
Vsite
p590
sVvalue
p591
g4
sa(dp592
Vname
p593
Vsource
p594
sVvalue
p595
Vhp
p596
sa(dp597
Vname
p598
Vei
p599
sVvalue
p600
VmXDzWLWVBIfYjwSPkZWQAg
p601
sa(dp602
Vname
p603
g514
sVvalue
p604
VChicago Cubs
p605
sa(dp606
Vname
p607
Voq
p608
sVvalue
p609
VChicago Cubs
p610
sa(dp611
Vname
p612
Vgs_l
p613
sVvalue
p614
Vmobile-gws-hp.3...196.230.0.265.12.1.0.0.0.0.0.0..0.0....0...1c.1.64.mobile-gws-hp..12.0.0.BjURxppP6PM
p615
sasVheaders
p616
(lp617
sVheadersSize
p618
I828
sVbodySize
p619
I0
sVmethod
p620
VGET
p621
sVhttpVersion
p622
VHTTP/1.1
p623
ssVtimings
p624
(dp625
Vcomment
p626
g4
sVreceive
p627
I1160
sVsend
p628
I0
sVssl
p629
I-1
sVconnect
p630
I-1
sVdns
p631
I-1
sVwait
p632
I386
sVblocked
p633
I-1
ssVtime
p634
I1547
sVresponse
p635
(dp636
Vstatus
p637
I200
sVcomment
p638
g4
sVcookies
p639
(lp640
sVstatusText
p641
VOK
p642
sVcontent
p643
(dp644
VmimeType
p645
Vtext/html; charset=UTF-8
p646
sVcomment
p647
g4
sVsize
p648
I0
ssVheaders
p649
(lp650
sVheadersSize
p651
I363
sVredirectURL
p652
g4
sVbodySize
p653
I288635
sVhttpVersion
p654
VHTTP/1.1
p655
ssa(dp656
Vcomment
p657
g4
sVserverIPAddress
p658
V216.58.216.196
p659
sVpageref
p660
VChicago Cubs
p661
sVstartedDateTime
p662
V2017-04-16T08:24:44.020-05:00
p663
sVcache
p664
(dp665
sVrequest
p666
(dp667
Vcomment
p668
g4
sVcookies
p669
(lp670
sVurl
p671
Vhttps://www.google.com/gen_204?atyp=i&ct=&cad=udla=1&ei=mXDzWLaDJsTqjwTY3p2QAQ&b=0&act=p&ps=0&zx=1492349084019
p672
sVqueryString
p673
(lp674
(dp675
Vname
p676
Vatyp
p677
sVvalue
p678
g30
sa(dp679
Vname
p680
Vct
p681
sVvalue
p682
g4
sa(dp683
Vname
p684
Vcad
p685
sVvalue
p686
Vudla=1
p687
sa(dp688
Vname
p689
Vei
p690
sVvalue
p691
VmXDzWLaDJsTqjwTY3p2QAQ
p692
sa(dp693
Vname
p694
Vb
p695
sVvalue
p696
g388
sa(dp697
Vname
p698
Vact
p699
sVvalue
p700
Vp
p701
sa(dp702
Vname
p703
Vps
p704
sVvalue
p705
g388
sa(dp706
Vname
p707
Vzx
p708
sVvalue
p709
V1492349084019
p710
sasVheaders
p711
(lp712
sVheadersSize
p713
I627
sVbodySize
p714
I0
sVmethod
p715
VGET
p716
sVhttpVersion
p717
VHTTP/1.1
p718
ssVtimings
p719
(dp720
Vcomment
p721
g4
sVreceive
p722
I0
sVsend
p723
I0
sVssl
p724
I-1
sVconnect
p725
I-1
sVdns
p726
I-1
sVwait
p727
I31
sVblocked
p728
I-1
ssVtime
p729
I32
sVresponse
p730
(dp731
Vstatus
p732
I204
sVcomment
p733
g4
sVcookies
p734
(lp735
sVstatusText
p736
VNo Content
p737
sVcontent
p738
(dp739
VmimeType
p740
Vtext/html; charset=UTF-8
p741
sVcomment
p742
g4
sVsize
p743
I0
ssVheaders
p744
(lp745
sVheadersSize
p746
I248
sVredirectURL
p747
g4
sVbodySize
p748
I0
sVhttpVersion
p749
VHTTP/1.1
p750
ssa(dp751
Vcomment
p752
g4
sVserverIPAddress
p753
V216.58.216.196
p754
sVpageref
p755
VChicago Cubs
p756
sVstartedDateTime
p757
V2017-04-16T08:24:44.028-05:00
p758
sVcache
p759
(dp760
sVrequest
p761
(dp762
Vcomment
p763
g4
sVcookies
p764
(lp765
sVurl
p766
Vhttps://www.google.com/images/cleardot.gif
p767
sVqueryString
p768
(lp769
sVheaders
p770
(lp771
sVheadersSize
p772
I559
sVbodySize
p773
I0
sVmethod
p774
VGET
p775
sVhttpVersion
p776
VHTTP/1.1
p777
ssVtimings
p778
(dp779
Vcomment
p780
g4
sVreceive
p781
I0
sVsend
p782
I0
sVssl
p783
I-1
sVconnect
p784
I-1
sVdns
p785
I-1
sVwait
p786
I33
sVblocked
p787
I-1
ssVtime
p788
I33
sVresponse
p789
(dp790
Vstatus
p791
I200
sVcomment
p792
g4
sVcookies
p793
(lp794
sVstatusText
p795
VOK
p796
sVcontent
p797
(dp798
VmimeType
p799
Vimage/gif
p800
sVcomment
p801
g4
sVsize
p802
I0
ssVheaders
p803
(lp804
sVheadersSize
p805
I381
sVredirectURL
p806
g4
sVbodySize
p807
I43
sVhttpVersion
p808
VHTTP/1.1
p809
ssa(dp810
Vcomment
p811
g4
sVserverIPAddress
p812
V172.217.0.3
p813
sVpageref
p814
VChicago Cubs
p815
sVstartedDateTime
p816
V2017-04-16T08:24:45.027-05:00
p817
sVcache
p818
(dp819
sVrequest
p820
(dp821
Vcomment
p822
g4
sVcookies
p823
(lp824
sVurl
p825
Vhttps://www.gstatic.com/kpui/social/pinterest_32x32.png
p826
sVqueryString
p827
(lp828
sVheaders
p829
(lp830
sVheadersSize
p831
I370
sVbodySize
p832
I0
sVmethod
p833
VGET
p834
sVhttpVersion
p835
VHTTP/1.1
p836
ssVtimings
p837
(dp838
Vcomment
p839
g4
sVreceive
p840
I0
sVsend
p841
I0
sVssl
p842
I70
sVconnect
p843
I94
sVdns
p844
I0
sVwait
p845
I19
sVblocked
p846
I0
ssVtime
p847
I114
sVresponse
p848
(dp849
Vstatus
p850
I200
sVcomment
p851
g4
sVcookies
p852
(lp853
sVstatusText
p854
VOK
p855
sVcontent
p856
(dp857
VmimeType
p858
Vimage/png
p859
sVcomment
p860
g4
sVsize
p861
I0
ssVheaders
p862
(lp863
sVheadersSize
p864
I395
sVredirectURL
p865
g4
sVbodySize
p866
I1108
sVhttpVersion
p867
VHTTP/1.1
p868
ssa(dp869
Vcomment
p870
g4
sVserverIPAddress
p871
V172.217.0.3
p872
sVpageref
p873
VChicago Cubs
p874
sVstartedDateTime
p875
V2017-04-16T08:24:45.058-05:00
p876
sVcache
p877
(dp878
sVrequest
p879
(dp880
Vcomment
p881
g4
sVcookies
p882
(lp883
sVurl
p884
Vhttps://www.gstatic.com/onebox/sports/logos/inverse-crest.svg
p885
sVqueryString
p886
(lp887
sVheaders
p888
(lp889
sVheadersSize
p890
I376
sVbodySize
p891
I0
sVmethod
p892
VGET
p893
sVhttpVersion
p894
VHTTP/1.1
p895
ssVtimings
p896
(dp897
Vcomment
p898
g4
sVreceive
p899
I0
sVsend
p900
I0
sVssl
p901
I919
sVconnect
p902
I955
sVdns
p903
I35
sVwait
p904
I31
sVblocked
p905
I0
ssVtime
p906
I1022
sVresponse
p907
(dp908
Vstatus
p909
I200
sVcomment
p910
g4
sVcookies
p911
(lp912
sVstatusText
p913
VOK
p914
sVcontent
p915
(dp916
VmimeType
p917
Vimage/svg+xml
p918
sVcomment
p919
g4
sVsize
p920
I0
ssVheaders
p921
(lp922
sVheadersSize
p923
I441
sVredirectURL
p924
g4
sVbodySize
p925
I482
sVhttpVersion
p926
VHTTP/1.1
p927
ssa(dp928
Vcomment
p929
g4
sVserverIPAddress
p930
V172.217.0.3
p931
sVpageref
p932
VChicago Cubs
p933
sVstartedDateTime
p934
V2017-04-16T08:24:45.103-05:00
p935
sVcache
p936
(dp937
sVrequest
p938
(dp939
Vcomment
p940
g4
sVcookies
p941
(lp942
sVurl
p943
Vhttps://www.gstatic.com/kpui/social/tumblr_32x32.png
p944
sVqueryString
p945
(lp946
sVheaders
p947
(lp948
sVheadersSize
p949
I367
sVbodySize
p950
I0
sVmethod
p951
VGET
p952
sVhttpVersion
p953
VHTTP/1.1
p954
ssVtimings
p955
(dp956
Vcomment
p957
g4
sVreceive
p958
I0
sVsend
p959
I0
sVssl
p960
I39
sVconnect
p961
I65
sVdns
p962
I0
sVwait
p963
I32
sVblocked
p964
I0
ssVtime
p965
I98
sVresponse
p966
(dp967
Vstatus
p968
I200
sVcomment
p969
g4
sVcookies
p970
(lp971
sVstatusText
p972
VOK
p973
sVcontent
p974
(dp975
VmimeType
p976
Vimage/png
p977
sVcomment
p978
g4
sVsize
p979
I0
ssVheaders
p980
(lp981
sVheadersSize
p982
I373
sVredirectURL
p983
g4
sVbodySize
p984
I272
sVhttpVersion
p985
VHTTP/1.1
p986
ssa(dp987
Vcomment
p988
g4
sVserverIPAddress
p989
V216.58.216.196
p990
sVpageref
p991
VChicago Cubs
p992
sVstartedDateTime
p993
V2017-04-16T08:24:45.356-05:00
p994
sVcache
p995
(dp996
sVrequest
p997
(dp998
Vcomment
p999
g4
sVcookies
p1000
(lp1001
sVurl
p1002
Vhttps://www.google.com/xjs/_/js/k=xjs.qs.en_US.pCBXVCvTH3s.O/m=syl,syj,syn,em3,em8,em6,em7,sym,aa,abd,sy2g,sy2k,sy29,sy2j,sy2d,sy2a,sy2c,sy2f,sy2l,sy2m,sy2n,emd,async,sybn,sybi,sybo,sy1f,sy45,sy46,sy9w,sybk,sybj,sybp,sy1g,sy30,sy47,sybm,sybl,sybq,sy1h,sybh,dvl,syep,foot,ipv6,sy5g,sy5j,sy5h,sy6u,sy7d,sy7j,sy2x,sy5i,sy89,sy7e,sy23,sy2y,sy5k,sy6c,sy91,sy9b,sy9l,syhi,syhj,syhk,syhl,lr,lrli,sy32,emj,shm,sykh,tl,sy2t,sy38,em12,vs,sy66,sy67,sy4u,sy69,sykk,sykl,tnv,bct,sy48,sy3a,sy3c,sy5b,sy4x,sy4z,sy56,sy1y,sy31,sy4y,sy22,sy6i,sy4h,sy6h,sy6o,sya3,sy5d,sy25,sy6j,sy6k,sy6r,sya2,sy5e,sy6n,emb,em9,ema,sy24,sy2o,sy4c,sy65,sy6p,sy6s,sy6w,sy72,sya4,syd7,syel,syho,syhs,syhu,syhv,sio,sy6y,sycu,d3l,sy5x,qif,tabs,sy9m,syac,sy4g,sy9n,syhz,syl6,ssc,sy26,sykr,strm,syh6,syl5,kac,kae,strx,twt,sy2u,sy34,sy6l,sy6m,qkx,syf5,sy99,syf4,syfc,syfn,syf7,syff,sy1i,sy68,sy8d,syf6,syfl,syfr,syfq,syfg,sy1j,sy4q,sy5o,sy5r,sy8h,syc7,syc8,syfb,syfj,syfs,syft,syg3,syg5,syg7,emn,emo,syg4,syg6,ivg,iuci,img,sy4d,sy4f,sy4e,sy4b,shrb,dgm,sy41,tcc,sy1r,sy8g,syer,sy9u,syex,syey,syet,syeu,syew,syez,syf0,hlr,sy4i,syes,hlmi,sygq,kpc,kpci,sy5z,atn,sya1,ampfp/am=gCP4LtMEBXQA2RUaq_oFBISzAFA/rt=j/d=0/t=zcms/rs=ACT90oFwm4NZCwIcuuiqmthdlECdBzkhRA
p1003
sVqueryString
p1004
(lp1005
sVheaders
p1006
(lp1007
sVheadersSize
p1008
I1728
sVbodySize
p1009
I0
sVmethod
p1010
VGET
p1011
sVhttpVersion
p1012
VHTTP/1.1
p1013
ssVtimings
p1014
(dp1015
Vcomment
p1016
g4
sVreceive
p1017
I172
sVsend
p1018
I0
sVssl
p1019
I-1
sVconnect
p1020
I-1
sVdns
p1021
I-1
sVwait
p1022
I55
sVblocked
p1023
I-1
ssVtime
p1024
I227
sVresponse
p1025
(dp1026
Vstatus
p1027
I200
sVcomment
p1028
g4
sVcookies
p1029
(lp1030
sVstatusText
p1031
VOK
p1032
sVcontent
p1033
(dp1034
VmimeType
p1035
Vtext/javascript; charset=UTF-8
p1036
sVcomment
p1037
g4
sVsize
p1038
I0
ssVheaders
p1039
(lp1040
sVheadersSize
p1041
I464
sVredirectURL
p1042
g4
sVbodySize
p1043
I225822
sVhttpVersion
p1044
VHTTP/1.1
p1045
ssa(dp1046
Vcomment
p1047
g4
sVserverIPAddress
p1048
V172.217.0.3
p1049
sVpageref
p1050
VChicago Cubs
p1051
sVstartedDateTime
p1052
V2017-04-16T08:24:45.418-05:00
p1053
sVcache
p1054
(dp1055
sVrequest
p1056
(dp1057
Vcomment
p1058
g4
sVcookies
p1059
(lp1060
sVurl
p1061
Vhttps://ssl.gstatic.com/onebox/media/sports/logos/9QU7ONeilzMGYb2AxTHzqA_96x96.png
p1062
sVqueryString
p1063
(lp1064
sVheaders
p1065
(lp1066
sVheadersSize
p1067
I397
sVbodySize
p1068
I0
sVmethod
p1069
VGET
p1070
sVhttpVersion
p1071
VHTTP/1.1
p1072
ssVtimings
p1073
(dp1074
Vcomment
p1075
g4
sVreceive
p1076
I0
sVsend
p1077
I0
sVssl
p1078
I1288
sVconnect
p1079
I1352
sVdns
p1080
I34
sVwait
p1081
I164
sVblocked
p1082
I0
ssVtime
p1083
I1551
sVresponse
p1084
(dp1085
Vstatus
p1086
I200
sVcomment
p1087
g4
sVcookies
p1088
(lp1089
sVstatusText
p1090
VOK
p1091
sVcontent
p1092
(dp1093
VmimeType
p1094
Vimage/png
p1095
sVcomment
p1096
g4
sVsize
p1097
I0
ssVheaders
p1098
(lp1099
sVheadersSize
p1100
I422
sVredirectURL
p1101
g4
sVbodySize
p1102
I2829
sVhttpVersion
p1103
VHTTP/1.1
p1104
ssa(dp1105
Vcomment
p1106
g4
sVserverIPAddress
p1107
V172.217.0.3
p1108
sVpageref
p1109
VChicago Cubs
p1110
sVstartedDateTime
p1111
V2017-04-16T08:24:45.418-05:00
p1112
sVcache
p1113
(dp1114
sVrequest
p1115
(dp1116
Vcomment
p1117
g4
sVcookies
p1118
(lp1119
sVurl
p1120
Vhttps://ssl.gstatic.com/onebox/media/sports/logos/PBmgKhiGoYOGTl1L5FGaiQ_48x48.png
p1121
sVqueryString
p1122
(lp1123
sVheaders
p1124
(lp1125
sVheadersSize
p1126
I397
sVbodySize
p1127
I0
sVmethod
p1128
VGET
p1129
sVhttpVersion
p1130
VHTTP/1.1
p1131
ssVtimings
p1132
(dp1133
Vcomment
p1134
g4
sVreceive
p1135
I0
sVsend
p1136
I0
sVssl
p1137
I1317
sVconnect
p1138
I1354
sVdns
p1139
I33
sVwait
p1140
I165
sVblocked
p1141
I0
ssVtime
p1142
I1554
sVresponse
p1143
(dp1144
Vstatus
p1145
I200
sVcomment
p1146
g4
sVcookies
p1147
(lp1148
sVstatusText
p1149
VOK
p1150
sVcontent
p1151
(dp1152
VmimeType
p1153
Vimage/png
p1154
sVcomment
p1155
g4
sVsize
p1156
I0
ssVheaders
p1157
(lp1158
sVheadersSize
p1159
I424
sVredirectURL
p1160
g4
sVbodySize
p1161
I3496
sVhttpVersion
p1162
VHTTP/1.1
p1163
ssa(dp1164
Vcomment
p1165
g4
sVserverIPAddress
p1166
V172.217.0.3
p1167
sVpageref
p1168
VChicago Cubs
p1169
sVstartedDateTime
p1170
V2017-04-16T08:24:45.422-05:00
p1171
sVcache
p1172
(dp1173
sVrequest
p1174
(dp1175
Vcomment
p1176
g4
sVcookies
p1177
(lp1178
sVurl
p1179
Vhttps://ssl.gstatic.com/onebox/sports/immersive/ic_sports_miniapp.png
p1180
sVqueryString
p1181
(lp1182
sVheaders
p1183
(lp1184
sVheadersSize
p1185
I384
sVbodySize
p1186
I0
sVmethod
p1187
VGET
p1188
sVhttpVersion
p1189
VHTTP/1.1
p1190
ssVtimings
p1191
(dp1192
Vcomment
p1193
g4
sVreceive
p1194
I0
sVsend
p1195
I0
sVssl
p1196
I1281
sVconnect
p1197
I1316
sVdns
p1198
I31
sVwait
p1199
I160
sVblocked
p1200
I0
ssVtime
p1201
I1509
sVresponse
p1202
(dp1203
Vstatus
p1204
I200
sVcomment
p1205
g4
sVcookies
p1206
(lp1207
sVstatusText
p1208
VOK
p1209
sVcontent
p1210
(dp1211
VmimeType
p1212
Vimage/png
p1213
sVcomment
p1214
g4
sVsize
p1215
I0
ssVheaders
p1216
(lp1217
sVheadersSize
p1218
I394
sVredirectURL
p1219
g4
sVbodySize
p1220
I836
sVhttpVersion
p1221
VHTTP/1.1
p1222
ssa(dp1223
Vcomment
p1224
g4
sVserverIPAddress
p1225
V172.217.0.3
p1226
sVpageref
p1227
VChicago Cubs
p1228
sVstartedDateTime
p1229
V2017-04-16T08:24:45.431-05:00
p1230
sVcache
p1231
(dp1232
sVrequest
p1233
(dp1234
Vcomment
p1235
g4
sVcookies
p1236
(lp1237
sVurl
p1238
Vhttps://ssl.gstatic.com/onebox/media/sports/logos/FGq_lQ42AmQDXXJOZ6ZOEA_48x48.png
p1239
sVqueryString
p1240
(lp1241
sVheaders
p1242
(lp1243
sVheadersSize
p1244
I397
sVbodySize
p1245
I0
sVmethod
p1246
VGET
p1247
sVhttpVersion
p1248
VHTTP/1.1
p1249
ssVtimings
p1250
(dp1251
Vcomment
p1252
g4
sVreceive
p1253
I0
sVsend
p1254
I0
sVssl
p1255
I1289
sVconnect
p1256
I1358
sVdns
p1257
I32
sVwait
p1258
I152
sVblocked
p1259
I0
ssVtime
p1260
I1543
sVresponse
p1261
(dp1262
Vstatus
p1263
I200
sVcomment
p1264
g4
sVcookies
p1265
(lp1266
sVstatusText
p1267
VOK
p1268
sVcontent
p1269
(dp1270
VmimeType
p1271
Vimage/png
p1272
sVcomment
p1273
g4
sVsize
p1274
I0
ssVheaders
p1275
(lp1276
sVheadersSize
p1277
I424
sVredirectURL
p1278
g4
sVbodySize
p1279
I3270
sVhttpVersion
p1280
VHTTP/1.1
p1281
ssa(dp1282
Vcomment
p1283
g4
sVserverIPAddress
p1284
V172.217.0.3
p1285
sVpageref
p1286
VChicago Cubs
p1287
sVstartedDateTime
p1288
V2017-04-16T08:24:45.439-05:00
p1289
sVcache
p1290
(dp1291
sVrequest
p1292
(dp1293
Vcomment
p1294
g4
sVcookies
p1295
(lp1296
sVurl
p1297
Vhttps://ssl.gstatic.com/images/icons/material/system/1x/more_vert_white_48dp.png
p1298
sVqueryString
p1299
(lp1300
sVheaders
p1301
(lp1302
sVheadersSize
p1303
I395
sVbodySize
p1304
I0
sVmethod
p1305
VGET
p1306
sVhttpVersion
p1307
VHTTP/1.1
p1308
ssVtimings
p1309
(dp1310
Vcomment
p1311
g4
sVreceive
p1312
I0
sVsend
p1313
I0
sVssl
p1314
I1320
sVconnect
p1315
I1375
sVdns
p1316
I32
sVwait
p1317
I144
sVblocked
p1318
I0
ssVtime
p1319
I1552
sVresponse
p1320
(dp1321
Vstatus
p1322
I200
sVcomment
p1323
g4
sVcookies
p1324
(lp1325
sVstatusText
p1326
VOK
p1327
sVcontent
p1328
(dp1329
VmimeType
p1330
Vimage/png
p1331
sVcomment
p1332
g4
sVsize
p1333
I0
ssVheaders
p1334
(lp1335
sVheadersSize
p1336
I408
sVredirectURL
p1337
g4
sVbodySize
p1338
I139
sVhttpVersion
p1339
VHTTP/1.1
p1340
ssa(dp1341
Vcomment
p1342
g4
sVserverIPAddress
p1343
V172.217.0.3
p1344
sVpageref
p1345
VChicago Cubs
p1346
sVstartedDateTime
p1347
V2017-04-16T08:24:45.465-05:00
p1348
sVcache
p1349
(dp1350
sVrequest
p1351
(dp1352
Vcomment
p1353
g4
sVcookies
p1354
(lp1355
sVurl
p1356
Vhttps://ssl.gstatic.com/onebox/media/sports/logos/PBmgKhiGoYOGTl1L5FGaiQ_96x96.png
p1357
sVqueryString
p1358
(lp1359
sVheaders
p1360
(lp1361
sVheadersSize
p1362
I397
sVbodySize
p1363
I0
sVmethod
p1364
VGET
p1365
sVhttpVersion
p1366
VHTTP/1.1
p1367
ssVtimings
p1368
(dp1369
Vcomment
p1370
g4
sVreceive
p1371
I0
sVsend
p1372
I0
sVssl
p1373
I1363
sVconnect
p1374
I1401
sVdns
p1375
I32
sVwait
p1376
I121
sVblocked
p1377
I0
ssVtime
p1378
I1556
sVresponse
p1379
(dp1380
Vstatus
p1381
I200
sVcomment
p1382
g4
sVcookies
p1383
(lp1384
sVstatusText
p1385
VOK
p1386
sVcontent
p1387
(dp1388
VmimeType
p1389
Vimage/png
p1390
sVcomment
p1391
g4
sVsize
p1392
I0
ssVheaders
p1393
(lp1394
sVheadersSize
p1395
I424
sVredirectURL
p1396
g4
sVbodySize
p1397
I7070
sVhttpVersion
p1398
VHTTP/1.1
p1399
ssa(dp1400
Vcomment
p1401
g4
sVserverIPAddress
p1402
V216.58.216.196
p1403
sVpageref
p1404
VChicago Cubs
p1405
sVstartedDateTime
p1406
V2017-04-16T08:24:46.398-05:00
p1407
sVcache
p1408
(dp1409
sVrequest
p1410
(dp1411
Vcomment
p1412
g4
sVcookies
p1413
(lp1414
sVurl
p1415
Vhttps://www.google.com/async/irc?vet=10ahUKEwj2s5DHianTAhVE9YMKHVhvBxIQo0EIqQM..i&ved=0ahUKEwj2s5DHianTAhVE9YMKHVhvBxIQo0EIqQM&ei=mXDzWLaDJsTqjwTY3p2QAQ&yv=2&async=iu:1,ved:0ahUKEwj2s5DHianTAhVE9YMKHVhvBxIQo0EIqQM,_id:irc_async,_pms:qs
p1416
sVqueryString
p1417
(lp1418
(dp1419
Vname
p1420
Vvet
p1421
sVvalue
p1422
V10ahUKEwj2s5DHianTAhVE9YMKHVhvBxIQo0EIqQM..i
p1423
sa(dp1424
Vname
p1425
Vved
p1426
sVvalue
p1427
V0ahUKEwj2s5DHianTAhVE9YMKHVhvBxIQo0EIqQM
p1428
sa(dp1429
Vname
p1430
Vei
p1431
sVvalue
p1432
VmXDzWLaDJsTqjwTY3p2QAQ
p1433
sa(dp1434
Vname
p1435
Vyv
p1436
sVvalue
p1437
g64
sa(dp1438
Vname
p1439
Vasync
p1440
sVvalue
p1441
Viu:1,ved:0ahUKEwj2s5DHianTAhVE9YMKHVhvBxIQo0EIqQM,_id:irc_async,_pms:qs
p1442
sasVheaders
p1443
(lp1444
sVheadersSize
p1445
I752
sVbodySize
p1446
I0
sVmethod
p1447
VGET
p1448
sVhttpVersion
p1449
VHTTP/1.1
p1450
ssVtimings
p1451
(dp1452
Vcomment
p1453
g4
sVreceive
p1454
I1
sVsend
p1455
I0
sVssl
p1456
I-1
sVconnect
p1457
I-1
sVdns
p1458
I-1
sVwait
p1459
I223
sVblocked
p1460
I-1
ssVtime
p1461
I225
sVresponse
p1462
(dp1463
Vstatus
p1464
I200
sVcomment
p1465
g4
sVcookies
p1466
(lp1467
sVstatusText
p1468
VOK
p1469
sVcontent
p1470
(dp1471
VmimeType
p1472
Vtext/html; charset=UTF-8
p1473
sVcomment
p1474
g4
sVsize
p1475
I0
ssVheaders
p1476
(lp1477
sVheadersSize
p1478
I383
sVredirectURL
p1479
g4
sVbodySize
p1480
I7790
sVhttpVersion
p1481
VHTTP/1.1
p1482
ssa(dp1483
Vcomment
p1484
g4
sVserverIPAddress
p1485
V216.58.216.196
p1486
sVpageref
p1487
VChicago Cubs
p1488
sVstartedDateTime
p1489
V2017-04-16T08:24:46.497-05:00
p1490
sVcache
p1491
(dp1492
sVrequest
p1493
(dp1494
Vcomment
p1495
g4
sVcookies
p1496
(lp1497
sVurl
p1498
Vhttps://www.google.com/async/ampfp?vet=10ahUKEwj2s5DHianTAhVE9YMKHVhvBxIQtZoBCKcD..i&ei=mXDzWLaDJsTqjwTY3p2QAQ&yv=2&async=_id:ampfp-async,_pms:qs
p1499
sVqueryString
p1500
(lp1501
(dp1502
Vname
p1503
Vvet
p1504
sVvalue
p1505
V10ahUKEwj2s5DHianTAhVE9YMKHVhvBxIQtZoBCKcD..i
p1506
sa(dp1507
Vname
p1508
Vei
p1509
sVvalue
p1510
VmXDzWLaDJsTqjwTY3p2QAQ
p1511
sa(dp1512
Vname
p1513
Vyv
p1514
sVvalue
p1515
g64
sa(dp1516
Vname
p1517
Vasync
p1518
sVvalue
p1519
V_id:ampfp-async,_pms:qs
p1520
sasVheaders
p1521
(lp1522
sVheadersSize
p1523
I662
sVbodySize
p1524
I0
sVmethod
p1525
VGET
p1526
sVhttpVersion
p1527
VHTTP/1.1
p1528
ssVtimings
p1529
(dp1530
Vcomment
p1531
g4
sVreceive
p1532
I1
sVsend
p1533
I0
sVssl
p1534
I-1
sVconnect
p1535
I-1
sVdns
p1536
I-1
sVwait
p1537
I43
sVblocked
p1538
I-1
ssVtime
p1539
I45
sVresponse
p1540
(dp1541
Vstatus
p1542
I200
sVcomment
p1543
g4
sVcookies
p1544
(lp1545
sVstatusText
p1546
VOK
p1547
sVcontent
p1548
(dp1549
VmimeType
p1550
Vtext/html; charset=UTF-8
p1551
sVcomment
p1552
g4
sVsize
p1553
I0
ssVheaders
p1554
(lp1555
sVheadersSize
p1556
I383
sVredirectURL
p1557
g4
sVbodySize
p1558
I4525
sVhttpVersion
p1559
VHTTP/1.1
p1560
ssa(dp1561
Vcomment
p1562
g4
sVserverIPAddress
p1563
V216.58.216.193
p1564
sVpageref
p1565
VChicago Cubs
p1566
sVstartedDateTime
p1567
V2017-04-16T08:24:46.498-05:00
p1568
sVcache
p1569
(dp1570
sVrequest
p1571
(dp1572
Vcomment
p1573
g4
sVcookies
p1574
(lp1575
sVurl
p1576
Vhttps://cdn.ampproject.org/preconnect.gif?0.16629454788226983
p1577
sVqueryString
p1578
(lp1579
(dp1580
Vname
p1581
V0.16629454788226983
p1582
sVvalue
p1583
g4
sasVheaders
p1584
(lp1585
sVheadersSize
p1586
I376
sVbodySize
p1587
I0
sVmethod
p1588
VGET
p1589
sVhttpVersion
p1590
VHTTP/1.1
p1591
ssVtimings
p1592
(dp1593
Vcomment
p1594
g4
sVreceive
p1595
I0
sVsend
p1596
I0
sVssl
p1597
I-1
sVconnect
p1598
I-1
sVdns
p1599
I-1
sVwait
p1600
I35
sVblocked
p1601
I-1
ssVtime
p1602
I35
sVresponse
p1603
(dp1604
Vstatus
p1605
I200
sVcomment
p1606
g4
sVcookies
p1607
(lp1608
sVstatusText
p1609
VOK
p1610
sVcontent
p1611
(dp1612
VmimeType
p1613
Vimage/gif
p1614
sVcomment
p1615
g4
sVsize
p1616
I0
ssVheaders
p1617
(lp1618
sVheadersSize
p1619
I826
sVredirectURL
p1620
g4
sVbodySize
p1621
I37
sVhttpVersion
p1622
VHTTP/1.1
p1623
ssa(dp1624
Vcomment
p1625
g4
sVserverIPAddress
p1626
V216.58.216.196
p1627
sVpageref
p1628
VChicago Cubs
p1629
sVstartedDateTime
p1630
V2017-04-16T08:24:46.890-05:00
p1631
sVcache
p1632
(dp1633
sVrequest
p1634
(dp1635
Vcomment
p1636
g4
sVcookies
p1637
(lp1638
sVurl
p1639
Vhttps://www.google.com/async/log_amp_item_set?vet=10ahUKEwjH2fzIianTAhUq7oMKHVkkD-YQooQBCAE..i&ei=mXDzWLaDJsTqjwTY3p2QAQ&yv=2&async=num_items:10,_fmt:jspb
p1640
sVqueryString
p1641
(lp1642
(dp1643
Vname
p1644
Vvet
p1645
sVvalue
p1646
V10ahUKEwjH2fzIianTAhUq7oMKHVkkD-YQooQBCAE..i
p1647
sa(dp1648
Vname
p1649
Vei
p1650
sVvalue
p1651
VmXDzWLaDJsTqjwTY3p2QAQ
p1652
sa(dp1653
Vname
p1654
Vyv
p1655
sVvalue
p1656
g64
sa(dp1657
Vname
p1658
Vasync
p1659
sVvalue
p1660
Vnum_items:10,_fmt:jspb
p1661
sasVheaders
p1662
(lp1663
sVheadersSize
p1664
I671
sVbodySize
p1665
I0
sVmethod
p1666
VGET
p1667
sVhttpVersion
p1668
VHTTP/1.1
p1669
ssVtimings
p1670
(dp1671
Vcomment
p1672
g4
sVreceive
p1673
I0
sVsend
p1674
I0
sVssl
p1675
I-1
sVconnect
p1676
I-1
sVdns
p1677
I-1
sVwait
p1678
I31
sVblocked
p1679
I-1
ssVtime
p1680
I31
sVresponse
p1681
(dp1682
Vstatus
p1683
I200
sVcomment
p1684
g4
sVcookies
p1685
(lp1686
sVstatusText
p1687
VOK
p1688
sVcontent
p1689
(dp1690
VmimeType
p1691
Vapplication/json; charset=UTF-8
p1692
sVcomment
p1693
g4
sVsize
p1694
I0
ssVheaders
p1695
(lp1696
sVheadersSize
p1697
I417
sVredirectURL
p1698
g4
sVbodySize
p1699
I185
sVhttpVersion
p1700
VHTTP/1.1
p1701
ssa(dp1702
Vcomment
p1703
g4
sVserverIPAddress
p1704
V172.217.0.1
p1705
sVpageref
p1706
VChicago Cubs
p1707
sVstartedDateTime
p1708
V2017-04-16T08:24:46.929-05:00
p1709
sVcache
p1710
(dp1711
sVrequest
p1712
(dp1713
Vcomment
p1714
g4
sVcookies
p1715
(lp1716
sVurl
p1717
Vhttps://lh3.googleusercontent.com/8t_Q4jmLNs-pu5pl00ait4BuK1ucWSyeYt1lOxbRh46SnwmFm6MSog7bRG1u_v5iCZK_2vP-nhUlHS8MT-o77hI=w232-h131-p-no
p1718
sVqueryString
p1719
(lp1720
sVheaders
p1721
(lp1722
sVheadersSize
p1723
I451
sVbodySize
p1724
I0
sVmethod
p1725
VGET
p1726
sVhttpVersion
p1727
VHTTP/1.1
p1728
ssVtimings
p1729
(dp1730
Vcomment
p1731
g4
sVreceive
p1732
I2056
sVsend
p1733
I0
sVssl
p1734
I367
sVconnect
p1735
I379
sVdns
p1736
I12
sVwait
p1737
I21
sVblocked
p1738
I0
ssVtime
p1739
I2469
sVresponse
p1740
(dp1741
Vstatus
p1742
I200
sVcomment
p1743
g4
sVcookies
p1744
(lp1745
sVstatusText
p1746
VOK
p1747
sVcontent
p1748
(dp1749
VmimeType
p1750
Vimage/gif
p1751
sVcomment
p1752
g4
sVsize
p1753
I0
ssVheaders
p1754
(lp1755
sVheadersSize
p1756
I496
sVredirectURL
p1757
g4
sVbodySize
p1758
I1900583
sVhttpVersion
p1759
VHTTP/1.1
p1760
ssa(dp1761
Vcomment
p1762
g4
sVserverIPAddress
p1763
V172.217.0.1
p1764
sVpageref
p1765
VChicago Cubs
p1766
sVstartedDateTime
p1767
V2017-04-16T08:24:46.934-05:00
p1768
sVcache
p1769
(dp1770
sVrequest
p1771
(dp1772
Vcomment
p1773
g4
sVcookies
p1774
(lp1775
sVurl
p1776
Vhttps://lh3.googleusercontent.com/cPuL2KuTvkPYQ4G_wp8jjEiieo-Ddma2mJ72AGP0RvQ8GKi40UzTu7fbdgVpVpcCW8kzvXT7NCwSi6_I6p1Xw5Y=w232-h131-p-no
p1777
sVqueryString
p1778
(lp1779
sVheaders
p1780
(lp1781
sVheadersSize
p1782
I451
sVbodySize
p1783
I0
sVmethod
p1784
VGET
p1785
sVhttpVersion
p1786
VHTTP/1.1
p1787
ssVtimings
p1788
(dp1789
Vcomment
p1790
g4
sVreceive
p1791
I2017
sVsend
p1792
I0
sVssl
p1793
I357
sVconnect
p1794
I385
sVdns
p1795
I33
sVwait
p1796
I19
sVblocked
p1797
I0
ssVtime
p1798
I2455
sVresponse
p1799
(dp1800
Vstatus
p1801
I200
sVcomment
p1802
g4
sVcookies
p1803
(lp1804
sVstatusText
p1805
VOK
p1806
sVcontent
p1807
(dp1808
VmimeType
p1809
Vimage/gif
p1810
sVcomment
p1811
g4
sVsize
p1812
I0
ssVheaders
p1813
(lp1814
sVheadersSize
p1815
I495
sVredirectURL
p1816
g4
sVbodySize
p1817
I1295808
sVhttpVersion
p1818
VHTTP/1.1
p1819
ssa(dp1820
Vcomment
p1821
g4
sVserverIPAddress
p1822
V172.217.0.1
p1823
sVpageref
p1824
VChicago Cubs
p1825
sVstartedDateTime
p1826
V2017-04-16T08:24:46.934-05:00
p1827
sVcache
p1828
(dp1829
sVrequest
p1830
(dp1831
Vcomment
p1832
g4
sVcookies
p1833
(lp1834
sVurl
p1835
Vhttps://lh3.googleusercontent.com/hbf1U0ZzrlhLAFLwQKtyQ_zdbY7pIUMzHpN8hnj02JFBi7q_i8b19pKo_w7irvAAU3YSKW_DLwrj44AKPoIGNOdZ=w232-h131-p-no
p1836
sVqueryString
p1837
(lp1838
sVheaders
p1839
(lp1840
sVheadersSize
p1841
I452
sVbodySize
p1842
I0
sVmethod
p1843
VGET
p1844
sVhttpVersion
p1845
VHTTP/1.1
p1846
ssVtimings
p1847
(dp1848
Vcomment
p1849
g4
sVreceive
p1850
I1191
sVsend
p1851
I0
sVssl
p1852
I359
sVconnect
p1853
I388
sVdns
p1854
I25
sVwait
p1855
I18
sVblocked
p1856
I0
ssVtime
p1857
I1624
sVresponse
p1858
(dp1859
Vstatus
p1860
I200
sVcomment
p1861
g4
sVcookies
p1862
(lp1863
sVstatusText
p1864
VOK
p1865
sVcontent
p1866
(dp1867
VmimeType
p1868
Vimage/gif
p1869
sVcomment
p1870
g4
sVsize
p1871
I0
ssVheaders
p1872
(lp1873
sVheadersSize
p1874
I495
sVredirectURL
p1875
g4
sVbodySize
p1876
I1216300
sVhttpVersion
p1877
VHTTP/1.1
p1878
ssa(dp1879
Vcomment
p1880
g4
sVserverIPAddress
p1881
V172.217.0.1
p1882
sVpageref
p1883
VChicago Cubs
p1884
sVstartedDateTime
p1885
V2017-04-16T08:24:46.935-05:00
p1886
sVcache
p1887
(dp1888
sVrequest
p1889
(dp1890
Vcomment
p1891
g4
sVcookies
p1892
(lp1893
sVurl
p1894
Vhttps://lh3.googleusercontent.com/k8zE1RaKwdcI_hl6nAf1rmkOs33rDPUVcQrTUowt1EK4fg5WusqHGuFFB3l54Ta9xnDEq5tQo0kqa0XM8Kbudfo4OA=w232-h131-p-no
p1895
sVqueryString
p1896
(lp1897
sVheaders
p1898
(lp1899
sVheadersSize
p1900
I454
sVbodySize
p1901
I0
sVmethod
p1902
VGET
p1903
sVhttpVersion
p1904
VHTTP/1.1
p1905
ssVtimings
p1906
(dp1907
Vcomment
p1908
g4
sVreceive
p1909
I3340
sVsend
p1910
I0
sVssl
p1911
I362
sVconnect
p1912
I390
sVdns
p1913
I19
sVwait
p1914
I19
sVblocked
p1915
I0
ssVtime
p1916
I3770
sVresponse
p1917
(dp1918
Vstatus
p1919
I200
sVcomment
p1920
g4
sVcookies
p1921
(lp1922
sVstatusText
p1923
VOK
p1924
sVcontent
p1925
(dp1926
VmimeType
p1927
Vimage/gif
p1928
sVcomment
p1929
g4
sVsize
p1930
I0
ssVheaders
p1931
(lp1932
sVheadersSize
p1933
I495
sVredirectURL
p1934
g4
sVbodySize
p1935
I2375635
sVhttpVersion
p1936
VHTTP/1.1
p1937
ssa(dp1938
Vcomment
p1939
g4
sVserverIPAddress
p1940
V172.217.0.1
p1941
sVpageref
p1942
VChicago Cubs
p1943
sVstartedDateTime
p1944
V2017-04-16T08:24:46.935-05:00
p1945
sVcache
p1946
(dp1947
sVrequest
p1948
(dp1949
Vcomment
p1950
g4
sVcookies
p1951
(lp1952
sVurl
p1953
Vhttps://lh3.googleusercontent.com/Hk2Ow_rD-yg5yK4ywEbGC2K5kni86Daz4X8vYRA1dn9BMjNawXy6v78rtG_2BPBQLiqRwiymfUm4Iq9v7Sr1AnE=w232-h131-p-k-no
p1954
sVqueryString
p1955
(lp1956
sVheaders
p1957
(lp1958
sVheadersSize
p1959
I453
sVbodySize
p1960
I0
sVmethod
p1961
VGET
p1962
sVhttpVersion
p1963
VHTTP/1.1
p1964
ssVtimings
p1965
(dp1966
Vcomment
p1967
g4
sVreceive
p1968
I6
sVsend
p1969
I0
sVssl
p1970
I364
sVconnect
p1971
I393
sVdns
p1972
I10
sVwait
p1973
I15
sVblocked
p1974
I0
ssVtime
p1975
I426
sVresponse
p1976
(dp1977
Vstatus
p1978
I200
sVcomment
p1979
g4
sVcookies
p1980
(lp1981
sVstatusText
p1982
VOK
p1983
sVcontent
p1984
(dp1985
VmimeType
p1986
Vimage/jpeg
p1987
sVcomment
p1988
g4
sVsize
p1989
I0
ssVheaders
p1990
(lp1991
sVheadersSize
p1992
I495
sVredirectURL
p1993
g4
sVbodySize
p1994
I14699
sVhttpVersion
p1995
VHTTP/1.1
p1996
ssa(dp1997
Vcomment
p1998
g4
sVserverIPAddress
p1999
V172.217.0.1
p2000
sVpageref
p2001
VChicago Cubs
p2002
sVstartedDateTime
p2003
V2017-04-16T08:24:47.762-05:00
p2004
sVcache
p2005
(dp2006
sVrequest
p2007
(dp2008
Vcomment
p2009
g4
sVcookies
p2010
(lp2011
sVurl
p2012
Vhttps://www-bleedcubbieblue-com.cdn.ampproject.org/v/www.bleedcubbieblue.com/platform/amp/2017/4/16/15314738/cub-tracks-blows-it-off?amp_js_v=9
p2013
sVqueryString
p2014
(lp2015
(dp2016
Vname
p2017
Vamp_js_v
p2018
sVvalue
p2019
V9
p2020
sasVheaders
p2021
(lp2022
sVheadersSize
p2023
I548
sVbodySize
p2024
I0
sVmethod
p2025
VGET
p2026
sVhttpVersion
p2027
VHTTP/1.1
p2028
ssVtimings
p2029
(dp2030
Vcomment
p2031
g4
sVreceive
p2032
I4
sVsend
p2033
I0
sVssl
p2034
I921
sVconnect
p2035
I940
sVdns
p2036
I39
sVwait
p2037
I63
sVblocked
p2038
I0
ssVtime
p2039
I1047
sVresponse
p2040
(dp2041
Vstatus
p2042
I200
sVcomment
p2043
g4
sVcookies
p2044
(lp2045
sVstatusText
p2046
VOK
p2047
sVcontent
p2048
(dp2049
VmimeType
p2050
Vtext/html
p2051
sVcomment
p2052
g4
sVsize
p2053
I0
ssVheaders
p2054
(lp2055
sVheadersSize
p2056
I860
sVredirectURL
p2057
g4
sVbodySize
p2058
I12096
sVhttpVersion
p2059
VHTTP/1.1
p2060
ssa(dp2061
Vcomment
p2062
g4
sVserverIPAddress
p2063
V172.217.0.1
p2064
sVpageref
p2065
VChicago Cubs
p2066
sVstartedDateTime
p2067
V2017-04-16T08:24:48.709-05:00
p2068
sVcache
p2069
(dp2070
sVrequest
p2071
(dp2072
Vcomment
p2073
g4
sVcookies
p2074
(lp2075
sVurl
p2076
Vhttps://cdn1-vox--cdn-com.cdn.ampproject.org/ii/w100/s/cdn1.vox-cdn.com/uploads/blog/sbnu_logo_minimal/8/large_bleedcubbieblue.com.minimal.png
p2077
sVqueryString
p2078
(lp2079
sVheaders
p2080
(lp2081
sVheadersSize
p2082
I577
sVbodySize
p2083
I0
sVmethod
p2084
VGET
p2085
sVhttpVersion
p2086
VHTTP/1.1
p2087
ssVtimings
p2088
(dp2089
Vcomment
p2090
g4
sVreceive
p2091
I5
sVsend
p2092
I0
sVssl
p2093
I579
sVconnect
p2094
I629
sVdns
p2095
I50
sVwait
p2096
I73
sVblocked
p2097
I0
ssVtime
p2098
I758
sVresponse
p2099
(dp2100
Vstatus
p2101
I200
sVcomment
p2102
g4
sVcookies
p2103
(lp2104
sVstatusText
p2105
VOK
p2106
sVcontent
p2107
(dp2108
VmimeType
p2109
Vimage/png
p2110
sVcomment
p2111
g4
sVsize
p2112
I0
ssVheaders
p2113
(lp2114
sVheadersSize
p2115
I824
sVredirectURL
p2116
g4
sVbodySize
p2117
I5366
sVhttpVersion
p2118
VHTTP/1.1
p2119
ssa(dp2120
Vcomment
p2121
g4
sVserverIPAddress
p2122
V216.58.216.196
p2123
sVpageref
p2124
VChicago Cubs
p2125
sVstartedDateTime
p2126
V2017-04-16T08:24:48.986-05:00
p2127
sVcache
p2128
(dp2129
sVrequest
p2130
(dp2131
Vcomment
p2132
g4
sVcookies
p2133
(lp2134
sVurl
p2135
Vhttps://www.google.com/gen_204?atyp=i&ct=slh&cad=&ei=hXDzWJzKCIemjwTNpKy4Bw&m=V&t=C&s=1&v=2&pv=0.40385463963755264&me=1:1492349063750,x:1,V,0,0,1280,944:0,N,1,hXDzWJzKCIemjwTNpKy4Bw:0,R,1,24,8,155,1249,445:0,R,1,28,8,268,1249,332:0,R,1,29,0,269,1265,351:0,R,1,60,8,610,1249,417:0,R,1,61,8,610,1249,417:0,R,1,64,8,623,1249,40:0,R,1,77,8,675,1249,178:0,R,1,80,0,691,1265,197:0,R,1,120,8,870,1249,20:0,R,1,121,24,870,1217,20:0,R,1,131,8,906,1249,20:0,R,1,134,8,934,1249,20:2,B,3409:18266,e,U&zx=1492349088450
p2136
sVqueryString
p2137
(lp2138
(dp2139
Vname
p2140
Vatyp
p2141
sVvalue
p2142
g30
sa(dp2143
Vname
p2144
Vct
p2145
sVvalue
p2146
Vslh
p2147
sa(dp2148
Vname
p2149
Vcad
p2150
sVvalue
p2151
g4
sa(dp2152
Vname
p2153
Vei
p2154
sVvalue
p2155
VhXDzWJzKCIemjwTNpKy4Bw
p2156
sa(dp2157
Vname
p2158
g47
sVvalue
p2159
g49
sa(dp2160
Vname
p2161
g52
sVvalue
p2162
g54
sa(dp2163
Vname
p2164
g57
sVvalue
p2165
g59
sa(dp2166
Vname
p2167
g62
sVvalue
p2168
g64
sa(dp2169
Vname
p2170
Vpv
p2171
sVvalue
p2172
V0.40385463963755264
p2173
sa(dp2174
Vname
p2175
Vme
p2176
sVvalue
p2177
V1:1492349063750,x:1,V,0,0,1280,944:0,N,1,hXDzWJzKCIemjwTNpKy4Bw:0,R,1,24,8,155,1249,445:0,R,1,28,8,268,1249,332:0,R,1,29,0,269,1265,351:0,R,1,60,8,610,1249,417:0,R,1,61,8,610,1249,417:0,R,1,64,8,623,1249,40:0,R,1,77,8,675,1249,178:0,R,1,80,0,691,1265,197:0,R,1,120,8,870,1249,20:0,R,1,121,24,870,1217,20:0,R,1,131,8,906,1249,20:0,R,1,134,8,934,1249,20:2,B,3409:18266,e,U
p2178
sa(dp2179
Vname
p2180
Vzx
p2181
sVvalue
p2182
V1492349088450
p2183
sasVheaders
p2184
(lp2185
sVheadersSize
p2186
I1022
sVbodySize
p2187
I0
sVmethod
p2188
VGET
p2189
sVhttpVersion
p2190
VHTTP/1.1
p2191
ssVtimings
p2192
(dp2193
Vcomment
p2194
g4
sVreceive
p2195
I0
sVsend
p2196
I0
sVssl
p2197
I-1
sVconnect
p2198
I-1
sVdns
p2199
I-1
sVwait
p2200
I43
sVblocked
p2201
I-1
ssVtime
p2202
I43
sVresponse
p2203
(dp2204
Vstatus
p2205
I204
sVcomment
p2206
g4
sVcookies
p2207
(lp2208
sVstatusText
p2209
VNo Content
p2210
sVcontent
p2211
(dp2212
VmimeType
p2213
Vtext/html; charset=UTF-8
p2214
sVcomment
p2215
g4
sVsize
p2216
I0
ssVheaders
p2217
(lp2218
sVheadersSize
p2219
I248
sVredirectURL
p2220
g4
sVbodySize
p2221
I0
sVhttpVersion
p2222
VHTTP/1.1
p2223
ssa(dp2224
Vcomment
p2225
g4
sVserverIPAddress
p2226
V172.217.0.1
p2227
sVpageref
p2228
VChicago Cubs
p2229
sVstartedDateTime
p2230
V2017-04-16T08:24:49.069-05:00
p2231
sVcache
p2232
(dp2233
sVrequest
p2234
(dp2235
Vcomment
p2236
g4
sVcookies
p2237
(lp2238
sVurl
p2239
Vhttps://fonts-voxmedia-com.cdn.ampproject.org/r/s/fonts.voxmedia.com/partner_platform/AMP/SBN/bebaskai-regular-webfont.woff2
p2240
sVqueryString
p2241
(lp2242
sVheaders
p2243
(lp2244
sVheadersSize
p2245
I673
sVbodySize
p2246
I0
sVmethod
p2247
VGET
p2248
sVhttpVersion
p2249
VHTTP/1.1
p2250
ssVtimings
p2251
(dp2252
Vcomment
p2253
g4
sVreceive
p2254
I24
sVsend
p2255
I0
sVssl
p2256
I1079
sVconnect
p2257
I1112
sVdns
p2258
I42
sVwait
p2259
I33
sVblocked
p2260
I0
ssVtime
p2261
I1212
sVresponse
p2262
(dp2263
Vstatus
p2264
I200
sVcomment
p2265
g4
sVcookies
p2266
(lp2267
sVstatusText
p2268
VOK
p2269
sVcontent
p2270
(dp2271
VmimeType
p2272
Vtext/plain
p2273
sVcomment
p2274
g4
sVsize
p2275
I0
ssVheaders
p2276
(lp2277
sVheadersSize
p2278
I884
sVredirectURL
p2279
g4
sVbodySize
p2280
I14996
sVhttpVersion
p2281
VHTTP/1.1
p2282
ssa(dp2283
Vcomment
p2284
g4
sVserverIPAddress
p2285
V172.217.0.1
p2286
sVpageref
p2287
VChicago Cubs
p2288
sVstartedDateTime
p2289
V2017-04-16T08:24:49.073-05:00
p2290
sVcache
p2291
(dp2292
sVrequest
p2293
(dp2294
Vcomment
p2295
g4
sVcookies
p2296
(lp2297
sVurl
p2298
Vhttps://fonts-voxmedia-com.cdn.ampproject.org/r/s/fonts.voxmedia.com/unison/sbn/opensans/OpenSans-Regular.woff2
p2299
sVqueryString
p2300
(lp2301
sVheaders
p2302
(lp2303
sVheadersSize
p2304
I660
sVbodySize
p2305
I0
sVmethod
p2306
VGET
p2307
sVhttpVersion
p2308
VHTTP/1.1
p2309
ssVtimings
p2310
(dp2311
Vcomment
p2312
g4
sVreceive
p2313
I50
sVsend
p2314
I0
sVssl
p2315
I1128
sVconnect
p2316
I1159
sVdns
p2317
I45
sVwait
p2318
I32
sVblocked
p2319
I0
ssVtime
p2320
I1286
sVresponse
p2321
(dp2322
Vstatus
p2323
I200
sVcomment
p2324
g4
sVcookies
p2325
(lp2326
sVstatusText
p2327
VOK
p2328
sVcontent
p2329
(dp2330
VmimeType
p2331
Vtext/plain
p2332
sVcomment
p2333
g4
sVsize
p2334
I0
ssVheaders
p2335
(lp2336
sVheadersSize
p2337
I884
sVredirectURL
p2338
g4
sVbodySize
p2339
I47016
sVhttpVersion
p2340
VHTTP/1.1
p2341
ssa(dp2342
Vcomment
p2343
g4
sVserverIPAddress
p2344
V172.217.0.1
p2345
sVpageref
p2346
VChicago Cubs
p2347
sVstartedDateTime
p2348
V2017-04-16T08:24:49.074-05:00
p2349
sVcache
p2350
(dp2351
sVrequest
p2352
(dp2353
Vcomment
p2354
g4
sVcookies
p2355
(lp2356
sVurl
p2357
Vhttps://fonts-voxmedia-com.cdn.ampproject.org/r/s/fonts.voxmedia.com/partner_platform/AMP/SBN/clarendon_text-webfont.woff2
p2358
sVqueryString
p2359
(lp2360
sVheaders
p2361
(lp2362
sVheadersSize
p2363
I671
sVbodySize
p2364
I0
sVmethod
p2365
VGET
p2366
sVhttpVersion
p2367
VHTTP/1.1
p2368
ssVtimings
p2369
(dp2370
Vcomment
p2371
g4
sVreceive
p2372
I44
sVsend
p2373
I0
sVssl
p2374
I1131
sVconnect
p2375
I1165
sVdns
p2376
I42
sVwait
p2377
I38
sVblocked
p2378
I0
ssVtime
p2379
I1290
sVresponse
p2380
(dp2381
Vstatus
p2382
I200
sVcomment
p2383
g4
sVcookies
p2384
(lp2385
sVstatusText
p2386
VOK
p2387
sVcontent
p2388
(dp2389
VmimeType
p2390
Vtext/plain
p2391
sVcomment
p2392
g4
sVsize
p2393
I0
ssVheaders
p2394
(lp2395
sVheadersSize
p2396
I884
sVredirectURL
p2397
g4
sVbodySize
p2398
I31776
sVhttpVersion
p2399
VHTTP/1.1
p2400
ssa(dp2401
Vcomment
p2402
g4
sVserverIPAddress
p2403
V172.217.0.1
p2404
sVpageref
p2405
VChicago Cubs
p2406
sVstartedDateTime
p2407
V2017-04-16T08:24:49.115-05:00
p2408
sVcache
p2409
(dp2410
sVrequest
p2411
(dp2412
Vcomment
p2413
g4
sVcookies
p2414
(lp2415
sVurl
p2416
Vhttps://fonts-voxmedia-com.cdn.ampproject.org/r/s/fonts.voxmedia.com/partner_platform/AMP/SBN/montserrat.woff2
p2417
sVqueryString
p2418
(lp2419
sVheaders
p2420
(lp2421
sVheadersSize
p2422
I659
sVbodySize
p2423
I0
sVmethod
p2424
VGET
p2425
sVhttpVersion
p2426
VHTTP/1.1
p2427
ssVtimings
p2428
(dp2429
Vcomment
p2430
g4
sVreceive
p2431
I7
sVsend
p2432
I0
sVssl
p2433
I1172
sVconnect
p2434
I1205
sVdns
p2435
I29
sVwait
p2436
I48
sVblocked
p2437
I0
ssVtime
p2438
I1292
sVresponse
p2439
(dp2440
Vstatus
p2441
I200
sVcomment
p2442
g4
sVcookies
p2443
(lp2444
sVstatusText
p2445
VOK
p2446
sVcontent
p2447
(dp2448
VmimeType
p2449
Vtext/plain
p2450
sVcomment
p2451
g4
sVsize
p2452
I0
ssVheaders
p2453
(lp2454
sVheadersSize
p2455
I884
sVredirectURL
p2456
g4
sVbodySize
p2457
I18696
sVhttpVersion
p2458
VHTTP/1.1
p2459
ssa(dp2460
Vcomment
p2461
g4
sVserverIPAddress
p2462
V172.217.0.1
p2463
sVpageref
p2464
VChicago Cubs
p2465
sVstartedDateTime
p2466
V2017-04-16T08:24:49.907-05:00
p2467
sVcache
p2468
(dp2469
sVrequest
p2470
(dp2471
Vcomment
p2472
g4
sVcookies
p2473
(lp2474
sVurl
p2475
Vhttps://cdn0-vox--cdn-com.cdn.ampproject.org/i/s/cdn0.vox-cdn.com/thumbor/HxSnY1EM9GGJQieE4BdxGy2d93Y=/0x41:2293x1570/1310x873/cdn0.vox-cdn.com/uploads/chorus_image/image/54281649/usa_today_10014004.0.jpg
p2476
sVqueryString
p2477
(lp2478
sVheaders
p2479
(lp2480
sVheadersSize
p2481
I639
sVbodySize
p2482
I0
sVmethod
p2483
VGET
p2484
sVhttpVersion
p2485
VHTTP/1.1
p2486
ssVtimings
p2487
(dp2488
Vcomment
p2489
g4
sVreceive
p2490
I122
sVsend
p2491
I0
sVssl
p2492
I1776
sVconnect
p2493
I1826
sVdns
p2494
I49
sVwait
p2495
I30
sVblocked
p2496
I0
ssVtime
p2497
I2029
sVresponse
p2498
(dp2499
Vstatus
p2500
I200
sVcomment
p2501
g4
sVcookies
p2502
(lp2503
sVstatusText
p2504
VOK
p2505
sVcontent
p2506
(dp2507
VmimeType
p2508
Vimage/jpeg
p2509
sVcomment
p2510
g4
sVsize
p2511
I0
ssVheaders
p2512
(lp2513
sVheadersSize
p2514
I850
sVredirectURL
p2515
g4
sVbodySize
p2516
I92490
sVhttpVersion
p2517
VHTTP/1.1
p2518
ssa(dp2519
Vcomment
p2520
g4
sVserverIPAddress
p2521
V216.58.216.196
p2522
sVpageref
p2523
VChicago Cubs
p2524
sVstartedDateTime
p2525
V2017-04-16T08:24:50.384-05:00
p2526
sVcache
p2527
(dp2528
sVrequest
p2529
(dp2530
Vcomment
p2531
g4
sVcookies
p2532
(lp2533
sVurl
p2534
Vhttps://www.google.com/gen_204?s=web&atyp=csi&ei=mXDzWLaDJsTqjwTY3p2QAQ&imc=106&imn=106&imp=49&adh=&xjs=init.62.16.sb_mob.46.async.5.mbsf.3.dvl.3.c.1&ima=15&rt=prt.1245,iml.2627,xjsls.1245,qiml.1620,dcl.1456,xjses.1656,xjsee.1911,xjs.1912,ol.7326,aft.2625,wsrt.403,cst.0,dnst.0,rqst.1551,rspt.1164,rqstt.2,unt.2,cstt.2,dit.1816
p2535
sVqueryString
p2536
(lp2537
(dp2538
Vname
p2539
g57
sVvalue
p2540
Vweb
p2541
sa(dp2542
Vname
p2543
Vatyp
p2544
sVvalue
p2545
Vcsi
p2546
sa(dp2547
Vname
p2548
Vei
p2549
sVvalue
p2550
VmXDzWLaDJsTqjwTY3p2QAQ
p2551
sa(dp2552
Vname
p2553
Vimc
p2554
sVvalue
p2555
V106
p2556
sa(dp2557
Vname
p2558
Vimn
p2559
sVvalue
p2560
V106
p2561
sa(dp2562
Vname
p2563
Vimp
p2564
sVvalue
p2565
V49
p2566
sa(dp2567
Vname
p2568
Vadh
p2569
sVvalue
p2570
g4
sa(dp2571
Vname
p2572
Vxjs
p2573
sVvalue
p2574
Vinit.62.16.sb_mob.46.async.5.mbsf.3.dvl.3.c.1
p2575
sa(dp2576
Vname
p2577
Vima
p2578
sVvalue
p2579
V15
p2580
sa(dp2581
Vname
p2582
Vrt
p2583
sVvalue
p2584
Vprt.1245,iml.2627,xjsls.1245,qiml.1620,dcl.1456,xjses.1656,xjsee.1911,xjs.1912,ol.7326,aft.2625,wsrt.403,cst.0,dnst.0,rqst.1551,rspt.1164,rqstt.2,unt.2,cstt.2,dit.1816
p2585
sasVheaders
p2586
(lp2587
sVheadersSize
p2588
I844
sVbodySize
p2589
I0
sVmethod
p2590
VGET
p2591
sVhttpVersion
p2592
VHTTP/1.1
p2593
ssVtimings
p2594
(dp2595
Vcomment
p2596
g4
sVreceive
p2597
I0
sVsend
p2598
I0
sVssl
p2599
I-1
sVconnect
p2600
I-1
sVdns
p2601
I-1
sVwait
p2602
I26
sVblocked
p2603
I-1
ssVtime
p2604
I27
sVresponse
p2605
(dp2606
Vstatus
p2607
I204
sVcomment
p2608
g4
sVcookies
p2609
(lp2610
sVstatusText
p2611
VNo Content
p2612
sVcontent
p2613
(dp2614
VmimeType
p2615
Vtext/html; charset=UTF-8
p2616
sVcomment
p2617
g4
sVsize
p2618
I0
ssVheaders
p2619
(lp2620
sVheadersSize
p2621
I248
sVredirectURL
p2622
g4
sVbodySize
p2623
I0
sVhttpVersion
p2624
VHTTP/1.1
p2625
ssasVversion
p2626
V1.2
p2627
sVpages
p2628
(lp2629
(dp2630
VpageTimings
p2631
(dp2632
Vcomment
p2633
g4
ssVcomment
p2634
g4
sVtitle
p2635
VChicago Cubs
p2636
sVid
p2637
VChicago Cubs
p2638
sVstartedDateTime
p2639
V2017-04-16T08:24:42.006-05:00
p2640
sasVcreator
p2641
(dp2642
Vcomment
p2643
g4
sVversion
p2644
V2.1.4
p2645
sVname
p2646
VBrowserMob Proxy
p2647
sss.