(dp0
Vlog
p1
(dp2
Vcomment
p3
V
p4
sVentries
p5
(lp6
(dp7
Vcomment
p8
g4
sVserverIPAddress
p9
V216.58.216.196
p10
sVpageref
p11
VFlint, Michigan
p12
sVstartedDateTime
p13
V2017-04-16T08:53:37.864-05:00
p14
sVcache
p15
(dp16
sVrequest
p17
(dp18
Vcomment
p19
g4
sVcookies
p20
(lp21
sVurl
p22
Vhttps://www.google.com/gen_204?atyp=i&ct=slh&cad=&ei=UXfzWN-vNKXejwTQ1q2QDg&m=V&t=C&s=1&v=2&pv=0.39899162490829965&me=1:1492350809566,x:6,V,0,0,1280,944:0,N,1,UXfzWN-vNKXejwTQ1q2QDg:0,R,1,24,8,155,1249,889:0,R,1,25,8,155,1249,889:0,R,1,36,8,155,1249,116:0,R,1,48,8,284,1249,40:0,R,1,55,8,399,1249,40:0,R,1,56,24,399,1217,40:0,R,1,61,8,455,1249,20:0,R,1,76,8,495,1249,213:0,R,1,77,8,544,1249,164:0,R,1,91,8,773,1249,204:0,R,1,92,0,773,1265,224:7,B,3204:8283,e,U&zx=1492350817862
p23
sVqueryString
p24
(lp25
(dp26
Vname
p27
Vatyp
p28
sVvalue
p29
Vi
p30
sa(dp31
Vname
p32
Vct
p33
sVvalue
p34
Vslh
p35
sa(dp36
Vname
p37
Vcad
p38
sVvalue
p39
g4
sa(dp40
Vname
p41
Vei
p42
sVvalue
p43
VUXfzWN-vNKXejwTQ1q2QDg
p44
sa(dp45
Vname
p46
Vm
p47
sVvalue
p48
VV
p49
sa(dp50
Vname
p51
Vt
p52
sVvalue
p53
VC
p54
sa(dp55
Vname
p56
Vs
p57
sVvalue
p58
V1
p59
sa(dp60
Vname
p61
Vv
p62
sVvalue
p63
V2
p64
sa(dp65
Vname
p66
Vpv
p67
sVvalue
p68
V0.39899162490829965
p69
sa(dp70
Vname
p71
Vme
p72
sVvalue
p73
V1:1492350809566,x:6,V,0,0,1280,944:0,N,1,UXfzWN-vNKXejwTQ1q2QDg:0,R,1,24,8,155,1249,889:0,R,1,25,8,155,1249,889:0,R,1,36,8,155,1249,116:0,R,1,48,8,284,1249,40:0,R,1,55,8,399,1249,40:0,R,1,56,24,399,1217,40:0,R,1,61,8,455,1249,20:0,R,1,76,8,495,1249,213:0,R,1,77,8,544,1249,164:0,R,1,91,8,773,1249,204:0,R,1,92,0,773,1265,224:7,B,3204:8283,e,U
p74
sa(dp75
Vname
p76
Vzx
p77
sVvalue
p78
V1492350817862
p79
sasVheaders
p80
(lp81
sVheadersSize
p82
I994
sVbodySize
p83
I0
sVmethod
p84
VGET
p85
sVhttpVersion
p86
VHTTP/1.1
p87
ssVtimings
p88
(dp89
Vcomment
p90
g4
sVreceive
p91
I0
sVsend
p92
I0
sVssl
p93
I-1
sVconnect
p94
I-1
sVdns
p95
I-1
sVwait
p96
I0
sVblocked
p97
I-1
ssVtime
p98
I0
sVresponse
p99
(dp100
Vstatus
p101
I0
sVcomment
p102
g4
sVcookies
p103
(lp104
sV_error
p105
VNo response received
p106
sVstatusText
p107
g4
sVcontent
p108
(dp109
VmimeType
p110
g4
sVcomment
p111
g4
sVsize
p112
I0
ssVheaders
p113
(lp114
sVheadersSize
p115
I-1
sVredirectURL
p116
g4
sVbodySize
p117
I-1
sVhttpVersion
p118
Vunknown
p119
ssa(dp120
Vcomment
p121
g4
sVserverIPAddress
p122
V216.58.216.196
p123
sVpageref
p124
VFlint, Michigan
p125
sVstartedDateTime
p126
V2017-04-16T08:53:37.867-05:00
p127
sVcache
p128
(dp129
sVrequest
p130
(dp131
Vcomment
p132
g4
sVcookies
p133
(lp134
sVurl
p135
Vhttp://www.google.com/
p136
sVqueryString
p137
(lp138
sVheaders
p139
(lp140
sVheadersSize
p141
I613
sVbodySize
p142
I0
sVmethod
p143
VGET
p144
sVhttpVersion
p145
VHTTP/1.1
p146
ssVtimings
p147
(dp148
Vcomment
p149
g4
sVreceive
p150
I0
sVsend
p151
I0
sVssl
p152
I-1
sVconnect
p153
I-1
sVdns
p154
I-1
sVwait
p155
I37
sVblocked
p156
I-1
ssVtime
p157
I38
sVresponse
p158
(dp159
Vstatus
p160
I302
sVcomment
p161
g4
sVcookies
p162
(lp163
sVstatusText
p164
VFound
p165
sVcontent
p166
(dp167
VmimeType
p168
Vtext/html; charset=UTF-8
p169
sVcomment
p170
g4
sVsize
p171
I0
ssVheaders
p172
(lp173
sVheadersSize
p174
I609
sVredirectURL
p175
Vhttps://www.google.com/?gws_rd=ssl
p176
sVbodySize
p177
I231
sVhttpVersion
p178
VHTTP/1.1
p179
ssa(dp180
Vcomment
p181
g4
sVserverIPAddress
p182
V216.58.216.196
p183
sVpageref
p184
VFlint, Michigan
p185
sVstartedDateTime
p186
V2017-04-16T08:53:37.910-05:00
p187
sVcache
p188
(dp189
sVrequest
p190
(dp191
Vcomment
p192
g4
sVcookies
p193
(lp194
sVurl
p195
Vhttps://www.google.com/?gws_rd=ssl
p196
sVqueryString
p197
(lp198
(dp199
Vname
p200
Vgws_rd
p201
sVvalue
p202
Vssl
p203
sasVheaders
p204
(lp205
sVheadersSize
p206
I607
sVbodySize
p207
I0
sVmethod
p208
VGET
p209
sVhttpVersion
p210
VHTTP/1.1
p211
ssVtimings
p212
(dp213
Vcomment
p214
g4
sVreceive
p215
I3
sVsend
p216
I0
sVssl
p217
I-1
sVconnect
p218
I-1
sVdns
p219
I-1
sVwait
p220
I75
sVblocked
p221
I-1
ssVtime
p222
I79
sVresponse
p223
(dp224
Vstatus
p225
I200
sVcomment
p226
g4
sVcookies
p227
(lp228
sVstatusText
p229
VOK
p230
sVcontent
p231
(dp232
VmimeType
p233
Vtext/html; charset=UTF-8
p234
sVcomment
p235
g4
sVsize
p236
I0
ssVheaders
p237
(lp238
sVheadersSize
p239
I721
sVredirectURL
p240
g4
sVbodySize
p241
I34291
sVhttpVersion
p242
VHTTP/1.1
p243
ssa(dp244
Vcomment
p245
g4
sVserverIPAddress
p246
V216.58.216.196
p247
sVpageref
p248
VFlint, Michigan
p249
sVstartedDateTime
p250
V2017-04-16T08:53:41.330-05:00
p251
sVcache
p252
(dp253
sVrequest
p254
(dp255
Vcomment
p256
g4
sVcookies
p257
(lp258
sVurl
p259
Vhttps://www.google.com/gen_204?s=mobilewebhp&atyp=csi&ei=YHfzWNiKNoegjwTq06ewAQ&imc=1&imn=1&imp=0&adh=&xjs=init.29.12.sb_mob.22.dvl.4.mbsf.1.async.1.foot.1&ima=1&rt=xjsls.21,prt.22,iml.22,dcl.57,xjses.3130,xjsee.3255,xjs.3256,ol.3305,aft.22,wsrt.156,cst.0,dnst.0,rqst.88,rspt.11,rqstt.48,unt.46,cstt.46,dit.194
p260
sVqueryString
p261
(lp262
(dp263
Vname
p264
g57
sVvalue
p265
Vmobilewebhp
p266
sa(dp267
Vname
p268
Vatyp
p269
sVvalue
p270
Vcsi
p271
sa(dp272
Vname
p273
Vei
p274
sVvalue
p275
VYHfzWNiKNoegjwTq06ewAQ
p276
sa(dp277
Vname
p278
Vimc
p279
sVvalue
p280
g59
sa(dp281
Vname
p282
Vimn
p283
sVvalue
p284
g59
sa(dp285
Vname
p286
Vimp
p287
sVvalue
p288
V0
p289
sa(dp290
Vname
p291
Vadh
p292
sVvalue
p293
g4
sa(dp294
Vname
p295
Vxjs
p296
sVvalue
p297
Vinit.29.12.sb_mob.22.dvl.4.mbsf.1.async.1.foot.1
p298
sa(dp299
Vname
p300
Vima
p301
sVvalue
p302
g59
sa(dp303
Vname
p304
Vrt
p305
sVvalue
p306
Vxjsls.21,prt.22,iml.22,dcl.57,xjses.3130,xjsee.3255,xjs.3256,ol.3305,aft.22,wsrt.156,cst.0,dnst.0,rqst.88,rspt.11,rqstt.48,unt.46,cstt.46,dit.194
p307
sasVheaders
p308
(lp309
sVheadersSize
p310
I838
sVbodySize
p311
I0
sVmethod
p312
VGET
p313
sVhttpVersion
p314
VHTTP/1.1
p315
ssVtimings
p316
(dp317
Vcomment
p318
g4
sVreceive
p319
I0
sVsend
p320
I0
sVssl
p321
I-1
sVconnect
p322
I-1
sVdns
p323
I-1
sVwait
p324
I35
sVblocked
p325
I-1
ssVtime
p326
I35
sVresponse
p327
(dp328
Vstatus
p329
I204
sVcomment
p330
g4
sVcookies
p331
(lp332
sVstatusText
p333
VNo Content
p334
sVcontent
p335
(dp336
VmimeType
p337
Vtext/html; charset=UTF-8
p338
sVcomment
p339
g4
sVsize
p340
I0
ssVheaders
p341
(lp342
sVheadersSize
p343
I248
sVredirectURL
p344
g4
sVbodySize
p345
I0
sVhttpVersion
p346
VHTTP/1.1
p347
ssa(dp348
Vcomment
p349
g4
sVserverIPAddress
p350
V216.58.216.196
p351
sVpageref
p352
VFlint, Michigan
p353
sVstartedDateTime
p354
V2017-04-16T08:53:41.455-05:00
p355
sVcache
p356
(dp357
sVrequest
p358
(dp359
Vcomment
p360
g4
sVcookies
p361
(lp362
sVurl
p363
Vhttps://www.google.com/complete/search?client=mobile-gws-hp&hl=en&gs_rn=64&gs_ri=mobile-gws-hp&sla=1&pfq=ford&gm=602&cp=0&gs_id=1&xhr=t&q=F&tch=1&ech=1&psi=YHfzWNiKNoegjwTq06ewAQ.1492350821241.1
p364
sVqueryString
p365
(lp366
(dp367
Vname
p368
Vclient
p369
sVvalue
p370
Vmobile-gws-hp
p371
sa(dp372
Vname
p373
Vhl
p374
sVvalue
p375
Ven
p376
sa(dp377
Vname
p378
Vgs_rn
p379
sVvalue
p380
V64
p381
sa(dp382
Vname
p383
Vgs_ri
p384
sVvalue
p385
Vmobile-gws-hp
p386
sa(dp387
Vname
p388
Vsla
p389
sVvalue
p390
g59
sa(dp391
Vname
p392
Vpfq
p393
sVvalue
p394
Vford
p395
sa(dp396
Vname
p397
Vgm
p398
sVvalue
p399
V602
p400
sa(dp401
Vname
p402
Vcp
p403
sVvalue
p404
g289
sa(dp405
Vname
p406
Vgs_id
p407
sVvalue
p408
g59
sa(dp409
Vname
p410
Vxhr
p411
sVvalue
p412
g52
sa(dp413
Vname
p414
Vq
p415
sVvalue
p416
VF
p417
sa(dp418
Vname
p419
Vtch
p420
sVvalue
p421
g59
sa(dp422
Vname
p423
Vech
p424
sVvalue
p425
g59
sa(dp426
Vname
p427
Vpsi
p428
sVvalue
p429
VYHfzWNiKNoegjwTq06ewAQ.1492350821241.1
p430
sasVheaders
p431
(lp432
sVheadersSize
p433
I722
sVbodySize
p434
I0
sVmethod
p435
VGET
p436
sVhttpVersion
p437
VHTTP/1.1
p438
ssVtimings
p439
(dp440
Vcomment
p441
g4
sVreceive
p442
I0
sVsend
p443
I0
sVssl
p444
I-1
sVconnect
p445
I-1
sVdns
p446
I-1
sVwait
p447
I0
sVblocked
p448
I-1
ssVtime
p449
I0
sVresponse
p450
(dp451
Vstatus
p452
I0
sVcomment
p453
g4
sVcookies
p454
(lp455
sV_error
p456
VNo response received
p457
sVstatusText
p458
g4
sVcontent
p459
(dp460
VmimeType
p461
g4
sVcomment
p462
g4
sVsize
p463
I0
ssVheaders
p464
(lp465
sVheadersSize
p466
I-1
sVredirectURL
p467
g4
sVbodySize
p468
I-1
sVhttpVersion
p469
Vunknown
p470
ssa(dp471
Vcomment
p472
g4
sVserverIPAddress
p473
V216.58.216.196
p474
sVpageref
p475
VFlint, Michigan
p476
sVstartedDateTime
p477
V2017-04-16T08:53:41.555-05:00
p478
sVcache
p479
(dp480
sVrequest
p481
(dp482
Vcomment
p483
g4
sVcookies
p484
(lp485
sVurl
p486
Vhttps://www.google.com/search?site=&source=hp&ei=YHfzWNiKNoegjwTq06ewAQ&q=Flint%2C+Michigan&oq=Flint%2C+Michigan&gs_l=mobile-gws-hp.3...188.245.0.283.15.1.0.0.0.0.0.0..0.0....0...1c.1.64.mobile-gws-hp..15.0.0.TVs-YcdzQB4
p487
sVqueryString
p488
(lp489
(dp490
Vname
p491
Vsite
p492
sVvalue
p493
g4
sa(dp494
Vname
p495
Vsource
p496
sVvalue
p497
Vhp
p498
sa(dp499
Vname
p500
Vei
p501
sVvalue
p502
VYHfzWNiKNoegjwTq06ewAQ
p503
sa(dp504
Vname
p505
g415
sVvalue
p506
VFlint, Michigan
p507
sa(dp508
Vname
p509
Voq
p510
sVvalue
p511
VFlint, Michigan
p512
sa(dp513
Vname
p514
Vgs_l
p515
sVvalue
p516
Vmobile-gws-hp.3...188.245.0.283.15.1.0.0.0.0.0.0..0.0....0...1c.1.64.mobile-gws-hp..15.0.0.TVs-YcdzQB4
p517
sasVheaders
p518
(lp519
sVheadersSize
p520
I838
sVbodySize
p521
I0
sVmethod
p522
VGET
p523
sVhttpVersion
p524
VHTTP/1.1
p525
ssVtimings
p526
(dp527
Vcomment
p528
g4
sVreceive
p529
I933
sVsend
p530
I0
sVssl
p531
I-1
sVconnect
p532
I-1
sVdns
p533
I-1
sVwait
p534
I105
sVblocked
p535
I-1
ssVtime
p536
I1039
sVresponse
p537
(dp538
Vstatus
p539
I200
sVcomment
p540
g4
sVcookies
p541
(lp542
sVstatusText
p543
VOK
p544
sVcontent
p545
(dp546
VmimeType
p547
Vtext/html; charset=UTF-8
p548
sVcomment
p549
g4
sVsize
p550
I0
ssVheaders
p551
(lp552
sVheadersSize
p553
I363
sVredirectURL
p554
g4
sVbodySize
p555
I57702
sVhttpVersion
p556
VHTTP/1.1
p557
ssa(dp558
Vcomment
p559
g4
sVserverIPAddress
p560
V216.58.216.196
p561
sVpageref
p562
VFlint, Michigan
p563
sVstartedDateTime
p564
V2017-04-16T08:53:43.015-05:00
p565
sVcache
p566
(dp567
sVrequest
p568
(dp569
Vcomment
p570
g4
sVcookies
p571
(lp572
sVurl
p573
Vhttps://www.google.com/maps/vt/data=RfCSdfNZ0LFPrHSm0ublXdzhdrDFhtmHhN1u-gM,1ZA0PfoQLf9qwljZTP-M0CG-6Q8AhzEUhfgm9YAWvh_o-jlvf9wye1CRMCRdj7K1eQrpJJLdkTO8awIvLZvxr3DlcqiJ-Z0kz9kb825XV2Tjq1KN2rTOgSXXF2_Y1zHFAI27wA5HfDIUyi-4JYVJ6Y58e7JOP3LoLNIzBCzc1H1-ylONKtvhSYPue7Y-n-w9bSSXjUuq0hkmTw?scale=2&h=104&w=1024
p574
sVqueryString
p575
(lp576
(dp577
Vname
p578
Vscale
p579
sVvalue
p580
g64
sa(dp581
Vname
p582
Vh
p583
sVvalue
p584
V104
p585
sa(dp586
Vname
p587
Vw
p588
sVvalue
p589
V1024
p590
sasVheaders
p591
(lp592
sVheadersSize
p593
I820
sVbodySize
p594
I0
sVmethod
p595
VGET
p596
sVhttpVersion
p597
VHTTP/1.1
p598
ssVtimings
p599
(dp600
Vcomment
p601
g4
sVreceive
p602
I15
sVsend
p603
I0
sVssl
p604
I-1
sVconnect
p605
I-1
sVdns
p606
I-1
sVwait
p607
I109
sVblocked
p608
I-1
ssVtime
p609
I124
sVresponse
p610
(dp611
Vstatus
p612
I200
sVcomment
p613
g4
sVcookies
p614
(lp615
sVstatusText
p616
VOK
p617
sVcontent
p618
(dp619
VmimeType
p620
Vimage/png
p621
sVcomment
p622
g4
sVsize
p623
I0
ssVheaders
p624
(lp625
sVheadersSize
p626
I479
sVredirectURL
p627
g4
sVbodySize
p628
I46774
sVhttpVersion
p629
VHTTP/1.1
p630
ssa(dp631
Vcomment
p632
g4
sVserverIPAddress
p633
V216.58.216.196
p634
sVpageref
p635
VFlint, Michigan
p636
sVstartedDateTime
p637
V2017-04-16T08:53:43.210-05:00
p638
sVcache
p639
(dp640
sVrequest
p641
(dp642
Vcomment
p643
g4
sVcookies
p644
(lp645
sVurl
p646
Vhttps://www.google.com/gen_204?s=lu&atyp=csi&ei=ZHfzWITTIMnKjwSx1qmgAw&ima=3&rt=lmap.1506,aft.1505,wsrt.1455,cst.0,dnst.0,rqst.1043,rspt.935,rqstt.5,unt.5,cstt.5,dit.1129
p647
sVqueryString
p648
(lp649
(dp650
Vname
p651
g57
sVvalue
p652
Vlu
p653
sa(dp654
Vname
p655
Vatyp
p656
sVvalue
p657
Vcsi
p658
sa(dp659
Vname
p660
Vei
p661
sVvalue
p662
VZHfzWITTIMnKjwSx1qmgAw
p663
sa(dp664
Vname
p665
Vima
p666
sVvalue
p667
V3
p668
sa(dp669
Vname
p670
Vrt
p671
sVvalue
p672
Vlmap.1506,aft.1505,wsrt.1455,cst.0,dnst.0,rqst.1043,rspt.935,rqstt.5,unt.5,cstt.5,dit.1129
p673
sasVheaders
p674
(lp675
sVheadersSize
p676
I687
sVbodySize
p677
I0
sVmethod
p678
VGET
p679
sVhttpVersion
p680
VHTTP/1.1
p681
ssVtimings
p682
(dp683
Vcomment
p684
g4
sVreceive
p685
I0
sVsend
p686
I0
sVssl
p687
I-1
sVconnect
p688
I-1
sVdns
p689
I-1
sVwait
p690
I28
sVblocked
p691
I-1
ssVtime
p692
I29
sVresponse
p693
(dp694
Vstatus
p695
I204
sVcomment
p696
g4
sVcookies
p697
(lp698
sVstatusText
p699
VNo Content
p700
sVcontent
p701
(dp702
VmimeType
p703
Vtext/html; charset=UTF-8
p704
sVcomment
p705
g4
sVsize
p706
I0
ssVheaders
p707
(lp708
sVheadersSize
p709
I248
sVredirectURL
p710
g4
sVbodySize
p711
I0
sVhttpVersion
p712
VHTTP/1.1
p713
ssa(dp714
Vcomment
p715
g4
sVserverIPAddress
p716
V216.58.216.196
p717
sVpageref
p718
VFlint, Michigan
p719
sVstartedDateTime
p720
V2017-04-16T08:53:43.622-05:00
p721
sVcache
p722
(dp723
sVrequest
p724
(dp725
Vcomment
p726
g4
sVcookies
p727
(lp728
sVurl
p729
Vhttps://www.google.com/async/irc?vet=10ahUKEwiElaeEkKnTAhVJ5YMKHTFrCjQQo0EI7gE..i&ved=0ahUKEwiElaeEkKnTAhVJ5YMKHTFrCjQQo0EI7gE&ei=ZHfzWITTIMnKjwSx1qmgAw&yv=2&async=iu:1,ved:0ahUKEwiElaeEkKnTAhVJ5YMKHTFrCjQQo0EI7gE,_id:irc_async,_pms:qs
p730
sVqueryString
p731
(lp732
(dp733
Vname
p734
Vvet
p735
sVvalue
p736
V10ahUKEwiElaeEkKnTAhVJ5YMKHTFrCjQQo0EI7gE..i
p737
sa(dp738
Vname
p739
Vved
p740
sVvalue
p741
V0ahUKEwiElaeEkKnTAhVJ5YMKHTFrCjQQo0EI7gE
p742
sa(dp743
Vname
p744
Vei
p745
sVvalue
p746
VZHfzWITTIMnKjwSx1qmgAw
p747
sa(dp748
Vname
p749
Vyv
p750
sVvalue
p751
g64
sa(dp752
Vname
p753
Vasync
p754
sVvalue
p755
Viu:1,ved:0ahUKEwiElaeEkKnTAhVJ5YMKHTFrCjQQo0EI7gE,_id:irc_async,_pms:qs
p756
sasVheaders
p757
(lp758
sVheadersSize
p759
I752
sVbodySize
p760
I0
sVmethod
p761
VGET
p762
sVhttpVersion
p763
VHTTP/1.1
p764
ssVtimings
p765
(dp766
Vcomment
p767
g4
sVreceive
p768
I1
sVsend
p769
I0
sVssl
p770
I-1
sVconnect
p771
I-1
sVdns
p772
I-1
sVwait
p773
I49
sVblocked
p774
I-1
ssVtime
p775
I51
sVresponse
p776
(dp777
Vstatus
p778
I200
sVcomment
p779
g4
sVcookies
p780
(lp781
sVstatusText
p782
VOK
p783
sVcontent
p784
(dp785
VmimeType
p786
Vtext/html; charset=UTF-8
p787
sVcomment
p788
g4
sVsize
p789
I0
ssVheaders
p790
(lp791
sVheadersSize
p792
I383
sVredirectURL
p793
g4
sVbodySize
p794
I7791
sVhttpVersion
p795
VHTTP/1.1
p796
ssa(dp797
Vcomment
p798
g4
sVserverIPAddress
p799
V216.58.216.196
p800
sVpageref
p801
VFlint, Michigan
p802
sVstartedDateTime
p803
V2017-04-16T08:53:43.646-05:00
p804
sVcache
p805
(dp806
sVrequest
p807
(dp808
Vcomment
p809
g4
sVcookies
p810
(lp811
sVurl
p812
Vhttps://www.google.com/gen_204?atyp=i&ct=&cad=&uact=1&vet=10ahUKEwiElaeEkKnTAhVJ5YMKHTFrCjQQ9V8INCgA..s&ei=ZHfzWITTIMnKjwSx1qmgAw&zx=1492350823645
p813
sVqueryString
p814
(lp815
(dp816
Vname
p817
Vatyp
p818
sVvalue
p819
g30
sa(dp820
Vname
p821
Vct
p822
sVvalue
p823
g4
sa(dp824
Vname
p825
Vcad
p826
sVvalue
p827
g4
sa(dp828
Vname
p829
Vuact
p830
sVvalue
p831
g59
sa(dp832
Vname
p833
Vvet
p834
sVvalue
p835
V10ahUKEwiElaeEkKnTAhVJ5YMKHTFrCjQQ9V8INCgA..s
p836
sa(dp837
Vname
p838
Vei
p839
sVvalue
p840
VZHfzWITTIMnKjwSx1qmgAw
p841
sa(dp842
Vname
p843
Vzx
p844
sVvalue
p845
V1492350823645
p846
sasVheaders
p847
(lp848
sVheadersSize
p849
I663
sVbodySize
p850
I0
sVmethod
p851
VGET
p852
sVhttpVersion
p853
VHTTP/1.1
p854
ssVtimings
p855
(dp856
Vcomment
p857
g4
sVreceive
p858
I0
sVsend
p859
I0
sVssl
p860
I-1
sVconnect
p861
I-1
sVdns
p862
I-1
sVwait
p863
I30
sVblocked
p864
I-1
ssVtime
p865
I30
sVresponse
p866
(dp867
Vstatus
p868
I204
sVcomment
p869
g4
sVcookies
p870
(lp871
sVstatusText
p872
VNo Content
p873
sVcontent
p874
(dp875
VmimeType
p876
Vtext/html; charset=UTF-8
p877
sVcomment
p878
g4
sVsize
p879
I0
ssVheaders
p880
(lp881
sVheadersSize
p882
I248
sVredirectURL
p883
g4
sVbodySize
p884
I0
sVhttpVersion
p885
VHTTP/1.1
p886
ssa(dp887
Vcomment
p888
g4
sVserverIPAddress
p889
V216.58.216.196
p890
sVpageref
p891
VFlint, Michigan
p892
sVstartedDateTime
p893
V2017-04-16T08:53:43.647-05:00
p894
sVcache
p895
(dp896
sVrequest
p897
(dp898
Vcomment
p899
g4
sVcookies
p900
(lp901
sVurl
p902
Vhttps://www.google.com/gen_204?atyp=i&ct=&cad=&uact=1&vet=10ahUKEwiElaeEkKnTAhVJ5YMKHTFrCjQQ9V8INSgB..s&ei=ZHfzWITTIMnKjwSx1qmgAw&zx=1492350823646
p903
sVqueryString
p904
(lp905
(dp906
Vname
p907
Vatyp
p908
sVvalue
p909
g30
sa(dp910
Vname
p911
Vct
p912
sVvalue
p913
g4
sa(dp914
Vname
p915
Vcad
p916
sVvalue
p917
g4
sa(dp918
Vname
p919
Vuact
p920
sVvalue
p921
g59
sa(dp922
Vname
p923
Vvet
p924
sVvalue
p925
V10ahUKEwiElaeEkKnTAhVJ5YMKHTFrCjQQ9V8INSgB..s
p926
sa(dp927
Vname
p928
Vei
p929
sVvalue
p930
VZHfzWITTIMnKjwSx1qmgAw
p931
sa(dp932
Vname
p933
Vzx
p934
sVvalue
p935
V1492350823646
p936
sasVheaders
p937
(lp938
sVheadersSize
p939
I663
sVbodySize
p940
I0
sVmethod
p941
VGET
p942
sVhttpVersion
p943
VHTTP/1.1
p944
ssVtimings
p945
(dp946
Vcomment
p947
g4
sVreceive
p948
I0
sVsend
p949
I0
sVssl
p950
I-1
sVconnect
p951
I-1
sVdns
p952
I-1
sVwait
p953
I35
sVblocked
p954
I-1
ssVtime
p955
I35
sVresponse
p956
(dp957
Vstatus
p958
I204
sVcomment
p959
g4
sVcookies
p960
(lp961
sVstatusText
p962
VNo Content
p963
sVcontent
p964
(dp965
VmimeType
p966
Vtext/html; charset=UTF-8
p967
sVcomment
p968
g4
sVsize
p969
I0
ssVheaders
p970
(lp971
sVheadersSize
p972
I248
sVredirectURL
p973
g4
sVbodySize
p974
I0
sVhttpVersion
p975
VHTTP/1.1
p976
ssa(dp977
Vcomment
p978
g4
sVserverIPAddress
p979
V216.58.216.196
p980
sVpageref
p981
VFlint, Michigan
p982
sVstartedDateTime
p983
V2017-04-16T08:53:43.772-05:00
p984
sVcache
p985
(dp986
sVrequest
p987
(dp988
Vcomment
p989
g4
sVcookies
p990
(lp991
sVurl
p992
Vhttps://www.google.com/async/ampfp?vet=10ahUKEwiElaeEkKnTAhVJ5YMKHTFrCjQQtZoBCOwB..i&ei=ZHfzWITTIMnKjwSx1qmgAw&yv=2&async=_id:ampfp-async,_pms:qs
p993
sVqueryString
p994
(lp995
(dp996
Vname
p997
Vvet
p998
sVvalue
p999
V10ahUKEwiElaeEkKnTAhVJ5YMKHTFrCjQQtZoBCOwB..i
p1000
sa(dp1001
Vname
p1002
Vei
p1003
sVvalue
p1004
VZHfzWITTIMnKjwSx1qmgAw
p1005
sa(dp1006
Vname
p1007
Vyv
p1008
sVvalue
p1009
g64
sa(dp1010
Vname
p1011
Vasync
p1012
sVvalue
p1013
V_id:ampfp-async,_pms:qs
p1014
sasVheaders
p1015
(lp1016
sVheadersSize
p1017
I662
sVbodySize
p1018
I0
sVmethod
p1019
VGET
p1020
sVhttpVersion
p1021
VHTTP/1.1
p1022
ssVtimings
p1023
(dp1024
Vcomment
p1025
g4
sVreceive
p1026
I0
sVsend
p1027
I0
sVssl
p1028
I-1
sVconnect
p1029
I-1
sVdns
p1030
I-1
sVwait
p1031
I52
sVblocked
p1032
I-1
ssVtime
p1033
I53
sVresponse
p1034
(dp1035
Vstatus
p1036
I200
sVcomment
p1037
g4
sVcookies
p1038
(lp1039
sVstatusText
p1040
VOK
p1041
sVcontent
p1042
(dp1043
VmimeType
p1044
Vtext/html; charset=UTF-8
p1045
sVcomment
p1046
g4
sVsize
p1047
I0
ssVheaders
p1048
(lp1049
sVheadersSize
p1050
I383
sVredirectURL
p1051
g4
sVbodySize
p1052
I4527
sVhttpVersion
p1053
VHTTP/1.1
p1054
ssa(dp1055
Vcomment
p1056
g4
sVserverIPAddress
p1057
V216.58.216.193
p1058
sVpageref
p1059
VFlint, Michigan
p1060
sVstartedDateTime
p1061
V2017-04-16T08:53:43.772-05:00
p1062
sVcache
p1063
(dp1064
sVrequest
p1065
(dp1066
Vcomment
p1067
g4
sVcookies
p1068
(lp1069
sVurl
p1070
Vhttps://cdn.ampproject.org/preconnect.gif?0.9970252954026793
p1071
sVqueryString
p1072
(lp1073
(dp1074
Vname
p1075
V0.9970252954026793
p1076
sVvalue
p1077
g4
sasVheaders
p1078
(lp1079
sVheadersSize
p1080
I375
sVbodySize
p1081
I0
sVmethod
p1082
VGET
p1083
sVhttpVersion
p1084
VHTTP/1.1
p1085
ssVtimings
p1086
(dp1087
Vcomment
p1088
g4
sVreceive
p1089
I0
sVsend
p1090
I0
sVssl
p1091
I-1
sVconnect
p1092
I-1
sVdns
p1093
I-1
sVwait
p1094
I54
sVblocked
p1095
I-1
ssVtime
p1096
I54
sVresponse
p1097
(dp1098
Vstatus
p1099
I200
sVcomment
p1100
g4
sVcookies
p1101
(lp1102
sVstatusText
p1103
VOK
p1104
sVcontent
p1105
(dp1106
VmimeType
p1107
Vimage/gif
p1108
sVcomment
p1109
g4
sVsize
p1110
I0
ssVheaders
p1111
(lp1112
sVheadersSize
p1113
I826
sVredirectURL
p1114
g4
sVbodySize
p1115
I37
sVhttpVersion
p1116
VHTTP/1.1
p1117
ssa(dp1118
Vcomment
p1119
g4
sVserverIPAddress
p1120
V216.58.216.196
p1121
sVpageref
p1122
VFlint, Michigan
p1123
sVstartedDateTime
p1124
V2017-04-16T08:53:44.016-05:00
p1125
sVcache
p1126
(dp1127
sVrequest
p1128
(dp1129
Vcomment
p1130
g4
sVcookies
p1131
(lp1132
sVurl
p1133
Vhttps://www.google.com/async/log_amp_item_set?vet=10ahUKEwjZsq6FkKnTAhWs64MKHTWPDSAQooQBCAE..i&ei=ZHfzWITTIMnKjwSx1qmgAw&yv=2&async=num_items:2,_fmt:jspb
p1134
sVqueryString
p1135
(lp1136
(dp1137
Vname
p1138
Vvet
p1139
sVvalue
p1140
V10ahUKEwjZsq6FkKnTAhWs64MKHTWPDSAQooQBCAE..i
p1141
sa(dp1142
Vname
p1143
Vei
p1144
sVvalue
p1145
VZHfzWITTIMnKjwSx1qmgAw
p1146
sa(dp1147
Vname
p1148
Vyv
p1149
sVvalue
p1150
g64
sa(dp1151
Vname
p1152
Vasync
p1153
sVvalue
p1154
Vnum_items:2,_fmt:jspb
p1155
sasVheaders
p1156
(lp1157
sVheadersSize
p1158
I670
sVbodySize
p1159
I0
sVmethod
p1160
VGET
p1161
sVhttpVersion
p1162
VHTTP/1.1
p1163
ssVtimings
p1164
(dp1165
Vcomment
p1166
g4
sVreceive
p1167
I0
sVsend
p1168
I0
sVssl
p1169
I-1
sVconnect
p1170
I-1
sVdns
p1171
I-1
sVwait
p1172
I66
sVblocked
p1173
I-1
ssVtime
p1174
I66
sVresponse
p1175
(dp1176
Vstatus
p1177
I200
sVcomment
p1178
g4
sVcookies
p1179
(lp1180
sVstatusText
p1181
VOK
p1182
sVcontent
p1183
(dp1184
VmimeType
p1185
Vapplication/json; charset=UTF-8
p1186
sVcomment
p1187
g4
sVsize
p1188
I0
ssVheaders
p1189
(lp1190
sVheadersSize
p1191
I417
sVredirectURL
p1192
g4
sVbodySize
p1193
I141
sVhttpVersion
p1194
VHTTP/1.1
p1195
ssa(dp1196
Vcomment
p1197
g4
sVserverIPAddress
p1198
V216.58.216.196
p1199
sVpageref
p1200
VFlint, Michigan
p1201
sVstartedDateTime
p1202
V2017-04-16T08:53:44.063-05:00
p1203
sVcache
p1204
(dp1205
sVrequest
p1206
(dp1207
Vcomment
p1208
g4
sVcookies
p1209
(lp1210
sVurl
p1211
Vhttps://www.google.com/gen_204?s=web&atyp=csi&ei=ZHfzWITTIMnKjwSx1qmgAw&imc=10&imn=10&imp=3&adh=&xjs=init.47.15.sb_mob.34.dvl.4.vs.2.trex.2.c.1&ima=3&rt=prt.989,iml.1505,xjsls.989,dcl.1050,qiml.1265,xjses.1127,xjsee.1344,xjs.1345,ol.2367,aft.1505,wsrt.135,cst.0,dnst.0,rqst.1043,rspt.935,rqstt.5,unt.5,cstt.5,dit.1129
p1212
sVqueryString
p1213
(lp1214
(dp1215
Vname
p1216
g57
sVvalue
p1217
Vweb
p1218
sa(dp1219
Vname
p1220
Vatyp
p1221
sVvalue
p1222
Vcsi
p1223
sa(dp1224
Vname
p1225
Vei
p1226
sVvalue
p1227
VZHfzWITTIMnKjwSx1qmgAw
p1228
sa(dp1229
Vname
p1230
Vimc
p1231
sVvalue
p1232
V10
p1233
sa(dp1234
Vname
p1235
Vimn
p1236
sVvalue
p1237
V10
p1238
sa(dp1239
Vname
p1240
Vimp
p1241
sVvalue
p1242
g668
sa(dp1243
Vname
p1244
Vadh
p1245
sVvalue
p1246
g4
sa(dp1247
Vname
p1248
Vxjs
p1249
sVvalue
p1250
Vinit.47.15.sb_mob.34.dvl.4.vs.2.trex.2.c.1
p1251
sa(dp1252
Vname
p1253
Vima
p1254
sVvalue
p1255
g668
sa(dp1256
Vname
p1257
Vrt
p1258
sVvalue
p1259
Vprt.989,iml.1505,xjsls.989,dcl.1050,qiml.1265,xjses.1127,xjsee.1344,xjs.1345,ol.2367,aft.1505,wsrt.135,cst.0,dnst.0,rqst.1043,rspt.935,rqstt.5,unt.5,cstt.5,dit.1129
p1260
sasVheaders
p1261
(lp1262
sVheadersSize
p1263
I834
sVbodySize
p1264
I0
sVmethod
p1265
VGET
p1266
sVhttpVersion
p1267
VHTTP/1.1
p1268
ssVtimings
p1269
(dp1270
Vcomment
p1271
g4
sVreceive
p1272
I0
sVsend
p1273
I0
sVssl
p1274
I-1
sVconnect
p1275
I-1
sVdns
p1276
I-1
sVwait
p1277
I33
sVblocked
p1278
I-1
ssVtime
p1279
I33
sVresponse
p1280
(dp1281
Vstatus
p1282
I204
sVcomment
p1283
g4
sVcookies
p1284
(lp1285
sVstatusText
p1286
VNo Content
p1287
sVcontent
p1288
(dp1289
VmimeType
p1290
Vtext/html; charset=UTF-8
p1291
sVcomment
p1292
g4
sVsize
p1293
I0
ssVheaders
p1294
(lp1295
sVheadersSize
p1296
I248
sVredirectURL
p1297
g4
sVbodySize
p1298
I0
sVhttpVersion
p1299
VHTTP/1.1
p1300
ssa(dp1301
Vcomment
p1302
g4
sVserverIPAddress
p1303
V216.58.216.196
p1304
sVpageref
p1305
VFlint, Michigan
p1306
sVstartedDateTime
p1307
V2017-04-16T08:53:48.945-05:00
p1308
sVcache
p1309
(dp1310
sVrequest
p1311
(dp1312
Vcomment
p1313
g4
sVcookies
p1314
(lp1315
sVurl
p1316
Vhttps://www.google.com/gen_204?atyp=i&ct=slh&cad=&ei=UXfzWN-vNKXejwTQ1q2QDg&m=V&t=C&s=1&v=2&pv=0.39899162490829965&me=1:1492350809566,x:6,V,0,0,1280,944:0,N,1,UXfzWN-vNKXejwTQ1q2QDg:0,R,1,24,8,155,1249,889:0,R,1,25,8,155,1249,889:0,R,1,36,8,155,1249,116:0,R,1,48,8,284,1249,40:0,R,1,55,8,399,1249,40:0,R,1,56,24,399,1217,40:0,R,1,61,8,455,1249,20:0,R,1,76,8,495,1249,213:0,R,1,77,8,544,1249,164:0,R,1,91,8,773,1249,204:0,R,1,92,0,773,1265,224:7,B,3204:8283,e,U&zx=1492350828940
p1317
sVqueryString
p1318
(lp1319
(dp1320
Vname
p1321
Vatyp
p1322
sVvalue
p1323
g30
sa(dp1324
Vname
p1325
Vct
p1326
sVvalue
p1327
Vslh
p1328
sa(dp1329
Vname
p1330
Vcad
p1331
sVvalue
p1332
g4
sa(dp1333
Vname
p1334
Vei
p1335
sVvalue
p1336
VUXfzWN-vNKXejwTQ1q2QDg
p1337
sa(dp1338
Vname
p1339
g47
sVvalue
p1340
g49
sa(dp1341
Vname
p1342
g52
sVvalue
p1343
g54
sa(dp1344
Vname
p1345
g57
sVvalue
p1346
g59
sa(dp1347
Vname
p1348
g62
sVvalue
p1349
g64
sa(dp1350
Vname
p1351
Vpv
p1352
sVvalue
p1353
V0.39899162490829965
p1354
sa(dp1355
Vname
p1356
Vme
p1357
sVvalue
p1358
V1:1492350809566,x:6,V,0,0,1280,944:0,N,1,UXfzWN-vNKXejwTQ1q2QDg:0,R,1,24,8,155,1249,889:0,R,1,25,8,155,1249,889:0,R,1,36,8,155,1249,116:0,R,1,48,8,284,1249,40:0,R,1,55,8,399,1249,40:0,R,1,56,24,399,1217,40:0,R,1,61,8,455,1249,20:0,R,1,76,8,495,1249,213:0,R,1,77,8,544,1249,164:0,R,1,91,8,773,1249,204:0,R,1,92,0,773,1265,224:7,B,3204:8283,e,U
p1359
sa(dp1360
Vname
p1361
Vzx
p1362
sVvalue
p1363
V1492350828940
p1364
sasVheaders
p1365
(lp1366
sVheadersSize
p1367
I994
sVbodySize
p1368
I0
sVmethod
p1369
VGET
p1370
sVhttpVersion
p1371
VHTTP/1.1
p1372
ssVtimings
p1373
(dp1374
Vcomment
p1375
g4
sVreceive
p1376
I0
sVsend
p1377
I0
sVssl
p1378
I-1
sVconnect
p1379
I-1
sVdns
p1380
I-1
sVwait
p1381
I36
sVblocked
p1382
I-1
ssVtime
p1383
I36
sVresponse
p1384
(dp1385
Vstatus
p1386
I204
sVcomment
p1387
g4
sVcookies
p1388
(lp1389
sVstatusText
p1390
VNo Content
p1391
sVcontent
p1392
(dp1393
VmimeType
p1394
Vtext/html; charset=UTF-8
p1395
sVcomment
p1396
g4
sVsize
p1397
I0
ssVheaders
p1398
(lp1399
sVheadersSize
p1400
I248
sVredirectURL
p1401
g4
sVbodySize
p1402
I0
sVhttpVersion
p1403
VHTTP/1.1
p1404
ssasVversion
p1405
V1.2
p1406
sVpages
p1407
(lp1408
(dp1409
VpageTimings
p1410
(dp1411
Vcomment
p1412
g4
ssVcomment
p1413
g4
sVtitle
p1414
VFlint, Michigan
p1415
sVid
p1416
VFlint, Michigan
p1417
sVstartedDateTime
p1418
V2017-04-16T08:53:37.853-05:00
p1419
sasVcreator
p1420
(dp1421
Vcomment
p1422
g4
sVversion
p1423
V2.1.4
p1424
sVname
p1425
VBrowserMob Proxy
p1426
sss.