(dp0
Vlog
p1
(dp2
Vcomment
p3
V
p4
sVentries
p5
(lp6
(dp7
Vcomment
p8
g4
sVserverIPAddress
p9
V216.58.216.196
p10
sVpageref
p11
VNorth Carolina Tar Heels
p12
sVstartedDateTime
p13
V2017-04-16T08:36:07.747-05:00
p14
sVcache
p15
(dp16
sVrequest
p17
(dp18
Vcomment
p19
g4
sVcookies
p20
(lp21
sVurl
p22
Vhttps://www.google.com/gen_204?atyp=i&ct=slh&cad=&ei=OHPzWIvINIm3jwTAjJsQ&m=V&t=C&s=1&v=2&pv=0.9487166092088067&me=1:1492349756466,x:2,V,0,0,1280,944:0,N,1,OHPzWIvINIm3jwTAjJsQ:0,R,1,24,0,155,1197,506:0,R,1,25,0,155,1197,504:0,R,1,79,8,669,1264,309:0,R,1,80,8,713,1264,265:0,R,1,81,0,713,1280,285:4,B,4490:11273,e,U&zx=1492349767746
p23
sVqueryString
p24
(lp25
(dp26
Vname
p27
Vatyp
p28
sVvalue
p29
Vi
p30
sa(dp31
Vname
p32
Vct
p33
sVvalue
p34
Vslh
p35
sa(dp36
Vname
p37
Vcad
p38
sVvalue
p39
g4
sa(dp40
Vname
p41
Vei
p42
sVvalue
p43
VOHPzWIvINIm3jwTAjJsQ
p44
sa(dp45
Vname
p46
Vm
p47
sVvalue
p48
VV
p49
sa(dp50
Vname
p51
Vt
p52
sVvalue
p53
VC
p54
sa(dp55
Vname
p56
Vs
p57
sVvalue
p58
V1
p59
sa(dp60
Vname
p61
Vv
p62
sVvalue
p63
V2
p64
sa(dp65
Vname
p66
Vpv
p67
sVvalue
p68
V0.9487166092088067
p69
sa(dp70
Vname
p71
Vme
p72
sVvalue
p73
V1:1492349756466,x:2,V,0,0,1280,944:0,N,1,OHPzWIvINIm3jwTAjJsQ:0,R,1,24,0,155,1197,506:0,R,1,25,0,155,1197,504:0,R,1,79,8,669,1264,309:0,R,1,80,8,713,1264,265:0,R,1,81,0,713,1280,285:4,B,4490:11273,e,U
p74
sa(dp75
Vname
p76
Vzx
p77
sVvalue
p78
V1492349767746
p79
sasVheaders
p80
(lp81
sVheadersSize
p82
I849
sVbodySize
p83
I0
sVmethod
p84
VGET
p85
sVhttpVersion
p86
VHTTP/1.1
p87
ssVtimings
p88
(dp89
Vcomment
p90
g4
sVreceive
p91
I0
sVsend
p92
I0
sVssl
p93
I-1
sVconnect
p94
I-1
sVdns
p95
I-1
sVwait
p96
I0
sVblocked
p97
I-1
ssVtime
p98
I0
sVresponse
p99
(dp100
Vstatus
p101
I0
sVcomment
p102
g4
sVcookies
p103
(lp104
sV_error
p105
VNo response received
p106
sVstatusText
p107
g4
sVcontent
p108
(dp109
VmimeType
p110
g4
sVcomment
p111
g4
sVsize
p112
I0
ssVheaders
p113
(lp114
sVheadersSize
p115
I-1
sVredirectURL
p116
g4
sVbodySize
p117
I-1
sVhttpVersion
p118
Vunknown
p119
ssa(dp120
Vcomment
p121
g4
sVserverIPAddress
p122
V216.58.216.196
p123
sVpageref
p124
VNorth Carolina Tar Heels
p125
sVstartedDateTime
p126
V2017-04-16T08:36:07.751-05:00
p127
sVcache
p128
(dp129
sVrequest
p130
(dp131
Vcomment
p132
g4
sVcookies
p133
(lp134
sVurl
p135
Vhttp://www.google.com/
p136
sVqueryString
p137
(lp138
sVheaders
p139
(lp140
sVheadersSize
p141
I613
sVbodySize
p142
I0
sVmethod
p143
VGET
p144
sVhttpVersion
p145
VHTTP/1.1
p146
ssVtimings
p147
(dp148
Vcomment
p149
g4
sVreceive
p150
I0
sVsend
p151
I0
sVssl
p152
I-1
sVconnect
p153
I-1
sVdns
p154
I-1
sVwait
p155
I36
sVblocked
p156
I-1
ssVtime
p157
I36
sVresponse
p158
(dp159
Vstatus
p160
I302
sVcomment
p161
g4
sVcookies
p162
(lp163
sVstatusText
p164
VFound
p165
sVcontent
p166
(dp167
VmimeType
p168
Vtext/html; charset=UTF-8
p169
sVcomment
p170
g4
sVsize
p171
I0
ssVheaders
p172
(lp173
sVheadersSize
p174
I609
sVredirectURL
p175
Vhttps://www.google.com/?gws_rd=ssl
p176
sVbodySize
p177
I231
sVhttpVersion
p178
VHTTP/1.1
p179
ssa(dp180
Vcomment
p181
g4
sVserverIPAddress
p182
V216.58.216.196
p183
sVpageref
p184
VNorth Carolina Tar Heels
p185
sVstartedDateTime
p186
V2017-04-16T08:36:07.793-05:00
p187
sVcache
p188
(dp189
sVrequest
p190
(dp191
Vcomment
p192
g4
sVcookies
p193
(lp194
sVurl
p195
Vhttps://www.google.com/?gws_rd=ssl
p196
sVqueryString
p197
(lp198
(dp199
Vname
p200
Vgws_rd
p201
sVvalue
p202
Vssl
p203
sasVheaders
p204
(lp205
sVheadersSize
p206
I607
sVbodySize
p207
I0
sVmethod
p208
VGET
p209
sVhttpVersion
p210
VHTTP/1.1
p211
ssVtimings
p212
(dp213
Vcomment
p214
g4
sVreceive
p215
I24
sVsend
p216
I0
sVssl
p217
I-1
sVconnect
p218
I-1
sVdns
p219
I-1
sVwait
p220
I71
sVblocked
p221
I-1
ssVtime
p222
I96
sVresponse
p223
(dp224
Vstatus
p225
I200
sVcomment
p226
g4
sVcookies
p227
(lp228
sVstatusText
p229
VOK
p230
sVcontent
p231
(dp232
VmimeType
p233
Vtext/html; charset=UTF-8
p234
sVcomment
p235
g4
sVsize
p236
I0
ssVheaders
p237
(lp238
sVheadersSize
p239
I721
sVredirectURL
p240
g4
sVbodySize
p241
I34290
sVhttpVersion
p242
VHTTP/1.1
p243
ssa(dp244
Vcomment
p245
g4
sVserverIPAddress
p246
V216.58.216.196
p247
sVpageref
p248
VNorth Carolina Tar Heels
p249
sVstartedDateTime
p250
V2017-04-16T08:36:08.177-05:00
p251
sVcache
p252
(dp253
sVrequest
p254
(dp255
Vcomment
p256
g4
sVcookies
p257
(lp258
sVurl
p259
Vhttps://www.google.com/gen_204?s=mobilewebhp&atyp=csi&ei=RnPzWKrXL5CgjwSDn7DQDw&imc=1&imn=1&imp=0&adh=&xjs=init.32.12.sb_mob.23.dvl.4.async.2.c.1.mbsf.1&ima=1&rt=xjsls.28,prt.28,iml.28,dcl.58,xjses.105,xjsee.210,xjs.210,ol.280,aft.28,wsrt.144,cst.0,dnst.0,rqst.98,rspt.26,rqstt.48,unt.45,cstt.45,dit.186
p260
sVqueryString
p261
(lp262
(dp263
Vname
p264
g57
sVvalue
p265
Vmobilewebhp
p266
sa(dp267
Vname
p268
Vatyp
p269
sVvalue
p270
Vcsi
p271
sa(dp272
Vname
p273
Vei
p274
sVvalue
p275
VRnPzWKrXL5CgjwSDn7DQDw
p276
sa(dp277
Vname
p278
Vimc
p279
sVvalue
p280
g59
sa(dp281
Vname
p282
Vimn
p283
sVvalue
p284
g59
sa(dp285
Vname
p286
Vimp
p287
sVvalue
p288
V0
p289
sa(dp290
Vname
p291
Vadh
p292
sVvalue
p293
g4
sa(dp294
Vname
p295
Vxjs
p296
sVvalue
p297
Vinit.32.12.sb_mob.23.dvl.4.async.2.c.1.mbsf.1
p298
sa(dp299
Vname
p300
Vima
p301
sVvalue
p302
g59
sa(dp303
Vname
p304
Vrt
p305
sVvalue
p306
Vxjsls.28,prt.28,iml.28,dcl.58,xjses.105,xjsee.210,xjs.210,ol.280,aft.28,wsrt.144,cst.0,dnst.0,rqst.98,rspt.26,rqstt.48,unt.45,cstt.45,dit.186
p307
sasVheaders
p308
(lp309
sVheadersSize
p310
I831
sVbodySize
p311
I0
sVmethod
p312
VGET
p313
sVhttpVersion
p314
VHTTP/1.1
p315
ssVtimings
p316
(dp317
Vcomment
p318
g4
sVreceive
p319
I0
sVsend
p320
I0
sVssl
p321
I-1
sVconnect
p322
I-1
sVdns
p323
I-1
sVwait
p324
I32
sVblocked
p325
I-1
ssVtime
p326
I33
sVresponse
p327
(dp328
Vstatus
p329
I204
sVcomment
p330
g4
sVcookies
p331
(lp332
sVstatusText
p333
VNo Content
p334
sVcontent
p335
(dp336
VmimeType
p337
Vtext/html; charset=UTF-8
p338
sVcomment
p339
g4
sVsize
p340
I0
ssVheaders
p341
(lp342
sVheadersSize
p343
I248
sVredirectURL
p344
g4
sVbodySize
p345
I0
sVhttpVersion
p346
VHTTP/1.1
p347
ssa(dp348
Vcomment
p349
g4
sVserverIPAddress
p350
V216.58.216.196
p351
sVpageref
p352
VNorth Carolina Tar Heels
p353
sVstartedDateTime
p354
V2017-04-16T08:36:08.363-05:00
p355
sVcache
p356
(dp357
sVrequest
p358
(dp359
Vcomment
p360
g4
sVcookies
p361
(lp362
sVurl
p363
Vhttps://www.google.com/complete/search?client=mobile-gws-hp&hl=en&gs_rn=64&gs_ri=mobile-gws-hp&sla=1&pfq=new%20york%20knicks&gm=602&cp=0&gs_id=1&xhr=t&q=N&tch=1&ech=1&psi=RnPzWKrXL5CgjwSDn7DQDw.1492349768068.1
p364
sVqueryString
p365
(lp366
(dp367
Vname
p368
Vclient
p369
sVvalue
p370
Vmobile-gws-hp
p371
sa(dp372
Vname
p373
Vhl
p374
sVvalue
p375
Ven
p376
sa(dp377
Vname
p378
Vgs_rn
p379
sVvalue
p380
V64
p381
sa(dp382
Vname
p383
Vgs_ri
p384
sVvalue
p385
Vmobile-gws-hp
p386
sa(dp387
Vname
p388
Vsla
p389
sVvalue
p390
g59
sa(dp391
Vname
p392
Vpfq
p393
sVvalue
p394
Vnew york knicks
p395
sa(dp396
Vname
p397
Vgm
p398
sVvalue
p399
V602
p400
sa(dp401
Vname
p402
Vcp
p403
sVvalue
p404
g289
sa(dp405
Vname
p406
Vgs_id
p407
sVvalue
p408
g59
sa(dp409
Vname
p410
Vxhr
p411
sVvalue
p412
g52
sa(dp413
Vname
p414
Vq
p415
sVvalue
p416
VN
p417
sa(dp418
Vname
p419
Vtch
p420
sVvalue
p421
g59
sa(dp422
Vname
p423
Vech
p424
sVvalue
p425
g59
sa(dp426
Vname
p427
Vpsi
p428
sVvalue
p429
VRnPzWKrXL5CgjwSDn7DQDw.1492349768068.1
p430
sasVheaders
p431
(lp432
sVheadersSize
p433
I737
sVbodySize
p434
I0
sVmethod
p435
VGET
p436
sVhttpVersion
p437
VHTTP/1.1
p438
ssVtimings
p439
(dp440
Vcomment
p441
g4
sVreceive
p442
I0
sVsend
p443
I0
sVssl
p444
I-1
sVconnect
p445
I-1
sVdns
p446
I-1
sVwait
p447
I0
sVblocked
p448
I-1
ssVtime
p449
I0
sVresponse
p450
(dp451
Vstatus
p452
I0
sVcomment
p453
g4
sVcookies
p454
(lp455
sV_error
p456
VNo response received
p457
sVstatusText
p458
g4
sVcontent
p459
(dp460
VmimeType
p461
g4
sVcomment
p462
g4
sVsize
p463
I0
ssVheaders
p464
(lp465
sVheadersSize
p466
I-1
sVredirectURL
p467
g4
sVbodySize
p468
I-1
sVhttpVersion
p469
Vunknown
p470
ssa(dp471
Vcomment
p472
g4
sVserverIPAddress
p473
V216.58.216.196
p474
sVpageref
p475
VNorth Carolina Tar Heels
p476
sVstartedDateTime
p477
V2017-04-16T08:36:08.480-05:00
p478
sVcache
p479
(dp480
sVrequest
p481
(dp482
Vcomment
p483
g4
sVcookies
p484
(lp485
sVurl
p486
Vhttps://www.google.com/search?site=&source=hp&ei=RnPzWKrXL5CgjwSDn7DQDw&q=North+Carolina+Tar+Heels&oq=North+Carolina+Tar+Heels&gs_l=mobile-gws-hp.3...268.333.0.382.24.1.0.0.0.0.0.0..0.0....0...1c.1.64.mobile-gws-hp..24.0.0.vj7bL8Takys
p487
sVqueryString
p488
(lp489
(dp490
Vname
p491
Vsite
p492
sVvalue
p493
g4
sa(dp494
Vname
p495
Vsource
p496
sVvalue
p497
Vhp
p498
sa(dp499
Vname
p500
Vei
p501
sVvalue
p502
VRnPzWKrXL5CgjwSDn7DQDw
p503
sa(dp504
Vname
p505
g415
sVvalue
p506
VNorth Carolina Tar Heels
p507
sa(dp508
Vname
p509
Voq
p510
sVvalue
p511
VNorth Carolina Tar Heels
p512
sa(dp513
Vname
p514
Vgs_l
p515
sVvalue
p516
Vmobile-gws-hp.3...268.333.0.382.24.1.0.0.0.0.0.0..0.0....0...1c.1.64.mobile-gws-hp..24.0.0.vj7bL8Takys
p517
sasVheaders
p518
(lp519
sVheadersSize
p520
I852
sVbodySize
p521
I0
sVmethod
p522
VGET
p523
sVhttpVersion
p524
VHTTP/1.1
p525
ssVtimings
p526
(dp527
Vcomment
p528
g4
sVreceive
p529
I1111
sVsend
p530
I0
sVssl
p531
I-1
sVconnect
p532
I-1
sVdns
p533
I-1
sVwait
p534
I101
sVblocked
p535
I-1
ssVtime
p536
I1213
sVresponse
p537
(dp538
Vstatus
p539
I200
sVcomment
p540
g4
sVcookies
p541
(lp542
sVstatusText
p543
VOK
p544
sVcontent
p545
(dp546
VmimeType
p547
Vtext/html; charset=UTF-8
p548
sVcomment
p549
g4
sVsize
p550
I0
ssVheaders
p551
(lp552
sVheadersSize
p553
I363
sVredirectURL
p554
g4
sVbodySize
p555
I208394
sVhttpVersion
p556
VHTTP/1.1
p557
ssa(dp558
Vcomment
p559
g4
sVserverIPAddress
p560
V216.58.216.195
p561
sVpageref
p562
VNorth Carolina Tar Heels
p563
sVstartedDateTime
p564
V2017-04-16T08:36:10.023-05:00
p565
sVcache
p566
(dp567
sVrequest
p568
(dp569
Vcomment
p570
g4
sVcookies
p571
(lp572
sVurl
p573
Vhttps://ssl.gstatic.com/onebox/media/sports/logos/k5DcdJnt2CqKBuI2SF3ohA_48x48.png
p574
sVqueryString
p575
(lp576
sVheaders
p577
(lp578
sVheadersSize
p579
I397
sVbodySize
p580
I0
sVmethod
p581
VGET
p582
sVhttpVersion
p583
VHTTP/1.1
p584
ssVtimings
p585
(dp586
Vcomment
p587
g4
sVreceive
p588
I2
sVsend
p589
I0
sVssl
p590
I-1
sVconnect
p591
I-1
sVdns
p592
I-1
sVwait
p593
I14
sVblocked
p594
I-1
ssVtime
p595
I16
sVresponse
p596
(dp597
Vstatus
p598
I200
sVcomment
p599
g4
sVcookies
p600
(lp601
sVstatusText
p602
VOK
p603
sVcontent
p604
(dp605
VmimeType
p606
Vimage/png
p607
sVcomment
p608
g4
sVsize
p609
I0
ssVheaders
p610
(lp611
sVheadersSize
p612
I424
sVredirectURL
p613
g4
sVbodySize
p614
I2813
sVhttpVersion
p615
VHTTP/1.1
p616
ssa(dp617
Vcomment
p618
g4
sVserverIPAddress
p619
V216.58.216.195
p620
sVpageref
p621
VNorth Carolina Tar Heels
p622
sVstartedDateTime
p623
V2017-04-16T08:36:10.025-05:00
p624
sVcache
p625
(dp626
sVrequest
p627
(dp628
Vcomment
p629
g4
sVcookies
p630
(lp631
sVurl
p632
Vhttps://ssl.gstatic.com/onebox/media/sports/videos/cbk/epzstRpmQE4_192x108.jpg
p633
sVqueryString
p634
(lp635
sVheaders
p636
(lp637
sVheadersSize
p638
I393
sVbodySize
p639
I0
sVmethod
p640
VGET
p641
sVhttpVersion
p642
VHTTP/1.1
p643
ssVtimings
p644
(dp645
Vcomment
p646
g4
sVreceive
p647
I1
sVsend
p648
I0
sVssl
p649
I-1
sVconnect
p650
I-1
sVdns
p651
I-1
sVwait
p652
I30
sVblocked
p653
I-1
ssVtime
p654
I32
sVresponse
p655
(dp656
Vstatus
p657
I200
sVcomment
p658
g4
sVcookies
p659
(lp660
sVstatusText
p661
VOK
p662
sVcontent
p663
(dp664
VmimeType
p665
Vimage/jpeg
p666
sVcomment
p667
g4
sVsize
p668
I0
ssVheaders
p669
(lp670
sVheadersSize
p671
I392
sVredirectURL
p672
g4
sVbodySize
p673
I9070
sVhttpVersion
p674
VHTTP/1.1
p675
ssa(dp676
Vcomment
p677
g4
sVserverIPAddress
p678
V216.58.216.195
p679
sVpageref
p680
VNorth Carolina Tar Heels
p681
sVstartedDateTime
p682
V2017-04-16T08:36:10.026-05:00
p683
sVcache
p684
(dp685
sVrequest
p686
(dp687
Vcomment
p688
g4
sVcookies
p689
(lp690
sVurl
p691
Vhttps://ssl.gstatic.com/onebox/media/sports/logos/4eETONmD8UxIN_UlqPyXsA_48x48.png
p692
sVqueryString
p693
(lp694
sVheaders
p695
(lp696
sVheadersSize
p697
I397
sVbodySize
p698
I0
sVmethod
p699
VGET
p700
sVhttpVersion
p701
VHTTP/1.1
p702
ssVtimings
p703
(dp704
Vcomment
p705
g4
sVreceive
p706
I0
sVsend
p707
I0
sVssl
p708
I-1
sVconnect
p709
I-1
sVdns
p710
I-1
sVwait
p711
I26
sVblocked
p712
I-1
ssVtime
p713
I26
sVresponse
p714
(dp715
Vstatus
p716
I200
sVcomment
p717
g4
sVcookies
p718
(lp719
sVstatusText
p720
VOK
p721
sVcontent
p722
(dp723
VmimeType
p724
Vimage/png
p725
sVcomment
p726
g4
sVsize
p727
I0
ssVheaders
p728
(lp729
sVheadersSize
p730
I424
sVredirectURL
p731
g4
sVbodySize
p732
I2283
sVhttpVersion
p733
VHTTP/1.1
p734
ssa(dp735
Vcomment
p736
g4
sVserverIPAddress
p737
V216.58.216.195
p738
sVpageref
p739
VNorth Carolina Tar Heels
p740
sVstartedDateTime
p741
V2017-04-16T08:36:10.027-05:00
p742
sVcache
p743
(dp744
sVrequest
p745
(dp746
Vcomment
p747
g4
sVcookies
p748
(lp749
sVurl
p750
Vhttps://ssl.gstatic.com/onebox/media/sports/videos/cbk/E5GAG9qKVq8_192x108.jpg
p751
sVqueryString
p752
(lp753
sVheaders
p754
(lp755
sVheadersSize
p756
I393
sVbodySize
p757
I0
sVmethod
p758
VGET
p759
sVhttpVersion
p760
VHTTP/1.1
p761
ssVtimings
p762
(dp763
Vcomment
p764
g4
sVreceive
p765
I5
sVsend
p766
I0
sVssl
p767
I-1
sVconnect
p768
I-1
sVdns
p769
I-1
sVwait
p770
I25
sVblocked
p771
I-1
ssVtime
p772
I30
sVresponse
p773
(dp774
Vstatus
p775
I200
sVcomment
p776
g4
sVcookies
p777
(lp778
sVstatusText
p779
VOK
p780
sVcontent
p781
(dp782
VmimeType
p783
Vimage/jpeg
p784
sVcomment
p785
g4
sVsize
p786
I0
ssVheaders
p787
(lp788
sVheadersSize
p789
I392
sVredirectURL
p790
g4
sVbodySize
p791
I7499
sVhttpVersion
p792
VHTTP/1.1
p793
ssa(dp794
Vcomment
p795
g4
sVserverIPAddress
p796
V216.58.216.195
p797
sVpageref
p798
VNorth Carolina Tar Heels
p799
sVstartedDateTime
p800
V2017-04-16T08:36:10.027-05:00
p801
sVcache
p802
(dp803
sVrequest
p804
(dp805
Vcomment
p806
g4
sVcookies
p807
(lp808
sVurl
p809
Vhttps://ssl.gstatic.com/onebox/media/sports/logos/3hAm47Tasadw7t9cB8K24Q_48x48.png
p810
sVqueryString
p811
(lp812
sVheaders
p813
(lp814
sVheadersSize
p815
I397
sVbodySize
p816
I0
sVmethod
p817
VGET
p818
sVhttpVersion
p819
VHTTP/1.1
p820
ssVtimings
p821
(dp822
Vcomment
p823
g4
sVreceive
p824
I0
sVsend
p825
I0
sVssl
p826
I-1
sVconnect
p827
I-1
sVdns
p828
I-1
sVwait
p829
I26
sVblocked
p830
I-1
ssVtime
p831
I26
sVresponse
p832
(dp833
Vstatus
p834
I200
sVcomment
p835
g4
sVcookies
p836
(lp837
sVstatusText
p838
VOK
p839
sVcontent
p840
(dp841
VmimeType
p842
Vimage/png
p843
sVcomment
p844
g4
sVsize
p845
I0
ssVheaders
p846
(lp847
sVheadersSize
p848
I424
sVredirectURL
p849
g4
sVbodySize
p850
I1902
sVhttpVersion
p851
VHTTP/1.1
p852
ssa(dp853
Vcomment
p854
g4
sVserverIPAddress
p855
V216.58.216.195
p856
sVpageref
p857
VNorth Carolina Tar Heels
p858
sVstartedDateTime
p859
V2017-04-16T08:36:10.028-05:00
p860
sVcache
p861
(dp862
sVrequest
p863
(dp864
Vcomment
p865
g4
sVcookies
p866
(lp867
sVurl
p868
Vhttps://ssl.gstatic.com/onebox/media/sports/videos/cbk/lKg7m6hV5Lw_192x108.jpg
p869
sVqueryString
p870
(lp871
sVheaders
p872
(lp873
sVheadersSize
p874
I393
sVbodySize
p875
I0
sVmethod
p876
VGET
p877
sVhttpVersion
p878
VHTTP/1.1
p879
ssVtimings
p880
(dp881
Vcomment
p882
g4
sVreceive
p883
I5
sVsend
p884
I0
sVssl
p885
I-1
sVconnect
p886
I-1
sVdns
p887
I-1
sVwait
p888
I24
sVblocked
p889
I-1
ssVtime
p890
I30
sVresponse
p891
(dp892
Vstatus
p893
I200
sVcomment
p894
g4
sVcookies
p895
(lp896
sVstatusText
p897
VOK
p898
sVcontent
p899
(dp900
VmimeType
p901
Vimage/jpeg
p902
sVcomment
p903
g4
sVsize
p904
I0
ssVheaders
p905
(lp906
sVheadersSize
p907
I393
sVredirectURL
p908
g4
sVbodySize
p909
I11726
sVhttpVersion
p910
VHTTP/1.1
p911
ssa(dp912
Vcomment
p913
g4
sVserverIPAddress
p914
V216.58.216.195
p915
sVpageref
p916
VNorth Carolina Tar Heels
p917
sVstartedDateTime
p918
V2017-04-16T08:36:10.041-05:00
p919
sVcache
p920
(dp921
sVrequest
p922
(dp923
Vcomment
p924
g4
sVcookies
p925
(lp926
sVurl
p927
Vhttps://ssl.gstatic.com/onebox/media/sports/logos/_H5_or7YjvhZdZMMW56QRg_48x48.png
p928
sVqueryString
p929
(lp930
sVheaders
p931
(lp932
sVheadersSize
p933
I397
sVbodySize
p934
I0
sVmethod
p935
VGET
p936
sVhttpVersion
p937
VHTTP/1.1
p938
ssVtimings
p939
(dp940
Vcomment
p941
g4
sVreceive
p942
I6
sVsend
p943
I0
sVssl
p944
I-1
sVconnect
p945
I-1
sVdns
p946
I-1
sVwait
p947
I20
sVblocked
p948
I-1
ssVtime
p949
I27
sVresponse
p950
(dp951
Vstatus
p952
I200
sVcomment
p953
g4
sVcookies
p954
(lp955
sVstatusText
p956
VOK
p957
sVcontent
p958
(dp959
VmimeType
p960
Vimage/png
p961
sVcomment
p962
g4
sVsize
p963
I0
ssVheaders
p964
(lp965
sVheadersSize
p966
I424
sVredirectURL
p967
g4
sVbodySize
p968
I3968
sVhttpVersion
p969
VHTTP/1.1
p970
ssa(dp971
Vcomment
p972
g4
sVserverIPAddress
p973
V216.58.216.196
p974
sVpageref
p975
VNorth Carolina Tar Heels
p976
sVstartedDateTime
p977
V2017-04-16T08:36:10.621-05:00
p978
sVcache
p979
(dp980
sVrequest
p981
(dp982
Vcomment
p983
g4
sVcookies
p984
(lp985
sVurl
p986
Vhttps://www.google.com/xjs/_/js/k=xjs.qs.en_US.pCBXVCvTH3s.O/m=syl,syj,syn,em3,em8,em6,em7,sym,aa,abd,sy2g,sy2k,sy29,sy2j,sy2d,sy2a,sy2c,sy2f,sy2l,sy2m,sy2n,emd,async,sybn,sybi,sybo,sy1f,sy45,sy46,sy9w,sybk,sybj,sybp,sy1g,sy30,sy47,sybm,sybl,sybq,sy1h,sybh,dvl,syep,foot,ipv6,sy5g,sy5j,sy5h,sy6u,sy7d,sy7j,sy2x,sy5i,sy89,sy7e,sy23,sy2y,sy5k,sy6c,sy91,sy9b,sy9l,syhi,syhj,syhk,syhl,lr,lrli,sy32,emj,shm,sykh,tl,sy2t,sy38,em12,vs,sy66,sy67,sy4u,sy69,sykk,sykl,tnv,bct,sy48,sy3a,sy3c,sy5b,sy4x,sy4z,sy56,sy1y,sy31,sy4y,sy22,sy6i,sy4h,sy6h,sy6o,sya3,sy5d,sy25,sy6j,sy6k,sy6r,sya2,sy5e,sy6n,emb,em9,ema,sy24,sy2o,sy4c,sy65,sy6p,sy6s,sy6w,sy72,sya4,syd7,syel,syho,syhs,syhu,syhv,sio,sy6y,sycu,d3l,sy5x,qif,tabs,sy9m,syac,sy4g,sy9n,syhz,syl6,ssc,sy26,sykr,strm,twt,sy2u,sy34,sy6l,sy6m,qkx,sy4d,sy4f,sy4e,sy4b,shrb,dgm,syf5,syf6,syf8,sygb,syg9,kptm,sy99,syf4,syfc,syfn,syf7,syff,sy1i,sy68,sy8d,syfl,syfr,syfq,syfg,sy1j,sy4q,sy5o,sy5r,sy8h,syc7,syc8,syfb,syfj,syfs,syft,syg3,syg5,syg7,emn,emo,syg4,syg6,ivg,iuci,img,sy41,tcc,syj7,syj8,syj2,syjc,syj6,syj3,syjg,syjh,syje,syjd,syjk,syji,syjf,syj0,emr,ems,emt,emu,emv,emx,emy,emz,em10,em11,udlg,sy5z,atn,sy4i,sya1,ampfp/am=gCP4LtMEBXQA2RUaq_oFBISzAFA/rt=j/d=0/t=zcms/rs=ACT90oFwm4NZCwIcuuiqmthdlECdBzkhRA
p987
sVqueryString
p988
(lp989
sVheaders
p990
(lp991
sVheadersSize
p992
I1759
sVbodySize
p993
I0
sVmethod
p994
VGET
p995
sVhttpVersion
p996
VHTTP/1.1
p997
ssVtimings
p998
(dp999
Vcomment
p1000
g4
sVreceive
p1001
I124
sVsend
p1002
I0
sVssl
p1003
I-1
sVconnect
p1004
I-1
sVdns
p1005
I-1
sVwait
p1006
I167
sVblocked
p1007
I-1
ssVtime
p1008
I291
sVresponse
p1009
(dp1010
Vstatus
p1011
I200
sVcomment
p1012
g4
sVcookies
p1013
(lp1014
sVstatusText
p1015
VOK
p1016
sVcontent
p1017
(dp1018
VmimeType
p1019
Vtext/javascript; charset=UTF-8
p1020
sVcomment
p1021
g4
sVsize
p1022
I0
ssVheaders
p1023
(lp1024
sVheadersSize
p1025
I452
sVredirectURL
p1026
g4
sVbodySize
p1027
I210234
sVhttpVersion
p1028
VHTTP/1.1
p1029
ssa(dp1030
Vcomment
p1031
g4
sVserverIPAddress
p1032
V216.58.216.196
p1033
sVpageref
p1034
VNorth Carolina Tar Heels
p1035
sVstartedDateTime
p1036
V2017-04-16T08:36:11.362-05:00
p1037
sVcache
p1038
(dp1039
sVrequest
p1040
(dp1041
Vcomment
p1042
g4
sVcookies
p1043
(lp1044
sVurl
p1045
Vhttps://www.google.com/async/irc?vet=10ahUKEwjqoZWOjKnTAhUN3YMKHRnOAW4Qo0EIswI..i&ved=0ahUKEwjqoZWOjKnTAhUN3YMKHRnOAW4Qo0EIswI&ei=R3PzWKriHI26jwSZnIfwBg&yv=2&async=iu:1,ved:0ahUKEwjqoZWOjKnTAhUN3YMKHRnOAW4Qo0EIswI,_id:irc_async,_pms:qs
p1046
sVqueryString
p1047
(lp1048
(dp1049
Vname
p1050
Vvet
p1051
sVvalue
p1052
V10ahUKEwjqoZWOjKnTAhUN3YMKHRnOAW4Qo0EIswI..i
p1053
sa(dp1054
Vname
p1055
Vved
p1056
sVvalue
p1057
V0ahUKEwjqoZWOjKnTAhUN3YMKHRnOAW4Qo0EIswI
p1058
sa(dp1059
Vname
p1060
Vei
p1061
sVvalue
p1062
VR3PzWKriHI26jwSZnIfwBg
p1063
sa(dp1064
Vname
p1065
Vyv
p1066
sVvalue
p1067
g64
sa(dp1068
Vname
p1069
Vasync
p1070
sVvalue
p1071
Viu:1,ved:0ahUKEwjqoZWOjKnTAhUN3YMKHRnOAW4Qo0EIswI,_id:irc_async,_pms:qs
p1072
sasVheaders
p1073
(lp1074
sVheadersSize
p1075
I752
sVbodySize
p1076
I0
sVmethod
p1077
VGET
p1078
sVhttpVersion
p1079
VHTTP/1.1
p1080
ssVtimings
p1081
(dp1082
Vcomment
p1083
g4
sVreceive
p1084
I0
sVsend
p1085
I0
sVssl
p1086
I-1
sVconnect
p1087
I-1
sVdns
p1088
I-1
sVwait
p1089
I36
sVblocked
p1090
I-1
ssVtime
p1091
I37
sVresponse
p1092
(dp1093
Vstatus
p1094
I200
sVcomment
p1095
g4
sVcookies
p1096
(lp1097
sVstatusText
p1098
VOK
p1099
sVcontent
p1100
(dp1101
VmimeType
p1102
Vtext/html; charset=UTF-8
p1103
sVcomment
p1104
g4
sVsize
p1105
I0
ssVheaders
p1106
(lp1107
sVheadersSize
p1108
I383
sVredirectURL
p1109
g4
sVbodySize
p1110
I7792
sVhttpVersion
p1111
VHTTP/1.1
p1112
ssa(dp1113
Vcomment
p1114
g4
sVserverIPAddress
p1115
V216.58.216.196
p1116
sVpageref
p1117
VNorth Carolina Tar Heels
p1118
sVstartedDateTime
p1119
V2017-04-16T08:36:11.441-05:00
p1120
sVcache
p1121
(dp1122
sVrequest
p1123
(dp1124
Vcomment
p1125
g4
sVcookies
p1126
(lp1127
sVurl
p1128
Vhttps://www.google.com/async/ampfp?vet=10ahUKEwjqoZWOjKnTAhUN3YMKHRnOAW4QtZoBCLEC..i&ei=R3PzWKriHI26jwSZnIfwBg&yv=2&async=_id:ampfp-async,_pms:qs
p1129
sVqueryString
p1130
(lp1131
(dp1132
Vname
p1133
Vvet
p1134
sVvalue
p1135
V10ahUKEwjqoZWOjKnTAhUN3YMKHRnOAW4QtZoBCLEC..i
p1136
sa(dp1137
Vname
p1138
Vei
p1139
sVvalue
p1140
VR3PzWKriHI26jwSZnIfwBg
p1141
sa(dp1142
Vname
p1143
Vyv
p1144
sVvalue
p1145
g64
sa(dp1146
Vname
p1147
Vasync
p1148
sVvalue
p1149
V_id:ampfp-async,_pms:qs
p1150
sasVheaders
p1151
(lp1152
sVheadersSize
p1153
I662
sVbodySize
p1154
I0
sVmethod
p1155
VGET
p1156
sVhttpVersion
p1157
VHTTP/1.1
p1158
ssVtimings
p1159
(dp1160
Vcomment
p1161
g4
sVreceive
p1162
I2
sVsend
p1163
I0
sVssl
p1164
I-1
sVconnect
p1165
I-1
sVdns
p1166
I-1
sVwait
p1167
I42
sVblocked
p1168
I-1
ssVtime
p1169
I44
sVresponse
p1170
(dp1171
Vstatus
p1172
I200
sVcomment
p1173
g4
sVcookies
p1174
(lp1175
sVstatusText
p1176
VOK
p1177
sVcontent
p1178
(dp1179
VmimeType
p1180
Vtext/html; charset=UTF-8
p1181
sVcomment
p1182
g4
sVsize
p1183
I0
ssVheaders
p1184
(lp1185
sVheadersSize
p1186
I383
sVredirectURL
p1187
g4
sVbodySize
p1188
I4529
sVhttpVersion
p1189
VHTTP/1.1
p1190
ssa(dp1191
Vcomment
p1192
g4
sVserverIPAddress
p1193
V216.58.216.193
p1194
sVpageref
p1195
VNorth Carolina Tar Heels
p1196
sVstartedDateTime
p1197
V2017-04-16T08:36:11.442-05:00
p1198
sVcache
p1199
(dp1200
sVrequest
p1201
(dp1202
Vcomment
p1203
g4
sVcookies
p1204
(lp1205
sVurl
p1206
Vhttps://cdn.ampproject.org/preconnect.gif?0.3476145422422404
p1207
sVqueryString
p1208
(lp1209
(dp1210
Vname
p1211
V0.3476145422422404
p1212
sVvalue
p1213
g4
sasVheaders
p1214
(lp1215
sVheadersSize
p1216
I375
sVbodySize
p1217
I0
sVmethod
p1218
VGET
p1219
sVhttpVersion
p1220
VHTTP/1.1
p1221
ssVtimings
p1222
(dp1223
Vcomment
p1224
g4
sVreceive
p1225
I0
sVsend
p1226
I0
sVssl
p1227
I-1
sVconnect
p1228
I-1
sVdns
p1229
I-1
sVwait
p1230
I36
sVblocked
p1231
I-1
ssVtime
p1232
I36
sVresponse
p1233
(dp1234
Vstatus
p1235
I200
sVcomment
p1236
g4
sVcookies
p1237
(lp1238
sVstatusText
p1239
VOK
p1240
sVcontent
p1241
(dp1242
VmimeType
p1243
Vimage/gif
p1244
sVcomment
p1245
g4
sVsize
p1246
I0
ssVheaders
p1247
(lp1248
sVheadersSize
p1249
I826
sVredirectURL
p1250
g4
sVbodySize
p1251
I37
sVhttpVersion
p1252
VHTTP/1.1
p1253
ssa(dp1254
Vcomment
p1255
g4
sVserverIPAddress
p1256
V216.58.216.206
p1257
sVpageref
p1258
VNorth Carolina Tar Heels
p1259
sVstartedDateTime
p1260
V2017-04-16T08:36:11.463-05:00
p1261
sVcache
p1262
(dp1263
sVrequest
p1264
(dp1265
Vcomment
p1266
g4
sVcookies
p1267
(lp1268
sVurl
p1269
Vhttps://encrypted-tbn1.gstatic.com/images?q=tbn:ANd9GcQj4WuTJKfwYKx9v-4OoUiLUobVO3GwfDiZpxDE3SVoGgshe6oEW0f3b_mS
p1270
sVqueryString
p1271
(lp1272
(dp1273
Vname
p1274
g415
sVvalue
p1275
Vtbn:ANd9GcQj4WuTJKfwYKx9v-4OoUiLUobVO3GwfDiZpxDE3SVoGgshe6oEW0f3b_mS
p1276
sasVheaders
p1277
(lp1278
sVheadersSize
p1279
I427
sVbodySize
p1280
I0
sVmethod
p1281
VGET
p1282
sVhttpVersion
p1283
VHTTP/1.1
p1284
ssVtimings
p1285
(dp1286
Vcomment
p1287
g4
sVreceive
p1288
I2
sVsend
p1289
I0
sVssl
p1290
I-1
sVconnect
p1291
I-1
sVdns
p1292
I-1
sVwait
p1293
I14
sVblocked
p1294
I-1
ssVtime
p1295
I17
sVresponse
p1296
(dp1297
Vstatus
p1298
I200
sVcomment
p1299
g4
sVcookies
p1300
(lp1301
sVstatusText
p1302
VOK
p1303
sVcontent
p1304
(dp1305
VmimeType
p1306
Vimage/jpeg
p1307
sVcomment
p1308
g4
sVsize
p1309
I0
ssVheaders
p1310
(lp1311
sVheadersSize
p1312
I430
sVredirectURL
p1313
g4
sVbodySize
p1314
I11466
sVhttpVersion
p1315
VHTTP/1.1
p1316
ssa(dp1317
Vcomment
p1318
g4
sVserverIPAddress
p1319
V216.58.216.206
p1320
sVpageref
p1321
VNorth Carolina Tar Heels
p1322
sVstartedDateTime
p1323
V2017-04-16T08:36:11.696-05:00
p1324
sVcache
p1325
(dp1326
sVrequest
p1327
(dp1328
Vcomment
p1329
g4
sVcookies
p1330
(lp1331
sVurl
p1332
Vhttps://encrypted-tbn3.gstatic.com/images?q=tbn:ANd9GcTrapRB6PE6bwrMizjUpe1aoxxGUYJOc0a3TGW6H-pyvjFSf7mngVRlhf085g
p1333
sVqueryString
p1334
(lp1335
(dp1336
Vname
p1337
g415
sVvalue
p1338
Vtbn:ANd9GcTrapRB6PE6bwrMizjUpe1aoxxGUYJOc0a3TGW6H-pyvjFSf7mngVRlhf085g
p1339
sasVheaders
p1340
(lp1341
sVheadersSize
p1342
I429
sVbodySize
p1343
I0
sVmethod
p1344
VGET
p1345
sVhttpVersion
p1346
VHTTP/1.1
p1347
ssVtimings
p1348
(dp1349
Vcomment
p1350
g4
sVreceive
p1351
I1
sVsend
p1352
I0
sVssl
p1353
I173
sVconnect
p1354
I193
sVdns
p1355
I35
sVwait
p1356
I58
sVblocked
p1357
I0
ssVtime
p1358
I288
sVresponse
p1359
(dp1360
Vstatus
p1361
I200
sVcomment
p1362
g4
sVcookies
p1363
(lp1364
sVstatusText
p1365
VOK
p1366
sVcontent
p1367
(dp1368
VmimeType
p1369
Vimage/jpeg
p1370
sVcomment
p1371
g4
sVsize
p1372
I0
ssVheaders
p1373
(lp1374
sVheadersSize
p1375
I427
sVredirectURL
p1376
g4
sVbodySize
p1377
I7890
sVhttpVersion
p1378
VHTTP/1.1
p1379
ssa(dp1380
Vcomment
p1381
g4
sVserverIPAddress
p1382
V216.58.216.196
p1383
sVpageref
p1384
VNorth Carolina Tar Heels
p1385
sVstartedDateTime
p1386
V2017-04-16T08:36:11.842-05:00
p1387
sVcache
p1388
(dp1389
sVrequest
p1390
(dp1391
Vcomment
p1392
g4
sVcookies
p1393
(lp1394
sVurl
p1395
Vhttps://www.google.com/async/log_amp_item_set?vet=10ahUKEwjL7smPjKnTAhVE1oMKHa5XD10QooQBCAE..i&ei=R3PzWKriHI26jwSZnIfwBg&yv=2&async=num_items:10,_fmt:jspb
p1396
sVqueryString
p1397
(lp1398
(dp1399
Vname
p1400
Vvet
p1401
sVvalue
p1402
V10ahUKEwjL7smPjKnTAhVE1oMKHa5XD10QooQBCAE..i
p1403
sa(dp1404
Vname
p1405
Vei
p1406
sVvalue
p1407
VR3PzWKriHI26jwSZnIfwBg
p1408
sa(dp1409
Vname
p1410
Vyv
p1411
sVvalue
p1412
g64
sa(dp1413
Vname
p1414
Vasync
p1415
sVvalue
p1416
Vnum_items:10,_fmt:jspb
p1417
sasVheaders
p1418
(lp1419
sVheadersSize
p1420
I671
sVbodySize
p1421
I0
sVmethod
p1422
VGET
p1423
sVhttpVersion
p1424
VHTTP/1.1
p1425
ssVtimings
p1426
(dp1427
Vcomment
p1428
g4
sVreceive
p1429
I0
sVsend
p1430
I0
sVssl
p1431
I-1
sVconnect
p1432
I-1
sVdns
p1433
I-1
sVwait
p1434
I31
sVblocked
p1435
I-1
ssVtime
p1436
I31
sVresponse
p1437
(dp1438
Vstatus
p1439
I200
sVcomment
p1440
g4
sVcookies
p1441
(lp1442
sVstatusText
p1443
VOK
p1444
sVcontent
p1445
(dp1446
VmimeType
p1447
Vapplication/json; charset=UTF-8
p1448
sVcomment
p1449
g4
sVsize
p1450
I0
ssVheaders
p1451
(lp1452
sVheadersSize
p1453
I417
sVredirectURL
p1454
g4
sVbodySize
p1455
I183
sVhttpVersion
p1456
VHTTP/1.1
p1457
ssa(dp1458
Vcomment
p1459
g4
sVserverIPAddress
p1460
V216.58.216.193
p1461
sVpageref
p1462
VNorth Carolina Tar Heels
p1463
sVstartedDateTime
p1464
V2017-04-16T08:36:12.426-05:00
p1465
sVcache
p1466
(dp1467
sVrequest
p1468
(dp1469
Vcomment
p1470
g4
sVcookies
p1471
(lp1472
sVurl
p1473
Vhttps://www-nunesmagician-com.cdn.ampproject.org/v/www.nunesmagician.com/platform/amp/syracuse-lacrosse/2017/4/15/15313688/gamethread-syracuse-orange-vs-north-carolina-tar-heels-su-cuse-lacrosse-lax-acc-atlantic-coast?amp_js_v=9
p1474
sVqueryString
p1475
(lp1476
(dp1477
Vname
p1478
Vamp_js_v
p1479
sVvalue
p1480
V9
p1481
sasVheaders
p1482
(lp1483
sVheadersSize
p1484
I633
sVbodySize
p1485
I0
sVmethod
p1486
VGET
p1487
sVhttpVersion
p1488
VHTTP/1.1
p1489
ssVtimings
p1490
(dp1491
Vcomment
p1492
g4
sVreceive
p1493
I1
sVsend
p1494
I0
sVssl
p1495
I509
sVconnect
p1496
I526
sVdns
p1497
I40
sVwait
p1498
I67
sVblocked
p1499
I0
ssVtime
p1500
I637
sVresponse
p1501
(dp1502
Vstatus
p1503
I200
sVcomment
p1504
g4
sVcookies
p1505
(lp1506
sVstatusText
p1507
VOK
p1508
sVcontent
p1509
(dp1510
VmimeType
p1511
Vtext/html
p1512
sVcomment
p1513
g4
sVsize
p1514
I0
ssVheaders
p1515
(lp1516
sVheadersSize
p1517
I859
sVredirectURL
p1518
g4
sVbodySize
p1519
I9660
sVhttpVersion
p1520
VHTTP/1.1
p1521
ssa(dp1522
Vcomment
p1523
g4
sVserverIPAddress
p1524
V216.58.216.196
p1525
sVpageref
p1526
VNorth Carolina Tar Heels
p1527
sVstartedDateTime
p1528
V2017-04-16T08:36:13.036-05:00
p1529
sVcache
p1530
(dp1531
sVrequest
p1532
(dp1533
Vcomment
p1534
g4
sVcookies
p1535
(lp1536
sVurl
p1537
Vhttps://www.google.com/gen_204?s=web&atyp=csi&ei=R3PzWKriHI26jwSZnIfwBg&imc=71&imn=71&imp=43&adh=&xjs=init.47.16.sb_mob.31.async.5.dvl.4.lr.3.c.1&ima=22&rt=prt.1504,iml.1777,xjsls.1504,dcl.1594,qiml.1815,xjses.1827,xjsee.2021,xjs.2021,ol.4426,aft.1777,wsrt.116,cst.0,dnst.0,rqst.1214,rspt.1112,rqstt.4,unt.3,cstt.3,dit.1649
p1538
sVqueryString
p1539
(lp1540
(dp1541
Vname
p1542
g57
sVvalue
p1543
Vweb
p1544
sa(dp1545
Vname
p1546
Vatyp
p1547
sVvalue
p1548
Vcsi
p1549
sa(dp1550
Vname
p1551
Vei
p1552
sVvalue
p1553
VR3PzWKriHI26jwSZnIfwBg
p1554
sa(dp1555
Vname
p1556
Vimc
p1557
sVvalue
p1558
V71
p1559
sa(dp1560
Vname
p1561
Vimn
p1562
sVvalue
p1563
V71
p1564
sa(dp1565
Vname
p1566
Vimp
p1567
sVvalue
p1568
V43
p1569
sa(dp1570
Vname
p1571
Vadh
p1572
sVvalue
p1573
g4
sa(dp1574
Vname
p1575
Vxjs
p1576
sVvalue
p1577
Vinit.47.16.sb_mob.31.async.5.dvl.4.lr.3.c.1
p1578
sa(dp1579
Vname
p1580
Vima
p1581
sVvalue
p1582
V22
p1583
sa(dp1584
Vname
p1585
Vrt
p1586
sVvalue
p1587
Vprt.1504,iml.1777,xjsls.1504,dcl.1594,qiml.1815,xjses.1827,xjsee.2021,xjs.2021,ol.4426,aft.1777,wsrt.116,cst.0,dnst.0,rqst.1214,rspt.1112,rqstt.4,unt.3,cstt.3,dit.1649
p1588
sasVheaders
p1589
(lp1590
sVheadersSize
p1591
I840
sVbodySize
p1592
I0
sVmethod
p1593
VGET
p1594
sVhttpVersion
p1595
VHTTP/1.1
p1596
ssVtimings
p1597
(dp1598
Vcomment
p1599
g4
sVreceive
p1600
I0
sVsend
p1601
I0
sVssl
p1602
I-1
sVconnect
p1603
I-1
sVdns
p1604
I-1
sVwait
p1605
I34
sVblocked
p1606
I-1
ssVtime
p1607
I35
sVresponse
p1608
(dp1609
Vstatus
p1610
I204
sVcomment
p1611
g4
sVcookies
p1612
(lp1613
sVstatusText
p1614
VNo Content
p1615
sVcontent
p1616
(dp1617
VmimeType
p1618
Vtext/html; charset=UTF-8
p1619
sVcomment
p1620
g4
sVsize
p1621
I0
ssVheaders
p1622
(lp1623
sVheadersSize
p1624
I248
sVredirectURL
p1625
g4
sVbodySize
p1626
I0
sVhttpVersion
p1627
VHTTP/1.1
p1628
ssa(dp1629
Vcomment
p1630
g4
sVserverIPAddress
p1631
V216.58.216.193
p1632
sVpageref
p1633
VNorth Carolina Tar Heels
p1634
sVstartedDateTime
p1635
V2017-04-16T08:36:13.137-05:00
p1636
sVcache
p1637
(dp1638
sVrequest
p1639
(dp1640
Vcomment
p1641
g4
sVcookies
p1642
(lp1643
sVurl
p1644
Vhttps://cdn0-vox--cdn-com.cdn.ampproject.org/ii/w100/s/cdn0.vox-cdn.com/uploads/blog/sbnu_logo_minimal/168/large_nunesmagician.com.minimal.png
p1645
sVqueryString
p1646
(lp1647
sVheaders
p1648
(lp1649
sVheadersSize
p1650
I662
sVbodySize
p1651
I0
sVmethod
p1652
VGET
p1653
sVhttpVersion
p1654
VHTTP/1.1
p1655
ssVtimings
p1656
(dp1657
Vcomment
p1658
g4
sVreceive
p1659
I0
sVsend
p1660
I0
sVssl
p1661
I-1
sVconnect
p1662
I-1
sVdns
p1663
I-1
sVwait
p1664
I38
sVblocked
p1665
I-1
ssVtime
p1666
I38
sVresponse
p1667
(dp1668
Vstatus
p1669
I200
sVcomment
p1670
g4
sVcookies
p1671
(lp1672
sVstatusText
p1673
VOK
p1674
sVcontent
p1675
(dp1676
VmimeType
p1677
Vimage/png
p1678
sVcomment
p1679
g4
sVsize
p1680
I0
ssVheaders
p1681
(lp1682
sVheadersSize
p1683
I824
sVredirectURL
p1684
g4
sVbodySize
p1685
I4837
sVhttpVersion
p1686
VHTTP/1.1
p1687
ssa(dp1688
Vcomment
p1689
g4
sVserverIPAddress
p1690
V216.58.216.193
p1691
sVpageref
p1692
VNorth Carolina Tar Heels
p1693
sVstartedDateTime
p1694
V2017-04-16T08:36:13.178-05:00
p1695
sVcache
p1696
(dp1697
sVrequest
p1698
(dp1699
Vcomment
p1700
g4
sVcookies
p1701
(lp1702
sVurl
p1703
Vhttps://cdn0-vox--cdn-com.cdn.ampproject.org/i/s/cdn0.vox-cdn.com/thumbor/VMhhAJkUwr3ZRDJDfI5RFltRNZ0=/0x0:2781x1854/1310x873/cdn0.vox-cdn.com/uploads/chorus_image/image/54274999/538930372.0.jpg
p1704
sVqueryString
p1705
(lp1706
sVheaders
p1707
(lp1708
sVheadersSize
p1709
I714
sVbodySize
p1710
I0
sVmethod
p1711
VGET
p1712
sVhttpVersion
p1713
VHTTP/1.1
p1714
ssVtimings
p1715
(dp1716
Vcomment
p1717
g4
sVreceive
p1718
I50
sVsend
p1719
I0
sVssl
p1720
I24
sVconnect
p1721
I36
sVdns
p1722
I1
sVwait
p1723
I108
sVblocked
p1724
I0
ssVtime
p1725
I195
sVresponse
p1726
(dp1727
Vstatus
p1728
I200
sVcomment
p1729
g4
sVcookies
p1730
(lp1731
sVstatusText
p1732
VOK
p1733
sVcontent
p1734
(dp1735
VmimeType
p1736
Vimage/jpeg
p1737
sVcomment
p1738
g4
sVsize
p1739
I0
ssVheaders
p1740
(lp1741
sVheadersSize
p1742
I851
sVredirectURL
p1743
g4
sVbodySize
p1744
I105938
sVhttpVersion
p1745
VHTTP/1.1
p1746
ssa(dp1747
Vcomment
p1748
g4
sVserverIPAddress
p1749
V216.58.216.196
p1750
sVpageref
p1751
VNorth Carolina Tar Heels
p1752
sVstartedDateTime
p1753
V2017-04-16T08:36:13.394-05:00
p1754
sVcache
p1755
(dp1756
sVrequest
p1757
(dp1758
Vcomment
p1759
g4
sVcookies
p1760
(lp1761
sVurl
p1762
Vhttps://www.google.com/gen_204?atyp=i&ct=slh&cad=&ei=OHPzWIvINIm3jwTAjJsQ&m=V&t=C&s=1&v=2&pv=0.9487166092088067&me=1:1492349756466,x:2,V,0,0,1280,944:0,N,1,OHPzWIvINIm3jwTAjJsQ:0,R,1,24,0,155,1197,506:0,R,1,25,0,155,1197,504:0,R,1,79,8,669,1264,309:0,R,1,80,8,713,1264,265:0,R,1,81,0,713,1280,285:4,B,4490:11273,e,U&zx=1492349773393
p1763
sVqueryString
p1764
(lp1765
(dp1766
Vname
p1767
Vatyp
p1768
sVvalue
p1769
g30
sa(dp1770
Vname
p1771
Vct
p1772
sVvalue
p1773
Vslh
p1774
sa(dp1775
Vname
p1776
Vcad
p1777
sVvalue
p1778
g4
sa(dp1779
Vname
p1780
Vei
p1781
sVvalue
p1782
VOHPzWIvINIm3jwTAjJsQ
p1783
sa(dp1784
Vname
p1785
g47
sVvalue
p1786
g49
sa(dp1787
Vname
p1788
g52
sVvalue
p1789
g54
sa(dp1790
Vname
p1791
g57
sVvalue
p1792
g59
sa(dp1793
Vname
p1794
g62
sVvalue
p1795
g64
sa(dp1796
Vname
p1797
Vpv
p1798
sVvalue
p1799
V0.9487166092088067
p1800
sa(dp1801
Vname
p1802
Vme
p1803
sVvalue
p1804
V1:1492349756466,x:2,V,0,0,1280,944:0,N,1,OHPzWIvINIm3jwTAjJsQ:0,R,1,24,0,155,1197,506:0,R,1,25,0,155,1197,504:0,R,1,79,8,669,1264,309:0,R,1,80,8,713,1264,265:0,R,1,81,0,713,1280,285:4,B,4490:11273,e,U
p1805
sa(dp1806
Vname
p1807
Vzx
p1808
sVvalue
p1809
V1492349773393
p1810
sasVheaders
p1811
(lp1812
sVheadersSize
p1813
I849
sVbodySize
p1814
I0
sVmethod
p1815
VGET
p1816
sVhttpVersion
p1817
VHTTP/1.1
p1818
ssVtimings
p1819
(dp1820
Vcomment
p1821
g4
sVreceive
p1822
I0
sVsend
p1823
I0
sVssl
p1824
I-1
sVconnect
p1825
I-1
sVdns
p1826
I-1
sVwait
p1827
I224
sVblocked
p1828
I-1
ssVtime
p1829
I224
sVresponse
p1830
(dp1831
Vstatus
p1832
I204
sVcomment
p1833
g4
sVcookies
p1834
(lp1835
sVstatusText
p1836
VNo Content
p1837
sVcontent
p1838
(dp1839
VmimeType
p1840
Vtext/html; charset=UTF-8
p1841
sVcomment
p1842
g4
sVsize
p1843
I0
ssVheaders
p1844
(lp1845
sVheadersSize
p1846
I248
sVredirectURL
p1847
g4
sVbodySize
p1848
I0
sVhttpVersion
p1849
VHTTP/1.1
p1850
ssasVversion
p1851
V1.2
p1852
sVpages
p1853
(lp1854
(dp1855
VpageTimings
p1856
(dp1857
Vcomment
p1858
g4
ssVcomment
p1859
g4
sVtitle
p1860
VNorth Carolina Tar Heels
p1861
sVid
p1862
VNorth Carolina Tar Heels
p1863
sVstartedDateTime
p1864
V2017-04-16T08:36:07.737-05:00
p1865
sasVcreator
p1866
(dp1867
Vcomment
p1868
g4
sVversion
p1869
V2.1.4
p1870
sVname
p1871
VBrowserMob Proxy
p1872
sss.