(dp0
Vlog
p1
(dp2
Vcomment
p3
V
p4
sVentries
p5
(lp6
(dp7
Vcomment
p8
g4
sVserverIPAddress
p9
V74.125.70.99
p10
sVpageref
p11
VOrlando
p12
sVstartedDateTime
p13
V2017-04-16T08:51:51.609-05:00
p14
sVcache
p15
(dp16
sVrequest
p17
(dp18
Vcomment
p19
g4
sVcookies
p20
(lp21
sVurl
p22
Vhttps://www.google.com/gen_204?atyp=i&ct=slh&cad=&ei=63bzWM_AAabJjwST_7ygBQ&m=V&t=C&s=1&v=2&pv=0.6108004534233492&me=1:1492350703767,x:4,V,0,0,1280,944:0,N,1,63bzWM_AAabJjwST_7ygBQ:0,R,1,24,8,155,1249,678:0,R,1,25,8,155,1249,678:0,R,1,36,8,155,1249,116:0,R,1,48,8,284,1249,40:0,R,1,55,8,399,1249,40:0,R,1,56,24,399,1217,40:0,R,1,61,8,455,1249,20:0,R,1,63,8,483,1249,20:0,R,1,73,8,523,1249,213:0,R,1,74,8,572,1249,164:0,R,1,93,8,736,1249,30:0,R,1,163,8,843,1249,201:0,R,1,164,24,843,1217,190:2,B,3647:7834,e,U&zx=1492350711607
p23
sVqueryString
p24
(lp25
(dp26
Vname
p27
Vatyp
p28
sVvalue
p29
Vi
p30
sa(dp31
Vname
p32
Vct
p33
sVvalue
p34
Vslh
p35
sa(dp36
Vname
p37
Vcad
p38
sVvalue
p39
g4
sa(dp40
Vname
p41
Vei
p42
sVvalue
p43
V63bzWM_AAabJjwST_7ygBQ
p44
sa(dp45
Vname
p46
Vm
p47
sVvalue
p48
VV
p49
sa(dp50
Vname
p51
Vt
p52
sVvalue
p53
VC
p54
sa(dp55
Vname
p56
Vs
p57
sVvalue
p58
V1
p59
sa(dp60
Vname
p61
Vv
p62
sVvalue
p63
V2
p64
sa(dp65
Vname
p66
Vpv
p67
sVvalue
p68
V0.6108004534233492
p69
sa(dp70
Vname
p71
Vme
p72
sVvalue
p73
V1:1492350703767,x:4,V,0,0,1280,944:0,N,1,63bzWM_AAabJjwST_7ygBQ:0,R,1,24,8,155,1249,678:0,R,1,25,8,155,1249,678:0,R,1,36,8,155,1249,116:0,R,1,48,8,284,1249,40:0,R,1,55,8,399,1249,40:0,R,1,56,24,399,1217,40:0,R,1,61,8,455,1249,20:0,R,1,63,8,483,1249,20:0,R,1,73,8,523,1249,213:0,R,1,74,8,572,1249,164:0,R,1,93,8,736,1249,30:0,R,1,163,8,843,1249,201:0,R,1,164,24,843,1217,190:2,B,3647:7834,e,U
p74
sa(dp75
Vname
p76
Vzx
p77
sVvalue
p78
V1492350711607
p79
sasVheaders
p80
(lp81
sVheadersSize
p82
I1042
sVbodySize
p83
I0
sVmethod
p84
VGET
p85
sVhttpVersion
p86
VHTTP/1.1
p87
ssVtimings
p88
(dp89
Vcomment
p90
g4
sVreceive
p91
I0
sVsend
p92
I0
sVssl
p93
I-1
sVconnect
p94
I-1
sVdns
p95
I-1
sVwait
p96
I0
sVblocked
p97
I-1
ssVtime
p98
I0
sVresponse
p99
(dp100
Vstatus
p101
I0
sVcomment
p102
g4
sVcookies
p103
(lp104
sV_error
p105
VNo response received
p106
sVstatusText
p107
g4
sVcontent
p108
(dp109
VmimeType
p110
g4
sVcomment
p111
g4
sVsize
p112
I0
ssVheaders
p113
(lp114
sVheadersSize
p115
I-1
sVredirectURL
p116
g4
sVbodySize
p117
I-1
sVhttpVersion
p118
Vunknown
p119
ssa(dp120
Vcomment
p121
g4
sVserverIPAddress
p122
V74.125.70.99
p123
sVpageref
p124
VOrlando
p125
sVstartedDateTime
p126
V2017-04-16T08:51:51.609-05:00
p127
sVcache
p128
(dp129
sVrequest
p130
(dp131
Vcomment
p132
g4
sVcookies
p133
(lp134
sVurl
p135
Vhttps://www.google.com/gen_204?atyp=i&ct=slh&cad=&ei=1nbzWOTyFKzXjwS1nraAAg&m=V&t=C&s=1&v=2&pv=0.941961282152072&me=1:1492350681475,x:2,V,0,0,1280,944:0,N,1,1nbzWOTyFKzXjwS1nraAAg:0,R,1,24,8,155,1249,429:0,R,1,26,8,155,1197,429:0,R,1,29,95,155,1024,120:0,R,1,74,8,351,1197,117:0,R,1,84,8,468,1197,116:0,R,1,95,8,594,1249,357:0,R,1,96,8,594,1249,337:0,R,1,97,8,594,1249,110:1,B,3530:17947,e,U&zx=1492350711608
p136
sVqueryString
p137
(lp138
(dp139
Vname
p140
Vatyp
p141
sVvalue
p142
g30
sa(dp143
Vname
p144
Vct
p145
sVvalue
p146
Vslh
p147
sa(dp148
Vname
p149
Vcad
p150
sVvalue
p151
g4
sa(dp152
Vname
p153
Vei
p154
sVvalue
p155
V1nbzWOTyFKzXjwS1nraAAg
p156
sa(dp157
Vname
p158
g47
sVvalue
p159
g49
sa(dp160
Vname
p161
g52
sVvalue
p162
g54
sa(dp163
Vname
p164
g57
sVvalue
p165
g59
sa(dp166
Vname
p167
g62
sVvalue
p168
g64
sa(dp169
Vname
p170
Vpv
p171
sVvalue
p172
V0.941961282152072
p173
sa(dp174
Vname
p175
Vme
p176
sVvalue
p177
V1:1492350681475,x:2,V,0,0,1280,944:0,N,1,1nbzWOTyFKzXjwS1nraAAg:0,R,1,24,8,155,1249,429:0,R,1,26,8,155,1197,429:0,R,1,29,95,155,1024,120:0,R,1,74,8,351,1197,117:0,R,1,84,8,468,1197,116:0,R,1,95,8,594,1249,357:0,R,1,96,8,594,1249,337:0,R,1,97,8,594,1249,110:1,B,3530:17947,e,U
p178
sa(dp179
Vname
p180
Vzx
p181
sVvalue
p182
V1492350711608
p183
sasVheaders
p184
(lp185
sVheadersSize
p186
I925
sVbodySize
p187
I0
sVmethod
p188
VGET
p189
sVhttpVersion
p190
VHTTP/1.1
p191
ssVtimings
p192
(dp193
Vcomment
p194
g4
sVreceive
p195
I0
sVsend
p196
I0
sVssl
p197
I-1
sVconnect
p198
I-1
sVdns
p199
I-1
sVwait
p200
I0
sVblocked
p201
I-1
ssVtime
p202
I0
sVresponse
p203
(dp204
Vstatus
p205
I0
sVcomment
p206
g4
sVcookies
p207
(lp208
sV_error
p209
VNo response received
p210
sVstatusText
p211
g4
sVcontent
p212
(dp213
VmimeType
p214
g4
sVcomment
p215
g4
sVsize
p216
I0
ssVheaders
p217
(lp218
sVheadersSize
p219
I-1
sVredirectURL
p220
g4
sVbodySize
p221
I-1
sVhttpVersion
p222
Vunknown
p223
ssa(dp224
Vcomment
p225
g4
sVserverIPAddress
p226
V74.125.70.99
p227
sVpageref
p228
VOrlando
p229
sVstartedDateTime
p230
V2017-04-16T08:51:51.610-05:00
p231
sVcache
p232
(dp233
sVrequest
p234
(dp235
Vcomment
p236
g4
sVcookies
p237
(lp238
sVurl
p239
Vhttps://www.google.com/gen_204?atyp=i&ct=slh&cad=&ei=gnbzWP3JEMHSjwSaz6n4Dw&m=V&t=C&s=1&v=2&pv=0.2296723393945379&me=1:1492350599216,x:2,V,0,0,1280,944:0,N,1,gnbzWP3JEMHSjwSaz6n4Dw:0,R,1,24,8,155,1249,445:0,R,1,26,8,155,1197,445:0,R,1,28,95,155,1024,120:0,R,1,68,8,351,1197,83:0,R,1,77,8,435,1197,83:0,R,1,86,8,518,1197,82:0,R,1,97,24,610,1217,115:0,R,1,104,8,746,1249,700:0,R,1,111,8,928,1249,332:0,R,1,112,0,929,1265,351:2,B,3554:14824,e,U&zx=1492350711608
p240
sVqueryString
p241
(lp242
(dp243
Vname
p244
Vatyp
p245
sVvalue
p246
g30
sa(dp247
Vname
p248
Vct
p249
sVvalue
p250
Vslh
p251
sa(dp252
Vname
p253
Vcad
p254
sVvalue
p255
g4
sa(dp256
Vname
p257
Vei
p258
sVvalue
p259
VgnbzWP3JEMHSjwSaz6n4Dw
p260
sa(dp261
Vname
p262
g47
sVvalue
p263
g49
sa(dp264
Vname
p265
g52
sVvalue
p266
g54
sa(dp267
Vname
p268
g57
sVvalue
p269
g59
sa(dp270
Vname
p271
g62
sVvalue
p272
g64
sa(dp273
Vname
p274
Vpv
p275
sVvalue
p276
V0.2296723393945379
p277
sa(dp278
Vname
p279
Vme
p280
sVvalue
p281
V1:1492350599216,x:2,V,0,0,1280,944:0,N,1,gnbzWP3JEMHSjwSaz6n4Dw:0,R,1,24,8,155,1249,445:0,R,1,26,8,155,1197,445:0,R,1,28,95,155,1024,120:0,R,1,68,8,351,1197,83:0,R,1,77,8,435,1197,83:0,R,1,86,8,518,1197,82:0,R,1,97,24,610,1217,115:0,R,1,104,8,746,1249,700:0,R,1,111,8,928,1249,332:0,R,1,112,0,929,1265,351:2,B,3554:14824,e,U
p282
sa(dp283
Vname
p284
Vzx
p285
sVvalue
p286
V1492350711608
p287
sasVheaders
p288
(lp289
sVheadersSize
p290
I975
sVbodySize
p291
I0
sVmethod
p292
VGET
p293
sVhttpVersion
p294
VHTTP/1.1
p295
ssVtimings
p296
(dp297
Vcomment
p298
g4
sVreceive
p299
I0
sVsend
p300
I0
sVssl
p301
I-1
sVconnect
p302
I-1
sVdns
p303
I-1
sVwait
p304
I0
sVblocked
p305
I-1
ssVtime
p306
I0
sVresponse
p307
(dp308
Vstatus
p309
I0
sVcomment
p310
g4
sVcookies
p311
(lp312
sV_error
p313
VNo response received
p314
sVstatusText
p315
g4
sVcontent
p316
(dp317
VmimeType
p318
g4
sVcomment
p319
g4
sVsize
p320
I0
ssVheaders
p321
(lp322
sVheadersSize
p323
I-1
sVredirectURL
p324
g4
sVbodySize
p325
I-1
sVhttpVersion
p326
Vunknown
p327
ssa(dp328
Vcomment
p329
g4
sVserverIPAddress
p330
V74.125.70.99
p331
sVpageref
p332
VOrlando
p333
sVstartedDateTime
p334
V2017-04-16T08:51:51.614-05:00
p335
sVcache
p336
(dp337
sVrequest
p338
(dp339
Vcomment
p340
g4
sVcookies
p341
(lp342
sVurl
p343
Vhttp://www.google.com/
p344
sVqueryString
p345
(lp346
sVheaders
p347
(lp348
sVheadersSize
p349
I613
sVbodySize
p350
I0
sVmethod
p351
VGET
p352
sVhttpVersion
p353
VHTTP/1.1
p354
ssVtimings
p355
(dp356
Vcomment
p357
g4
sVreceive
p358
I0
sVsend
p359
I0
sVssl
p360
I-1
sVconnect
p361
I-1
sVdns
p362
I-1
sVwait
p363
I46
sVblocked
p364
I-1
ssVtime
p365
I46
sVresponse
p366
(dp367
Vstatus
p368
I302
sVcomment
p369
g4
sVcookies
p370
(lp371
sVstatusText
p372
VFound
p373
sVcontent
p374
(dp375
VmimeType
p376
Vtext/html; charset=UTF-8
p377
sVcomment
p378
g4
sVsize
p379
I0
ssVheaders
p380
(lp381
sVheadersSize
p382
I609
sVredirectURL
p383
Vhttps://www.google.com/?gws_rd=ssl
p384
sVbodySize
p385
I231
sVhttpVersion
p386
VHTTP/1.1
p387
ssa(dp388
Vcomment
p389
g4
sVserverIPAddress
p390
V74.125.70.99
p391
sVpageref
p392
VOrlando
p393
sVstartedDateTime
p394
V2017-04-16T08:51:51.723-05:00
p395
sVcache
p396
(dp397
sVrequest
p398
(dp399
Vcomment
p400
g4
sVcookies
p401
(lp402
sVurl
p403
Vhttps://www.google.com/?gws_rd=ssl
p404
sVqueryString
p405
(lp406
(dp407
Vname
p408
Vgws_rd
p409
sVvalue
p410
Vssl
p411
sasVheaders
p412
(lp413
sVheadersSize
p414
I607
sVbodySize
p415
I0
sVmethod
p416
VGET
p417
sVhttpVersion
p418
VHTTP/1.1
p419
ssVtimings
p420
(dp421
Vcomment
p422
g4
sVreceive
p423
I26
sVsend
p424
I0
sVssl
p425
I32
sVconnect
p426
I56
sVdns
p427
I0
sVwait
p428
I81
sVblocked
p429
I0
ssVtime
p430
I165
sVresponse
p431
(dp432
Vstatus
p433
I200
sVcomment
p434
g4
sVcookies
p435
(lp436
sVstatusText
p437
VOK
p438
sVcontent
p439
(dp440
VmimeType
p441
Vtext/html; charset=UTF-8
p442
sVcomment
p443
g4
sVsize
p444
I0
ssVheaders
p445
(lp446
sVheadersSize
p447
I721
sVredirectURL
p448
g4
sVbodySize
p449
I34292
sVhttpVersion
p450
VHTTP/1.1
p451
ssa(dp452
Vcomment
p453
g4
sVserverIPAddress
p454
V74.125.70.99
p455
sVpageref
p456
VOrlando
p457
sVstartedDateTime
p458
V2017-04-16T08:51:52.239-05:00
p459
sVcache
p460
(dp461
sVrequest
p462
(dp463
Vcomment
p464
g4
sVcookies
p465
(lp466
sVurl
p467
Vhttps://www.google.com/gen_204?s=mobilewebhp&atyp=csi&ei=9nbzWNSGK4GfjwSXpoiwAw&imc=1&imn=1&imp=0&adh=&xjs=init.45.12.sb_mob.33.dvl.4.foot.3.mbsf.2.c.1&ima=1&rt=xjsls.27,prt.29,iml.29,dcl.57,xjses.152,xjsee.285,xjs.286,ol.384,aft.29,wsrt.224,cst.0,dnst.0,rqst.110,rspt.111,rqstt.116,unt.56,cstt.56,dit.272
p468
sVqueryString
p469
(lp470
(dp471
Vname
p472
g57
sVvalue
p473
Vmobilewebhp
p474
sa(dp475
Vname
p476
Vatyp
p477
sVvalue
p478
Vcsi
p479
sa(dp480
Vname
p481
Vei
p482
sVvalue
p483
V9nbzWNSGK4GfjwSXpoiwAw
p484
sa(dp485
Vname
p486
Vimc
p487
sVvalue
p488
g59
sa(dp489
Vname
p490
Vimn
p491
sVvalue
p492
g59
sa(dp493
Vname
p494
Vimp
p495
sVvalue
p496
V0
p497
sa(dp498
Vname
p499
Vadh
p500
sVvalue
p501
g4
sa(dp502
Vname
p503
Vxjs
p504
sVvalue
p505
Vinit.45.12.sb_mob.33.dvl.4.foot.3.mbsf.2.c.1
p506
sa(dp507
Vname
p508
Vima
p509
sVvalue
p510
g59
sa(dp511
Vname
p512
Vrt
p513
sVvalue
p514
Vxjsls.27,prt.29,iml.29,dcl.57,xjses.152,xjsee.285,xjs.286,ol.384,aft.29,wsrt.224,cst.0,dnst.0,rqst.110,rspt.111,rqstt.116,unt.56,cstt.56,dit.272
p515
sasVheaders
p516
(lp517
sVheadersSize
p518
I833
sVbodySize
p519
I0
sVmethod
p520
VGET
p521
sVhttpVersion
p522
VHTTP/1.1
p523
ssVtimings
p524
(dp525
Vcomment
p526
g4
sVreceive
p527
I0
sVsend
p528
I0
sVssl
p529
I-1
sVconnect
p530
I-1
sVdns
p531
I-1
sVwait
p532
I28
sVblocked
p533
I-1
ssVtime
p534
I28
sVresponse
p535
(dp536
Vstatus
p537
I204
sVcomment
p538
g4
sVcookies
p539
(lp540
sVstatusText
p541
VNo Content
p542
sVcontent
p543
(dp544
VmimeType
p545
Vtext/html; charset=UTF-8
p546
sVcomment
p547
g4
sVsize
p548
I0
ssVheaders
p549
(lp550
sVheadersSize
p551
I248
sVredirectURL
p552
g4
sVbodySize
p553
I0
sVhttpVersion
p554
VHTTP/1.1
p555
ssa(dp556
Vcomment
p557
g4
sVserverIPAddress
p558
V74.125.70.99
p559
sVpageref
p560
VOrlando
p561
sVstartedDateTime
p562
V2017-04-16T08:51:52.355-05:00
p563
sVcache
p564
(dp565
sVrequest
p566
(dp567
Vcomment
p568
g4
sVcookies
p569
(lp570
sVurl
p571
Vhttps://www.google.com/complete/search?client=mobile-gws-hp&hl=en&gs_rn=64&gs_ri=mobile-gws-hp&sla=1&pfq=oklahoma%20city%20thunder&gm=602&cp=0&gs_id=1&xhr=t&q=O&tch=1&ech=1&psi=9nbzWNSGK4GfjwSXpoiwAw.1492350712076.1
p572
sVqueryString
p573
(lp574
(dp575
Vname
p576
Vclient
p577
sVvalue
p578
Vmobile-gws-hp
p579
sa(dp580
Vname
p581
Vhl
p582
sVvalue
p583
Ven
p584
sa(dp585
Vname
p586
Vgs_rn
p587
sVvalue
p588
V64
p589
sa(dp590
Vname
p591
Vgs_ri
p592
sVvalue
p593
Vmobile-gws-hp
p594
sa(dp595
Vname
p596
Vsla
p597
sVvalue
p598
g59
sa(dp599
Vname
p600
Vpfq
p601
sVvalue
p602
Voklahoma city thunder
p603
sa(dp604
Vname
p605
Vgm
p606
sVvalue
p607
V602
p608
sa(dp609
Vname
p610
Vcp
p611
sVvalue
p612
g497
sa(dp613
Vname
p614
Vgs_id
p615
sVvalue
p616
g59
sa(dp617
Vname
p618
Vxhr
p619
sVvalue
p620
g52
sa(dp621
Vname
p622
Vq
p623
sVvalue
p624
VO
p625
sa(dp626
Vname
p627
Vtch
p628
sVvalue
p629
g59
sa(dp630
Vname
p631
Vech
p632
sVvalue
p633
g59
sa(dp634
Vname
p635
Vpsi
p636
sVvalue
p637
V9nbzWNSGK4GfjwSXpoiwAw.1492350712076.1
p638
sasVheaders
p639
(lp640
sVheadersSize
p641
I743
sVbodySize
p642
I0
sVmethod
p643
VGET
p644
sVhttpVersion
p645
VHTTP/1.1
p646
ssVtimings
p647
(dp648
Vcomment
p649
g4
sVreceive
p650
I0
sVsend
p651
I0
sVssl
p652
I-1
sVconnect
p653
I-1
sVdns
p654
I-1
sVwait
p655
I0
sVblocked
p656
I-1
ssVtime
p657
I0
sVresponse
p658
(dp659
Vstatus
p660
I0
sVcomment
p661
g4
sVcookies
p662
(lp663
sV_error
p664
VNo response received
p665
sVstatusText
p666
g4
sVcontent
p667
(dp668
VmimeType
p669
g4
sVcomment
p670
g4
sVsize
p671
I0
ssVheaders
p672
(lp673
sVheadersSize
p674
I-1
sVredirectURL
p675
g4
sVbodySize
p676
I-1
sVhttpVersion
p677
Vunknown
p678
ssa(dp679
Vcomment
p680
g4
sVserverIPAddress
p681
V74.125.70.99
p682
sVpageref
p683
VOrlando
p684
sVstartedDateTime
p685
V2017-04-16T08:51:52.489-05:00
p686
sVcache
p687
(dp688
sVrequest
p689
(dp690
Vcomment
p691
g4
sVcookies
p692
(lp693
sVurl
p694
Vhttps://www.google.com/search?site=&source=hp&ei=9nbzWNSGK4GfjwSXpoiwAw&q=Orlando&oq=Orlando&gs_l=mobile-gws-hp.3...242.265.0.299.7.1.0.0.0.0.0.0..0.0....0...1c.1.64.mobile-gws-hp..7.0.0.vSp_nzoj9co
p695
sVqueryString
p696
(lp697
(dp698
Vname
p699
Vsite
p700
sVvalue
p701
g4
sa(dp702
Vname
p703
Vsource
p704
sVvalue
p705
Vhp
p706
sa(dp707
Vname
p708
Vei
p709
sVvalue
p710
V9nbzWNSGK4GfjwSXpoiwAw
p711
sa(dp712
Vname
p713
g623
sVvalue
p714
VOrlando
p715
sa(dp716
Vname
p717
Voq
p718
sVvalue
p719
VOrlando
p720
sa(dp721
Vname
p722
Vgs_l
p723
sVvalue
p724
Vmobile-gws-hp.3...242.265.0.299.7.1.0.0.0.0.0.0..0.0....0...1c.1.64.mobile-gws-hp..7.0.0.vSp_nzoj9co
p725
sasVheaders
p726
(lp727
sVheadersSize
p728
I816
sVbodySize
p729
I0
sVmethod
p730
VGET
p731
sVhttpVersion
p732
VHTTP/1.1
p733
ssVtimings
p734
(dp735
Vcomment
p736
g4
sVreceive
p737
I1207
sVsend
p738
I0
sVssl
p739
I43
sVconnect
p740
I67
sVdns
p741
I0
sVwait
p742
I98
sVblocked
p743
I0
ssVtime
p744
I1374
sVresponse
p745
(dp746
Vstatus
p747
I200
sVcomment
p748
g4
sVcookies
p749
(lp750
sVstatusText
p751
VOK
p752
sVcontent
p753
(dp754
VmimeType
p755
Vtext/html; charset=UTF-8
p756
sVcomment
p757
g4
sVsize
p758
I0
ssVheaders
p759
(lp760
sVheadersSize
p761
I363
sVredirectURL
p762
g4
sVbodySize
p763
I143963
sVhttpVersion
p764
VHTTP/1.1
p765
ssa(dp766
Vcomment
p767
g4
sVserverIPAddress
p768
V74.125.70.99
p769
sVpageref
p770
VOrlando
p771
sVstartedDateTime
p772
V2017-04-16T08:51:54.698-05:00
p773
sVcache
p774
(dp775
sVrequest
p776
(dp777
Vcomment
p778
g4
sVcookies
p779
(lp780
sVurl
p781
Vhttps://www.google.com/maps/vt/data=RfCSdfNZ0LFPrHSm0ublXdzhdrDFhtmHhN1u-gM,yy0ltPwpHs24FUP_sOHU1vuAzACEoK_6HAvJHA_kI55RZiKD__fCEVb1zO7E-9gfM9V3xWJVEt_3Byfwd7Ofy9do5v6Wu2hZLd98MmlGbZVyrlQgF6UJohWIJuqALEexIIMlLYdKGmpfNS3h-NLhZRGh4vN1q_pMe_iN4XlmQzYr2Tnfvqekx3weD3wwbkHvKZa-rwYKeIpe?scale=2&h=104&w=1024
p782
sVqueryString
p783
(lp784
(dp785
Vname
p786
Vscale
p787
sVvalue
p788
g64
sa(dp789
Vname
p790
Vh
p791
sVvalue
p792
V104
p793
sa(dp794
Vname
p795
Vw
p796
sVvalue
p797
V1024
p798
sasVheaders
p799
(lp800
sVheadersSize
p801
I818
sVbodySize
p802
I0
sVmethod
p803
VGET
p804
sVhttpVersion
p805
VHTTP/1.1
p806
ssVtimings
p807
(dp808
Vcomment
p809
g4
sVreceive
p810
I5
sVsend
p811
I0
sVssl
p812
I-1
sVconnect
p813
I-1
sVdns
p814
I-1
sVwait
p815
I111
sVblocked
p816
I-1
ssVtime
p817
I116
sVresponse
p818
(dp819
Vstatus
p820
I200
sVcomment
p821
g4
sVcookies
p822
(lp823
sVstatusText
p824
VOK
p825
sVcontent
p826
(dp827
VmimeType
p828
Vimage/png
p829
sVcomment
p830
g4
sVsize
p831
I0
ssVheaders
p832
(lp833
sVheadersSize
p834
I479
sVredirectURL
p835
g4
sVbodySize
p836
I40556
sVhttpVersion
p837
VHTTP/1.1
p838
ssa(dp839
Vcomment
p840
g4
sVserverIPAddress
p841
V74.125.70.99
p842
sVpageref
p843
VOrlando
p844
sVstartedDateTime
p845
V2017-04-16T08:51:54.837-05:00
p846
sVcache
p847
(dp848
sVrequest
p849
(dp850
Vcomment
p851
g4
sVcookies
p852
(lp853
sVurl
p854
Vhttps://www.google.com/xjs/_/js/k=xjs.qs.en_US.pCBXVCvTH3s.O/m=syl,syj,syn,em3,em8,em6,em7,sym,aa,abd,sy2g,sy2k,sy29,sy2j,sy2d,sy2a,sy2c,sy2f,sy2l,sy2m,sy2n,emd,async,sybn,sybi,sybo,sy1f,sy45,sy46,sy9w,sybk,sybj,sybp,sy1g,sy30,sy47,sybm,sybl,sybq,sy1h,sybh,dvl,syep,foot,ipv6,sy32,emj,shm,sy5g,sy5i,sy5k,sykh,tl,sy2x,sy2y,sy2t,sy38,em12,vs,sy5j,sy5h,sy6u,sy66,sy67,sy7d,sy7j,sy4u,sy69,sy89,sy7e,sykk,sykl,tnv,bct,sy48,sy3a,sy3c,sy5b,sy4x,sy3x,sy31,sy1y,sy4z,sy56,syci,syea,sy3w,sy23,sy4h,sy65,sy9m,sy25,sy2u,sy4y,sy22,sy6i,sy5a,sydt,sye9,sygr,syha,sy76,syb0,sye4,sykt,sy9n,emb,em9,ema,sy24,sy34,sy3v,sy4i,sy5c,sy6j,sy6k,sy6h,syeb,sygu,syhb,syku,syky,dsti,sy6a,sy6b,kch,sy2z,sy2w,syka,trex,sy3d,sy3u,sy5m,sy6e,sy6f,sy6g,ofmc,sy6y,sycu,d3l,syf5,sy99,syf4,sy26,syfc,syfn,syf7,syff,sy1i,sy68,sy8d,sy9b,syf6,syfl,syfr,syfq,syfg,sy1j,sy4q,sy5o,sy5r,sy6n,sy6p,sy8h,syc7,syc8,syfb,syfj,syfs,syft,syg3,syg5,syg7,emn,emo,syg4,syg6,ivg,iuci,img,mexp,tbhm,syac,syl6,syl7,tbm,sy41,tcc,sy2i,sy2o,sy2p,akpc,sygq,kpc,sy4g,syhz,ssc,kpci,vrml,sy4v,sy5d,sya3,sy40,syec,sy51,sy5e,sya2,sye2,sy4t,sy4w,sy52,sy91,sy9l,sya4,sye6,sygv,sy5f,sy3b,sy53,sy6d,sygs,sygw,sygt,kpor,kpcb,sy5x,sy5y,qaim,qif,sy72,sykr,strm,syj7,syj8,syj2,syjc,syj6,syj3,syjg,syjh,syje,syjd,syjk,syji,syjf,syj0,emr,ems,emt,emu,emv,emx,emy,emz,em10,em11,udlg,sy5z,atn,sya1,ampfp/am=gCP4LtMEBXQA2RUaq_oFBISzAFA/rt=j/d=0/t=zcms/rs=ACT90oFwm4NZCwIcuuiqmthdlECdBzkhRA
p855
sVqueryString
p856
(lp857
sVheaders
p858
(lp859
sVheadersSize
p860
I1927
sVbodySize
p861
I0
sVmethod
p862
VGET
p863
sVhttpVersion
p864
VHTTP/1.1
p865
ssVtimings
p866
(dp867
Vcomment
p868
g4
sVreceive
p869
I179
sVsend
p870
I0
sVssl
p871
I62
sVconnect
p872
I105
sVdns
p873
I0
sVwait
p874
I27
sVblocked
p875
I0
ssVtime
p876
I312
sVresponse
p877
(dp878
Vstatus
p879
I200
sVcomment
p880
g4
sVcookies
p881
(lp882
sVstatusText
p883
VOK
p884
sVcontent
p885
(dp886
VmimeType
p887
Vtext/javascript; charset=UTF-8
p888
sVcomment
p889
g4
sVsize
p890
I0
ssVheaders
p891
(lp892
sVheadersSize
p893
I464
sVredirectURL
p894
g4
sVbodySize
p895
I306284
sVhttpVersion
p896
VHTTP/1.1
p897
ssa(dp898
Vcomment
p899
g4
sVserverIPAddress
p900
V74.125.70.99
p901
sVpageref
p902
VOrlando
p903
sVstartedDateTime
p904
V2017-04-16T08:51:54.933-05:00
p905
sVcache
p906
(dp907
sVrequest
p908
(dp909
Vcomment
p910
g4
sVcookies
p911
(lp912
sVurl
p913
Vhttps://www.google.com/gen_204?s=lu&atyp=csi&ei=93bzWNvTHKXHjwTz656QAQ&ima=11&rt=lmap.2303,aft.2302,wsrt.2274,cst.0,dnst.0,rqst.1322,rspt.1323,rqstt.74,unt.4,cstt.4,dit.1653
p914
sVqueryString
p915
(lp916
(dp917
Vname
p918
g57
sVvalue
p919
Vlu
p920
sa(dp921
Vname
p922
Vatyp
p923
sVvalue
p924
Vcsi
p925
sa(dp926
Vname
p927
Vei
p928
sVvalue
p929
V93bzWNvTHKXHjwTz656QAQ
p930
sa(dp931
Vname
p932
Vima
p933
sVvalue
p934
V11
p935
sa(dp936
Vname
p937
Vrt
p938
sVvalue
p939
Vlmap.2303,aft.2302,wsrt.2274,cst.0,dnst.0,rqst.1322,rspt.1323,rqstt.74,unt.4,cstt.4,dit.1653
p940
sasVheaders
p941
(lp942
sVheadersSize
p943
I690
sVbodySize
p944
I0
sVmethod
p945
VGET
p946
sVhttpVersion
p947
VHTTP/1.1
p948
ssVtimings
p949
(dp950
Vcomment
p951
g4
sVreceive
p952
I0
sVsend
p953
I0
sVssl
p954
I-1
sVconnect
p955
I-1
sVdns
p956
I-1
sVwait
p957
I65
sVblocked
p958
I-1
ssVtime
p959
I65
sVresponse
p960
(dp961
Vstatus
p962
I204
sVcomment
p963
g4
sVcookies
p964
(lp965
sVstatusText
p966
VNo Content
p967
sVcontent
p968
(dp969
VmimeType
p970
Vtext/html; charset=UTF-8
p971
sVcomment
p972
g4
sVsize
p973
I0
ssVheaders
p974
(lp975
sVheadersSize
p976
I248
sVredirectURL
p977
g4
sVbodySize
p978
I0
sVhttpVersion
p979
VHTTP/1.1
p980
ssa(dp981
Vcomment
p982
g4
sVserverIPAddress
p983
V74.125.70.99
p984
sVpageref
p985
VOrlando
p986
sVstartedDateTime
p987
V2017-04-16T08:51:55.606-05:00
p988
sVcache
p989
(dp990
sVrequest
p991
(dp992
Vcomment
p993
g4
sVcookies
p994
(lp995
sVurl
p996
Vhttps://www.google.com/async/irc?vet=10ahUKEwibq6bQj6nTAhWl44MKHfO1BxIQo0EItgI..i&ved=0ahUKEwibq6bQj6nTAhWl44MKHfO1BxIQo0EItgI&ei=93bzWNvTHKXHjwTz656QAQ&yv=2&async=iu:1,ved:0ahUKEwibq6bQj6nTAhWl44MKHfO1BxIQo0EItgI,_id:irc_async,_pms:qs
p997
sVqueryString
p998
(lp999
(dp1000
Vname
p1001
Vvet
p1002
sVvalue
p1003
V10ahUKEwibq6bQj6nTAhWl44MKHfO1BxIQo0EItgI..i
p1004
sa(dp1005
Vname
p1006
Vved
p1007
sVvalue
p1008
V0ahUKEwibq6bQj6nTAhWl44MKHfO1BxIQo0EItgI
p1009
sa(dp1010
Vname
p1011
Vei
p1012
sVvalue
p1013
V93bzWNvTHKXHjwTz656QAQ
p1014
sa(dp1015
Vname
p1016
Vyv
p1017
sVvalue
p1018
g64
sa(dp1019
Vname
p1020
Vasync
p1021
sVvalue
p1022
Viu:1,ved:0ahUKEwibq6bQj6nTAhWl44MKHfO1BxIQo0EItgI,_id:irc_async,_pms:qs
p1023
sasVheaders
p1024
(lp1025
sVheadersSize
p1026
I752
sVbodySize
p1027
I0
sVmethod
p1028
VGET
p1029
sVhttpVersion
p1030
VHTTP/1.1
p1031
ssVtimings
p1032
(dp1033
Vcomment
p1034
g4
sVreceive
p1035
I0
sVsend
p1036
I0
sVssl
p1037
I-1
sVconnect
p1038
I-1
sVdns
p1039
I-1
sVwait
p1040
I204
sVblocked
p1041
I-1
ssVtime
p1042
I205
sVresponse
p1043
(dp1044
Vstatus
p1045
I200
sVcomment
p1046
g4
sVcookies
p1047
(lp1048
sVstatusText
p1049
VOK
p1050
sVcontent
p1051
(dp1052
VmimeType
p1053
Vtext/html; charset=UTF-8
p1054
sVcomment
p1055
g4
sVsize
p1056
I0
ssVheaders
p1057
(lp1058
sVheadersSize
p1059
I383
sVredirectURL
p1060
g4
sVbodySize
p1061
I7786
sVhttpVersion
p1062
VHTTP/1.1
p1063
ssa(dp1064
Vcomment
p1065
g4
sVserverIPAddress
p1066
V74.125.70.99
p1067
sVpageref
p1068
VOrlando
p1069
sVstartedDateTime
p1070
V2017-04-16T08:51:55.665-05:00
p1071
sVcache
p1072
(dp1073
sVrequest
p1074
(dp1075
Vcomment
p1076
g4
sVcookies
p1077
(lp1078
sVurl
p1079
Vhttps://www.google.com/gen_204?atyp=i&ct=&cad=&uact=1&vet=10ahUKEwibq6bQj6nTAhWl44MKHfO1BxIQ9V8INCgA..s&ei=93bzWNvTHKXHjwTz656QAQ&zx=1492350715661
p1080
sVqueryString
p1081
(lp1082
(dp1083
Vname
p1084
Vatyp
p1085
sVvalue
p1086
g30
sa(dp1087
Vname
p1088
Vct
p1089
sVvalue
p1090
g4
sa(dp1091
Vname
p1092
Vcad
p1093
sVvalue
p1094
g4
sa(dp1095
Vname
p1096
Vuact
p1097
sVvalue
p1098
g59
sa(dp1099
Vname
p1100
Vvet
p1101
sVvalue
p1102
V10ahUKEwibq6bQj6nTAhWl44MKHfO1BxIQ9V8INCgA..s
p1103
sa(dp1104
Vname
p1105
Vei
p1106
sVvalue
p1107
V93bzWNvTHKXHjwTz656QAQ
p1108
sa(dp1109
Vname
p1110
Vzx
p1111
sVvalue
p1112
V1492350715661
p1113
sasVheaders
p1114
(lp1115
sVheadersSize
p1116
I663
sVbodySize
p1117
I0
sVmethod
p1118
VGET
p1119
sVhttpVersion
p1120
VHTTP/1.1
p1121
ssVtimings
p1122
(dp1123
Vcomment
p1124
g4
sVreceive
p1125
I0
sVsend
p1126
I0
sVssl
p1127
I-1
sVconnect
p1128
I-1
sVdns
p1129
I-1
sVwait
p1130
I26
sVblocked
p1131
I-1
ssVtime
p1132
I26
sVresponse
p1133
(dp1134
Vstatus
p1135
I204
sVcomment
p1136
g4
sVcookies
p1137
(lp1138
sVstatusText
p1139
VNo Content
p1140
sVcontent
p1141
(dp1142
VmimeType
p1143
Vtext/html; charset=UTF-8
p1144
sVcomment
p1145
g4
sVsize
p1146
I0
ssVheaders
p1147
(lp1148
sVheadersSize
p1149
I248
sVredirectURL
p1150
g4
sVbodySize
p1151
I0
sVhttpVersion
p1152
VHTTP/1.1
p1153
ssa(dp1154
Vcomment
p1155
g4
sVserverIPAddress
p1156
V172.217.0.1
p1157
sVpageref
p1158
VOrlando
p1159
sVstartedDateTime
p1160
V2017-04-16T08:51:55.707-05:00
p1161
sVcache
p1162
(dp1163
sVrequest
p1164
(dp1165
Vcomment
p1166
g4
sVcookies
p1167
(lp1168
sVurl
p1169
Vhttps://lh4.googleusercontent.com/-iLZ49DnL4Ds/WBd9zv0XbEI/AAAAAAAAAk0/0MC0LQOplnk1c5S09L18JuKFN8DDOaueQCJkC/w115-h115-k-no/
p1170
sVqueryString
p1171
(lp1172
sVheaders
p1173
(lp1174
sVheadersSize
p1175
I439
sVbodySize
p1176
I0
sVmethod
p1177
VGET
p1178
sVhttpVersion
p1179
VHTTP/1.1
p1180
ssVtimings
p1181
(dp1182
Vcomment
p1183
g4
sVreceive
p1184
I1
sVsend
p1185
I0
sVssl
p1186
I-1
sVconnect
p1187
I-1
sVdns
p1188
I-1
sVwait
p1189
I17
sVblocked
p1190
I-1
ssVtime
p1191
I19
sVresponse
p1192
(dp1193
Vstatus
p1194
I200
sVcomment
p1195
g4
sVcookies
p1196
(lp1197
sVstatusText
p1198
VOK
p1199
sVcontent
p1200
(dp1201
VmimeType
p1202
Vimage/jpeg
p1203
sVcomment
p1204
g4
sVsize
p1205
I0
ssVheaders
p1206
(lp1207
sVheadersSize
p1208
I485
sVredirectURL
p1209
g4
sVbodySize
p1210
I8374
sVhttpVersion
p1211
VHTTP/1.1
p1212
ssa(dp1213
Vcomment
p1214
g4
sVserverIPAddress
p1215
V74.125.70.99
p1216
sVpageref
p1217
VOrlando
p1218
sVstartedDateTime
p1219
V2017-04-16T08:51:55.711-05:00
p1220
sVcache
p1221
(dp1222
sVrequest
p1223
(dp1224
Vcomment
p1225
g4
sVcookies
p1226
(lp1227
sVurl
p1228
Vhttps://www.google.com/gen_204?atyp=i&ct=&cad=&vet=10ahUKEwibq6bQj6nTAhWl44MKHfO1BxIQtxAIaCgDMA0..s&ei=93bzWNvTHKXHjwTz656QAQ&zx=1492350715708
p1229
sVqueryString
p1230
(lp1231
(dp1232
Vname
p1233
Vatyp
p1234
sVvalue
p1235
g30
sa(dp1236
Vname
p1237
Vct
p1238
sVvalue
p1239
g4
sa(dp1240
Vname
p1241
Vcad
p1242
sVvalue
p1243
g4
sa(dp1244
Vname
p1245
Vvet
p1246
sVvalue
p1247
V10ahUKEwibq6bQj6nTAhWl44MKHfO1BxIQtxAIaCgDMA0..s
p1248
sa(dp1249
Vname
p1250
Vei
p1251
sVvalue
p1252
V93bzWNvTHKXHjwTz656QAQ
p1253
sa(dp1254
Vname
p1255
Vzx
p1256
sVvalue
p1257
V1492350715708
p1258
sasVheaders
p1259
(lp1260
sVheadersSize
p1261
I659
sVbodySize
p1262
I0
sVmethod
p1263
VGET
p1264
sVhttpVersion
p1265
VHTTP/1.1
p1266
ssVtimings
p1267
(dp1268
Vcomment
p1269
g4
sVreceive
p1270
I0
sVsend
p1271
I0
sVssl
p1272
I-1
sVconnect
p1273
I-1
sVdns
p1274
I-1
sVwait
p1275
I24
sVblocked
p1276
I-1
ssVtime
p1277
I25
sVresponse
p1278
(dp1279
Vstatus
p1280
I204
sVcomment
p1281
g4
sVcookies
p1282
(lp1283
sVstatusText
p1284
VNo Content
p1285
sVcontent
p1286
(dp1287
VmimeType
p1288
Vtext/html; charset=UTF-8
p1289
sVcomment
p1290
g4
sVsize
p1291
I0
ssVheaders
p1292
(lp1293
sVheadersSize
p1294
I248
sVredirectURL
p1295
g4
sVbodySize
p1296
I0
sVhttpVersion
p1297
VHTTP/1.1
p1298
ssa(dp1299
Vcomment
p1300
g4
sVserverIPAddress
p1301
V216.58.216.206
p1302
sVpageref
p1303
VOrlando
p1304
sVstartedDateTime
p1305
V2017-04-16T08:51:55.732-05:00
p1306
sVcache
p1307
(dp1308
sVrequest
p1309
(dp1310
Vcomment
p1311
g4
sVcookies
p1312
(lp1313
sVurl
p1314
Vhttps://encrypted-tbn0.gstatic.com/images?q=tbn:ANd9GcQf5OJnFcH0tTg9BCyWpFXf5Xzf4eO6adAvFJk906lOsUBhR9pbZtEOVH_N2N-tZHZY
p1315
sVqueryString
p1316
(lp1317
(dp1318
Vname
p1319
g623
sVvalue
p1320
Vtbn:ANd9GcQf5OJnFcH0tTg9BCyWpFXf5Xzf4eO6adAvFJk906lOsUBhR9pbZtEOVH_N2N-tZHZY
p1321
sasVheaders
p1322
(lp1323
sVheadersSize
p1324
I435
sVbodySize
p1325
I0
sVmethod
p1326
VGET
p1327
sVhttpVersion
p1328
VHTTP/1.1
p1329
ssVtimings
p1330
(dp1331
Vcomment
p1332
g4
sVreceive
p1333
I0
sVsend
p1334
I0
sVssl
p1335
I-1
sVconnect
p1336
I-1
sVdns
p1337
I-1
sVwait
p1338
I20
sVblocked
p1339
I-1
ssVtime
p1340
I21
sVresponse
p1341
(dp1342
Vstatus
p1343
I200
sVcomment
p1344
g4
sVcookies
p1345
(lp1346
sVstatusText
p1347
VOK
p1348
sVcontent
p1349
(dp1350
VmimeType
p1351
Vimage/png
p1352
sVcomment
p1353
g4
sVsize
p1354
I0
ssVheaders
p1355
(lp1356
sVheadersSize
p1357
I406
sVredirectURL
p1358
g4
sVbodySize
p1359
I1139
sVhttpVersion
p1360
VHTTP/1.1
p1361
ssa(dp1362
Vcomment
p1363
g4
sVserverIPAddress
p1364
V74.125.70.99
p1365
sVpageref
p1366
VOrlando
p1367
sVstartedDateTime
p1368
V2017-04-16T08:51:55.733-05:00
p1369
sVcache
p1370
(dp1371
sVrequest
p1372
(dp1373
Vcomment
p1374
g4
sVcookies
p1375
(lp1376
sVurl
p1377
Vhttps://www.google.com/gen_204?atyp=i&ct=&cad=&uact=1&vet=10ahUKEwibq6bQj6nTAhWl44MKHfO1BxIQ9V8INSgB..s&ei=93bzWNvTHKXHjwTz656QAQ&zx=1492350715664
p1378
sVqueryString
p1379
(lp1380
(dp1381
Vname
p1382
Vatyp
p1383
sVvalue
p1384
g30
sa(dp1385
Vname
p1386
Vct
p1387
sVvalue
p1388
g4
sa(dp1389
Vname
p1390
Vcad
p1391
sVvalue
p1392
g4
sa(dp1393
Vname
p1394
Vuact
p1395
sVvalue
p1396
g59
sa(dp1397
Vname
p1398
Vvet
p1399
sVvalue
p1400
V10ahUKEwibq6bQj6nTAhWl44MKHfO1BxIQ9V8INSgB..s
p1401
sa(dp1402
Vname
p1403
Vei
p1404
sVvalue
p1405
V93bzWNvTHKXHjwTz656QAQ
p1406
sa(dp1407
Vname
p1408
Vzx
p1409
sVvalue
p1410
V1492350715664
p1411
sasVheaders
p1412
(lp1413
sVheadersSize
p1414
I663
sVbodySize
p1415
I0
sVmethod
p1416
VGET
p1417
sVhttpVersion
p1418
VHTTP/1.1
p1419
ssVtimings
p1420
(dp1421
Vcomment
p1422
g4
sVreceive
p1423
I0
sVsend
p1424
I0
sVssl
p1425
I37
sVconnect
p1426
I63
sVdns
p1427
I0
sVwait
p1428
I27
sVblocked
p1429
I0
ssVtime
p1430
I91
sVresponse
p1431
(dp1432
Vstatus
p1433
I204
sVcomment
p1434
g4
sVcookies
p1435
(lp1436
sVstatusText
p1437
VNo Content
p1438
sVcontent
p1439
(dp1440
VmimeType
p1441
Vtext/html; charset=UTF-8
p1442
sVcomment
p1443
g4
sVsize
p1444
I0
ssVheaders
p1445
(lp1446
sVheadersSize
p1447
I248
sVredirectURL
p1448
g4
sVbodySize
p1449
I0
sVhttpVersion
p1450
VHTTP/1.1
p1451
ssa(dp1452
Vcomment
p1453
g4
sVserverIPAddress
p1454
V216.58.216.206
p1455
sVpageref
p1456
VOrlando
p1457
sVstartedDateTime
p1458
V2017-04-16T08:51:55.738-05:00
p1459
sVcache
p1460
(dp1461
sVrequest
p1462
(dp1463
Vcomment
p1464
g4
sVcookies
p1465
(lp1466
sVurl
p1467
Vhttps://encrypted-tbn1.gstatic.com/images?q=tbn:ANd9GcTDE6BN7APvPX5ESvVFQocGq7UvcRHV685mtugVQUhXPoQZ2kJhimMzX1fhGgfkXDvdraU
p1468
sVqueryString
p1469
(lp1470
(dp1471
Vname
p1472
g623
sVvalue
p1473
Vtbn:ANd9GcTDE6BN7APvPX5ESvVFQocGq7UvcRHV685mtugVQUhXPoQZ2kJhimMzX1fhGgfkXDvdraU
p1474
sasVheaders
p1475
(lp1476
sVheadersSize
p1477
I438
sVbodySize
p1478
I0
sVmethod
p1479
VGET
p1480
sVhttpVersion
p1481
VHTTP/1.1
p1482
ssVtimings
p1483
(dp1484
Vcomment
p1485
g4
sVreceive
p1486
I0
sVsend
p1487
I0
sVssl
p1488
I-1
sVconnect
p1489
I-1
sVdns
p1490
I-1
sVwait
p1491
I21
sVblocked
p1492
I-1
ssVtime
p1493
I22
sVresponse
p1494
(dp1495
Vstatus
p1496
I200
sVcomment
p1497
g4
sVcookies
p1498
(lp1499
sVstatusText
p1500
VOK
p1501
sVcontent
p1502
(dp1503
VmimeType
p1504
Vimage/jpeg
p1505
sVcomment
p1506
g4
sVsize
p1507
I0
ssVheaders
p1508
(lp1509
sVheadersSize
p1510
I429
sVredirectURL
p1511
g4
sVbodySize
p1512
I3928
sVhttpVersion
p1513
VHTTP/1.1
p1514
ssa(dp1515
Vcomment
p1516
g4
sVserverIPAddress
p1517
V74.125.70.99
p1518
sVpageref
p1519
VOrlando
p1520
sVstartedDateTime
p1521
V2017-04-16T08:51:55.739-05:00
p1522
sVcache
p1523
(dp1524
sVrequest
p1525
(dp1526
Vcomment
p1527
g4
sVcookies
p1528
(lp1529
sVurl
p1530
Vhttps://www.google.com/gen_204?atyp=i&ct=&cad=&vet=10ahUKEwibq6bQj6nTAhWl44MKHfO1BxIQtxAIcCgHMA0..s&ei=93bzWNvTHKXHjwTz656QAQ&zx=1492350715736
p1531
sVqueryString
p1532
(lp1533
(dp1534
Vname
p1535
Vatyp
p1536
sVvalue
p1537
g30
sa(dp1538
Vname
p1539
Vct
p1540
sVvalue
p1541
g4
sa(dp1542
Vname
p1543
Vcad
p1544
sVvalue
p1545
g4
sa(dp1546
Vname
p1547
Vvet
p1548
sVvalue
p1549
V10ahUKEwibq6bQj6nTAhWl44MKHfO1BxIQtxAIcCgHMA0..s
p1550
sa(dp1551
Vname
p1552
Vei
p1553
sVvalue
p1554
V93bzWNvTHKXHjwTz656QAQ
p1555
sa(dp1556
Vname
p1557
Vzx
p1558
sVvalue
p1559
V1492350715736
p1560
sasVheaders
p1561
(lp1562
sVheadersSize
p1563
I659
sVbodySize
p1564
I0
sVmethod
p1565
VGET
p1566
sVhttpVersion
p1567
VHTTP/1.1
p1568
ssVtimings
p1569
(dp1570
Vcomment
p1571
g4
sVreceive
p1572
I0
sVsend
p1573
I0
sVssl
p1574
I-1
sVconnect
p1575
I-1
sVdns
p1576
I-1
sVwait
p1577
I29
sVblocked
p1578
I-1
ssVtime
p1579
I30
sVresponse
p1580
(dp1581
Vstatus
p1582
I204
sVcomment
p1583
g4
sVcookies
p1584
(lp1585
sVstatusText
p1586
VNo Content
p1587
sVcontent
p1588
(dp1589
VmimeType
p1590
Vtext/html; charset=UTF-8
p1591
sVcomment
p1592
g4
sVsize
p1593
I0
ssVheaders
p1594
(lp1595
sVheadersSize
p1596
I248
sVredirectURL
p1597
g4
sVbodySize
p1598
I0
sVhttpVersion
p1599
VHTTP/1.1
p1600
ssa(dp1601
Vcomment
p1602
g4
sVserverIPAddress
p1603
V74.125.70.99
p1604
sVpageref
p1605
VOrlando
p1606
sVstartedDateTime
p1607
V2017-04-16T08:51:55.766-05:00
p1608
sVcache
p1609
(dp1610
sVrequest
p1611
(dp1612
Vcomment
p1613
g4
sVcookies
p1614
(lp1615
sVurl
p1616
Vhttps://www.google.com/gen_204?atyp=i&ct=&cad=&vet=10ahUKEwibq6bQj6nTAhWl44MKHfO1BxIQlpQBCHIoCDAN..s&ei=93bzWNvTHKXHjwTz656QAQ&zx=1492350715742
p1617
sVqueryString
p1618
(lp1619
(dp1620
Vname
p1621
Vatyp
p1622
sVvalue
p1623
g30
sa(dp1624
Vname
p1625
Vct
p1626
sVvalue
p1627
g4
sa(dp1628
Vname
p1629
Vcad
p1630
sVvalue
p1631
g4
sa(dp1632
Vname
p1633
Vvet
p1634
sVvalue
p1635
V10ahUKEwibq6bQj6nTAhWl44MKHfO1BxIQlpQBCHIoCDAN..s
p1636
sa(dp1637
Vname
p1638
Vei
p1639
sVvalue
p1640
V93bzWNvTHKXHjwTz656QAQ
p1641
sa(dp1642
Vname
p1643
Vzx
p1644
sVvalue
p1645
V1492350715742
p1646
sasVheaders
p1647
(lp1648
sVheadersSize
p1649
I660
sVbodySize
p1650
I0
sVmethod
p1651
VGET
p1652
sVhttpVersion
p1653
VHTTP/1.1
p1654
ssVtimings
p1655
(dp1656
Vcomment
p1657
g4
sVreceive
p1658
I0
sVsend
p1659
I0
sVssl
p1660
I-1
sVconnect
p1661
I-1
sVdns
p1662
I-1
sVwait
p1663
I38
sVblocked
p1664
I-1
ssVtime
p1665
I38
sVresponse
p1666
(dp1667
Vstatus
p1668
I204
sVcomment
p1669
g4
sVcookies
p1670
(lp1671
sVstatusText
p1672
VNo Content
p1673
sVcontent
p1674
(dp1675
VmimeType
p1676
Vtext/html; charset=UTF-8
p1677
sVcomment
p1678
g4
sVsize
p1679
I0
ssVheaders
p1680
(lp1681
sVheadersSize
p1682
I248
sVredirectURL
p1683
g4
sVbodySize
p1684
I0
sVhttpVersion
p1685
VHTTP/1.1
p1686
ssa(dp1687
Vcomment
p1688
g4
sVserverIPAddress
p1689
V74.125.70.99
p1690
sVpageref
p1691
VOrlando
p1692
sVstartedDateTime
p1693
V2017-04-16T08:51:55.806-05:00
p1694
sVcache
p1695
(dp1696
sVrequest
p1697
(dp1698
Vcomment
p1699
g4
sVcookies
p1700
(lp1701
sVurl
p1702
Vhttps://www.google.com/gen_204?atyp=i&ct=&cad=&vet=10ahUKEwibq6bQj6nTAhWl44MKHfO1BxIQtxAIaigEMA0..s&ei=93bzWNvTHKXHjwTz656QAQ&zx=1492350715717
p1703
sVqueryString
p1704
(lp1705
(dp1706
Vname
p1707
Vatyp
p1708
sVvalue
p1709
g30
sa(dp1710
Vname
p1711
Vct
p1712
sVvalue
p1713
g4
sa(dp1714
Vname
p1715
Vcad
p1716
sVvalue
p1717
g4
sa(dp1718
Vname
p1719
Vvet
p1720
sVvalue
p1721
V10ahUKEwibq6bQj6nTAhWl44MKHfO1BxIQtxAIaigEMA0..s
p1722
sa(dp1723
Vname
p1724
Vei
p1725
sVvalue
p1726
V93bzWNvTHKXHjwTz656QAQ
p1727
sa(dp1728
Vname
p1729
Vzx
p1730
sVvalue
p1731
V1492350715717
p1732
sasVheaders
p1733
(lp1734
sVheadersSize
p1735
I659
sVbodySize
p1736
I0
sVmethod
p1737
VGET
p1738
sVhttpVersion
p1739
VHTTP/1.1
p1740
ssVtimings
p1741
(dp1742
Vcomment
p1743
g4
sVreceive
p1744
I0
sVsend
p1745
I0
sVssl
p1746
I42
sVconnect
p1747
I71
sVdns
p1748
I0
sVwait
p1749
I29
sVblocked
p1750
I0
ssVtime
p1751
I100
sVresponse
p1752
(dp1753
Vstatus
p1754
I204
sVcomment
p1755
g4
sVcookies
p1756
(lp1757
sVstatusText
p1758
VNo Content
p1759
sVcontent
p1760
(dp1761
VmimeType
p1762
Vtext/html; charset=UTF-8
p1763
sVcomment
p1764
g4
sVsize
p1765
I0
ssVheaders
p1766
(lp1767
sVheadersSize
p1768
I248
sVredirectURL
p1769
g4
sVbodySize
p1770
I0
sVhttpVersion
p1771
VHTTP/1.1
p1772
ssa(dp1773
Vcomment
p1774
g4
sVserverIPAddress
p1775
V74.125.70.99
p1776
sVpageref
p1777
VOrlando
p1778
sVstartedDateTime
p1779
V2017-04-16T08:51:55.815-05:00
p1780
sVcache
p1781
(dp1782
sVrequest
p1783
(dp1784
Vcomment
p1785
g4
sVcookies
p1786
(lp1787
sVurl
p1788
Vhttps://www.google.com/gen_204?atyp=i&ct=&cad=&vet=10ahUKEwibq6bQj6nTAhWl44MKHfO1BxIQtxAIbigGMA0..s&ei=93bzWNvTHKXHjwTz656QAQ&zx=1492350715731
p1789
sVqueryString
p1790
(lp1791
(dp1792
Vname
p1793
Vatyp
p1794
sVvalue
p1795
g30
sa(dp1796
Vname
p1797
Vct
p1798
sVvalue
p1799
g4
sa(dp1800
Vname
p1801
Vcad
p1802
sVvalue
p1803
g4
sa(dp1804
Vname
p1805
Vvet
p1806
sVvalue
p1807
V10ahUKEwibq6bQj6nTAhWl44MKHfO1BxIQtxAIbigGMA0..s
p1808
sa(dp1809
Vname
p1810
Vei
p1811
sVvalue
p1812
V93bzWNvTHKXHjwTz656QAQ
p1813
sa(dp1814
Vname
p1815
Vzx
p1816
sVvalue
p1817
V1492350715731
p1818
sasVheaders
p1819
(lp1820
sVheadersSize
p1821
I659
sVbodySize
p1822
I0
sVmethod
p1823
VGET
p1824
sVhttpVersion
p1825
VHTTP/1.1
p1826
ssVtimings
p1827
(dp1828
Vcomment
p1829
g4
sVreceive
p1830
I0
sVsend
p1831
I0
sVssl
p1832
I46
sVconnect
p1833
I77
sVdns
p1834
I0
sVwait
p1835
I29
sVblocked
p1836
I0
ssVtime
p1837
I107
sVresponse
p1838
(dp1839
Vstatus
p1840
I204
sVcomment
p1841
g4
sVcookies
p1842
(lp1843
sVstatusText
p1844
VNo Content
p1845
sVcontent
p1846
(dp1847
VmimeType
p1848
Vtext/html; charset=UTF-8
p1849
sVcomment
p1850
g4
sVsize
p1851
I0
ssVheaders
p1852
(lp1853
sVheadersSize
p1854
I248
sVredirectURL
p1855
g4
sVbodySize
p1856
I0
sVhttpVersion
p1857
VHTTP/1.1
p1858
ssa(dp1859
Vcomment
p1860
g4
sVserverIPAddress
p1861
V74.125.70.99
p1862
sVpageref
p1863
VOrlando
p1864
sVstartedDateTime
p1865
V2017-04-16T08:51:55.815-05:00
p1866
sVcache
p1867
(dp1868
sVrequest
p1869
(dp1870
Vcomment
p1871
g4
sVcookies
p1872
(lp1873
sVurl
p1874
Vhttps://www.google.com/gen_204?atyp=i&ct=&cad=&vet=10ahUKEwibq6bQj6nTAhWl44MKHfO1BxIQtxAIbCgFMA0..s&ei=93bzWNvTHKXHjwTz656QAQ&zx=1492350715722
p1875
sVqueryString
p1876
(lp1877
(dp1878
Vname
p1879
Vatyp
p1880
sVvalue
p1881
g30
sa(dp1882
Vname
p1883
Vct
p1884
sVvalue
p1885
g4
sa(dp1886
Vname
p1887
Vcad
p1888
sVvalue
p1889
g4
sa(dp1890
Vname
p1891
Vvet
p1892
sVvalue
p1893
V10ahUKEwibq6bQj6nTAhWl44MKHfO1BxIQtxAIbCgFMA0..s
p1894
sa(dp1895
Vname
p1896
Vei
p1897
sVvalue
p1898
V93bzWNvTHKXHjwTz656QAQ
p1899
sa(dp1900
Vname
p1901
Vzx
p1902
sVvalue
p1903
V1492350715722
p1904
sasVheaders
p1905
(lp1906
sVheadersSize
p1907
I659
sVbodySize
p1908
I0
sVmethod
p1909
VGET
p1910
sVhttpVersion
p1911
VHTTP/1.1
p1912
ssVtimings
p1913
(dp1914
Vcomment
p1915
g4
sVreceive
p1916
I0
sVsend
p1917
I0
sVssl
p1918
I45
sVconnect
p1919
I78
sVdns
p1920
I0
sVwait
p1921
I30
sVblocked
p1922
I0
ssVtime
p1923
I108
sVresponse
p1924
(dp1925
Vstatus
p1926
I204
sVcomment
p1927
g4
sVcookies
p1928
(lp1929
sVstatusText
p1930
VNo Content
p1931
sVcontent
p1932
(dp1933
VmimeType
p1934
Vtext/html; charset=UTF-8
p1935
sVcomment
p1936
g4
sVsize
p1937
I0
ssVheaders
p1938
(lp1939
sVheadersSize
p1940
I248
sVredirectURL
p1941
g4
sVbodySize
p1942
I0
sVhttpVersion
p1943
VHTTP/1.1
p1944
ssa(dp1945
Vcomment
p1946
g4
sVserverIPAddress
p1947
V74.125.70.99
p1948
sVpageref
p1949
VOrlando
p1950
sVstartedDateTime
p1951
V2017-04-16T08:51:55.962-05:00
p1952
sVcache
p1953
(dp1954
sVrequest
p1955
(dp1956
Vcomment
p1957
g4
sVcookies
p1958
(lp1959
sVurl
p1960
Vhttps://www.google.com/async/ampfp?vet=10ahUKEwibq6bQj6nTAhWl44MKHfO1BxIQtZoBCLQC..i&ei=93bzWNvTHKXHjwTz656QAQ&yv=2&async=_id:ampfp-async,_pms:qs
p1961
sVqueryString
p1962
(lp1963
(dp1964
Vname
p1965
Vvet
p1966
sVvalue
p1967
V10ahUKEwibq6bQj6nTAhWl44MKHfO1BxIQtZoBCLQC..i
p1968
sa(dp1969
Vname
p1970
Vei
p1971
sVvalue
p1972
V93bzWNvTHKXHjwTz656QAQ
p1973
sa(dp1974
Vname
p1975
Vyv
p1976
sVvalue
p1977
g64
sa(dp1978
Vname
p1979
Vasync
p1980
sVvalue
p1981
V_id:ampfp-async,_pms:qs
p1982
sasVheaders
p1983
(lp1984
sVheadersSize
p1985
I662
sVbodySize
p1986
I0
sVmethod
p1987
VGET
p1988
sVhttpVersion
p1989
VHTTP/1.1
p1990
ssVtimings
p1991
(dp1992
Vcomment
p1993
g4
sVreceive
p1994
I0
sVsend
p1995
I0
sVssl
p1996
I-1
sVconnect
p1997
I-1
sVdns
p1998
I-1
sVwait
p1999
I40
sVblocked
p2000
I-1
ssVtime
p2001
I40
sVresponse
p2002
(dp2003
Vstatus
p2004
I200
sVcomment
p2005
g4
sVcookies
p2006
(lp2007
sVstatusText
p2008
VOK
p2009
sVcontent
p2010
(dp2011
VmimeType
p2012
Vtext/html; charset=UTF-8
p2013
sVcomment
p2014
g4
sVsize
p2015
I0
ssVheaders
p2016
(lp2017
sVheadersSize
p2018
I383
sVredirectURL
p2019
g4
sVbodySize
p2020
I4526
sVhttpVersion
p2021
VHTTP/1.1
p2022
ssa(dp2023
Vcomment
p2024
g4
sVserverIPAddress
p2025
V216.58.216.193
p2026
sVpageref
p2027
VOrlando
p2028
sVstartedDateTime
p2029
V2017-04-16T08:51:55.962-05:00
p2030
sVcache
p2031
(dp2032
sVrequest
p2033
(dp2034
Vcomment
p2035
g4
sVcookies
p2036
(lp2037
sVurl
p2038
Vhttps://cdn.ampproject.org/preconnect.gif?0.9124256677701252
p2039
sVqueryString
p2040
(lp2041
(dp2042
Vname
p2043
V0.9124256677701252
p2044
sVvalue
p2045
g4
sasVheaders
p2046
(lp2047
sVheadersSize
p2048
I375
sVbodySize
p2049
I0
sVmethod
p2050
VGET
p2051
sVhttpVersion
p2052
VHTTP/1.1
p2053
ssVtimings
p2054
(dp2055
Vcomment
p2056
g4
sVreceive
p2057
I0
sVsend
p2058
I0
sVssl
p2059
I-1
sVconnect
p2060
I-1
sVdns
p2061
I-1
sVwait
p2062
I31
sVblocked
p2063
I-1
ssVtime
p2064
I32
sVresponse
p2065
(dp2066
Vstatus
p2067
I200
sVcomment
p2068
g4
sVcookies
p2069
(lp2070
sVstatusText
p2071
VOK
p2072
sVcontent
p2073
(dp2074
VmimeType
p2075
Vimage/gif
p2076
sVcomment
p2077
g4
sVsize
p2078
I0
ssVheaders
p2079
(lp2080
sVheadersSize
p2081
I826
sVredirectURL
p2082
g4
sVbodySize
p2083
I37
sVhttpVersion
p2084
VHTTP/1.1
p2085
ssa(dp2086
Vcomment
p2087
g4
sVserverIPAddress
p2088
V172.217.0.1
p2089
sVpageref
p2090
VOrlando
p2091
sVstartedDateTime
p2092
V2017-04-16T08:51:56.169-05:00
p2093
sVcache
p2094
(dp2095
sVrequest
p2096
(dp2097
Vcomment
p2098
g4
sVcookies
p2099
(lp2100
sVurl
p2101
Vhttps://lh6.googleusercontent.com/-W87CcUfufDc/WBd-3TwtQPI/AAAAAAAAAMA/985Imir2hhEnvO0KiZHl6Ds3o9yy-oPGgCJkC/w115-h115-k-no/
p2102
sVqueryString
p2103
(lp2104
sVheaders
p2105
(lp2106
sVheadersSize
p2107
I439
sVbodySize
p2108
I0
sVmethod
p2109
VGET
p2110
sVhttpVersion
p2111
VHTTP/1.1
p2112
ssVtimings
p2113
(dp2114
Vcomment
p2115
g4
sVreceive
p2116
I0
sVsend
p2117
I0
sVssl
p2118
I416
sVconnect
p2119
I435
sVdns
p2120
I13
sVwait
p2121
I29
sVblocked
p2122
I0
ssVtime
p2123
I479
sVresponse
p2124
(dp2125
Vstatus
p2126
I200
sVcomment
p2127
g4
sVcookies
p2128
(lp2129
sVstatusText
p2130
VOK
p2131
sVcontent
p2132
(dp2133
VmimeType
p2134
Vimage/jpeg
p2135
sVcomment
p2136
g4
sVsize
p2137
I0
ssVheaders
p2138
(lp2139
sVheadersSize
p2140
I484
sVredirectURL
p2141
g4
sVbodySize
p2142
I9347
sVhttpVersion
p2143
VHTTP/1.1
p2144
ssa(dp2145
Vcomment
p2146
g4
sVserverIPAddress
p2147
V74.125.70.99
p2148
sVpageref
p2149
VOrlando
p2150
sVstartedDateTime
p2151
V2017-04-16T08:51:56.244-05:00
p2152
sVcache
p2153
(dp2154
sVrequest
p2155
(dp2156
Vcomment
p2157
g4
sVcookies
p2158
(lp2159
sVurl
p2160
Vhttps://www.google.com/async/log_amp_item_set?vet=10ahUKEwiyn_rRj6nTAhVq7YMKHU45BxIQooQBCAE..i&ei=93bzWNvTHKXHjwTz656QAQ&yv=2&async=num_items:10,_fmt:jspb
p2161
sVqueryString
p2162
(lp2163
(dp2164
Vname
p2165
Vvet
p2166
sVvalue
p2167
V10ahUKEwiyn_rRj6nTAhVq7YMKHU45BxIQooQBCAE..i
p2168
sa(dp2169
Vname
p2170
Vei
p2171
sVvalue
p2172
V93bzWNvTHKXHjwTz656QAQ
p2173
sa(dp2174
Vname
p2175
Vyv
p2176
sVvalue
p2177
g64
sa(dp2178
Vname
p2179
Vasync
p2180
sVvalue
p2181
Vnum_items:10,_fmt:jspb
p2182
sasVheaders
p2183
(lp2184
sVheadersSize
p2185
I671
sVbodySize
p2186
I0
sVmethod
p2187
VGET
p2188
sVhttpVersion
p2189
VHTTP/1.1
p2190
ssVtimings
p2191
(dp2192
Vcomment
p2193
g4
sVreceive
p2194
I1
sVsend
p2195
I1
sVssl
p2196
I-1
sVconnect
p2197
I-1
sVdns
p2198
I-1
sVwait
p2199
I32
sVblocked
p2200
I-1
ssVtime
p2201
I35
sVresponse
p2202
(dp2203
Vstatus
p2204
I200
sVcomment
p2205
g4
sVcookies
p2206
(lp2207
sVstatusText
p2208
VOK
p2209
sVcontent
p2210
(dp2211
VmimeType
p2212
Vapplication/json; charset=UTF-8
p2213
sVcomment
p2214
g4
sVsize
p2215
I0
ssVheaders
p2216
(lp2217
sVheadersSize
p2218
I417
sVredirectURL
p2219
g4
sVbodySize
p2220
I183
sVhttpVersion
p2221
VHTTP/1.1
p2222
ssa(dp2223
Vcomment
p2224
g4
sVserverIPAddress
p2225
V172.217.0.1
p2226
sVpageref
p2227
VOrlando
p2228
sVstartedDateTime
p2229
V2017-04-16T08:51:57.027-05:00
p2230
sVcache
p2231
(dp2232
sVrequest
p2233
(dp2234
Vcomment
p2235
g4
sVcookies
p2236
(lp2237
sVurl
p2238
Vhttps://lh5.googleusercontent.com/-vGTL4Se0CuE/Vul4XwqR4FI/AAAAAAAAAEU/gREWBbl0JJcShhxfzkMW8S8OgFk09UepQCJkC/w115-h115-k-no/
p2239
sVqueryString
p2240
(lp2241
sVheaders
p2242
(lp2243
sVheadersSize
p2244
I439
sVbodySize
p2245
I0
sVmethod
p2246
VGET
p2247
sVhttpVersion
p2248
VHTTP/1.1
p2249
ssVtimings
p2250
(dp2251
Vcomment
p2252
g4
sVreceive
p2253
I1
sVsend
p2254
I0
sVssl
p2255
I1264
sVconnect
p2256
I1285
sVdns
p2257
I3
sVwait
p2258
I20
sVblocked
p2259
I0
ssVtime
p2260
I1311
sVresponse
p2261
(dp2262
Vstatus
p2263
I200
sVcomment
p2264
g4
sVcookies
p2265
(lp2266
sVstatusText
p2267
VOK
p2268
sVcontent
p2269
(dp2270
VmimeType
p2271
Vimage/jpeg
p2272
sVcomment
p2273
g4
sVsize
p2274
I0
ssVheaders
p2275
(lp2276
sVheadersSize
p2277
I515
sVredirectURL
p2278
g4
sVbodySize
p2279
I7919
sVhttpVersion
p2280
VHTTP/1.1
p2281
ssa(dp2282
Vcomment
p2283
g4
sVserverIPAddress
p2284
V216.58.216.193
p2285
sVpageref
p2286
VOrlando
p2287
sVstartedDateTime
p2288
V2017-04-16T08:51:57.066-05:00
p2289
sVcache
p2290
(dp2291
sVrequest
p2292
(dp2293
Vcomment
p2294
g4
sVcookies
p2295
(lp2296
sVurl
p2297
Vhttps://www-orlandosentinel-com.cdn.ampproject.org/v/www.orlandosentinel.com/travel/attractions/the-daily-disney/os-disney-star-wars-land-details-star-wars-celebration-20170416-story,amp.html?amp_js_v=9
p2298
sVqueryString
p2299
(lp2300
(dp2301
Vname
p2302
Vamp_js_v
p2303
sVvalue
p2304
V9
p2305
sasVheaders
p2306
(lp2307
sVheadersSize
p2308
I607
sVbodySize
p2309
I0
sVmethod
p2310
VGET
p2311
sVhttpVersion
p2312
VHTTP/1.1
p2313
ssVtimings
p2314
(dp2315
Vcomment
p2316
g4
sVreceive
p2317
I1
sVsend
p2318
I0
sVssl
p2319
I738
sVconnect
p2320
I759
sVdns
p2321
I38
sVwait
p2322
I109
sVblocked
p2323
I0
ssVtime
p2324
I908
sVresponse
p2325
(dp2326
Vstatus
p2327
I200
sVcomment
p2328
g4
sVcookies
p2329
(lp2330
sVstatusText
p2331
VOK
p2332
sVcontent
p2333
(dp2334
VmimeType
p2335
Vtext/html
p2336
sVcomment
p2337
g4
sVsize
p2338
I0
ssVheaders
p2339
(lp2340
sVheadersSize
p2341
I862
sVredirectURL
p2342
g4
sVbodySize
p2343
I14179
sVhttpVersion
p2344
VHTTP/1.1
p2345
ssa(dp2346
Vcomment
p2347
g4
sVserverIPAddress
p2348
V216.58.216.193
p2349
sVpageref
p2350
VOrlando
p2351
sVstartedDateTime
p2352
V2017-04-16T08:51:57.206-05:00
p2353
sVcache
p2354
(dp2355
sVrequest
p2356
(dp2357
Vcomment
p2358
g4
sVcookies
p2359
(lp2360
sVurl
p2361
Vhttps://cdn.ampproject.org/rtv/001492014732688/v0/amp-brightcove-0.1.js
p2362
sVqueryString
p2363
(lp2364
sVheaders
p2365
(lp2366
sVheadersSize
p2367
I565
sVbodySize
p2368
I0
sVmethod
p2369
VGET
p2370
sVhttpVersion
p2371
VHTTP/1.1
p2372
ssVtimings
p2373
(dp2374
Vcomment
p2375
g4
sVreceive
p2376
I1
sVsend
p2377
I0
sVssl
p2378
I-1
sVconnect
p2379
I-1
sVdns
p2380
I-1
sVwait
p2381
I14
sVblocked
p2382
I-1
ssVtime
p2383
I16
sVresponse
p2384
(dp2385
Vstatus
p2386
I200
sVcomment
p2387
g4
sVcookies
p2388
(lp2389
sVstatusText
p2390
VOK
p2391
sVcontent
p2392
(dp2393
VmimeType
p2394
Vtext/javascript
p2395
sVcomment
p2396
g4
sVsize
p2397
I0
ssVheaders
p2398
(lp2399
sVheadersSize
p2400
I1165
sVredirectURL
p2401
g4
sVbodySize
p2402
I1320
sVhttpVersion
p2403
VHTTP/1.1
p2404
ssa(dp2405
Vcomment
p2406
g4
sVserverIPAddress
p2407
V74.125.70.99
p2408
sVpageref
p2409
VOrlando
p2410
sVstartedDateTime
p2411
V2017-04-16T08:51:57.856-05:00
p2412
sVcache
p2413
(dp2414
sVrequest
p2415
(dp2416
Vcomment
p2417
g4
sVcookies
p2418
(lp2419
sVurl
p2420
Vhttps://www.google.com/gen_204?atyp=i&ct=slh&cad=&ei=63bzWM_AAabJjwST_7ygBQ&m=V&t=C&s=1&v=2&pv=0.6108004534233492&me=1:1492350703767,x:4,V,0,0,1280,944:0,N,1,63bzWM_AAabJjwST_7ygBQ:0,R,1,24,8,155,1249,678:0,R,1,25,8,155,1249,678:0,R,1,36,8,155,1249,116:0,R,1,48,8,284,1249,40:0,R,1,55,8,399,1249,40:0,R,1,56,24,399,1217,40:0,R,1,61,8,455,1249,20:0,R,1,63,8,483,1249,20:0,R,1,73,8,523,1249,213:0,R,1,74,8,572,1249,164:0,R,1,93,8,736,1249,30:0,R,1,163,8,843,1249,201:0,R,1,164,24,843,1217,190:2,B,3647:7834,e,U&zx=1492350717853
p2421
sVqueryString
p2422
(lp2423
(dp2424
Vname
p2425
Vatyp
p2426
sVvalue
p2427
g30
sa(dp2428
Vname
p2429
Vct
p2430
sVvalue
p2431
Vslh
p2432
sa(dp2433
Vname
p2434
Vcad
p2435
sVvalue
p2436
g4
sa(dp2437
Vname
p2438
Vei
p2439
sVvalue
p2440
V63bzWM_AAabJjwST_7ygBQ
p2441
sa(dp2442
Vname
p2443
g47
sVvalue
p2444
g49
sa(dp2445
Vname
p2446
g52
sVvalue
p2447
g54
sa(dp2448
Vname
p2449
g57
sVvalue
p2450
g59
sa(dp2451
Vname
p2452
g62
sVvalue
p2453
g64
sa(dp2454
Vname
p2455
Vpv
p2456
sVvalue
p2457
V0.6108004534233492
p2458
sa(dp2459
Vname
p2460
Vme
p2461
sVvalue
p2462
V1:1492350703767,x:4,V,0,0,1280,944:0,N,1,63bzWM_AAabJjwST_7ygBQ:0,R,1,24,8,155,1249,678:0,R,1,25,8,155,1249,678:0,R,1,36,8,155,1249,116:0,R,1,48,8,284,1249,40:0,R,1,55,8,399,1249,40:0,R,1,56,24,399,1217,40:0,R,1,61,8,455,1249,20:0,R,1,63,8,483,1249,20:0,R,1,73,8,523,1249,213:0,R,1,74,8,572,1249,164:0,R,1,93,8,736,1249,30:0,R,1,163,8,843,1249,201:0,R,1,164,24,843,1217,190:2,B,3647:7834,e,U
p2463
sa(dp2464
Vname
p2465
Vzx
p2466
sVvalue
p2467
V1492350717853
p2468
sasVheaders
p2469
(lp2470
sVheadersSize
p2471
I1042
sVbodySize
p2472
I0
sVmethod
p2473
VGET
p2474
sVhttpVersion
p2475
VHTTP/1.1
p2476
ssVtimings
p2477
(dp2478
Vcomment
p2479
g4
sVreceive
p2480
I0
sVsend
p2481
I0
sVssl
p2482
I-1
sVconnect
p2483
I-1
sVdns
p2484
I-1
sVwait
p2485
I27
sVblocked
p2486
I-1
ssVtime
p2487
I27
sVresponse
p2488
(dp2489
Vstatus
p2490
I204
sVcomment
p2491
g4
sVcookies
p2492
(lp2493
sVstatusText
p2494
VNo Content
p2495
sVcontent
p2496
(dp2497
VmimeType
p2498
Vtext/html; charset=UTF-8
p2499
sVcomment
p2500
g4
sVsize
p2501
I0
ssVheaders
p2502
(lp2503
sVheadersSize
p2504
I248
sVredirectURL
p2505
g4
sVbodySize
p2506
I0
sVhttpVersion
p2507
VHTTP/1.1
p2508
ssa(dp2509
Vcomment
p2510
g4
sVserverIPAddress
p2511
V216.58.216.193
p2512
sVpageref
p2513
VOrlando
p2514
sVstartedDateTime
p2515
V2017-04-16T08:51:57.935-05:00
p2516
sVcache
p2517
(dp2518
sVrequest
p2519
(dp2520
Vcomment
p2521
g4
sVcookies
p2522
(lp2523
sVurl
p2524
Vhttps://www-trbimg-com.cdn.ampproject.org/i/www.trbimg.com/img-56cb23f8/turbine/os-disney-parks-star-wars-land-renderings/1366/1366x768
p2525
sVqueryString
p2526
(lp2527
sVheaders
p2528
(lp2529
sVheadersSize
p2530
I629
sVbodySize
p2531
I0
sVmethod
p2532
VGET
p2533
sVhttpVersion
p2534
VHTTP/1.1
p2535
ssVtimings
p2536
(dp2537
Vcomment
p2538
g4
sVreceive
p2539
I43
sVsend
p2540
I0
sVssl
p2541
I400
sVconnect
p2542
I440
sVdns
p2543
I9
sVwait
p2544
I120
sVblocked
p2545
I0
ssVtime
p2546
I614
sVresponse
p2547
(dp2548
Vstatus
p2549
I200
sVcomment
p2550
g4
sVcookies
p2551
(lp2552
sVstatusText
p2553
VOK
p2554
sVcontent
p2555
(dp2556
VmimeType
p2557
Vimage/jpeg
p2558
sVcomment
p2559
g4
sVsize
p2560
I0
ssVheaders
p2561
(lp2562
sVheadersSize
p2563
I850
sVredirectURL
p2564
g4
sVbodySize
p2565
I99366
sVhttpVersion
p2566
VHTTP/1.1
p2567
ssa(dp2568
Vcomment
p2569
g4
sVserverIPAddress
p2570
V216.58.216.193
p2571
sVpageref
p2572
VOrlando
p2573
sVstartedDateTime
p2574
V2017-04-16T08:51:57.938-05:00
p2575
sVcache
p2576
(dp2577
sVrequest
p2578
(dp2579
Vcomment
p2580
g4
sVcookies
p2581
(lp2582
sVurl
p2583
Vhttps://www-trbimg-com.cdn.ampproject.org/i/www.trbimg.com/img-53c7ff99/turbine/os-richard-tribou-bio-20140717/140/140x140
p2584
sVqueryString
p2585
(lp2586
sVheaders
p2587
(lp2588
sVheadersSize
p2589
I616
sVbodySize
p2590
I0
sVmethod
p2591
VGET
p2592
sVhttpVersion
p2593
VHTTP/1.1
p2594
ssVtimings
p2595
(dp2596
Vcomment
p2597
g4
sVreceive
p2598
I0
sVsend
p2599
I0
sVssl
p2600
I407
sVconnect
p2601
I444
sVdns
p2602
I33
sVwait
p2603
I29
sVblocked
p2604
I0
ssVtime
p2605
I508
sVresponse
p2606
(dp2607
Vstatus
p2608
I200
sVcomment
p2609
g4
sVcookies
p2610
(lp2611
sVstatusText
p2612
VOK
p2613
sVcontent
p2614
(dp2615
VmimeType
p2616
Vimage/jpeg
p2617
sVcomment
p2618
g4
sVsize
p2619
I0
ssVheaders
p2620
(lp2621
sVheadersSize
p2622
I849
sVredirectURL
p2623
g4
sVbodySize
p2624
I2907
sVhttpVersion
p2625
VHTTP/1.1
p2626
ssa(dp2627
Vcomment
p2628
g4
sVserverIPAddress
p2629
V74.125.70.99
p2630
sVpageref
p2631
VOrlando
p2632
sVstartedDateTime
p2633
V2017-04-16T08:51:58.126-05:00
p2634
sVcache
p2635
(dp2636
sVrequest
p2637
(dp2638
Vcomment
p2639
g4
sVcookies
p2640
(lp2641
sVurl
p2642
Vhttps://www.google.com/gen_204?s=web&atyp=csi&ei=93bzWNvTHKXHjwTz656QAQ&imc=51&imn=51&imp=21&adh=&xjs=init.79.15.sb_mob.49.vs.7.dvl.5.c.4.jsa.4&ima=11&rt=prt.1313,iml.2302,xjsls.1313,dcl.1511,xjses.1697,xjsee.2104,xjs.2107,qiml.2332,ol.5503,aft.2302,wsrt.188,cst.0,dnst.0,rqst.1322,rspt.1323,rqstt.74,unt.4,cstt.4,dit.1653
p2643
sVqueryString
p2644
(lp2645
(dp2646
Vname
p2647
g57
sVvalue
p2648
Vweb
p2649
sa(dp2650
Vname
p2651
Vatyp
p2652
sVvalue
p2653
Vcsi
p2654
sa(dp2655
Vname
p2656
Vei
p2657
sVvalue
p2658
V93bzWNvTHKXHjwTz656QAQ
p2659
sa(dp2660
Vname
p2661
Vimc
p2662
sVvalue
p2663
V51
p2664
sa(dp2665
Vname
p2666
Vimn
p2667
sVvalue
p2668
V51
p2669
sa(dp2670
Vname
p2671
Vimp
p2672
sVvalue
p2673
V21
p2674
sa(dp2675
Vname
p2676
Vadh
p2677
sVvalue
p2678
g4
sa(dp2679
Vname
p2680
Vxjs
p2681
sVvalue
p2682
Vinit.79.15.sb_mob.49.vs.7.dvl.5.c.4.jsa.4
p2683
sa(dp2684
Vname
p2685
Vima
p2686
sVvalue
p2687
V11
p2688
sa(dp2689
Vname
p2690
Vrt
p2691
sVvalue
p2692
Vprt.1313,iml.2302,xjsls.1313,dcl.1511,xjses.1697,xjsee.2104,xjs.2107,qiml.2332,ol.5503,aft.2302,wsrt.188,cst.0,dnst.0,rqst.1322,rspt.1323,rqstt.74,unt.4,cstt.4,dit.1653
p2693
sasVheaders
p2694
(lp2695
sVheadersSize
p2696
I839
sVbodySize
p2697
I0
sVmethod
p2698
VGET
p2699
sVhttpVersion
p2700
VHTTP/1.1
p2701
ssVtimings
p2702
(dp2703
Vcomment
p2704
g4
sVreceive
p2705
I0
sVsend
p2706
I2
sVssl
p2707
I-1
sVconnect
p2708
I-1
sVdns
p2709
I-1
sVwait
p2710
I30
sVblocked
p2711
I-1
ssVtime
p2712
I33
sVresponse
p2713
(dp2714
Vstatus
p2715
I204
sVcomment
p2716
g4
sVcookies
p2717
(lp2718
sVstatusText
p2719
VNo Content
p2720
sVcontent
p2721
(dp2722
VmimeType
p2723
Vtext/html; charset=UTF-8
p2724
sVcomment
p2725
g4
sVsize
p2726
I0
ssVheaders
p2727
(lp2728
sVheadersSize
p2729
I248
sVredirectURL
p2730
g4
sVbodySize
p2731
I0
sVhttpVersion
p2732
VHTTP/1.1
p2733
ssasVversion
p2734
V1.2
p2735
sVpages
p2736
(lp2737
(dp2738
VpageTimings
p2739
(dp2740
Vcomment
p2741
g4
ssVcomment
p2742
g4
sVtitle
p2743
VOrlando
p2744
sVid
p2745
VOrlando
p2746
sVstartedDateTime
p2747
V2017-04-16T08:51:51.599-05:00
p2748
sasVcreator
p2749
(dp2750
Vcomment
p2751
g4
sVversion
p2752
V2.1.4
p2753
sVname
p2754
VBrowserMob Proxy
p2755
sss.