(dp0
Vlog
p1
(dp2
Vcomment
p3
V
p4
sVentries
p5
(lp6
(dp7
Vcomment
p8
g4
sVserverIPAddress
p9
V216.58.216.196
p10
sVpageref
p11
VMiami Heat
p12
sVstartedDateTime
p13
V2017-04-16T08:33:42.441-05:00
p14
sVcache
p15
(dp16
sVrequest
p17
(dp18
Vcomment
p19
g4
sVcookies
p20
(lp21
sVurl
p22
Vhttps://www.google.com/gen_204?atyp=i&ct=slh&cad=&ei=oXLzWJypDOXCjwT637vQAQ&m=V&t=C&s=1&v=2&pv=0.4724837960293815&me=1:1492349605970,x:2,V,0,0,1280,944:0,N,1,oXLzWJypDOXCjwT637vQAQ:0,R,1,24,0,155,1197,647:0,R,1,25,0,155,1197,645:0,R,1,78,8,810,1264,677:0,R,1,79,8,810,1264,677:0,R,1,82,8,823,1264,40:0,R,1,95,8,875,1264,178:0,R,1,98,0,891,1280,197:2,B,3521:16464,e,U&zx=1492349622438
p23
sVqueryString
p24
(lp25
(dp26
Vname
p27
Vatyp
p28
sVvalue
p29
Vi
p30
sa(dp31
Vname
p32
Vct
p33
sVvalue
p34
Vslh
p35
sa(dp36
Vname
p37
Vcad
p38
sVvalue
p39
g4
sa(dp40
Vname
p41
Vei
p42
sVvalue
p43
VoXLzWJypDOXCjwT637vQAQ
p44
sa(dp45
Vname
p46
Vm
p47
sVvalue
p48
VV
p49
sa(dp50
Vname
p51
Vt
p52
sVvalue
p53
VC
p54
sa(dp55
Vname
p56
Vs
p57
sVvalue
p58
V1
p59
sa(dp60
Vname
p61
Vv
p62
sVvalue
p63
V2
p64
sa(dp65
Vname
p66
Vpv
p67
sVvalue
p68
V0.4724837960293815
p69
sa(dp70
Vname
p71
Vme
p72
sVvalue
p73
V1:1492349605970,x:2,V,0,0,1280,944:0,N,1,oXLzWJypDOXCjwT637vQAQ:0,R,1,24,0,155,1197,647:0,R,1,25,0,155,1197,645:0,R,1,78,8,810,1264,677:0,R,1,79,8,810,1264,677:0,R,1,82,8,823,1264,40:0,R,1,95,8,875,1264,178:0,R,1,98,0,891,1280,197:2,B,3521:16464,e,U
p74
sa(dp75
Vname
p76
Vzx
p77
sVvalue
p78
V1492349622438
p79
sasVheaders
p80
(lp81
sVheadersSize
p82
I900
sVbodySize
p83
I0
sVmethod
p84
VGET
p85
sVhttpVersion
p86
VHTTP/1.1
p87
ssVtimings
p88
(dp89
Vcomment
p90
g4
sVreceive
p91
I0
sVsend
p92
I0
sVssl
p93
I-1
sVconnect
p94
I-1
sVdns
p95
I-1
sVwait
p96
I0
sVblocked
p97
I-1
ssVtime
p98
I0
sVresponse
p99
(dp100
Vstatus
p101
I0
sVcomment
p102
g4
sVcookies
p103
(lp104
sV_error
p105
VNo response received
p106
sVstatusText
p107
g4
sVcontent
p108
(dp109
VmimeType
p110
g4
sVcomment
p111
g4
sVsize
p112
I0
ssVheaders
p113
(lp114
sVheadersSize
p115
I-1
sVredirectURL
p116
g4
sVbodySize
p117
I-1
sVhttpVersion
p118
Vunknown
p119
ssa(dp120
Vcomment
p121
g4
sVserverIPAddress
p122
V216.58.216.196
p123
sVpageref
p124
VMiami Heat
p125
sVstartedDateTime
p126
V2017-04-16T08:33:42.446-05:00
p127
sVcache
p128
(dp129
sVrequest
p130
(dp131
Vcomment
p132
g4
sVcookies
p133
(lp134
sVurl
p135
Vhttp://www.google.com/
p136
sVqueryString
p137
(lp138
sVheaders
p139
(lp140
sVheadersSize
p141
I613
sVbodySize
p142
I0
sVmethod
p143
VGET
p144
sVhttpVersion
p145
VHTTP/1.1
p146
ssVtimings
p147
(dp148
Vcomment
p149
g4
sVreceive
p150
I0
sVsend
p151
I0
sVssl
p152
I-1
sVconnect
p153
I-1
sVdns
p154
I-1
sVwait
p155
I37
sVblocked
p156
I-1
ssVtime
p157
I38
sVresponse
p158
(dp159
Vstatus
p160
I302
sVcomment
p161
g4
sVcookies
p162
(lp163
sVstatusText
p164
VFound
p165
sVcontent
p166
(dp167
VmimeType
p168
Vtext/html; charset=UTF-8
p169
sVcomment
p170
g4
sVsize
p171
I0
ssVheaders
p172
(lp173
sVheadersSize
p174
I609
sVredirectURL
p175
Vhttps://www.google.com/?gws_rd=ssl
p176
sVbodySize
p177
I231
sVhttpVersion
p178
VHTTP/1.1
p179
ssa(dp180
Vcomment
p181
g4
sVserverIPAddress
p182
V216.58.216.196
p183
sVpageref
p184
VMiami Heat
p185
sVstartedDateTime
p186
V2017-04-16T08:33:42.517-05:00
p187
sVcache
p188
(dp189
sVrequest
p190
(dp191
Vcomment
p192
g4
sVcookies
p193
(lp194
sVurl
p195
Vhttps://www.google.com/?gws_rd=ssl
p196
sVqueryString
p197
(lp198
(dp199
Vname
p200
Vgws_rd
p201
sVvalue
p202
Vssl
p203
sasVheaders
p204
(lp205
sVheadersSize
p206
I607
sVbodySize
p207
I0
sVmethod
p208
VGET
p209
sVhttpVersion
p210
VHTTP/1.1
p211
ssVtimings
p212
(dp213
Vcomment
p214
g4
sVreceive
p215
I26
sVsend
p216
I0
sVssl
p217
I-1
sVconnect
p218
I-1
sVdns
p219
I-1
sVwait
p220
I73
sVblocked
p221
I-1
ssVtime
p222
I100
sVresponse
p223
(dp224
Vstatus
p225
I200
sVcomment
p226
g4
sVcookies
p227
(lp228
sVstatusText
p229
VOK
p230
sVcontent
p231
(dp232
VmimeType
p233
Vtext/html; charset=UTF-8
p234
sVcomment
p235
g4
sVsize
p236
I0
ssVheaders
p237
(lp238
sVheadersSize
p239
I721
sVredirectURL
p240
g4
sVbodySize
p241
I34289
sVhttpVersion
p242
VHTTP/1.1
p243
ssa(dp244
Vcomment
p245
g4
sVserverIPAddress
p246
V216.58.216.196
p247
sVpageref
p248
VMiami Heat
p249
sVstartedDateTime
p250
V2017-04-16T08:33:43.263-05:00
p251
sVcache
p252
(dp253
sVrequest
p254
(dp255
Vcomment
p256
g4
sVcookies
p257
(lp258
sVurl
p259
Vhttps://www.google.com/gen_204?s=mobilewebhp&atyp=csi&ei=tXLzWP6GH8fujwTeqbToBw&imc=1&imn=1&imp=0&adh=&xjs=init.34.12.sb_mob.25.dvl.3.c.2.jsa.1.mbsf.1&ima=1&rt=xjsls.71,prt.72,iml.72,dcl.111,xjses.487,xjsee.601,xjs.602,ol.640,aft.72,wsrt.178,cst.0,dnst.0,rqst.101,rspt.27,rqstt.80,unt.77,cstt.77,dit.270
p260
sVqueryString
p261
(lp262
(dp263
Vname
p264
g57
sVvalue
p265
Vmobilewebhp
p266
sa(dp267
Vname
p268
Vatyp
p269
sVvalue
p270
Vcsi
p271
sa(dp272
Vname
p273
Vei
p274
sVvalue
p275
VtXLzWP6GH8fujwTeqbToBw
p276
sa(dp277
Vname
p278
Vimc
p279
sVvalue
p280
g59
sa(dp281
Vname
p282
Vimn
p283
sVvalue
p284
g59
sa(dp285
Vname
p286
Vimp
p287
sVvalue
p288
V0
p289
sa(dp290
Vname
p291
Vadh
p292
sVvalue
p293
g4
sa(dp294
Vname
p295
Vxjs
p296
sVvalue
p297
Vinit.34.12.sb_mob.25.dvl.3.c.2.jsa.1.mbsf.1
p298
sa(dp299
Vname
p300
Vima
p301
sVvalue
p302
g59
sa(dp303
Vname
p304
Vrt
p305
sVvalue
p306
Vxjsls.71,prt.72,iml.72,dcl.111,xjses.487,xjsee.601,xjs.602,ol.640,aft.72,wsrt.178,cst.0,dnst.0,rqst.101,rspt.27,rqstt.80,unt.77,cstt.77,dit.270
p307
sasVheaders
p308
(lp309
sVheadersSize
p310
I831
sVbodySize
p311
I0
sVmethod
p312
VGET
p313
sVhttpVersion
p314
VHTTP/1.1
p315
ssVtimings
p316
(dp317
Vcomment
p318
g4
sVreceive
p319
I0
sVsend
p320
I0
sVssl
p321
I-1
sVconnect
p322
I-1
sVdns
p323
I-1
sVwait
p324
I26
sVblocked
p325
I-1
ssVtime
p326
I27
sVresponse
p327
(dp328
Vstatus
p329
I204
sVcomment
p330
g4
sVcookies
p331
(lp332
sVstatusText
p333
VNo Content
p334
sVcontent
p335
(dp336
VmimeType
p337
Vtext/html; charset=UTF-8
p338
sVcomment
p339
g4
sVsize
p340
I0
ssVheaders
p341
(lp342
sVheadersSize
p343
I248
sVredirectURL
p344
g4
sVbodySize
p345
I0
sVhttpVersion
p346
VHTTP/1.1
p347
ssa(dp348
Vcomment
p349
g4
sVserverIPAddress
p350
V216.58.216.196
p351
sVpageref
p352
VMiami Heat
p353
sVstartedDateTime
p354
V2017-04-16T08:33:43.384-05:00
p355
sVcache
p356
(dp357
sVrequest
p358
(dp359
Vcomment
p360
g4
sVcookies
p361
(lp362
sVurl
p363
Vhttps://www.google.com/complete/search?client=mobile-gws-hp&hl=en&gs_rn=64&gs_ri=mobile-gws-hp&sla=1&pfq=marcell%20ozuna&gm=602&cp=0&gs_id=1&xhr=t&q=M&tch=1&ech=1&psi=tXLzWP6GH8fujwTeqbToBw.1492349623185.1
p364
sVqueryString
p365
(lp366
(dp367
Vname
p368
Vclient
p369
sVvalue
p370
Vmobile-gws-hp
p371
sa(dp372
Vname
p373
Vhl
p374
sVvalue
p375
Ven
p376
sa(dp377
Vname
p378
Vgs_rn
p379
sVvalue
p380
V64
p381
sa(dp382
Vname
p383
Vgs_ri
p384
sVvalue
p385
Vmobile-gws-hp
p386
sa(dp387
Vname
p388
Vsla
p389
sVvalue
p390
g59
sa(dp391
Vname
p392
Vpfq
p393
sVvalue
p394
Vmarcell ozuna
p395
sa(dp396
Vname
p397
Vgm
p398
sVvalue
p399
V602
p400
sa(dp401
Vname
p402
Vcp
p403
sVvalue
p404
g289
sa(dp405
Vname
p406
Vgs_id
p407
sVvalue
p408
g59
sa(dp409
Vname
p410
Vxhr
p411
sVvalue
p412
g52
sa(dp413
Vname
p414
Vq
p415
sVvalue
p416
VM
p417
sa(dp418
Vname
p419
Vtch
p420
sVvalue
p421
g59
sa(dp422
Vname
p423
Vech
p424
sVvalue
p425
g59
sa(dp426
Vname
p427
Vpsi
p428
sVvalue
p429
VtXLzWP6GH8fujwTeqbToBw.1492349623185.1
p430
sasVheaders
p431
(lp432
sVheadersSize
p433
I733
sVbodySize
p434
I0
sVmethod
p435
VGET
p436
sVhttpVersion
p437
VHTTP/1.1
p438
ssVtimings
p439
(dp440
Vcomment
p441
g4
sVreceive
p442
I0
sVsend
p443
I0
sVssl
p444
I-1
sVconnect
p445
I-1
sVdns
p446
I-1
sVwait
p447
I0
sVblocked
p448
I-1
ssVtime
p449
I0
sVresponse
p450
(dp451
Vstatus
p452
I0
sVcomment
p453
g4
sVcookies
p454
(lp455
sV_error
p456
VNo response received
p457
sVstatusText
p458
g4
sVcontent
p459
(dp460
VmimeType
p461
g4
sVcomment
p462
g4
sVsize
p463
I0
ssVheaders
p464
(lp465
sVheadersSize
p466
I-1
sVredirectURL
p467
g4
sVbodySize
p468
I-1
sVhttpVersion
p469
Vunknown
p470
ssa(dp471
Vcomment
p472
g4
sVserverIPAddress
p473
V216.58.216.196
p474
sVpageref
p475
VMiami Heat
p476
sVstartedDateTime
p477
V2017-04-16T08:33:43.444-05:00
p478
sVcache
p479
(dp480
sVrequest
p481
(dp482
Vcomment
p483
g4
sVcookies
p484
(lp485
sVurl
p486
Vhttps://www.google.com/search?site=&source=hp&ei=tXLzWP6GH8fujwTeqbToBw&q=Miami+Heat&oq=Miami+Heat&gs_l=mobile-gws-hp.3...170.197.0.223.10.1.0.0.0.0.0.0..0.0....0...1c.1.64.mobile-gws-hp..10.0.0.X4z0NrUjvs0
p487
sVqueryString
p488
(lp489
(dp490
Vname
p491
Vsite
p492
sVvalue
p493
g4
sa(dp494
Vname
p495
Vsource
p496
sVvalue
p497
Vhp
p498
sa(dp499
Vname
p500
Vei
p501
sVvalue
p502
VtXLzWP6GH8fujwTeqbToBw
p503
sa(dp504
Vname
p505
g415
sVvalue
p506
VMiami Heat
p507
sa(dp508
Vname
p509
Voq
p510
sVvalue
p511
VMiami Heat
p512
sa(dp513
Vname
p514
Vgs_l
p515
sVvalue
p516
Vmobile-gws-hp.3...170.197.0.223.10.1.0.0.0.0.0.0..0.0....0...1c.1.64.mobile-gws-hp..10.0.0.X4z0NrUjvs0
p517
sasVheaders
p518
(lp519
sVheadersSize
p520
I824
sVbodySize
p521
I0
sVmethod
p522
VGET
p523
sVhttpVersion
p524
VHTTP/1.1
p525
ssVtimings
p526
(dp527
Vcomment
p528
g4
sVreceive
p529
I977
sVsend
p530
I0
sVssl
p531
I-1
sVconnect
p532
I-1
sVdns
p533
I-1
sVwait
p534
I107
sVblocked
p535
I-1
ssVtime
p536
I1084
sVresponse
p537
(dp538
Vstatus
p539
I200
sVcomment
p540
g4
sVcookies
p541
(lp542
sVstatusText
p543
VOK
p544
sVcontent
p545
(dp546
VmimeType
p547
Vtext/html; charset=UTF-8
p548
sVcomment
p549
g4
sVsize
p550
I0
ssVheaders
p551
(lp552
sVheadersSize
p553
I363
sVredirectURL
p554
g4
sVbodySize
p555
I150580
sVhttpVersion
p556
VHTTP/1.1
p557
ssa(dp558
Vcomment
p559
g4
sVserverIPAddress
p560
V216.58.216.195
p561
sVpageref
p562
VMiami Heat
p563
sVstartedDateTime
p564
V2017-04-16T08:33:44.490-05:00
p565
sVcache
p566
(dp567
sVrequest
p568
(dp569
Vcomment
p570
g4
sVcookies
p571
(lp572
sVurl
p573
Vhttps://ssl.gstatic.com/onebox/media/sports/logos/0nQXN6OF7wnLY3hJz8lZJQ_48x48.png
p574
sVqueryString
p575
(lp576
sVheaders
p577
(lp578
sVheadersSize
p579
I397
sVbodySize
p580
I0
sVmethod
p581
VGET
p582
sVhttpVersion
p583
VHTTP/1.1
p584
ssVtimings
p585
(dp586
Vcomment
p587
g4
sVreceive
p588
I2
sVsend
p589
I0
sVssl
p590
I-1
sVconnect
p591
I-1
sVdns
p592
I-1
sVwait
p593
I21
sVblocked
p594
I-1
ssVtime
p595
I24
sVresponse
p596
(dp597
Vstatus
p598
I200
sVcomment
p599
g4
sVcookies
p600
(lp601
sVstatusText
p602
VOK
p603
sVcontent
p604
(dp605
VmimeType
p606
Vimage/png
p607
sVcomment
p608
g4
sVsize
p609
I0
ssVheaders
p610
(lp611
sVheadersSize
p612
I424
sVredirectURL
p613
g4
sVbodySize
p614
I3569
sVhttpVersion
p615
VHTTP/1.1
p616
ssa(dp617
Vcomment
p618
g4
sVserverIPAddress
p619
V216.58.216.195
p620
sVpageref
p621
VMiami Heat
p622
sVstartedDateTime
p623
V2017-04-16T08:33:44.500-05:00
p624
sVcache
p625
(dp626
sVrequest
p627
(dp628
Vcomment
p629
g4
sVcookies
p630
(lp631
sVurl
p632
Vhttps://ssl.gstatic.com/onebox/media/sports/videos/nba/pwtNMvmGdQA_192x108.jpg
p633
sVqueryString
p634
(lp635
sVheaders
p636
(lp637
sVheadersSize
p638
I393
sVbodySize
p639
I0
sVmethod
p640
VGET
p641
sVhttpVersion
p642
VHTTP/1.1
p643
ssVtimings
p644
(dp645
Vcomment
p646
g4
sVreceive
p647
I4
sVsend
p648
I0
sVssl
p649
I-1
sVconnect
p650
I-1
sVdns
p651
I-1
sVwait
p652
I16
sVblocked
p653
I-1
ssVtime
p654
I20
sVresponse
p655
(dp656
Vstatus
p657
I200
sVcomment
p658
g4
sVcookies
p659
(lp660
sVstatusText
p661
VOK
p662
sVcontent
p663
(dp664
VmimeType
p665
Vimage/jpeg
p666
sVcomment
p667
g4
sVsize
p668
I0
ssVheaders
p669
(lp670
sVheadersSize
p671
I392
sVredirectURL
p672
g4
sVbodySize
p673
I9680
sVhttpVersion
p674
VHTTP/1.1
p675
ssa(dp676
Vcomment
p677
g4
sVserverIPAddress
p678
V216.58.216.195
p679
sVpageref
p680
VMiami Heat
p681
sVstartedDateTime
p682
V2017-04-16T08:33:44.500-05:00
p683
sVcache
p684
(dp685
sVrequest
p686
(dp687
Vcomment
p688
g4
sVcookies
p689
(lp690
sVurl
p691
Vhttps://ssl.gstatic.com/onebox/media/sports/logos/NBkMJapxft4V5kvufec4Jg_48x48.png
p692
sVqueryString
p693
(lp694
sVheaders
p695
(lp696
sVheadersSize
p697
I397
sVbodySize
p698
I0
sVmethod
p699
VGET
p700
sVhttpVersion
p701
VHTTP/1.1
p702
ssVtimings
p703
(dp704
Vcomment
p705
g4
sVreceive
p706
I0
sVsend
p707
I0
sVssl
p708
I-1
sVconnect
p709
I-1
sVdns
p710
I-1
sVwait
p711
I22
sVblocked
p712
I-1
ssVtime
p713
I22
sVresponse
p714
(dp715
Vstatus
p716
I200
sVcomment
p717
g4
sVcookies
p718
(lp719
sVstatusText
p720
VOK
p721
sVcontent
p722
(dp723
VmimeType
p724
Vimage/png
p725
sVcomment
p726
g4
sVsize
p727
I0
ssVheaders
p728
(lp729
sVheadersSize
p730
I424
sVredirectURL
p731
g4
sVbodySize
p732
I3975
sVhttpVersion
p733
VHTTP/1.1
p734
ssa(dp735
Vcomment
p736
g4
sVserverIPAddress
p737
V216.58.216.195
p738
sVpageref
p739
VMiami Heat
p740
sVstartedDateTime
p741
V2017-04-16T08:33:44.501-05:00
p742
sVcache
p743
(dp744
sVrequest
p745
(dp746
Vcomment
p747
g4
sVcookies
p748
(lp749
sVurl
p750
Vhttps://ssl.gstatic.com/onebox/media/sports/videos/nba/I5R-zrkcFgQ_192x108.jpg
p751
sVqueryString
p752
(lp753
sVheaders
p754
(lp755
sVheadersSize
p756
I393
sVbodySize
p757
I0
sVmethod
p758
VGET
p759
sVhttpVersion
p760
VHTTP/1.1
p761
ssVtimings
p762
(dp763
Vcomment
p764
g4
sVreceive
p765
I2
sVsend
p766
I0
sVssl
p767
I-1
sVconnect
p768
I-1
sVdns
p769
I-1
sVwait
p770
I22
sVblocked
p771
I-1
ssVtime
p772
I24
sVresponse
p773
(dp774
Vstatus
p775
I200
sVcomment
p776
g4
sVcookies
p777
(lp778
sVstatusText
p779
VOK
p780
sVcontent
p781
(dp782
VmimeType
p783
Vimage/jpeg
p784
sVcomment
p785
g4
sVsize
p786
I0
ssVheaders
p787
(lp788
sVheadersSize
p789
I392
sVredirectURL
p790
g4
sVbodySize
p791
I9679
sVhttpVersion
p792
VHTTP/1.1
p793
ssa(dp794
Vcomment
p795
g4
sVserverIPAddress
p796
V216.58.216.195
p797
sVpageref
p798
VMiami Heat
p799
sVstartedDateTime
p800
V2017-04-16T08:33:44.501-05:00
p801
sVcache
p802
(dp803
sVrequest
p804
(dp805
Vcomment
p806
g4
sVcookies
p807
(lp808
sVurl
p809
Vhttps://ssl.gstatic.com/onebox/media/sports/videos/nba/RBe5W4L-ads_192x108.jpg
p810
sVqueryString
p811
(lp812
sVheaders
p813
(lp814
sVheadersSize
p815
I393
sVbodySize
p816
I0
sVmethod
p817
VGET
p818
sVhttpVersion
p819
VHTTP/1.1
p820
ssVtimings
p821
(dp822
Vcomment
p823
g4
sVreceive
p824
I0
sVsend
p825
I0
sVssl
p826
I-1
sVconnect
p827
I-1
sVdns
p828
I-1
sVwait
p829
I27
sVblocked
p830
I-1
ssVtime
p831
I28
sVresponse
p832
(dp833
Vstatus
p834
I200
sVcomment
p835
g4
sVcookies
p836
(lp837
sVstatusText
p838
VOK
p839
sVcontent
p840
(dp841
VmimeType
p842
Vimage/jpeg
p843
sVcomment
p844
g4
sVsize
p845
I0
ssVheaders
p846
(lp847
sVheadersSize
p848
I392
sVredirectURL
p849
g4
sVbodySize
p850
I9966
sVhttpVersion
p851
VHTTP/1.1
p852
ssa(dp853
Vcomment
p854
g4
sVserverIPAddress
p855
V216.58.216.196
p856
sVpageref
p857
VMiami Heat
p858
sVstartedDateTime
p859
V2017-04-16T08:33:45.802-05:00
p860
sVcache
p861
(dp862
sVrequest
p863
(dp864
Vcomment
p865
g4
sVcookies
p866
(lp867
sVurl
p868
Vhttps://www.google.com/async/irc?vet=10ahUKEwidjYHJi6nTAhVD_4MKHYgEA1AQo0EI1gI..i&ved=0ahUKEwidjYHJi6nTAhVD_4MKHYgEA1AQo0EI1gI&ei=tnLzWJ3aGsP-jwSIiYyABQ&yv=2&async=iu:1,ved:0ahUKEwidjYHJi6nTAhVD_4MKHYgEA1AQo0EI1gI,_id:irc_async,_pms:qs
p869
sVqueryString
p870
(lp871
(dp872
Vname
p873
Vvet
p874
sVvalue
p875
V10ahUKEwidjYHJi6nTAhVD_4MKHYgEA1AQo0EI1gI..i
p876
sa(dp877
Vname
p878
Vved
p879
sVvalue
p880
V0ahUKEwidjYHJi6nTAhVD_4MKHYgEA1AQo0EI1gI
p881
sa(dp882
Vname
p883
Vei
p884
sVvalue
p885
VtnLzWJ3aGsP-jwSIiYyABQ
p886
sa(dp887
Vname
p888
Vyv
p889
sVvalue
p890
g64
sa(dp891
Vname
p892
Vasync
p893
sVvalue
p894
Viu:1,ved:0ahUKEwidjYHJi6nTAhVD_4MKHYgEA1AQo0EI1gI,_id:irc_async,_pms:qs
p895
sasVheaders
p896
(lp897
sVheadersSize
p898
I752
sVbodySize
p899
I0
sVmethod
p900
VGET
p901
sVhttpVersion
p902
VHTTP/1.1
p903
ssVtimings
p904
(dp905
Vcomment
p906
g4
sVreceive
p907
I0
sVsend
p908
I0
sVssl
p909
I-1
sVconnect
p910
I-1
sVdns
p911
I-1
sVwait
p912
I61
sVblocked
p913
I-1
ssVtime
p914
I62
sVresponse
p915
(dp916
Vstatus
p917
I200
sVcomment
p918
g4
sVcookies
p919
(lp920
sVstatusText
p921
VOK
p922
sVcontent
p923
(dp924
VmimeType
p925
Vtext/html; charset=UTF-8
p926
sVcomment
p927
g4
sVsize
p928
I0
ssVheaders
p929
(lp930
sVheadersSize
p931
I383
sVredirectURL
p932
g4
sVbodySize
p933
I7791
sVhttpVersion
p934
VHTTP/1.1
p935
ssa(dp936
Vcomment
p937
g4
sVserverIPAddress
p938
V216.58.216.196
p939
sVpageref
p940
VMiami Heat
p941
sVstartedDateTime
p942
V2017-04-16T08:33:45.899-05:00
p943
sVcache
p944
(dp945
sVrequest
p946
(dp947
Vcomment
p948
g4
sVcookies
p949
(lp950
sVurl
p951
Vhttps://www.google.com/async/ampfp?vet=10ahUKEwidjYHJi6nTAhVD_4MKHYgEA1AQtZoBCNQC..i&ei=tnLzWJ3aGsP-jwSIiYyABQ&yv=2&async=_id:ampfp-async,_pms:qs
p952
sVqueryString
p953
(lp954
(dp955
Vname
p956
Vvet
p957
sVvalue
p958
V10ahUKEwidjYHJi6nTAhVD_4MKHYgEA1AQtZoBCNQC..i
p959
sa(dp960
Vname
p961
Vei
p962
sVvalue
p963
VtnLzWJ3aGsP-jwSIiYyABQ
p964
sa(dp965
Vname
p966
Vyv
p967
sVvalue
p968
g64
sa(dp969
Vname
p970
Vasync
p971
sVvalue
p972
V_id:ampfp-async,_pms:qs
p973
sasVheaders
p974
(lp975
sVheadersSize
p976
I662
sVbodySize
p977
I0
sVmethod
p978
VGET
p979
sVhttpVersion
p980
VHTTP/1.1
p981
ssVtimings
p982
(dp983
Vcomment
p984
g4
sVreceive
p985
I0
sVsend
p986
I0
sVssl
p987
I-1
sVconnect
p988
I-1
sVdns
p989
I-1
sVwait
p990
I34
sVblocked
p991
I-1
ssVtime
p992
I35
sVresponse
p993
(dp994
Vstatus
p995
I200
sVcomment
p996
g4
sVcookies
p997
(lp998
sVstatusText
p999
VOK
p1000
sVcontent
p1001
(dp1002
VmimeType
p1003
Vtext/html; charset=UTF-8
p1004
sVcomment
p1005
g4
sVsize
p1006
I0
ssVheaders
p1007
(lp1008
sVheadersSize
p1009
I383
sVredirectURL
p1010
g4
sVbodySize
p1011
I4529
sVhttpVersion
p1012
VHTTP/1.1
p1013
ssa(dp1014
Vcomment
p1015
g4
sVserverIPAddress
p1016
V216.58.216.193
p1017
sVpageref
p1018
VMiami Heat
p1019
sVstartedDateTime
p1020
V2017-04-16T08:33:45.902-05:00
p1021
sVcache
p1022
(dp1023
sVrequest
p1024
(dp1025
Vcomment
p1026
g4
sVcookies
p1027
(lp1028
sVurl
p1029
Vhttps://cdn.ampproject.org/preconnect.gif?0.1108294034256293
p1030
sVqueryString
p1031
(lp1032
(dp1033
Vname
p1034
V0.1108294034256293
p1035
sVvalue
p1036
g4
sasVheaders
p1037
(lp1038
sVheadersSize
p1039
I375
sVbodySize
p1040
I0
sVmethod
p1041
VGET
p1042
sVhttpVersion
p1043
VHTTP/1.1
p1044
ssVtimings
p1045
(dp1046
Vcomment
p1047
g4
sVreceive
p1048
I0
sVsend
p1049
I0
sVssl
p1050
I-1
sVconnect
p1051
I-1
sVdns
p1052
I-1
sVwait
p1053
I46
sVblocked
p1054
I-1
ssVtime
p1055
I46
sVresponse
p1056
(dp1057
Vstatus
p1058
I200
sVcomment
p1059
g4
sVcookies
p1060
(lp1061
sVstatusText
p1062
VOK
p1063
sVcontent
p1064
(dp1065
VmimeType
p1066
Vimage/gif
p1067
sVcomment
p1068
g4
sVsize
p1069
I0
ssVheaders
p1070
(lp1071
sVheadersSize
p1072
I826
sVredirectURL
p1073
g4
sVbodySize
p1074
I37
sVhttpVersion
p1075
VHTTP/1.1
p1076
ssa(dp1077
Vcomment
p1078
g4
sVserverIPAddress
p1079
V216.58.216.196
p1080
sVpageref
p1081
VMiami Heat
p1082
sVstartedDateTime
p1083
V2017-04-16T08:33:46.294-05:00
p1084
sVcache
p1085
(dp1086
sVrequest
p1087
(dp1088
Vcomment
p1089
g4
sVcookies
p1090
(lp1091
sVurl
p1092
Vhttps://www.google.com/gen_204?s=web&atyp=csi&ei=tnLzWJ3aGsP-jwSIiYyABQ&imc=70&imn=70&imp=30&adh=&xjs=init.54.16.sb_mob.38.dvl.5.mbsf.2.jsa.2.async.2&ima=16&rt=prt.1089,iml.1273,xjsls.1090,qiml.1350,dcl.1162,xjses.1408,xjsee.1616,xjs.1617,ol.2697,aft.1273,wsrt.146,cst.0,dnst.0,rqst.1085,rspt.976,rqstt.5,unt.5,cstt.5,dit.1264
p1093
sVqueryString
p1094
(lp1095
(dp1096
Vname
p1097
g57
sVvalue
p1098
Vweb
p1099
sa(dp1100
Vname
p1101
Vatyp
p1102
sVvalue
p1103
Vcsi
p1104
sa(dp1105
Vname
p1106
Vei
p1107
sVvalue
p1108
VtnLzWJ3aGsP-jwSIiYyABQ
p1109
sa(dp1110
Vname
p1111
Vimc
p1112
sVvalue
p1113
V70
p1114
sa(dp1115
Vname
p1116
Vimn
p1117
sVvalue
p1118
V70
p1119
sa(dp1120
Vname
p1121
Vimp
p1122
sVvalue
p1123
V30
p1124
sa(dp1125
Vname
p1126
Vadh
p1127
sVvalue
p1128
g4
sa(dp1129
Vname
p1130
Vxjs
p1131
sVvalue
p1132
Vinit.54.16.sb_mob.38.dvl.5.mbsf.2.jsa.2.async.2
p1133
sa(dp1134
Vname
p1135
Vima
p1136
sVvalue
p1137
V16
p1138
sa(dp1139
Vname
p1140
Vrt
p1141
sVvalue
p1142
Vprt.1089,iml.1273,xjsls.1090,qiml.1350,dcl.1162,xjses.1408,xjsee.1616,xjs.1617,ol.2697,aft.1273,wsrt.146,cst.0,dnst.0,rqst.1085,rspt.976,rqstt.5,unt.5,cstt.5,dit.1264
p1143
sasVheaders
p1144
(lp1145
sVheadersSize
p1146
I843
sVbodySize
p1147
I0
sVmethod
p1148
VGET
p1149
sVhttpVersion
p1150
VHTTP/1.1
p1151
ssVtimings
p1152
(dp1153
Vcomment
p1154
g4
sVreceive
p1155
I0
sVsend
p1156
I0
sVssl
p1157
I-1
sVconnect
p1158
I-1
sVdns
p1159
I-1
sVwait
p1160
I119
sVblocked
p1161
I-1
ssVtime
p1162
I120
sVresponse
p1163
(dp1164
Vstatus
p1165
I204
sVcomment
p1166
g4
sVcookies
p1167
(lp1168
sVstatusText
p1169
VNo Content
p1170
sVcontent
p1171
(dp1172
VmimeType
p1173
Vtext/html; charset=UTF-8
p1174
sVcomment
p1175
g4
sVsize
p1176
I0
ssVheaders
p1177
(lp1178
sVheadersSize
p1179
I248
sVredirectURL
p1180
g4
sVbodySize
p1181
I0
sVhttpVersion
p1182
VHTTP/1.1
p1183
ssa(dp1184
Vcomment
p1185
g4
sVserverIPAddress
p1186
V216.58.216.196
p1187
sVpageref
p1188
VMiami Heat
p1189
sVstartedDateTime
p1190
V2017-04-16T08:33:46.358-05:00
p1191
sVcache
p1192
(dp1193
sVrequest
p1194
(dp1195
Vcomment
p1196
g4
sVcookies
p1197
(lp1198
sVurl
p1199
Vhttps://www.google.com/async/log_amp_item_set?vet=10ahUKEwj_25bKi6nTAhWG34MKHTpwDwAQooQBCAE..i&ei=tnLzWJ3aGsP-jwSIiYyABQ&yv=2&async=num_items:1,_fmt:jspb
p1200
sVqueryString
p1201
(lp1202
(dp1203
Vname
p1204
Vvet
p1205
sVvalue
p1206
V10ahUKEwj_25bKi6nTAhWG34MKHTpwDwAQooQBCAE..i
p1207
sa(dp1208
Vname
p1209
Vei
p1210
sVvalue
p1211
VtnLzWJ3aGsP-jwSIiYyABQ
p1212
sa(dp1213
Vname
p1214
Vyv
p1215
sVvalue
p1216
g64
sa(dp1217
Vname
p1218
Vasync
p1219
sVvalue
p1220
Vnum_items:1,_fmt:jspb
p1221
sasVheaders
p1222
(lp1223
sVheadersSize
p1224
I670
sVbodySize
p1225
I0
sVmethod
p1226
VGET
p1227
sVhttpVersion
p1228
VHTTP/1.1
p1229
ssVtimings
p1230
(dp1231
Vcomment
p1232
g4
sVreceive
p1233
I0
sVsend
p1234
I0
sVssl
p1235
I-1
sVconnect
p1236
I-1
sVdns
p1237
I-1
sVwait
p1238
I79
sVblocked
p1239
I-1
ssVtime
p1240
I79
sVresponse
p1241
(dp1242
Vstatus
p1243
I200
sVcomment
p1244
g4
sVcookies
p1245
(lp1246
sVstatusText
p1247
VOK
p1248
sVcontent
p1249
(dp1250
VmimeType
p1251
Vapplication/json; charset=UTF-8
p1252
sVcomment
p1253
g4
sVsize
p1254
I0
ssVheaders
p1255
(lp1256
sVheadersSize
p1257
I417
sVredirectURL
p1258
g4
sVbodySize
p1259
I132
sVhttpVersion
p1260
VHTTP/1.1
p1261
ssa(dp1262
Vcomment
p1263
g4
sVserverIPAddress
p1264
V172.217.0.1
p1265
sVpageref
p1266
VMiami Heat
p1267
sVstartedDateTime
p1268
V2017-04-16T08:33:46.365-05:00
p1269
sVcache
p1270
(dp1271
sVrequest
p1272
(dp1273
Vcomment
p1274
g4
sVcookies
p1275
(lp1276
sVurl
p1277
Vhttps://syndication-bleacherreport-com.cdn.ampproject.org/v/s/syndication.bleacherreport.com/amp/miami-heat?amp_js_v=9
p1278
sVqueryString
p1279
(lp1280
(dp1281
Vname
p1282
Vamp_js_v
p1283
sVvalue
p1284
V9
p1285
sasVheaders
p1286
(lp1287
sVheadersSize
p1288
I523
sVbodySize
p1289
I0
sVmethod
p1290
VGET
p1291
sVhttpVersion
p1292
VHTTP/1.1
p1293
ssVtimings
p1294
(dp1295
Vcomment
p1296
g4
sVreceive
p1297
I1
sVsend
p1298
I0
sVssl
p1299
I-1
sVconnect
p1300
I-1
sVdns
p1301
I-1
sVwait
p1302
I71
sVblocked
p1303
I-1
ssVtime
p1304
I73
sVresponse
p1305
(dp1306
Vstatus
p1307
I200
sVcomment
p1308
g4
sVcookies
p1309
(lp1310
sVstatusText
p1311
VOK
p1312
sVcontent
p1313
(dp1314
VmimeType
p1315
Vtext/html
p1316
sVcomment
p1317
g4
sVsize
p1318
I0
ssVheaders
p1319
(lp1320
sVheadersSize
p1321
I860
sVredirectURL
p1322
g4
sVbodySize
p1323
I11868
sVhttpVersion
p1324
VHTTP/1.1
p1325
ssa(dp1326
Vcomment
p1327
g4
sVserverIPAddress
p1328
V172.217.0.1
p1329
sVpageref
p1330
VMiami Heat
p1331
sVstartedDateTime
p1332
V2017-04-16T08:33:46.467-05:00
p1333
sVcache
p1334
(dp1335
sVrequest
p1336
(dp1337
Vcomment
p1338
g4
sVcookies
p1339
(lp1340
sVurl
p1341
Vhttps://cdn-bleacherreport-net.cdn.ampproject.org/i/cdn.bleacherreport.net/images/team_logos/164x164/washington_wizards.png
p1342
sVqueryString
p1343
(lp1344
sVheaders
p1345
(lp1346
sVheadersSize
p1347
I533
sVbodySize
p1348
I0
sVmethod
p1349
VGET
p1350
sVhttpVersion
p1351
VHTTP/1.1
p1352
ssVtimings
p1353
(dp1354
Vcomment
p1355
g4
sVreceive
p1356
I2
sVsend
p1357
I0
sVssl
p1358
I-1
sVconnect
p1359
I-1
sVdns
p1360
I-1
sVwait
p1361
I24
sVblocked
p1362
I-1
ssVtime
p1363
I27
sVresponse
p1364
(dp1365
Vstatus
p1366
I200
sVcomment
p1367
g4
sVcookies
p1368
(lp1369
sVstatusText
p1370
VOK
p1371
sVcontent
p1372
(dp1373
VmimeType
p1374
Vimage/png
p1375
sVcomment
p1376
g4
sVsize
p1377
I0
ssVheaders
p1378
(lp1379
sVheadersSize
p1380
I821
sVredirectURL
p1381
g4
sVbodySize
p1382
I3175
sVhttpVersion
p1383
VHTTP/1.1
p1384
ssa(dp1385
Vcomment
p1386
g4
sVserverIPAddress
p1387
V172.217.0.1
p1388
sVpageref
p1389
VMiami Heat
p1390
sVstartedDateTime
p1391
V2017-04-16T08:33:46.468-05:00
p1392
sVcache
p1393
(dp1394
sVrequest
p1395
(dp1396
Vcomment
p1397
g4
sVcookies
p1398
(lp1399
sVurl
p1400
Vhttps://cdn-bleacherreport-net.cdn.ampproject.org/i/cdn.bleacherreport.net/images/team_logos/164x164/miami_heat.png
p1401
sVqueryString
p1402
(lp1403
sVheaders
p1404
(lp1405
sVheadersSize
p1406
I525
sVbodySize
p1407
I0
sVmethod
p1408
VGET
p1409
sVhttpVersion
p1410
VHTTP/1.1
p1411
ssVtimings
p1412
(dp1413
Vcomment
p1414
g4
sVreceive
p1415
I2
sVsend
p1416
I0
sVssl
p1417
I-1
sVconnect
p1418
I-1
sVdns
p1419
I-1
sVwait
p1420
I33
sVblocked
p1421
I-1
ssVtime
p1422
I36
sVresponse
p1423
(dp1424
Vstatus
p1425
I200
sVcomment
p1426
g4
sVcookies
p1427
(lp1428
sVstatusText
p1429
VOK
p1430
sVcontent
p1431
(dp1432
VmimeType
p1433
Vimage/png
p1434
sVcomment
p1435
g4
sVsize
p1436
I0
ssVheaders
p1437
(lp1438
sVheadersSize
p1439
I821
sVredirectURL
p1440
g4
sVbodySize
p1441
I5338
sVhttpVersion
p1442
VHTTP/1.1
p1443
ssa(dp1444
Vcomment
p1445
g4
sVserverIPAddress
p1446
V172.217.0.1
p1447
sVpageref
p1448
VMiami Heat
p1449
sVstartedDateTime
p1450
V2017-04-16T08:33:46.473-05:00
p1451
sVcache
p1452
(dp1453
sVrequest
p1454
(dp1455
Vcomment
p1456
g4
sVcookies
p1457
(lp1458
sVurl
p1459
Vhttps://cdn-bleacherreport-net.cdn.ampproject.org/i/cdn.bleacherreport.net/images/team_logos/164x164/cleveland_cavaliers.png
p1460
sVqueryString
p1461
(lp1462
sVheaders
p1463
(lp1464
sVheadersSize
p1465
I534
sVbodySize
p1466
I0
sVmethod
p1467
VGET
p1468
sVhttpVersion
p1469
VHTTP/1.1
p1470
ssVtimings
p1471
(dp1472
Vcomment
p1473
g4
sVreceive
p1474
I0
sVsend
p1475
I0
sVssl
p1476
I-1
sVconnect
p1477
I-1
sVdns
p1478
I-1
sVwait
p1479
I34
sVblocked
p1480
I-1
ssVtime
p1481
I34
sVresponse
p1482
(dp1483
Vstatus
p1484
I200
sVcomment
p1485
g4
sVcookies
p1486
(lp1487
sVstatusText
p1488
VOK
p1489
sVcontent
p1490
(dp1491
VmimeType
p1492
Vimage/png
p1493
sVcomment
p1494
g4
sVsize
p1495
I0
ssVheaders
p1496
(lp1497
sVheadersSize
p1498
I821
sVredirectURL
p1499
g4
sVbodySize
p1500
I6810
sVhttpVersion
p1501
VHTTP/1.1
p1502
ssa(dp1503
Vcomment
p1504
g4
sVserverIPAddress
p1505
V172.217.0.1
p1506
sVpageref
p1507
VMiami Heat
p1508
sVstartedDateTime
p1509
V2017-04-16T08:33:46.476-05:00
p1510
sVcache
p1511
(dp1512
sVrequest
p1513
(dp1514
Vcomment
p1515
g4
sVcookies
p1516
(lp1517
sVurl
p1518
Vhttps://cdn-bleacherreport-net.cdn.ampproject.org/i/cdn.bleacherreport.net/images/team_logos/164x164/toronto_raptors.png
p1519
sVqueryString
p1520
(lp1521
sVheaders
p1522
(lp1523
sVheadersSize
p1524
I530
sVbodySize
p1525
I0
sVmethod
p1526
VGET
p1527
sVhttpVersion
p1528
VHTTP/1.1
p1529
ssVtimings
p1530
(dp1531
Vcomment
p1532
g4
sVreceive
p1533
I1
sVsend
p1534
I0
sVssl
p1535
I-1
sVconnect
p1536
I-1
sVdns
p1537
I-1
sVwait
p1538
I27
sVblocked
p1539
I-1
ssVtime
p1540
I28
sVresponse
p1541
(dp1542
Vstatus
p1543
I200
sVcomment
p1544
g4
sVcookies
p1545
(lp1546
sVstatusText
p1547
VOK
p1548
sVcontent
p1549
(dp1550
VmimeType
p1551
Vimage/png
p1552
sVcomment
p1553
g4
sVsize
p1554
I0
ssVheaders
p1555
(lp1556
sVheadersSize
p1557
I821
sVredirectURL
p1558
g4
sVbodySize
p1559
I2958
sVhttpVersion
p1560
VHTTP/1.1
p1561
ssa(dp1562
Vcomment
p1563
g4
sVserverIPAddress
p1564
V172.217.0.1
p1565
sVpageref
p1566
VMiami Heat
p1567
sVstartedDateTime
p1568
V2017-04-16T08:33:46.477-05:00
p1569
sVcache
p1570
(dp1571
sVrequest
p1572
(dp1573
Vcomment
p1574
g4
sVcookies
p1575
(lp1576
sVurl
p1577
Vhttps://cdn-bleacherreport-net.cdn.ampproject.org/i/cdn.bleacherreport.net/images/team_logos/164x164/charlotte_hornets.png
p1578
sVqueryString
p1579
(lp1580
sVheaders
p1581
(lp1582
sVheadersSize
p1583
I532
sVbodySize
p1584
I0
sVmethod
p1585
VGET
p1586
sVhttpVersion
p1587
VHTTP/1.1
p1588
ssVtimings
p1589
(dp1590
Vcomment
p1591
g4
sVreceive
p1592
I6
sVsend
p1593
I0
sVssl
p1594
I-1
sVconnect
p1595
I-1
sVdns
p1596
I-1
sVwait
p1597
I31
sVblocked
p1598
I-1
ssVtime
p1599
I37
sVresponse
p1600
(dp1601
Vstatus
p1602
I200
sVcomment
p1603
g4
sVcookies
p1604
(lp1605
sVstatusText
p1606
VOK
p1607
sVcontent
p1608
(dp1609
VmimeType
p1610
Vimage/png
p1611
sVcomment
p1612
g4
sVsize
p1613
I0
ssVheaders
p1614
(lp1615
sVheadersSize
p1616
I821
sVredirectURL
p1617
g4
sVbodySize
p1618
I7228
sVhttpVersion
p1619
VHTTP/1.1
p1620
ssa(dp1621
Vcomment
p1622
g4
sVserverIPAddress
p1623
V172.217.0.1
p1624
sVpageref
p1625
VMiami Heat
p1626
sVstartedDateTime
p1627
V2017-04-16T08:33:46.479-05:00
p1628
sVcache
p1629
(dp1630
sVrequest
p1631
(dp1632
Vcomment
p1633
g4
sVcookies
p1634
(lp1635
sVurl
p1636
Vhttps://cdn-bleacherreport-net.cdn.ampproject.org/i/cdn.bleacherreport.net/images/team_logos/164x164/denver_nuggets.png
p1637
sVqueryString
p1638
(lp1639
sVheaders
p1640
(lp1641
sVheadersSize
p1642
I529
sVbodySize
p1643
I0
sVmethod
p1644
VGET
p1645
sVhttpVersion
p1646
VHTTP/1.1
p1647
ssVtimings
p1648
(dp1649
Vcomment
p1650
g4
sVreceive
p1651
I2
sVsend
p1652
I0
sVssl
p1653
I-1
sVconnect
p1654
I-1
sVdns
p1655
I-1
sVwait
p1656
I33
sVblocked
p1657
I-1
ssVtime
p1658
I36
sVresponse
p1659
(dp1660
Vstatus
p1661
I200
sVcomment
p1662
g4
sVcookies
p1663
(lp1664
sVstatusText
p1665
VOK
p1666
sVcontent
p1667
(dp1668
VmimeType
p1669
Vimage/png
p1670
sVcomment
p1671
g4
sVsize
p1672
I0
ssVheaders
p1673
(lp1674
sVheadersSize
p1675
I821
sVredirectURL
p1676
g4
sVbodySize
p1677
I7103
sVhttpVersion
p1678
VHTTP/1.1
p1679
ssa(dp1680
Vcomment
p1681
g4
sVserverIPAddress
p1682
V172.217.0.1
p1683
sVpageref
p1684
VMiami Heat
p1685
sVstartedDateTime
p1686
V2017-04-16T08:33:46.496-05:00
p1687
sVcache
p1688
(dp1689
sVrequest
p1690
(dp1691
Vcomment
p1692
g4
sVcookies
p1693
(lp1694
sVurl
p1695
Vhttps://cdn-bleacherreport-net.cdn.ampproject.org/i/cdn.bleacherreport.net/images/team_logos/164x164/new_york_knicks.png
p1696
sVqueryString
p1697
(lp1698
sVheaders
p1699
(lp1700
sVheadersSize
p1701
I530
sVbodySize
p1702
I0
sVmethod
p1703
VGET
p1704
sVhttpVersion
p1705
VHTTP/1.1
p1706
ssVtimings
p1707
(dp1708
Vcomment
p1709
g4
sVreceive
p1710
I3
sVsend
p1711
I0
sVssl
p1712
I-1
sVconnect
p1713
I-1
sVdns
p1714
I-1
sVwait
p1715
I39
sVblocked
p1716
I-1
ssVtime
p1717
I43
sVresponse
p1718
(dp1719
Vstatus
p1720
I200
sVcomment
p1721
g4
sVcookies
p1722
(lp1723
sVstatusText
p1724
VOK
p1725
sVcontent
p1726
(dp1727
VmimeType
p1728
Vimage/png
p1729
sVcomment
p1730
g4
sVsize
p1731
I0
ssVheaders
p1732
(lp1733
sVheadersSize
p1734
I821
sVredirectURL
p1735
g4
sVbodySize
p1736
I7282
sVhttpVersion
p1737
VHTTP/1.1
p1738
ssa(dp1739
Vcomment
p1740
g4
sVserverIPAddress
p1741
V172.217.0.1
p1742
sVpageref
p1743
VMiami Heat
p1744
sVstartedDateTime
p1745
V2017-04-16T08:33:46.741-05:00
p1746
sVcache
p1747
(dp1748
sVrequest
p1749
(dp1750
Vcomment
p1751
g4
sVcookies
p1752
(lp1753
sVurl
p1754
Vhttps://cdn-bleacherreport-net.cdn.ampproject.org/ii/w150/cdn.bleacherreport.net/images/team_logos/150x150/miami_heat.png
p1755
sVqueryString
p1756
(lp1757
sVheaders
p1758
(lp1759
sVheadersSize
p1760
I531
sVbodySize
p1761
I0
sVmethod
p1762
VGET
p1763
sVhttpVersion
p1764
VHTTP/1.1
p1765
ssVtimings
p1766
(dp1767
Vcomment
p1768
g4
sVreceive
p1769
I1
sVsend
p1770
I0
sVssl
p1771
I-1
sVconnect
p1772
I-1
sVdns
p1773
I-1
sVwait
p1774
I58
sVblocked
p1775
I-1
ssVtime
p1776
I59
sVresponse
p1777
(dp1778
Vstatus
p1779
I200
sVcomment
p1780
g4
sVcookies
p1781
(lp1782
sVstatusText
p1783
VOK
p1784
sVcontent
p1785
(dp1786
VmimeType
p1787
Vimage/png
p1788
sVcomment
p1789
g4
sVsize
p1790
I0
ssVheaders
p1791
(lp1792
sVheadersSize
p1793
I821
sVredirectURL
p1794
g4
sVbodySize
p1795
I4690
sVhttpVersion
p1796
VHTTP/1.1
p1797
ssa(dp1798
Vcomment
p1799
g4
sVserverIPAddress
p1800
V172.217.0.1
p1801
sVpageref
p1802
VMiami Heat
p1803
sVstartedDateTime
p1804
V2017-04-16T08:33:46.747-05:00
p1805
sVcache
p1806
(dp1807
sVrequest
p1808
(dp1809
Vcomment
p1810
g4
sVcookies
p1811
(lp1812
sVurl
p1813
Vhttps://img-bleacherreport-net.cdn.ampproject.org/i/s/img.bleacherreport.net/cms/media/image/2e/d0/f8/1c/d669/45f3/a582/e11fbf2fc766/crop_exact_GettyImages-663907330.jpg?h=2190&q=90&w=3278
p1814
sVqueryString
p1815
(lp1816
(dp1817
Vname
p1818
Vh
p1819
sVvalue
p1820
V2190
p1821
sa(dp1822
Vname
p1823
g415
sVvalue
p1824
V90
p1825
sa(dp1826
Vname
p1827
Vw
p1828
sVvalue
p1829
V3278
p1830
sasVheaders
p1831
(lp1832
sVheadersSize
p1833
I598
sVbodySize
p1834
I0
sVmethod
p1835
VGET
p1836
sVhttpVersion
p1837
VHTTP/1.1
p1838
ssVtimings
p1839
(dp1840
Vcomment
p1841
g4
sVreceive
p1842
I44
sVsend
p1843
I0
sVssl
p1844
I-1
sVconnect
p1845
I-1
sVdns
p1846
I-1
sVwait
p1847
I234
sVblocked
p1848
I-1
ssVtime
p1849
I278
sVresponse
p1850
(dp1851
Vstatus
p1852
I200
sVcomment
p1853
g4
sVcookies
p1854
(lp1855
sVstatusText
p1856
VOK
p1857
sVcontent
p1858
(dp1859
VmimeType
p1860
Vimage/jpeg
p1861
sVcomment
p1862
g4
sVsize
p1863
I0
ssVheaders
p1864
(lp1865
sVheadersSize
p1866
I849
sVredirectURL
p1867
g4
sVbodySize
p1868
I203925
sVhttpVersion
p1869
VHTTP/1.1
p1870
ssa(dp1871
Vcomment
p1872
g4
sVserverIPAddress
p1873
V216.58.216.196
p1874
sVpageref
p1875
VMiami Heat
p1876
sVstartedDateTime
p1877
V2017-04-16T08:33:47.912-05:00
p1878
sVcache
p1879
(dp1880
sVrequest
p1881
(dp1882
Vcomment
p1883
g4
sVcookies
p1884
(lp1885
sVurl
p1886
Vhttps://www.google.com/gen_204?atyp=i&ct=slh&cad=&ei=oXLzWJypDOXCjwT637vQAQ&m=V&t=C&s=1&v=2&pv=0.4724837960293815&me=1:1492349605970,x:2,V,0,0,1280,944:0,N,1,oXLzWJypDOXCjwT637vQAQ:0,R,1,24,0,155,1197,647:0,R,1,25,0,155,1197,645:0,R,1,78,8,810,1264,677:0,R,1,79,8,810,1264,677:0,R,1,82,8,823,1264,40:0,R,1,95,8,875,1264,178:0,R,1,98,0,891,1280,197:2,B,3521:16464,e,U&zx=1492349627864
p1887
sVqueryString
p1888
(lp1889
(dp1890
Vname
p1891
Vatyp
p1892
sVvalue
p1893
g30
sa(dp1894
Vname
p1895
Vct
p1896
sVvalue
p1897
Vslh
p1898
sa(dp1899
Vname
p1900
Vcad
p1901
sVvalue
p1902
g4
sa(dp1903
Vname
p1904
Vei
p1905
sVvalue
p1906
VoXLzWJypDOXCjwT637vQAQ
p1907
sa(dp1908
Vname
p1909
g47
sVvalue
p1910
g49
sa(dp1911
Vname
p1912
g52
sVvalue
p1913
g54
sa(dp1914
Vname
p1915
g57
sVvalue
p1916
g59
sa(dp1917
Vname
p1918
g62
sVvalue
p1919
g64
sa(dp1920
Vname
p1921
Vpv
p1922
sVvalue
p1923
V0.4724837960293815
p1924
sa(dp1925
Vname
p1926
Vme
p1927
sVvalue
p1928
V1:1492349605970,x:2,V,0,0,1280,944:0,N,1,oXLzWJypDOXCjwT637vQAQ:0,R,1,24,0,155,1197,647:0,R,1,25,0,155,1197,645:0,R,1,78,8,810,1264,677:0,R,1,79,8,810,1264,677:0,R,1,82,8,823,1264,40:0,R,1,95,8,875,1264,178:0,R,1,98,0,891,1280,197:2,B,3521:16464,e,U
p1929
sa(dp1930
Vname
p1931
Vzx
p1932
sVvalue
p1933
V1492349627864
p1934
sasVheaders
p1935
(lp1936
sVheadersSize
p1937
I900
sVbodySize
p1938
I0
sVmethod
p1939
VGET
p1940
sVhttpVersion
p1941
VHTTP/1.1
p1942
ssVtimings
p1943
(dp1944
Vcomment
p1945
g4
sVreceive
p1946
I0
sVsend
p1947
I0
sVssl
p1948
I-1
sVconnect
p1949
I-1
sVdns
p1950
I-1
sVwait
p1951
I31
sVblocked
p1952
I-1
ssVtime
p1953
I32
sVresponse
p1954
(dp1955
Vstatus
p1956
I204
sVcomment
p1957
g4
sVcookies
p1958
(lp1959
sVstatusText
p1960
VNo Content
p1961
sVcontent
p1962
(dp1963
VmimeType
p1964
Vtext/html; charset=UTF-8
p1965
sVcomment
p1966
g4
sVsize
p1967
I0
ssVheaders
p1968
(lp1969
sVheadersSize
p1970
I248
sVredirectURL
p1971
g4
sVbodySize
p1972
I0
sVhttpVersion
p1973
VHTTP/1.1
p1974
ssasVversion
p1975
V1.2
p1976
sVpages
p1977
(lp1978
(dp1979
VpageTimings
p1980
(dp1981
Vcomment
p1982
g4
ssVcomment
p1983
g4
sVtitle
p1984
VMiami Heat
p1985
sVid
p1986
VMiami Heat
p1987
sVstartedDateTime
p1988
V2017-04-16T08:33:42.430-05:00
p1989
sasVcreator
p1990
(dp1991
Vcomment
p1992
g4
sVversion
p1993
V2.1.4
p1994
sVname
p1995
VBrowserMob Proxy
p1996
sss.