(dp0
Vlog
p1
(dp2
Vcomment
p3
V
p4
sVentries
p5
(lp6
(dp7
Vcomment
p8
g4
sVserverIPAddress
p9
V74.125.70.106
p10
sVpageref
p11
VRolls-Royce
p12
sVstartedDateTime
p13
V2017-04-16T08:49:26.795-05:00
p14
sVcache
p15
(dp16
sVrequest
p17
(dp18
Vcomment
p19
g4
sVcookies
p20
(lp21
sVurl
p22
Vhttps://www.google.com/gen_204?atyp=i&ct=slh&cad=&ei=WnbzWKmnLYOcjwSjx6nYAg&m=V&t=C&s=1&v=2&pv=0.6130888281499436&me=1:1492350558627,x:3,V,0,0,1280,944:0,N,1,WnbzWKmnLYOcjwSjx6nYAg:0,R,1,22,8,155,1249,235:0,R,1,37,0,400,1197,624:0,R,1,38,0,400,1197,622:0,R,1,58,0,400,1197,200:0,R,1,59,0,400,1197,200:0,R,1,80,0,613,1197,20:0,R,1,85,0,657,1197,20:0,R,1,100,0,757,1197,57:0,R,1,105,0,839,1197,36:0,R,1,108,0,892,1197,47:3,B,3866:8161,e,U&zx=1492350566794
p23
sVqueryString
p24
(lp25
(dp26
Vname
p27
Vatyp
p28
sVvalue
p29
Vi
p30
sa(dp31
Vname
p32
Vct
p33
sVvalue
p34
Vslh
p35
sa(dp36
Vname
p37
Vcad
p38
sVvalue
p39
g4
sa(dp40
Vname
p41
Vei
p42
sVvalue
p43
VWnbzWKmnLYOcjwSjx6nYAg
p44
sa(dp45
Vname
p46
Vm
p47
sVvalue
p48
VV
p49
sa(dp50
Vname
p51
Vt
p52
sVvalue
p53
VC
p54
sa(dp55
Vname
p56
Vs
p57
sVvalue
p58
V1
p59
sa(dp60
Vname
p61
Vv
p62
sVvalue
p63
V2
p64
sa(dp65
Vname
p66
Vpv
p67
sVvalue
p68
V0.6130888281499436
p69
sa(dp70
Vname
p71
Vme
p72
sVvalue
p73
V1:1492350558627,x:3,V,0,0,1280,944:0,N,1,WnbzWKmnLYOcjwSjx6nYAg:0,R,1,22,8,155,1249,235:0,R,1,37,0,400,1197,624:0,R,1,38,0,400,1197,622:0,R,1,58,0,400,1197,200:0,R,1,59,0,400,1197,200:0,R,1,80,0,613,1197,20:0,R,1,85,0,657,1197,20:0,R,1,100,0,757,1197,57:0,R,1,105,0,839,1197,36:0,R,1,108,0,892,1197,47:3,B,3866:8161,e,U
p74
sa(dp75
Vname
p76
Vzx
p77
sVvalue
p78
V1492350566794
p79
sasVheaders
p80
(lp81
sVheadersSize
p82
I970
sVbodySize
p83
I0
sVmethod
p84
VGET
p85
sVhttpVersion
p86
VHTTP/1.1
p87
ssVtimings
p88
(dp89
Vcomment
p90
g4
sVreceive
p91
I0
sVsend
p92
I0
sVssl
p93
I-1
sVconnect
p94
I-1
sVdns
p95
I-1
sVwait
p96
I0
sVblocked
p97
I-1
ssVtime
p98
I0
sVresponse
p99
(dp100
Vstatus
p101
I0
sVcomment
p102
g4
sVcookies
p103
(lp104
sV_error
p105
VNo response received
p106
sVstatusText
p107
g4
sVcontent
p108
(dp109
VmimeType
p110
g4
sVcomment
p111
g4
sVsize
p112
I0
ssVheaders
p113
(lp114
sVheadersSize
p115
I-1
sVredirectURL
p116
g4
sVbodySize
p117
I-1
sVhttpVersion
p118
Vunknown
p119
ssa(dp120
Vcomment
p121
g4
sVserverIPAddress
p122
V74.125.70.106
p123
sVpageref
p124
VRolls-Royce
p125
sVstartedDateTime
p126
V2017-04-16T08:49:26.796-05:00
p127
sVcache
p128
(dp129
sVrequest
p130
(dp131
Vcomment
p132
g4
sVcookies
p133
(lp134
sVurl
p135
Vhttps://www.google.com/gen_204?atyp=i&ct=slh&cad=&ei=SHbzWJ3KIuzZjwTZ-LvQDA&m=V&t=C&s=1&v=2&pv=0.7970961535757144&me=1:1492350540310,x:2,V,0,0,1280,944:0,N,1,SHbzWJ3KIuzZjwTZ-LvQDA:0,R,1,24,8,155,1249,337:0,R,1,25,8,155,1249,317:0,R,1,26,8,155,1249,90:0,R,1,47,8,502,1249,445:0,R,1,51,8,615,1249,332:0,R,1,52,0,616,1265,351:2,B,4086:13813,e,U&zx=1492350566795
p136
sVqueryString
p137
(lp138
(dp139
Vname
p140
Vatyp
p141
sVvalue
p142
g30
sa(dp143
Vname
p144
Vct
p145
sVvalue
p146
Vslh
p147
sa(dp148
Vname
p149
Vcad
p150
sVvalue
p151
g4
sa(dp152
Vname
p153
Vei
p154
sVvalue
p155
VSHbzWJ3KIuzZjwTZ-LvQDA
p156
sa(dp157
Vname
p158
g47
sVvalue
p159
g49
sa(dp160
Vname
p161
g52
sVvalue
p162
g54
sa(dp163
Vname
p164
g57
sVvalue
p165
g59
sa(dp166
Vname
p167
g62
sVvalue
p168
g64
sa(dp169
Vname
p170
Vpv
p171
sVvalue
p172
V0.7970961535757144
p173
sa(dp174
Vname
p175
Vme
p176
sVvalue
p177
V1:1492350540310,x:2,V,0,0,1280,944:0,N,1,SHbzWJ3KIuzZjwTZ-LvQDA:0,R,1,24,8,155,1249,337:0,R,1,25,8,155,1249,317:0,R,1,26,8,155,1249,90:0,R,1,47,8,502,1249,445:0,R,1,51,8,615,1249,332:0,R,1,52,0,616,1265,351:2,B,4086:13813,e,U
p178
sa(dp179
Vname
p180
Vzx
p181
sVvalue
p182
V1492350566795
p183
sasVheaders
p184
(lp185
sVheadersSize
p186
I876
sVbodySize
p187
I0
sVmethod
p188
VGET
p189
sVhttpVersion
p190
VHTTP/1.1
p191
ssVtimings
p192
(dp193
Vcomment
p194
g4
sVreceive
p195
I0
sVsend
p196
I0
sVssl
p197
I-1
sVconnect
p198
I-1
sVdns
p199
I-1
sVwait
p200
I0
sVblocked
p201
I-1
ssVtime
p202
I0
sVresponse
p203
(dp204
Vstatus
p205
I0
sVcomment
p206
g4
sVcookies
p207
(lp208
sV_error
p209
VNo response received
p210
sVstatusText
p211
g4
sVcontent
p212
(dp213
VmimeType
p214
g4
sVcomment
p215
g4
sVsize
p216
I0
ssVheaders
p217
(lp218
sVheadersSize
p219
I-1
sVredirectURL
p220
g4
sVbodySize
p221
I-1
sVhttpVersion
p222
Vunknown
p223
ssa(dp224
Vcomment
p225
g4
sVserverIPAddress
p226
V74.125.70.106
p227
sVpageref
p228
VRolls-Royce
p229
sVstartedDateTime
p230
V2017-04-16T08:49:26.800-05:00
p231
sVcache
p232
(dp233
sVrequest
p234
(dp235
Vcomment
p236
g4
sVcookies
p237
(lp238
sVurl
p239
Vhttp://www.google.com/
p240
sVqueryString
p241
(lp242
sVheaders
p243
(lp244
sVheadersSize
p245
I613
sVbodySize
p246
I0
sVmethod
p247
VGET
p248
sVhttpVersion
p249
VHTTP/1.1
p250
ssVtimings
p251
(dp252
Vcomment
p253
g4
sVreceive
p254
I0
sVsend
p255
I0
sVssl
p256
I-1
sVconnect
p257
I-1
sVdns
p258
I-1
sVwait
p259
I37
sVblocked
p260
I-1
ssVtime
p261
I37
sVresponse
p262
(dp263
Vstatus
p264
I302
sVcomment
p265
g4
sVcookies
p266
(lp267
sVstatusText
p268
VFound
p269
sVcontent
p270
(dp271
VmimeType
p272
Vtext/html; charset=UTF-8
p273
sVcomment
p274
g4
sVsize
p275
I0
ssVheaders
p276
(lp277
sVheadersSize
p278
I609
sVredirectURL
p279
Vhttps://www.google.com/?gws_rd=ssl
p280
sVbodySize
p281
I231
sVhttpVersion
p282
VHTTP/1.1
p283
ssa(dp284
Vcomment
p285
g4
sVserverIPAddress
p286
V74.125.70.106
p287
sVpageref
p288
VRolls-Royce
p289
sVstartedDateTime
p290
V2017-04-16T08:49:26.845-05:00
p291
sVcache
p292
(dp293
sVrequest
p294
(dp295
Vcomment
p296
g4
sVcookies
p297
(lp298
sVurl
p299
Vhttps://www.google.com/?gws_rd=ssl
p300
sVqueryString
p301
(lp302
(dp303
Vname
p304
Vgws_rd
p305
sVvalue
p306
Vssl
p307
sasVheaders
p308
(lp309
sVheadersSize
p310
I607
sVbodySize
p311
I0
sVmethod
p312
VGET
p313
sVhttpVersion
p314
VHTTP/1.1
p315
ssVtimings
p316
(dp317
Vcomment
p318
g4
sVreceive
p319
I122
sVsend
p320
I0
sVssl
p321
I-1
sVconnect
p322
I-1
sVdns
p323
I-1
sVwait
p324
I67
sVblocked
p325
I-1
ssVtime
p326
I190
sVresponse
p327
(dp328
Vstatus
p329
I200
sVcomment
p330
g4
sVcookies
p331
(lp332
sVstatusText
p333
VOK
p334
sVcontent
p335
(dp336
VmimeType
p337
Vtext/html; charset=UTF-8
p338
sVcomment
p339
g4
sVsize
p340
I0
ssVheaders
p341
(lp342
sVheadersSize
p343
I721
sVredirectURL
p344
g4
sVbodySize
p345
I34291
sVhttpVersion
p346
VHTTP/1.1
p347
ssa(dp348
Vcomment
p349
g4
sVserverIPAddress
p350
V74.125.70.106
p351
sVpageref
p352
VRolls-Royce
p353
sVstartedDateTime
p354
V2017-04-16T08:49:27.191-05:00
p355
sVcache
p356
(dp357
sVrequest
p358
(dp359
Vcomment
p360
g4
sVcookies
p361
(lp362
sVurl
p363
Vhttps://www.google.com/gen_204?s=mobilewebhp&atyp=csi&ei=ZXbzWLWjMuSXjwSnr4PACA&imc=1&imn=1&imp=0&adh=&xjs=init.26.12.sb_mob.20.c.2.dvl.2.mbsf.1.foot.1&ima=1&rt=xjsls.9,prt.9,iml.9,xjses.76,xjsee.155,xjs.156,dcl.204,ol.242,aft.9,wsrt.152,cst.0,dnst.0,rqst.195,rspt.125,rqstt.50,unt.47,cstt.47,dit.351
p364
sVqueryString
p365
(lp366
(dp367
Vname
p368
g57
sVvalue
p369
Vmobilewebhp
p370
sa(dp371
Vname
p372
Vatyp
p373
sVvalue
p374
Vcsi
p375
sa(dp376
Vname
p377
Vei
p378
sVvalue
p379
VZXbzWLWjMuSXjwSnr4PACA
p380
sa(dp381
Vname
p382
Vimc
p383
sVvalue
p384
g59
sa(dp385
Vname
p386
Vimn
p387
sVvalue
p388
g59
sa(dp389
Vname
p390
Vimp
p391
sVvalue
p392
V0
p393
sa(dp394
Vname
p395
Vadh
p396
sVvalue
p397
g4
sa(dp398
Vname
p399
Vxjs
p400
sVvalue
p401
Vinit.26.12.sb_mob.20.c.2.dvl.2.mbsf.1.foot.1
p402
sa(dp403
Vname
p404
Vima
p405
sVvalue
p406
g59
sa(dp407
Vname
p408
Vrt
p409
sVvalue
p410
Vxjsls.9,prt.9,iml.9,xjses.76,xjsee.155,xjs.156,dcl.204,ol.242,aft.9,wsrt.152,cst.0,dnst.0,rqst.195,rspt.125,rqstt.50,unt.47,cstt.47,dit.351
p411
sasVheaders
p412
(lp413
sVheadersSize
p414
I828
sVbodySize
p415
I0
sVmethod
p416
VGET
p417
sVhttpVersion
p418
VHTTP/1.1
p419
ssVtimings
p420
(dp421
Vcomment
p422
g4
sVreceive
p423
I0
sVsend
p424
I0
sVssl
p425
I-1
sVconnect
p426
I-1
sVdns
p427
I-1
sVwait
p428
I50
sVblocked
p429
I-1
ssVtime
p430
I50
sVresponse
p431
(dp432
Vstatus
p433
I204
sVcomment
p434
g4
sVcookies
p435
(lp436
sVstatusText
p437
VNo Content
p438
sVcontent
p439
(dp440
VmimeType
p441
Vtext/html; charset=UTF-8
p442
sVcomment
p443
g4
sVsize
p444
I0
ssVheaders
p445
(lp446
sVheadersSize
p447
I248
sVredirectURL
p448
g4
sVbodySize
p449
I0
sVhttpVersion
p450
VHTTP/1.1
p451
ssa(dp452
Vcomment
p453
g4
sVserverIPAddress
p454
V74.125.70.106
p455
sVpageref
p456
VRolls-Royce
p457
sVstartedDateTime
p458
V2017-04-16T08:49:27.321-05:00
p459
sVcache
p460
(dp461
sVrequest
p462
(dp463
Vcomment
p464
g4
sVcookies
p465
(lp466
sVurl
p467
Vhttps://www.google.com/complete/search?client=mobile-gws-hp&hl=en&gs_rn=64&gs_ri=mobile-gws-hp&sla=1&gm=602&cp=0&gs_id=1&xhr=t&q=R&tch=1&ech=1&psi=ZXbzWLWjMuSXjwSnr4PACA.1492350567075.1
p468
sVqueryString
p469
(lp470
(dp471
Vname
p472
Vclient
p473
sVvalue
p474
Vmobile-gws-hp
p475
sa(dp476
Vname
p477
Vhl
p478
sVvalue
p479
Ven
p480
sa(dp481
Vname
p482
Vgs_rn
p483
sVvalue
p484
V64
p485
sa(dp486
Vname
p487
Vgs_ri
p488
sVvalue
p489
Vmobile-gws-hp
p490
sa(dp491
Vname
p492
Vsla
p493
sVvalue
p494
g59
sa(dp495
Vname
p496
Vgm
p497
sVvalue
p498
V602
p499
sa(dp500
Vname
p501
Vcp
p502
sVvalue
p503
g393
sa(dp504
Vname
p505
Vgs_id
p506
sVvalue
p507
g59
sa(dp508
Vname
p509
Vxhr
p510
sVvalue
p511
g52
sa(dp512
Vname
p513
Vq
p514
sVvalue
p515
VR
p516
sa(dp517
Vname
p518
Vtch
p519
sVvalue
p520
g59
sa(dp521
Vname
p522
Vech
p523
sVvalue
p524
g59
sa(dp525
Vname
p526
Vpsi
p527
sVvalue
p528
VZXbzWLWjMuSXjwSnr4PACA.1492350567075.1
p529
sasVheaders
p530
(lp531
sVheadersSize
p532
I713
sVbodySize
p533
I0
sVmethod
p534
VGET
p535
sVhttpVersion
p536
VHTTP/1.1
p537
ssVtimings
p538
(dp539
Vcomment
p540
g4
sVreceive
p541
I0
sVsend
p542
I0
sVssl
p543
I-1
sVconnect
p544
I-1
sVdns
p545
I-1
sVwait
p546
I0
sVblocked
p547
I-1
ssVtime
p548
I0
sVresponse
p549
(dp550
Vstatus
p551
I0
sVcomment
p552
g4
sVcookies
p553
(lp554
sV_error
p555
VNo response received
p556
sVstatusText
p557
g4
sVcontent
p558
(dp559
VmimeType
p560
g4
sVcomment
p561
g4
sVsize
p562
I0
ssVheaders
p563
(lp564
sVheadersSize
p565
I-1
sVredirectURL
p566
g4
sVbodySize
p567
I-1
sVhttpVersion
p568
Vunknown
p569
ssa(dp570
Vcomment
p571
g4
sVserverIPAddress
p572
V74.125.70.106
p573
sVpageref
p574
VRolls-Royce
p575
sVstartedDateTime
p576
V2017-04-16T08:49:27.436-05:00
p577
sVcache
p578
(dp579
sVrequest
p580
(dp581
Vcomment
p582
g4
sVcookies
p583
(lp584
sVurl
p585
Vhttps://www.google.com/search?site=&source=hp&ei=ZXbzWLWjMuSXjwSnr4PACA&q=Rolls-Royce&oq=Rolls-Royce&gs_l=mobile-gws-hp.3...224.252.0.286.11.1.0.0.0.0.0.0..0.0....0...1c.1.64.mobile-gws-hp..11.0.0.TW2jlyINm6E
p586
sVqueryString
p587
(lp588
(dp589
Vname
p590
Vsite
p591
sVvalue
p592
g4
sa(dp593
Vname
p594
Vsource
p595
sVvalue
p596
Vhp
p597
sa(dp598
Vname
p599
Vei
p600
sVvalue
p601
VZXbzWLWjMuSXjwSnr4PACA
p602
sa(dp603
Vname
p604
g514
sVvalue
p605
VRolls-Royce
p606
sa(dp607
Vname
p608
Voq
p609
sVvalue
p610
VRolls-Royce
p611
sa(dp612
Vname
p613
Vgs_l
p614
sVvalue
p615
Vmobile-gws-hp.3...224.252.0.286.11.1.0.0.0.0.0.0..0.0....0...1c.1.64.mobile-gws-hp..11.0.0.TW2jlyINm6E
p616
sasVheaders
p617
(lp618
sVheadersSize
p619
I826
sVbodySize
p620
I0
sVmethod
p621
VGET
p622
sVhttpVersion
p623
VHTTP/1.1
p624
ssVtimings
p625
(dp626
Vcomment
p627
g4
sVreceive
p628
I1232
sVsend
p629
I0
sVssl
p630
I28
sVconnect
p631
I48
sVdns
p632
I0
sVwait
p633
I350
sVblocked
p634
I0
ssVtime
p635
I1632
sVresponse
p636
(dp637
Vstatus
p638
I200
sVcomment
p639
g4
sVcookies
p640
(lp641
sVstatusText
p642
VOK
p643
sVcontent
p644
(dp645
VmimeType
p646
Vtext/html; charset=UTF-8
p647
sVcomment
p648
g4
sVsize
p649
I0
ssVheaders
p650
(lp651
sVheadersSize
p652
I363
sVredirectURL
p653
g4
sVbodySize
p654
I254323
sVhttpVersion
p655
VHTTP/1.1
p656
ssa(dp657
Vcomment
p658
g4
sVserverIPAddress
p659
V74.125.70.106
p660
sVpageref
p661
VRolls-Royce
p662
sVstartedDateTime
p663
V2017-04-16T08:49:30.501-05:00
p664
sVcache
p665
(dp666
sVrequest
p667
(dp668
Vcomment
p669
g4
sVcookies
p670
(lp671
sVurl
p672
Vhttps://www.google.com/gen_204?atyp=i&ct=&cad=udla=1&ei=ZnbzWMP4JOSLjwS7mLOoAQ&b=0&act=p&ps=0&zx=1492350570498
p673
sVqueryString
p674
(lp675
(dp676
Vname
p677
Vatyp
p678
sVvalue
p679
g30
sa(dp680
Vname
p681
Vct
p682
sVvalue
p683
g4
sa(dp684
Vname
p685
Vcad
p686
sVvalue
p687
Vudla=1
p688
sa(dp689
Vname
p690
Vei
p691
sVvalue
p692
VZnbzWMP4JOSLjwS7mLOoAQ
p693
sa(dp694
Vname
p695
Vb
p696
sVvalue
p697
g393
sa(dp698
Vname
p699
Vact
p700
sVvalue
p701
Vp
p702
sa(dp703
Vname
p704
Vps
p705
sVvalue
p706
g393
sa(dp707
Vname
p708
Vzx
p709
sVvalue
p710
V1492350570498
p711
sasVheaders
p712
(lp713
sVheadersSize
p714
I627
sVbodySize
p715
I0
sVmethod
p716
VGET
p717
sVhttpVersion
p718
VHTTP/1.1
p719
ssVtimings
p720
(dp721
Vcomment
p722
g4
sVreceive
p723
I0
sVsend
p724
I0
sVssl
p725
I-1
sVconnect
p726
I-1
sVdns
p727
I-1
sVwait
p728
I28
sVblocked
p729
I-1
ssVtime
p730
I28
sVresponse
p731
(dp732
Vstatus
p733
I204
sVcomment
p734
g4
sVcookies
p735
(lp736
sVstatusText
p737
VNo Content
p738
sVcontent
p739
(dp740
VmimeType
p741
Vtext/html; charset=UTF-8
p742
sVcomment
p743
g4
sVsize
p744
I0
ssVheaders
p745
(lp746
sVheadersSize
p747
I248
sVredirectURL
p748
g4
sVbodySize
p749
I0
sVhttpVersion
p750
VHTTP/1.1
p751
ssa(dp752
Vcomment
p753
g4
sVserverIPAddress
p754
V74.125.70.106
p755
sVpageref
p756
VRolls-Royce
p757
sVstartedDateTime
p758
V2017-04-16T08:49:31.030-05:00
p759
sVcache
p760
(dp761
sVrequest
p762
(dp763
Vcomment
p764
g4
sVcookies
p765
(lp766
sVurl
p767
Vhttps://www.google.com/xjs/_/js/k=xjs.qs.en_US.pCBXVCvTH3s.O/m=syl,syj,syn,em3,em8,em6,em7,sym,aa,abd,sy2g,sy2k,sy29,sy2j,sy2d,sy2a,sy2c,sy2f,sy2l,sy2m,sy2n,emd,async,sybn,sybi,sybo,sy1f,sy45,sy46,sy9w,sybk,sybj,sybp,sy1g,sy30,sy47,sybm,sybl,sybq,sy1h,sybh,dvl,syep,foot,ipv6,sy32,emj,shm,sy5g,sy5i,sy5k,sykh,tl,sy2x,sy2y,sy2t,sy38,em12,vs,sy5j,sy5h,sy6u,sy66,sy67,sy7d,sy7j,sy4u,sy69,sy89,sy7e,sykk,sykl,tnv,bct,sy23,sy6t,nvm,sy9m,syac,sy24,sy4g,sy9b,sy9n,syhz,syl6,ssc,twt,sy5o,sy5r,sy2u,sy5u,sy5t,sy33,sy34,sy2w,sy31,sy2z,sy7l,sy4v,sy6z,sy4l,sy37,sy2r,sy35,sy6q,sy7t,sy50,sy71,sy7f,sy7o,syah,syai,syak,syal,alc,sy1r,syaj,flum,sy4d,sy4f,sy4c,sy4e,sy4b,syd7,dgm,sy1y,sy3x,sy22,sy6p,sy3w,sy6i,syav,syaw,syb0,sy2o,sy6j,syb1,syaz,sy25,syao,sy2v,sy36,sy3z,syau,syb2,syb3,syay,syax,sy8x,syag,syb7,emb,em9,ema,sy2i,sy6k,syam,syaq,syat,syb4,syb5,syb6,sybc,sybg,lrl,lcm,mexp,sy48,sy3a,sy3c,sy5b,sy4x,sybd,sybe,sybt,sy2p,sy56,sybf,sybr,sybs,mlm,sy4z,sy4y,sy5d,sy5e,llmr,akpc,gldm,sy6n,flpm,sy5a,syan,syap,flmm,sy7y,sy7u,sy7w,sy87,sy7p,sy81,sy7q,sy7s,sy7z,sy82,sy85,sy83,sy26,sy5n,syas,syb8,syba,sybb,inf,lcts,rliv,skp,llmu,iulc,syf5,sy99,syf4,syfc,syfn,syf7,syff,sy1i,sy68,sy8d,syf6,syfl,syfr,syfq,syfg,sy1j,sy4q,sy8h,syc7,syc8,syfb,syfj,syfs,syft,syg3,syg5,syg7,emn,emo,syg4,syg6,ivg,iuci,img,sy6l,sy6h,sy6m,qkx,sy6w,shrb,sy41,tcc,sygq,kpc,kpci,sy4h,vrml,sy6y,sycu,d3l,sy5z,atn,sya3,sya2,sy4i,sya1,sya4,ampfp/am=gCP4LtMEBXQA2RUaq_oFBISzAFA/rt=j/d=0/t=zcms/rs=ACT90oFwm4NZCwIcuuiqmthdlECdBzkhRA
p768
sVqueryString
p769
(lp770
sVheaders
p771
(lp772
sVheadersSize
p773
I2003
sVbodySize
p774
I0
sVmethod
p775
VGET
p776
sVhttpVersion
p777
VHTTP/1.1
p778
ssVtimings
p779
(dp780
Vcomment
p781
g4
sVreceive
p782
I49
sVsend
p783
I0
sVssl
p784
I-1
sVconnect
p785
I-1
sVdns
p786
I-1
sVwait
p787
I93
sVblocked
p788
I-1
ssVtime
p789
I142
sVresponse
p790
(dp791
Vstatus
p792
I200
sVcomment
p793
g4
sVcookies
p794
(lp795
sVstatusText
p796
VOK
p797
sVcontent
p798
(dp799
VmimeType
p800
Vtext/javascript; charset=UTF-8
p801
sVcomment
p802
g4
sVsize
p803
I0
ssVheaders
p804
(lp805
sVheadersSize
p806
I452
sVredirectURL
p807
g4
sVbodySize
p808
I198919
sVhttpVersion
p809
VHTTP/1.1
p810
ssa(dp811
Vcomment
p812
g4
sVserverIPAddress
p813
V74.125.70.106
p814
sVpageref
p815
VRolls-Royce
p816
sVstartedDateTime
p817
V2017-04-16T08:49:31.425-05:00
p818
sVcache
p819
(dp820
sVrequest
p821
(dp822
Vcomment
p823
g4
sVcookies
p824
(lp825
sVurl
p826
Vhttps://www.google.com/async/irc?vet=10ahUKEwjDw5yLj6nTAhXkxYMKHTvMDBUQo0EIvwI..i&ved=0ahUKEwjDw5yLj6nTAhXkxYMKHTvMDBUQo0EIvwI&ei=ZnbzWMP4JOSLjwS7mLOoAQ&yv=2&async=iu:1,ved:0ahUKEwjDw5yLj6nTAhXkxYMKHTvMDBUQo0EIvwI,_id:irc_async,_pms:qs
p827
sVqueryString
p828
(lp829
(dp830
Vname
p831
Vvet
p832
sVvalue
p833
V10ahUKEwjDw5yLj6nTAhXkxYMKHTvMDBUQo0EIvwI..i
p834
sa(dp835
Vname
p836
Vved
p837
sVvalue
p838
V0ahUKEwjDw5yLj6nTAhXkxYMKHTvMDBUQo0EIvwI
p839
sa(dp840
Vname
p841
Vei
p842
sVvalue
p843
VZnbzWMP4JOSLjwS7mLOoAQ
p844
sa(dp845
Vname
p846
Vyv
p847
sVvalue
p848
g64
sa(dp849
Vname
p850
Vasync
p851
sVvalue
p852
Viu:1,ved:0ahUKEwjDw5yLj6nTAhXkxYMKHTvMDBUQo0EIvwI,_id:irc_async,_pms:qs
p853
sasVheaders
p854
(lp855
sVheadersSize
p856
I752
sVbodySize
p857
I0
sVmethod
p858
VGET
p859
sVhttpVersion
p860
VHTTP/1.1
p861
ssVtimings
p862
(dp863
Vcomment
p864
g4
sVreceive
p865
I1
sVsend
p866
I0
sVssl
p867
I-1
sVconnect
p868
I-1
sVdns
p869
I-1
sVwait
p870
I40
sVblocked
p871
I-1
ssVtime
p872
I41
sVresponse
p873
(dp874
Vstatus
p875
I200
sVcomment
p876
g4
sVcookies
p877
(lp878
sVstatusText
p879
VOK
p880
sVcontent
p881
(dp882
VmimeType
p883
Vtext/html; charset=UTF-8
p884
sVcomment
p885
g4
sVsize
p886
I0
ssVheaders
p887
(lp888
sVheadersSize
p889
I383
sVredirectURL
p890
g4
sVbodySize
p891
I7792
sVhttpVersion
p892
VHTTP/1.1
p893
ssa(dp894
Vcomment
p895
g4
sVserverIPAddress
p896
V74.125.70.106
p897
sVpageref
p898
VRolls-Royce
p899
sVstartedDateTime
p900
V2017-04-16T08:49:31.537-05:00
p901
sVcache
p902
(dp903
sVrequest
p904
(dp905
Vcomment
p906
g4
sVcookies
p907
(lp908
sVurl
p909
Vhttps://www.google.com/async/ampfp?vet=10ahUKEwjDw5yLj6nTAhXkxYMKHTvMDBUQtZoBCL0C..i&ei=ZnbzWMP4JOSLjwS7mLOoAQ&yv=2&async=_id:ampfp-async,_pms:qs
p910
sVqueryString
p911
(lp912
(dp913
Vname
p914
Vvet
p915
sVvalue
p916
V10ahUKEwjDw5yLj6nTAhXkxYMKHTvMDBUQtZoBCL0C..i
p917
sa(dp918
Vname
p919
Vei
p920
sVvalue
p921
VZnbzWMP4JOSLjwS7mLOoAQ
p922
sa(dp923
Vname
p924
Vyv
p925
sVvalue
p926
g64
sa(dp927
Vname
p928
Vasync
p929
sVvalue
p930
V_id:ampfp-async,_pms:qs
p931
sasVheaders
p932
(lp933
sVheadersSize
p934
I662
sVbodySize
p935
I0
sVmethod
p936
VGET
p937
sVhttpVersion
p938
VHTTP/1.1
p939
ssVtimings
p940
(dp941
Vcomment
p942
g4
sVreceive
p943
I1
sVsend
p944
I0
sVssl
p945
I-1
sVconnect
p946
I-1
sVdns
p947
I-1
sVwait
p948
I42
sVblocked
p949
I-1
ssVtime
p950
I44
sVresponse
p951
(dp952
Vstatus
p953
I200
sVcomment
p954
g4
sVcookies
p955
(lp956
sVstatusText
p957
VOK
p958
sVcontent
p959
(dp960
VmimeType
p961
Vtext/html; charset=UTF-8
p962
sVcomment
p963
g4
sVsize
p964
I0
ssVheaders
p965
(lp966
sVheadersSize
p967
I383
sVredirectURL
p968
g4
sVbodySize
p969
I4524
sVhttpVersion
p970
VHTTP/1.1
p971
ssa(dp972
Vcomment
p973
g4
sVserverIPAddress
p974
V216.58.216.193
p975
sVpageref
p976
VRolls-Royce
p977
sVstartedDateTime
p978
V2017-04-16T08:49:31.538-05:00
p979
sVcache
p980
(dp981
sVrequest
p982
(dp983
Vcomment
p984
g4
sVcookies
p985
(lp986
sVurl
p987
Vhttps://cdn.ampproject.org/preconnect.gif?0.9032051104693296
p988
sVqueryString
p989
(lp990
(dp991
Vname
p992
V0.9032051104693296
p993
sVvalue
p994
g4
sasVheaders
p995
(lp996
sVheadersSize
p997
I375
sVbodySize
p998
I0
sVmethod
p999
VGET
p1000
sVhttpVersion
p1001
VHTTP/1.1
p1002
ssVtimings
p1003
(dp1004
Vcomment
p1005
g4
sVreceive
p1006
I0
sVsend
p1007
I0
sVssl
p1008
I-1
sVconnect
p1009
I-1
sVdns
p1010
I-1
sVwait
p1011
I32
sVblocked
p1012
I-1
ssVtime
p1013
I33
sVresponse
p1014
(dp1015
Vstatus
p1016
I200
sVcomment
p1017
g4
sVcookies
p1018
(lp1019
sVstatusText
p1020
VOK
p1021
sVcontent
p1022
(dp1023
VmimeType
p1024
Vimage/gif
p1025
sVcomment
p1026
g4
sVsize
p1027
I0
ssVheaders
p1028
(lp1029
sVheadersSize
p1030
I826
sVredirectURL
p1031
g4
sVbodySize
p1032
I37
sVhttpVersion
p1033
VHTTP/1.1
p1034
ssa(dp1035
Vcomment
p1036
g4
sVserverIPAddress
p1037
V216.58.216.206
p1038
sVpageref
p1039
VRolls-Royce
p1040
sVstartedDateTime
p1041
V2017-04-16T08:49:31.560-05:00
p1042
sVcache
p1043
(dp1044
sVrequest
p1045
(dp1046
Vcomment
p1047
g4
sVcookies
p1048
(lp1049
sVurl
p1050
Vhttps://encrypted-tbn2.gstatic.com/images?q=tbn:ANd9GcRI6J7gkWYGcVhkmZDj6VnEgQ0AkNk6qeZ8m3NgNx04XWqep_WmUpu4zCpi
p1051
sVqueryString
p1052
(lp1053
(dp1054
Vname
p1055
g514
sVvalue
p1056
Vtbn:ANd9GcRI6J7gkWYGcVhkmZDj6VnEgQ0AkNk6qeZ8m3NgNx04XWqep_WmUpu4zCpi
p1057
sasVheaders
p1058
(lp1059
sVheadersSize
p1060
I427
sVbodySize
p1061
I0
sVmethod
p1062
VGET
p1063
sVhttpVersion
p1064
VHTTP/1.1
p1065
ssVtimings
p1066
(dp1067
Vcomment
p1068
g4
sVreceive
p1069
I1
sVsend
p1070
I0
sVssl
p1071
I-1
sVconnect
p1072
I-1
sVdns
p1073
I-1
sVwait
p1074
I13
sVblocked
p1075
I-1
ssVtime
p1076
I15
sVresponse
p1077
(dp1078
Vstatus
p1079
I200
sVcomment
p1080
g4
sVcookies
p1081
(lp1082
sVstatusText
p1083
VOK
p1084
sVcontent
p1085
(dp1086
VmimeType
p1087
Vimage/jpeg
p1088
sVcomment
p1089
g4
sVsize
p1090
I0
ssVheaders
p1091
(lp1092
sVheadersSize
p1093
I429
sVredirectURL
p1094
g4
sVbodySize
p1095
I5698
sVhttpVersion
p1096
VHTTP/1.1
p1097
ssa(dp1098
Vcomment
p1099
g4
sVserverIPAddress
p1100
V216.58.216.206
p1101
sVpageref
p1102
VRolls-Royce
p1103
sVstartedDateTime
p1104
V2017-04-16T08:49:31.561-05:00
p1105
sVcache
p1106
(dp1107
sVrequest
p1108
(dp1109
Vcomment
p1110
g4
sVcookies
p1111
(lp1112
sVurl
p1113
Vhttps://encrypted-tbn0.gstatic.com/images?q=tbn:ANd9GcTa_i4HUPSAeNraQNnlxDqjIplGkRfec7KOSq0HR68nknMZN-2jtvzGZzOceA
p1114
sVqueryString
p1115
(lp1116
(dp1117
Vname
p1118
g514
sVvalue
p1119
Vtbn:ANd9GcTa_i4HUPSAeNraQNnlxDqjIplGkRfec7KOSq0HR68nknMZN-2jtvzGZzOceA
p1120
sasVheaders
p1121
(lp1122
sVheadersSize
p1123
I429
sVbodySize
p1124
I0
sVmethod
p1125
VGET
p1126
sVhttpVersion
p1127
VHTTP/1.1
p1128
ssVtimings
p1129
(dp1130
Vcomment
p1131
g4
sVreceive
p1132
I1
sVsend
p1133
I0
sVssl
p1134
I-1
sVconnect
p1135
I-1
sVdns
p1136
I-1
sVwait
p1137
I13
sVblocked
p1138
I-1
ssVtime
p1139
I15
sVresponse
p1140
(dp1141
Vstatus
p1142
I200
sVcomment
p1143
g4
sVcookies
p1144
(lp1145
sVstatusText
p1146
VOK
p1147
sVcontent
p1148
(dp1149
VmimeType
p1150
Vimage/jpeg
p1151
sVcomment
p1152
g4
sVsize
p1153
I0
ssVheaders
p1154
(lp1155
sVheadersSize
p1156
I428
sVredirectURL
p1157
g4
sVbodySize
p1158
I3758
sVhttpVersion
p1159
VHTTP/1.1
p1160
ssa(dp1161
Vcomment
p1162
g4
sVserverIPAddress
p1163
V216.58.216.206
p1164
sVpageref
p1165
VRolls-Royce
p1166
sVstartedDateTime
p1167
V2017-04-16T08:49:31.610-05:00
p1168
sVcache
p1169
(dp1170
sVrequest
p1171
(dp1172
Vcomment
p1173
g4
sVcookies
p1174
(lp1175
sVurl
p1176
Vhttps://encrypted-tbn0.gstatic.com/images?q=tbn:ANd9GcQ9gAGYzpjaY3-8eL1r7PTdksik912RmzbsKmy1VJrjdA2yU-XvmeM-yC7ScA
p1177
sVqueryString
p1178
(lp1179
(dp1180
Vname
p1181
g514
sVvalue
p1182
Vtbn:ANd9GcQ9gAGYzpjaY3-8eL1r7PTdksik912RmzbsKmy1VJrjdA2yU-XvmeM-yC7ScA
p1183
sasVheaders
p1184
(lp1185
sVheadersSize
p1186
I429
sVbodySize
p1187
I0
sVmethod
p1188
VGET
p1189
sVhttpVersion
p1190
VHTTP/1.1
p1191
ssVtimings
p1192
(dp1193
Vcomment
p1194
g4
sVreceive
p1195
I0
sVsend
p1196
I0
sVssl
p1197
I27
sVconnect
p1198
I45
sVdns
p1199
I1
sVwait
p1200
I13
sVblocked
p1201
I0
ssVtime
p1202
I62
sVresponse
p1203
(dp1204
Vstatus
p1205
I200
sVcomment
p1206
g4
sVcookies
p1207
(lp1208
sVstatusText
p1209
VOK
p1210
sVcontent
p1211
(dp1212
VmimeType
p1213
Vimage/jpeg
p1214
sVcomment
p1215
g4
sVsize
p1216
I0
ssVheaders
p1217
(lp1218
sVheadersSize
p1219
I428
sVredirectURL
p1220
g4
sVbodySize
p1221
I7189
sVhttpVersion
p1222
VHTTP/1.1
p1223
ssa(dp1224
Vcomment
p1225
g4
sVserverIPAddress
p1226
V74.125.70.106
p1227
sVpageref
p1228
VRolls-Royce
p1229
sVstartedDateTime
p1230
V2017-04-16T08:49:31.614-05:00
p1231
sVcache
p1232
(dp1233
sVrequest
p1234
(dp1235
Vcomment
p1236
g4
sVcookies
p1237
(lp1238
sVurl
p1239
Vhttps://www.google.com/gen_204/local?ei=ZnbzWMP4JOSLjwS7mLOoAQ&tm_n=pt&tm=814
p1240
sVqueryString
p1241
(lp1242
(dp1243
Vname
p1244
Vei
p1245
sVvalue
p1246
VZnbzWMP4JOSLjwS7mLOoAQ
p1247
sa(dp1248
Vname
p1249
Vtm_n
p1250
sVvalue
p1251
Vpt
p1252
sa(dp1253
Vname
p1254
Vtm
p1255
sVvalue
p1256
V814
p1257
sasVheaders
p1258
(lp1259
sVheadersSize
p1260
I859
sVbodySize
p1261
I0
sVmethod
p1262
VPOST
p1263
sVhttpVersion
p1264
VHTTP/1.1
p1265
ssVtimings
p1266
(dp1267
Vcomment
p1268
g4
sVreceive
p1269
I0
sVsend
p1270
I0
sVssl
p1271
I-1
sVconnect
p1272
I-1
sVdns
p1273
I-1
sVwait
p1274
I31
sVblocked
p1275
I-1
ssVtime
p1276
I32
sVresponse
p1277
(dp1278
Vstatus
p1279
I204
sVcomment
p1280
g4
sVcookies
p1281
(lp1282
sVstatusText
p1283
VNo Content
p1284
sVcontent
p1285
(dp1286
VmimeType
p1287
Vtext/html; charset=UTF-8
p1288
sVcomment
p1289
g4
sVsize
p1290
I0
ssVheaders
p1291
(lp1292
sVheadersSize
p1293
I290
sVredirectURL
p1294
g4
sVbodySize
p1295
I0
sVhttpVersion
p1296
VHTTP/1.1
p1297
ssa(dp1298
Vcomment
p1299
g4
sVserverIPAddress
p1300
V74.125.70.106
p1301
sVpageref
p1302
VRolls-Royce
p1303
sVstartedDateTime
p1304
V2017-04-16T08:49:31.657-05:00
p1305
sVcache
p1306
(dp1307
sVrequest
p1308
(dp1309
Vcomment
p1310
g4
sVcookies
p1311
(lp1312
sVurl
p1313
Vhttps://www.google.com/gen_204/local?ei=ZnbzWMP4JOSLjwS7mLOoAQ&tm_n=lrl_init&tm=4
p1314
sVqueryString
p1315
(lp1316
(dp1317
Vname
p1318
Vei
p1319
sVvalue
p1320
VZnbzWMP4JOSLjwS7mLOoAQ
p1321
sa(dp1322
Vname
p1323
Vtm_n
p1324
sVvalue
p1325
Vlrl_init
p1326
sa(dp1327
Vname
p1328
Vtm
p1329
sVvalue
p1330
V4
p1331
sasVheaders
p1332
(lp1333
sVheadersSize
p1334
I863
sVbodySize
p1335
I0
sVmethod
p1336
VPOST
p1337
sVhttpVersion
p1338
VHTTP/1.1
p1339
ssVtimings
p1340
(dp1341
Vcomment
p1342
g4
sVreceive
p1343
I0
sVsend
p1344
I0
sVssl
p1345
I-1
sVconnect
p1346
I-1
sVdns
p1347
I-1
sVwait
p1348
I30
sVblocked
p1349
I-1
ssVtime
p1350
I30
sVresponse
p1351
(dp1352
Vstatus
p1353
I204
sVcomment
p1354
g4
sVcookies
p1355
(lp1356
sVstatusText
p1357
VNo Content
p1358
sVcontent
p1359
(dp1360
VmimeType
p1361
Vtext/html; charset=UTF-8
p1362
sVcomment
p1363
g4
sVsize
p1364
I0
ssVheaders
p1365
(lp1366
sVheadersSize
p1367
I290
sVredirectURL
p1368
g4
sVbodySize
p1369
I0
sVhttpVersion
p1370
VHTTP/1.1
p1371
ssa(dp1372
Vcomment
p1373
g4
sVserverIPAddress
p1374
V74.125.70.104
p1375
sVpageref
p1376
VRolls-Royce
p1377
sVstartedDateTime
p1378
V2017-04-16T08:49:31.702-05:00
p1379
sVcache
p1380
(dp1381
sVrequest
p1382
(dp1383
Vcomment
p1384
g4
sVcookies
p1385
(lp1386
sVurl
p1387
Vhttps://www.google.com/async/log_amp_item_set?vet=10ahUKEwiY1IuNj6nTAhXH24MKHWOqARUQooQBCAE..i&ei=ZnbzWMP4JOSLjwS7mLOoAQ&yv=2&async=num_items:2,_fmt:jspb
p1388
sVqueryString
p1389
(lp1390
(dp1391
Vname
p1392
Vvet
p1393
sVvalue
p1394
V10ahUKEwiY1IuNj6nTAhXH24MKHWOqARUQooQBCAE..i
p1395
sa(dp1396
Vname
p1397
Vei
p1398
sVvalue
p1399
VZnbzWMP4JOSLjwS7mLOoAQ
p1400
sa(dp1401
Vname
p1402
Vyv
p1403
sVvalue
p1404
g64
sa(dp1405
Vname
p1406
Vasync
p1407
sVvalue
p1408
Vnum_items:2,_fmt:jspb
p1409
sasVheaders
p1410
(lp1411
sVheadersSize
p1412
I670
sVbodySize
p1413
I0
sVmethod
p1414
VGET
p1415
sVhttpVersion
p1416
VHTTP/1.1
p1417
ssVtimings
p1418
(dp1419
Vcomment
p1420
g4
sVreceive
p1421
I0
sVsend
p1422
I0
sVssl
p1423
I-1
sVconnect
p1424
I-1
sVdns
p1425
I-1
sVwait
p1426
I36
sVblocked
p1427
I-1
ssVtime
p1428
I36
sVresponse
p1429
(dp1430
Vstatus
p1431
I200
sVcomment
p1432
g4
sVcookies
p1433
(lp1434
sVstatusText
p1435
VOK
p1436
sVcontent
p1437
(dp1438
VmimeType
p1439
Vapplication/json; charset=UTF-8
p1440
sVcomment
p1441
g4
sVsize
p1442
I0
ssVheaders
p1443
(lp1444
sVheadersSize
p1445
I417
sVredirectURL
p1446
g4
sVbodySize
p1447
I141
sVhttpVersion
p1448
VHTTP/1.1
p1449
ssa(dp1450
Vcomment
p1451
g4
sVserverIPAddress
p1452
V74.125.70.104
p1453
sVpageref
p1454
VRolls-Royce
p1455
sVstartedDateTime
p1456
V2017-04-16T08:49:31.740-05:00
p1457
sVcache
p1458
(dp1459
sVrequest
p1460
(dp1461
Vcomment
p1462
g4
sVcookies
p1463
(lp1464
sVurl
p1465
Vhttps://www.google.com/maps/vt/data=RfCSdfNZ0LFPrHSm0ublXdzhdrDFhtmHhN1u-gM,X31FFzEAIhzK71QXCh4bpdxXJyNZpWk_boQqnVoEnt2eVzs4AvSGU9BxB8WN2XM1VfFOzuFrX7dvbI5iGL0Nas8SkfJukWyDDTpLH8_e9KRVwWOVnufwO3y7TNFNAiN19OER90I-Kk4jySuldJfFH-YLfZzlHkb2jwXHOtkkb7zbNOUBMfJSEWNahD9rLsoAuqQT736hKNfqtskYMegmJ9c019HJHZRjwmmnG2vWgWhAGTsl0bkFUEin-wNuLbvGgolbHJMvr3iZKg_BSc5uZG7CGTuNtAKRDk0qQj2PvEhgl31SCV4SeIU-oCW4J93VfhMX-qxe93eq2TeuVCa-cUmmUhfEvEQ,swES-JbB3NYka1H69BK05ngjxY8?h=120&w=1265&scale=1
p1466
sVqueryString
p1467
(lp1468
(dp1469
Vname
p1470
Vh
p1471
sVvalue
p1472
V120
p1473
sa(dp1474
Vname
p1475
Vw
p1476
sVvalue
p1477
V1265
p1478
sa(dp1479
Vname
p1480
Vscale
p1481
sVvalue
p1482
g59
sasVheaders
p1483
(lp1484
sVheadersSize
p1485
I993
sVbodySize
p1486
I0
sVmethod
p1487
VGET
p1488
sVhttpVersion
p1489
VHTTP/1.1
p1490
ssVtimings
p1491
(dp1492
Vcomment
p1493
g4
sVreceive
p1494
I26
sVsend
p1495
I0
sVssl
p1496
I32
sVconnect
p1497
I70
sVdns
p1498
I1
sVwait
p1499
I72
sVblocked
p1500
I0
ssVtime
p1501
I171
sVresponse
p1502
(dp1503
Vstatus
p1504
I200
sVcomment
p1505
g4
sVcookies
p1506
(lp1507
sVstatusText
p1508
VOK
p1509
sVcontent
p1510
(dp1511
VmimeType
p1512
Vimage/png
p1513
sVcomment
p1514
g4
sVsize
p1515
I0
ssVheaders
p1516
(lp1517
sVheadersSize
p1518
I479
sVredirectURL
p1519
g4
sVbodySize
p1520
I22072
sVhttpVersion
p1521
VHTTP/1.1
p1522
ssa(dp1523
Vcomment
p1524
g4
sVserverIPAddress
p1525
V74.125.70.104
p1526
sVpageref
p1527
VRolls-Royce
p1528
sVstartedDateTime
p1529
V2017-04-16T08:49:31.740-05:00
p1530
sVcache
p1531
(dp1532
sVrequest
p1533
(dp1534
Vcomment
p1535
g4
sVcookies
p1536
(lp1537
sVurl
p1538
Vhttps://www.google.com/maps/vt/data=RfCSdfNZ0LFPrHSm0ublXdzhdrDFhtmHhN1u-gM,X31FFzEAIhzK71QXCh4bpdxXJyNZpWk_boQqnVoEnt2eVzs4AvSGU9BxB8WN2XM1VfFOzuFrX7dvbI5iGL0Nas8SkfJukWyDDTpLH8_e9KRVwWOVnufwO3y7TNFNAiN19OER90I-Kk4jySuldJfFH-YLfZzlHkb2jwXHOtkkb7zbNOUBMfJSEWNahD9rLsoAuqQT736hKNfqtskYMegmJ9c019HJHZRjwmmnG2vWgWhAGTsl0bkFUEin-wNuLbvGgolbHJMvr3iZKg_BSc5uZG7CGTuNtAKRDk0qQj2PvEhgl31SCV4SeIU-oCW4J93VfhMX-qxe93eq2TeuVCa-cUmmUhfEvEQ,spt0xCSy-wzxzCsmYH6q-6Xav2E?h=120&w=1024&scale=2
p1539
sVqueryString
p1540
(lp1541
(dp1542
Vname
p1543
g1471
sVvalue
p1544
V120
p1545
sa(dp1546
Vname
p1547
g1476
sVvalue
p1548
V1024
p1549
sa(dp1550
Vname
p1551
Vscale
p1552
sVvalue
p1553
g64
sasVheaders
p1554
(lp1555
sVheadersSize
p1556
I993
sVbodySize
p1557
I0
sVmethod
p1558
VGET
p1559
sVhttpVersion
p1560
VHTTP/1.1
p1561
ssVtimings
p1562
(dp1563
Vcomment
p1564
g4
sVreceive
p1565
I25
sVsend
p1566
I0
sVssl
p1567
I32
sVconnect
p1568
I69
sVdns
p1569
I0
sVwait
p1570
I68
sVblocked
p1571
I0
ssVtime
p1572
I164
sVresponse
p1573
(dp1574
Vstatus
p1575
I200
sVcomment
p1576
g4
sVcookies
p1577
(lp1578
sVstatusText
p1579
VOK
p1580
sVcontent
p1581
(dp1582
VmimeType
p1583
Vimage/png
p1584
sVcomment
p1585
g4
sVsize
p1586
I0
ssVheaders
p1587
(lp1588
sVheadersSize
p1589
I479
sVredirectURL
p1590
g4
sVbodySize
p1591
I23973
sVhttpVersion
p1592
VHTTP/1.1
p1593
ssa(dp1594
Vcomment
p1595
g4
sVserverIPAddress
p1596
V74.125.70.104
p1597
sVpageref
p1598
VRolls-Royce
p1599
sVstartedDateTime
p1600
V2017-04-16T08:49:31.846-05:00
p1601
sVcache
p1602
(dp1603
sVrequest
p1604
(dp1605
Vcomment
p1606
g4
sVcookies
p1607
(lp1608
sVurl
p1609
Vhttps://www.google.com/gen_204/local?ei=ZnbzWMP4JOSLjwS7mLOoAQ&tm_n=lcsm&tm=179
p1610
sVqueryString
p1611
(lp1612
(dp1613
Vname
p1614
Vei
p1615
sVvalue
p1616
VZnbzWMP4JOSLjwS7mLOoAQ
p1617
sa(dp1618
Vname
p1619
Vtm_n
p1620
sVvalue
p1621
Vlcsm
p1622
sa(dp1623
Vname
p1624
Vtm
p1625
sVvalue
p1626
V179
p1627
sasVheaders
p1628
(lp1629
sVheadersSize
p1630
I861
sVbodySize
p1631
I0
sVmethod
p1632
VPOST
p1633
sVhttpVersion
p1634
VHTTP/1.1
p1635
ssVtimings
p1636
(dp1637
Vcomment
p1638
g4
sVreceive
p1639
I0
sVsend
p1640
I0
sVssl
p1641
I-1
sVconnect
p1642
I-1
sVdns
p1643
I-1
sVwait
p1644
I31
sVblocked
p1645
I-1
ssVtime
p1646
I32
sVresponse
p1647
(dp1648
Vstatus
p1649
I204
sVcomment
p1650
g4
sVcookies
p1651
(lp1652
sVstatusText
p1653
VNo Content
p1654
sVcontent
p1655
(dp1656
VmimeType
p1657
Vtext/html; charset=UTF-8
p1658
sVcomment
p1659
g4
sVsize
p1660
I0
ssVheaders
p1661
(lp1662
sVheadersSize
p1663
I290
sVredirectURL
p1664
g4
sVbodySize
p1665
I0
sVhttpVersion
p1666
VHTTP/1.1
p1667
ssa(dp1668
Vcomment
p1669
g4
sVserverIPAddress
p1670
V74.125.70.104
p1671
sVpageref
p1672
VRolls-Royce
p1673
sVstartedDateTime
p1674
V2017-04-16T08:49:31.858-05:00
p1675
sVcache
p1676
(dp1677
sVrequest
p1678
(dp1679
Vcomment
p1680
g4
sVcookies
p1681
(lp1682
sVurl
p1683
Vhttps://www.google.com/gen_204?s=web&atyp=csi&ei=ZnbzWMP4JOSLjwS7mLOoAQ&imc=43&imn=43&imp=24&adh=&xjs=init.64.14.sb_mob.54.dvl.4.c.1.mbsf.1.jsa.1&ima=6&rt=prt.2728,iml.2855,xjsls.2728,dcl.2821,qiml.3040,xjses.2997,xjsee.3192,xjs.3192,ol.4041,aft.2836,wsrt.421,cst.0,dnst.0,rqst.1584,rspt.1586,rqstt.52,unt.2,cstt.2,dit.3179
p1684
sVqueryString
p1685
(lp1686
(dp1687
Vname
p1688
g57
sVvalue
p1689
Vweb
p1690
sa(dp1691
Vname
p1692
Vatyp
p1693
sVvalue
p1694
Vcsi
p1695
sa(dp1696
Vname
p1697
Vei
p1698
sVvalue
p1699
VZnbzWMP4JOSLjwS7mLOoAQ
p1700
sa(dp1701
Vname
p1702
Vimc
p1703
sVvalue
p1704
V43
p1705
sa(dp1706
Vname
p1707
Vimn
p1708
sVvalue
p1709
V43
p1710
sa(dp1711
Vname
p1712
Vimp
p1713
sVvalue
p1714
V24
p1715
sa(dp1716
Vname
p1717
Vadh
p1718
sVvalue
p1719
g4
sa(dp1720
Vname
p1721
Vxjs
p1722
sVvalue
p1723
Vinit.64.14.sb_mob.54.dvl.4.c.1.mbsf.1.jsa.1
p1724
sa(dp1725
Vname
p1726
Vima
p1727
sVvalue
p1728
V6
p1729
sa(dp1730
Vname
p1731
Vrt
p1732
sVvalue
p1733
Vprt.2728,iml.2855,xjsls.2728,dcl.2821,qiml.3040,xjses.2997,xjsee.3192,xjs.3192,ol.4041,aft.2836,wsrt.421,cst.0,dnst.0,rqst.1584,rspt.1586,rqstt.52,unt.2,cstt.2,dit.3179
p1734
sasVheaders
p1735
(lp1736
sVheadersSize
p1737
I840
sVbodySize
p1738
I0
sVmethod
p1739
VGET
p1740
sVhttpVersion
p1741
VHTTP/1.1
p1742
ssVtimings
p1743
(dp1744
Vcomment
p1745
g4
sVreceive
p1746
I0
sVsend
p1747
I0
sVssl
p1748
I-1
sVconnect
p1749
I-1
sVdns
p1750
I-1
sVwait
p1751
I26
sVblocked
p1752
I-1
ssVtime
p1753
I26
sVresponse
p1754
(dp1755
Vstatus
p1756
I204
sVcomment
p1757
g4
sVcookies
p1758
(lp1759
sVstatusText
p1760
VNo Content
p1761
sVcontent
p1762
(dp1763
VmimeType
p1764
Vtext/html; charset=UTF-8
p1765
sVcomment
p1766
g4
sVsize
p1767
I0
ssVheaders
p1768
(lp1769
sVheadersSize
p1770
I248
sVredirectURL
p1771
g4
sVbodySize
p1772
I0
sVhttpVersion
p1773
VHTTP/1.1
p1774
ssa(dp1775
Vcomment
p1776
g4
sVserverIPAddress
p1777
V74.125.70.104
p1778
sVpageref
p1779
VRolls-Royce
p1780
sVstartedDateTime
p1781
V2017-04-16T08:49:33.518-05:00
p1782
sVcache
p1783
(dp1784
sVrequest
p1785
(dp1786
Vcomment
p1787
g4
sVcookies
p1788
(lp1789
sVurl
p1790
Vhttps://www.google.com/gen_204?atyp=i&ct=slh&cad=&ei=WnbzWKmnLYOcjwSjx6nYAg&m=V&t=C&s=1&v=2&pv=0.6130888281499436&me=1:1492350558627,x:3,V,0,0,1280,944:0,N,1,WnbzWKmnLYOcjwSjx6nYAg:0,R,1,22,8,155,1249,235:0,R,1,37,0,400,1197,624:0,R,1,38,0,400,1197,622:0,R,1,58,0,400,1197,200:0,R,1,59,0,400,1197,200:0,R,1,80,0,613,1197,20:0,R,1,85,0,657,1197,20:0,R,1,100,0,757,1197,57:0,R,1,105,0,839,1197,36:0,R,1,108,0,892,1197,47:3,B,3866:8161,e,U&zx=1492350573516
p1791
sVqueryString
p1792
(lp1793
(dp1794
Vname
p1795
Vatyp
p1796
sVvalue
p1797
g30
sa(dp1798
Vname
p1799
Vct
p1800
sVvalue
p1801
Vslh
p1802
sa(dp1803
Vname
p1804
Vcad
p1805
sVvalue
p1806
g4
sa(dp1807
Vname
p1808
Vei
p1809
sVvalue
p1810
VWnbzWKmnLYOcjwSjx6nYAg
p1811
sa(dp1812
Vname
p1813
g47
sVvalue
p1814
g49
sa(dp1815
Vname
p1816
g52
sVvalue
p1817
g54
sa(dp1818
Vname
p1819
g57
sVvalue
p1820
g59
sa(dp1821
Vname
p1822
g62
sVvalue
p1823
g64
sa(dp1824
Vname
p1825
Vpv
p1826
sVvalue
p1827
V0.6130888281499436
p1828
sa(dp1829
Vname
p1830
Vme
p1831
sVvalue
p1832
V1:1492350558627,x:3,V,0,0,1280,944:0,N,1,WnbzWKmnLYOcjwSjx6nYAg:0,R,1,22,8,155,1249,235:0,R,1,37,0,400,1197,624:0,R,1,38,0,400,1197,622:0,R,1,58,0,400,1197,200:0,R,1,59,0,400,1197,200:0,R,1,80,0,613,1197,20:0,R,1,85,0,657,1197,20:0,R,1,100,0,757,1197,57:0,R,1,105,0,839,1197,36:0,R,1,108,0,892,1197,47:3,B,3866:8161,e,U
p1833
sa(dp1834
Vname
p1835
Vzx
p1836
sVvalue
p1837
V1492350573516
p1838
sasVheaders
p1839
(lp1840
sVheadersSize
p1841
I970
sVbodySize
p1842
I0
sVmethod
p1843
VGET
p1844
sVhttpVersion
p1845
VHTTP/1.1
p1846
ssVtimings
p1847
(dp1848
Vcomment
p1849
g4
sVreceive
p1850
I0
sVsend
p1851
I0
sVssl
p1852
I-1
sVconnect
p1853
I-1
sVdns
p1854
I-1
sVwait
p1855
I32
sVblocked
p1856
I-1
ssVtime
p1857
I32
sVresponse
p1858
(dp1859
Vstatus
p1860
I204
sVcomment
p1861
g4
sVcookies
p1862
(lp1863
sVstatusText
p1864
VNo Content
p1865
sVcontent
p1866
(dp1867
VmimeType
p1868
Vtext/html; charset=UTF-8
p1869
sVcomment
p1870
g4
sVsize
p1871
I0
ssVheaders
p1872
(lp1873
sVheadersSize
p1874
I248
sVredirectURL
p1875
g4
sVbodySize
p1876
I0
sVhttpVersion
p1877
VHTTP/1.1
p1878
ssasVversion
p1879
V1.2
p1880
sVpages
p1881
(lp1882
(dp1883
VpageTimings
p1884
(dp1885
Vcomment
p1886
g4
ssVcomment
p1887
g4
sVtitle
p1888
VRolls-Royce
p1889
sVid
p1890
VRolls-Royce
p1891
sVstartedDateTime
p1892
V2017-04-16T08:49:26.788-05:00
p1893
sasVcreator
p1894
(dp1895
Vcomment
p1896
g4
sVversion
p1897
V2.1.4
p1898
sVname
p1899
VBrowserMob Proxy
p1900
sss.