(dp0
Vlog
p1
(dp2
Vcomment
p3
V
p4
sVentries
p5
(lp6
(dp7
Vcomment
p8
g4
sVserverIPAddress
p9
V172.217.6.4
p10
sVpageref
p11
VNate Diaz
p12
sVstartedDateTime
p13
V2017-04-16T08:18:20.488-05:00
p14
sVcache
p15
(dp16
sVrequest
p17
(dp18
Vcomment
p19
g4
sVcookies
p20
(lp21
sVurl
p22
Vhttps://www.google.com/gen_204?atyp=i&ct=slh&cad=&ei=A2_zWInQHYepjwSs4p-wCA&s=2&v=2&pv=0.24757193521684684&me=15:1492348681459,V,0,0,0,0:624,U,624:0,V,0,0,1280,944:18403,e,U&zx=1492348700486
p23
sVqueryString
p24
(lp25
(dp26
Vname
p27
Vatyp
p28
sVvalue
p29
Vi
p30
sa(dp31
Vname
p32
Vct
p33
sVvalue
p34
Vslh
p35
sa(dp36
Vname
p37
Vcad
p38
sVvalue
p39
g4
sa(dp40
Vname
p41
Vei
p42
sVvalue
p43
VA2_zWInQHYepjwSs4p-wCA
p44
sa(dp45
Vname
p46
Vs
p47
sVvalue
p48
V2
p49
sa(dp50
Vname
p51
Vv
p52
sVvalue
p53
g49
sa(dp54
Vname
p55
Vpv
p56
sVvalue
p57
V0.24757193521684684
p58
sa(dp59
Vname
p60
Vme
p61
sVvalue
p62
V15:1492348681459,V,0,0,0,0:624,U,624:0,V,0,0,1280,944:18403,e,U
p63
sa(dp64
Vname
p65
Vzx
p66
sVvalue
p67
V1492348700486
p68
sasVheaders
p69
(lp70
sVheadersSize
p71
I707
sVbodySize
p72
I0
sVmethod
p73
VGET
p74
sVhttpVersion
p75
VHTTP/1.1
p76
ssVtimings
p77
(dp78
Vcomment
p79
g4
sVreceive
p80
I0
sVsend
p81
I0
sVssl
p82
I-1
sVconnect
p83
I-1
sVdns
p84
I-1
sVwait
p85
I0
sVblocked
p86
I-1
ssVtime
p87
I0
sVresponse
p88
(dp89
Vstatus
p90
I0
sVcomment
p91
g4
sVcookies
p92
(lp93
sV_error
p94
VNo response received
p95
sVstatusText
p96
g4
sVcontent
p97
(dp98
VmimeType
p99
g4
sVcomment
p100
g4
sVsize
p101
I0
ssVheaders
p102
(lp103
sVheadersSize
p104
I-1
sVredirectURL
p105
g4
sVbodySize
p106
I-1
sVhttpVersion
p107
Vunknown
p108
ssa(dp109
Vcomment
p110
g4
sVserverIPAddress
p111
V172.217.6.4
p112
sVpageref
p113
VNate Diaz
p114
sVstartedDateTime
p115
V2017-04-16T08:18:20.494-05:00
p116
sVcache
p117
(dp118
sVrequest
p119
(dp120
Vcomment
p121
g4
sVcookies
p122
(lp123
sVurl
p124
Vhttp://www.google.com/
p125
sVqueryString
p126
(lp127
sVheaders
p128
(lp129
sVheadersSize
p130
I613
sVbodySize
p131
I0
sVmethod
p132
VGET
p133
sVhttpVersion
p134
VHTTP/1.1
p135
ssVtimings
p136
(dp137
Vcomment
p138
g4
sVreceive
p139
I0
sVsend
p140
I0
sVssl
p141
I-1
sVconnect
p142
I-1
sVdns
p143
I-1
sVwait
p144
I34
sVblocked
p145
I-1
ssVtime
p146
I35
sVresponse
p147
(dp148
Vstatus
p149
I302
sVcomment
p150
g4
sVcookies
p151
(lp152
sVstatusText
p153
VFound
p154
sVcontent
p155
(dp156
VmimeType
p157
Vtext/html; charset=UTF-8
p158
sVcomment
p159
g4
sVsize
p160
I0
ssVheaders
p161
(lp162
sVheadersSize
p163
I609
sVredirectURL
p164
Vhttps://www.google.com/?gws_rd=ssl
p165
sVbodySize
p166
I231
sVhttpVersion
p167
VHTTP/1.1
p168
ssa(dp169
Vcomment
p170
g4
sVserverIPAddress
p171
V172.217.6.4
p172
sVpageref
p173
VNate Diaz
p174
sVstartedDateTime
p175
V2017-04-16T08:18:20.535-05:00
p176
sVcache
p177
(dp178
sVrequest
p179
(dp180
Vcomment
p181
g4
sVcookies
p182
(lp183
sVurl
p184
Vhttps://www.google.com/?gws_rd=ssl
p185
sVqueryString
p186
(lp187
(dp188
Vname
p189
Vgws_rd
p190
sVvalue
p191
Vssl
p192
sasVheaders
p193
(lp194
sVheadersSize
p195
I607
sVbodySize
p196
I0
sVmethod
p197
VGET
p198
sVhttpVersion
p199
VHTTP/1.1
p200
ssVtimings
p201
(dp202
Vcomment
p203
g4
sVreceive
p204
I5
sVsend
p205
I0
sVssl
p206
I-1
sVconnect
p207
I-1
sVdns
p208
I-1
sVwait
p209
I81
sVblocked
p210
I-1
ssVtime
p211
I87
sVresponse
p212
(dp213
Vstatus
p214
I200
sVcomment
p215
g4
sVcookies
p216
(lp217
sVstatusText
p218
VOK
p219
sVcontent
p220
(dp221
VmimeType
p222
Vtext/html; charset=UTF-8
p223
sVcomment
p224
g4
sVsize
p225
I0
ssVheaders
p226
(lp227
sVheadersSize
p228
I721
sVredirectURL
p229
g4
sVbodySize
p230
I34294
sVhttpVersion
p231
VHTTP/1.1
p232
ssa(dp233
Vcomment
p234
g4
sVserverIPAddress
p235
V172.217.6.4
p236
sVpageref
p237
VNate Diaz
p238
sVstartedDateTime
p239
V2017-04-16T08:18:21.051-05:00
p240
sVcache
p241
(dp242
sVrequest
p243
(dp244
Vcomment
p245
g4
sVcookies
p246
(lp247
sVurl
p248
Vhttps://www.google.com/gen_204?s=mobilewebhp&atyp=csi&ei=G2_zWNmAIcnKjwSx1qmgAw&imc=1&imn=1&imp=0&adh=&xjs=init.43.12.sb_mob.34.dvl.4.c.1.jsa.1.mbsf.1&ima=1&rt=xjsls.12,prt.13,iml.13,dcl.39,xjses.116,xjsee.276,xjs.277,ol.398,aft.13,wsrt.162,cst.0,dnst.0,rqst.97,rspt.14,rqstt.48,unt.45,cstt.45,dit.185
p249
sVqueryString
p250
(lp251
(dp252
Vname
p253
g47
sVvalue
p254
Vmobilewebhp
p255
sa(dp256
Vname
p257
Vatyp
p258
sVvalue
p259
Vcsi
p260
sa(dp261
Vname
p262
Vei
p263
sVvalue
p264
VG2_zWNmAIcnKjwSx1qmgAw
p265
sa(dp266
Vname
p267
Vimc
p268
sVvalue
p269
V1
p270
sa(dp271
Vname
p272
Vimn
p273
sVvalue
p274
g270
sa(dp275
Vname
p276
Vimp
p277
sVvalue
p278
V0
p279
sa(dp280
Vname
p281
Vadh
p282
sVvalue
p283
g4
sa(dp284
Vname
p285
Vxjs
p286
sVvalue
p287
Vinit.43.12.sb_mob.34.dvl.4.c.1.jsa.1.mbsf.1
p288
sa(dp289
Vname
p290
Vima
p291
sVvalue
p292
g270
sa(dp293
Vname
p294
Vrt
p295
sVvalue
p296
Vxjsls.12,prt.13,iml.13,dcl.39,xjses.116,xjsee.276,xjs.277,ol.398,aft.13,wsrt.162,cst.0,dnst.0,rqst.97,rspt.14,rqstt.48,unt.45,cstt.45,dit.185
p297
sasVheaders
p298
(lp299
sVheadersSize
p300
I829
sVbodySize
p301
I0
sVmethod
p302
VGET
p303
sVhttpVersion
p304
VHTTP/1.1
p305
ssVtimings
p306
(dp307
Vcomment
p308
g4
sVreceive
p309
I0
sVsend
p310
I0
sVssl
p311
I-1
sVconnect
p312
I-1
sVdns
p313
I-1
sVwait
p314
I26
sVblocked
p315
I-1
ssVtime
p316
I27
sVresponse
p317
(dp318
Vstatus
p319
I204
sVcomment
p320
g4
sVcookies
p321
(lp322
sVstatusText
p323
VNo Content
p324
sVcontent
p325
(dp326
VmimeType
p327
Vtext/html; charset=UTF-8
p328
sVcomment
p329
g4
sVsize
p330
I0
ssVheaders
p331
(lp332
sVheadersSize
p333
I248
sVredirectURL
p334
g4
sVbodySize
p335
I0
sVhttpVersion
p336
VHTTP/1.1
p337
ssa(dp338
Vcomment
p339
g4
sVserverIPAddress
p340
V172.217.6.4
p341
sVpageref
p342
VNate Diaz
p343
sVstartedDateTime
p344
V2017-04-16T08:18:21.168-05:00
p345
sVcache
p346
(dp347
sVrequest
p348
(dp349
Vcomment
p350
g4
sVcookies
p351
(lp352
sVurl
p353
Vhttps://www.google.com/complete/search?client=mobile-gws-hp&hl=en&gs_rn=64&gs_ri=mobile-gws-hp&sla=1&pfq=nice%20france&gm=602&cp=0&gs_id=1&xhr=t&q=N&tch=1&ech=1&psi=G2_zWNmAIcnKjwSx1qmgAw.1492348700877.1
p354
sVqueryString
p355
(lp356
(dp357
Vname
p358
Vclient
p359
sVvalue
p360
Vmobile-gws-hp
p361
sa(dp362
Vname
p363
Vhl
p364
sVvalue
p365
Ven
p366
sa(dp367
Vname
p368
Vgs_rn
p369
sVvalue
p370
V64
p371
sa(dp372
Vname
p373
Vgs_ri
p374
sVvalue
p375
Vmobile-gws-hp
p376
sa(dp377
Vname
p378
Vsla
p379
sVvalue
p380
g270
sa(dp381
Vname
p382
Vpfq
p383
sVvalue
p384
Vnice france
p385
sa(dp386
Vname
p387
Vgm
p388
sVvalue
p389
V602
p390
sa(dp391
Vname
p392
Vcp
p393
sVvalue
p394
g279
sa(dp395
Vname
p396
Vgs_id
p397
sVvalue
p398
g270
sa(dp399
Vname
p400
Vxhr
p401
sVvalue
p402
Vt
p403
sa(dp404
Vname
p405
Vq
p406
sVvalue
p407
VN
p408
sa(dp409
Vname
p410
Vtch
p411
sVvalue
p412
g270
sa(dp413
Vname
p414
Vech
p415
sVvalue
p416
g270
sa(dp417
Vname
p418
Vpsi
p419
sVvalue
p420
VG2_zWNmAIcnKjwSx1qmgAw.1492348700877.1
p421
sasVheaders
p422
(lp423
sVheadersSize
p424
I731
sVbodySize
p425
I0
sVmethod
p426
VGET
p427
sVhttpVersion
p428
VHTTP/1.1
p429
ssVtimings
p430
(dp431
Vcomment
p432
g4
sVreceive
p433
I0
sVsend
p434
I0
sVssl
p435
I-1
sVconnect
p436
I-1
sVdns
p437
I-1
sVwait
p438
I0
sVblocked
p439
I-1
ssVtime
p440
I0
sVresponse
p441
(dp442
Vstatus
p443
I0
sVcomment
p444
g4
sVcookies
p445
(lp446
sV_error
p447
VNo response received
p448
sVstatusText
p449
g4
sVcontent
p450
(dp451
VmimeType
p452
g4
sVcomment
p453
g4
sVsize
p454
I0
ssVheaders
p455
(lp456
sVheadersSize
p457
I-1
sVredirectURL
p458
g4
sVbodySize
p459
I-1
sVhttpVersion
p460
Vunknown
p461
ssa(dp462
Vcomment
p463
g4
sVserverIPAddress
p464
V172.217.6.4
p465
sVpageref
p466
VNate Diaz
p467
sVstartedDateTime
p468
V2017-04-16T08:18:21.229-05:00
p469
sVcache
p470
(dp471
sVrequest
p472
(dp473
Vcomment
p474
g4
sVcookies
p475
(lp476
sVurl
p477
Vhttps://www.google.com/search?site=&source=hp&ei=G2_zWNmAIcnKjwSx1qmgAw&q=Nate+Diaz&oq=Nate+Diaz&gs_l=mobile-gws-hp.3...252.278.0.312.9.1.0.0.0.0.0.0..0.0....0...1c.1.64.mobile-gws-hp..9.0.0.an_cqwd9tDA
p478
sVqueryString
p479
(lp480
(dp481
Vname
p482
Vsite
p483
sVvalue
p484
g4
sa(dp485
Vname
p486
Vsource
p487
sVvalue
p488
Vhp
p489
sa(dp490
Vname
p491
Vei
p492
sVvalue
p493
VG2_zWNmAIcnKjwSx1qmgAw
p494
sa(dp495
Vname
p496
g406
sVvalue
p497
VNate Diaz
p498
sa(dp499
Vname
p500
Voq
p501
sVvalue
p502
VNate Diaz
p503
sa(dp504
Vname
p505
Vgs_l
p506
sVvalue
p507
Vmobile-gws-hp.3...252.278.0.312.9.1.0.0.0.0.0.0..0.0....0...1c.1.64.mobile-gws-hp..9.0.0.an_cqwd9tDA
p508
sasVheaders
p509
(lp510
sVheadersSize
p511
I820
sVbodySize
p512
I0
sVmethod
p513
VGET
p514
sVhttpVersion
p515
VHTTP/1.1
p516
ssVtimings
p517
(dp518
Vcomment
p519
g4
sVreceive
p520
I772
sVsend
p521
I0
sVssl
p522
I-1
sVconnect
p523
I-1
sVdns
p524
I-1
sVwait
p525
I117
sVblocked
p526
I-1
ssVtime
p527
I890
sVresponse
p528
(dp529
Vstatus
p530
I200
sVcomment
p531
g4
sVcookies
p532
(lp533
sVstatusText
p534
VOK
p535
sVcontent
p536
(dp537
VmimeType
p538
Vtext/html; charset=UTF-8
p539
sVcomment
p540
g4
sVsize
p541
I0
ssVheaders
p542
(lp543
sVheadersSize
p544
I363
sVredirectURL
p545
g4
sVbodySize
p546
I137461
sVhttpVersion
p547
VHTTP/1.1
p548
ssa(dp549
Vcomment
p550
g4
sVserverIPAddress
p551
V172.217.6.4
p552
sVpageref
p553
VNate Diaz
p554
sVstartedDateTime
p555
V2017-04-16T08:18:23.519-05:00
p556
sVcache
p557
(dp558
sVrequest
p559
(dp560
Vcomment
p561
g4
sVcookies
p562
(lp563
sVurl
p564
Vhttps://www.google.com/async/irc?vet=10ahUKEwjzwqORiKnTAhVp7IMKHScRDDIQo0EIggI..i&ved=0ahUKEwjzwqORiKnTAhVp7IMKHScRDDIQo0EIggI&ei=HG_zWPPED-nYjwSnorCQAw&yv=2&async=iu:1,ved:0ahUKEwjzwqORiKnTAhVp7IMKHScRDDIQo0EIggI,_id:irc_async,_pms:qs
p565
sVqueryString
p566
(lp567
(dp568
Vname
p569
Vvet
p570
sVvalue
p571
V10ahUKEwjzwqORiKnTAhVp7IMKHScRDDIQo0EIggI..i
p572
sa(dp573
Vname
p574
Vved
p575
sVvalue
p576
V0ahUKEwjzwqORiKnTAhVp7IMKHScRDDIQo0EIggI
p577
sa(dp578
Vname
p579
Vei
p580
sVvalue
p581
VHG_zWPPED-nYjwSnorCQAw
p582
sa(dp583
Vname
p584
Vyv
p585
sVvalue
p586
g49
sa(dp587
Vname
p588
Vasync
p589
sVvalue
p590
Viu:1,ved:0ahUKEwjzwqORiKnTAhVp7IMKHScRDDIQo0EIggI,_id:irc_async,_pms:qs
p591
sasVheaders
p592
(lp593
sVheadersSize
p594
I752
sVbodySize
p595
I0
sVmethod
p596
VGET
p597
sVhttpVersion
p598
VHTTP/1.1
p599
ssVtimings
p600
(dp601
Vcomment
p602
g4
sVreceive
p603
I1
sVsend
p604
I0
sVssl
p605
I-1
sVconnect
p606
I-1
sVdns
p607
I-1
sVwait
p608
I40
sVblocked
p609
I-1
ssVtime
p610
I42
sVresponse
p611
(dp612
Vstatus
p613
I200
sVcomment
p614
g4
sVcookies
p615
(lp616
sVstatusText
p617
VOK
p618
sVcontent
p619
(dp620
VmimeType
p621
Vtext/html; charset=UTF-8
p622
sVcomment
p623
g4
sVsize
p624
I0
ssVheaders
p625
(lp626
sVheadersSize
p627
I383
sVredirectURL
p628
g4
sVbodySize
p629
I7790
sVhttpVersion
p630
VHTTP/1.1
p631
ssa(dp632
Vcomment
p633
g4
sVserverIPAddress
p634
V172.217.6.4
p635
sVpageref
p636
VNate Diaz
p637
sVstartedDateTime
p638
V2017-04-16T08:18:23.553-05:00
p639
sVcache
p640
(dp641
sVrequest
p642
(dp643
Vcomment
p644
g4
sVcookies
p645
(lp646
sVurl
p647
Vhttps://www.google.com/gen_204?atyp=i&ct=&cad=&vet=10ahUKEwjzwqORiKnTAhVp7IMKHScRDDIQ5W0IPSgC..s&ei=HG_zWPPED-nYjwSnorCQAw&zx=1492348703550
p648
sVqueryString
p649
(lp650
(dp651
Vname
p652
Vatyp
p653
sVvalue
p654
g30
sa(dp655
Vname
p656
Vct
p657
sVvalue
p658
g4
sa(dp659
Vname
p660
Vcad
p661
sVvalue
p662
g4
sa(dp663
Vname
p664
Vvet
p665
sVvalue
p666
V10ahUKEwjzwqORiKnTAhVp7IMKHScRDDIQ5W0IPSgC..s
p667
sa(dp668
Vname
p669
Vei
p670
sVvalue
p671
VHG_zWPPED-nYjwSnorCQAw
p672
sa(dp673
Vname
p674
Vzx
p675
sVvalue
p676
V1492348703550
p677
sasVheaders
p678
(lp679
sVheadersSize
p680
I656
sVbodySize
p681
I0
sVmethod
p682
VGET
p683
sVhttpVersion
p684
VHTTP/1.1
p685
ssVtimings
p686
(dp687
Vcomment
p688
g4
sVreceive
p689
I0
sVsend
p690
I0
sVssl
p691
I-1
sVconnect
p692
I-1
sVdns
p693
I-1
sVwait
p694
I31
sVblocked
p695
I-1
ssVtime
p696
I31
sVresponse
p697
(dp698
Vstatus
p699
I204
sVcomment
p700
g4
sVcookies
p701
(lp702
sVstatusText
p703
VNo Content
p704
sVcontent
p705
(dp706
VmimeType
p707
Vtext/html; charset=UTF-8
p708
sVcomment
p709
g4
sVsize
p710
I0
ssVheaders
p711
(lp712
sVheadersSize
p713
I248
sVredirectURL
p714
g4
sVbodySize
p715
I0
sVhttpVersion
p716
VHTTP/1.1
p717
ssa(dp718
Vcomment
p719
g4
sVserverIPAddress
p720
V172.217.6.4
p721
sVpageref
p722
VNate Diaz
p723
sVstartedDateTime
p724
V2017-04-16T08:18:23.563-05:00
p725
sVcache
p726
(dp727
sVrequest
p728
(dp729
Vcomment
p730
g4
sVcookies
p731
(lp732
sVurl
p733
Vhttps://www.google.com/gen_204?atyp=i&ct=&cad=&vet=10ahUKEwjzwqORiKnTAhVp7IMKHScRDDIQ5W0IQCgD..s&ei=HG_zWPPED-nYjwSnorCQAw&zx=1492348703556
p734
sVqueryString
p735
(lp736
(dp737
Vname
p738
Vatyp
p739
sVvalue
p740
g30
sa(dp741
Vname
p742
Vct
p743
sVvalue
p744
g4
sa(dp745
Vname
p746
Vcad
p747
sVvalue
p748
g4
sa(dp749
Vname
p750
Vvet
p751
sVvalue
p752
V10ahUKEwjzwqORiKnTAhVp7IMKHScRDDIQ5W0IQCgD..s
p753
sa(dp754
Vname
p755
Vei
p756
sVvalue
p757
VHG_zWPPED-nYjwSnorCQAw
p758
sa(dp759
Vname
p760
Vzx
p761
sVvalue
p762
V1492348703556
p763
sasVheaders
p764
(lp765
sVheadersSize
p766
I656
sVbodySize
p767
I0
sVmethod
p768
VGET
p769
sVhttpVersion
p770
VHTTP/1.1
p771
ssVtimings
p772
(dp773
Vcomment
p774
g4
sVreceive
p775
I0
sVsend
p776
I0
sVssl
p777
I-1
sVconnect
p778
I-1
sVdns
p779
I-1
sVwait
p780
I52
sVblocked
p781
I-1
ssVtime
p782
I53
sVresponse
p783
(dp784
Vstatus
p785
I204
sVcomment
p786
g4
sVcookies
p787
(lp788
sVstatusText
p789
VNo Content
p790
sVcontent
p791
(dp792
VmimeType
p793
Vtext/html; charset=UTF-8
p794
sVcomment
p795
g4
sVsize
p796
I0
ssVheaders
p797
(lp798
sVheadersSize
p799
I248
sVredirectURL
p800
g4
sVbodySize
p801
I0
sVhttpVersion
p802
VHTTP/1.1
p803
ssa(dp804
Vcomment
p805
g4
sVserverIPAddress
p806
V172.217.6.4
p807
sVpageref
p808
VNate Diaz
p809
sVstartedDateTime
p810
V2017-04-16T08:18:23.574-05:00
p811
sVcache
p812
(dp813
sVrequest
p814
(dp815
Vcomment
p816
g4
sVcookies
p817
(lp818
sVurl
p819
Vhttps://www.google.com/gen_204?atyp=i&ct=&cad=&vet=10ahUKEwjzwqORiKnTAhVp7IMKHScRDDIQ5W0IQygE..s&ei=HG_zWPPED-nYjwSnorCQAw&zx=1492348703565
p820
sVqueryString
p821
(lp822
(dp823
Vname
p824
Vatyp
p825
sVvalue
p826
g30
sa(dp827
Vname
p828
Vct
p829
sVvalue
p830
g4
sa(dp831
Vname
p832
Vcad
p833
sVvalue
p834
g4
sa(dp835
Vname
p836
Vvet
p837
sVvalue
p838
V10ahUKEwjzwqORiKnTAhVp7IMKHScRDDIQ5W0IQygE..s
p839
sa(dp840
Vname
p841
Vei
p842
sVvalue
p843
VHG_zWPPED-nYjwSnorCQAw
p844
sa(dp845
Vname
p846
Vzx
p847
sVvalue
p848
V1492348703565
p849
sasVheaders
p850
(lp851
sVheadersSize
p852
I656
sVbodySize
p853
I0
sVmethod
p854
VGET
p855
sVhttpVersion
p856
VHTTP/1.1
p857
ssVtimings
p858
(dp859
Vcomment
p860
g4
sVreceive
p861
I0
sVsend
p862
I0
sVssl
p863
I-1
sVconnect
p864
I-1
sVdns
p865
I-1
sVwait
p866
I41
sVblocked
p867
I-1
ssVtime
p868
I41
sVresponse
p869
(dp870
Vstatus
p871
I204
sVcomment
p872
g4
sVcookies
p873
(lp874
sVstatusText
p875
VNo Content
p876
sVcontent
p877
(dp878
VmimeType
p879
Vtext/html; charset=UTF-8
p880
sVcomment
p881
g4
sVsize
p882
I0
ssVheaders
p883
(lp884
sVheadersSize
p885
I248
sVredirectURL
p886
g4
sVbodySize
p887
I0
sVhttpVersion
p888
VHTTP/1.1
p889
ssa(dp890
Vcomment
p891
g4
sVserverIPAddress
p892
V172.217.6.4
p893
sVpageref
p894
VNate Diaz
p895
sVstartedDateTime
p896
V2017-04-16T08:18:23.577-05:00
p897
sVcache
p898
(dp899
sVrequest
p900
(dp901
Vcomment
p902
g4
sVcookies
p903
(lp904
sVurl
p905
Vhttps://www.google.com/gen_204?atyp=i&ct=&cad=&vet=10ahUKEwjzwqORiKnTAhVp7IMKHScRDDIQ5W0IRigF..s&ei=HG_zWPPED-nYjwSnorCQAw&zx=1492348703573
p906
sVqueryString
p907
(lp908
(dp909
Vname
p910
Vatyp
p911
sVvalue
p912
g30
sa(dp913
Vname
p914
Vct
p915
sVvalue
p916
g4
sa(dp917
Vname
p918
Vcad
p919
sVvalue
p920
g4
sa(dp921
Vname
p922
Vvet
p923
sVvalue
p924
V10ahUKEwjzwqORiKnTAhVp7IMKHScRDDIQ5W0IRigF..s
p925
sa(dp926
Vname
p927
Vei
p928
sVvalue
p929
VHG_zWPPED-nYjwSnorCQAw
p930
sa(dp931
Vname
p932
Vzx
p933
sVvalue
p934
V1492348703573
p935
sasVheaders
p936
(lp937
sVheadersSize
p938
I656
sVbodySize
p939
I0
sVmethod
p940
VGET
p941
sVhttpVersion
p942
VHTTP/1.1
p943
ssVtimings
p944
(dp945
Vcomment
p946
g4
sVreceive
p947
I0
sVsend
p948
I0
sVssl
p949
I-1
sVconnect
p950
I-1
sVdns
p951
I-1
sVwait
p952
I54
sVblocked
p953
I-1
ssVtime
p954
I55
sVresponse
p955
(dp956
Vstatus
p957
I204
sVcomment
p958
g4
sVcookies
p959
(lp960
sVstatusText
p961
VNo Content
p962
sVcontent
p963
(dp964
VmimeType
p965
Vtext/html; charset=UTF-8
p966
sVcomment
p967
g4
sVsize
p968
I0
ssVheaders
p969
(lp970
sVheadersSize
p971
I248
sVredirectURL
p972
g4
sVbodySize
p973
I0
sVhttpVersion
p974
VHTTP/1.1
p975
ssa(dp976
Vcomment
p977
g4
sVserverIPAddress
p978
V172.217.6.4
p979
sVpageref
p980
VNate Diaz
p981
sVstartedDateTime
p982
V2017-04-16T08:18:23.626-05:00
p983
sVcache
p984
(dp985
sVrequest
p986
(dp987
Vcomment
p988
g4
sVcookies
p989
(lp990
sVurl
p991
Vhttps://www.google.com/gen_204?atyp=i&ct=&cad=&vet=10ahUKEwjzwqORiKnTAhVp7IMKHScRDDIQ5W0ISSgG..s&ei=HG_zWPPED-nYjwSnorCQAw&zx=1492348703579
p992
sVqueryString
p993
(lp994
(dp995
Vname
p996
Vatyp
p997
sVvalue
p998
g30
sa(dp999
Vname
p1000
Vct
p1001
sVvalue
p1002
g4
sa(dp1003
Vname
p1004
Vcad
p1005
sVvalue
p1006
g4
sa(dp1007
Vname
p1008
Vvet
p1009
sVvalue
p1010
V10ahUKEwjzwqORiKnTAhVp7IMKHScRDDIQ5W0ISSgG..s
p1011
sa(dp1012
Vname
p1013
Vei
p1014
sVvalue
p1015
VHG_zWPPED-nYjwSnorCQAw
p1016
sa(dp1017
Vname
p1018
Vzx
p1019
sVvalue
p1020
V1492348703579
p1021
sasVheaders
p1022
(lp1023
sVheadersSize
p1024
I656
sVbodySize
p1025
I0
sVmethod
p1026
VGET
p1027
sVhttpVersion
p1028
VHTTP/1.1
p1029
ssVtimings
p1030
(dp1031
Vcomment
p1032
g4
sVreceive
p1033
I0
sVsend
p1034
I0
sVssl
p1035
I24
sVconnect
p1036
I41
sVdns
p1037
I0
sVwait
p1038
I26
sVblocked
p1039
I0
ssVtime
p1040
I68
sVresponse
p1041
(dp1042
Vstatus
p1043
I204
sVcomment
p1044
g4
sVcookies
p1045
(lp1046
sVstatusText
p1047
VNo Content
p1048
sVcontent
p1049
(dp1050
VmimeType
p1051
Vtext/html; charset=UTF-8
p1052
sVcomment
p1053
g4
sVsize
p1054
I0
ssVheaders
p1055
(lp1056
sVheadersSize
p1057
I248
sVredirectURL
p1058
g4
sVbodySize
p1059
I0
sVhttpVersion
p1060
VHTTP/1.1
p1061
ssa(dp1062
Vcomment
p1063
g4
sVserverIPAddress
p1064
V172.217.6.4
p1065
sVpageref
p1066
VNate Diaz
p1067
sVstartedDateTime
p1068
V2017-04-16T08:18:23.790-05:00
p1069
sVcache
p1070
(dp1071
sVrequest
p1072
(dp1073
Vcomment
p1074
g4
sVcookies
p1075
(lp1076
sVurl
p1077
Vhttps://www.google.com/async/ampfp?vet=10ahUKEwjzwqORiKnTAhVp7IMKHScRDDIQtZoBCIAC..i&ei=HG_zWPPED-nYjwSnorCQAw&yv=2&async=_id:ampfp-async,_pms:qs
p1078
sVqueryString
p1079
(lp1080
(dp1081
Vname
p1082
Vvet
p1083
sVvalue
p1084
V10ahUKEwjzwqORiKnTAhVp7IMKHScRDDIQtZoBCIAC..i
p1085
sa(dp1086
Vname
p1087
Vei
p1088
sVvalue
p1089
VHG_zWPPED-nYjwSnorCQAw
p1090
sa(dp1091
Vname
p1092
Vyv
p1093
sVvalue
p1094
g49
sa(dp1095
Vname
p1096
Vasync
p1097
sVvalue
p1098
V_id:ampfp-async,_pms:qs
p1099
sasVheaders
p1100
(lp1101
sVheadersSize
p1102
I662
sVbodySize
p1103
I0
sVmethod
p1104
VGET
p1105
sVhttpVersion
p1106
VHTTP/1.1
p1107
ssVtimings
p1108
(dp1109
Vcomment
p1110
g4
sVreceive
p1111
I0
sVsend
p1112
I0
sVssl
p1113
I-1
sVconnect
p1114
I-1
sVdns
p1115
I-1
sVwait
p1116
I58
sVblocked
p1117
I-1
ssVtime
p1118
I59
sVresponse
p1119
(dp1120
Vstatus
p1121
I200
sVcomment
p1122
g4
sVcookies
p1123
(lp1124
sVstatusText
p1125
VOK
p1126
sVcontent
p1127
(dp1128
VmimeType
p1129
Vtext/html; charset=UTF-8
p1130
sVcomment
p1131
g4
sVsize
p1132
I0
ssVheaders
p1133
(lp1134
sVheadersSize
p1135
I383
sVredirectURL
p1136
g4
sVbodySize
p1137
I4530
sVhttpVersion
p1138
VHTTP/1.1
p1139
ssa(dp1140
Vcomment
p1141
g4
sVserverIPAddress
p1142
V216.58.216.193
p1143
sVpageref
p1144
VNate Diaz
p1145
sVstartedDateTime
p1146
V2017-04-16T08:18:23.791-05:00
p1147
sVcache
p1148
(dp1149
sVrequest
p1150
(dp1151
Vcomment
p1152
g4
sVcookies
p1153
(lp1154
sVurl
p1155
Vhttps://cdn.ampproject.org/preconnect.gif?0.8324663530432195
p1156
sVqueryString
p1157
(lp1158
(dp1159
Vname
p1160
V0.8324663530432195
p1161
sVvalue
p1162
g4
sasVheaders
p1163
(lp1164
sVheadersSize
p1165
I375
sVbodySize
p1166
I0
sVmethod
p1167
VGET
p1168
sVhttpVersion
p1169
VHTTP/1.1
p1170
ssVtimings
p1171
(dp1172
Vcomment
p1173
g4
sVreceive
p1174
I0
sVsend
p1175
I0
sVssl
p1176
I-1
sVconnect
p1177
I-1
sVdns
p1178
I-1
sVwait
p1179
I30
sVblocked
p1180
I-1
ssVtime
p1181
I31
sVresponse
p1182
(dp1183
Vstatus
p1184
I200
sVcomment
p1185
g4
sVcookies
p1186
(lp1187
sVstatusText
p1188
VOK
p1189
sVcontent
p1190
(dp1191
VmimeType
p1192
Vimage/gif
p1193
sVcomment
p1194
g4
sVsize
p1195
I0
ssVheaders
p1196
(lp1197
sVheadersSize
p1198
I826
sVredirectURL
p1199
g4
sVbodySize
p1200
I37
sVhttpVersion
p1201
VHTTP/1.1
p1202
ssa(dp1203
Vcomment
p1204
g4
sVserverIPAddress
p1205
V216.58.216.206
p1206
sVpageref
p1207
VNate Diaz
p1208
sVstartedDateTime
p1209
V2017-04-16T08:18:23.831-05:00
p1210
sVcache
p1211
(dp1212
sVrequest
p1213
(dp1214
Vcomment
p1215
g4
sVcookies
p1216
(lp1217
sVurl
p1218
Vhttps://encrypted-tbn2.gstatic.com/images?q=tbn:ANd9GcQp-9sP1nAcPavaLsCLA2B9G2PIyEVGop_3_qUAIJzUhg9n-Ep1BYn9ccaKIA
p1219
sVqueryString
p1220
(lp1221
(dp1222
Vname
p1223
g406
sVvalue
p1224
Vtbn:ANd9GcQp-9sP1nAcPavaLsCLA2B9G2PIyEVGop_3_qUAIJzUhg9n-Ep1BYn9ccaKIA
p1225
sasVheaders
p1226
(lp1227
sVheadersSize
p1228
I429
sVbodySize
p1229
I0
sVmethod
p1230
VGET
p1231
sVhttpVersion
p1232
VHTTP/1.1
p1233
ssVtimings
p1234
(dp1235
Vcomment
p1236
g4
sVreceive
p1237
I6
sVsend
p1238
I0
sVssl
p1239
I-1
sVconnect
p1240
I-1
sVdns
p1241
I-1
sVwait
p1242
I20
sVblocked
p1243
I-1
ssVtime
p1244
I27
sVresponse
p1245
(dp1246
Vstatus
p1247
I200
sVcomment
p1248
g4
sVcookies
p1249
(lp1250
sVstatusText
p1251
VOK
p1252
sVcontent
p1253
(dp1254
VmimeType
p1255
Vimage/jpeg
p1256
sVcomment
p1257
g4
sVsize
p1258
I0
ssVheaders
p1259
(lp1260
sVheadersSize
p1261
I428
sVredirectURL
p1262
g4
sVbodySize
p1263
I3617
sVhttpVersion
p1264
VHTTP/1.1
p1265
ssa(dp1266
Vcomment
p1267
g4
sVserverIPAddress
p1268
V216.58.216.206
p1269
sVpageref
p1270
VNate Diaz
p1271
sVstartedDateTime
p1272
V2017-04-16T08:18:23.831-05:00
p1273
sVcache
p1274
(dp1275
sVrequest
p1276
(dp1277
Vcomment
p1278
g4
sVcookies
p1279
(lp1280
sVurl
p1281
Vhttps://encrypted-tbn0.gstatic.com/images?q=tbn:ANd9GcTyO1g2eyjMN24V3GXJoHG8q5oXTqzFqjdAdR8Ga3mA3rvV7Us5hVX2heUZxQ
p1282
sVqueryString
p1283
(lp1284
(dp1285
Vname
p1286
g406
sVvalue
p1287
Vtbn:ANd9GcTyO1g2eyjMN24V3GXJoHG8q5oXTqzFqjdAdR8Ga3mA3rvV7Us5hVX2heUZxQ
p1288
sasVheaders
p1289
(lp1290
sVheadersSize
p1291
I429
sVbodySize
p1292
I0
sVmethod
p1293
VGET
p1294
sVhttpVersion
p1295
VHTTP/1.1
p1296
ssVtimings
p1297
(dp1298
Vcomment
p1299
g4
sVreceive
p1300
I5
sVsend
p1301
I0
sVssl
p1302
I-1
sVconnect
p1303
I-1
sVdns
p1304
I-1
sVwait
p1305
I14
sVblocked
p1306
I-1
ssVtime
p1307
I20
sVresponse
p1308
(dp1309
Vstatus
p1310
I200
sVcomment
p1311
g4
sVcookies
p1312
(lp1313
sVstatusText
p1314
VOK
p1315
sVcontent
p1316
(dp1317
VmimeType
p1318
Vimage/jpeg
p1319
sVcomment
p1320
g4
sVsize
p1321
I0
ssVheaders
p1322
(lp1323
sVheadersSize
p1324
I428
sVredirectURL
p1325
g4
sVbodySize
p1326
I6468
sVhttpVersion
p1327
VHTTP/1.1
p1328
ssa(dp1329
Vcomment
p1330
g4
sVserverIPAddress
p1331
V216.58.216.206
p1332
sVpageref
p1333
VNate Diaz
p1334
sVstartedDateTime
p1335
V2017-04-16T08:18:23.879-05:00
p1336
sVcache
p1337
(dp1338
sVrequest
p1339
(dp1340
Vcomment
p1341
g4
sVcookies
p1342
(lp1343
sVurl
p1344
Vhttps://encrypted-tbn2.gstatic.com/images?q=tbn:ANd9GcQ398WngEFxkC13lZlcryr0Tdz5w3HpEg642c557oSGae9jwyRwrzUaHPS0
p1345
sVqueryString
p1346
(lp1347
(dp1348
Vname
p1349
g406
sVvalue
p1350
Vtbn:ANd9GcQ398WngEFxkC13lZlcryr0Tdz5w3HpEg642c557oSGae9jwyRwrzUaHPS0
p1351
sasVheaders
p1352
(lp1353
sVheadersSize
p1354
I427
sVbodySize
p1355
I0
sVmethod
p1356
VGET
p1357
sVhttpVersion
p1358
VHTTP/1.1
p1359
ssVtimings
p1360
(dp1361
Vcomment
p1362
g4
sVreceive
p1363
I0
sVsend
p1364
I0
sVssl
p1365
I27
sVconnect
p1366
I44
sVdns
p1367
I1
sVwait
p1368
I199
sVblocked
p1369
I0
ssVtime
p1370
I246
sVresponse
p1371
(dp1372
Vstatus
p1373
I200
sVcomment
p1374
g4
sVcookies
p1375
(lp1376
sVstatusText
p1377
VOK
p1378
sVcontent
p1379
(dp1380
VmimeType
p1381
Vimage/jpeg
p1382
sVcomment
p1383
g4
sVsize
p1384
I0
ssVheaders
p1385
(lp1386
sVheadersSize
p1387
I428
sVredirectURL
p1388
g4
sVbodySize
p1389
I5075
sVhttpVersion
p1390
VHTTP/1.1
p1391
ssa(dp1392
Vcomment
p1393
g4
sVserverIPAddress
p1394
V172.217.6.4
p1395
sVpageref
p1396
VNate Diaz
p1397
sVstartedDateTime
p1398
V2017-04-16T08:18:24.069-05:00
p1399
sVcache
p1400
(dp1401
sVrequest
p1402
(dp1403
Vcomment
p1404
g4
sVcookies
p1405
(lp1406
sVurl
p1407
Vhttps://www.google.com/async/log_amp_item_set?vet=10ahUKEwi0ir-SiKnTAhXE44MKHVozBf8QooQBCAE..i&ei=HG_zWPPED-nYjwSnorCQAw&yv=2&async=num_items:2,_fmt:jspb
p1408
sVqueryString
p1409
(lp1410
(dp1411
Vname
p1412
Vvet
p1413
sVvalue
p1414
V10ahUKEwi0ir-SiKnTAhXE44MKHVozBf8QooQBCAE..i
p1415
sa(dp1416
Vname
p1417
Vei
p1418
sVvalue
p1419
VHG_zWPPED-nYjwSnorCQAw
p1420
sa(dp1421
Vname
p1422
Vyv
p1423
sVvalue
p1424
g49
sa(dp1425
Vname
p1426
Vasync
p1427
sVvalue
p1428
Vnum_items:2,_fmt:jspb
p1429
sasVheaders
p1430
(lp1431
sVheadersSize
p1432
I670
sVbodySize
p1433
I0
sVmethod
p1434
VGET
p1435
sVhttpVersion
p1436
VHTTP/1.1
p1437
ssVtimings
p1438
(dp1439
Vcomment
p1440
g4
sVreceive
p1441
I0
sVsend
p1442
I0
sVssl
p1443
I-1
sVconnect
p1444
I-1
sVdns
p1445
I-1
sVwait
p1446
I32
sVblocked
p1447
I-1
ssVtime
p1448
I32
sVresponse
p1449
(dp1450
Vstatus
p1451
I200
sVcomment
p1452
g4
sVcookies
p1453
(lp1454
sVstatusText
p1455
VOK
p1456
sVcontent
p1457
(dp1458
VmimeType
p1459
Vapplication/json; charset=UTF-8
p1460
sVcomment
p1461
g4
sVsize
p1462
I0
ssVheaders
p1463
(lp1464
sVheadersSize
p1465
I417
sVredirectURL
p1466
g4
sVbodySize
p1467
I141
sVhttpVersion
p1468
VHTTP/1.1
p1469
ssa(dp1470
Vcomment
p1471
g4
sVserverIPAddress
p1472
V216.58.216.193
p1473
sVpageref
p1474
VNate Diaz
p1475
sVstartedDateTime
p1476
V2017-04-16T08:18:25.003-05:00
p1477
sVcache
p1478
(dp1479
sVrequest
p1480
(dp1481
Vcomment
p1482
g4
sVcookies
p1483
(lp1484
sVurl
p1485
Vhttps://www-dailystar-co-uk.cdn.ampproject.org/v/s/www.dailystar.co.uk/sport/ufc/605938/Conor-McGregor-Nate-Diaz-UFC-196-John-Kavanagh-UFC-News/amp?amp_js_v=9
p1486
sVqueryString
p1487
(lp1488
(dp1489
Vname
p1490
Vamp_js_v
p1491
sVvalue
p1492
V9
p1493
sasVheaders
p1494
(lp1495
sVheadersSize
p1496
I563
sVbodySize
p1497
I0
sVmethod
p1498
VGET
p1499
sVhttpVersion
p1500
VHTTP/1.1
p1501
ssVtimings
p1502
(dp1503
Vcomment
p1504
g4
sVreceive
p1505
I18
sVsend
p1506
I0
sVssl
p1507
I876
sVconnect
p1508
I890
sVdns
p1509
I35
sVwait
p1510
I103
sVblocked
p1511
I0
ssVtime
p1512
I1048
sVresponse
p1513
(dp1514
Vstatus
p1515
I200
sVcomment
p1516
g4
sVcookies
p1517
(lp1518
sVstatusText
p1519
VOK
p1520
sVcontent
p1521
(dp1522
VmimeType
p1523
Vtext/html
p1524
sVcomment
p1525
g4
sVsize
p1526
I0
ssVheaders
p1527
(lp1528
sVheadersSize
p1529
I862
sVredirectURL
p1530
g4
sVbodySize
p1531
I12226
sVhttpVersion
p1532
VHTTP/1.1
p1533
ssa(dp1534
Vcomment
p1535
g4
sVserverIPAddress
p1536
V216.58.216.193
p1537
sVpageref
p1538
VNate Diaz
p1539
sVstartedDateTime
p1540
V2017-04-16T08:18:25.119-05:00
p1541
sVcache
p1542
(dp1543
sVrequest
p1544
(dp1545
Vcomment
p1546
g4
sVcookies
p1547
(lp1548
sVurl
p1549
Vhttps://cdn.ampproject.org/rtv/011492014732688/v0/amp-user-notification-0.1.js
p1550
sVqueryString
p1551
(lp1552
sVheaders
p1553
(lp1554
sVheadersSize
p1555
I528
sVbodySize
p1556
I0
sVmethod
p1557
VGET
p1558
sVhttpVersion
p1559
VHTTP/1.1
p1560
ssVtimings
p1561
(dp1562
Vcomment
p1563
g4
sVreceive
p1564
I5
sVsend
p1565
I0
sVssl
p1566
I-1
sVconnect
p1567
I-1
sVdns
p1568
I-1
sVwait
p1569
I26
sVblocked
p1570
I-1
ssVtime
p1571
I31
sVresponse
p1572
(dp1573
Vstatus
p1574
I200
sVcomment
p1575
g4
sVcookies
p1576
(lp1577
sVstatusText
p1578
VOK
p1579
sVcontent
p1580
(dp1581
VmimeType
p1582
Vtext/javascript
p1583
sVcomment
p1584
g4
sVsize
p1585
I0
ssVheaders
p1586
(lp1587
sVheadersSize
p1588
I1165
sVredirectURL
p1589
g4
sVbodySize
p1590
I3486
sVhttpVersion
p1591
VHTTP/1.1
p1592
ssa(dp1593
Vcomment
p1594
g4
sVserverIPAddress
p1595
V216.58.216.202
p1596
sVpageref
p1597
VNate Diaz
p1598
sVstartedDateTime
p1599
V2017-04-16T08:18:25.120-05:00
p1600
sVcache
p1601
(dp1602
sVrequest
p1603
(dp1604
Vcomment
p1605
g4
sVcookies
p1606
(lp1607
sVurl
p1608
Vhttps://fonts.googleapis.com/css?family=Lato:400,700,700italic,900,900italic
p1609
sVqueryString
p1610
(lp1611
(dp1612
Vname
p1613
Vfamily
p1614
sVvalue
p1615
VLato:400,700,700italic,900,900italic
p1616
sasVheaders
p1617
(lp1618
sVheadersSize
p1619
I541
sVbodySize
p1620
I0
sVmethod
p1621
VGET
p1622
sVhttpVersion
p1623
VHTTP/1.1
p1624
ssVtimings
p1625
(dp1626
Vcomment
p1627
g4
sVreceive
p1628
I3
sVsend
p1629
I0
sVssl
p1630
I-1
sVconnect
p1631
I-1
sVdns
p1632
I-1
sVwait
p1633
I41
sVblocked
p1634
I-1
ssVtime
p1635
I45
sVresponse
p1636
(dp1637
Vstatus
p1638
I200
sVcomment
p1639
g4
sVcookies
p1640
(lp1641
sVstatusText
p1642
VOK
p1643
sVcontent
p1644
(dp1645
VmimeType
p1646
Vtext/css; charset=utf-8
p1647
sVcomment
p1648
g4
sVsize
p1649
I0
ssVheaders
p1650
(lp1651
sVheadersSize
p1652
I405
sVredirectURL
p1653
g4
sVbodySize
p1654
I642
sVhttpVersion
p1655
VHTTP/1.1
p1656
ssa(dp1657
Vcomment
p1658
g4
sVserverIPAddress
p1659
V216.58.216.195
p1660
sVpageref
p1661
VNate Diaz
p1662
sVstartedDateTime
p1663
V2017-04-16T08:18:25.259-05:00
p1664
sVcache
p1665
(dp1666
sVrequest
p1667
(dp1668
Vcomment
p1669
g4
sVcookies
p1670
(lp1671
sVurl
p1672
Vhttps://fonts.gstatic.com/s/lato/v13/lEjOv129Q3iN1tuqWOeRBgLUuEpTyoUstqEm5AMlJo4.woff2
p1673
sVqueryString
p1674
(lp1675
sVheaders
p1676
(lp1677
sVheadersSize
p1678
I564
sVbodySize
p1679
I0
sVmethod
p1680
VGET
p1681
sVhttpVersion
p1682
VHTTP/1.1
p1683
ssVtimings
p1684
(dp1685
Vcomment
p1686
g4
sVreceive
p1687
I5
sVsend
p1688
I0
sVssl
p1689
I-1
sVconnect
p1690
I-1
sVdns
p1691
I-1
sVwait
p1692
I18
sVblocked
p1693
I-1
ssVtime
p1694
I24
sVresponse
p1695
(dp1696
Vstatus
p1697
I200
sVcomment
p1698
g4
sVcookies
p1699
(lp1700
sVstatusText
p1701
VOK
p1702
sVcontent
p1703
(dp1704
VmimeType
p1705
Vfont/woff2
p1706
sVcomment
p1707
g4
sVsize
p1708
I0
ssVheaders
p1709
(lp1710
sVheadersSize
p1711
I453
sVredirectURL
p1712
g4
sVbodySize
p1713
I13516
sVhttpVersion
p1714
VHTTP/1.1
p1715
ssa(dp1716
Vcomment
p1717
g4
sVserverIPAddress
p1718
V216.58.216.193
p1719
sVpageref
p1720
VNate Diaz
p1721
sVstartedDateTime
p1722
V2017-04-16T08:18:25.634-05:00
p1723
sVcache
p1724
(dp1725
sVrequest
p1726
(dp1727
Vcomment
p1728
g4
sVcookies
p1729
(lp1730
sVurl
p1731
Vhttps://cdn-images-dailystar-co-uk.cdn.ampproject.org/i/s/cdn.images.dailystar.co.uk/ampages/img/static/icons/share2/facebook_share.png
p1732
sVqueryString
p1733
(lp1734
sVheaders
p1735
(lp1736
sVheadersSize
p1737
I585
sVbodySize
p1738
I0
sVmethod
p1739
VGET
p1740
sVhttpVersion
p1741
VHTTP/1.1
p1742
ssVtimings
p1743
(dp1744
Vcomment
p1745
g4
sVreceive
p1746
I0
sVsend
p1747
I0
sVssl
p1748
I339
sVconnect
p1749
I356
sVdns
p1750
I39
sVwait
p1751
I32
sVblocked
p1752
I0
ssVtime
p1753
I427
sVresponse
p1754
(dp1755
Vstatus
p1756
I200
sVcomment
p1757
g4
sVcookies
p1758
(lp1759
sVstatusText
p1760
VOK
p1761
sVcontent
p1762
(dp1763
VmimeType
p1764
Vimage/png
p1765
sVcomment
p1766
g4
sVsize
p1767
I0
ssVheaders
p1768
(lp1769
sVheadersSize
p1770
I818
sVredirectURL
p1771
g4
sVbodySize
p1772
I807
sVhttpVersion
p1773
VHTTP/1.1
p1774
ssa(dp1775
Vcomment
p1776
g4
sVserverIPAddress
p1777
V216.58.216.193
p1778
sVpageref
p1779
VNate Diaz
p1780
sVstartedDateTime
p1781
V2017-04-16T08:18:25.634-05:00
p1782
sVcache
p1783
(dp1784
sVrequest
p1785
(dp1786
Vcomment
p1787
g4
sVcookies
p1788
(lp1789
sVurl
p1790
Vhttps://cdn-images-dailystar-co-uk.cdn.ampproject.org/i/s/cdn.images.dailystar.co.uk/ampages/img/static/icons/share2/whatsapp.png
p1791
sVqueryString
p1792
(lp1793
sVheaders
p1794
(lp1795
sVheadersSize
p1796
I579
sVbodySize
p1797
I0
sVmethod
p1798
VGET
p1799
sVhttpVersion
p1800
VHTTP/1.1
p1801
ssVtimings
p1802
(dp1803
Vcomment
p1804
g4
sVreceive
p1805
I0
sVsend
p1806
I0
sVssl
p1807
I350
sVconnect
p1808
I369
sVdns
p1809
I39
sVwait
p1810
I32
sVblocked
p1811
I0
ssVtime
p1812
I442
sVresponse
p1813
(dp1814
Vstatus
p1815
I200
sVcomment
p1816
g4
sVcookies
p1817
(lp1818
sVstatusText
p1819
VOK
p1820
sVcontent
p1821
(dp1822
VmimeType
p1823
Vimage/png
p1824
sVcomment
p1825
g4
sVsize
p1826
I0
ssVheaders
p1827
(lp1828
sVheadersSize
p1829
I818
sVredirectURL
p1830
g4
sVbodySize
p1831
I585
sVhttpVersion
p1832
VHTTP/1.1
p1833
ssa(dp1834
Vcomment
p1835
g4
sVserverIPAddress
p1836
V216.58.216.193
p1837
sVpageref
p1838
VNate Diaz
p1839
sVstartedDateTime
p1840
V2017-04-16T08:18:25.634-05:00
p1841
sVcache
p1842
(dp1843
sVrequest
p1844
(dp1845
Vcomment
p1846
g4
sVcookies
p1847
(lp1848
sVurl
p1849
Vhttps://cdn-images-dailystar-co-uk.cdn.ampproject.org/i/s/cdn.images.dailystar.co.uk/ampages/img/static/icons/share2/twitter.png
p1850
sVqueryString
p1851
(lp1852
sVheaders
p1853
(lp1854
sVheadersSize
p1855
I578
sVbodySize
p1856
I0
sVmethod
p1857
VGET
p1858
sVhttpVersion
p1859
VHTTP/1.1
p1860
ssVtimings
p1861
(dp1862
Vcomment
p1863
g4
sVreceive
p1864
I0
sVsend
p1865
I0
sVssl
p1866
I353
sVconnect
p1867
I372
sVdns
p1868
I39
sVwait
p1869
I32
sVblocked
p1870
I0
ssVtime
p1871
I443
sVresponse
p1872
(dp1873
Vstatus
p1874
I200
sVcomment
p1875
g4
sVcookies
p1876
(lp1877
sVstatusText
p1878
VOK
p1879
sVcontent
p1880
(dp1881
VmimeType
p1882
Vimage/png
p1883
sVcomment
p1884
g4
sVsize
p1885
I0
ssVheaders
p1886
(lp1887
sVheadersSize
p1888
I818
sVredirectURL
p1889
g4
sVbodySize
p1890
I453
sVhttpVersion
p1891
VHTTP/1.1
p1892
ssa(dp1893
Vcomment
p1894
g4
sVserverIPAddress
p1895
V216.58.216.193
p1896
sVpageref
p1897
VNate Diaz
p1898
sVstartedDateTime
p1899
V2017-04-16T08:18:25.635-05:00
p1900
sVcache
p1901
(dp1902
sVrequest
p1903
(dp1904
Vcomment
p1905
g4
sVcookies
p1906
(lp1907
sVurl
p1908
Vhttps://cdn-images-dailystar-co-uk.cdn.ampproject.org/i/s/cdn.images.dailystar.co.uk/ampages/img/static/caption-bl.png
p1909
sVqueryString
p1910
(lp1911
sVheaders
p1912
(lp1913
sVheadersSize
p1914
I568
sVbodySize
p1915
I0
sVmethod
p1916
VGET
p1917
sVhttpVersion
p1918
VHTTP/1.1
p1919
ssVtimings
p1920
(dp1921
Vcomment
p1922
g4
sVreceive
p1923
I0
sVsend
p1924
I0
sVssl
p1925
I363
sVconnect
p1926
I379
sVdns
p1927
I38
sVwait
p1928
I31
sVblocked
p1929
I0
ssVtime
p1930
I448
sVresponse
p1931
(dp1932
Vstatus
p1933
I200
sVcomment
p1934
g4
sVcookies
p1935
(lp1936
sVstatusText
p1937
VOK
p1938
sVcontent
p1939
(dp1940
VmimeType
p1941
Vimage/png
p1942
sVcomment
p1943
g4
sVsize
p1944
I0
ssVheaders
p1945
(lp1946
sVheadersSize
p1947
I817
sVredirectURL
p1948
g4
sVbodySize
p1949
I70
sVhttpVersion
p1950
VHTTP/1.1
p1951
ssa(dp1952
Vcomment
p1953
g4
sVserverIPAddress
p1954
V216.58.216.193
p1955
sVpageref
p1956
VNate Diaz
p1957
sVstartedDateTime
p1958
V2017-04-16T08:18:25.649-05:00
p1959
sVcache
p1960
(dp1961
sVrequest
p1962
(dp1963
Vcomment
p1964
g4
sVcookies
p1965
(lp1966
sVurl
p1967
Vhttps://cdn-images-dailystar-co-uk.cdn.ampproject.org/i/s/cdn.images.dailystar.co.uk/ampages/img/static/daily-star.png
p1968
sVqueryString
p1969
(lp1970
sVheaders
p1971
(lp1972
sVheadersSize
p1973
I568
sVbodySize
p1974
I0
sVmethod
p1975
VGET
p1976
sVhttpVersion
p1977
VHTTP/1.1
p1978
ssVtimings
p1979
(dp1980
Vcomment
p1981
g4
sVreceive
p1982
I0
sVsend
p1983
I0
sVssl
p1984
I87
sVconnect
p1985
I104
sVdns
p1986
I0
sVwait
p1987
I23
sVblocked
p1988
I0
ssVtime
p1989
I128
sVresponse
p1990
(dp1991
Vstatus
p1992
I200
sVcomment
p1993
g4
sVcookies
p1994
(lp1995
sVstatusText
p1996
VOK
p1997
sVcontent
p1998
(dp1999
VmimeType
p2000
Vimage/png
p2001
sVcomment
p2002
g4
sVsize
p2003
I0
ssVheaders
p2004
(lp2005
sVheadersSize
p2006
I819
sVredirectURL
p2007
g4
sVbodySize
p2008
I1813
sVhttpVersion
p2009
VHTTP/1.1
p2010
ssa(dp2011
Vcomment
p2012
g4
sVserverIPAddress
p2013
V216.58.216.193
p2014
sVpageref
p2015
VNate Diaz
p2016
sVstartedDateTime
p2017
V2017-04-16T08:18:25.655-05:00
p2018
sVcache
p2019
(dp2020
sVrequest
p2021
(dp2022
Vcomment
p2023
g4
sVcookies
p2024
(lp2025
sVurl
p2026
Vhttps://cdn-images-dailystar-co-uk.cdn.ampproject.org/ii/w1200/s/cdn.images.dailystar.co.uk/dynamic/193/photos/785000/620x/conor-mcgregor-605938.jpg
p2027
sVqueryString
p2028
(lp2029
sVheaders
p2030
(lp2031
sVheadersSize
p2032
I598
sVbodySize
p2033
I0
sVmethod
p2034
VGET
p2035
sVhttpVersion
p2036
VHTTP/1.1
p2037
ssVtimings
p2038
(dp2039
Vcomment
p2040
g4
sVreceive
p2041
I16
sVsend
p2042
I0
sVssl
p2043
I77
sVconnect
p2044
I102
sVdns
p2045
I0
sVwait
p2046
I48
sVblocked
p2047
I0
ssVtime
p2048
I167
sVresponse
p2049
(dp2050
Vstatus
p2051
I200
sVcomment
p2052
g4
sVcookies
p2053
(lp2054
sVstatusText
p2055
VOK
p2056
sVcontent
p2057
(dp2058
VmimeType
p2059
Vimage/jpeg
p2060
sVcomment
p2061
g4
sVsize
p2062
I0
ssVheaders
p2063
(lp2064
sVheadersSize
p2065
I846
sVredirectURL
p2066
g4
sVbodySize
p2067
I19245
sVhttpVersion
p2068
VHTTP/1.1
p2069
ssa(dp2070
Vcomment
p2071
g4
sVserverIPAddress
p2072
V172.217.6.4
p2073
sVpageref
p2074
VNate Diaz
p2075
sVstartedDateTime
p2076
V2017-04-16T08:18:25.801-05:00
p2077
sVcache
p2078
(dp2079
sVrequest
p2080
(dp2081
Vcomment
p2082
g4
sVcookies
p2083
(lp2084
sVurl
p2085
Vhttps://www.google.com/gen_204?s=amp&atyp=csi&ei=HG_zWPPED-nYjwSnorCQAw&ampexp=011492014732688&action=Prerender&rt=msr.560,is.1144,mbv.1545,e_is.1546
p2086
sVqueryString
p2087
(lp2088
(dp2089
Vname
p2090
g47
sVvalue
p2091
Vamp
p2092
sa(dp2093
Vname
p2094
Vatyp
p2095
sVvalue
p2096
Vcsi
p2097
sa(dp2098
Vname
p2099
Vei
p2100
sVvalue
p2101
VHG_zWPPED-nYjwSnorCQAw
p2102
sa(dp2103
Vname
p2104
Vampexp
p2105
sVvalue
p2106
V011492014732688
p2107
sa(dp2108
Vname
p2109
Vaction
p2110
sVvalue
p2111
VPrerender
p2112
sa(dp2113
Vname
p2114
Vrt
p2115
sVvalue
p2116
Vmsr.560,is.1144,mbv.1545,e_is.1546
p2117
sasVheaders
p2118
(lp2119
sVheadersSize
p2120
I666
sVbodySize
p2121
I0
sVmethod
p2122
VGET
p2123
sVhttpVersion
p2124
VHTTP/1.1
p2125
ssVtimings
p2126
(dp2127
Vcomment
p2128
g4
sVreceive
p2129
I0
sVsend
p2130
I0
sVssl
p2131
I-1
sVconnect
p2132
I-1
sVdns
p2133
I-1
sVwait
p2134
I36
sVblocked
p2135
I-1
ssVtime
p2136
I37
sVresponse
p2137
(dp2138
Vstatus
p2139
I204
sVcomment
p2140
g4
sVcookies
p2141
(lp2142
sVstatusText
p2143
VNo Content
p2144
sVcontent
p2145
(dp2146
VmimeType
p2147
Vtext/html; charset=UTF-8
p2148
sVcomment
p2149
g4
sVsize
p2150
I0
ssVheaders
p2151
(lp2152
sVheadersSize
p2153
I248
sVredirectURL
p2154
g4
sVbodySize
p2155
I0
sVhttpVersion
p2156
VHTTP/1.1
p2157
ssa(dp2158
Vcomment
p2159
g4
sVserverIPAddress
p2160
V172.217.6.4
p2161
sVpageref
p2162
VNate Diaz
p2163
sVstartedDateTime
p2164
V2017-04-16T08:18:25.824-05:00
p2165
sVcache
p2166
(dp2167
sVrequest
p2168
(dp2169
Vcomment
p2170
g4
sVcookies
p2171
(lp2172
sVurl
p2173
Vhttps://www.google.com/gen_204?s=amp&atyp=csi&ei=HG_zWPPED-nYjwSnorCQAw&ampexp=011492014732688&action=Prerender&rt=ol.1730
p2174
sVqueryString
p2175
(lp2176
(dp2177
Vname
p2178
g47
sVvalue
p2179
Vamp
p2180
sa(dp2181
Vname
p2182
Vatyp
p2183
sVvalue
p2184
Vcsi
p2185
sa(dp2186
Vname
p2187
Vei
p2188
sVvalue
p2189
VHG_zWPPED-nYjwSnorCQAw
p2190
sa(dp2191
Vname
p2192
Vampexp
p2193
sVvalue
p2194
V011492014732688
p2195
sa(dp2196
Vname
p2197
Vaction
p2198
sVvalue
p2199
VPrerender
p2200
sa(dp2201
Vname
p2202
Vrt
p2203
sVvalue
p2204
Vol.1730
p2205
sasVheaders
p2206
(lp2207
sVheadersSize
p2208
I639
sVbodySize
p2209
I0
sVmethod
p2210
VGET
p2211
sVhttpVersion
p2212
VHTTP/1.1
p2213
ssVtimings
p2214
(dp2215
Vcomment
p2216
g4
sVreceive
p2217
I0
sVsend
p2218
I1
sVssl
p2219
I-1
sVconnect
p2220
I-1
sVdns
p2221
I-1
sVwait
p2222
I44
sVblocked
p2223
I-1
ssVtime
p2224
I46
sVresponse
p2225
(dp2226
Vstatus
p2227
I204
sVcomment
p2228
g4
sVcookies
p2229
(lp2230
sVstatusText
p2231
VNo Content
p2232
sVcontent
p2233
(dp2234
VmimeType
p2235
Vtext/html; charset=UTF-8
p2236
sVcomment
p2237
g4
sVsize
p2238
I0
ssVheaders
p2239
(lp2240
sVheadersSize
p2241
I248
sVredirectURL
p2242
g4
sVbodySize
p2243
I0
sVhttpVersion
p2244
VHTTP/1.1
p2245
ssa(dp2246
Vcomment
p2247
g4
sVserverIPAddress
p2248
V172.217.6.4
p2249
sVpageref
p2250
VNate Diaz
p2251
sVstartedDateTime
p2252
V2017-04-16T08:18:25.843-05:00
p2253
sVcache
p2254
(dp2255
sVrequest
p2256
(dp2257
Vcomment
p2258
g4
sVcookies
p2259
(lp2260
sVurl
p2261
Vhttps://www.google.com/gen_204?s=amp&atyp=csi&ei=HG_zWPPED-nYjwSnorCQAw&ampexp=011492014732688&action=Prerender&rt=pc.1
p2262
sVqueryString
p2263
(lp2264
(dp2265
Vname
p2266
g47
sVvalue
p2267
Vamp
p2268
sa(dp2269
Vname
p2270
Vatyp
p2271
sVvalue
p2272
Vcsi
p2273
sa(dp2274
Vname
p2275
Vei
p2276
sVvalue
p2277
VHG_zWPPED-nYjwSnorCQAw
p2278
sa(dp2279
Vname
p2280
Vampexp
p2281
sVvalue
p2282
V011492014732688
p2283
sa(dp2284
Vname
p2285
Vaction
p2286
sVvalue
p2287
VPrerender
p2288
sa(dp2289
Vname
p2290
Vrt
p2291
sVvalue
p2292
Vpc.1
p2293
sasVheaders
p2294
(lp2295
sVheadersSize
p2296
I636
sVbodySize
p2297
I0
sVmethod
p2298
VGET
p2299
sVhttpVersion
p2300
VHTTP/1.1
p2301
ssVtimings
p2302
(dp2303
Vcomment
p2304
g4
sVreceive
p2305
I0
sVsend
p2306
I0
sVssl
p2307
I-1
sVconnect
p2308
I-1
sVdns
p2309
I-1
sVwait
p2310
I23
sVblocked
p2311
I-1
ssVtime
p2312
I24
sVresponse
p2313
(dp2314
Vstatus
p2315
I204
sVcomment
p2316
g4
sVcookies
p2317
(lp2318
sVstatusText
p2319
VNo Content
p2320
sVcontent
p2321
(dp2322
VmimeType
p2323
Vtext/html; charset=UTF-8
p2324
sVcomment
p2325
g4
sVsize
p2326
I0
ssVheaders
p2327
(lp2328
sVheadersSize
p2329
I248
sVredirectURL
p2330
g4
sVbodySize
p2331
I0
sVhttpVersion
p2332
VHTTP/1.1
p2333
ssa(dp2334
Vcomment
p2335
g4
sVserverIPAddress
p2336
V172.217.6.4
p2337
sVpageref
p2338
VNate Diaz
p2339
sVstartedDateTime
p2340
V2017-04-16T08:18:25.845-05:00
p2341
sVcache
p2342
(dp2343
sVrequest
p2344
(dp2345
Vcomment
p2346
g4
sVcookies
p2347
(lp2348
sVurl
p2349
Vhttps://www.google.com/gen_204?atyp=i&ct=slh&cad=&ei=A2_zWInQHYepjwSs4p-wCA&s=2&v=2&pv=0.24757193521684684&me=15:1492348681459,V,0,0,0,0:624,U,624:0,V,0,0,1280,944:18403,e,U&zx=1492348705836
p2350
sVqueryString
p2351
(lp2352
(dp2353
Vname
p2354
Vatyp
p2355
sVvalue
p2356
g30
sa(dp2357
Vname
p2358
Vct
p2359
sVvalue
p2360
Vslh
p2361
sa(dp2362
Vname
p2363
Vcad
p2364
sVvalue
p2365
g4
sa(dp2366
Vname
p2367
Vei
p2368
sVvalue
p2369
VA2_zWInQHYepjwSs4p-wCA
p2370
sa(dp2371
Vname
p2372
g47
sVvalue
p2373
g49
sa(dp2374
Vname
p2375
g52
sVvalue
p2376
g49
sa(dp2377
Vname
p2378
Vpv
p2379
sVvalue
p2380
V0.24757193521684684
p2381
sa(dp2382
Vname
p2383
Vme
p2384
sVvalue
p2385
V15:1492348681459,V,0,0,0,0:624,U,624:0,V,0,0,1280,944:18403,e,U
p2386
sa(dp2387
Vname
p2388
Vzx
p2389
sVvalue
p2390
V1492348705836
p2391
sasVheaders
p2392
(lp2393
sVheadersSize
p2394
I707
sVbodySize
p2395
I0
sVmethod
p2396
VGET
p2397
sVhttpVersion
p2398
VHTTP/1.1
p2399
ssVtimings
p2400
(dp2401
Vcomment
p2402
g4
sVreceive
p2403
I0
sVsend
p2404
I0
sVssl
p2405
I-1
sVconnect
p2406
I-1
sVdns
p2407
I-1
sVwait
p2408
I27
sVblocked
p2409
I-1
ssVtime
p2410
I27
sVresponse
p2411
(dp2412
Vstatus
p2413
I204
sVcomment
p2414
g4
sVcookies
p2415
(lp2416
sVstatusText
p2417
VNo Content
p2418
sVcontent
p2419
(dp2420
VmimeType
p2421
Vtext/html; charset=UTF-8
p2422
sVcomment
p2423
g4
sVsize
p2424
I0
ssVheaders
p2425
(lp2426
sVheadersSize
p2427
I248
sVredirectURL
p2428
g4
sVbodySize
p2429
I0
sVhttpVersion
p2430
VHTTP/1.1
p2431
ssa(dp2432
Vcomment
p2433
g4
sVserverIPAddress
p2434
V172.217.6.4
p2435
sVpageref
p2436
VNate Diaz
p2437
sVstartedDateTime
p2438
V2017-04-16T08:18:25.924-05:00
p2439
sVcache
p2440
(dp2441
sVrequest
p2442
(dp2443
Vcomment
p2444
g4
sVcookies
p2445
(lp2446
sVurl
p2447
Vhttps://www.google.com/gen_204?s=web&atyp=csi&ei=HG_zWPPED-nYjwSnorCQAw&imc=44&imn=44&imp=23&adh=&xjs=init.82.14.sb_mob.60.dvl.8.mbsf.3.c.2.jsa.2&ima=13&rt=prt.837,iml.1107,xjsls.837,qiml.1252,dcl.1091,xjses.1377,xjsee.1705,xjs.1706,ol.4515,aft.1057,wsrt.139,cst.0,dnst.0,rqst.892,rspt.773,rqstt.2,unt.2,cstt.2,dit.1178
p2448
sVqueryString
p2449
(lp2450
(dp2451
Vname
p2452
g47
sVvalue
p2453
Vweb
p2454
sa(dp2455
Vname
p2456
Vatyp
p2457
sVvalue
p2458
Vcsi
p2459
sa(dp2460
Vname
p2461
Vei
p2462
sVvalue
p2463
VHG_zWPPED-nYjwSnorCQAw
p2464
sa(dp2465
Vname
p2466
Vimc
p2467
sVvalue
p2468
V44
p2469
sa(dp2470
Vname
p2471
Vimn
p2472
sVvalue
p2473
V44
p2474
sa(dp2475
Vname
p2476
Vimp
p2477
sVvalue
p2478
V23
p2479
sa(dp2480
Vname
p2481
Vadh
p2482
sVvalue
p2483
g4
sa(dp2484
Vname
p2485
Vxjs
p2486
sVvalue
p2487
Vinit.82.14.sb_mob.60.dvl.8.mbsf.3.c.2.jsa.2
p2488
sa(dp2489
Vname
p2490
Vima
p2491
sVvalue
p2492
V13
p2493
sa(dp2494
Vname
p2495
Vrt
p2496
sVvalue
p2497
Vprt.837,iml.1107,xjsls.837,qiml.1252,dcl.1091,xjses.1377,xjsee.1705,xjs.1706,ol.4515,aft.1057,wsrt.139,cst.0,dnst.0,rqst.892,rspt.773,rqstt.2,unt.2,cstt.2,dit.1178
p2498
sasVheaders
p2499
(lp2500
sVheadersSize
p2501
I836
sVbodySize
p2502
I0
sVmethod
p2503
VGET
p2504
sVhttpVersion
p2505
VHTTP/1.1
p2506
ssVtimings
p2507
(dp2508
Vcomment
p2509
g4
sVreceive
p2510
I0
sVsend
p2511
I0
sVssl
p2512
I-1
sVconnect
p2513
I-1
sVdns
p2514
I-1
sVwait
p2515
I46
sVblocked
p2516
I-1
ssVtime
p2517
I46
sVresponse
p2518
(dp2519
Vstatus
p2520
I204
sVcomment
p2521
g4
sVcookies
p2522
(lp2523
sVstatusText
p2524
VNo Content
p2525
sVcontent
p2526
(dp2527
VmimeType
p2528
Vtext/html; charset=UTF-8
p2529
sVcomment
p2530
g4
sVsize
p2531
I0
ssVheaders
p2532
(lp2533
sVheadersSize
p2534
I248
sVredirectURL
p2535
g4
sVbodySize
p2536
I0
sVhttpVersion
p2537
VHTTP/1.1
p2538
ssasVversion
p2539
V1.2
p2540
sVpages
p2541
(lp2542
(dp2543
VpageTimings
p2544
(dp2545
Vcomment
p2546
g4
ssVcomment
p2547
g4
sVtitle
p2548
VNate Diaz
p2549
sVid
p2550
VNate Diaz
p2551
sVstartedDateTime
p2552
V2017-04-16T08:18:20.476-05:00
p2553
sasVcreator
p2554
(dp2555
Vcomment
p2556
g4
sVversion
p2557
V2.1.4
p2558
sVname
p2559
VBrowserMob Proxy
p2560
sss.