(dp0
Vlog
p1
(dp2
Vcomment
p3
V
p4
sVentries
p5
(lp6
(dp7
Vcomment
p8
g4
sVserverIPAddress
p9
V172.217.6.4
p10
sVpageref
p11
VPho
p12
sVstartedDateTime
p13
V2017-04-16T08:46:31.501-05:00
p14
sVcache
p15
(dp16
sVrequest
p17
(dp18
Vcomment
p19
g4
sVcookies
p20
(lp21
sVurl
p22
Vhttps://www.google.com/gen_204?atyp=i&ct=slh&cad=&ei=oHXzWIn4PImwjwS_hL6ADQ&m=V&t=C&s=1&v=2&pv=0.8438932384551816&me=1:1492350376181,x:2,V,0,0,1280,944:0,N,1,oHXzWIn4PImwjwS_hL6ADQ:0,R,1,24,8,155,1249,564:0,R,1,26,8,155,1197,564:0,R,1,30,95,155,1024,120:0,R,1,85,16,351,1189,104:0,R,1,104,16,455,1189,104:0,R,1,124,16,559,1189,114:0,R,1,154,8,729,1249,463:0,R,1,155,8,729,1249,463:0,R,1,158,8,742,1249,40:0,R,1,171,8,794,1249,148:0,R,1,174,0,810,1265,167:2,B,3671:15314,e,U&zx=1492350391500
p23
sVqueryString
p24
(lp25
(dp26
Vname
p27
Vatyp
p28
sVvalue
p29
Vi
p30
sa(dp31
Vname
p32
Vct
p33
sVvalue
p34
Vslh
p35
sa(dp36
Vname
p37
Vcad
p38
sVvalue
p39
g4
sa(dp40
Vname
p41
Vei
p42
sVvalue
p43
VoHXzWIn4PImwjwS_hL6ADQ
p44
sa(dp45
Vname
p46
Vm
p47
sVvalue
p48
VV
p49
sa(dp50
Vname
p51
Vt
p52
sVvalue
p53
VC
p54
sa(dp55
Vname
p56
Vs
p57
sVvalue
p58
V1
p59
sa(dp60
Vname
p61
Vv
p62
sVvalue
p63
V2
p64
sa(dp65
Vname
p66
Vpv
p67
sVvalue
p68
V0.8438932384551816
p69
sa(dp70
Vname
p71
Vme
p72
sVvalue
p73
V1:1492350376181,x:2,V,0,0,1280,944:0,N,1,oHXzWIn4PImwjwS_hL6ADQ:0,R,1,24,8,155,1249,564:0,R,1,26,8,155,1197,564:0,R,1,30,95,155,1024,120:0,R,1,85,16,351,1189,104:0,R,1,104,16,455,1189,104:0,R,1,124,16,559,1189,114:0,R,1,154,8,729,1249,463:0,R,1,155,8,729,1249,463:0,R,1,158,8,742,1249,40:0,R,1,171,8,794,1249,148:0,R,1,174,0,810,1265,167:2,B,3671:15314,e,U
p74
sa(dp75
Vname
p76
Vzx
p77
sVvalue
p78
V1492350391500
p79
sasVheaders
p80
(lp81
sVheadersSize
p82
I1007
sVbodySize
p83
I0
sVmethod
p84
VGET
p85
sVhttpVersion
p86
VHTTP/1.1
p87
ssVtimings
p88
(dp89
Vcomment
p90
g4
sVreceive
p91
I0
sVsend
p92
I0
sVssl
p93
I-1
sVconnect
p94
I-1
sVdns
p95
I-1
sVwait
p96
I0
sVblocked
p97
I-1
ssVtime
p98
I0
sVresponse
p99
(dp100
Vstatus
p101
I0
sVcomment
p102
g4
sVcookies
p103
(lp104
sV_error
p105
VNo response received
p106
sVstatusText
p107
g4
sVcontent
p108
(dp109
VmimeType
p110
g4
sVcomment
p111
g4
sVsize
p112
I0
ssVheaders
p113
(lp114
sVheadersSize
p115
I-1
sVredirectURL
p116
g4
sVbodySize
p117
I-1
sVhttpVersion
p118
Vunknown
p119
ssa(dp120
Vcomment
p121
g4
sVserverIPAddress
p122
V172.217.6.4
p123
sVpageref
p124
VPho
p125
sVstartedDateTime
p126
V2017-04-16T08:46:31.504-05:00
p127
sVcache
p128
(dp129
sVrequest
p130
(dp131
Vcomment
p132
g4
sVcookies
p133
(lp134
sVurl
p135
Vhttp://www.google.com/
p136
sVqueryString
p137
(lp138
sVheaders
p139
(lp140
sVheadersSize
p141
I613
sVbodySize
p142
I0
sVmethod
p143
VGET
p144
sVhttpVersion
p145
VHTTP/1.1
p146
ssVtimings
p147
(dp148
Vcomment
p149
g4
sVreceive
p150
I0
sVsend
p151
I0
sVssl
p152
I-1
sVconnect
p153
I-1
sVdns
p154
I-1
sVwait
p155
I45
sVblocked
p156
I-1
ssVtime
p157
I45
sVresponse
p158
(dp159
Vstatus
p160
I302
sVcomment
p161
g4
sVcookies
p162
(lp163
sVstatusText
p164
VFound
p165
sVcontent
p166
(dp167
VmimeType
p168
Vtext/html; charset=UTF-8
p169
sVcomment
p170
g4
sVsize
p171
I0
ssVheaders
p172
(lp173
sVheadersSize
p174
I609
sVredirectURL
p175
Vhttps://www.google.com/?gws_rd=ssl
p176
sVbodySize
p177
I231
sVhttpVersion
p178
VHTTP/1.1
p179
ssa(dp180
Vcomment
p181
g4
sVserverIPAddress
p182
V172.217.6.4
p183
sVpageref
p184
VPho
p185
sVstartedDateTime
p186
V2017-04-16T08:46:31.557-05:00
p187
sVcache
p188
(dp189
sVrequest
p190
(dp191
Vcomment
p192
g4
sVcookies
p193
(lp194
sVurl
p195
Vhttps://www.google.com/?gws_rd=ssl
p196
sVqueryString
p197
(lp198
(dp199
Vname
p200
Vgws_rd
p201
sVvalue
p202
Vssl
p203
sasVheaders
p204
(lp205
sVheadersSize
p206
I607
sVbodySize
p207
I0
sVmethod
p208
VGET
p209
sVhttpVersion
p210
VHTTP/1.1
p211
ssVtimings
p212
(dp213
Vcomment
p214
g4
sVreceive
p215
I10
sVsend
p216
I0
sVssl
p217
I-1
sVconnect
p218
I-1
sVdns
p219
I-1
sVwait
p220
I76
sVblocked
p221
I-1
ssVtime
p222
I86
sVresponse
p223
(dp224
Vstatus
p225
I200
sVcomment
p226
g4
sVcookies
p227
(lp228
sVstatusText
p229
VOK
p230
sVcontent
p231
(dp232
VmimeType
p233
Vtext/html; charset=UTF-8
p234
sVcomment
p235
g4
sVsize
p236
I0
ssVheaders
p237
(lp238
sVheadersSize
p239
I721
sVredirectURL
p240
g4
sVbodySize
p241
I34292
sVhttpVersion
p242
VHTTP/1.1
p243
ssa(dp244
Vcomment
p245
g4
sVserverIPAddress
p246
V172.217.6.4
p247
sVpageref
p248
VPho
p249
sVstartedDateTime
p250
V2017-04-16T08:46:32.062-05:00
p251
sVcache
p252
(dp253
sVrequest
p254
(dp255
Vcomment
p256
g4
sVcookies
p257
(lp258
sVurl
p259
Vhttps://www.google.com/gen_204?s=mobilewebhp&atyp=csi&ei=tnXzWIrjIIzQjwSCvLXAAw&imc=1&imn=1&imp=0&adh=&xjs=init.40.12.sb_mob.31.dvl.4.jsa.2.c.1.mbsf.1&ima=1&rt=xjsls.13,prt.14,iml.14,dcl.50,xjses.130,xjsee.249,xjs.251,ol.390,aft.14,wsrt.162,cst.0,dnst.0,rqst.91,rspt.13,rqstt.57,unt.52,cstt.52,dit.201
p260
sVqueryString
p261
(lp262
(dp263
Vname
p264
g57
sVvalue
p265
Vmobilewebhp
p266
sa(dp267
Vname
p268
Vatyp
p269
sVvalue
p270
Vcsi
p271
sa(dp272
Vname
p273
Vei
p274
sVvalue
p275
VtnXzWIrjIIzQjwSCvLXAAw
p276
sa(dp277
Vname
p278
Vimc
p279
sVvalue
p280
g59
sa(dp281
Vname
p282
Vimn
p283
sVvalue
p284
g59
sa(dp285
Vname
p286
Vimp
p287
sVvalue
p288
V0
p289
sa(dp290
Vname
p291
Vadh
p292
sVvalue
p293
g4
sa(dp294
Vname
p295
Vxjs
p296
sVvalue
p297
Vinit.40.12.sb_mob.31.dvl.4.jsa.2.c.1.mbsf.1
p298
sa(dp299
Vname
p300
Vima
p301
sVvalue
p302
g59
sa(dp303
Vname
p304
Vrt
p305
sVvalue
p306
Vxjsls.13,prt.14,iml.14,dcl.50,xjses.130,xjsee.249,xjs.251,ol.390,aft.14,wsrt.162,cst.0,dnst.0,rqst.91,rspt.13,rqstt.57,unt.52,cstt.52,dit.201
p307
sasVheaders
p308
(lp309
sVheadersSize
p310
I829
sVbodySize
p311
I0
sVmethod
p312
VGET
p313
sVhttpVersion
p314
VHTTP/1.1
p315
ssVtimings
p316
(dp317
Vcomment
p318
g4
sVreceive
p319
I0
sVsend
p320
I0
sVssl
p321
I-1
sVconnect
p322
I-1
sVdns
p323
I-1
sVwait
p324
I32
sVblocked
p325
I-1
ssVtime
p326
I33
sVresponse
p327
(dp328
Vstatus
p329
I204
sVcomment
p330
g4
sVcookies
p331
(lp332
sVstatusText
p333
VNo Content
p334
sVcontent
p335
(dp336
VmimeType
p337
Vtext/html; charset=UTF-8
p338
sVcomment
p339
g4
sVsize
p340
I0
ssVheaders
p341
(lp342
sVheadersSize
p343
I248
sVredirectURL
p344
g4
sVbodySize
p345
I0
sVhttpVersion
p346
VHTTP/1.1
p347
ssa(dp348
Vcomment
p349
g4
sVserverIPAddress
p350
V172.217.6.4
p351
sVpageref
p352
VPho
p353
sVstartedDateTime
p354
V2017-04-16T08:46:32.203-05:00
p355
sVcache
p356
(dp357
sVrequest
p358
(dp359
Vcomment
p360
g4
sVcookies
p361
(lp362
sVurl
p363
Vhttps://www.google.com/complete/search?client=mobile-gws-hp&hl=en&gs_rn=64&gs_ri=mobile-gws-hp&sla=1&pfq=persimmon&gm=602&cp=0&gs_id=1&xhr=t&q=P&tch=1&ech=1&psi=tnXzWIrjIIzQjwSCvLXAAw.1492350391870.1
p364
sVqueryString
p365
(lp366
(dp367
Vname
p368
Vclient
p369
sVvalue
p370
Vmobile-gws-hp
p371
sa(dp372
Vname
p373
Vhl
p374
sVvalue
p375
Ven
p376
sa(dp377
Vname
p378
Vgs_rn
p379
sVvalue
p380
V64
p381
sa(dp382
Vname
p383
Vgs_ri
p384
sVvalue
p385
Vmobile-gws-hp
p386
sa(dp387
Vname
p388
Vsla
p389
sVvalue
p390
g59
sa(dp391
Vname
p392
Vpfq
p393
sVvalue
p394
Vpersimmon
p395
sa(dp396
Vname
p397
Vgm
p398
sVvalue
p399
V602
p400
sa(dp401
Vname
p402
Vcp
p403
sVvalue
p404
g289
sa(dp405
Vname
p406
Vgs_id
p407
sVvalue
p408
g59
sa(dp409
Vname
p410
Vxhr
p411
sVvalue
p412
g52
sa(dp413
Vname
p414
Vq
p415
sVvalue
p416
VP
p417
sa(dp418
Vname
p419
Vtch
p420
sVvalue
p421
g59
sa(dp422
Vname
p423
Vech
p424
sVvalue
p425
g59
sa(dp426
Vname
p427
Vpsi
p428
sVvalue
p429
VtnXzWIrjIIzQjwSCvLXAAw.1492350391870.1
p430
sasVheaders
p431
(lp432
sVheadersSize
p433
I727
sVbodySize
p434
I0
sVmethod
p435
VGET
p436
sVhttpVersion
p437
VHTTP/1.1
p438
ssVtimings
p439
(dp440
Vcomment
p441
g4
sVreceive
p442
I0
sVsend
p443
I0
sVssl
p444
I-1
sVconnect
p445
I-1
sVdns
p446
I-1
sVwait
p447
I0
sVblocked
p448
I-1
ssVtime
p449
I0
sVresponse
p450
(dp451
Vstatus
p452
I0
sVcomment
p453
g4
sVcookies
p454
(lp455
sV_error
p456
VNo response received
p457
sVstatusText
p458
g4
sVcontent
p459
(dp460
VmimeType
p461
g4
sVcomment
p462
g4
sVsize
p463
I0
ssVheaders
p464
(lp465
sVheadersSize
p466
I-1
sVredirectURL
p467
g4
sVbodySize
p468
I-1
sVhttpVersion
p469
Vunknown
p470
ssa(dp471
Vcomment
p472
g4
sVserverIPAddress
p473
V172.217.6.4
p474
sVpageref
p475
VPho
p476
sVstartedDateTime
p477
V2017-04-16T08:46:32.237-05:00
p478
sVcache
p479
(dp480
sVrequest
p481
(dp482
Vcomment
p483
g4
sVcookies
p484
(lp485
sVurl
p486
Vhttps://www.google.com/search?site=&source=hp&ei=tnXzWIrjIIzQjwSCvLXAAw&q=Pho&oq=Pho&gs_l=mobile-gws-hp.3...300.307.0.330.3.1.0.0.0.0.0.0..0.0....0...1c.1.64.mobile-gws-hp..3.0.0.bzGFPD6MCrI
p487
sVqueryString
p488
(lp489
(dp490
Vname
p491
Vsite
p492
sVvalue
p493
g4
sa(dp494
Vname
p495
Vsource
p496
sVvalue
p497
Vhp
p498
sa(dp499
Vname
p500
Vei
p501
sVvalue
p502
VtnXzWIrjIIzQjwSCvLXAAw
p503
sa(dp504
Vname
p505
g415
sVvalue
p506
VPho
p507
sa(dp508
Vname
p509
Voq
p510
sVvalue
p511
VPho
p512
sa(dp513
Vname
p514
Vgs_l
p515
sVvalue
p516
Vmobile-gws-hp.3...300.307.0.330.3.1.0.0.0.0.0.0..0.0....0...1c.1.64.mobile-gws-hp..3.0.0.bzGFPD6MCrI
p517
sasVheaders
p518
(lp519
sVheadersSize
p520
I808
sVbodySize
p521
I0
sVmethod
p522
VGET
p523
sVhttpVersion
p524
VHTTP/1.1
p525
ssVtimings
p526
(dp527
Vcomment
p528
g4
sVreceive
p529
I1458
sVsend
p530
I0
sVssl
p531
I-1
sVconnect
p532
I-1
sVdns
p533
I-1
sVwait
p534
I105
sVblocked
p535
I-1
ssVtime
p536
I1564
sVresponse
p537
(dp538
Vstatus
p539
I200
sVcomment
p540
g4
sVcookies
p541
(lp542
sVstatusText
p543
VOK
p544
sVcontent
p545
(dp546
VmimeType
p547
Vtext/html; charset=UTF-8
p548
sVcomment
p549
g4
sVsize
p550
I0
ssVheaders
p551
(lp552
sVheadersSize
p553
I363
sVredirectURL
p554
g4
sVbodySize
p555
I315058
sVhttpVersion
p556
VHTTP/1.1
p557
ssa(dp558
Vcomment
p559
g4
sVserverIPAddress
p560
V172.217.6.4
p561
sVpageref
p562
VPho
p563
sVstartedDateTime
p564
V2017-04-16T08:46:33.637-05:00
p565
sVcache
p566
(dp567
sVrequest
p568
(dp569
Vcomment
p570
g4
sVcookies
p571
(lp572
sVurl
p573
Vhttps://www.google.com/gen_204?atyp=i&ct=&cad=udla=1&ei=t3XzWIjQDYnojwT77KP4AQ&b=0&act=p&ps=0&zx=1492350393636
p574
sVqueryString
p575
(lp576
(dp577
Vname
p578
Vatyp
p579
sVvalue
p580
g30
sa(dp581
Vname
p582
Vct
p583
sVvalue
p584
g4
sa(dp585
Vname
p586
Vcad
p587
sVvalue
p588
Vudla=1
p589
sa(dp590
Vname
p591
Vei
p592
sVvalue
p593
Vt3XzWIjQDYnojwT77KP4AQ
p594
sa(dp595
Vname
p596
Vb
p597
sVvalue
p598
g289
sa(dp599
Vname
p600
Vact
p601
sVvalue
p602
Vp
p603
sa(dp604
Vname
p605
Vps
p606
sVvalue
p607
g289
sa(dp608
Vname
p609
Vzx
p610
sVvalue
p611
V1492350393636
p612
sasVheaders
p613
(lp614
sVheadersSize
p615
I627
sVbodySize
p616
I0
sVmethod
p617
VGET
p618
sVhttpVersion
p619
VHTTP/1.1
p620
ssVtimings
p621
(dp622
Vcomment
p623
g4
sVreceive
p624
I0
sVsend
p625
I0
sVssl
p626
I-1
sVconnect
p627
I-1
sVdns
p628
I-1
sVwait
p629
I43
sVblocked
p630
I-1
ssVtime
p631
I43
sVresponse
p632
(dp633
Vstatus
p634
I204
sVcomment
p635
g4
sVcookies
p636
(lp637
sVstatusText
p638
VNo Content
p639
sVcontent
p640
(dp641
VmimeType
p642
Vtext/html; charset=UTF-8
p643
sVcomment
p644
g4
sVsize
p645
I0
ssVheaders
p646
(lp647
sVheadersSize
p648
I248
sVredirectURL
p649
g4
sVbodySize
p650
I0
sVhttpVersion
p651
VHTTP/1.1
p652
ssa(dp653
Vcomment
p654
g4
sVserverIPAddress
p655
V172.217.6.4
p656
sVpageref
p657
VPho
p658
sVstartedDateTime
p659
V2017-04-16T08:46:36.754-05:00
p660
sVcache
p661
(dp662
sVrequest
p663
(dp664
Vcomment
p665
g4
sVcookies
p666
(lp667
sVurl
p668
Vhttps://www.google.com/xjs/_/js/k=xjs.qs.en_US.pCBXVCvTH3s.O/m=syl,syj,syn,em3,em8,em6,em7,sym,aa,abd,sy2g,sy2k,sy29,sy2j,sy2d,sy2a,sy2c,sy2f,sy2l,sy2m,sy2n,emd,async,sybn,sybi,sybo,sy1f,sy45,sy46,sy9w,sybk,sybj,sybp,sy1g,sy30,sy47,sybm,sybl,sybq,sy1h,sybh,dvl,syep,foot,ipv6,sy32,emj,shm,sy5g,sy5i,sy5k,sykh,tl,sy2x,sy2y,sy2t,sy38,em12,vs,sy5j,sy5h,sy6u,sy66,sy67,sy7d,sy7j,sy4u,sy69,sy89,sy7e,sykk,sykl,tnv,bct,sy23,sy24,hrm,sy9m,syac,sy4g,sy9b,sy9n,syhz,syl6,ssc,sy1y,sya3,sy22,sy6i,sy25,sya2,sy6j,sy72,emb,sy26,em9,ema,sy31,sya4,sykr,strm,sy5o,sy5r,sy2u,sy5u,sy5t,sy33,sy34,sy2w,sy2z,sy7l,sy4v,sy6z,sy4l,sy37,sy2r,sy35,sy6q,sy7t,sy50,sy71,sy7f,sy7o,syah,syai,syak,syal,alc,sy1r,syaj,flum,sy4d,sy4f,sy4c,sy4e,sy4b,syd7,dgm,sy3x,sy6p,sy3w,syav,syaw,syb0,sy2o,syb1,syaz,syao,sy2v,sy36,sy3z,syau,syb2,syb3,syay,syax,sy8x,syag,syb7,sy2i,sy6k,syam,syaq,syat,syb4,syb5,syb6,sybc,sybg,lrl,lcm,mexp,sy48,sy3a,sy3c,sy5b,sy4x,sybd,sybe,sybt,sy2p,sy56,sybf,sybr,sybs,mlm,sy4z,sy4y,sy5d,sy5e,llmr,akpc,gldm,sy6n,flpm,sy5a,syan,syap,flmm,rltl,sy7y,sy7u,sy7w,sy7q,sy87,sy80,sy7p,sy7s,sy7m,sy8l,sy85,sy82,sy84,sy7r,sy81,sy7v,sy8q,sy7z,sy7x,sy86,sy83,sy8k,sy8t,sy7g,sy9u,sy7n,sy4h,sy3b,sybb,sycx,syew,syi6,syi9,sy4i,syi5,syi7,sy91,sygq,syi8,syia,hcar,uvl,sy5n,syas,syb8,syba,inf,sy5x,qif,rliv,skp,llmu,sy6l,sy6h,sy6m,qkx,sy6w,shrb,syf5,syf6,syf8,sygb,syg9,kptm,sy99,syf4,syfc,syfn,syf7,syff,sy1i,sy68,sy8d,syfl,syfr,syfq,syfg,sy1j,sy4q,sy8h,syc7,syc8,syfb,syfj,syfs,syft,syg3,syg5,syg7,emn,emo,syg4,syg6,ivg,iuci,img,sy41,tcc,kpc,kpci,vrml,sy6y,sycu,d3l,syk6,ssci,sy5z,atn,sya1,ampfp/am=gCP4LtMEBXQA2RUaq_oFBISzAFA/rt=j/d=0/t=zcms/rs=ACT90oFwm4NZCwIcuuiqmthdlECdBzkhRA
p669
sVqueryString
p670
(lp671
sVheaders
p672
(lp673
sVheadersSize
p674
I2172
sVbodySize
p675
I0
sVmethod
p676
VGET
p677
sVhttpVersion
p678
VHTTP/1.1
p679
ssVtimings
p680
(dp681
Vcomment
p682
g4
sVreceive
p683
I172
sVsend
p684
I0
sVssl
p685
I-1
sVconnect
p686
I-1
sVdns
p687
I-1
sVwait
p688
I115
sVblocked
p689
I-1
ssVtime
p690
I288
sVresponse
p691
(dp692
Vstatus
p693
I200
sVcomment
p694
g4
sVcookies
p695
(lp696
sVstatusText
p697
VOK
p698
sVcontent
p699
(dp700
VmimeType
p701
Vtext/javascript; charset=UTF-8
p702
sVcomment
p703
g4
sVsize
p704
I0
ssVheaders
p705
(lp706
sVheadersSize
p707
I452
sVredirectURL
p708
g4
sVbodySize
p709
I225701
sVhttpVersion
p710
VHTTP/1.1
p711
ssa(dp712
Vcomment
p713
g4
sVserverIPAddress
p714
V172.217.6.4
p715
sVpageref
p716
VPho
p717
sVstartedDateTime
p718
V2017-04-16T08:46:37.524-05:00
p719
sVcache
p720
(dp721
sVrequest
p722
(dp723
Vcomment
p724
g4
sVcookies
p725
(lp726
sVurl
p727
Vhttps://www.google.com/async/irc?vet=10ahUKEwjIh8y3jqnTAhUJ9IMKHXv2CB8Qo0EI_AI..i&ved=0ahUKEwjIh8y3jqnTAhUJ9IMKHXv2CB8Qo0EI_AI&ei=t3XzWIjQDYnojwT77KP4AQ&yv=2&async=iu:1,ved:0ahUKEwjIh8y3jqnTAhUJ9IMKHXv2CB8Qo0EI_AI,_id:irc_async,_pms:qs
p728
sVqueryString
p729
(lp730
(dp731
Vname
p732
Vvet
p733
sVvalue
p734
V10ahUKEwjIh8y3jqnTAhUJ9IMKHXv2CB8Qo0EI_AI..i
p735
sa(dp736
Vname
p737
Vved
p738
sVvalue
p739
V0ahUKEwjIh8y3jqnTAhUJ9IMKHXv2CB8Qo0EI_AI
p740
sa(dp741
Vname
p742
Vei
p743
sVvalue
p744
Vt3XzWIjQDYnojwT77KP4AQ
p745
sa(dp746
Vname
p747
Vyv
p748
sVvalue
p749
g64
sa(dp750
Vname
p751
Vasync
p752
sVvalue
p753
Viu:1,ved:0ahUKEwjIh8y3jqnTAhUJ9IMKHXv2CB8Qo0EI_AI,_id:irc_async,_pms:qs
p754
sasVheaders
p755
(lp756
sVheadersSize
p757
I752
sVbodySize
p758
I0
sVmethod
p759
VGET
p760
sVhttpVersion
p761
VHTTP/1.1
p762
ssVtimings
p763
(dp764
Vcomment
p765
g4
sVreceive
p766
I1
sVsend
p767
I0
sVssl
p768
I-1
sVconnect
p769
I-1
sVdns
p770
I-1
sVwait
p771
I48
sVblocked
p772
I-1
ssVtime
p773
I50
sVresponse
p774
(dp775
Vstatus
p776
I200
sVcomment
p777
g4
sVcookies
p778
(lp779
sVstatusText
p780
VOK
p781
sVcontent
p782
(dp783
VmimeType
p784
Vtext/html; charset=UTF-8
p785
sVcomment
p786
g4
sVsize
p787
I0
ssVheaders
p788
(lp789
sVheadersSize
p790
I383
sVredirectURL
p791
g4
sVbodySize
p792
I7793
sVhttpVersion
p793
VHTTP/1.1
p794
ssa(dp795
Vcomment
p796
g4
sVserverIPAddress
p797
V172.217.6.4
p798
sVpageref
p799
VPho
p800
sVstartedDateTime
p801
V2017-04-16T08:46:37.645-05:00
p802
sVcache
p803
(dp804
sVrequest
p805
(dp806
Vcomment
p807
g4
sVcookies
p808
(lp809
sVurl
p810
Vhttps://www.google.com/async/ampfp?vet=10ahUKEwjIh8y3jqnTAhUJ9IMKHXv2CB8QtZoBCPoC..i&ei=t3XzWIjQDYnojwT77KP4AQ&yv=2&async=_id:ampfp-async,_pms:qs
p811
sVqueryString
p812
(lp813
(dp814
Vname
p815
Vvet
p816
sVvalue
p817
V10ahUKEwjIh8y3jqnTAhUJ9IMKHXv2CB8QtZoBCPoC..i
p818
sa(dp819
Vname
p820
Vei
p821
sVvalue
p822
Vt3XzWIjQDYnojwT77KP4AQ
p823
sa(dp824
Vname
p825
Vyv
p826
sVvalue
p827
g64
sa(dp828
Vname
p829
Vasync
p830
sVvalue
p831
V_id:ampfp-async,_pms:qs
p832
sasVheaders
p833
(lp834
sVheadersSize
p835
I662
sVbodySize
p836
I0
sVmethod
p837
VGET
p838
sVhttpVersion
p839
VHTTP/1.1
p840
ssVtimings
p841
(dp842
Vcomment
p843
g4
sVreceive
p844
I1
sVsend
p845
I0
sVssl
p846
I-1
sVconnect
p847
I-1
sVdns
p848
I-1
sVwait
p849
I31
sVblocked
p850
I-1
ssVtime
p851
I32
sVresponse
p852
(dp853
Vstatus
p854
I200
sVcomment
p855
g4
sVcookies
p856
(lp857
sVstatusText
p858
VOK
p859
sVcontent
p860
(dp861
VmimeType
p862
Vtext/html; charset=UTF-8
p863
sVcomment
p864
g4
sVsize
p865
I0
ssVheaders
p866
(lp867
sVheadersSize
p868
I383
sVredirectURL
p869
g4
sVbodySize
p870
I4527
sVhttpVersion
p871
VHTTP/1.1
p872
ssa(dp873
Vcomment
p874
g4
sVserverIPAddress
p875
V216.58.216.193
p876
sVpageref
p877
VPho
p878
sVstartedDateTime
p879
V2017-04-16T08:46:37.645-05:00
p880
sVcache
p881
(dp882
sVrequest
p883
(dp884
Vcomment
p885
g4
sVcookies
p886
(lp887
sVurl
p888
Vhttps://cdn.ampproject.org/preconnect.gif?0.9365385724418751
p889
sVqueryString
p890
(lp891
(dp892
Vname
p893
V0.9365385724418751
p894
sVvalue
p895
g4
sasVheaders
p896
(lp897
sVheadersSize
p898
I375
sVbodySize
p899
I0
sVmethod
p900
VGET
p901
sVhttpVersion
p902
VHTTP/1.1
p903
ssVtimings
p904
(dp905
Vcomment
p906
g4
sVreceive
p907
I0
sVsend
p908
I0
sVssl
p909
I-1
sVconnect
p910
I-1
sVdns
p911
I-1
sVwait
p912
I29
sVblocked
p913
I-1
ssVtime
p914
I29
sVresponse
p915
(dp916
Vstatus
p917
I200
sVcomment
p918
g4
sVcookies
p919
(lp920
sVstatusText
p921
VOK
p922
sVcontent
p923
(dp924
VmimeType
p925
Vimage/gif
p926
sVcomment
p927
g4
sVsize
p928
I0
ssVheaders
p929
(lp930
sVheadersSize
p931
I826
sVredirectURL
p932
g4
sVbodySize
p933
I37
sVhttpVersion
p934
VHTTP/1.1
p935
ssa(dp936
Vcomment
p937
g4
sVserverIPAddress
p938
V216.58.216.206
p939
sVpageref
p940
VPho
p941
sVstartedDateTime
p942
V2017-04-16T08:46:37.685-05:00
p943
sVcache
p944
(dp945
sVrequest
p946
(dp947
Vcomment
p948
g4
sVcookies
p949
(lp950
sVurl
p951
Vhttps://encrypted-tbn0.gstatic.com/images?q=tbn:ANd9GcTVyH0JeUbLpStA5SlraQUm0-QwSI8oo0XrkRvbhIOUB4JSlOXQHprVJEku
p952
sVqueryString
p953
(lp954
(dp955
Vname
p956
g415
sVvalue
p957
Vtbn:ANd9GcTVyH0JeUbLpStA5SlraQUm0-QwSI8oo0XrkRvbhIOUB4JSlOXQHprVJEku
p958
sasVheaders
p959
(lp960
sVheadersSize
p961
I427
sVbodySize
p962
I0
sVmethod
p963
VGET
p964
sVhttpVersion
p965
VHTTP/1.1
p966
ssVtimings
p967
(dp968
Vcomment
p969
g4
sVreceive
p970
I1
sVsend
p971
I0
sVssl
p972
I-1
sVconnect
p973
I-1
sVdns
p974
I-1
sVwait
p975
I19
sVblocked
p976
I-1
ssVtime
p977
I21
sVresponse
p978
(dp979
Vstatus
p980
I200
sVcomment
p981
g4
sVcookies
p982
(lp983
sVstatusText
p984
VOK
p985
sVcontent
p986
(dp987
VmimeType
p988
Vimage/jpeg
p989
sVcomment
p990
g4
sVsize
p991
I0
ssVheaders
p992
(lp993
sVheadersSize
p994
I428
sVredirectURL
p995
g4
sVbodySize
p996
I7394
sVhttpVersion
p997
VHTTP/1.1
p998
ssa(dp999
Vcomment
p1000
g4
sVserverIPAddress
p1001
V216.58.216.206
p1002
sVpageref
p1003
VPho
p1004
sVstartedDateTime
p1005
V2017-04-16T08:46:37.687-05:00
p1006
sVcache
p1007
(dp1008
sVrequest
p1009
(dp1010
Vcomment
p1011
g4
sVcookies
p1012
(lp1013
sVurl
p1014
Vhttps://encrypted-tbn2.gstatic.com/images?q=tbn:ANd9GcQV24uHUvE_CrrZASOiJdEoYnLEAEL6grarMrG35TvIfok95QrtJmovNDM8zw
p1015
sVqueryString
p1016
(lp1017
(dp1018
Vname
p1019
g415
sVvalue
p1020
Vtbn:ANd9GcQV24uHUvE_CrrZASOiJdEoYnLEAEL6grarMrG35TvIfok95QrtJmovNDM8zw
p1021
sasVheaders
p1022
(lp1023
sVheadersSize
p1024
I429
sVbodySize
p1025
I0
sVmethod
p1026
VGET
p1027
sVhttpVersion
p1028
VHTTP/1.1
p1029
ssVtimings
p1030
(dp1031
Vcomment
p1032
g4
sVreceive
p1033
I2
sVsend
p1034
I0
sVssl
p1035
I-1
sVconnect
p1036
I-1
sVdns
p1037
I-1
sVwait
p1038
I21
sVblocked
p1039
I-1
ssVtime
p1040
I23
sVresponse
p1041
(dp1042
Vstatus
p1043
I200
sVcomment
p1044
g4
sVcookies
p1045
(lp1046
sVstatusText
p1047
VOK
p1048
sVcontent
p1049
(dp1050
VmimeType
p1051
Vimage/jpeg
p1052
sVcomment
p1053
g4
sVsize
p1054
I0
ssVheaders
p1055
(lp1056
sVheadersSize
p1057
I428
sVredirectURL
p1058
g4
sVbodySize
p1059
I6037
sVhttpVersion
p1060
VHTTP/1.1
p1061
ssa(dp1062
Vcomment
p1063
g4
sVserverIPAddress
p1064
V216.58.216.206
p1065
sVpageref
p1066
VPho
p1067
sVstartedDateTime
p1068
V2017-04-16T08:46:37.688-05:00
p1069
sVcache
p1070
(dp1071
sVrequest
p1072
(dp1073
Vcomment
p1074
g4
sVcookies
p1075
(lp1076
sVurl
p1077
Vhttps://encrypted-tbn3.gstatic.com/images?q=tbn:ANd9GcQPdkua3UUZPUBLIIW4uJe32BkOniwrZks_V5dP4wheOIvoNgmppMS4gVX-
p1078
sVqueryString
p1079
(lp1080
(dp1081
Vname
p1082
g415
sVvalue
p1083
Vtbn:ANd9GcQPdkua3UUZPUBLIIW4uJe32BkOniwrZks_V5dP4wheOIvoNgmppMS4gVX-
p1084
sasVheaders
p1085
(lp1086
sVheadersSize
p1087
I427
sVbodySize
p1088
I0
sVmethod
p1089
VGET
p1090
sVhttpVersion
p1091
VHTTP/1.1
p1092
ssVtimings
p1093
(dp1094
Vcomment
p1095
g4
sVreceive
p1096
I1
sVsend
p1097
I0
sVssl
p1098
I-1
sVconnect
p1099
I-1
sVdns
p1100
I-1
sVwait
p1101
I37
sVblocked
p1102
I-1
ssVtime
p1103
I38
sVresponse
p1104
(dp1105
Vstatus
p1106
I200
sVcomment
p1107
g4
sVcookies
p1108
(lp1109
sVstatusText
p1110
VOK
p1111
sVcontent
p1112
(dp1113
VmimeType
p1114
Vimage/jpeg
p1115
sVcomment
p1116
g4
sVsize
p1117
I0
ssVheaders
p1118
(lp1119
sVheadersSize
p1120
I415
sVredirectURL
p1121
g4
sVbodySize
p1122
I7521
sVhttpVersion
p1123
VHTTP/1.1
p1124
ssa(dp1125
Vcomment
p1126
g4
sVserverIPAddress
p1127
V172.217.6.4
p1128
sVpageref
p1129
VPho
p1130
sVstartedDateTime
p1131
V2017-04-16T08:46:37.770-05:00
p1132
sVcache
p1133
(dp1134
sVrequest
p1135
(dp1136
Vcomment
p1137
g4
sVcookies
p1138
(lp1139
sVurl
p1140
Vhttps://www.google.com/gen_204/local?ei=t3XzWIjQDYnojwT77KP4AQ&tm_n=pt&tm=3642
p1141
sVqueryString
p1142
(lp1143
(dp1144
Vname
p1145
Vei
p1146
sVvalue
p1147
Vt3XzWIjQDYnojwT77KP4AQ
p1148
sa(dp1149
Vname
p1150
Vtm_n
p1151
sVvalue
p1152
Vpt
p1153
sa(dp1154
Vname
p1155
Vtm
p1156
sVvalue
p1157
V3642
p1158
sasVheaders
p1159
(lp1160
sVheadersSize
p1161
I842
sVbodySize
p1162
I0
sVmethod
p1163
VPOST
p1164
sVhttpVersion
p1165
VHTTP/1.1
p1166
ssVtimings
p1167
(dp1168
Vcomment
p1169
g4
sVreceive
p1170
I0
sVsend
p1171
I0
sVssl
p1172
I-1
sVconnect
p1173
I-1
sVdns
p1174
I-1
sVwait
p1175
I34
sVblocked
p1176
I-1
ssVtime
p1177
I34
sVresponse
p1178
(dp1179
Vstatus
p1180
I204
sVcomment
p1181
g4
sVcookies
p1182
(lp1183
sVstatusText
p1184
VNo Content
p1185
sVcontent
p1186
(dp1187
VmimeType
p1188
Vtext/html; charset=UTF-8
p1189
sVcomment
p1190
g4
sVsize
p1191
I0
ssVheaders
p1192
(lp1193
sVheadersSize
p1194
I290
sVredirectURL
p1195
g4
sVbodySize
p1196
I0
sVhttpVersion
p1197
VHTTP/1.1
p1198
ssa(dp1199
Vcomment
p1200
g4
sVserverIPAddress
p1201
V172.217.6.4
p1202
sVpageref
p1203
VPho
p1204
sVstartedDateTime
p1205
V2017-04-16T08:46:37.814-05:00
p1206
sVcache
p1207
(dp1208
sVrequest
p1209
(dp1210
Vcomment
p1211
g4
sVcookies
p1212
(lp1213
sVurl
p1214
Vhttps://www.google.com/xjs/_/js/k=xjs.qs.en_US.pCBXVCvTH3s.O/m=idg,syfu,ish,ivw,syi2,syi4,fpv,sy8e,sya8,sya6,sya7,sya9,amp,sp/am=gCP4LtMEBXQA2RUaq_oFBISzAFA/rt=j/d=0/t=zcms/rs=ACT90oFwm4NZCwIcuuiqmthdlECdBzkhRA
p1215
sVqueryString
p1216
(lp1217
sVheaders
p1218
(lp1219
sVheadersSize
p1220
I727
sVbodySize
p1221
I0
sVmethod
p1222
VGET
p1223
sVhttpVersion
p1224
VHTTP/1.1
p1225
ssVtimings
p1226
(dp1227
Vcomment
p1228
g4
sVreceive
p1229
I1
sVsend
p1230
I0
sVssl
p1231
I-1
sVconnect
p1232
I-1
sVdns
p1233
I-1
sVwait
p1234
I23
sVblocked
p1235
I-1
ssVtime
p1236
I24
sVresponse
p1237
(dp1238
Vstatus
p1239
I200
sVcomment
p1240
g4
sVcookies
p1241
(lp1242
sVstatusText
p1243
VOK
p1244
sVcontent
p1245
(dp1246
VmimeType
p1247
Vtext/javascript; charset=UTF-8
p1248
sVcomment
p1249
g4
sVsize
p1250
I0
ssVheaders
p1251
(lp1252
sVheadersSize
p1253
I464
sVredirectURL
p1254
g4
sVbodySize
p1255
I27364
sVhttpVersion
p1256
VHTTP/1.1
p1257
ssa(dp1258
Vcomment
p1259
g4
sVserverIPAddress
p1260
V172.217.6.4
p1261
sVpageref
p1262
VPho
p1263
sVstartedDateTime
p1264
V2017-04-16T08:46:37.855-05:00
p1265
sVcache
p1266
(dp1267
sVrequest
p1268
(dp1269
Vcomment
p1270
g4
sVcookies
p1271
(lp1272
sVurl
p1273
Vhttps://www.google.com/async/lcl_akp?vet=10ahUKEwjIh8y3jqnTAhUJ9IMKHXv2CB8Q30oIejAS..i&ved=0ahUKEwjIh8y3jqnTAhUJ9IMKHXv2CB8QkW0IfDAS&ei=t3XzWIjQDYnojwT77KP4AQ&yv=2&tbs=lf_msr:-1,lf_od:-1,lf_oh:-1,lf_oa:-1,lp:-D!8050!!1!!!0!2|-S!11!0!2|-S!15!0!2|-A!has_1delivery!0!2|-A!accepts_1reservations!0!2|-F!4!0!3|-F!3!0!3,lf_pqs:EAE,lf:1,lf_ui:9&async=id:akp_9578459774984886682,ludocids:9578459774984886682,f:rln,ui:9,_id:p0_uid_9_t3XzWIjQDYnojwT77KP4AQ,_pms:qs
p1274
sVqueryString
p1275
(lp1276
(dp1277
Vname
p1278
Vvet
p1279
sVvalue
p1280
V10ahUKEwjIh8y3jqnTAhUJ9IMKHXv2CB8Q30oIejAS..i
p1281
sa(dp1282
Vname
p1283
Vved
p1284
sVvalue
p1285
V0ahUKEwjIh8y3jqnTAhUJ9IMKHXv2CB8QkW0IfDAS
p1286
sa(dp1287
Vname
p1288
Vei
p1289
sVvalue
p1290
Vt3XzWIjQDYnojwT77KP4AQ
p1291
sa(dp1292
Vname
p1293
Vyv
p1294
sVvalue
p1295
g64
sa(dp1296
Vname
p1297
Vtbs
p1298
sVvalue
p1299
Vlf_msr:-1,lf_od:-1,lf_oh:-1,lf_oa:-1,lp:-D!8050!!1!!!0!2|-S!11!0!2|-S!15!0!2|-A!has_1delivery!0!2|-A!accepts_1reservations!0!2|-F!4!0!3|-F!3!0!3,lf_pqs:EAE,lf:1,lf_ui:9
p1300
sa(dp1301
Vname
p1302
Vasync
p1303
sVvalue
p1304
Vid:akp_9578459774984886682,ludocids:9578459774984886682,f:rln,ui:9,_id:p0_uid_9_t3XzWIjQDYnojwT77KP4AQ,_pms:qs
p1305
sasVheaders
p1306
(lp1307
sVheadersSize
p1308
I970
sVbodySize
p1309
I0
sVmethod
p1310
VGET
p1311
sVhttpVersion
p1312
VHTTP/1.1
p1313
ssVtimings
p1314
(dp1315
Vcomment
p1316
g4
sVreceive
p1317
I7
sVsend
p1318
I0
sVssl
p1319
I-1
sVconnect
p1320
I-1
sVdns
p1321
I-1
sVwait
p1322
I279
sVblocked
p1323
I-1
ssVtime
p1324
I287
sVresponse
p1325
(dp1326
Vstatus
p1327
I200
sVcomment
p1328
g4
sVcookies
p1329
(lp1330
sVstatusText
p1331
VOK
p1332
sVcontent
p1333
(dp1334
VmimeType
p1335
Vtext/html; charset=UTF-8
p1336
sVcomment
p1337
g4
sVsize
p1338
I0
ssVheaders
p1339
(lp1340
sVheadersSize
p1341
I383
sVredirectURL
p1342
g4
sVbodySize
p1343
I43822
sVhttpVersion
p1344
VHTTP/1.1
p1345
ssa(dp1346
Vcomment
p1347
g4
sVserverIPAddress
p1348
V172.217.6.4
p1349
sVpageref
p1350
VPho
p1351
sVstartedDateTime
p1352
V2017-04-16T08:46:37.858-05:00
p1353
sVcache
p1354
(dp1355
sVrequest
p1356
(dp1357
Vcomment
p1358
g4
sVcookies
p1359
(lp1360
sVurl
p1361
Vhttps://www.google.com/async/lcl_akp?vet=10ahUKEwjIh8y3jqnTAhUJ9IMKHXv2CB8Q30oIjQEwEw..i&ved=0ahUKEwjIh8y3jqnTAhUJ9IMKHXv2CB8QkW0IjwEwEw&ei=t3XzWIjQDYnojwT77KP4AQ&yv=2&tbs=lf_msr:-1,lf_od:-1,lf_oh:-1,lf_oa:-1,lp:-D!8050!!1!!!0!2|-S!11!0!2|-S!15!0!2|-A!has_1delivery!0!2|-A!accepts_1reservations!0!2|-F!4!0!3|-F!3!0!3,lf_pqs:EAE,lf:1,lf_ui:9&async=id:akp_1031953751126106876,ludocids:1031953751126106876,f:rln,ui:9,_id:p0_uid_10_t3XzWIjQDYnojwT77KP4AQ,_pms:qs
p1362
sVqueryString
p1363
(lp1364
(dp1365
Vname
p1366
Vvet
p1367
sVvalue
p1368
V10ahUKEwjIh8y3jqnTAhUJ9IMKHXv2CB8Q30oIjQEwEw..i
p1369
sa(dp1370
Vname
p1371
Vved
p1372
sVvalue
p1373
V0ahUKEwjIh8y3jqnTAhUJ9IMKHXv2CB8QkW0IjwEwEw
p1374
sa(dp1375
Vname
p1376
Vei
p1377
sVvalue
p1378
Vt3XzWIjQDYnojwT77KP4AQ
p1379
sa(dp1380
Vname
p1381
Vyv
p1382
sVvalue
p1383
g64
sa(dp1384
Vname
p1385
Vtbs
p1386
sVvalue
p1387
Vlf_msr:-1,lf_od:-1,lf_oh:-1,lf_oa:-1,lp:-D!8050!!1!!!0!2|-S!11!0!2|-S!15!0!2|-A!has_1delivery!0!2|-A!accepts_1reservations!0!2|-F!4!0!3|-F!3!0!3,lf_pqs:EAE,lf:1,lf_ui:9
p1388
sa(dp1389
Vname
p1390
Vasync
p1391
sVvalue
p1392
Vid:akp_1031953751126106876,ludocids:1031953751126106876,f:rln,ui:9,_id:p0_uid_10_t3XzWIjQDYnojwT77KP4AQ,_pms:qs
p1393
sasVheaders
p1394
(lp1395
sVheadersSize
p1396
I975
sVbodySize
p1397
I0
sVmethod
p1398
VGET
p1399
sVhttpVersion
p1400
VHTTP/1.1
p1401
ssVtimings
p1402
(dp1403
Vcomment
p1404
g4
sVreceive
p1405
I21
sVsend
p1406
I0
sVssl
p1407
I-1
sVconnect
p1408
I-1
sVdns
p1409
I-1
sVwait
p1410
I288
sVblocked
p1411
I-1
ssVtime
p1412
I309
sVresponse
p1413
(dp1414
Vstatus
p1415
I200
sVcomment
p1416
g4
sVcookies
p1417
(lp1418
sVstatusText
p1419
VOK
p1420
sVcontent
p1421
(dp1422
VmimeType
p1423
Vtext/html; charset=UTF-8
p1424
sVcomment
p1425
g4
sVsize
p1426
I0
ssVheaders
p1427
(lp1428
sVheadersSize
p1429
I383
sVredirectURL
p1430
g4
sVbodySize
p1431
I41668
sVhttpVersion
p1432
VHTTP/1.1
p1433
ssa(dp1434
Vcomment
p1435
g4
sVserverIPAddress
p1436
V172.217.6.4
p1437
sVpageref
p1438
VPho
p1439
sVstartedDateTime
p1440
V2017-04-16T08:46:37.862-05:00
p1441
sVcache
p1442
(dp1443
sVrequest
p1444
(dp1445
Vcomment
p1446
g4
sVcookies
p1447
(lp1448
sVurl
p1449
Vhttps://www.google.com/async/lcl_akp?vet=10ahUKEwjIh8y3jqnTAhUJ9IMKHXv2CB8Q30oIoAEwFA..i&ved=0ahUKEwjIh8y3jqnTAhUJ9IMKHXv2CB8QkW0IogEwFA&ei=t3XzWIjQDYnojwT77KP4AQ&yv=2&tbs=lf_msr:-1,lf_od:-1,lf_oh:-1,lf_oa:-1,lp:-D!8050!!1!!!0!2|-S!11!0!2|-S!15!0!2|-A!has_1delivery!0!2|-A!accepts_1reservations!0!2|-F!4!0!3|-F!3!0!3,lf_pqs:EAE,lf:1,lf_ui:9&async=id:akp_14598698830407943353,ludocids:14598698830407943353,f:rln,ui:9,_id:p0_uid_11_t3XzWIjQDYnojwT77KP4AQ,_pms:qs
p1450
sVqueryString
p1451
(lp1452
(dp1453
Vname
p1454
Vvet
p1455
sVvalue
p1456
V10ahUKEwjIh8y3jqnTAhUJ9IMKHXv2CB8Q30oIoAEwFA..i
p1457
sa(dp1458
Vname
p1459
Vved
p1460
sVvalue
p1461
V0ahUKEwjIh8y3jqnTAhUJ9IMKHXv2CB8QkW0IogEwFA
p1462
sa(dp1463
Vname
p1464
Vei
p1465
sVvalue
p1466
Vt3XzWIjQDYnojwT77KP4AQ
p1467
sa(dp1468
Vname
p1469
Vyv
p1470
sVvalue
p1471
g64
sa(dp1472
Vname
p1473
Vtbs
p1474
sVvalue
p1475
Vlf_msr:-1,lf_od:-1,lf_oh:-1,lf_oa:-1,lp:-D!8050!!1!!!0!2|-S!11!0!2|-S!15!0!2|-A!has_1delivery!0!2|-A!accepts_1reservations!0!2|-F!4!0!3|-F!3!0!3,lf_pqs:EAE,lf:1,lf_ui:9
p1476
sa(dp1477
Vname
p1478
Vasync
p1479
sVvalue
p1480
Vid:akp_14598698830407943353,ludocids:14598698830407943353,f:rln,ui:9,_id:p0_uid_11_t3XzWIjQDYnojwT77KP4AQ,_pms:qs
p1481
sasVheaders
p1482
(lp1483
sVheadersSize
p1484
I977
sVbodySize
p1485
I0
sVmethod
p1486
VGET
p1487
sVhttpVersion
p1488
VHTTP/1.1
p1489
ssVtimings
p1490
(dp1491
Vcomment
p1492
g4
sVreceive
p1493
I47
sVsend
p1494
I0
sVssl
p1495
I-1
sVconnect
p1496
I-1
sVdns
p1497
I-1
sVwait
p1498
I307
sVblocked
p1499
I-1
ssVtime
p1500
I355
sVresponse
p1501
(dp1502
Vstatus
p1503
I200
sVcomment
p1504
g4
sVcookies
p1505
(lp1506
sVstatusText
p1507
VOK
p1508
sVcontent
p1509
(dp1510
VmimeType
p1511
Vtext/html; charset=UTF-8
p1512
sVcomment
p1513
g4
sVsize
p1514
I0
ssVheaders
p1515
(lp1516
sVheadersSize
p1517
I383
sVredirectURL
p1518
g4
sVbodySize
p1519
I45263
sVhttpVersion
p1520
VHTTP/1.1
p1521
ssa(dp1522
Vcomment
p1523
g4
sVserverIPAddress
p1524
V172.217.6.4
p1525
sVpageref
p1526
VPho
p1527
sVstartedDateTime
p1528
V2017-04-16T08:46:37.874-05:00
p1529
sVcache
p1530
(dp1531
sVrequest
p1532
(dp1533
Vcomment
p1534
g4
sVcookies
p1535
(lp1536
sVurl
p1537
Vhttps://www.google.com/gen_204/local?ei=t3XzWIjQDYnojwT77KP4AQ&tm_n=lrl_init&tm=9
p1538
sVqueryString
p1539
(lp1540
(dp1541
Vname
p1542
Vei
p1543
sVvalue
p1544
Vt3XzWIjQDYnojwT77KP4AQ
p1545
sa(dp1546
Vname
p1547
Vtm_n
p1548
sVvalue
p1549
Vlrl_init
p1550
sa(dp1551
Vname
p1552
Vtm
p1553
sVvalue
p1554
V9
p1555
sasVheaders
p1556
(lp1557
sVheadersSize
p1558
I845
sVbodySize
p1559
I0
sVmethod
p1560
VPOST
p1561
sVhttpVersion
p1562
VHTTP/1.1
p1563
ssVtimings
p1564
(dp1565
Vcomment
p1566
g4
sVreceive
p1567
I0
sVsend
p1568
I0
sVssl
p1569
I-1
sVconnect
p1570
I-1
sVdns
p1571
I-1
sVwait
p1572
I30
sVblocked
p1573
I-1
ssVtime
p1574
I31
sVresponse
p1575
(dp1576
Vstatus
p1577
I204
sVcomment
p1578
g4
sVcookies
p1579
(lp1580
sVstatusText
p1581
VNo Content
p1582
sVcontent
p1583
(dp1584
VmimeType
p1585
Vtext/html; charset=UTF-8
p1586
sVcomment
p1587
g4
sVsize
p1588
I0
ssVheaders
p1589
(lp1590
sVheadersSize
p1591
I290
sVredirectURL
p1592
g4
sVbodySize
p1593
I0
sVhttpVersion
p1594
VHTTP/1.1
p1595
ssa(dp1596
Vcomment
p1597
g4
sVserverIPAddress
p1598
V172.217.6.4
p1599
sVpageref
p1600
VPho
p1601
sVstartedDateTime
p1602
V2017-04-16T08:46:37.917-05:00
p1603
sVcache
p1604
(dp1605
sVrequest
p1606
(dp1607
Vcomment
p1608
g4
sVcookies
p1609
(lp1610
sVurl
p1611
Vhttps://www.google.com/async/log_amp_item_set?vet=10ahUKEwilxZW6jqnTAhVE7YMKHfExDiYQooQBCAE..i&ei=t3XzWIjQDYnojwT77KP4AQ&yv=2&async=num_items:1,_fmt:jspb
p1612
sVqueryString
p1613
(lp1614
(dp1615
Vname
p1616
Vvet
p1617
sVvalue
p1618
V10ahUKEwilxZW6jqnTAhVE7YMKHfExDiYQooQBCAE..i
p1619
sa(dp1620
Vname
p1621
Vei
p1622
sVvalue
p1623
Vt3XzWIjQDYnojwT77KP4AQ
p1624
sa(dp1625
Vname
p1626
Vyv
p1627
sVvalue
p1628
g64
sa(dp1629
Vname
p1630
Vasync
p1631
sVvalue
p1632
Vnum_items:1,_fmt:jspb
p1633
sasVheaders
p1634
(lp1635
sVheadersSize
p1636
I670
sVbodySize
p1637
I0
sVmethod
p1638
VGET
p1639
sVhttpVersion
p1640
VHTTP/1.1
p1641
ssVtimings
p1642
(dp1643
Vcomment
p1644
g4
sVreceive
p1645
I0
sVsend
p1646
I0
sVssl
p1647
I-1
sVconnect
p1648
I-1
sVdns
p1649
I-1
sVwait
p1650
I80
sVblocked
p1651
I-1
ssVtime
p1652
I80
sVresponse
p1653
(dp1654
Vstatus
p1655
I200
sVcomment
p1656
g4
sVcookies
p1657
(lp1658
sVstatusText
p1659
VOK
p1660
sVcontent
p1661
(dp1662
VmimeType
p1663
Vapplication/json; charset=UTF-8
p1664
sVcomment
p1665
g4
sVsize
p1666
I0
ssVheaders
p1667
(lp1668
sVheadersSize
p1669
I417
sVredirectURL
p1670
g4
sVbodySize
p1671
I132
sVhttpVersion
p1672
VHTTP/1.1
p1673
ssa(dp1674
Vcomment
p1675
g4
sVserverIPAddress
p1676
V216.58.216.193
p1677
sVpageref
p1678
VPho
p1679
sVstartedDateTime
p1680
V2017-04-16T08:46:37.925-05:00
p1681
sVcache
p1682
(dp1683
sVrequest
p1684
(dp1685
Vcomment
p1686
g4
sVcookies
p1687
(lp1688
sVurl
p1689
Vhttps://allrecipes-com.cdn.ampproject.org/v/s/allrecipes.com/recipe/228443/authentic-pho/amp/?amp_js_v=9
p1690
sVqueryString
p1691
(lp1692
(dp1693
Vname
p1694
Vamp_js_v
p1695
sVvalue
p1696
g1555
sasVheaders
p1697
(lp1698
sVheadersSize
p1699
I509
sVbodySize
p1700
I0
sVmethod
p1701
VGET
p1702
sVhttpVersion
p1703
VHTTP/1.1
p1704
ssVtimings
p1705
(dp1706
Vcomment
p1707
g4
sVreceive
p1708
I0
sVsend
p1709
I0
sVssl
p1710
I-1
sVconnect
p1711
I-1
sVdns
p1712
I-1
sVwait
p1713
I72
sVblocked
p1714
I-1
ssVtime
p1715
I73
sVresponse
p1716
(dp1717
Vstatus
p1718
I200
sVcomment
p1719
g4
sVcookies
p1720
(lp1721
sVstatusText
p1722
VOK
p1723
sVcontent
p1724
(dp1725
VmimeType
p1726
Vtext/html
p1727
sVcomment
p1728
g4
sVsize
p1729
I0
ssVheaders
p1730
(lp1731
sVheadersSize
p1732
I861
sVredirectURL
p1733
g4
sVbodySize
p1734
I8162
sVhttpVersion
p1735
VHTTP/1.1
p1736
ssa(dp1737
Vcomment
p1738
g4
sVserverIPAddress
p1739
V216.58.216.193
p1740
sVpageref
p1741
VPho
p1742
sVstartedDateTime
p1743
V2017-04-16T08:46:38.277-05:00
p1744
sVcache
p1745
(dp1746
sVrequest
p1747
(dp1748
Vcomment
p1749
g4
sVcookies
p1750
(lp1751
sVurl
p1752
Vhttps://secureimages-allrecipes-com.cdn.ampproject.org/ii/w1000/s/secureimages.allrecipes.com/userphotos/320x179/2133754.jpg
p1753
sVqueryString
p1754
(lp1755
sVheaders
p1756
(lp1757
sVheadersSize
p1758
I520
sVbodySize
p1759
I0
sVmethod
p1760
VGET
p1761
sVhttpVersion
p1762
VHTTP/1.1
p1763
ssVtimings
p1764
(dp1765
Vcomment
p1766
g4
sVreceive
p1767
I4
sVsend
p1768
I0
sVssl
p1769
I-1
sVconnect
p1770
I-1
sVdns
p1771
I-1
sVwait
p1772
I28
sVblocked
p1773
I-1
ssVtime
p1774
I33
sVresponse
p1775
(dp1776
Vstatus
p1777
I200
sVcomment
p1778
g4
sVcookies
p1779
(lp1780
sVstatusText
p1781
VOK
p1782
sVcontent
p1783
(dp1784
VmimeType
p1785
Vimage/jpeg
p1786
sVcomment
p1787
g4
sVsize
p1788
I0
ssVheaders
p1789
(lp1790
sVheadersSize
p1791
I845
sVredirectURL
p1792
g4
sVbodySize
p1793
I14186
sVhttpVersion
p1794
VHTTP/1.1
p1795
ssa(dp1796
Vcomment
p1797
g4
sVserverIPAddress
p1798
V216.58.216.193
p1799
sVpageref
p1800
VPho
p1801
sVstartedDateTime
p1802
V2017-04-16T08:46:38.289-05:00
p1803
sVcache
p1804
(dp1805
sVrequest
p1806
(dp1807
Vcomment
p1808
g4
sVcookies
p1809
(lp1810
sVurl
p1811
Vhttps://secureimages-allrecipes-com.cdn.ampproject.org/ii/w68/s/secureimages.allrecipes.com/userphotos/50x50/2400622.jpg
p1812
sVqueryString
p1813
(lp1814
sVheaders
p1815
(lp1816
sVheadersSize
p1817
I516
sVbodySize
p1818
I0
sVmethod
p1819
VGET
p1820
sVhttpVersion
p1821
VHTTP/1.1
p1822
ssVtimings
p1823
(dp1824
Vcomment
p1825
g4
sVreceive
p1826
I2
sVsend
p1827
I0
sVssl
p1828
I-1
sVconnect
p1829
I-1
sVdns
p1830
I-1
sVwait
p1831
I28
sVblocked
p1832
I-1
ssVtime
p1833
I30
sVresponse
p1834
(dp1835
Vstatus
p1836
I200
sVcomment
p1837
g4
sVcookies
p1838
(lp1839
sVstatusText
p1840
VOK
p1841
sVcontent
p1842
(dp1843
VmimeType
p1844
Vimage/jpeg
p1845
sVcomment
p1846
g4
sVsize
p1847
I0
ssVheaders
p1848
(lp1849
sVheadersSize
p1850
I843
sVredirectURL
p1851
g4
sVbodySize
p1852
I813
sVhttpVersion
p1853
VHTTP/1.1
p1854
ssa(dp1855
Vcomment
p1856
g4
sVserverIPAddress
p1857
V172.217.6.4
p1858
sVpageref
p1859
VPho
p1860
sVstartedDateTime
p1861
V2017-04-16T08:46:38.419-05:00
p1862
sVcache
p1863
(dp1864
sVrequest
p1865
(dp1866
Vcomment
p1867
g4
sVcookies
p1868
(lp1869
sVurl
p1870
Vhttps://www.google.com/maps/preview/photo?hl=en&pb=!1e2!3m1!1s0x880fcec786a01497%3A0x84ed866a9f57999a!5m25!2m2!1i2530!2i440!3m1!2i5!7m18!1m2!1e1!3e3!1m2!1e2!3e3!1m2!1e3!3e3!1m2!1e4!3e3!1m3!1e2!2b1!3e2!2b0!4b0!14e1!6m2!1st3XzWIjQDYnojwT77KP4AQ!7e1
p1871
sVqueryString
p1872
(lp1873
(dp1874
Vname
p1875
Vhl
p1876
sVvalue
p1877
Ven
p1878
sa(dp1879
Vname
p1880
Vpb
p1881
sVvalue
p1882
V!1e2!3m1!1s0x880fcec786a01497:0x84ed866a9f57999a!5m25!2m2!1i2530!2i440!3m1!2i5!7m18!1m2!1e1!3e3!1m2!1e2!3e3!1m2!1e3!3e3!1m2!1e4!3e3!1m3!1e2!2b1!3e2!2b0!4b0!14e1!6m2!1st3XzWIjQDYnojwT77KP4AQ!7e1
p1883
sasVheaders
p1884
(lp1885
sVheadersSize
p1886
I763
sVbodySize
p1887
I0
sVmethod
p1888
VGET
p1889
sVhttpVersion
p1890
VHTTP/1.1
p1891
ssVtimings
p1892
(dp1893
Vcomment
p1894
g4
sVreceive
p1895
I0
sVsend
p1896
I0
sVssl
p1897
I-1
sVconnect
p1898
I-1
sVdns
p1899
I-1
sVwait
p1900
I362
sVblocked
p1901
I-1
ssVtime
p1902
I362
sVresponse
p1903
(dp1904
Vstatus
p1905
I200
sVcomment
p1906
g4
sVcookies
p1907
(lp1908
sVstatusText
p1909
VOK
p1910
sVcontent
p1911
(dp1912
VmimeType
p1913
Vapplication/json; charset=UTF-8
p1914
sVcomment
p1915
g4
sVsize
p1916
I0
ssVheaders
p1917
(lp1918
sVheadersSize
p1919
I379
sVredirectURL
p1920
g4
sVbodySize
p1921
I1860
sVhttpVersion
p1922
VHTTP/1.1
p1923
ssa(dp1924
Vcomment
p1925
g4
sVserverIPAddress
p1926
V172.217.6.4
p1927
sVpageref
p1928
VPho
p1929
sVstartedDateTime
p1930
V2017-04-16T08:46:38.421-05:00
p1931
sVcache
p1932
(dp1933
sVrequest
p1934
(dp1935
Vcomment
p1936
g4
sVcookies
p1937
(lp1938
sVurl
p1939
Vhttps://www.google.com/maps/preview/photo?hl=en&pb=!1e2!3m1!1s0x880fce1432ed4bad%3A0xe523c781880e2fc!5m25!2m2!1i2530!2i440!3m1!2i5!7m18!1m2!1e1!3e3!1m2!1e2!3e3!1m2!1e3!3e3!1m2!1e4!3e3!1m3!1e2!2b1!3e2!2b0!4b0!14e1!6m2!1st3XzWIjQDYnojwT77KP4AQ!7e1
p1940
sVqueryString
p1941
(lp1942
(dp1943
Vname
p1944
Vhl
p1945
sVvalue
p1946
Ven
p1947
sa(dp1948
Vname
p1949
Vpb
p1950
sVvalue
p1951
V!1e2!3m1!1s0x880fce1432ed4bad:0xe523c781880e2fc!5m25!2m2!1i2530!2i440!3m1!2i5!7m18!1m2!1e1!3e3!1m2!1e2!3e3!1m2!1e3!3e3!1m2!1e4!3e3!1m3!1e2!2b1!3e2!2b0!4b0!14e1!6m2!1st3XzWIjQDYnojwT77KP4AQ!7e1
p1952
sasVheaders
p1953
(lp1954
sVheadersSize
p1955
I762
sVbodySize
p1956
I0
sVmethod
p1957
VGET
p1958
sVhttpVersion
p1959
VHTTP/1.1
p1960
ssVtimings
p1961
(dp1962
Vcomment
p1963
g4
sVreceive
p1964
I0
sVsend
p1965
I0
sVssl
p1966
I-1
sVconnect
p1967
I-1
sVdns
p1968
I-1
sVwait
p1969
I70
sVblocked
p1970
I-1
ssVtime
p1971
I70
sVresponse
p1972
(dp1973
Vstatus
p1974
I200
sVcomment
p1975
g4
sVcookies
p1976
(lp1977
sVstatusText
p1978
VOK
p1979
sVcontent
p1980
(dp1981
VmimeType
p1982
Vapplication/json; charset=UTF-8
p1983
sVcomment
p1984
g4
sVsize
p1985
I0
ssVheaders
p1986
(lp1987
sVheadersSize
p1988
I379
sVredirectURL
p1989
g4
sVbodySize
p1990
I2047
sVhttpVersion
p1991
VHTTP/1.1
p1992
ssa(dp1993
Vcomment
p1994
g4
sVserverIPAddress
p1995
V172.217.6.4
p1996
sVpageref
p1997
VPho
p1998
sVstartedDateTime
p1999
V2017-04-16T08:46:38.422-05:00
p2000
sVcache
p2001
(dp2002
sVrequest
p2003
(dp2004
Vcomment
p2005
g4
sVcookies
p2006
(lp2007
sVurl
p2008
Vhttps://www.google.com/maps/preview/photo?hl=en&pb=!1e2!3m1!1s0x880fd3d5a5066d0d%3A0xca98ff3d316044b9!5m25!2m2!1i2530!2i440!3m1!2i5!7m18!1m2!1e1!3e3!1m2!1e2!3e3!1m2!1e3!3e3!1m2!1e4!3e3!1m3!1e2!2b1!3e2!2b0!4b0!14e1!6m2!1st3XzWIjQDYnojwT77KP4AQ!7e1
p2009
sVqueryString
p2010
(lp2011
(dp2012
Vname
p2013
Vhl
p2014
sVvalue
p2015
Ven
p2016
sa(dp2017
Vname
p2018
Vpb
p2019
sVvalue
p2020
V!1e2!3m1!1s0x880fd3d5a5066d0d:0xca98ff3d316044b9!5m25!2m2!1i2530!2i440!3m1!2i5!7m18!1m2!1e1!3e3!1m2!1e2!3e3!1m2!1e3!3e3!1m2!1e4!3e3!1m3!1e2!2b1!3e2!2b0!4b0!14e1!6m2!1st3XzWIjQDYnojwT77KP4AQ!7e1
p2021
sasVheaders
p2022
(lp2023
sVheadersSize
p2024
I763
sVbodySize
p2025
I0
sVmethod
p2026
VGET
p2027
sVhttpVersion
p2028
VHTTP/1.1
p2029
ssVtimings
p2030
(dp2031
Vcomment
p2032
g4
sVreceive
p2033
I0
sVsend
p2034
I0
sVssl
p2035
I-1
sVconnect
p2036
I-1
sVdns
p2037
I-1
sVwait
p2038
I65
sVblocked
p2039
I-1
ssVtime
p2040
I65
sVresponse
p2041
(dp2042
Vstatus
p2043
I200
sVcomment
p2044
g4
sVcookies
p2045
(lp2046
sVstatusText
p2047
VOK
p2048
sVcontent
p2049
(dp2050
VmimeType
p2051
Vapplication/json; charset=UTF-8
p2052
sVcomment
p2053
g4
sVsize
p2054
I0
ssVheaders
p2055
(lp2056
sVheadersSize
p2057
I379
sVredirectURL
p2058
g4
sVbodySize
p2059
I1914
sVhttpVersion
p2060
VHTTP/1.1
p2061
ssa(dp2062
Vcomment
p2063
g4
sVserverIPAddress
p2064
V172.217.6.4
p2065
sVpageref
p2066
VPho
p2067
sVstartedDateTime
p2068
V2017-04-16T08:46:38.454-05:00
p2069
sVcache
p2070
(dp2071
sVrequest
p2072
(dp2073
Vcomment
p2074
g4
sVcookies
p2075
(lp2076
sVurl
p2077
Vhttps://www.google.com/gen_204?s=web&atyp=csi&ei=t3XzWIjQDYnojwT77KP4AQ&imc=52&imn=52&imp=28&adh=&xjs=init.107.14.sb_mob.92.dvl.7.c.2.jsa.2.async.2&ima=10&rt=prt.1482,iml.1761,xjsls.1482,dcl.1641,qiml.1881,xjses.4045,xjsee.4360,xjs.4361,ol.6077,aft.1760,wsrt.125,cst.0,dnst.0,rqst.1569,rspt.1462,rqstt.2,unt.2,cstt.2,dit.1652
p2078
sVqueryString
p2079
(lp2080
(dp2081
Vname
p2082
g57
sVvalue
p2083
Vweb
p2084
sa(dp2085
Vname
p2086
Vatyp
p2087
sVvalue
p2088
Vcsi
p2089
sa(dp2090
Vname
p2091
Vei
p2092
sVvalue
p2093
Vt3XzWIjQDYnojwT77KP4AQ
p2094
sa(dp2095
Vname
p2096
Vimc
p2097
sVvalue
p2098
V52
p2099
sa(dp2100
Vname
p2101
Vimn
p2102
sVvalue
p2103
V52
p2104
sa(dp2105
Vname
p2106
Vimp
p2107
sVvalue
p2108
V28
p2109
sa(dp2110
Vname
p2111
Vadh
p2112
sVvalue
p2113
g4
sa(dp2114
Vname
p2115
Vxjs
p2116
sVvalue
p2117
Vinit.107.14.sb_mob.92.dvl.7.c.2.jsa.2.async.2
p2118
sa(dp2119
Vname
p2120
Vima
p2121
sVvalue
p2122
V10
p2123
sa(dp2124
Vname
p2125
Vrt
p2126
sVvalue
p2127
Vprt.1482,iml.1761,xjsls.1482,dcl.1641,qiml.1881,xjses.4045,xjsee.4360,xjs.4361,ol.6077,aft.1760,wsrt.125,cst.0,dnst.0,rqst.1569,rspt.1462,rqstt.2,unt.2,cstt.2,dit.1652
p2128
sasVheaders
p2129
(lp2130
sVheadersSize
p2131
I842
sVbodySize
p2132
I0
sVmethod
p2133
VGET
p2134
sVhttpVersion
p2135
VHTTP/1.1
p2136
ssVtimings
p2137
(dp2138
Vcomment
p2139
g4
sVreceive
p2140
I0
sVsend
p2141
I0
sVssl
p2142
I-1
sVconnect
p2143
I-1
sVdns
p2144
I-1
sVwait
p2145
I36
sVblocked
p2146
I-1
ssVtime
p2147
I36
sVresponse
p2148
(dp2149
Vstatus
p2150
I204
sVcomment
p2151
g4
sVcookies
p2152
(lp2153
sVstatusText
p2154
VNo Content
p2155
sVcontent
p2156
(dp2157
VmimeType
p2158
Vtext/html; charset=UTF-8
p2159
sVcomment
p2160
g4
sVsize
p2161
I0
ssVheaders
p2162
(lp2163
sVheadersSize
p2164
I248
sVredirectURL
p2165
g4
sVbodySize
p2166
I0
sVhttpVersion
p2167
VHTTP/1.1
p2168
ssa(dp2169
Vcomment
p2170
g4
sVserverIPAddress
p2171
V172.217.6.4
p2172
sVpageref
p2173
VPho
p2174
sVstartedDateTime
p2175
V2017-04-16T08:46:38.789-05:00
p2176
sVcache
p2177
(dp2178
sVrequest
p2179
(dp2180
Vcomment
p2181
g4
sVcookies
p2182
(lp2183
sVurl
p2184
Vhttps://www.google.com/maps/vt/data=RfCSdfNZ0LFPrHSm0ublXdzhdrDFhtmHhN1u-gM,bAskrgvkdaZTOnYBVDLSHBEz-mNgKvkeZEdad-i92hI_rzLvW7rCFaF3_t36QnBcwg5SBrIYDIOfoE1n0TAckaZ3aYGIcRW7BZ0W1dPi2-n2aNTkcFu0vSrQa4Ub7Sl7O31-1rTtKQC3N2vfZ8WR2xikboRB-VG8Ydcp0XB4dmtd412EqsLq4e99lDgUkjx_qtMHNIxwr6aCamZQuzdlwm3n1EtOA2PvowqRuzBq14qPMwFbtmmLnbdknbBzw1-mDh5kW_cRvPUcMSE8i3GUfk4wE9L5KqHW1q44gaQfs5eEE0Y8YZfkqtEssKrM-OFqSbFx1FFW84HtxlHUfOdd5ELhfHJBnu5ZItUkWcZdVSINU3CjFTsDvrhasOThH-mzBQZPH5BPE95B3YVQ-TuF3jnuhPBwooalzmDqGrf74u5ttQfI8MbsXGniRAy5mm-wmynccOo0plSQS8gQUdSKFsyJl0Pm-ajruZGgSvqrWM7mGL7Su5grM2WomBu4C0v170Z4iUWZYWFX9avjqCCluG0yFpkIV7wqRFKB4GzTe9C1hUykVSpUPWenCeM1dKkXMcIi0RjKSr6nJ-h9MIynLUho98jmLrjvCKha_OxILVD3TwDR27ofFUGmCZ90VAoDiP2S1l5ufOHPHDu2VizqBrhpfeQVvV27qN0ZuM17B1Dlja7SkvnhbiOOoJkmzh3jriYKiIEQ1Yu_arHVl4OdwcvbbRxbV7qrRZPca6ELhHX8iA-iNPmUiC95Utk0oyrpUzC-iDsBAEwoVl9XUBQvjQBQNJKou6JRYP1MzeLZjCL0Z4jz1hUy7Dg4Ly323gFcmQJW4rODrlnrme6oU023QvJp7OnUQ-HrqoSYD2cSu-yAiIzwX1DFR41GmLfZMx-a_pdn01BNE_StZ9WnIL_-T7BL2bGeQVjhPrHgnCOfQUz6d5w8IspkHvdxB7ZEsdoG6Nm1vVzksnw22dc0VNMw2dIy-LAgatdDeQacByumrlsux33B8qrVV9fgz43ZeSmjcY5slOUf5ipZxY686eV8ImmKnu9Zwz2jLGzJATmLCO_JJnxwtnKQ1dmxqw,swES-JbB3NYka1H69BK05ngjxY8?h=120&w=1265&scale=1
p2185
sVqueryString
p2186
(lp2187
(dp2188
Vname
p2189
Vh
p2190
sVvalue
p2191
V120
p2192
sa(dp2193
Vname
p2194
Vw
p2195
sVvalue
p2196
V1265
p2197
sa(dp2198
Vname
p2199
Vscale
p2200
sVvalue
p2201
g59
sasVheaders
p2202
(lp2203
sVheadersSize
p2204
I1724
sVbodySize
p2205
I0
sVmethod
p2206
VGET
p2207
sVhttpVersion
p2208
VHTTP/1.1
p2209
ssVtimings
p2210
(dp2211
Vcomment
p2212
g4
sVreceive
p2213
I7
sVsend
p2214
I0
sVssl
p2215
I-1
sVconnect
p2216
I-1
sVdns
p2217
I-1
sVwait
p2218
I73
sVblocked
p2219
I-1
ssVtime
p2220
I81
sVresponse
p2221
(dp2222
Vstatus
p2223
I200
sVcomment
p2224
g4
sVcookies
p2225
(lp2226
sVstatusText
p2227
VOK
p2228
sVcontent
p2229
(dp2230
VmimeType
p2231
Vimage/png
p2232
sVcomment
p2233
g4
sVsize
p2234
I0
ssVheaders
p2235
(lp2236
sVheadersSize
p2237
I479
sVredirectURL
p2238
g4
sVbodySize
p2239
I23171
sVhttpVersion
p2240
VHTTP/1.1
p2241
ssa(dp2242
Vcomment
p2243
g4
sVserverIPAddress
p2244
V172.217.6.4
p2245
sVpageref
p2246
VPho
p2247
sVstartedDateTime
p2248
V2017-04-16T08:46:38.797-05:00
p2249
sVcache
p2250
(dp2251
sVrequest
p2252
(dp2253
Vcomment
p2254
g4
sVcookies
p2255
(lp2256
sVurl
p2257
Vhttps://www.google.com/maps/vt/data=RfCSdfNZ0LFPrHSm0ublXdzhdrDFhtmHhN1u-gM,bAskrgvkdaZTOnYBVDLSHBEz-mNgKvkeZEdad-i92hI_rzLvW7rCFaF3_t36QnBcwg5SBrIYDIOfoE1n0TAckaZ3aYGIcRW7BZ0W1dPi2-n2aNTkcFu0vSrQa4Ub7Sl7O31-1rTtKQC3N2vfZ8WR2xikboRB-VG8Ydcp0XB4dmtd412EqsLq4e99lDgUkjx_qtMHNIxwr6aCamZQuzdlwm3n1EtOA2PvowqRuzBq14qPMwFbtmmLnbdknbBzw1-mDh5kW_cRvPUcMSE8i3GUfk4wE9L5KqHW1q44gaQfs5eEE0Y8YZfkqtEssKrM-OFqSbFx1FFW84HtxlHUfOdd5ELhfHJBnu5ZItUkWcZdVSINU3CjFTsDvrhasOThH-mzBQZPH5BPE95B3YVQ-TuF3jnuhPBwooalzmDqGrf74u5ttQfI8MbsXGniRAy5mm-wmynccOo0plSQS8gQUdSKFsyJl0Pm-ajruZGgSvqrWM7mGL7Su5grM2WomBu4C0v170Z4iUWZYWFX9avjqCCluG0yFpkIV7wqRFKB4GzTe9C1hUykVSpUPWenCeM1dKkXMcIi0RjKSr6nJ-h9MIynLUho98jmLrjvCKha_OxILVD3TwDR27ofFUGmCZ90VAoDiP2S1l5ufOHPHDu2VizqBrhpfeQVvV27qN0ZuM17B1Dlja7SkvnhbiOOoJkmzh3jriYKiIEQ1Yu_arHVl4OdwcvbbRxbV7qrRZPca6ELhHX8iA-iNPmUiC95Utk0oyrpUzC-iDsBAEwoVl9XUBQvjQBQNJKou6JRYP1MzeLZjCL0Z4jz1hUy7Dg4Ly323gFcmQJW4rODrlnrme6oU023QvJp7OnUQ-HrqoSYD2cSu-yAiIzwX1DFR41GmLfZMx-a_pdn01BNE_StZ9WnIL_-T7BL2bGeQVjhPrHgnCOfQUz6d5w8IspkHvdxB7ZEsdoG6Nm1vVzksnw22dc0VNMw2dIy-LAgatdDeQacByumrlsux33B8qrVV9fgz43ZeSmjcY5slOUf5ipZxY686eV8ImmKnu9Zwz2jLGzJATmLCO_JJnxwtnKQ1dmxqw,spt0xCSy-wzxzCsmYH6q-6Xav2E?h=120&w=1024&scale=2
p2258
sVqueryString
p2259
(lp2260
(dp2261
Vname
p2262
g2190
sVvalue
p2263
V120
p2264
sa(dp2265
Vname
p2266
g2195
sVvalue
p2267
V1024
p2268
sa(dp2269
Vname
p2270
Vscale
p2271
sVvalue
p2272
g64
sasVheaders
p2273
(lp2274
sVheadersSize
p2275
I1724
sVbodySize
p2276
I0
sVmethod
p2277
VGET
p2278
sVhttpVersion
p2279
VHTTP/1.1
p2280
ssVtimings
p2281
(dp2282
Vcomment
p2283
g4
sVreceive
p2284
I10
sVsend
p2285
I0
sVssl
p2286
I-1
sVconnect
p2287
I-1
sVdns
p2288
I-1
sVwait
p2289
I80
sVblocked
p2290
I-1
ssVtime
p2291
I90
sVresponse
p2292
(dp2293
Vstatus
p2294
I200
sVcomment
p2295
g4
sVcookies
p2296
(lp2297
sVstatusText
p2298
VOK
p2299
sVcontent
p2300
(dp2301
VmimeType
p2302
Vimage/png
p2303
sVcomment
p2304
g4
sVsize
p2305
I0
ssVheaders
p2306
(lp2307
sVheadersSize
p2308
I479
sVredirectURL
p2309
g4
sVbodySize
p2310
I22884
sVhttpVersion
p2311
VHTTP/1.1
p2312
ssa(dp2313
Vcomment
p2314
g4
sVserverIPAddress
p2315
V172.217.6.4
p2316
sVpageref
p2317
VPho
p2318
sVstartedDateTime
p2319
V2017-04-16T08:46:38.891-05:00
p2320
sVcache
p2321
(dp2322
sVrequest
p2323
(dp2324
Vcomment
p2325
g4
sVcookies
p2326
(lp2327
sVurl
p2328
Vhttps://www.google.com/gen_204/local?ei=t3XzWIjQDYnojwT77KP4AQ&tm_n=lcsm&tm=102
p2329
sVqueryString
p2330
(lp2331
(dp2332
Vname
p2333
Vei
p2334
sVvalue
p2335
Vt3XzWIjQDYnojwT77KP4AQ
p2336
sa(dp2337
Vname
p2338
Vtm_n
p2339
sVvalue
p2340
Vlcsm
p2341
sa(dp2342
Vname
p2343
Vtm
p2344
sVvalue
p2345
V102
p2346
sasVheaders
p2347
(lp2348
sVheadersSize
p2349
I843
sVbodySize
p2350
I0
sVmethod
p2351
VPOST
p2352
sVhttpVersion
p2353
VHTTP/1.1
p2354
ssVtimings
p2355
(dp2356
Vcomment
p2357
g4
sVreceive
p2358
I0
sVsend
p2359
I0
sVssl
p2360
I-1
sVconnect
p2361
I-1
sVdns
p2362
I-1
sVwait
p2363
I36
sVblocked
p2364
I-1
ssVtime
p2365
I36
sVresponse
p2366
(dp2367
Vstatus
p2368
I204
sVcomment
p2369
g4
sVcookies
p2370
(lp2371
sVstatusText
p2372
VNo Content
p2373
sVcontent
p2374
(dp2375
VmimeType
p2376
Vtext/html; charset=UTF-8
p2377
sVcomment
p2378
g4
sVsize
p2379
I0
ssVheaders
p2380
(lp2381
sVheadersSize
p2382
I290
sVredirectURL
p2383
g4
sVbodySize
p2384
I0
sVhttpVersion
p2385
VHTTP/1.1
p2386
ssa(dp2387
Vcomment
p2388
g4
sVserverIPAddress
p2389
V172.217.6.4
p2390
sVpageref
p2391
VPho
p2392
sVstartedDateTime
p2393
V2017-04-16T08:46:39.619-05:00
p2394
sVcache
p2395
(dp2396
sVrequest
p2397
(dp2398
Vcomment
p2399
g4
sVcookies
p2400
(lp2401
sVurl
p2402
Vhttps://www.google.com/gen_204?atyp=i&ct=slh&cad=&ei=oHXzWIn4PImwjwS_hL6ADQ&m=V&t=C&s=1&v=2&pv=0.8438932384551816&me=1:1492350376181,x:2,V,0,0,1280,944:0,N,1,oHXzWIn4PImwjwS_hL6ADQ:0,R,1,24,8,155,1249,564:0,R,1,26,8,155,1197,564:0,R,1,30,95,155,1024,120:0,R,1,85,16,351,1189,104:0,R,1,104,16,455,1189,104:0,R,1,124,16,559,1189,114:0,R,1,154,8,729,1249,463:0,R,1,155,8,729,1249,463:0,R,1,158,8,742,1249,40:0,R,1,171,8,794,1249,148:0,R,1,174,0,810,1265,167:2,B,3671:15314,e,U&zx=1492350399616
p2403
sVqueryString
p2404
(lp2405
(dp2406
Vname
p2407
Vatyp
p2408
sVvalue
p2409
g30
sa(dp2410
Vname
p2411
Vct
p2412
sVvalue
p2413
Vslh
p2414
sa(dp2415
Vname
p2416
Vcad
p2417
sVvalue
p2418
g4
sa(dp2419
Vname
p2420
Vei
p2421
sVvalue
p2422
VoHXzWIn4PImwjwS_hL6ADQ
p2423
sa(dp2424
Vname
p2425
g47
sVvalue
p2426
g49
sa(dp2427
Vname
p2428
g52
sVvalue
p2429
g54
sa(dp2430
Vname
p2431
g57
sVvalue
p2432
g59
sa(dp2433
Vname
p2434
g62
sVvalue
p2435
g64
sa(dp2436
Vname
p2437
Vpv
p2438
sVvalue
p2439
V0.8438932384551816
p2440
sa(dp2441
Vname
p2442
Vme
p2443
sVvalue
p2444
V1:1492350376181,x:2,V,0,0,1280,944:0,N,1,oHXzWIn4PImwjwS_hL6ADQ:0,R,1,24,8,155,1249,564:0,R,1,26,8,155,1197,564:0,R,1,30,95,155,1024,120:0,R,1,85,16,351,1189,104:0,R,1,104,16,455,1189,104:0,R,1,124,16,559,1189,114:0,R,1,154,8,729,1249,463:0,R,1,155,8,729,1249,463:0,R,1,158,8,742,1249,40:0,R,1,171,8,794,1249,148:0,R,1,174,0,810,1265,167:2,B,3671:15314,e,U
p2445
sa(dp2446
Vname
p2447
Vzx
p2448
sVvalue
p2449
V1492350399616
p2450
sasVheaders
p2451
(lp2452
sVheadersSize
p2453
I1007
sVbodySize
p2454
I0
sVmethod
p2455
VGET
p2456
sVhttpVersion
p2457
VHTTP/1.1
p2458
ssVtimings
p2459
(dp2460
Vcomment
p2461
g4
sVreceive
p2462
I0
sVsend
p2463
I0
sVssl
p2464
I-1
sVconnect
p2465
I-1
sVdns
p2466
I-1
sVwait
p2467
I30
sVblocked
p2468
I-1
ssVtime
p2469
I30
sVresponse
p2470
(dp2471
Vstatus
p2472
I204
sVcomment
p2473
g4
sVcookies
p2474
(lp2475
sVstatusText
p2476
VNo Content
p2477
sVcontent
p2478
(dp2479
VmimeType
p2480
Vtext/html; charset=UTF-8
p2481
sVcomment
p2482
g4
sVsize
p2483
I0
ssVheaders
p2484
(lp2485
sVheadersSize
p2486
I248
sVredirectURL
p2487
g4
sVbodySize
p2488
I0
sVhttpVersion
p2489
VHTTP/1.1
p2490
ssasVversion
p2491
V1.2
p2492
sVpages
p2493
(lp2494
(dp2495
VpageTimings
p2496
(dp2497
Vcomment
p2498
g4
ssVcomment
p2499
g4
sVtitle
p2500
VPho
p2501
sVid
p2502
VPho
p2503
sVstartedDateTime
p2504
V2017-04-16T08:46:31.493-05:00
p2505
sasVcreator
p2506
(dp2507
Vcomment
p2508
g4
sVversion
p2509
V2.1.4
p2510
sVname
p2511
VBrowserMob Proxy
p2512
sss.