(dp0
Vlog
p1
(dp2
Vcomment
p3
V
p4
sVentries
p5
(lp6
(dp7
Vcomment
p8
g4
sVserverIPAddress
p9
V216.58.216.196
p10
sVpageref
p11
VMexico City
p12
sVstartedDateTime
p13
V2017-04-16T08:52:36.399-05:00
p14
sVcache
p15
(dp16
sVrequest
p17
(dp18
Vcomment
p19
g4
sVcookies
p20
(lp21
sVurl
p22
Vhttps://www.google.com/gen_204?atyp=i&ct=slh&cad=&ei=C3fzWMD8EoewjwScrbe4Dw&m=V&t=C&s=1&v=2&pv=0.8407868215942033&me=1:1492350735625,x:1,V,0,0,1280,944:0,N,1,C3fzWMD8EoewjwScrbe4Dw:0,R,1,24,8,155,1249,678:0,R,1,25,8,155,1249,678:0,R,1,36,8,155,1249,116:0,R,1,48,8,284,1249,40:0,R,1,55,8,399,1249,40:0,R,1,56,24,399,1217,40:0,R,1,61,8,455,1249,20:0,R,1,63,8,483,1249,20:0,R,1,72,8,523,1249,213:0,R,1,73,8,572,1249,164:0,R,1,88,8,736,1249,30:0,R,1,158,24,843,1217,135:2,B,3568:20769,e,U&zx=1492350756398
p23
sVqueryString
p24
(lp25
(dp26
Vname
p27
Vatyp
p28
sVvalue
p29
Vi
p30
sa(dp31
Vname
p32
Vct
p33
sVvalue
p34
Vslh
p35
sa(dp36
Vname
p37
Vcad
p38
sVvalue
p39
g4
sa(dp40
Vname
p41
Vei
p42
sVvalue
p43
VC3fzWMD8EoewjwScrbe4Dw
p44
sa(dp45
Vname
p46
Vm
p47
sVvalue
p48
VV
p49
sa(dp50
Vname
p51
Vt
p52
sVvalue
p53
VC
p54
sa(dp55
Vname
p56
Vs
p57
sVvalue
p58
V1
p59
sa(dp60
Vname
p61
Vv
p62
sVvalue
p63
V2
p64
sa(dp65
Vname
p66
Vpv
p67
sVvalue
p68
V0.8407868215942033
p69
sa(dp70
Vname
p71
Vme
p72
sVvalue
p73
V1:1492350735625,x:1,V,0,0,1280,944:0,N,1,C3fzWMD8EoewjwScrbe4Dw:0,R,1,24,8,155,1249,678:0,R,1,25,8,155,1249,678:0,R,1,36,8,155,1249,116:0,R,1,48,8,284,1249,40:0,R,1,55,8,399,1249,40:0,R,1,56,24,399,1217,40:0,R,1,61,8,455,1249,20:0,R,1,63,8,483,1249,20:0,R,1,72,8,523,1249,213:0,R,1,73,8,572,1249,164:0,R,1,88,8,736,1249,30:0,R,1,158,24,843,1217,135:2,B,3568:20769,e,U
p74
sa(dp75
Vname
p76
Vzx
p77
sVvalue
p78
V1492350756398
p79
sasVheaders
p80
(lp81
sVheadersSize
p82
I1018
sVbodySize
p83
I0
sVmethod
p84
VGET
p85
sVhttpVersion
p86
VHTTP/1.1
p87
ssVtimings
p88
(dp89
Vcomment
p90
g4
sVreceive
p91
I0
sVsend
p92
I0
sVssl
p93
I-1
sVconnect
p94
I-1
sVdns
p95
I-1
sVwait
p96
I0
sVblocked
p97
I-1
ssVtime
p98
I0
sVresponse
p99
(dp100
Vstatus
p101
I0
sVcomment
p102
g4
sVcookies
p103
(lp104
sV_error
p105
VNo response received
p106
sVstatusText
p107
g4
sVcontent
p108
(dp109
VmimeType
p110
g4
sVcomment
p111
g4
sVsize
p112
I0
ssVheaders
p113
(lp114
sVheadersSize
p115
I-1
sVredirectURL
p116
g4
sVbodySize
p117
I-1
sVhttpVersion
p118
Vunknown
p119
ssa(dp120
Vcomment
p121
g4
sVserverIPAddress
p122
V216.58.216.196
p123
sVpageref
p124
VMexico City
p125
sVstartedDateTime
p126
V2017-04-16T08:52:36.400-05:00
p127
sVcache
p128
(dp129
sVrequest
p130
(dp131
Vcomment
p132
g4
sVcookies
p133
(lp134
sVurl
p135
Vhttps://www.google.com/gen_204?atyp=i&ct=slh&cad=&ei=gnbzWP3JEMHSjwSaz6n4Dw&m=V&t=C&s=1&v=2&pv=0.2296723393945379&me=1:1492350599216,x:2,V,0,0,1280,944:0,N,1,gnbzWP3JEMHSjwSaz6n4Dw:0,R,1,24,8,155,1249,445:0,R,1,26,8,155,1197,445:0,R,1,28,95,155,1024,120:0,R,1,68,8,351,1197,83:0,R,1,77,8,435,1197,83:0,R,1,86,8,518,1197,82:0,R,1,97,24,610,1217,115:0,R,1,104,8,746,1249,700:0,R,1,111,8,928,1249,332:0,R,1,112,0,929,1265,351:2,B,3554:14824,e,U&zx=1492350756398
p136
sVqueryString
p137
(lp138
(dp139
Vname
p140
Vatyp
p141
sVvalue
p142
g30
sa(dp143
Vname
p144
Vct
p145
sVvalue
p146
Vslh
p147
sa(dp148
Vname
p149
Vcad
p150
sVvalue
p151
g4
sa(dp152
Vname
p153
Vei
p154
sVvalue
p155
VgnbzWP3JEMHSjwSaz6n4Dw
p156
sa(dp157
Vname
p158
g47
sVvalue
p159
g49
sa(dp160
Vname
p161
g52
sVvalue
p162
g54
sa(dp163
Vname
p164
g57
sVvalue
p165
g59
sa(dp166
Vname
p167
g62
sVvalue
p168
g64
sa(dp169
Vname
p170
Vpv
p171
sVvalue
p172
V0.2296723393945379
p173
sa(dp174
Vname
p175
Vme
p176
sVvalue
p177
V1:1492350599216,x:2,V,0,0,1280,944:0,N,1,gnbzWP3JEMHSjwSaz6n4Dw:0,R,1,24,8,155,1249,445:0,R,1,26,8,155,1197,445:0,R,1,28,95,155,1024,120:0,R,1,68,8,351,1197,83:0,R,1,77,8,435,1197,83:0,R,1,86,8,518,1197,82:0,R,1,97,24,610,1217,115:0,R,1,104,8,746,1249,700:0,R,1,111,8,928,1249,332:0,R,1,112,0,929,1265,351:2,B,3554:14824,e,U
p178
sa(dp179
Vname
p180
Vzx
p181
sVvalue
p182
V1492350756398
p183
sasVheaders
p184
(lp185
sVheadersSize
p186
I975
sVbodySize
p187
I0
sVmethod
p188
VGET
p189
sVhttpVersion
p190
VHTTP/1.1
p191
ssVtimings
p192
(dp193
Vcomment
p194
g4
sVreceive
p195
I0
sVsend
p196
I0
sVssl
p197
I-1
sVconnect
p198
I-1
sVdns
p199
I-1
sVwait
p200
I0
sVblocked
p201
I-1
ssVtime
p202
I0
sVresponse
p203
(dp204
Vstatus
p205
I0
sVcomment
p206
g4
sVcookies
p207
(lp208
sV_error
p209
VNo response received
p210
sVstatusText
p211
g4
sVcontent
p212
(dp213
VmimeType
p214
g4
sVcomment
p215
g4
sVsize
p216
I0
ssVheaders
p217
(lp218
sVheadersSize
p219
I-1
sVredirectURL
p220
g4
sVbodySize
p221
I-1
sVhttpVersion
p222
Vunknown
p223
ssa(dp224
Vcomment
p225
g4
sVserverIPAddress
p226
V216.58.216.196
p227
sVpageref
p228
VMexico City
p229
sVstartedDateTime
p230
V2017-04-16T08:52:36.400-05:00
p231
sVcache
p232
(dp233
sVrequest
p234
(dp235
Vcomment
p236
g4
sVcookies
p237
(lp238
sVurl
p239
Vhttps://www.google.com/gen_204?atyp=i&ct=slh&cad=&ei=1nbzWOTyFKzXjwS1nraAAg&m=V&t=C&s=1&v=2&pv=0.941961282152072&me=1:1492350681475,x:2,V,0,0,1280,944:0,N,1,1nbzWOTyFKzXjwS1nraAAg:0,R,1,24,8,155,1249,429:0,R,1,26,8,155,1197,429:0,R,1,29,95,155,1024,120:0,R,1,74,8,351,1197,117:0,R,1,84,8,468,1197,116:0,R,1,95,8,594,1249,357:0,R,1,96,8,594,1249,337:0,R,1,97,8,594,1249,110:1,B,3530:17947,e,U&zx=1492350756399
p240
sVqueryString
p241
(lp242
(dp243
Vname
p244
Vatyp
p245
sVvalue
p246
g30
sa(dp247
Vname
p248
Vct
p249
sVvalue
p250
Vslh
p251
sa(dp252
Vname
p253
Vcad
p254
sVvalue
p255
g4
sa(dp256
Vname
p257
Vei
p258
sVvalue
p259
V1nbzWOTyFKzXjwS1nraAAg
p260
sa(dp261
Vname
p262
g47
sVvalue
p263
g49
sa(dp264
Vname
p265
g52
sVvalue
p266
g54
sa(dp267
Vname
p268
g57
sVvalue
p269
g59
sa(dp270
Vname
p271
g62
sVvalue
p272
g64
sa(dp273
Vname
p274
Vpv
p275
sVvalue
p276
V0.941961282152072
p277
sa(dp278
Vname
p279
Vme
p280
sVvalue
p281
V1:1492350681475,x:2,V,0,0,1280,944:0,N,1,1nbzWOTyFKzXjwS1nraAAg:0,R,1,24,8,155,1249,429:0,R,1,26,8,155,1197,429:0,R,1,29,95,155,1024,120:0,R,1,74,8,351,1197,117:0,R,1,84,8,468,1197,116:0,R,1,95,8,594,1249,357:0,R,1,96,8,594,1249,337:0,R,1,97,8,594,1249,110:1,B,3530:17947,e,U
p282
sa(dp283
Vname
p284
Vzx
p285
sVvalue
p286
V1492350756399
p287
sasVheaders
p288
(lp289
sVheadersSize
p290
I925
sVbodySize
p291
I0
sVmethod
p292
VGET
p293
sVhttpVersion
p294
VHTTP/1.1
p295
ssVtimings
p296
(dp297
Vcomment
p298
g4
sVreceive
p299
I0
sVsend
p300
I0
sVssl
p301
I-1
sVconnect
p302
I-1
sVdns
p303
I-1
sVwait
p304
I0
sVblocked
p305
I-1
ssVtime
p306
I0
sVresponse
p307
(dp308
Vstatus
p309
I0
sVcomment
p310
g4
sVcookies
p311
(lp312
sV_error
p313
VNo response received
p314
sVstatusText
p315
g4
sVcontent
p316
(dp317
VmimeType
p318
g4
sVcomment
p319
g4
sVsize
p320
I0
ssVheaders
p321
(lp322
sVheadersSize
p323
I-1
sVredirectURL
p324
g4
sVbodySize
p325
I-1
sVhttpVersion
p326
Vunknown
p327
ssa(dp328
Vcomment
p329
g4
sVserverIPAddress
p330
V216.58.216.196
p331
sVpageref
p332
VMexico City
p333
sVstartedDateTime
p334
V2017-04-16T08:52:36.407-05:00
p335
sVcache
p336
(dp337
sVrequest
p338
(dp339
Vcomment
p340
g4
sVcookies
p341
(lp342
sVurl
p343
Vhttp://www.google.com/
p344
sVqueryString
p345
(lp346
sVheaders
p347
(lp348
sVheadersSize
p349
I613
sVbodySize
p350
I0
sVmethod
p351
VGET
p352
sVhttpVersion
p353
VHTTP/1.1
p354
ssVtimings
p355
(dp356
Vcomment
p357
g4
sVreceive
p358
I0
sVsend
p359
I0
sVssl
p360
I-1
sVconnect
p361
I-1
sVdns
p362
I-1
sVwait
p363
I43
sVblocked
p364
I-1
ssVtime
p365
I43
sVresponse
p366
(dp367
Vstatus
p368
I302
sVcomment
p369
g4
sVcookies
p370
(lp371
sVstatusText
p372
VFound
p373
sVcontent
p374
(dp375
VmimeType
p376
Vtext/html; charset=UTF-8
p377
sVcomment
p378
g4
sVsize
p379
I0
ssVheaders
p380
(lp381
sVheadersSize
p382
I609
sVredirectURL
p383
Vhttps://www.google.com/?gws_rd=ssl
p384
sVbodySize
p385
I231
sVhttpVersion
p386
VHTTP/1.1
p387
ssa(dp388
Vcomment
p389
g4
sVserverIPAddress
p390
V216.58.216.196
p391
sVpageref
p392
VMexico City
p393
sVstartedDateTime
p394
V2017-04-16T08:52:36.492-05:00
p395
sVcache
p396
(dp397
sVrequest
p398
(dp399
Vcomment
p400
g4
sVcookies
p401
(lp402
sVurl
p403
Vhttps://www.google.com/?gws_rd=ssl
p404
sVqueryString
p405
(lp406
(dp407
Vname
p408
Vgws_rd
p409
sVvalue
p410
Vssl
p411
sasVheaders
p412
(lp413
sVheadersSize
p414
I607
sVbodySize
p415
I0
sVmethod
p416
VGET
p417
sVhttpVersion
p418
VHTTP/1.1
p419
ssVtimings
p420
(dp421
Vcomment
p422
g4
sVreceive
p423
I23
sVsend
p424
I0
sVssl
p425
I21
sVconnect
p426
I36
sVdns
p427
I0
sVwait
p428
I321
sVblocked
p429
I0
ssVtime
p430
I381
sVresponse
p431
(dp432
Vstatus
p433
I200
sVcomment
p434
g4
sVcookies
p435
(lp436
sVstatusText
p437
VOK
p438
sVcontent
p439
(dp440
VmimeType
p441
Vtext/html; charset=UTF-8
p442
sVcomment
p443
g4
sVsize
p444
I0
ssVheaders
p445
(lp446
sVheadersSize
p447
I721
sVredirectURL
p448
g4
sVbodySize
p449
I34291
sVhttpVersion
p450
VHTTP/1.1
p451
ssa(dp452
Vcomment
p453
g4
sVserverIPAddress
p454
V216.58.216.196
p455
sVpageref
p456
VMexico City
p457
sVstartedDateTime
p458
V2017-04-16T08:52:36.863-05:00
p459
sVcache
p460
(dp461
sVrequest
p462
(dp463
Vcomment
p464
g4
sVcookies
p465
(lp466
sVurl
p467
Vhttps://www.google.com/gen_204?atyp=i&ct=slh&cad=&ei=C3fzWMD8EoewjwScrbe4Dw&s=2&v=2&pv=0.8407868215942033&me=18:1492350756816,e,H&zx=1492350756818
p468
sVqueryString
p469
(lp470
(dp471
Vname
p472
Vatyp
p473
sVvalue
p474
g30
sa(dp475
Vname
p476
Vct
p477
sVvalue
p478
Vslh
p479
sa(dp480
Vname
p481
Vcad
p482
sVvalue
p483
g4
sa(dp484
Vname
p485
Vei
p486
sVvalue
p487
VC3fzWMD8EoewjwScrbe4Dw
p488
sa(dp489
Vname
p490
g57
sVvalue
p491
g64
sa(dp492
Vname
p493
g62
sVvalue
p494
g64
sa(dp495
Vname
p496
Vpv
p497
sVvalue
p498
V0.8407868215942033
p499
sa(dp500
Vname
p501
Vme
p502
sVvalue
p503
V18:1492350756816,e,H
p504
sa(dp505
Vname
p506
Vzx
p507
sVvalue
p508
V1492350756818
p509
sasVheaders
p510
(lp511
sVheadersSize
p512
I663
sVbodySize
p513
I0
sVmethod
p514
VGET
p515
sVhttpVersion
p516
VHTTP/1.1
p517
ssVtimings
p518
(dp519
Vcomment
p520
g4
sVreceive
p521
I0
sVsend
p522
I0
sVssl
p523
I29
sVconnect
p524
I42
sVdns
p525
I0
sVwait
p526
I43
sVblocked
p527
I0
ssVtime
p528
I86
sVresponse
p529
(dp530
Vstatus
p531
I204
sVcomment
p532
g4
sVcookies
p533
(lp534
sVstatusText
p535
VNo Content
p536
sVcontent
p537
(dp538
VmimeType
p539
Vtext/html; charset=UTF-8
p540
sVcomment
p541
g4
sVsize
p542
I0
ssVheaders
p543
(lp544
sVheadersSize
p545
I248
sVredirectURL
p546
g4
sVbodySize
p547
I0
sVhttpVersion
p548
VHTTP/1.1
p549
ssa(dp550
Vcomment
p551
g4
sVserverIPAddress
p552
V216.58.216.196
p553
sVpageref
p554
VMexico City
p555
sVstartedDateTime
p556
V2017-04-16T08:52:37.210-05:00
p557
sVcache
p558
(dp559
sVrequest
p560
(dp561
Vcomment
p562
g4
sVcookies
p563
(lp564
sVurl
p565
Vhttps://www.google.com/gen_204?s=mobilewebhp&atyp=csi&ei=I3fzWNm6HIeVjwT26anoBA&imc=1&imn=1&imp=0&adh=&xjs=init.29.12.sb_mob.20.dvl.4.c.1.jsa.1.mbsf.1&ima=1&rt=xjsls.27,prt.30,iml.30,dcl.62,xjses.136,xjsee.260,xjs.260,ol.359,aft.30,wsrt.443,cst.0,dnst.0,rqst.346,rspt.347,rqstt.95,unt.56,cstt.56,dit.491
p566
sVqueryString
p567
(lp568
(dp569
Vname
p570
g57
sVvalue
p571
Vmobilewebhp
p572
sa(dp573
Vname
p574
Vatyp
p575
sVvalue
p576
Vcsi
p577
sa(dp578
Vname
p579
Vei
p580
sVvalue
p581
VI3fzWNm6HIeVjwT26anoBA
p582
sa(dp583
Vname
p584
Vimc
p585
sVvalue
p586
g59
sa(dp587
Vname
p588
Vimn
p589
sVvalue
p590
g59
sa(dp591
Vname
p592
Vimp
p593
sVvalue
p594
V0
p595
sa(dp596
Vname
p597
Vadh
p598
sVvalue
p599
g4
sa(dp600
Vname
p601
Vxjs
p602
sVvalue
p603
Vinit.29.12.sb_mob.20.dvl.4.c.1.jsa.1.mbsf.1
p604
sa(dp605
Vname
p606
Vima
p607
sVvalue
p608
g59
sa(dp609
Vname
p610
Vrt
p611
sVvalue
p612
Vxjsls.27,prt.30,iml.30,dcl.62,xjses.136,xjsee.260,xjs.260,ol.359,aft.30,wsrt.443,cst.0,dnst.0,rqst.346,rspt.347,rqstt.95,unt.56,cstt.56,dit.491
p613
sasVheaders
p614
(lp615
sVheadersSize
p616
I831
sVbodySize
p617
I0
sVmethod
p618
VGET
p619
sVhttpVersion
p620
VHTTP/1.1
p621
ssVtimings
p622
(dp623
Vcomment
p624
g4
sVreceive
p625
I0
sVsend
p626
I0
sVssl
p627
I-1
sVconnect
p628
I-1
sVdns
p629
I-1
sVwait
p630
I67
sVblocked
p631
I-1
ssVtime
p632
I67
sVresponse
p633
(dp634
Vstatus
p635
I204
sVcomment
p636
g4
sVcookies
p637
(lp638
sVstatusText
p639
VNo Content
p640
sVcontent
p641
(dp642
VmimeType
p643
Vtext/html; charset=UTF-8
p644
sVcomment
p645
g4
sVsize
p646
I0
ssVheaders
p647
(lp648
sVheadersSize
p649
I248
sVredirectURL
p650
g4
sVbodySize
p651
I0
sVhttpVersion
p652
VHTTP/1.1
p653
ssa(dp654
Vcomment
p655
g4
sVserverIPAddress
p656
V216.58.216.196
p657
sVpageref
p658
VMexico City
p659
sVstartedDateTime
p660
V2017-04-16T08:52:37.325-05:00
p661
sVcache
p662
(dp663
sVrequest
p664
(dp665
Vcomment
p666
g4
sVcookies
p667
(lp668
sVurl
p669
Vhttps://www.google.com/complete/search?client=mobile-gws-hp&hl=en&gs_rn=64&gs_ri=mobile-gws-hp&sla=1&pfq=mazda&gm=602&cp=0&gs_id=1&xhr=t&q=M&tch=1&ech=1&psi=I3fzWNm6HIeVjwT26anoBA.1492350757070.1
p670
sVqueryString
p671
(lp672
(dp673
Vname
p674
Vclient
p675
sVvalue
p676
Vmobile-gws-hp
p677
sa(dp678
Vname
p679
Vhl
p680
sVvalue
p681
Ven
p682
sa(dp683
Vname
p684
Vgs_rn
p685
sVvalue
p686
V64
p687
sa(dp688
Vname
p689
Vgs_ri
p690
sVvalue
p691
Vmobile-gws-hp
p692
sa(dp693
Vname
p694
Vsla
p695
sVvalue
p696
g59
sa(dp697
Vname
p698
Vpfq
p699
sVvalue
p700
Vmazda
p701
sa(dp702
Vname
p703
Vgm
p704
sVvalue
p705
V602
p706
sa(dp707
Vname
p708
Vcp
p709
sVvalue
p710
g595
sa(dp711
Vname
p712
Vgs_id
p713
sVvalue
p714
g59
sa(dp715
Vname
p716
Vxhr
p717
sVvalue
p718
g52
sa(dp719
Vname
p720
Vq
p721
sVvalue
p722
VM
p723
sa(dp724
Vname
p725
Vtch
p726
sVvalue
p727
g59
sa(dp728
Vname
p729
Vech
p730
sVvalue
p731
g59
sa(dp732
Vname
p733
Vpsi
p734
sVvalue
p735
VI3fzWNm6HIeVjwT26anoBA.1492350757070.1
p736
sasVheaders
p737
(lp738
sVheadersSize
p739
I723
sVbodySize
p740
I0
sVmethod
p741
VGET
p742
sVhttpVersion
p743
VHTTP/1.1
p744
ssVtimings
p745
(dp746
Vcomment
p747
g4
sVreceive
p748
I0
sVsend
p749
I0
sVssl
p750
I-1
sVconnect
p751
I-1
sVdns
p752
I-1
sVwait
p753
I0
sVblocked
p754
I-1
ssVtime
p755
I0
sVresponse
p756
(dp757
Vstatus
p758
I0
sVcomment
p759
g4
sVcookies
p760
(lp761
sV_error
p762
VNo response received
p763
sVstatusText
p764
g4
sVcontent
p765
(dp766
VmimeType
p767
g4
sVcomment
p768
g4
sVsize
p769
I0
ssVheaders
p770
(lp771
sVheadersSize
p772
I-1
sVredirectURL
p773
g4
sVbodySize
p774
I-1
sVhttpVersion
p775
Vunknown
p776
ssa(dp777
Vcomment
p778
g4
sVserverIPAddress
p779
V216.58.216.196
p780
sVpageref
p781
VMexico City
p782
sVstartedDateTime
p783
V2017-04-16T08:52:37.436-05:00
p784
sVcache
p785
(dp786
sVrequest
p787
(dp788
Vcomment
p789
g4
sVcookies
p790
(lp791
sVurl
p792
Vhttps://www.google.com/search?site=&source=hp&ei=I3fzWNm6HIeVjwT26anoBA&q=Mexico+City&oq=Mexico+City&gs_l=mobile-gws-hp.3...230.285.0.327.11.1.0.0.0.0.0.0..0.0....0...1c.1.64.mobile-gws-hp..11.0.0.AGsSxwTYNiA
p793
sVqueryString
p794
(lp795
(dp796
Vname
p797
Vsite
p798
sVvalue
p799
g4
sa(dp800
Vname
p801
Vsource
p802
sVvalue
p803
Vhp
p804
sa(dp805
Vname
p806
Vei
p807
sVvalue
p808
VI3fzWNm6HIeVjwT26anoBA
p809
sa(dp810
Vname
p811
g721
sVvalue
p812
VMexico City
p813
sa(dp814
Vname
p815
Voq
p816
sVvalue
p817
VMexico City
p818
sa(dp819
Vname
p820
Vgs_l
p821
sVvalue
p822
Vmobile-gws-hp.3...230.285.0.327.11.1.0.0.0.0.0.0..0.0....0...1c.1.64.mobile-gws-hp..11.0.0.AGsSxwTYNiA
p823
sasVheaders
p824
(lp825
sVheadersSize
p826
I826
sVbodySize
p827
I0
sVmethod
p828
VGET
p829
sVhttpVersion
p830
VHTTP/1.1
p831
ssVtimings
p832
(dp833
Vcomment
p834
g4
sVreceive
p835
I1472
sVsend
p836
I0
sVssl
p837
I-1
sVconnect
p838
I-1
sVdns
p839
I-1
sVwait
p840
I113
sVblocked
p841
I-1
ssVtime
p842
I1585
sVresponse
p843
(dp844
Vstatus
p845
I200
sVcomment
p846
g4
sVcookies
p847
(lp848
sVstatusText
p849
VOK
p850
sVcontent
p851
(dp852
VmimeType
p853
Vtext/html; charset=UTF-8
p854
sVcomment
p855
g4
sVsize
p856
I0
ssVheaders
p857
(lp858
sVheadersSize
p859
I363
sVredirectURL
p860
g4
sVbodySize
p861
I123829
sVhttpVersion
p862
VHTTP/1.1
p863
ssa(dp864
Vcomment
p865
g4
sVserverIPAddress
p866
V216.58.216.196
p867
sVpageref
p868
VMexico City
p869
sVstartedDateTime
p870
V2017-04-16T08:52:39.425-05:00
p871
sVcache
p872
(dp873
sVrequest
p874
(dp875
Vcomment
p876
g4
sVcookies
p877
(lp878
sVurl
p879
Vhttps://www.google.com/maps/vt/data=RfCSdfNZ0LFPrHSm0ublXdzhdrDFhtmHhN1u-gM,nTyKGBWPW8ZPKryLb4f_HdSuk21MeIx9ctzNuZSarU_chQO4wRCl55VA9EZ14T6MDg7CK-qWSjEwOz-uxn16Z3tlkx0s7eJy0TUllqLCRaprvy14-_oaZx_-MLADAoMCiLDCyPzQaLPIauhoD6f4COL1YEvjOJi_gbKlxnRpTIFw3I7oa335iEMvjetmuU_u0TdITOPC1tI4zQ?scale=2&h=104&w=1024
p880
sVqueryString
p881
(lp882
(dp883
Vname
p884
Vscale
p885
sVvalue
p886
g64
sa(dp887
Vname
p888
Vh
p889
sVvalue
p890
V104
p891
sa(dp892
Vname
p893
Vw
p894
sVvalue
p895
V1024
p896
sasVheaders
p897
(lp898
sVheadersSize
p899
I820
sVbodySize
p900
I0
sVmethod
p901
VGET
p902
sVhttpVersion
p903
VHTTP/1.1
p904
ssVtimings
p905
(dp906
Vcomment
p907
g4
sVreceive
p908
I41
sVsend
p909
I0
sVssl
p910
I-1
sVconnect
p911
I-1
sVdns
p912
I-1
sVwait
p913
I147
sVblocked
p914
I-1
ssVtime
p915
I188
sVresponse
p916
(dp917
Vstatus
p918
I200
sVcomment
p919
g4
sVcookies
p920
(lp921
sVstatusText
p922
VOK
p923
sVcontent
p924
(dp925
VmimeType
p926
Vimage/png
p927
sVcomment
p928
g4
sVsize
p929
I0
ssVheaders
p930
(lp931
sVheadersSize
p932
I480
sVredirectURL
p933
g4
sVbodySize
p934
I122402
sVhttpVersion
p935
VHTTP/1.1
p936
ssa(dp937
Vcomment
p938
g4
sVserverIPAddress
p939
V216.58.216.196
p940
sVpageref
p941
VMexico City
p942
sVstartedDateTime
p943
V2017-04-16T08:52:39.639-05:00
p944
sVcache
p945
(dp946
sVrequest
p947
(dp948
Vcomment
p949
g4
sVcookies
p950
(lp951
sVurl
p952
Vhttps://www.google.com/gen_204?s=lu&atyp=csi&ei=JHfzWInyGcyCjwTyt4eIDw&ima=3&rt=lmap.2055,aft.2054,wsrt.1998,cst.0,dnst.0,rqst.1587,rspt.1473,rqstt.13,unt.9,cstt.9,dit.1675
p953
sVqueryString
p954
(lp955
(dp956
Vname
p957
g57
sVvalue
p958
Vlu
p959
sa(dp960
Vname
p961
Vatyp
p962
sVvalue
p963
Vcsi
p964
sa(dp965
Vname
p966
Vei
p967
sVvalue
p968
VJHfzWInyGcyCjwTyt4eIDw
p969
sa(dp970
Vname
p971
Vima
p972
sVvalue
p973
V3
p974
sa(dp975
Vname
p976
Vrt
p977
sVvalue
p978
Vlmap.2055,aft.2054,wsrt.1998,cst.0,dnst.0,rqst.1587,rspt.1473,rqstt.13,unt.9,cstt.9,dit.1675
p979
sasVheaders
p980
(lp981
sVheadersSize
p982
I689
sVbodySize
p983
I0
sVmethod
p984
VGET
p985
sVhttpVersion
p986
VHTTP/1.1
p987
ssVtimings
p988
(dp989
Vcomment
p990
g4
sVreceive
p991
I0
sVsend
p992
I0
sVssl
p993
I-1
sVconnect
p994
I-1
sVdns
p995
I-1
sVwait
p996
I26
sVblocked
p997
I-1
ssVtime
p998
I26
sVresponse
p999
(dp1000
Vstatus
p1001
I204
sVcomment
p1002
g4
sVcookies
p1003
(lp1004
sVstatusText
p1005
VNo Content
p1006
sVcontent
p1007
(dp1008
VmimeType
p1009
Vtext/html; charset=UTF-8
p1010
sVcomment
p1011
g4
sVsize
p1012
I0
ssVheaders
p1013
(lp1014
sVheadersSize
p1015
I248
sVredirectURL
p1016
g4
sVbodySize
p1017
I0
sVhttpVersion
p1018
VHTTP/1.1
p1019
ssa(dp1020
Vcomment
p1021
g4
sVserverIPAddress
p1022
V216.58.216.196
p1023
sVpageref
p1024
VMexico City
p1025
sVstartedDateTime
p1026
V2017-04-16T08:52:39.897-05:00
p1027
sVcache
p1028
(dp1029
sVrequest
p1030
(dp1031
Vcomment
p1032
g4
sVcookies
p1033
(lp1034
sVurl
p1035
Vhttps://www.google.com/async/irc?vet=10ahUKEwiJlN7lj6nTAhVMwYMKHfLbAfEQo0EIgwI..i&ved=0ahUKEwiJlN7lj6nTAhVMwYMKHfLbAfEQo0EIgwI&ei=JHfzWInyGcyCjwTyt4eIDw&yv=2&async=iu:1,ved:0ahUKEwiJlN7lj6nTAhVMwYMKHfLbAfEQo0EIgwI,_id:irc_async,_pms:qs
p1036
sVqueryString
p1037
(lp1038
(dp1039
Vname
p1040
Vvet
p1041
sVvalue
p1042
V10ahUKEwiJlN7lj6nTAhVMwYMKHfLbAfEQo0EIgwI..i
p1043
sa(dp1044
Vname
p1045
Vved
p1046
sVvalue
p1047
V0ahUKEwiJlN7lj6nTAhVMwYMKHfLbAfEQo0EIgwI
p1048
sa(dp1049
Vname
p1050
Vei
p1051
sVvalue
p1052
VJHfzWInyGcyCjwTyt4eIDw
p1053
sa(dp1054
Vname
p1055
Vyv
p1056
sVvalue
p1057
g64
sa(dp1058
Vname
p1059
Vasync
p1060
sVvalue
p1061
Viu:1,ved:0ahUKEwiJlN7lj6nTAhVMwYMKHfLbAfEQo0EIgwI,_id:irc_async,_pms:qs
p1062
sasVheaders
p1063
(lp1064
sVheadersSize
p1065
I752
sVbodySize
p1066
I0
sVmethod
p1067
VGET
p1068
sVhttpVersion
p1069
VHTTP/1.1
p1070
ssVtimings
p1071
(dp1072
Vcomment
p1073
g4
sVreceive
p1074
I3
sVsend
p1075
I0
sVssl
p1076
I-1
sVconnect
p1077
I-1
sVdns
p1078
I-1
sVwait
p1079
I40
sVblocked
p1080
I-1
ssVtime
p1081
I43
sVresponse
p1082
(dp1083
Vstatus
p1084
I200
sVcomment
p1085
g4
sVcookies
p1086
(lp1087
sVstatusText
p1088
VOK
p1089
sVcontent
p1090
(dp1091
VmimeType
p1092
Vtext/html; charset=UTF-8
p1093
sVcomment
p1094
g4
sVsize
p1095
I0
ssVheaders
p1096
(lp1097
sVheadersSize
p1098
I383
sVredirectURL
p1099
g4
sVbodySize
p1100
I7798
sVhttpVersion
p1101
VHTTP/1.1
p1102
ssa(dp1103
Vcomment
p1104
g4
sVserverIPAddress
p1105
V216.58.216.196
p1106
sVpageref
p1107
VMexico City
p1108
sVstartedDateTime
p1109
V2017-04-16T08:52:39.963-05:00
p1110
sVcache
p1111
(dp1112
sVrequest
p1113
(dp1114
Vcomment
p1115
g4
sVcookies
p1116
(lp1117
sVurl
p1118
Vhttps://www.google.com/gen_204?atyp=i&ct=&cad=&uact=1&vet=10ahUKEwiJlN7lj6nTAhVMwYMKHfLbAfEQ9V8INCgA..s&ei=JHfzWInyGcyCjwTyt4eIDw&zx=1492350759915
p1119
sVqueryString
p1120
(lp1121
(dp1122
Vname
p1123
Vatyp
p1124
sVvalue
p1125
g30
sa(dp1126
Vname
p1127
Vct
p1128
sVvalue
p1129
g4
sa(dp1130
Vname
p1131
Vcad
p1132
sVvalue
p1133
g4
sa(dp1134
Vname
p1135
Vuact
p1136
sVvalue
p1137
g59
sa(dp1138
Vname
p1139
Vvet
p1140
sVvalue
p1141
V10ahUKEwiJlN7lj6nTAhVMwYMKHfLbAfEQ9V8INCgA..s
p1142
sa(dp1143
Vname
p1144
Vei
p1145
sVvalue
p1146
VJHfzWInyGcyCjwTyt4eIDw
p1147
sa(dp1148
Vname
p1149
Vzx
p1150
sVvalue
p1151
V1492350759915
p1152
sasVheaders
p1153
(lp1154
sVheadersSize
p1155
I663
sVbodySize
p1156
I0
sVmethod
p1157
VGET
p1158
sVhttpVersion
p1159
VHTTP/1.1
p1160
ssVtimings
p1161
(dp1162
Vcomment
p1163
g4
sVreceive
p1164
I0
sVsend
p1165
I0
sVssl
p1166
I21
sVconnect
p1167
I46
sVdns
p1168
I0
sVwait
p1169
I273
sVblocked
p1170
I0
ssVtime
p1171
I320
sVresponse
p1172
(dp1173
Vstatus
p1174
I204
sVcomment
p1175
g4
sVcookies
p1176
(lp1177
sVstatusText
p1178
VNo Content
p1179
sVcontent
p1180
(dp1181
VmimeType
p1182
Vtext/html; charset=UTF-8
p1183
sVcomment
p1184
g4
sVsize
p1185
I0
ssVheaders
p1186
(lp1187
sVheadersSize
p1188
I248
sVredirectURL
p1189
g4
sVbodySize
p1190
I0
sVhttpVersion
p1191
VHTTP/1.1
p1192
ssa(dp1193
Vcomment
p1194
g4
sVserverIPAddress
p1195
V216.58.216.196
p1196
sVpageref
p1197
VMexico City
p1198
sVstartedDateTime
p1199
V2017-04-16T08:52:39.964-05:00
p1200
sVcache
p1201
(dp1202
sVrequest
p1203
(dp1204
Vcomment
p1205
g4
sVcookies
p1206
(lp1207
sVurl
p1208
Vhttps://www.google.com/gen_204?atyp=i&ct=&cad=&uact=1&vet=10ahUKEwiJlN7lj6nTAhVMwYMKHfLbAfEQ9V8INSgB..s&ei=JHfzWInyGcyCjwTyt4eIDw&zx=1492350759917
p1209
sVqueryString
p1210
(lp1211
(dp1212
Vname
p1213
Vatyp
p1214
sVvalue
p1215
g30
sa(dp1216
Vname
p1217
Vct
p1218
sVvalue
p1219
g4
sa(dp1220
Vname
p1221
Vcad
p1222
sVvalue
p1223
g4
sa(dp1224
Vname
p1225
Vuact
p1226
sVvalue
p1227
g59
sa(dp1228
Vname
p1229
Vvet
p1230
sVvalue
p1231
V10ahUKEwiJlN7lj6nTAhVMwYMKHfLbAfEQ9V8INSgB..s
p1232
sa(dp1233
Vname
p1234
Vei
p1235
sVvalue
p1236
VJHfzWInyGcyCjwTyt4eIDw
p1237
sa(dp1238
Vname
p1239
Vzx
p1240
sVvalue
p1241
V1492350759917
p1242
sasVheaders
p1243
(lp1244
sVheadersSize
p1245
I663
sVbodySize
p1246
I0
sVmethod
p1247
VGET
p1248
sVhttpVersion
p1249
VHTTP/1.1
p1250
ssVtimings
p1251
(dp1252
Vcomment
p1253
g4
sVreceive
p1254
I0
sVsend
p1255
I0
sVssl
p1256
I21
sVconnect
p1257
I44
sVdns
p1258
I0
sVwait
p1259
I32
sVblocked
p1260
I0
ssVtime
p1261
I77
sVresponse
p1262
(dp1263
Vstatus
p1264
I204
sVcomment
p1265
g4
sVcookies
p1266
(lp1267
sVstatusText
p1268
VNo Content
p1269
sVcontent
p1270
(dp1271
VmimeType
p1272
Vtext/html; charset=UTF-8
p1273
sVcomment
p1274
g4
sVsize
p1275
I0
ssVheaders
p1276
(lp1277
sVheadersSize
p1278
I248
sVredirectURL
p1279
g4
sVbodySize
p1280
I0
sVhttpVersion
p1281
VHTTP/1.1
p1282
ssa(dp1283
Vcomment
p1284
g4
sVserverIPAddress
p1285
V216.58.216.196
p1286
sVpageref
p1287
VMexico City
p1288
sVstartedDateTime
p1289
V2017-04-16T08:52:40.030-05:00
p1290
sVcache
p1291
(dp1292
sVrequest
p1293
(dp1294
Vcomment
p1295
g4
sVcookies
p1296
(lp1297
sVurl
p1298
Vhttps://www.google.com/async/ampfp?vet=10ahUKEwiJlN7lj6nTAhVMwYMKHfLbAfEQtZoBCIEC..i&ei=JHfzWInyGcyCjwTyt4eIDw&yv=2&async=_id:ampfp-async,_pms:qs
p1299
sVqueryString
p1300
(lp1301
(dp1302
Vname
p1303
Vvet
p1304
sVvalue
p1305
V10ahUKEwiJlN7lj6nTAhVMwYMKHfLbAfEQtZoBCIEC..i
p1306
sa(dp1307
Vname
p1308
Vei
p1309
sVvalue
p1310
VJHfzWInyGcyCjwTyt4eIDw
p1311
sa(dp1312
Vname
p1313
Vyv
p1314
sVvalue
p1315
g64
sa(dp1316
Vname
p1317
Vasync
p1318
sVvalue
p1319
V_id:ampfp-async,_pms:qs
p1320
sasVheaders
p1321
(lp1322
sVheadersSize
p1323
I662
sVbodySize
p1324
I0
sVmethod
p1325
VGET
p1326
sVhttpVersion
p1327
VHTTP/1.1
p1328
ssVtimings
p1329
(dp1330
Vcomment
p1331
g4
sVreceive
p1332
I0
sVsend
p1333
I0
sVssl
p1334
I-1
sVconnect
p1335
I-1
sVdns
p1336
I-1
sVwait
p1337
I44
sVblocked
p1338
I-1
ssVtime
p1339
I44
sVresponse
p1340
(dp1341
Vstatus
p1342
I200
sVcomment
p1343
g4
sVcookies
p1344
(lp1345
sVstatusText
p1346
VOK
p1347
sVcontent
p1348
(dp1349
VmimeType
p1350
Vtext/html; charset=UTF-8
p1351
sVcomment
p1352
g4
sVsize
p1353
I0
ssVheaders
p1354
(lp1355
sVheadersSize
p1356
I383
sVredirectURL
p1357
g4
sVbodySize
p1358
I4525
sVhttpVersion
p1359
VHTTP/1.1
p1360
ssa(dp1361
Vcomment
p1362
g4
sVserverIPAddress
p1363
V216.58.216.193
p1364
sVpageref
p1365
VMexico City
p1366
sVstartedDateTime
p1367
V2017-04-16T08:52:40.031-05:00
p1368
sVcache
p1369
(dp1370
sVrequest
p1371
(dp1372
Vcomment
p1373
g4
sVcookies
p1374
(lp1375
sVurl
p1376
Vhttps://cdn.ampproject.org/preconnect.gif?0.624586321310369
p1377
sVqueryString
p1378
(lp1379
(dp1380
Vname
p1381
V0.624586321310369
p1382
sVvalue
p1383
g4
sasVheaders
p1384
(lp1385
sVheadersSize
p1386
I374
sVbodySize
p1387
I0
sVmethod
p1388
VGET
p1389
sVhttpVersion
p1390
VHTTP/1.1
p1391
ssVtimings
p1392
(dp1393
Vcomment
p1394
g4
sVreceive
p1395
I0
sVsend
p1396
I0
sVssl
p1397
I-1
sVconnect
p1398
I-1
sVdns
p1399
I-1
sVwait
p1400
I25
sVblocked
p1401
I-1
ssVtime
p1402
I25
sVresponse
p1403
(dp1404
Vstatus
p1405
I200
sVcomment
p1406
g4
sVcookies
p1407
(lp1408
sVstatusText
p1409
VOK
p1410
sVcontent
p1411
(dp1412
VmimeType
p1413
Vimage/gif
p1414
sVcomment
p1415
g4
sVsize
p1416
I0
ssVheaders
p1417
(lp1418
sVheadersSize
p1419
I826
sVredirectURL
p1420
g4
sVbodySize
p1421
I37
sVhttpVersion
p1422
VHTTP/1.1
p1423
ssa(dp1424
Vcomment
p1425
g4
sVserverIPAddress
p1426
V216.58.216.206
p1427
sVpageref
p1428
VMexico City
p1429
sVstartedDateTime
p1430
V2017-04-16T08:52:40.049-05:00
p1431
sVcache
p1432
(dp1433
sVrequest
p1434
(dp1435
Vcomment
p1436
g4
sVcookies
p1437
(lp1438
sVurl
p1439
Vhttps://encrypted-tbn3.gstatic.com/images?q=tbn:ANd9GcQCb25Avt6x96cyrOZjmoJ4Ectc2-J0eFPKT3vCrCOHvMfsSAcRutEDTFDzsQ
p1440
sVqueryString
p1441
(lp1442
(dp1443
Vname
p1444
g721
sVvalue
p1445
Vtbn:ANd9GcQCb25Avt6x96cyrOZjmoJ4Ectc2-J0eFPKT3vCrCOHvMfsSAcRutEDTFDzsQ
p1446
sasVheaders
p1447
(lp1448
sVheadersSize
p1449
I429
sVbodySize
p1450
I0
sVmethod
p1451
VGET
p1452
sVhttpVersion
p1453
VHTTP/1.1
p1454
ssVtimings
p1455
(dp1456
Vcomment
p1457
g4
sVreceive
p1458
I3
sVsend
p1459
I0
sVssl
p1460
I-1
sVconnect
p1461
I-1
sVdns
p1462
I-1
sVwait
p1463
I21
sVblocked
p1464
I-1
ssVtime
p1465
I25
sVresponse
p1466
(dp1467
Vstatus
p1468
I200
sVcomment
p1469
g4
sVcookies
p1470
(lp1471
sVstatusText
p1472
VOK
p1473
sVcontent
p1474
(dp1475
VmimeType
p1476
Vimage/jpeg
p1477
sVcomment
p1478
g4
sVsize
p1479
I0
ssVheaders
p1480
(lp1481
sVheadersSize
p1482
I430
sVredirectURL
p1483
g4
sVbodySize
p1484
I11162
sVhttpVersion
p1485
VHTTP/1.1
p1486
ssa(dp1487
Vcomment
p1488
g4
sVserverIPAddress
p1489
V216.58.216.206
p1490
sVpageref
p1491
VMexico City
p1492
sVstartedDateTime
p1493
V2017-04-16T08:52:40.097-05:00
p1494
sVcache
p1495
(dp1496
sVrequest
p1497
(dp1498
Vcomment
p1499
g4
sVcookies
p1500
(lp1501
sVurl
p1502
Vhttps://encrypted-tbn3.gstatic.com/images?q=tbn:ANd9GcRSx5hS5q9s8Jo-iTqymYuVlLkp99EVuLmhHy3Be2HKf43bVv_oBHSo79RU
p1503
sVqueryString
p1504
(lp1505
(dp1506
Vname
p1507
g721
sVvalue
p1508
Vtbn:ANd9GcRSx5hS5q9s8Jo-iTqymYuVlLkp99EVuLmhHy3Be2HKf43bVv_oBHSo79RU
p1509
sasVheaders
p1510
(lp1511
sVheadersSize
p1512
I427
sVbodySize
p1513
I0
sVmethod
p1514
VGET
p1515
sVhttpVersion
p1516
VHTTP/1.1
p1517
ssVtimings
p1518
(dp1519
Vcomment
p1520
g4
sVreceive
p1521
I1
sVsend
p1522
I6
sVssl
p1523
I22
sVconnect
p1524
I43
sVdns
p1525
I1
sVwait
p1526
I9
sVblocked
p1527
I0
ssVtime
p1528
I61
sVresponse
p1529
(dp1530
Vstatus
p1531
I200
sVcomment
p1532
g4
sVcookies
p1533
(lp1534
sVstatusText
p1535
VOK
p1536
sVcontent
p1537
(dp1538
VmimeType
p1539
Vimage/jpeg
p1540
sVcomment
p1541
g4
sVsize
p1542
I0
ssVheaders
p1543
(lp1544
sVheadersSize
p1545
I429
sVredirectURL
p1546
g4
sVbodySize
p1547
I7913
sVhttpVersion
p1548
VHTTP/1.1
p1549
ssa(dp1550
Vcomment
p1551
g4
sVserverIPAddress
p1552
V216.58.216.206
p1553
sVpageref
p1554
VMexico City
p1555
sVstartedDateTime
p1556
V2017-04-16T08:52:40.104-05:00
p1557
sVcache
p1558
(dp1559
sVrequest
p1560
(dp1561
Vcomment
p1562
g4
sVcookies
p1563
(lp1564
sVurl
p1565
Vhttps://encrypted-tbn3.gstatic.com/images?q=tbn:ANd9GcREETz1-Cm5aXYmyTT7qryV9vz-jMJ3BTSpWbwmEP9OqzY9Ai-W8Rulaogv
p1566
sVqueryString
p1567
(lp1568
(dp1569
Vname
p1570
g721
sVvalue
p1571
Vtbn:ANd9GcREETz1-Cm5aXYmyTT7qryV9vz-jMJ3BTSpWbwmEP9OqzY9Ai-W8Rulaogv
p1572
sasVheaders
p1573
(lp1574
sVheadersSize
p1575
I427
sVbodySize
p1576
I0
sVmethod
p1577
VGET
p1578
sVhttpVersion
p1579
VHTTP/1.1
p1580
ssVtimings
p1581
(dp1582
Vcomment
p1583
g4
sVreceive
p1584
I0
sVsend
p1585
I0
sVssl
p1586
I26
sVconnect
p1587
I50
sVdns
p1588
I1
sVwait
p1589
I25
sVblocked
p1590
I0
ssVtime
p1591
I77
sVresponse
p1592
(dp1593
Vstatus
p1594
I200
sVcomment
p1595
g4
sVcookies
p1596
(lp1597
sVstatusText
p1598
VOK
p1599
sVcontent
p1600
(dp1601
VmimeType
p1602
Vimage/jpeg
p1603
sVcomment
p1604
g4
sVsize
p1605
I0
ssVheaders
p1606
(lp1607
sVheadersSize
p1608
I428
sVredirectURL
p1609
g4
sVbodySize
p1610
I6113
sVhttpVersion
p1611
VHTTP/1.1
p1612
ssa(dp1613
Vcomment
p1614
g4
sVserverIPAddress
p1615
V216.58.216.196
p1616
sVpageref
p1617
VMexico City
p1618
sVstartedDateTime
p1619
V2017-04-16T08:52:40.217-05:00
p1620
sVcache
p1621
(dp1622
sVrequest
p1623
(dp1624
Vcomment
p1625
g4
sVcookies
p1626
(lp1627
sVurl
p1628
Vhttps://www.google.com/async/log_amp_item_set?vet=10ahUKEwjx1fvmj6nTAhUG6oMKHSIiDt0QooQBCAE..i&ei=JHfzWInyGcyCjwTyt4eIDw&yv=2&async=num_items:1,_fmt:jspb
p1629
sVqueryString
p1630
(lp1631
(dp1632
Vname
p1633
Vvet
p1634
sVvalue
p1635
V10ahUKEwjx1fvmj6nTAhUG6oMKHSIiDt0QooQBCAE..i
p1636
sa(dp1637
Vname
p1638
Vei
p1639
sVvalue
p1640
VJHfzWInyGcyCjwTyt4eIDw
p1641
sa(dp1642
Vname
p1643
Vyv
p1644
sVvalue
p1645
g64
sa(dp1646
Vname
p1647
Vasync
p1648
sVvalue
p1649
Vnum_items:1,_fmt:jspb
p1650
sasVheaders
p1651
(lp1652
sVheadersSize
p1653
I670
sVbodySize
p1654
I0
sVmethod
p1655
VGET
p1656
sVhttpVersion
p1657
VHTTP/1.1
p1658
ssVtimings
p1659
(dp1660
Vcomment
p1661
g4
sVreceive
p1662
I0
sVsend
p1663
I0
sVssl
p1664
I-1
sVconnect
p1665
I-1
sVdns
p1666
I-1
sVwait
p1667
I47
sVblocked
p1668
I-1
ssVtime
p1669
I48
sVresponse
p1670
(dp1671
Vstatus
p1672
I200
sVcomment
p1673
g4
sVcookies
p1674
(lp1675
sVstatusText
p1676
VOK
p1677
sVcontent
p1678
(dp1679
VmimeType
p1680
Vapplication/json; charset=UTF-8
p1681
sVcomment
p1682
g4
sVsize
p1683
I0
ssVheaders
p1684
(lp1685
sVheadersSize
p1686
I417
sVredirectURL
p1687
g4
sVbodySize
p1688
I132
sVhttpVersion
p1689
VHTTP/1.1
p1690
ssa(dp1691
Vcomment
p1692
g4
sVserverIPAddress
p1693
V216.58.216.196
p1694
sVpageref
p1695
VMexico City
p1696
sVstartedDateTime
p1697
V2017-04-16T08:52:42.012-05:00
p1698
sVcache
p1699
(dp1700
sVrequest
p1701
(dp1702
Vcomment
p1703
g4
sVcookies
p1704
(lp1705
sVurl
p1706
Vhttps://www.google.com/gen_204?atyp=i&ct=slh&cad=&ei=C3fzWMD8EoewjwScrbe4Dw&m=V&t=C&s=1&v=2&pv=0.8407868215942033&me=1:1492350735625,x:1,V,0,0,1280,944:0,N,1,C3fzWMD8EoewjwScrbe4Dw:0,R,1,24,8,155,1249,678:0,R,1,25,8,155,1249,678:0,R,1,36,8,155,1249,116:0,R,1,48,8,284,1249,40:0,R,1,55,8,399,1249,40:0,R,1,56,24,399,1217,40:0,R,1,61,8,455,1249,20:0,R,1,63,8,483,1249,20:0,R,1,72,8,523,1249,213:0,R,1,73,8,572,1249,164:0,R,1,88,8,736,1249,30:0,R,1,158,24,843,1217,135:2,B,3568:20769,e,U&zx=1492350761994
p1707
sVqueryString
p1708
(lp1709
(dp1710
Vname
p1711
Vatyp
p1712
sVvalue
p1713
g30
sa(dp1714
Vname
p1715
Vct
p1716
sVvalue
p1717
Vslh
p1718
sa(dp1719
Vname
p1720
Vcad
p1721
sVvalue
p1722
g4
sa(dp1723
Vname
p1724
Vei
p1725
sVvalue
p1726
VC3fzWMD8EoewjwScrbe4Dw
p1727
sa(dp1728
Vname
p1729
g47
sVvalue
p1730
g49
sa(dp1731
Vname
p1732
g52
sVvalue
p1733
g54
sa(dp1734
Vname
p1735
g57
sVvalue
p1736
g59
sa(dp1737
Vname
p1738
g62
sVvalue
p1739
g64
sa(dp1740
Vname
p1741
Vpv
p1742
sVvalue
p1743
V0.8407868215942033
p1744
sa(dp1745
Vname
p1746
Vme
p1747
sVvalue
p1748
V1:1492350735625,x:1,V,0,0,1280,944:0,N,1,C3fzWMD8EoewjwScrbe4Dw:0,R,1,24,8,155,1249,678:0,R,1,25,8,155,1249,678:0,R,1,36,8,155,1249,116:0,R,1,48,8,284,1249,40:0,R,1,55,8,399,1249,40:0,R,1,56,24,399,1217,40:0,R,1,61,8,455,1249,20:0,R,1,63,8,483,1249,20:0,R,1,72,8,523,1249,213:0,R,1,73,8,572,1249,164:0,R,1,88,8,736,1249,30:0,R,1,158,24,843,1217,135:2,B,3568:20769,e,U
p1749
sa(dp1750
Vname
p1751
Vzx
p1752
sVvalue
p1753
V1492350761994
p1754
sasVheaders
p1755
(lp1756
sVheadersSize
p1757
I1018
sVbodySize
p1758
I0
sVmethod
p1759
VGET
p1760
sVhttpVersion
p1761
VHTTP/1.1
p1762
ssVtimings
p1763
(dp1764
Vcomment
p1765
g4
sVreceive
p1766
I0
sVsend
p1767
I0
sVssl
p1768
I-1
sVconnect
p1769
I-1
sVdns
p1770
I-1
sVwait
p1771
I36
sVblocked
p1772
I-1
ssVtime
p1773
I36
sVresponse
p1774
(dp1775
Vstatus
p1776
I204
sVcomment
p1777
g4
sVcookies
p1778
(lp1779
sVstatusText
p1780
VNo Content
p1781
sVcontent
p1782
(dp1783
VmimeType
p1784
Vtext/html; charset=UTF-8
p1785
sVcomment
p1786
g4
sVsize
p1787
I0
ssVheaders
p1788
(lp1789
sVheadersSize
p1790
I248
sVredirectURL
p1791
g4
sVbodySize
p1792
I0
sVhttpVersion
p1793
VHTTP/1.1
p1794
ssa(dp1795
Vcomment
p1796
g4
sVserverIPAddress
p1797
V216.58.216.193
p1798
sVpageref
p1799
VMexico City
p1800
sVstartedDateTime
p1801
V2017-04-16T08:52:43.753-05:00
p1802
sVcache
p1803
(dp1804
sVrequest
p1805
(dp1806
Vcomment
p1807
g4
sVcookies
p1808
(lp1809
sVurl
p1810
Vhttps://www-patspulpit-com.cdn.ampproject.org/v/www.patspulpit.com/platform/amp/2017/4/15/15310034/marshawn-lynchs-return-means-raiders-vs-patriots-in-mexico-city-is-a-cant-miss-game?amp_js_v=9
p1811
sVqueryString
p1812
(lp1813
(dp1814
Vname
p1815
Vamp_js_v
p1816
sVvalue
p1817
V9
p1818
sasVheaders
p1819
(lp1820
sVheadersSize
p1821
I598
sVbodySize
p1822
I0
sVmethod
p1823
VGET
p1824
sVhttpVersion
p1825
VHTTP/1.1
p1826
ssVtimings
p1827
(dp1828
Vcomment
p1829
g4
sVreceive
p1830
I0
sVsend
p1831
I0
sVssl
p1832
I3472
sVconnect
p1833
I3486
sVdns
p1834
I38
sVwait
p1835
I726
sVblocked
p1836
I0
ssVtime
p1837
I4252
sVresponse
p1838
(dp1839
Vstatus
p1840
I200
sVcomment
p1841
g4
sVcookies
p1842
(lp1843
sVstatusText
p1844
VOK
p1845
sVcontent
p1846
(dp1847
VmimeType
p1848
Vtext/html
p1849
sVcomment
p1850
g4
sVsize
p1851
I0
ssVheaders
p1852
(lp1853
sVheadersSize
p1854
I860
sVredirectURL
p1855
g4
sVbodySize
p1856
I10733
sVhttpVersion
p1857
VHTTP/1.1
p1858
ssa(dp1859
Vcomment
p1860
g4
sVserverIPAddress
p1861
V216.58.216.193
p1862
sVpageref
p1863
VMexico City
p1864
sVstartedDateTime
p1865
V2017-04-16T08:52:50.664-05:00
p1866
sVcache
p1867
(dp1868
sVrequest
p1869
(dp1870
Vcomment
p1871
g4
sVcookies
p1872
(lp1873
sVurl
p1874
Vhttps://cdn0-vox--cdn-com.cdn.ampproject.org/i/s/cdn0.vox-cdn.com/thumbor/U74ZZVo7AXQus7EXIbjKbRmnNnw=/0x176:3142x2271/1310x873/cdn0.vox-cdn.com/uploads/chorus_image/image/54269497/624487538.0.jpg
p1875
sVqueryString
p1876
(lp1877
sVheaders
p1878
(lp1879
sVheadersSize
p1880
I681
sVbodySize
p1881
I0
sVmethod
p1882
VGET
p1883
sVhttpVersion
p1884
VHTTP/1.1
p1885
ssVtimings
p1886
(dp1887
Vcomment
p1888
g4
sVreceive
p1889
I315
sVsend
p1890
I0
sVssl
p1891
I1858
sVconnect
p1892
I1876
sVdns
p1893
I32
sVwait
p1894
I214
sVblocked
p1895
I0
ssVtime
p1896
I2439
sVresponse
p1897
(dp1898
Vstatus
p1899
I200
sVcomment
p1900
g4
sVcookies
p1901
(lp1902
sVstatusText
p1903
VOK
p1904
sVcontent
p1905
(dp1906
VmimeType
p1907
Vimage/jpeg
p1908
sVcomment
p1909
g4
sVsize
p1910
I0
ssVheaders
p1911
(lp1912
sVheadersSize
p1913
I851
sVredirectURL
p1914
g4
sVbodySize
p1915
I142859
sVhttpVersion
p1916
VHTTP/1.1
p1917
ssa(dp1918
Vcomment
p1919
g4
sVserverIPAddress
p1920
V216.58.216.193
p1921
sVpageref
p1922
VMexico City
p1923
sVstartedDateTime
p1924
V2017-04-16T08:52:50.835-05:00
p1925
sVcache
p1926
(dp1927
sVrequest
p1928
(dp1929
Vcomment
p1930
g4
sVcookies
p1931
(lp1932
sVurl
p1933
Vhttps://cdn1-vox--cdn-com.cdn.ampproject.org/ii/w100/s/cdn1.vox-cdn.com/uploads/blog/sbnu_logo_minimal/82/large_patspulpit.com.minimal.png
p1934
sVqueryString
p1935
(lp1936
sVheaders
p1937
(lp1938
sVheadersSize
p1939
I623
sVbodySize
p1940
I0
sVmethod
p1941
VGET
p1942
sVhttpVersion
p1943
VHTTP/1.1
p1944
ssVtimings
p1945
(dp1946
Vcomment
p1947
g4
sVreceive
p1948
I4
sVsend
p1949
I0
sVssl
p1950
I2028
sVconnect
p1951
I2046
sVdns
p1952
I36
sVwait
p1953
I55
sVblocked
p1954
I0
ssVtime
p1955
I2143
sVresponse
p1956
(dp1957
Vstatus
p1958
I200
sVcomment
p1959
g4
sVcookies
p1960
(lp1961
sVstatusText
p1962
VOK
p1963
sVcontent
p1964
(dp1965
VmimeType
p1966
Vimage/png
p1967
sVcomment
p1968
g4
sVsize
p1969
I0
ssVheaders
p1970
(lp1971
sVheadersSize
p1972
I824
sVredirectURL
p1973
g4
sVbodySize
p1974
I6544
sVhttpVersion
p1975
VHTTP/1.1
p1976
ssa(dp1977
Vcomment
p1978
g4
sVserverIPAddress
p1979
V216.58.216.196
p1980
sVpageref
p1981
VMexico City
p1982
sVstartedDateTime
p1983
V2017-04-16T08:52:51.359-05:00
p1984
sVcache
p1985
(dp1986
sVrequest
p1987
(dp1988
Vcomment
p1989
g4
sVcookies
p1990
(lp1991
sVurl
p1992
Vhttps://www.google.com/gen_204?s=web&atyp=csi&ei=JHfzWInyGcyCjwTyt4eIDw&imc=19&imn=19&imp=9&adh=&xjs=init.52.15.sb_mob.40.dvl.4.vs.2.trex.2.c.1&ima=3&rt=prt.1519,iml.2054,xjsls.1520,qiml.1741,dcl.1609,xjses.1676,xjsee.1878,xjs.1879,ol.13778,aft.2054,wsrt.139,cst.0,dnst.0,rqst.1587,rspt.1473,rqstt.13,unt.9,cstt.9,dit.1675
p1993
sVqueryString
p1994
(lp1995
(dp1996
Vname
p1997
g57
sVvalue
p1998
Vweb
p1999
sa(dp2000
Vname
p2001
Vatyp
p2002
sVvalue
p2003
Vcsi
p2004
sa(dp2005
Vname
p2006
Vei
p2007
sVvalue
p2008
VJHfzWInyGcyCjwTyt4eIDw
p2009
sa(dp2010
Vname
p2011
Vimc
p2012
sVvalue
p2013
V19
p2014
sa(dp2015
Vname
p2016
Vimn
p2017
sVvalue
p2018
V19
p2019
sa(dp2020
Vname
p2021
Vimp
p2022
sVvalue
p2023
g1818
sa(dp2024
Vname
p2025
Vadh
p2026
sVvalue
p2027
g4
sa(dp2028
Vname
p2029
Vxjs
p2030
sVvalue
p2031
Vinit.52.15.sb_mob.40.dvl.4.vs.2.trex.2.c.1
p2032
sa(dp2033
Vname
p2034
Vima
p2035
sVvalue
p2036
g974
sa(dp2037
Vname
p2038
Vrt
p2039
sVvalue
p2040
Vprt.1519,iml.2054,xjsls.1520,qiml.1741,dcl.1609,xjses.1676,xjsee.1878,xjs.1879,ol.13778,aft.2054,wsrt.139,cst.0,dnst.0,rqst.1587,rspt.1473,rqstt.13,unt.9,cstt.9,dit.1675
p2041
sasVheaders
p2042
(lp2043
sVheadersSize
p2044
I839
sVbodySize
p2045
I0
sVmethod
p2046
VGET
p2047
sVhttpVersion
p2048
VHTTP/1.1
p2049
ssVtimings
p2050
(dp2051
Vcomment
p2052
g4
sVreceive
p2053
I0
sVsend
p2054
I0
sVssl
p2055
I-1
sVconnect
p2056
I-1
sVdns
p2057
I-1
sVwait
p2058
I66
sVblocked
p2059
I-1
ssVtime
p2060
I66
sVresponse
p2061
(dp2062
Vstatus
p2063
I204
sVcomment
p2064
g4
sVcookies
p2065
(lp2066
sVstatusText
p2067
VNo Content
p2068
sVcontent
p2069
(dp2070
VmimeType
p2071
Vtext/html; charset=UTF-8
p2072
sVcomment
p2073
g4
sVsize
p2074
I0
ssVheaders
p2075
(lp2076
sVheadersSize
p2077
I248
sVredirectURL
p2078
g4
sVbodySize
p2079
I0
sVhttpVersion
p2080
VHTTP/1.1
p2081
ssasVversion
p2082
V1.2
p2083
sVpages
p2084
(lp2085
(dp2086
VpageTimings
p2087
(dp2088
Vcomment
p2089
g4
ssVcomment
p2090
g4
sVtitle
p2091
VMexico City
p2092
sVid
p2093
VMexico City
p2094
sVstartedDateTime
p2095
V2017-04-16T08:52:36.388-05:00
p2096
sasVcreator
p2097
(dp2098
Vcomment
p2099
g4
sVversion
p2100
V2.1.4
p2101
sVname
p2102
VBrowserMob Proxy
p2103
sss.