(dp0
Vlog
p1
(dp2
Vcomment
p3
V
p4
sVentries
p5
(lp6
(dp7
Vcomment
p8
g4
sVserverIPAddress
p9
V216.58.216.196
p10
sVpageref
p11
VZika Virus
p12
sVstartedDateTime
p13
V2017-04-16T08:00:16.486-05:00
p14
sVcache
p15
(dp16
sVrequest
p17
(dp18
Vcomment
p19
g4
sVcookies
p20
(lp21
sVurl
p22
Vhttps://www.google.com/gen_204?atyp=i&ct=slh&cad=&ei=0GrzWNzCNqrZjwTErYPQAw&m=V&t=C&s=1&v=2&pv=0.616845370002619&me=1:1492347603456,x:1,V,0,0,1280,944:0,N,1,0GrzWNzCNqrZjwTErYPQAw:0,R,1,24,8,155,1249,700:0,R,1,31,8,337,1249,332:0,R,1,32,0,338,1265,351:0,R,1,63,8,669,1249,186:0,R,1,124,8,865,1249,421:0,R,1,125,8,865,1249,421:0,R,1,126,0,909,1265,397:2,B,3877:13025,e,U&zx=1492347616485
p23
sVqueryString
p24
(lp25
(dp26
Vname
p27
Vatyp
p28
sVvalue
p29
Vi
p30
sa(dp31
Vname
p32
Vct
p33
sVvalue
p34
Vslh
p35
sa(dp36
Vname
p37
Vcad
p38
sVvalue
p39
g4
sa(dp40
Vname
p41
Vei
p42
sVvalue
p43
V0GrzWNzCNqrZjwTErYPQAw
p44
sa(dp45
Vname
p46
Vm
p47
sVvalue
p48
VV
p49
sa(dp50
Vname
p51
Vt
p52
sVvalue
p53
VC
p54
sa(dp55
Vname
p56
Vs
p57
sVvalue
p58
V1
p59
sa(dp60
Vname
p61
Vv
p62
sVvalue
p63
V2
p64
sa(dp65
Vname
p66
Vpv
p67
sVvalue
p68
V0.616845370002619
p69
sa(dp70
Vname
p71
Vme
p72
sVvalue
p73
V1:1492347603456,x:1,V,0,0,1280,944:0,N,1,0GrzWNzCNqrZjwTErYPQAw:0,R,1,24,8,155,1249,700:0,R,1,31,8,337,1249,332:0,R,1,32,0,338,1265,351:0,R,1,63,8,669,1249,186:0,R,1,124,8,865,1249,421:0,R,1,125,8,865,1249,421:0,R,1,126,0,909,1265,397:2,B,3877:13025,e,U
p74
sa(dp75
Vname
p76
Vzx
p77
sVvalue
p78
V1492347616485
p79
sasVheaders
p80
(lp81
sVheadersSize
p82
I903
sVbodySize
p83
I0
sVmethod
p84
VGET
p85
sVhttpVersion
p86
VHTTP/1.1
p87
ssVtimings
p88
(dp89
Vcomment
p90
g4
sVreceive
p91
I0
sVsend
p92
I0
sVssl
p93
I-1
sVconnect
p94
I-1
sVdns
p95
I-1
sVwait
p96
I0
sVblocked
p97
I-1
ssVtime
p98
I0
sVresponse
p99
(dp100
Vstatus
p101
I0
sVcomment
p102
g4
sVcookies
p103
(lp104
sV_error
p105
VNo response received
p106
sVstatusText
p107
g4
sVcontent
p108
(dp109
VmimeType
p110
g4
sVcomment
p111
g4
sVsize
p112
I0
ssVheaders
p113
(lp114
sVheadersSize
p115
I-1
sVredirectURL
p116
g4
sVbodySize
p117
I-1
sVhttpVersion
p118
Vunknown
p119
ssa(dp120
Vcomment
p121
g4
sVserverIPAddress
p122
V216.58.216.196
p123
sVpageref
p124
VZika Virus
p125
sVstartedDateTime
p126
V2017-04-16T08:00:16.490-05:00
p127
sVcache
p128
(dp129
sVrequest
p130
(dp131
Vcomment
p132
g4
sVcookies
p133
(lp134
sVurl
p135
Vhttp://www.google.com/
p136
sVqueryString
p137
(lp138
sVheaders
p139
(lp140
sVheadersSize
p141
I613
sVbodySize
p142
I0
sVmethod
p143
VGET
p144
sVhttpVersion
p145
VHTTP/1.1
p146
ssVtimings
p147
(dp148
Vcomment
p149
g4
sVreceive
p150
I0
sVsend
p151
I0
sVssl
p152
I-1
sVconnect
p153
I-1
sVdns
p154
I-1
sVwait
p155
I65
sVblocked
p156
I-1
ssVtime
p157
I65
sVresponse
p158
(dp159
Vstatus
p160
I302
sVcomment
p161
g4
sVcookies
p162
(lp163
sVstatusText
p164
VFound
p165
sVcontent
p166
(dp167
VmimeType
p168
Vtext/html; charset=UTF-8
p169
sVcomment
p170
g4
sVsize
p171
I0
ssVheaders
p172
(lp173
sVheadersSize
p174
I609
sVredirectURL
p175
Vhttps://www.google.com/?gws_rd=ssl
p176
sVbodySize
p177
I231
sVhttpVersion
p178
VHTTP/1.1
p179
ssa(dp180
Vcomment
p181
g4
sVserverIPAddress
p182
V216.58.216.196
p183
sVpageref
p184
VZika Virus
p185
sVstartedDateTime
p186
V2017-04-16T08:00:16.559-05:00
p187
sVcache
p188
(dp189
sVrequest
p190
(dp191
Vcomment
p192
g4
sVcookies
p193
(lp194
sVurl
p195
Vhttps://www.google.com/?gws_rd=ssl
p196
sVqueryString
p197
(lp198
(dp199
Vname
p200
Vgws_rd
p201
sVvalue
p202
Vssl
p203
sasVheaders
p204
(lp205
sVheadersSize
p206
I607
sVbodySize
p207
I0
sVmethod
p208
VGET
p209
sVhttpVersion
p210
VHTTP/1.1
p211
ssVtimings
p212
(dp213
Vcomment
p214
g4
sVreceive
p215
I23
sVsend
p216
I0
sVssl
p217
I-1
sVconnect
p218
I-1
sVdns
p219
I-1
sVwait
p220
I66
sVblocked
p221
I-1
ssVtime
p222
I90
sVresponse
p223
(dp224
Vstatus
p225
I200
sVcomment
p226
g4
sVcookies
p227
(lp228
sVstatusText
p229
VOK
p230
sVcontent
p231
(dp232
VmimeType
p233
Vtext/html; charset=UTF-8
p234
sVcomment
p235
g4
sVsize
p236
I0
ssVheaders
p237
(lp238
sVheadersSize
p239
I721
sVredirectURL
p240
g4
sVbodySize
p241
I34288
sVhttpVersion
p242
VHTTP/1.1
p243
ssa(dp244
Vcomment
p245
g4
sVserverIPAddress
p246
V216.58.216.196
p247
sVpageref
p248
VZika Virus
p249
sVstartedDateTime
p250
V2017-04-16T08:00:16.798-05:00
p251
sVcache
p252
(dp253
sVrequest
p254
(dp255
Vcomment
p256
g4
sVcookies
p257
(lp258
sVurl
p259
Vhttps://www.google.com/gen_204?s=mobilewebhp&atyp=csi&ei=32rzWPSPI6XujwSO-6zYBA&imc=1&imn=1&imp=0&adh=&xjs=init.19.12.sb_mob.15.dvl.3.mbsf.1.TG8rFw.0.c.0&ima=1&rt=xjsls.8,prt.9,iml.9,dcl.28,xjses.61,xjsee.127,xjs.128,ol.152,aft.9,wsrt.158,cst.0,dnst.0,rqst.91,rspt.24,rqstt.74,unt.73,cstt.73,dit.179
p260
sVqueryString
p261
(lp262
(dp263
Vname
p264
g57
sVvalue
p265
Vmobilewebhp
p266
sa(dp267
Vname
p268
Vatyp
p269
sVvalue
p270
Vcsi
p271
sa(dp272
Vname
p273
Vei
p274
sVvalue
p275
V32rzWPSPI6XujwSO-6zYBA
p276
sa(dp277
Vname
p278
Vimc
p279
sVvalue
p280
g59
sa(dp281
Vname
p282
Vimn
p283
sVvalue
p284
g59
sa(dp285
Vname
p286
Vimp
p287
sVvalue
p288
V0
p289
sa(dp290
Vname
p291
Vadh
p292
sVvalue
p293
g4
sa(dp294
Vname
p295
Vxjs
p296
sVvalue
p297
Vinit.19.12.sb_mob.15.dvl.3.mbsf.1.TG8rFw.0.c.0
p298
sa(dp299
Vname
p300
Vima
p301
sVvalue
p302
g59
sa(dp303
Vname
p304
Vrt
p305
sVvalue
p306
Vxjsls.8,prt.9,iml.9,dcl.28,xjses.61,xjsee.127,xjs.128,ol.152,aft.9,wsrt.158,cst.0,dnst.0,rqst.91,rspt.24,rqstt.74,unt.73,cstt.73,dit.179
p307
sasVheaders
p308
(lp309
sVheadersSize
p310
I827
sVbodySize
p311
I0
sVmethod
p312
VGET
p313
sVhttpVersion
p314
VHTTP/1.1
p315
ssVtimings
p316
(dp317
Vcomment
p318
g4
sVreceive
p319
I0
sVsend
p320
I0
sVssl
p321
I-1
sVconnect
p322
I-1
sVdns
p323
I-1
sVwait
p324
I26
sVblocked
p325
I-1
ssVtime
p326
I26
sVresponse
p327
(dp328
Vstatus
p329
I204
sVcomment
p330
g4
sVcookies
p331
(lp332
sVstatusText
p333
VNo Content
p334
sVcontent
p335
(dp336
VmimeType
p337
Vtext/html; charset=UTF-8
p338
sVcomment
p339
g4
sVsize
p340
I0
ssVheaders
p341
(lp342
sVheadersSize
p343
I248
sVredirectURL
p344
g4
sVbodySize
p345
I0
sVhttpVersion
p346
VHTTP/1.1
p347
ssa(dp348
Vcomment
p349
g4
sVserverIPAddress
p350
V216.58.216.196
p351
sVpageref
p352
VZika Virus
p353
sVstartedDateTime
p354
V2017-04-16T08:00:16.929-05:00
p355
sVcache
p356
(dp357
sVrequest
p358
(dp359
Vcomment
p360
g4
sVcookies
p361
(lp362
sVurl
p363
Vhttps://www.google.com/complete/search?client=mobile-gws-hp&hl=en&gs_rn=64&gs_ri=mobile-gws-hp&sla=1&gm=602&cp=0&gs_id=1&xhr=t&q=Z&tch=1&ech=1&psi=32rzWPSPI6XujwSO-6zYBA.1492347616750.1
p364
sVqueryString
p365
(lp366
(dp367
Vname
p368
Vclient
p369
sVvalue
p370
Vmobile-gws-hp
p371
sa(dp372
Vname
p373
Vhl
p374
sVvalue
p375
Ven
p376
sa(dp377
Vname
p378
Vgs_rn
p379
sVvalue
p380
V64
p381
sa(dp382
Vname
p383
Vgs_ri
p384
sVvalue
p385
Vmobile-gws-hp
p386
sa(dp387
Vname
p388
Vsla
p389
sVvalue
p390
g59
sa(dp391
Vname
p392
Vgm
p393
sVvalue
p394
V602
p395
sa(dp396
Vname
p397
Vcp
p398
sVvalue
p399
g289
sa(dp400
Vname
p401
Vgs_id
p402
sVvalue
p403
g59
sa(dp404
Vname
p405
Vxhr
p406
sVvalue
p407
g52
sa(dp408
Vname
p409
Vq
p410
sVvalue
p411
VZ
p412
sa(dp413
Vname
p414
Vtch
p415
sVvalue
p416
g59
sa(dp417
Vname
p418
Vech
p419
sVvalue
p420
g59
sa(dp421
Vname
p422
Vpsi
p423
sVvalue
p424
V32rzWPSPI6XujwSO-6zYBA.1492347616750.1
p425
sasVheaders
p426
(lp427
sVheadersSize
p428
I713
sVbodySize
p429
I0
sVmethod
p430
VGET
p431
sVhttpVersion
p432
VHTTP/1.1
p433
ssVtimings
p434
(dp435
Vcomment
p436
g4
sVreceive
p437
I0
sVsend
p438
I0
sVssl
p439
I-1
sVconnect
p440
I-1
sVdns
p441
I-1
sVwait
p442
I0
sVblocked
p443
I-1
ssVtime
p444
I0
sVresponse
p445
(dp446
Vstatus
p447
I0
sVcomment
p448
g4
sVcookies
p449
(lp450
sV_error
p451
VNo response received
p452
sVstatusText
p453
g4
sVcontent
p454
(dp455
VmimeType
p456
g4
sVcomment
p457
g4
sVsize
p458
I0
ssVheaders
p459
(lp460
sVheadersSize
p461
I-1
sVredirectURL
p462
g4
sVbodySize
p463
I-1
sVhttpVersion
p464
Vunknown
p465
ssa(dp466
Vcomment
p467
g4
sVserverIPAddress
p468
V216.58.216.196
p469
sVpageref
p470
VZika Virus
p471
sVstartedDateTime
p472
V2017-04-16T08:00:16.975-05:00
p473
sVcache
p474
(dp475
sVrequest
p476
(dp477
Vcomment
p478
g4
sVcookies
p479
(lp480
sVurl
p481
Vhttps://www.google.com/search?site=&source=hp&ei=32rzWPSPI6XujwSO-6zYBA&q=Zika+Virus&oq=Zika+Virus&gs_l=mobile-gws-hp.3...162.185.0.206.10.1.0.0.0.0.0.0..0.0....0...1c.1.64.mobile-gws-hp..10.0.0.oP6wq0y0SxU
p482
sVqueryString
p483
(lp484
(dp485
Vname
p486
Vsite
p487
sVvalue
p488
g4
sa(dp489
Vname
p490
Vsource
p491
sVvalue
p492
Vhp
p493
sa(dp494
Vname
p495
Vei
p496
sVvalue
p497
V32rzWPSPI6XujwSO-6zYBA
p498
sa(dp499
Vname
p500
g410
sVvalue
p501
VZika Virus
p502
sa(dp503
Vname
p504
Voq
p505
sVvalue
p506
VZika Virus
p507
sa(dp508
Vname
p509
Vgs_l
p510
sVvalue
p511
Vmobile-gws-hp.3...162.185.0.206.10.1.0.0.0.0.0.0..0.0....0...1c.1.64.mobile-gws-hp..10.0.0.oP6wq0y0SxU
p512
sasVheaders
p513
(lp514
sVheadersSize
p515
I824
sVbodySize
p516
I0
sVmethod
p517
VGET
p518
sVhttpVersion
p519
VHTTP/1.1
p520
ssVtimings
p521
(dp522
Vcomment
p523
g4
sVreceive
p524
I638
sVsend
p525
I0
sVssl
p526
I-1
sVconnect
p527
I-1
sVdns
p528
I-1
sVwait
p529
I99
sVblocked
p530
I-1
ssVtime
p531
I737
sVresponse
p532
(dp533
Vstatus
p534
I200
sVcomment
p535
g4
sVcookies
p536
(lp537
sVstatusText
p538
VOK
p539
sVcontent
p540
(dp541
VmimeType
p542
Vtext/html; charset=UTF-8
p543
sVcomment
p544
g4
sVsize
p545
I0
ssVheaders
p546
(lp547
sVheadersSize
p548
I363
sVredirectURL
p549
g4
sVbodySize
p550
I97910
sVhttpVersion
p551
VHTTP/1.1
p552
ssa(dp553
Vcomment
p554
g4
sVserverIPAddress
p555
V216.58.216.196
p556
sVpageref
p557
VZika Virus
p558
sVstartedDateTime
p559
V2017-04-16T08:00:17.919-05:00
p560
sVcache
p561
(dp562
sVrequest
p563
(dp564
Vcomment
p565
g4
sVcookies
p566
(lp567
sVurl
p568
Vhttps://www.google.com/xjs/_/js/k=xjs.qs.en_US.pCBXVCvTH3s.O/m=syl,syj,syn,em3,em8,em6,em7,sym,aa,abd,sy2g,sy2k,sy29,sy2j,sy2d,sy2a,sy2c,sy2f,sy2l,sy2m,sy2n,emd,async,sybn,sybi,sybo,sy1f,sy45,sy46,sy9w,sybk,sybj,sybp,sy1g,sy30,sy47,sybm,sybl,sybq,sy1h,sybh,dvl,syep,foot,ipv6,sy32,emj,shm,sy5g,sy5i,sy5k,sykh,tl,sy2x,sy2y,sy2t,sy38,em12,vs,sy5j,sy5h,sy6u,sy66,sy67,sy7d,sy7j,sy4u,sy69,sy89,sy7e,sykk,sykl,tnv,bct,sy23,sy9m,sy24,sy9n,hrh,sy4d,sy2u,sy4f,sy4c,sy4e,sy4b,sy6w,shrb,sy4g,syd7,dgm,sy1y,syf5,sy99,syf4,sy26,syfc,syfn,syf7,syff,sy1i,sy22,sy6i,sy68,sy8d,sy9b,syf6,syfl,syfr,syfq,sy25,syfg,sy1j,sy4q,sy5o,sy5r,sy6j,sy6n,sy6p,sy8h,syc7,syc8,syfb,syfj,syfs,syft,syg3,syg5,syg7,emb,em9,ema,emn,emo,syg4,syg6,ivg,sy91,syby,hrkc,sy5x,qif,sy6y,sycu,d3l,irq,syj7,syj8,syj2,syjc,syj6,syj3,syjg,syjh,syje,syjd,syjk,syji,syjf,syj0,emr,ems,emt,emu,emv,emx,emy,emz,em10,em11,udlg,sy5z,atn,sy31,sya3,sy4h,sya2,sy4i,sya1,sya4,ampfp/am=gCP4LtMEBXQA2RUaq_oFBISzAFA/rt=j/d=0/t=zcms/rs=ACT90oFwm4NZCwIcuuiqmthdlECdBzkhRA
p569
sVqueryString
p570
(lp571
sVheaders
p572
(lp573
sVheadersSize
p574
I1525
sVbodySize
p575
I0
sVmethod
p576
VGET
p577
sVhttpVersion
p578
VHTTP/1.1
p579
ssVtimings
p580
(dp581
Vcomment
p582
g4
sVreceive
p583
I33
sVsend
p584
I0
sVssl
p585
I-1
sVconnect
p586
I-1
sVdns
p587
I-1
sVwait
p588
I13
sVblocked
p589
I-1
ssVtime
p590
I47
sVresponse
p591
(dp592
Vstatus
p593
I200
sVcomment
p594
g4
sVcookies
p595
(lp596
sVstatusText
p597
VOK
p598
sVcontent
p599
(dp600
VmimeType
p601
Vtext/javascript; charset=UTF-8
p602
sVcomment
p603
g4
sVsize
p604
I0
ssVheaders
p605
(lp606
sVheadersSize
p607
I465
sVredirectURL
p608
g4
sVbodySize
p609
I107786
sVhttpVersion
p610
VHTTP/1.1
p611
ssa(dp612
Vcomment
p613
g4
sVserverIPAddress
p614
V172.217.6.3
p615
sVpageref
p616
VZika Virus
p617
sVstartedDateTime
p618
V2017-04-16T08:00:17.925-05:00
p619
sVcache
p620
(dp621
sVrequest
p622
(dp623
Vcomment
p624
g4
sVcookies
p625
(lp626
sVurl
p627
Vhttps://www.gstatic.com/images/icons/material/system/2x/arrow_forward_grey600_24dp.png
p628
sVqueryString
p629
(lp630
sVheaders
p631
(lp632
sVheadersSize
p633
I401
sVbodySize
p634
I0
sVmethod
p635
VGET
p636
sVhttpVersion
p637
VHTTP/1.1
p638
ssVtimings
p639
(dp640
Vcomment
p641
g4
sVreceive
p642
I0
sVsend
p643
I0
sVssl
p644
I-1
sVconnect
p645
I-1
sVdns
p646
I-1
sVwait
p647
I16
sVblocked
p648
I-1
ssVtime
p649
I16
sVresponse
p650
(dp651
Vstatus
p652
I200
sVcomment
p653
g4
sVcookies
p654
(lp655
sVstatusText
p656
VOK
p657
sVcontent
p658
(dp659
VmimeType
p660
Vimage/png
p661
sVcomment
p662
g4
sVsize
p663
I0
ssVheaders
p664
(lp665
sVheadersSize
p666
I408
sVredirectURL
p667
g4
sVbodySize
p668
I163
sVhttpVersion
p669
VHTTP/1.1
p670
ssa(dp671
Vcomment
p672
g4
sVserverIPAddress
p673
V216.58.216.196
p674
sVpageref
p675
VZika Virus
p676
sVstartedDateTime
p677
V2017-04-16T08:00:18.089-05:00
p678
sVcache
p679
(dp680
sVrequest
p681
(dp682
Vcomment
p683
g4
sVcookies
p684
(lp685
sVurl
p686
Vhttps://www.google.com/async/irc?vet=10ahUKEwi556KMhKnTAhXJ24MKHd-eBvMQo0EIrwE..i&ved=0ahUKEwi556KMhKnTAhXJ24MKHd-eBvMQo0EIrwE&ei=4GrzWLl3ybePBN-9mpgP&yv=2&async=iu:1,ved:0ahUKEwi556KMhKnTAhXJ24MKHd-eBvMQo0EIrwE,_id:irc_async,_pms:qs
p687
sVqueryString
p688
(lp689
(dp690
Vname
p691
Vvet
p692
sVvalue
p693
V10ahUKEwi556KMhKnTAhXJ24MKHd-eBvMQo0EIrwE..i
p694
sa(dp695
Vname
p696
Vved
p697
sVvalue
p698
V0ahUKEwi556KMhKnTAhXJ24MKHd-eBvMQo0EIrwE
p699
sa(dp700
Vname
p701
Vei
p702
sVvalue
p703
V4GrzWLl3ybePBN-9mpgP
p704
sa(dp705
Vname
p706
Vyv
p707
sVvalue
p708
g64
sa(dp709
Vname
p710
Vasync
p711
sVvalue
p712
Viu:1,ved:0ahUKEwi556KMhKnTAhXJ24MKHd-eBvMQo0EIrwE,_id:irc_async,_pms:qs
p713
sasVheaders
p714
(lp715
sVheadersSize
p716
I750
sVbodySize
p717
I0
sVmethod
p718
VGET
p719
sVhttpVersion
p720
VHTTP/1.1
p721
ssVtimings
p722
(dp723
Vcomment
p724
g4
sVreceive
p725
I3
sVsend
p726
I0
sVssl
p727
I-1
sVconnect
p728
I-1
sVdns
p729
I-1
sVwait
p730
I39
sVblocked
p731
I-1
ssVtime
p732
I43
sVresponse
p733
(dp734
Vstatus
p735
I200
sVcomment
p736
g4
sVcookies
p737
(lp738
sVstatusText
p739
VOK
p740
sVcontent
p741
(dp742
VmimeType
p743
Vtext/html; charset=UTF-8
p744
sVcomment
p745
g4
sVsize
p746
I0
ssVheaders
p747
(lp748
sVheadersSize
p749
I383
sVredirectURL
p750
g4
sVbodySize
p751
I7790
sVhttpVersion
p752
VHTTP/1.1
p753
ssa(dp754
Vcomment
p755
g4
sVserverIPAddress
p756
V216.58.216.196
p757
sVpageref
p758
VZika Virus
p759
sVstartedDateTime
p760
V2017-04-16T08:00:18.117-05:00
p761
sVcache
p762
(dp763
sVrequest
p764
(dp765
Vcomment
p766
g4
sVcookies
p767
(lp768
sVurl
p769
Vhttps://www.google.com/async/ampfp?vet=10ahUKEwi556KMhKnTAhXJ24MKHd-eBvMQtZoBCK0B..i&ei=4GrzWLl3ybePBN-9mpgP&yv=2&async=_id:ampfp-async,_pms:qs
p770
sVqueryString
p771
(lp772
(dp773
Vname
p774
Vvet
p775
sVvalue
p776
V10ahUKEwi556KMhKnTAhXJ24MKHd-eBvMQtZoBCK0B..i
p777
sa(dp778
Vname
p779
Vei
p780
sVvalue
p781
V4GrzWLl3ybePBN-9mpgP
p782
sa(dp783
Vname
p784
Vyv
p785
sVvalue
p786
g64
sa(dp787
Vname
p788
Vasync
p789
sVvalue
p790
V_id:ampfp-async,_pms:qs
p791
sasVheaders
p792
(lp793
sVheadersSize
p794
I660
sVbodySize
p795
I0
sVmethod
p796
VGET
p797
sVhttpVersion
p798
VHTTP/1.1
p799
ssVtimings
p800
(dp801
Vcomment
p802
g4
sVreceive
p803
I1
sVsend
p804
I0
sVssl
p805
I-1
sVconnect
p806
I-1
sVdns
p807
I-1
sVwait
p808
I43
sVblocked
p809
I-1
ssVtime
p810
I45
sVresponse
p811
(dp812
Vstatus
p813
I200
sVcomment
p814
g4
sVcookies
p815
(lp816
sVstatusText
p817
VOK
p818
sVcontent
p819
(dp820
VmimeType
p821
Vtext/html; charset=UTF-8
p822
sVcomment
p823
g4
sVsize
p824
I0
ssVheaders
p825
(lp826
sVheadersSize
p827
I383
sVredirectURL
p828
g4
sVbodySize
p829
I4525
sVhttpVersion
p830
VHTTP/1.1
p831
ssa(dp832
Vcomment
p833
g4
sVserverIPAddress
p834
V216.58.216.193
p835
sVpageref
p836
VZika Virus
p837
sVstartedDateTime
p838
V2017-04-16T08:00:18.117-05:00
p839
sVcache
p840
(dp841
sVrequest
p842
(dp843
Vcomment
p844
g4
sVcookies
p845
(lp846
sVurl
p847
Vhttps://cdn.ampproject.org/preconnect.gif?0.6314575863905862
p848
sVqueryString
p849
(lp850
(dp851
Vname
p852
V0.6314575863905862
p853
sVvalue
p854
g4
sasVheaders
p855
(lp856
sVheadersSize
p857
I375
sVbodySize
p858
I0
sVmethod
p859
VGET
p860
sVhttpVersion
p861
VHTTP/1.1
p862
ssVtimings
p863
(dp864
Vcomment
p865
g4
sVreceive
p866
I0
sVsend
p867
I0
sVssl
p868
I-1
sVconnect
p869
I-1
sVdns
p870
I-1
sVwait
p871
I38
sVblocked
p872
I-1
ssVtime
p873
I38
sVresponse
p874
(dp875
Vstatus
p876
I200
sVcomment
p877
g4
sVcookies
p878
(lp879
sVstatusText
p880
VOK
p881
sVcontent
p882
(dp883
VmimeType
p884
Vimage/gif
p885
sVcomment
p886
g4
sVsize
p887
I0
ssVheaders
p888
(lp889
sVheadersSize
p890
I826
sVredirectURL
p891
g4
sVbodySize
p892
I37
sVhttpVersion
p893
VHTTP/1.1
p894
ssa(dp895
Vcomment
p896
g4
sVserverIPAddress
p897
V216.58.216.196
p898
sVpageref
p899
VZika Virus
p900
sVstartedDateTime
p901
V2017-04-16T08:00:18.174-05:00
p902
sVcache
p903
(dp904
sVrequest
p905
(dp906
Vcomment
p907
g4
sVcookies
p908
(lp909
sVurl
p910
Vhttps://www.google.com/xjs/_/js/k=xjs.qs.en_US.pCBXVCvTH3s.O/m=sy6k,syi2,syi5,syi4,fpv,sy48,sy3a,sy3c,sy5b,sy4x,sy4z,sy56,sy4y,sy5d,sy8e,sya8,sy5e,sya6,sya7,sya9,amp,sp/am=gCP4LtMEBXQA2RUaq_oFBISzAFA/rt=j/d=0/t=zcms/rs=ACT90oFwm4NZCwIcuuiqmthdlECdBzkhRA
p911
sVqueryString
p912
(lp913
sVheaders
p914
(lp915
sVheadersSize
p916
I770
sVbodySize
p917
I0
sVmethod
p918
VGET
p919
sVhttpVersion
p920
VHTTP/1.1
p921
ssVtimings
p922
(dp923
Vcomment
p924
g4
sVreceive
p925
I3
sVsend
p926
I0
sVssl
p927
I-1
sVconnect
p928
I-1
sVdns
p929
I-1
sVwait
p930
I16
sVblocked
p931
I-1
ssVtime
p932
I20
sVresponse
p933
(dp934
Vstatus
p935
I200
sVcomment
p936
g4
sVcookies
p937
(lp938
sVstatusText
p939
VOK
p940
sVcontent
p941
(dp942
VmimeType
p943
Vtext/javascript; charset=UTF-8
p944
sVcomment
p945
g4
sVsize
p946
I0
ssVheaders
p947
(lp948
sVheadersSize
p949
I464
sVredirectURL
p950
g4
sVbodySize
p951
I50897
sVhttpVersion
p952
VHTTP/1.1
p953
ssa(dp954
Vcomment
p955
g4
sVserverIPAddress
p956
V216.58.216.196
p957
sVpageref
p958
VZika Virus
p959
sVstartedDateTime
p960
V2017-04-16T08:00:18.228-05:00
p961
sVcache
p962
(dp963
sVrequest
p964
(dp965
Vcomment
p966
g4
sVcookies
p967
(lp968
sVurl
p969
Vhttps://www.google.com/async/log_amp_item_set?vet=10ahUKEwjaxeeMhKnTAhVE9YMKHVhvBxIQooQBCAE..i&ei=4GrzWLl3ybePBN-9mpgP&yv=2&async=num_items:2,_fmt:jspb
p970
sVqueryString
p971
(lp972
(dp973
Vname
p974
Vvet
p975
sVvalue
p976
V10ahUKEwjaxeeMhKnTAhVE9YMKHVhvBxIQooQBCAE..i
p977
sa(dp978
Vname
p979
Vei
p980
sVvalue
p981
V4GrzWLl3ybePBN-9mpgP
p982
sa(dp983
Vname
p984
Vyv
p985
sVvalue
p986
g64
sa(dp987
Vname
p988
Vasync
p989
sVvalue
p990
Vnum_items:2,_fmt:jspb
p991
sasVheaders
p992
(lp993
sVheadersSize
p994
I668
sVbodySize
p995
I0
sVmethod
p996
VGET
p997
sVhttpVersion
p998
VHTTP/1.1
p999
ssVtimings
p1000
(dp1001
Vcomment
p1002
g4
sVreceive
p1003
I0
sVsend
p1004
I0
sVssl
p1005
I-1
sVconnect
p1006
I-1
sVdns
p1007
I-1
sVwait
p1008
I32
sVblocked
p1009
I-1
ssVtime
p1010
I32
sVresponse
p1011
(dp1012
Vstatus
p1013
I200
sVcomment
p1014
g4
sVcookies
p1015
(lp1016
sVstatusText
p1017
VOK
p1018
sVcontent
p1019
(dp1020
VmimeType
p1021
Vapplication/json; charset=UTF-8
p1022
sVcomment
p1023
g4
sVsize
p1024
I0
ssVheaders
p1025
(lp1026
sVheadersSize
p1027
I417
sVredirectURL
p1028
g4
sVbodySize
p1029
I141
sVhttpVersion
p1030
VHTTP/1.1
p1031
ssa(dp1032
Vcomment
p1033
g4
sVserverIPAddress
p1034
V216.58.216.196
p1035
sVpageref
p1036
VZika Virus
p1037
sVstartedDateTime
p1038
V2017-04-16T08:00:18.233-05:00
p1039
sVcache
p1040
(dp1041
sVrequest
p1042
(dp1043
Vcomment
p1044
g4
sVcookies
p1045
(lp1046
sVurl
p1047
Vhttps://www.google.com/gen_204?atyp=i&ct=ampipf&cad=&ampve&ei=4GrzWLl3ybePBN-9mpgP&zx=1492347618232
p1048
sVqueryString
p1049
(lp1050
(dp1051
Vname
p1052
Vatyp
p1053
sVvalue
p1054
g30
sa(dp1055
Vname
p1056
Vct
p1057
sVvalue
p1058
Vampipf
p1059
sa(dp1060
Vname
p1061
Vcad
p1062
sVvalue
p1063
g4
sa(dp1064
Vname
p1065
Vampve
p1066
sVvalue
p1067
g4
sa(dp1068
Vname
p1069
Vei
p1070
sVvalue
p1071
V4GrzWLl3ybePBN-9mpgP
p1072
sa(dp1073
Vname
p1074
Vzx
p1075
sVvalue
p1076
V1492347618232
p1077
sasVheaders
p1078
(lp1079
sVheadersSize
p1080
I616
sVbodySize
p1081
I0
sVmethod
p1082
VGET
p1083
sVhttpVersion
p1084
VHTTP/1.1
p1085
ssVtimings
p1086
(dp1087
Vcomment
p1088
g4
sVreceive
p1089
I0
sVsend
p1090
I0
sVssl
p1091
I-1
sVconnect
p1092
I-1
sVdns
p1093
I-1
sVwait
p1094
I27
sVblocked
p1095
I-1
ssVtime
p1096
I27
sVresponse
p1097
(dp1098
Vstatus
p1099
I204
sVcomment
p1100
g4
sVcookies
p1101
(lp1102
sVstatusText
p1103
VNo Content
p1104
sVcontent
p1105
(dp1106
VmimeType
p1107
Vtext/html; charset=UTF-8
p1108
sVcomment
p1109
g4
sVsize
p1110
I0
ssVheaders
p1111
(lp1112
sVheadersSize
p1113
I248
sVredirectURL
p1114
g4
sVbodySize
p1115
I0
sVhttpVersion
p1116
VHTTP/1.1
p1117
ssa(dp1118
Vcomment
p1119
g4
sVserverIPAddress
p1120
V216.58.216.193
p1121
sVpageref
p1122
VZika Virus
p1123
sVstartedDateTime
p1124
V2017-04-16T08:00:18.678-05:00
p1125
sVcache
p1126
(dp1127
sVrequest
p1128
(dp1129
Vcomment
p1130
g4
sVcookies
p1131
(lp1132
sVurl
p1133
Vhttps://www-nbcnews-com.cdn.ampproject.org/v/www.nbcnews.com/storyline/zika-virus-outbreak/amp/zika-found-common-backyard-asian-tiger-mosquito-n746646?amp_js_v=9
p1134
sVqueryString
p1135
(lp1136
(dp1137
Vname
p1138
Vamp_js_v
p1139
sVvalue
p1140
V9
p1141
sasVheaders
p1142
(lp1143
sVheadersSize
p1144
I566
sVbodySize
p1145
I0
sVmethod
p1146
VGET
p1147
sVhttpVersion
p1148
VHTTP/1.1
p1149
ssVtimings
p1150
(dp1151
Vcomment
p1152
g4
sVreceive
p1153
I1
sVsend
p1154
I0
sVssl
p1155
I392
sVconnect
p1156
I409
sVdns
p1157
I32
sVwait
p1158
I76
sVblocked
p1159
I0
ssVtime
p1160
I519
sVresponse
p1161
(dp1162
Vstatus
p1163
I200
sVcomment
p1164
g4
sVcookies
p1165
(lp1166
sVstatusText
p1167
VOK
p1168
sVcontent
p1169
(dp1170
VmimeType
p1171
Vtext/html
p1172
sVcomment
p1173
g4
sVsize
p1174
I0
ssVheaders
p1175
(lp1176
sVheadersSize
p1177
I861
sVredirectURL
p1178
g4
sVbodySize
p1179
I8515
sVhttpVersion
p1180
VHTTP/1.1
p1181
ssa(dp1182
Vcomment
p1183
g4
sVserverIPAddress
p1184
V216.58.216.193
p1185
sVpageref
p1186
VZika Virus
p1187
sVstartedDateTime
p1188
V2017-04-16T08:00:19.161-05:00
p1189
sVcache
p1190
(dp1191
sVrequest
p1192
(dp1193
Vcomment
p1194
g4
sVcookies
p1195
(lp1196
sVurl
p1197
Vhttps://media3-s--nbcnews-com.cdn.ampproject.org/i/s/media3.s-nbcnews.com/j/newscms/2016_14/1486611/160406-mosquitos-range-estimation-yh-1128a_119c3df10ae5d3f2ffe238cb47ef3333.nbcnews-ux-2880-1000.jpg
p1198
sVqueryString
p1199
(lp1200
sVheaders
p1201
(lp1202
sVheadersSize
p1203
I653
sVbodySize
p1204
I0
sVmethod
p1205
VGET
p1206
sVhttpVersion
p1207
VHTTP/1.1
p1208
ssVtimings
p1209
(dp1210
Vcomment
p1211
g4
sVreceive
p1212
I77
sVsend
p1213
I0
sVssl
p1214
I262
sVconnect
p1215
I275
sVdns
p1216
I30
sVwait
p1217
I132
sVblocked
p1218
I0
ssVtime
p1219
I515
sVresponse
p1220
(dp1221
Vstatus
p1222
I200
sVcomment
p1223
g4
sVcookies
p1224
(lp1225
sVstatusText
p1226
VOK
p1227
sVcontent
p1228
(dp1229
VmimeType
p1230
Vimage/jpeg
p1231
sVcomment
p1232
g4
sVsize
p1233
I0
ssVheaders
p1234
(lp1235
sVheadersSize
p1236
I850
sVredirectURL
p1237
g4
sVbodySize
p1238
I173689
sVhttpVersion
p1239
VHTTP/1.1
p1240
ssa(dp1241
Vcomment
p1242
g4
sVserverIPAddress
p1243
V216.58.216.196
p1244
sVpageref
p1245
VZika Virus
p1246
sVstartedDateTime
p1247
V2017-04-16T08:00:19.381-05:00
p1248
sVcache
p1249
(dp1250
sVrequest
p1251
(dp1252
Vcomment
p1253
g4
sVcookies
p1254
(lp1255
sVurl
p1256
Vhttps://www.google.com/gen_204?s=web&atyp=csi&ei=4GrzWLl3ybePBN-9mpgP&imc=15&imn=15&imp=9&adh=&xjs=init.28.14.sb_mob.18.async.4.dvl.3.c.1.jsa.1&ima=1&rt=prt.610,iml.662,xjsls.611,dcl.703,xjses.716,xjsee.829,xjs.830,ol.2292,aft.657,wsrt.110,cst.0,dnst.0,rqst.739,rspt.639,rqstt.2,unt.1,cstt.1,dit.784
p1257
sVqueryString
p1258
(lp1259
(dp1260
Vname
p1261
g57
sVvalue
p1262
Vweb
p1263
sa(dp1264
Vname
p1265
Vatyp
p1266
sVvalue
p1267
Vcsi
p1268
sa(dp1269
Vname
p1270
Vei
p1271
sVvalue
p1272
V4GrzWLl3ybePBN-9mpgP
p1273
sa(dp1274
Vname
p1275
Vimc
p1276
sVvalue
p1277
V15
p1278
sa(dp1279
Vname
p1280
Vimn
p1281
sVvalue
p1282
V15
p1283
sa(dp1284
Vname
p1285
Vimp
p1286
sVvalue
p1287
g1141
sa(dp1288
Vname
p1289
Vadh
p1290
sVvalue
p1291
g4
sa(dp1292
Vname
p1293
Vxjs
p1294
sVvalue
p1295
Vinit.28.14.sb_mob.18.async.4.dvl.3.c.1.jsa.1
p1296
sa(dp1297
Vname
p1298
Vima
p1299
sVvalue
p1300
g59
sa(dp1301
Vname
p1302
Vrt
p1303
sVvalue
p1304
Vprt.610,iml.662,xjsls.611,dcl.703,xjses.716,xjsee.829,xjs.830,ol.2292,aft.657,wsrt.110,cst.0,dnst.0,rqst.739,rspt.639,rqstt.2,unt.1,cstt.1,dit.784
p1305
sasVheaders
p1306
(lp1307
sVheadersSize
p1308
I816
sVbodySize
p1309
I0
sVmethod
p1310
VGET
p1311
sVhttpVersion
p1312
VHTTP/1.1
p1313
ssVtimings
p1314
(dp1315
Vcomment
p1316
g4
sVreceive
p1317
I0
sVsend
p1318
I0
sVssl
p1319
I-1
sVconnect
p1320
I-1
sVdns
p1321
I-1
sVwait
p1322
I29
sVblocked
p1323
I-1
ssVtime
p1324
I30
sVresponse
p1325
(dp1326
Vstatus
p1327
I204
sVcomment
p1328
g4
sVcookies
p1329
(lp1330
sVstatusText
p1331
VNo Content
p1332
sVcontent
p1333
(dp1334
VmimeType
p1335
Vtext/html; charset=UTF-8
p1336
sVcomment
p1337
g4
sVsize
p1338
I0
ssVheaders
p1339
(lp1340
sVheadersSize
p1341
I248
sVredirectURL
p1342
g4
sVbodySize
p1343
I0
sVhttpVersion
p1344
VHTTP/1.1
p1345
ssa(dp1346
Vcomment
p1347
g4
sVserverIPAddress
p1348
V216.58.216.196
p1349
sVpageref
p1350
VZika Virus
p1351
sVstartedDateTime
p1352
V2017-04-16T08:00:20.098-05:00
p1353
sVcache
p1354
(dp1355
sVrequest
p1356
(dp1357
Vcomment
p1358
g4
sVcookies
p1359
(lp1360
sVurl
p1361
Vhttps://www.google.com/gen_204?atyp=i&ct=slh&cad=&ei=0GrzWNzCNqrZjwTErYPQAw&m=V&t=C&s=1&v=2&pv=0.616845370002619&me=1:1492347603456,x:1,V,0,0,1280,944:0,N,1,0GrzWNzCNqrZjwTErYPQAw:0,R,1,24,8,155,1249,700:0,R,1,31,8,337,1249,332:0,R,1,32,0,338,1265,351:0,R,1,63,8,669,1249,186:0,R,1,124,8,865,1249,421:0,R,1,125,8,865,1249,421:0,R,1,126,0,909,1265,397:2,B,3877:13025,e,U&zx=1492347620096
p1362
sVqueryString
p1363
(lp1364
(dp1365
Vname
p1366
Vatyp
p1367
sVvalue
p1368
g30
sa(dp1369
Vname
p1370
Vct
p1371
sVvalue
p1372
Vslh
p1373
sa(dp1374
Vname
p1375
Vcad
p1376
sVvalue
p1377
g4
sa(dp1378
Vname
p1379
Vei
p1380
sVvalue
p1381
V0GrzWNzCNqrZjwTErYPQAw
p1382
sa(dp1383
Vname
p1384
g47
sVvalue
p1385
g49
sa(dp1386
Vname
p1387
g52
sVvalue
p1388
g54
sa(dp1389
Vname
p1390
g57
sVvalue
p1391
g59
sa(dp1392
Vname
p1393
g62
sVvalue
p1394
g64
sa(dp1395
Vname
p1396
Vpv
p1397
sVvalue
p1398
V0.616845370002619
p1399
sa(dp1400
Vname
p1401
Vme
p1402
sVvalue
p1403
V1:1492347603456,x:1,V,0,0,1280,944:0,N,1,0GrzWNzCNqrZjwTErYPQAw:0,R,1,24,8,155,1249,700:0,R,1,31,8,337,1249,332:0,R,1,32,0,338,1265,351:0,R,1,63,8,669,1249,186:0,R,1,124,8,865,1249,421:0,R,1,125,8,865,1249,421:0,R,1,126,0,909,1265,397:2,B,3877:13025,e,U
p1404
sa(dp1405
Vname
p1406
Vzx
p1407
sVvalue
p1408
V1492347620096
p1409
sasVheaders
p1410
(lp1411
sVheadersSize
p1412
I903
sVbodySize
p1413
I0
sVmethod
p1414
VGET
p1415
sVhttpVersion
p1416
VHTTP/1.1
p1417
ssVtimings
p1418
(dp1419
Vcomment
p1420
g4
sVreceive
p1421
I0
sVsend
p1422
I0
sVssl
p1423
I-1
sVconnect
p1424
I-1
sVdns
p1425
I-1
sVwait
p1426
I36
sVblocked
p1427
I-1
ssVtime
p1428
I36
sVresponse
p1429
(dp1430
Vstatus
p1431
I204
sVcomment
p1432
g4
sVcookies
p1433
(lp1434
sVstatusText
p1435
VNo Content
p1436
sVcontent
p1437
(dp1438
VmimeType
p1439
Vtext/html; charset=UTF-8
p1440
sVcomment
p1441
g4
sVsize
p1442
I0
ssVheaders
p1443
(lp1444
sVheadersSize
p1445
I248
sVredirectURL
p1446
g4
sVbodySize
p1447
I0
sVhttpVersion
p1448
VHTTP/1.1
p1449
ssasVversion
p1450
V1.2
p1451
sVpages
p1452
(lp1453
(dp1454
VpageTimings
p1455
(dp1456
Vcomment
p1457
g4
ssVcomment
p1458
g4
sVtitle
p1459
VZika Virus
p1460
sVid
p1461
VZika Virus
p1462
sVstartedDateTime
p1463
V2017-04-16T08:00:16.479-05:00
p1464
sasVcreator
p1465
(dp1466
Vcomment
p1467
g4
sVversion
p1468
V2.1.4
p1469
sVname
p1470
VBrowserMob Proxy
p1471
sss.