(dp0
Vlog
p1
(dp2
Vcomment
p3
V
p4
sVentries
p5
(lp6
(dp7
Vcomment
p8
g4
sVserverIPAddress
p9
V216.58.216.196
p10
sVpageref
p11
VAleppo
p12
sVstartedDateTime
p13
V2017-04-16T08:01:49.784-05:00
p14
sVcache
p15
(dp16
sVrequest
p17
(dp18
Vcomment
p19
g4
sVcookies
p20
(lp21
sVurl
p22
Vhttps://www.google.com/gen_204?atyp=i&ct=slh&cad=&ei=K2vzWLjrGeHMjwTMj77IAg&m=V&t=C&s=1&v=2&pv=0.6441440556369236&me=1:1492347694165,x:3,V,0,0,1280,944:0,N,1,K2vzWLjrGeHMjwTMj77IAg:0,R,1,24,8,155,1249,265:0,R,1,25,8,155,1249,265:0,R,1,29,1141,155,116,116:0,R,1,38,8,193,1133,40:0,R,1,50,8,287,1249,20:0,R,1,51,24,287,1217,20:0,R,1,54,8,323,1249,20:0,R,1,56,8,351,1249,20:0,R,1,64,24,430,1217,115:0,R,1,70,24,566,1217,135:0,R,1,76,24,722,1217,114:0,R,1,80,8,857,1249,251:6,B,2751:15609,e,U&zx=1492347709783
p23
sVqueryString
p24
(lp25
(dp26
Vname
p27
Vatyp
p28
sVvalue
p29
Vi
p30
sa(dp31
Vname
p32
Vct
p33
sVvalue
p34
Vslh
p35
sa(dp36
Vname
p37
Vcad
p38
sVvalue
p39
g4
sa(dp40
Vname
p41
Vei
p42
sVvalue
p43
VK2vzWLjrGeHMjwTMj77IAg
p44
sa(dp45
Vname
p46
Vm
p47
sVvalue
p48
VV
p49
sa(dp50
Vname
p51
Vt
p52
sVvalue
p53
VC
p54
sa(dp55
Vname
p56
Vs
p57
sVvalue
p58
V1
p59
sa(dp60
Vname
p61
Vv
p62
sVvalue
p63
V2
p64
sa(dp65
Vname
p66
Vpv
p67
sVvalue
p68
V0.6441440556369236
p69
sa(dp70
Vname
p71
Vme
p72
sVvalue
p73
V1:1492347694165,x:3,V,0,0,1280,944:0,N,1,K2vzWLjrGeHMjwTMj77IAg:0,R,1,24,8,155,1249,265:0,R,1,25,8,155,1249,265:0,R,1,29,1141,155,116,116:0,R,1,38,8,193,1133,40:0,R,1,50,8,287,1249,20:0,R,1,51,24,287,1217,20:0,R,1,54,8,323,1249,20:0,R,1,56,8,351,1249,20:0,R,1,64,24,430,1217,115:0,R,1,70,24,566,1217,135:0,R,1,76,24,722,1217,114:0,R,1,80,8,857,1249,251:6,B,2751:15609,e,U
p74
sa(dp75
Vname
p76
Vzx
p77
sVvalue
p78
V1492347709783
p79
sasVheaders
p80
(lp81
sVheadersSize
p82
I1022
sVbodySize
p83
I0
sVmethod
p84
VGET
p85
sVhttpVersion
p86
VHTTP/1.1
p87
ssVtimings
p88
(dp89
Vcomment
p90
g4
sVreceive
p91
I0
sVsend
p92
I0
sVssl
p93
I-1
sVconnect
p94
I-1
sVdns
p95
I-1
sVwait
p96
I0
sVblocked
p97
I-1
ssVtime
p98
I0
sVresponse
p99
(dp100
Vstatus
p101
I0
sVcomment
p102
g4
sVcookies
p103
(lp104
sV_error
p105
VNo response received
p106
sVstatusText
p107
g4
sVcontent
p108
(dp109
VmimeType
p110
g4
sVcomment
p111
g4
sVsize
p112
I0
ssVheaders
p113
(lp114
sVheadersSize
p115
I-1
sVredirectURL
p116
g4
sVbodySize
p117
I-1
sVhttpVersion
p118
Vunknown
p119
ssa(dp120
Vcomment
p121
g4
sVserverIPAddress
p122
V216.58.216.196
p123
sVpageref
p124
VAleppo
p125
sVstartedDateTime
p126
V2017-04-16T08:01:49.788-05:00
p127
sVcache
p128
(dp129
sVrequest
p130
(dp131
Vcomment
p132
g4
sVcookies
p133
(lp134
sVurl
p135
Vhttp://www.google.com/
p136
sVqueryString
p137
(lp138
sVheaders
p139
(lp140
sVheadersSize
p141
I613
sVbodySize
p142
I0
sVmethod
p143
VGET
p144
sVhttpVersion
p145
VHTTP/1.1
p146
ssVtimings
p147
(dp148
Vcomment
p149
g4
sVreceive
p150
I0
sVsend
p151
I0
sVssl
p152
I-1
sVconnect
p153
I-1
sVdns
p154
I-1
sVwait
p155
I39
sVblocked
p156
I-1
ssVtime
p157
I39
sVresponse
p158
(dp159
Vstatus
p160
I302
sVcomment
p161
g4
sVcookies
p162
(lp163
sVstatusText
p164
VFound
p165
sVcontent
p166
(dp167
VmimeType
p168
Vtext/html; charset=UTF-8
p169
sVcomment
p170
g4
sVsize
p171
I0
ssVheaders
p172
(lp173
sVheadersSize
p174
I609
sVredirectURL
p175
Vhttps://www.google.com/?gws_rd=ssl
p176
sVbodySize
p177
I231
sVhttpVersion
p178
VHTTP/1.1
p179
ssa(dp180
Vcomment
p181
g4
sVserverIPAddress
p182
V216.58.216.196
p183
sVpageref
p184
VAleppo
p185
sVstartedDateTime
p186
V2017-04-16T08:01:49.831-05:00
p187
sVcache
p188
(dp189
sVrequest
p190
(dp191
Vcomment
p192
g4
sVcookies
p193
(lp194
sVurl
p195
Vhttps://www.google.com/?gws_rd=ssl
p196
sVqueryString
p197
(lp198
(dp199
Vname
p200
Vgws_rd
p201
sVvalue
p202
Vssl
p203
sasVheaders
p204
(lp205
sVheadersSize
p206
I607
sVbodySize
p207
I0
sVmethod
p208
VGET
p209
sVhttpVersion
p210
VHTTP/1.1
p211
ssVtimings
p212
(dp213
Vcomment
p214
g4
sVreceive
p215
I28
sVsend
p216
I0
sVssl
p217
I-1
sVconnect
p218
I-1
sVdns
p219
I-1
sVwait
p220
I74
sVblocked
p221
I-1
ssVtime
p222
I103
sVresponse
p223
(dp224
Vstatus
p225
I200
sVcomment
p226
g4
sVcookies
p227
(lp228
sVstatusText
p229
VOK
p230
sVcontent
p231
(dp232
VmimeType
p233
Vtext/html; charset=UTF-8
p234
sVcomment
p235
g4
sVsize
p236
I0
ssVheaders
p237
(lp238
sVheadersSize
p239
I721
sVredirectURL
p240
g4
sVbodySize
p241
I34292
sVhttpVersion
p242
VHTTP/1.1
p243
ssa(dp244
Vcomment
p245
g4
sVserverIPAddress
p246
V216.58.216.196
p247
sVpageref
p248
VAleppo
p249
sVstartedDateTime
p250
V2017-04-16T08:01:50.074-05:00
p251
sVcache
p252
(dp253
sVrequest
p254
(dp255
Vcomment
p256
g4
sVcookies
p257
(lp258
sVurl
p259
Vhttps://www.google.com/gen_204?s=mobilewebhp&atyp=csi&ei=PGvzWLX8M4vQjwTpyaboAQ&imc=1&imn=1&imp=0&adh=&xjs=init.23.12.sb_mob.17.dvl.2.c.1.mbsf.1.async.1&ima=1&rt=xjsls.11,prt.11,iml.11,dcl.35,xjses.53,xjsee.123,xjs.124,ol.150,aft.11,wsrt.137,cst.0,dnst.0,rqst.104,rspt.29,rqstt.48,unt.47,cstt.47,dit.168
p260
sVqueryString
p261
(lp262
(dp263
Vname
p264
g57
sVvalue
p265
Vmobilewebhp
p266
sa(dp267
Vname
p268
Vatyp
p269
sVvalue
p270
Vcsi
p271
sa(dp272
Vname
p273
Vei
p274
sVvalue
p275
VPGvzWLX8M4vQjwTpyaboAQ
p276
sa(dp277
Vname
p278
Vimc
p279
sVvalue
p280
g59
sa(dp281
Vname
p282
Vimn
p283
sVvalue
p284
g59
sa(dp285
Vname
p286
Vimp
p287
sVvalue
p288
V0
p289
sa(dp290
Vname
p291
Vadh
p292
sVvalue
p293
g4
sa(dp294
Vname
p295
Vxjs
p296
sVvalue
p297
Vinit.23.12.sb_mob.17.dvl.2.c.1.mbsf.1.async.1
p298
sa(dp299
Vname
p300
Vima
p301
sVvalue
p302
g59
sa(dp303
Vname
p304
Vrt
p305
sVvalue
p306
Vxjsls.11,prt.11,iml.11,dcl.35,xjses.53,xjsee.123,xjs.124,ol.150,aft.11,wsrt.137,cst.0,dnst.0,rqst.104,rspt.29,rqstt.48,unt.47,cstt.47,dit.168
p307
sasVheaders
p308
(lp309
sVheadersSize
p310
I831
sVbodySize
p311
I0
sVmethod
p312
VGET
p313
sVhttpVersion
p314
VHTTP/1.1
p315
ssVtimings
p316
(dp317
Vcomment
p318
g4
sVreceive
p319
I0
sVsend
p320
I0
sVssl
p321
I-1
sVconnect
p322
I-1
sVdns
p323
I-1
sVwait
p324
I28
sVblocked
p325
I-1
ssVtime
p326
I28
sVresponse
p327
(dp328
Vstatus
p329
I204
sVcomment
p330
g4
sVcookies
p331
(lp332
sVstatusText
p333
VNo Content
p334
sVcontent
p335
(dp336
VmimeType
p337
Vtext/html; charset=UTF-8
p338
sVcomment
p339
g4
sVsize
p340
I0
ssVheaders
p341
(lp342
sVheadersSize
p343
I248
sVredirectURL
p344
g4
sVbodySize
p345
I0
sVhttpVersion
p346
VHTTP/1.1
p347
ssa(dp348
Vcomment
p349
g4
sVserverIPAddress
p350
V216.58.216.196
p351
sVpageref
p352
VAleppo
p353
sVstartedDateTime
p354
V2017-04-16T08:01:50.214-05:00
p355
sVcache
p356
(dp357
sVrequest
p358
(dp359
Vcomment
p360
g4
sVcookies
p361
(lp362
sVurl
p363
Vhttps://www.google.com/complete/search?client=mobile-gws-hp&hl=en&gs_rn=64&gs_ri=mobile-gws-hp&sla=1&gm=602&cp=0&gs_id=1&xhr=t&q=A&tch=1&ech=1&psi=PGvzWLX8M4vQjwTpyaboAQ.1492347710022.1
p364
sVqueryString
p365
(lp366
(dp367
Vname
p368
Vclient
p369
sVvalue
p370
Vmobile-gws-hp
p371
sa(dp372
Vname
p373
Vhl
p374
sVvalue
p375
Ven
p376
sa(dp377
Vname
p378
Vgs_rn
p379
sVvalue
p380
V64
p381
sa(dp382
Vname
p383
Vgs_ri
p384
sVvalue
p385
Vmobile-gws-hp
p386
sa(dp387
Vname
p388
Vsla
p389
sVvalue
p390
g59
sa(dp391
Vname
p392
Vgm
p393
sVvalue
p394
V602
p395
sa(dp396
Vname
p397
Vcp
p398
sVvalue
p399
g289
sa(dp400
Vname
p401
Vgs_id
p402
sVvalue
p403
g59
sa(dp404
Vname
p405
Vxhr
p406
sVvalue
p407
g52
sa(dp408
Vname
p409
Vq
p410
sVvalue
p411
VA
p412
sa(dp413
Vname
p414
Vtch
p415
sVvalue
p416
g59
sa(dp417
Vname
p418
Vech
p419
sVvalue
p420
g59
sa(dp421
Vname
p422
Vpsi
p423
sVvalue
p424
VPGvzWLX8M4vQjwTpyaboAQ.1492347710022.1
p425
sasVheaders
p426
(lp427
sVheadersSize
p428
I713
sVbodySize
p429
I0
sVmethod
p430
VGET
p431
sVhttpVersion
p432
VHTTP/1.1
p433
ssVtimings
p434
(dp435
Vcomment
p436
g4
sVreceive
p437
I0
sVsend
p438
I0
sVssl
p439
I-1
sVconnect
p440
I-1
sVdns
p441
I-1
sVwait
p442
I0
sVblocked
p443
I-1
ssVtime
p444
I0
sVresponse
p445
(dp446
Vstatus
p447
I0
sVcomment
p448
g4
sVcookies
p449
(lp450
sV_error
p451
VNo response received
p452
sVstatusText
p453
g4
sVcontent
p454
(dp455
VmimeType
p456
g4
sVcomment
p457
g4
sVsize
p458
I0
ssVheaders
p459
(lp460
sVheadersSize
p461
I-1
sVredirectURL
p462
g4
sVbodySize
p463
I-1
sVhttpVersion
p464
Vunknown
p465
ssa(dp466
Vcomment
p467
g4
sVserverIPAddress
p468
V216.58.216.196
p469
sVpageref
p470
VAleppo
p471
sVstartedDateTime
p472
V2017-04-16T08:01:50.255-05:00
p473
sVcache
p474
(dp475
sVrequest
p476
(dp477
Vcomment
p478
g4
sVcookies
p479
(lp480
sVurl
p481
Vhttps://www.google.com/search?site=&source=hp&ei=PGvzWLX8M4vQjwTpyaboAQ&q=Aleppo&oq=Aleppo&gs_l=mobile-gws-hp.3...173.187.0.211.6.1.0.0.0.0.0.0..0.0....0...1c.1.64.mobile-gws-hp..6.0.0.BTkC-9DxRJ0
p482
sVqueryString
p483
(lp484
(dp485
Vname
p486
Vsite
p487
sVvalue
p488
g4
sa(dp489
Vname
p490
Vsource
p491
sVvalue
p492
Vhp
p493
sa(dp494
Vname
p495
Vei
p496
sVvalue
p497
VPGvzWLX8M4vQjwTpyaboAQ
p498
sa(dp499
Vname
p500
g410
sVvalue
p501
VAleppo
p502
sa(dp503
Vname
p504
Voq
p505
sVvalue
p506
VAleppo
p507
sa(dp508
Vname
p509
Vgs_l
p510
sVvalue
p511
Vmobile-gws-hp.3...173.187.0.211.6.1.0.0.0.0.0.0..0.0....0...1c.1.64.mobile-gws-hp..6.0.0.BTkC-9DxRJ0
p512
sasVheaders
p513
(lp514
sVheadersSize
p515
I814
sVbodySize
p516
I0
sVmethod
p517
VGET
p518
sVhttpVersion
p519
VHTTP/1.1
p520
ssVtimings
p521
(dp522
Vcomment
p523
g4
sVreceive
p524
I876
sVsend
p525
I0
sVssl
p526
I-1
sVconnect
p527
I-1
sVdns
p528
I-1
sVwait
p529
I92
sVblocked
p530
I-1
ssVtime
p531
I968
sVresponse
p532
(dp533
Vstatus
p534
I200
sVcomment
p535
g4
sVcookies
p536
(lp537
sVstatusText
p538
VOK
p539
sVcontent
p540
(dp541
VmimeType
p542
Vtext/html; charset=UTF-8
p543
sVcomment
p544
g4
sVsize
p545
I0
ssVheaders
p546
(lp547
sVheadersSize
p548
I363
sVredirectURL
p549
g4
sVbodySize
p550
I122120
sVhttpVersion
p551
VHTTP/1.1
p552
ssa(dp553
Vcomment
p554
g4
sVserverIPAddress
p555
V216.58.216.196
p556
sVpageref
p557
VAleppo
p558
sVstartedDateTime
p559
V2017-04-16T08:01:51.584-05:00
p560
sVcache
p561
(dp562
sVrequest
p563
(dp564
Vcomment
p565
g4
sVcookies
p566
(lp567
sVurl
p568
Vhttps://www.google.com/maps/vt/data=RfCSdfNZ0LFPrHSm0ublXdzhdrDFhtmHhN1u-gM,N2LD0z60z6SG5OPRBtkKJZvYiaE67ZdOdODAo5yOzI1X5lFYGraCgxVjBCU-ZlmDG0TzCK6FFSWzQN0QTAmSg1tY_3VZfBQ8tna2SeQTVRQ76UgThkn0YHKFogjhXWpVTu31YqMfekQwTnDP5i4uXtwtVO0O9sUY7XOeIgXtO5Fx25h631GENL64belhc6f2EVahD_NObiVXRw?scale=2&h=104&w=1024
p569
sVqueryString
p570
(lp571
(dp572
Vname
p573
Vscale
p574
sVvalue
p575
g64
sa(dp576
Vname
p577
Vh
p578
sVvalue
p579
V104
p580
sa(dp581
Vname
p582
Vw
p583
sVvalue
p584
V1024
p585
sasVheaders
p586
(lp587
sVheadersSize
p588
I820
sVbodySize
p589
I0
sVmethod
p590
VGET
p591
sVhttpVersion
p592
VHTTP/1.1
p593
ssVtimings
p594
(dp595
Vcomment
p596
g4
sVreceive
p597
I8
sVsend
p598
I0
sVssl
p599
I-1
sVconnect
p600
I-1
sVdns
p601
I-1
sVwait
p602
I136
sVblocked
p603
I-1
ssVtime
p604
I145
sVresponse
p605
(dp606
Vstatus
p607
I200
sVcomment
p608
g4
sVcookies
p609
(lp610
sVstatusText
p611
VOK
p612
sVcontent
p613
(dp614
VmimeType
p615
Vimage/png
p616
sVcomment
p617
g4
sVsize
p618
I0
ssVheaders
p619
(lp620
sVheadersSize
p621
I479
sVredirectURL
p622
g4
sVbodySize
p623
I66858
sVhttpVersion
p624
VHTTP/1.1
p625
ssa(dp626
Vcomment
p627
g4
sVserverIPAddress
p628
V216.58.216.196
p629
sVpageref
p630
VAleppo
p631
sVstartedDateTime
p632
V2017-04-16T08:01:51.604-05:00
p633
sVcache
p634
(dp635
sVrequest
p636
(dp637
Vcomment
p638
g4
sVcookies
p639
(lp640
sVurl
p641
Vhttps://www.google.com/xjs/_/js/k=xjs.qs.en_US.pCBXVCvTH3s.O/m=syl,syj,syn,em3,em8,em6,em7,sym,aa,abd,sy2g,sy2k,sy29,sy2j,sy2d,sy2a,sy2c,sy2f,sy2l,sy2m,sy2n,emd,async,sybn,sybi,sybo,sy1f,sy45,sy46,sy9w,sybk,sybj,sybp,sy1g,sy30,sy47,sybm,sybl,sybq,sy1h,sybh,dvl,syep,foot,ipv6,sy32,emj,shm,sy5g,sy5i,sy5k,sykh,tl,sy2x,sy2y,sy2t,sy38,em12,vs,sy5j,sy5h,sy6u,sy66,sy67,sy7d,sy7j,sy4u,sy69,sy89,sy7e,sykk,sykl,tnv,bct,sy23,sy9m,syac,sy24,sy4g,sy9b,sy9n,syhz,syl6,ssc,sy1y,sya3,sy22,sy6i,sy25,sya2,sy6j,sy72,emb,sy26,em9,ema,sy31,sya4,sykr,strm,syh6,syl5,kac,kae,strx,sy6y,sycu,d3l,sy48,sy3a,sy3c,sy5b,sy4x,sy3x,sy4z,sy56,syci,syea,sy3w,sy4h,sy65,sy2u,sy4y,sy5a,sydt,sye9,sygr,syha,sy76,syb0,sye4,sykt,sy34,sy3v,sy4i,sy5c,sy6k,sy6h,syeb,sygu,syhb,syku,syky,dsti,sy6a,sy6b,kch,sy2z,sy2w,syka,trex,sy3d,sy3u,sy5m,sy6e,sy6f,sy6g,ofmc,syf5,sy99,syf4,syfc,syfn,syf7,syff,sy1i,sy68,sy8d,syf6,syfl,syfr,syfq,syfg,sy1j,sy4q,sy5o,sy5r,sy6n,sy6p,sy8h,syc7,syc8,syfb,syfj,syfs,syft,syg3,syg5,syg7,emn,emo,syg4,syg6,ivg,iuci,img,mexp,tbhm,syl7,tbm,sy41,tcc,sygq,kpc,kpci,sy5x,sy5y,qaim,qif,sy2i,sy2o,sy2p,akpc,syj7,syj8,syj2,syjc,syj6,syj3,syjg,syjh,syje,syjd,syjk,syji,syjf,syj0,emr,ems,emt,emu,emv,emx,emy,emz,em10,em11,udlg,sy5z,atn,sya1,ampfp/am=gCP4LtMEBXQA2RUaq_oFBISzAFA/rt=j/d=0/t=zcms/rs=ACT90oFwm4NZCwIcuuiqmthdlECdBzkhRA
p642
sVqueryString
p643
(lp644
sVheaders
p645
(lp646
sVheadersSize
p647
I1830
sVbodySize
p648
I0
sVmethod
p649
VGET
p650
sVhttpVersion
p651
VHTTP/1.1
p652
ssVtimings
p653
(dp654
Vcomment
p655
g4
sVreceive
p656
I70
sVsend
p657
I0
sVssl
p658
I-1
sVconnect
p659
I-1
sVdns
p660
I-1
sVwait
p661
I30
sVblocked
p662
I-1
ssVtime
p663
I101
sVresponse
p664
(dp665
Vstatus
p666
I200
sVcomment
p667
g4
sVcookies
p668
(lp669
sVstatusText
p670
VOK
p671
sVcontent
p672
(dp673
VmimeType
p674
Vtext/javascript; charset=UTF-8
p675
sVcomment
p676
g4
sVsize
p677
I0
ssVheaders
p678
(lp679
sVheadersSize
p680
I464
sVredirectURL
p681
g4
sVbodySize
p682
I157392
sVhttpVersion
p683
VHTTP/1.1
p684
ssa(dp685
Vcomment
p686
g4
sVserverIPAddress
p687
V216.58.216.196
p688
sVpageref
p689
VAleppo
p690
sVstartedDateTime
p691
V2017-04-16T08:01:51.756-05:00
p692
sVcache
p693
(dp694
sVrequest
p695
(dp696
Vcomment
p697
g4
sVcookies
p698
(lp699
sVurl
p700
Vhttps://www.google.com/gen_204?s=lu&atyp=csi&ei=PWvzWLDYEIisjwTmubGoBA&ima=14&rt=lmap.1376,aft.1375,wsrt.1326,cst.0,dnst.0,rqst.970,rspt.877,rqstt.2,unt.2,cstt.2,dit.1055
p701
sVqueryString
p702
(lp703
(dp704
Vname
p705
g57
sVvalue
p706
Vlu
p707
sa(dp708
Vname
p709
Vatyp
p710
sVvalue
p711
Vcsi
p712
sa(dp713
Vname
p714
Vei
p715
sVvalue
p716
VPWvzWLDYEIisjwTmubGoBA
p717
sa(dp718
Vname
p719
Vima
p720
sVvalue
p721
V14
p722
sa(dp723
Vname
p724
Vrt
p725
sVvalue
p726
Vlmap.1376,aft.1375,wsrt.1326,cst.0,dnst.0,rqst.970,rspt.877,rqstt.2,unt.2,cstt.2,dit.1055
p727
sasVheaders
p728
(lp729
sVheadersSize
p730
I687
sVbodySize
p731
I0
sVmethod
p732
VGET
p733
sVhttpVersion
p734
VHTTP/1.1
p735
ssVtimings
p736
(dp737
Vcomment
p738
g4
sVreceive
p739
I0
sVsend
p740
I0
sVssl
p741
I-1
sVconnect
p742
I-1
sVdns
p743
I-1
sVwait
p744
I25
sVblocked
p745
I-1
ssVtime
p746
I25
sVresponse
p747
(dp748
Vstatus
p749
I204
sVcomment
p750
g4
sVcookies
p751
(lp752
sVstatusText
p753
VNo Content
p754
sVcontent
p755
(dp756
VmimeType
p757
Vtext/html; charset=UTF-8
p758
sVcomment
p759
g4
sVsize
p760
I0
ssVheaders
p761
(lp762
sVheadersSize
p763
I248
sVredirectURL
p764
g4
sVbodySize
p765
I0
sVhttpVersion
p766
VHTTP/1.1
p767
ssa(dp768
Vcomment
p769
g4
sVserverIPAddress
p770
V216.58.216.196
p771
sVpageref
p772
VAleppo
p773
sVstartedDateTime
p774
V2017-04-16T08:01:51.991-05:00
p775
sVcache
p776
(dp777
sVrequest
p778
(dp779
Vcomment
p780
g4
sVcookies
p781
(lp782
sVurl
p783
Vhttps://www.google.com/async/irc?vet=10ahUKEwjw6t64hKnTAhUI1oMKHeZcDEUQo0EI8wE..i&ved=0ahUKEwjw6t64hKnTAhUI1oMKHeZcDEUQo0EI8wE&ei=PWvzWLDYEIisjwTmubGoBA&yv=2&async=iu:1,ved:0ahUKEwjw6t64hKnTAhUI1oMKHeZcDEUQo0EI8wE,_id:irc_async,_pms:qs
p784
sVqueryString
p785
(lp786
(dp787
Vname
p788
Vvet
p789
sVvalue
p790
V10ahUKEwjw6t64hKnTAhUI1oMKHeZcDEUQo0EI8wE..i
p791
sa(dp792
Vname
p793
Vved
p794
sVvalue
p795
V0ahUKEwjw6t64hKnTAhUI1oMKHeZcDEUQo0EI8wE
p796
sa(dp797
Vname
p798
Vei
p799
sVvalue
p800
VPWvzWLDYEIisjwTmubGoBA
p801
sa(dp802
Vname
p803
Vyv
p804
sVvalue
p805
g64
sa(dp806
Vname
p807
Vasync
p808
sVvalue
p809
Viu:1,ved:0ahUKEwjw6t64hKnTAhUI1oMKHeZcDEUQo0EI8wE,_id:irc_async,_pms:qs
p810
sasVheaders
p811
(lp812
sVheadersSize
p813
I752
sVbodySize
p814
I0
sVmethod
p815
VGET
p816
sVhttpVersion
p817
VHTTP/1.1
p818
ssVtimings
p819
(dp820
Vcomment
p821
g4
sVreceive
p822
I1
sVsend
p823
I0
sVssl
p824
I-1
sVconnect
p825
I-1
sVdns
p826
I-1
sVwait
p827
I43
sVblocked
p828
I-1
ssVtime
p829
I45
sVresponse
p830
(dp831
Vstatus
p832
I200
sVcomment
p833
g4
sVcookies
p834
(lp835
sVstatusText
p836
VOK
p837
sVcontent
p838
(dp839
VmimeType
p840
Vtext/html; charset=UTF-8
p841
sVcomment
p842
g4
sVsize
p843
I0
ssVheaders
p844
(lp845
sVheadersSize
p846
I383
sVredirectURL
p847
g4
sVbodySize
p848
I7785
sVhttpVersion
p849
VHTTP/1.1
p850
ssa(dp851
Vcomment
p852
g4
sVserverIPAddress
p853
V216.58.216.196
p854
sVpageref
p855
VAleppo
p856
sVstartedDateTime
p857
V2017-04-16T08:01:52.018-05:00
p858
sVcache
p859
(dp860
sVrequest
p861
(dp862
Vcomment
p863
g4
sVcookies
p864
(lp865
sVurl
p866
Vhttps://www.google.com/gen_204?atyp=i&ct=&cad=&uact=1&vet=10ahUKEwjw6t64hKnTAhUI1oMKHeZcDEUQ9V8IbigA..s&ei=PWvzWLDYEIisjwTmubGoBA&zx=1492347712015
p867
sVqueryString
p868
(lp869
(dp870
Vname
p871
Vatyp
p872
sVvalue
p873
g30
sa(dp874
Vname
p875
Vct
p876
sVvalue
p877
g4
sa(dp878
Vname
p879
Vcad
p880
sVvalue
p881
g4
sa(dp882
Vname
p883
Vuact
p884
sVvalue
p885
g59
sa(dp886
Vname
p887
Vvet
p888
sVvalue
p889
V10ahUKEwjw6t64hKnTAhUI1oMKHeZcDEUQ9V8IbigA..s
p890
sa(dp891
Vname
p892
Vei
p893
sVvalue
p894
VPWvzWLDYEIisjwTmubGoBA
p895
sa(dp896
Vname
p897
Vzx
p898
sVvalue
p899
V1492347712015
p900
sasVheaders
p901
(lp902
sVheadersSize
p903
I663
sVbodySize
p904
I0
sVmethod
p905
VGET
p906
sVhttpVersion
p907
VHTTP/1.1
p908
ssVtimings
p909
(dp910
Vcomment
p911
g4
sVreceive
p912
I0
sVsend
p913
I0
sVssl
p914
I-1
sVconnect
p915
I-1
sVdns
p916
I-1
sVwait
p917
I30
sVblocked
p918
I-1
ssVtime
p919
I30
sVresponse
p920
(dp921
Vstatus
p922
I204
sVcomment
p923
g4
sVcookies
p924
(lp925
sVstatusText
p926
VNo Content
p927
sVcontent
p928
(dp929
VmimeType
p930
Vtext/html; charset=UTF-8
p931
sVcomment
p932
g4
sVsize
p933
I0
ssVheaders
p934
(lp935
sVheadersSize
p936
I248
sVredirectURL
p937
g4
sVbodySize
p938
I0
sVhttpVersion
p939
VHTTP/1.1
p940
ssa(dp941
Vcomment
p942
g4
sVserverIPAddress
p943
V216.58.216.196
p944
sVpageref
p945
VAleppo
p946
sVstartedDateTime
p947
V2017-04-16T08:01:52.062-05:00
p948
sVcache
p949
(dp950
sVrequest
p951
(dp952
Vcomment
p953
g4
sVcookies
p954
(lp955
sVurl
p956
Vhttps://www.google.com/gen_204?atyp=i&ct=&cad=&uact=1&vet=10ahUKEwjw6t64hKnTAhUI1oMKHeZcDEUQ9V8IbygB..s&ei=PWvzWLDYEIisjwTmubGoBA&zx=1492347712020
p957
sVqueryString
p958
(lp959
(dp960
Vname
p961
Vatyp
p962
sVvalue
p963
g30
sa(dp964
Vname
p965
Vct
p966
sVvalue
p967
g4
sa(dp968
Vname
p969
Vcad
p970
sVvalue
p971
g4
sa(dp972
Vname
p973
Vuact
p974
sVvalue
p975
g59
sa(dp976
Vname
p977
Vvet
p978
sVvalue
p979
V10ahUKEwjw6t64hKnTAhUI1oMKHeZcDEUQ9V8IbygB..s
p980
sa(dp981
Vname
p982
Vei
p983
sVvalue
p984
VPWvzWLDYEIisjwTmubGoBA
p985
sa(dp986
Vname
p987
Vzx
p988
sVvalue
p989
V1492347712020
p990
sasVheaders
p991
(lp992
sVheadersSize
p993
I663
sVbodySize
p994
I0
sVmethod
p995
VGET
p996
sVhttpVersion
p997
VHTTP/1.1
p998
ssVtimings
p999
(dp1000
Vcomment
p1001
g4
sVreceive
p1002
I0
sVsend
p1003
I0
sVssl
p1004
I19
sVconnect
p1005
I33
sVdns
p1006
I3
sVwait
p1007
I26
sVblocked
p1008
I0
ssVtime
p1009
I63
sVresponse
p1010
(dp1011
Vstatus
p1012
I204
sVcomment
p1013
g4
sVcookies
p1014
(lp1015
sVstatusText
p1016
VNo Content
p1017
sVcontent
p1018
(dp1019
VmimeType
p1020
Vtext/html; charset=UTF-8
p1021
sVcomment
p1022
g4
sVsize
p1023
I0
ssVheaders
p1024
(lp1025
sVheadersSize
p1026
I248
sVredirectURL
p1027
g4
sVbodySize
p1028
I0
sVhttpVersion
p1029
VHTTP/1.1
p1030
ssa(dp1031
Vcomment
p1032
g4
sVserverIPAddress
p1033
V216.58.216.196
p1034
sVpageref
p1035
VAleppo
p1036
sVstartedDateTime
p1037
V2017-04-16T08:01:52.134-05:00
p1038
sVcache
p1039
(dp1040
sVrequest
p1041
(dp1042
Vcomment
p1043
g4
sVcookies
p1044
(lp1045
sVurl
p1046
Vhttps://www.google.com/async/ampfp?vet=10ahUKEwjw6t64hKnTAhUI1oMKHeZcDEUQtZoBCPEB..i&ei=PWvzWLDYEIisjwTmubGoBA&yv=2&async=_id:ampfp-async,_pms:qs
p1047
sVqueryString
p1048
(lp1049
(dp1050
Vname
p1051
Vvet
p1052
sVvalue
p1053
V10ahUKEwjw6t64hKnTAhUI1oMKHeZcDEUQtZoBCPEB..i
p1054
sa(dp1055
Vname
p1056
Vei
p1057
sVvalue
p1058
VPWvzWLDYEIisjwTmubGoBA
p1059
sa(dp1060
Vname
p1061
Vyv
p1062
sVvalue
p1063
g64
sa(dp1064
Vname
p1065
Vasync
p1066
sVvalue
p1067
V_id:ampfp-async,_pms:qs
p1068
sasVheaders
p1069
(lp1070
sVheadersSize
p1071
I662
sVbodySize
p1072
I0
sVmethod
p1073
VGET
p1074
sVhttpVersion
p1075
VHTTP/1.1
p1076
ssVtimings
p1077
(dp1078
Vcomment
p1079
g4
sVreceive
p1080
I0
sVsend
p1081
I0
sVssl
p1082
I-1
sVconnect
p1083
I-1
sVdns
p1084
I-1
sVwait
p1085
I54
sVblocked
p1086
I-1
ssVtime
p1087
I55
sVresponse
p1088
(dp1089
Vstatus
p1090
I200
sVcomment
p1091
g4
sVcookies
p1092
(lp1093
sVstatusText
p1094
VOK
p1095
sVcontent
p1096
(dp1097
VmimeType
p1098
Vtext/html; charset=UTF-8
p1099
sVcomment
p1100
g4
sVsize
p1101
I0
ssVheaders
p1102
(lp1103
sVheadersSize
p1104
I383
sVredirectURL
p1105
g4
sVbodySize
p1106
I4527
sVhttpVersion
p1107
VHTTP/1.1
p1108
ssa(dp1109
Vcomment
p1110
g4
sVserverIPAddress
p1111
V216.58.216.193
p1112
sVpageref
p1113
VAleppo
p1114
sVstartedDateTime
p1115
V2017-04-16T08:01:52.135-05:00
p1116
sVcache
p1117
(dp1118
sVrequest
p1119
(dp1120
Vcomment
p1121
g4
sVcookies
p1122
(lp1123
sVurl
p1124
Vhttps://cdn.ampproject.org/preconnect.gif?0.6493338719376908
p1125
sVqueryString
p1126
(lp1127
(dp1128
Vname
p1129
V0.6493338719376908
p1130
sVvalue
p1131
g4
sasVheaders
p1132
(lp1133
sVheadersSize
p1134
I375
sVbodySize
p1135
I0
sVmethod
p1136
VGET
p1137
sVhttpVersion
p1138
VHTTP/1.1
p1139
ssVtimings
p1140
(dp1141
Vcomment
p1142
g4
sVreceive
p1143
I0
sVsend
p1144
I0
sVssl
p1145
I-1
sVconnect
p1146
I-1
sVdns
p1147
I-1
sVwait
p1148
I32
sVblocked
p1149
I-1
ssVtime
p1150
I32
sVresponse
p1151
(dp1152
Vstatus
p1153
I200
sVcomment
p1154
g4
sVcookies
p1155
(lp1156
sVstatusText
p1157
VOK
p1158
sVcontent
p1159
(dp1160
VmimeType
p1161
Vimage/gif
p1162
sVcomment
p1163
g4
sVsize
p1164
I0
ssVheaders
p1165
(lp1166
sVheadersSize
p1167
I826
sVredirectURL
p1168
g4
sVbodySize
p1169
I37
sVhttpVersion
p1170
VHTTP/1.1
p1171
ssa(dp1172
Vcomment
p1173
g4
sVserverIPAddress
p1174
V216.58.216.196
p1175
sVpageref
p1176
VAleppo
p1177
sVstartedDateTime
p1178
V2017-04-16T08:01:52.250-05:00
p1179
sVcache
p1180
(dp1181
sVrequest
p1182
(dp1183
Vcomment
p1184
g4
sVcookies
p1185
(lp1186
sVurl
p1187
Vhttps://www.google.com/xjs/_/js/k=xjs.qs.en_US.pCBXVCvTH3s.O/m=syi2,syi5,syi4,fpv,sy5d,sy8e,sya8,sy5e,sy91,sya6,sya7,sya9,amp,sp/am=gCP4LtMEBXQA2RUaq_oFBISzAFA/rt=j/d=0/t=zcms/rs=ACT90oFwm4NZCwIcuuiqmthdlECdBzkhRA
p1188
sVqueryString
p1189
(lp1190
sVheaders
p1191
(lp1192
sVheadersSize
p1193
I730
sVbodySize
p1194
I0
sVmethod
p1195
VGET
p1196
sVhttpVersion
p1197
VHTTP/1.1
p1198
ssVtimings
p1199
(dp1200
Vcomment
p1201
g4
sVreceive
p1202
I3
sVsend
p1203
I0
sVssl
p1204
I-1
sVconnect
p1205
I-1
sVdns
p1206
I-1
sVwait
p1207
I16
sVblocked
p1208
I-1
ssVtime
p1209
I20
sVresponse
p1210
(dp1211
Vstatus
p1212
I200
sVcomment
p1213
g4
sVcookies
p1214
(lp1215
sVstatusText
p1216
VOK
p1217
sVcontent
p1218
(dp1219
VmimeType
p1220
Vtext/javascript; charset=UTF-8
p1221
sVcomment
p1222
g4
sVsize
p1223
I0
ssVheaders
p1224
(lp1225
sVheadersSize
p1226
I464
sVredirectURL
p1227
g4
sVbodySize
p1228
I31576
sVhttpVersion
p1229
VHTTP/1.1
p1230
ssa(dp1231
Vcomment
p1232
g4
sVserverIPAddress
p1233
V216.58.216.196
p1234
sVpageref
p1235
VAleppo
p1236
sVstartedDateTime
p1237
V2017-04-16T08:01:52.317-05:00
p1238
sVcache
p1239
(dp1240
sVrequest
p1241
(dp1242
Vcomment
p1243
g4
sVcookies
p1244
(lp1245
sVurl
p1246
Vhttps://www.google.com/async/log_amp_item_set?vet=10ahUKEwj1hdK5hKnTAhWD8YMKHZmeAcgQooQBCAE..i&ei=PWvzWLDYEIisjwTmubGoBA&yv=2&async=num_items:1,_fmt:jspb
p1247
sVqueryString
p1248
(lp1249
(dp1250
Vname
p1251
Vvet
p1252
sVvalue
p1253
V10ahUKEwj1hdK5hKnTAhWD8YMKHZmeAcgQooQBCAE..i
p1254
sa(dp1255
Vname
p1256
Vei
p1257
sVvalue
p1258
VPWvzWLDYEIisjwTmubGoBA
p1259
sa(dp1260
Vname
p1261
Vyv
p1262
sVvalue
p1263
g64
sa(dp1264
Vname
p1265
Vasync
p1266
sVvalue
p1267
Vnum_items:1,_fmt:jspb
p1268
sasVheaders
p1269
(lp1270
sVheadersSize
p1271
I670
sVbodySize
p1272
I0
sVmethod
p1273
VGET
p1274
sVhttpVersion
p1275
VHTTP/1.1
p1276
ssVtimings
p1277
(dp1278
Vcomment
p1279
g4
sVreceive
p1280
I0
sVsend
p1281
I0
sVssl
p1282
I-1
sVconnect
p1283
I-1
sVdns
p1284
I-1
sVwait
p1285
I237
sVblocked
p1286
I-1
ssVtime
p1287
I237
sVresponse
p1288
(dp1289
Vstatus
p1290
I200
sVcomment
p1291
g4
sVcookies
p1292
(lp1293
sVstatusText
p1294
VOK
p1295
sVcontent
p1296
(dp1297
VmimeType
p1298
Vapplication/json; charset=UTF-8
p1299
sVcomment
p1300
g4
sVsize
p1301
I0
ssVheaders
p1302
(lp1303
sVheadersSize
p1304
I417
sVredirectURL
p1305
g4
sVbodySize
p1306
I132
sVhttpVersion
p1307
VHTTP/1.1
p1308
ssa(dp1309
Vcomment
p1310
g4
sVserverIPAddress
p1311
V216.58.216.193
p1312
sVpageref
p1313
VAleppo
p1314
sVstartedDateTime
p1315
V2017-04-16T08:01:52.893-05:00
p1316
sVcache
p1317
(dp1318
sVrequest
p1319
(dp1320
Vcomment
p1321
g4
sVcookies
p1322
(lp1323
sVurl
p1324
Vhttps://www-aljazeera-com.cdn.ampproject.org/v/www.aljazeera.com/amp/news/2017/04/explosion-hits-syrian-evacuation-convoy-aleppo-170415132111011.html?amp_js_v=9
p1325
sVqueryString
p1326
(lp1327
(dp1328
Vname
p1329
Vamp_js_v
p1330
sVvalue
p1331
V9
p1332
sasVheaders
p1333
(lp1334
sVheadersSize
p1335
I565
sVbodySize
p1336
I0
sVmethod
p1337
VGET
p1338
sVhttpVersion
p1339
VHTTP/1.1
p1340
ssVtimings
p1341
(dp1342
Vcomment
p1343
g4
sVreceive
p1344
I0
sVsend
p1345
I0
sVssl
p1346
I510
sVconnect
p1347
I523
sVdns
p1348
I42
sVwait
p1349
I63
sVblocked
p1350
I0
ssVtime
p1351
I628
sVresponse
p1352
(dp1353
Vstatus
p1354
I200
sVcomment
p1355
g4
sVcookies
p1356
(lp1357
sVstatusText
p1358
VOK
p1359
sVcontent
p1360
(dp1361
VmimeType
p1362
Vtext/html
p1363
sVcomment
p1364
g4
sVsize
p1365
I0
ssVheaders
p1366
(lp1367
sVheadersSize
p1368
I861
sVredirectURL
p1369
g4
sVbodySize
p1370
I4568
sVhttpVersion
p1371
VHTTP/1.1
p1372
ssa(dp1373
Vcomment
p1374
g4
sVserverIPAddress
p1375
V216.58.216.193
p1376
sVpageref
p1377
VAleppo
p1378
sVstartedDateTime
p1379
V2017-04-16T08:01:53.081-05:00
p1380
sVcache
p1381
(dp1382
sVrequest
p1383
(dp1384
Vcomment
p1385
g4
sVcookies
p1386
(lp1387
sVurl
p1388
Vhttps://www-aljazeera-com.cdn.ampproject.org/ii/w390/www.aljazeera.com/mritems/images/site/AljazeeraLogo.gif
p1389
sVqueryString
p1390
(lp1391
sVheaders
p1392
(lp1393
sVheadersSize
p1394
I560
sVbodySize
p1395
I0
sVmethod
p1396
VGET
p1397
sVhttpVersion
p1398
VHTTP/1.1
p1399
ssVtimings
p1400
(dp1401
Vcomment
p1402
g4
sVreceive
p1403
I0
sVsend
p1404
I0
sVssl
p1405
I-1
sVconnect
p1406
I-1
sVdns
p1407
I-1
sVwait
p1408
I23
sVblocked
p1409
I-1
ssVtime
p1410
I24
sVresponse
p1411
(dp1412
Vstatus
p1413
I200
sVcomment
p1414
g4
sVcookies
p1415
(lp1416
sVstatusText
p1417
VOK
p1418
sVcontent
p1419
(dp1420
VmimeType
p1421
Vimage/png
p1422
sVcomment
p1423
g4
sVsize
p1424
I0
ssVheaders
p1425
(lp1426
sVheadersSize
p1427
I822
sVredirectURL
p1428
g4
sVbodySize
p1429
I1765
sVhttpVersion
p1430
VHTTP/1.1
p1431
ssa(dp1432
Vcomment
p1433
g4
sVserverIPAddress
p1434
V216.58.216.196
p1435
sVpageref
p1436
VAleppo
p1437
sVstartedDateTime
p1438
V2017-04-16T08:01:53.166-05:00
p1439
sVcache
p1440
(dp1441
sVrequest
p1442
(dp1443
Vcomment
p1444
g4
sVcookies
p1445
(lp1446
sVurl
p1447
Vhttps://www.google.com/gen_204?s=web&atyp=csi&ei=PWvzWLDYEIisjwTmubGoBA&imc=40&imn=40&imp=15&adh=&xjs=init.43.15.sb_mob.30.dvl.6.vs.2.c.1.mbsf.1&ima=14&rt=prt.904,iml.1375,xjsls.904,dcl.1011,xjses.1041,xjsee.1238,xjs.1238,qiml.1452,ol.2793,aft.1375,wsrt.104,cst.0,dnst.0,rqst.970,rspt.877,rqstt.2,unt.2,cstt.2,dit.1055
p1448
sVqueryString
p1449
(lp1450
(dp1451
Vname
p1452
g57
sVvalue
p1453
Vweb
p1454
sa(dp1455
Vname
p1456
Vatyp
p1457
sVvalue
p1458
Vcsi
p1459
sa(dp1460
Vname
p1461
Vei
p1462
sVvalue
p1463
VPWvzWLDYEIisjwTmubGoBA
p1464
sa(dp1465
Vname
p1466
Vimc
p1467
sVvalue
p1468
V40
p1469
sa(dp1470
Vname
p1471
Vimn
p1472
sVvalue
p1473
V40
p1474
sa(dp1475
Vname
p1476
Vimp
p1477
sVvalue
p1478
V15
p1479
sa(dp1480
Vname
p1481
Vadh
p1482
sVvalue
p1483
g4
sa(dp1484
Vname
p1485
Vxjs
p1486
sVvalue
p1487
Vinit.43.15.sb_mob.30.dvl.6.vs.2.c.1.mbsf.1
p1488
sa(dp1489
Vname
p1490
Vima
p1491
sVvalue
p1492
V14
p1493
sa(dp1494
Vname
p1495
Vrt
p1496
sVvalue
p1497
Vprt.904,iml.1375,xjsls.904,dcl.1011,xjses.1041,xjsee.1238,xjs.1238,qiml.1452,ol.2793,aft.1375,wsrt.104,cst.0,dnst.0,rqst.970,rspt.877,rqstt.2,unt.2,cstt.2,dit.1055
p1498
sasVheaders
p1499
(lp1500
sVheadersSize
p1501
I835
sVbodySize
p1502
I0
sVmethod
p1503
VGET
p1504
sVhttpVersion
p1505
VHTTP/1.1
p1506
ssVtimings
p1507
(dp1508
Vcomment
p1509
g4
sVreceive
p1510
I0
sVsend
p1511
I0
sVssl
p1512
I-1
sVconnect
p1513
I-1
sVdns
p1514
I-1
sVwait
p1515
I24
sVblocked
p1516
I-1
ssVtime
p1517
I25
sVresponse
p1518
(dp1519
Vstatus
p1520
I204
sVcomment
p1521
g4
sVcookies
p1522
(lp1523
sVstatusText
p1524
VNo Content
p1525
sVcontent
p1526
(dp1527
VmimeType
p1528
Vtext/html; charset=UTF-8
p1529
sVcomment
p1530
g4
sVsize
p1531
I0
ssVheaders
p1532
(lp1533
sVheadersSize
p1534
I248
sVredirectURL
p1535
g4
sVbodySize
p1536
I0
sVhttpVersion
p1537
VHTTP/1.1
p1538
ssa(dp1539
Vcomment
p1540
g4
sVserverIPAddress
p1541
V216.58.216.196
p1542
sVpageref
p1543
VAleppo
p1544
sVstartedDateTime
p1545
V2017-04-16T08:01:54.078-05:00
p1546
sVcache
p1547
(dp1548
sVrequest
p1549
(dp1550
Vcomment
p1551
g4
sVcookies
p1552
(lp1553
sVurl
p1554
Vhttps://www.google.com/gen_204?atyp=i&ct=slh&cad=&ei=K2vzWLjrGeHMjwTMj77IAg&m=V&t=C&s=1&v=2&pv=0.6441440556369236&me=1:1492347694165,x:3,V,0,0,1280,944:0,N,1,K2vzWLjrGeHMjwTMj77IAg:0,R,1,24,8,155,1249,265:0,R,1,25,8,155,1249,265:0,R,1,29,1141,155,116,116:0,R,1,38,8,193,1133,40:0,R,1,50,8,287,1249,20:0,R,1,51,24,287,1217,20:0,R,1,54,8,323,1249,20:0,R,1,56,8,351,1249,20:0,R,1,64,24,430,1217,115:0,R,1,70,24,566,1217,135:0,R,1,76,24,722,1217,114:0,R,1,80,8,857,1249,251:6,B,2751:15609,e,U&zx=1492347714076
p1555
sVqueryString
p1556
(lp1557
(dp1558
Vname
p1559
Vatyp
p1560
sVvalue
p1561
g30
sa(dp1562
Vname
p1563
Vct
p1564
sVvalue
p1565
Vslh
p1566
sa(dp1567
Vname
p1568
Vcad
p1569
sVvalue
p1570
g4
sa(dp1571
Vname
p1572
Vei
p1573
sVvalue
p1574
VK2vzWLjrGeHMjwTMj77IAg
p1575
sa(dp1576
Vname
p1577
g47
sVvalue
p1578
g49
sa(dp1579
Vname
p1580
g52
sVvalue
p1581
g54
sa(dp1582
Vname
p1583
g57
sVvalue
p1584
g59
sa(dp1585
Vname
p1586
g62
sVvalue
p1587
g64
sa(dp1588
Vname
p1589
Vpv
p1590
sVvalue
p1591
V0.6441440556369236
p1592
sa(dp1593
Vname
p1594
Vme
p1595
sVvalue
p1596
V1:1492347694165,x:3,V,0,0,1280,944:0,N,1,K2vzWLjrGeHMjwTMj77IAg:0,R,1,24,8,155,1249,265:0,R,1,25,8,155,1249,265:0,R,1,29,1141,155,116,116:0,R,1,38,8,193,1133,40:0,R,1,50,8,287,1249,20:0,R,1,51,24,287,1217,20:0,R,1,54,8,323,1249,20:0,R,1,56,8,351,1249,20:0,R,1,64,24,430,1217,115:0,R,1,70,24,566,1217,135:0,R,1,76,24,722,1217,114:0,R,1,80,8,857,1249,251:6,B,2751:15609,e,U
p1597
sa(dp1598
Vname
p1599
Vzx
p1600
sVvalue
p1601
V1492347714076
p1602
sasVheaders
p1603
(lp1604
sVheadersSize
p1605
I1022
sVbodySize
p1606
I0
sVmethod
p1607
VGET
p1608
sVhttpVersion
p1609
VHTTP/1.1
p1610
ssVtimings
p1611
(dp1612
Vcomment
p1613
g4
sVreceive
p1614
I0
sVsend
p1615
I0
sVssl
p1616
I-1
sVconnect
p1617
I-1
sVdns
p1618
I-1
sVwait
p1619
I25
sVblocked
p1620
I-1
ssVtime
p1621
I25
sVresponse
p1622
(dp1623
Vstatus
p1624
I204
sVcomment
p1625
g4
sVcookies
p1626
(lp1627
sVstatusText
p1628
VNo Content
p1629
sVcontent
p1630
(dp1631
VmimeType
p1632
Vtext/html; charset=UTF-8
p1633
sVcomment
p1634
g4
sVsize
p1635
I0
ssVheaders
p1636
(lp1637
sVheadersSize
p1638
I248
sVredirectURL
p1639
g4
sVbodySize
p1640
I0
sVhttpVersion
p1641
VHTTP/1.1
p1642
ssasVversion
p1643
V1.2
p1644
sVpages
p1645
(lp1646
(dp1647
VpageTimings
p1648
(dp1649
Vcomment
p1650
g4
ssVcomment
p1651
g4
sVtitle
p1652
VAleppo
p1653
sVid
p1654
VAleppo
p1655
sVstartedDateTime
p1656
V2017-04-16T08:01:49.777-05:00
p1657
sasVcreator
p1658
(dp1659
Vcomment
p1660
g4
sVversion
p1661
V2.1.4
p1662
sVname
p1663
VBrowserMob Proxy
p1664
sss.