(dp0
Vlog
p1
(dp2
Vcomment
p3
V
p4
sVentries
p5
(lp6
(dp7
Vcomment
p8
g4
sVserverIPAddress
p9
V172.217.6.4
p10
sVpageref
p11
VCoors
p12
sVstartedDateTime
p13
V2017-04-16T08:44:02.982-05:00
p14
sVcache
p15
(dp16
sVrequest
p17
(dp18
Vcomment
p19
g4
sVcookies
p20
(lp21
sVurl
p22
Vhttps://www.google.com/gen_204?atyp=i&ct=slh&cad=&ei=DnXzWKiDLsHUjwSNvbWoDA&m=V&t=C&s=1&v=2&pv=0.38896341008231117&me=1:1492350226807,x:5,V,0,0,1280,944:0,N,1,DnXzWKiDLsHUjwSNvbWoDA:0,R,1,24,8,155,1249,513:0,R,1,25,8,155,1249,513:0,R,1,28,8,168,1249,40:0,R,1,41,8,220,1249,178:0,R,1,44,0,236,1265,197:0,R,1,84,8,415,1249,40:0,R,1,85,24,415,1217,40:0,R,1,124,8,678,1249,201:0,R,1,125,24,678,1217,190:0,R,1,128,8,889,1249,201:0,R,1,129,24,889,1217,190:5,B,3665:16164,e,U&zx=1492350242981
p23
sVqueryString
p24
(lp25
(dp26
Vname
p27
Vatyp
p28
sVvalue
p29
Vi
p30
sa(dp31
Vname
p32
Vct
p33
sVvalue
p34
Vslh
p35
sa(dp36
Vname
p37
Vcad
p38
sVvalue
p39
g4
sa(dp40
Vname
p41
Vei
p42
sVvalue
p43
VDnXzWKiDLsHUjwSNvbWoDA
p44
sa(dp45
Vname
p46
Vm
p47
sVvalue
p48
VV
p49
sa(dp50
Vname
p51
Vt
p52
sVvalue
p53
VC
p54
sa(dp55
Vname
p56
Vs
p57
sVvalue
p58
V1
p59
sa(dp60
Vname
p61
Vv
p62
sVvalue
p63
V2
p64
sa(dp65
Vname
p66
Vpv
p67
sVvalue
p68
V0.38896341008231117
p69
sa(dp70
Vname
p71
Vme
p72
sVvalue
p73
V1:1492350226807,x:5,V,0,0,1280,944:0,N,1,DnXzWKiDLsHUjwSNvbWoDA:0,R,1,24,8,155,1249,513:0,R,1,25,8,155,1249,513:0,R,1,28,8,168,1249,40:0,R,1,41,8,220,1249,178:0,R,1,44,0,236,1265,197:0,R,1,84,8,415,1249,40:0,R,1,85,24,415,1217,40:0,R,1,124,8,678,1249,201:0,R,1,125,24,678,1217,190:0,R,1,128,8,889,1249,201:0,R,1,129,24,889,1217,190:5,B,3665:16164,e,U
p74
sa(dp75
Vname
p76
Vzx
p77
sVvalue
p78
V1492350242981
p79
sasVheaders
p80
(lp81
sVheadersSize
p82
I1002
sVbodySize
p83
I0
sVmethod
p84
VGET
p85
sVhttpVersion
p86
VHTTP/1.1
p87
ssVtimings
p88
(dp89
Vcomment
p90
g4
sVreceive
p91
I0
sVsend
p92
I0
sVssl
p93
I-1
sVconnect
p94
I-1
sVdns
p95
I-1
sVwait
p96
I0
sVblocked
p97
I-1
ssVtime
p98
I0
sVresponse
p99
(dp100
Vstatus
p101
I0
sVcomment
p102
g4
sVcookies
p103
(lp104
sV_error
p105
VNo response received
p106
sVstatusText
p107
g4
sVcontent
p108
(dp109
VmimeType
p110
g4
sVcomment
p111
g4
sVsize
p112
I0
ssVheaders
p113
(lp114
sVheadersSize
p115
I-1
sVredirectURL
p116
g4
sVbodySize
p117
I-1
sVhttpVersion
p118
Vunknown
p119
ssa(dp120
Vcomment
p121
g4
sVserverIPAddress
p122
V172.217.6.4
p123
sVpageref
p124
VCoors
p125
sVstartedDateTime
p126
V2017-04-16T08:44:02.983-05:00
p127
sVcache
p128
(dp129
sVrequest
p130
(dp131
Vcomment
p132
g4
sVcookies
p133
(lp134
sVurl
p135
Vhttps://www.google.com/gen_204?atyp=i&ct=slh&cad=&ei=d3TzWK6wMKbUjwTI3aaACQ&s=2&v=2&pv=0.862083874440354&me=13:1492350096791,e,H&zx=1492350242982
p136
sVqueryString
p137
(lp138
(dp139
Vname
p140
Vatyp
p141
sVvalue
p142
g30
sa(dp143
Vname
p144
Vct
p145
sVvalue
p146
Vslh
p147
sa(dp148
Vname
p149
Vcad
p150
sVvalue
p151
g4
sa(dp152
Vname
p153
Vei
p154
sVvalue
p155
Vd3TzWK6wMKbUjwTI3aaACQ
p156
sa(dp157
Vname
p158
g57
sVvalue
p159
g64
sa(dp160
Vname
p161
g62
sVvalue
p162
g64
sa(dp163
Vname
p164
Vpv
p165
sVvalue
p166
V0.862083874440354
p167
sa(dp168
Vname
p169
Vme
p170
sVvalue
p171
V13:1492350096791,e,H
p172
sa(dp173
Vname
p174
Vzx
p175
sVvalue
p176
V1492350242982
p177
sasVheaders
p178
(lp179
sVheadersSize
p180
I662
sVbodySize
p181
I0
sVmethod
p182
VGET
p183
sVhttpVersion
p184
VHTTP/1.1
p185
ssVtimings
p186
(dp187
Vcomment
p188
g4
sVreceive
p189
I0
sVsend
p190
I0
sVssl
p191
I-1
sVconnect
p192
I-1
sVdns
p193
I-1
sVwait
p194
I0
sVblocked
p195
I-1
ssVtime
p196
I0
sVresponse
p197
(dp198
Vstatus
p199
I0
sVcomment
p200
g4
sVcookies
p201
(lp202
sV_error
p203
VNo response received
p204
sVstatusText
p205
g4
sVcontent
p206
(dp207
VmimeType
p208
g4
sVcomment
p209
g4
sVsize
p210
I0
ssVheaders
p211
(lp212
sVheadersSize
p213
I-1
sVredirectURL
p214
g4
sVbodySize
p215
I-1
sVhttpVersion
p216
Vunknown
p217
ssa(dp218
Vcomment
p219
g4
sVserverIPAddress
p220
V172.217.6.4
p221
sVpageref
p222
VCoors
p223
sVstartedDateTime
p224
V2017-04-16T08:44:02.983-05:00
p225
sVcache
p226
(dp227
sVrequest
p228
(dp229
Vcomment
p230
g4
sVcookies
p231
(lp232
sVurl
p233
Vhttps://www.google.com/gen_204?atyp=i&ct=slh&cad=&ei=1nTzWIvkGoLIjwTj-oXIBA&m=V&t=C&s=1&v=2&pv=0.9493251569752079&me=1:1492350169356,x:2,V,0,0,1280,944:0,N,1,1nTzWIvkGoLIjwTj-oXIBA:0,R,1,24,8,155,1249,284:0,R,1,47,8,449,1249,516:0,R,1,48,8,449,1249,516:0,R,1,52,1182,449,75,116:0,R,1,61,8,487,1174,40:0,R,1,73,8,565,1249,55:0,R,1,77,8,637,1249,20:0,R,1,78,24,637,1217,20:0,R,1,81,8,673,1249,20:0,R,1,86,8,701,1249,20:0,R,1,97,8,741,1249,151:0,R,1,98,8,790,1249,122:2,B,4218:11666,e,U&zx=1492350242982
p234
sVqueryString
p235
(lp236
(dp237
Vname
p238
Vatyp
p239
sVvalue
p240
g30
sa(dp241
Vname
p242
Vct
p243
sVvalue
p244
Vslh
p245
sa(dp246
Vname
p247
Vcad
p248
sVvalue
p249
g4
sa(dp250
Vname
p251
Vei
p252
sVvalue
p253
V1nTzWIvkGoLIjwTj-oXIBA
p254
sa(dp255
Vname
p256
g47
sVvalue
p257
g49
sa(dp258
Vname
p259
g52
sVvalue
p260
g54
sa(dp261
Vname
p262
g57
sVvalue
p263
g59
sa(dp264
Vname
p265
g62
sVvalue
p266
g64
sa(dp267
Vname
p268
Vpv
p269
sVvalue
p270
V0.9493251569752079
p271
sa(dp272
Vname
p273
Vme
p274
sVvalue
p275
V1:1492350169356,x:2,V,0,0,1280,944:0,N,1,1nTzWIvkGoLIjwTj-oXIBA:0,R,1,24,8,155,1249,284:0,R,1,47,8,449,1249,516:0,R,1,48,8,449,1249,516:0,R,1,52,1182,449,75,116:0,R,1,61,8,487,1174,40:0,R,1,73,8,565,1249,55:0,R,1,77,8,637,1249,20:0,R,1,78,24,637,1217,20:0,R,1,81,8,673,1249,20:0,R,1,86,8,701,1249,20:0,R,1,97,8,741,1249,151:0,R,1,98,8,790,1249,122:2,B,4218:11666,e,U
p276
sa(dp277
Vname
p278
Vzx
p279
sVvalue
p280
V1492350242982
p281
sasVheaders
p282
(lp283
sVheadersSize
p284
I1017
sVbodySize
p285
I0
sVmethod
p286
VGET
p287
sVhttpVersion
p288
VHTTP/1.1
p289
ssVtimings
p290
(dp291
Vcomment
p292
g4
sVreceive
p293
I0
sVsend
p294
I0
sVssl
p295
I-1
sVconnect
p296
I-1
sVdns
p297
I-1
sVwait
p298
I0
sVblocked
p299
I-1
ssVtime
p300
I0
sVresponse
p301
(dp302
Vstatus
p303
I0
sVcomment
p304
g4
sVcookies
p305
(lp306
sV_error
p307
VNo response received
p308
sVstatusText
p309
g4
sVcontent
p310
(dp311
VmimeType
p312
g4
sVcomment
p313
g4
sVsize
p314
I0
ssVheaders
p315
(lp316
sVheadersSize
p317
I-1
sVredirectURL
p318
g4
sVbodySize
p319
I-1
sVhttpVersion
p320
Vunknown
p321
ssa(dp322
Vcomment
p323
g4
sVserverIPAddress
p324
V172.217.6.4
p325
sVpageref
p326
VCoors
p327
sVstartedDateTime
p328
V2017-04-16T08:44:02.987-05:00
p329
sVcache
p330
(dp331
sVrequest
p332
(dp333
Vcomment
p334
g4
sVcookies
p335
(lp336
sVurl
p337
Vhttp://www.google.com/
p338
sVqueryString
p339
(lp340
sVheaders
p341
(lp342
sVheadersSize
p343
I613
sVbodySize
p344
I0
sVmethod
p345
VGET
p346
sVhttpVersion
p347
VHTTP/1.1
p348
ssVtimings
p349
(dp350
Vcomment
p351
g4
sVreceive
p352
I0
sVsend
p353
I0
sVssl
p354
I-1
sVconnect
p355
I-1
sVdns
p356
I-1
sVwait
p357
I54
sVblocked
p358
I-1
ssVtime
p359
I55
sVresponse
p360
(dp361
Vstatus
p362
I302
sVcomment
p363
g4
sVcookies
p364
(lp365
sVstatusText
p366
VFound
p367
sVcontent
p368
(dp369
VmimeType
p370
Vtext/html; charset=UTF-8
p371
sVcomment
p372
g4
sVsize
p373
I0
ssVheaders
p374
(lp375
sVheadersSize
p376
I609
sVredirectURL
p377
Vhttps://www.google.com/?gws_rd=ssl
p378
sVbodySize
p379
I231
sVhttpVersion
p380
VHTTP/1.1
p381
ssa(dp382
Vcomment
p383
g4
sVserverIPAddress
p384
V172.217.6.4
p385
sVpageref
p386
VCoors
p387
sVstartedDateTime
p388
V2017-04-16T08:44:03.046-05:00
p389
sVcache
p390
(dp391
sVrequest
p392
(dp393
Vcomment
p394
g4
sVcookies
p395
(lp396
sVurl
p397
Vhttps://www.google.com/?gws_rd=ssl
p398
sVqueryString
p399
(lp400
(dp401
Vname
p402
Vgws_rd
p403
sVvalue
p404
Vssl
p405
sasVheaders
p406
(lp407
sVheadersSize
p408
I607
sVbodySize
p409
I0
sVmethod
p410
VGET
p411
sVhttpVersion
p412
VHTTP/1.1
p413
ssVtimings
p414
(dp415
Vcomment
p416
g4
sVreceive
p417
I28
sVsend
p418
I0
sVssl
p419
I-1
sVconnect
p420
I-1
sVdns
p421
I-1
sVwait
p422
I78
sVblocked
p423
I-1
ssVtime
p424
I106
sVresponse
p425
(dp426
Vstatus
p427
I200
sVcomment
p428
g4
sVcookies
p429
(lp430
sVstatusText
p431
VOK
p432
sVcontent
p433
(dp434
VmimeType
p435
Vtext/html; charset=UTF-8
p436
sVcomment
p437
g4
sVsize
p438
I0
ssVheaders
p439
(lp440
sVheadersSize
p441
I721
sVredirectURL
p442
g4
sVbodySize
p443
I34290
sVhttpVersion
p444
VHTTP/1.1
p445
ssa(dp446
Vcomment
p447
g4
sVserverIPAddress
p448
V172.217.6.4
p449
sVpageref
p450
VCoors
p451
sVstartedDateTime
p452
V2017-04-16T08:44:03.389-05:00
p453
sVcache
p454
(dp455
sVrequest
p456
(dp457
Vcomment
p458
g4
sVcookies
p459
(lp460
sVurl
p461
Vhttps://www.google.com/gen_204?s=mobilewebhp&atyp=csi&ei=InXzWLXbAeXgjwSQmJKgDg&imc=1&imn=1&imp=0&adh=&xjs=init.28.12.sb_mob.21.dvl.3.c.1.jsa.1.r.1&ima=1&rt=xjsls.10,prt.21,iml.21,dcl.53,xjses.110,xjsee.200,xjs.200,ol.236,aft.21,wsrt.167,cst.0,dnst.0,rqst.108,rspt.29,rqstt.65,unt.63,cstt.63,dit.209
p462
sVqueryString
p463
(lp464
(dp465
Vname
p466
g57
sVvalue
p467
Vmobilewebhp
p468
sa(dp469
Vname
p470
Vatyp
p471
sVvalue
p472
Vcsi
p473
sa(dp474
Vname
p475
Vei
p476
sVvalue
p477
VInXzWLXbAeXgjwSQmJKgDg
p478
sa(dp479
Vname
p480
Vimc
p481
sVvalue
p482
g59
sa(dp483
Vname
p484
Vimn
p485
sVvalue
p486
g59
sa(dp487
Vname
p488
Vimp
p489
sVvalue
p490
V0
p491
sa(dp492
Vname
p493
Vadh
p494
sVvalue
p495
g4
sa(dp496
Vname
p497
Vxjs
p498
sVvalue
p499
Vinit.28.12.sb_mob.21.dvl.3.c.1.jsa.1.r.1
p500
sa(dp501
Vname
p502
Vima
p503
sVvalue
p504
g59
sa(dp505
Vname
p506
Vrt
p507
sVvalue
p508
Vxjsls.10,prt.21,iml.21,dcl.53,xjses.110,xjsee.200,xjs.200,ol.236,aft.21,wsrt.167,cst.0,dnst.0,rqst.108,rspt.29,rqstt.65,unt.63,cstt.63,dit.209
p509
sasVheaders
p510
(lp511
sVheadersSize
p512
I827
sVbodySize
p513
I0
sVmethod
p514
VGET
p515
sVhttpVersion
p516
VHTTP/1.1
p517
ssVtimings
p518
(dp519
Vcomment
p520
g4
sVreceive
p521
I0
sVsend
p522
I0
sVssl
p523
I-1
sVconnect
p524
I-1
sVdns
p525
I-1
sVwait
p526
I26
sVblocked
p527
I-1
ssVtime
p528
I27
sVresponse
p529
(dp530
Vstatus
p531
I204
sVcomment
p532
g4
sVcookies
p533
(lp534
sVstatusText
p535
VNo Content
p536
sVcontent
p537
(dp538
VmimeType
p539
Vtext/html; charset=UTF-8
p540
sVcomment
p541
g4
sVsize
p542
I0
ssVheaders
p543
(lp544
sVheadersSize
p545
I248
sVredirectURL
p546
g4
sVbodySize
p547
I0
sVhttpVersion
p548
VHTTP/1.1
p549
ssa(dp550
Vcomment
p551
g4
sVserverIPAddress
p552
V172.217.6.4
p553
sVpageref
p554
VCoors
p555
sVstartedDateTime
p556
V2017-04-16T08:44:03.544-05:00
p557
sVcache
p558
(dp559
sVrequest
p560
(dp561
Vcomment
p562
g4
sVcookies
p563
(lp564
sVurl
p565
Vhttps://www.google.com/complete/search?client=mobile-gws-hp&hl=en&gs_rn=64&gs_ri=mobile-gws-hp&sla=1&pfq=coors&gm=602&cp=0&gs_id=1&xhr=t&q=C&tch=1&ech=1&psi=InXzWLXbAeXgjwSQmJKgDg.1492350243322.1
p566
sVqueryString
p567
(lp568
(dp569
Vname
p570
Vclient
p571
sVvalue
p572
Vmobile-gws-hp
p573
sa(dp574
Vname
p575
Vhl
p576
sVvalue
p577
Ven
p578
sa(dp579
Vname
p580
Vgs_rn
p581
sVvalue
p582
V64
p583
sa(dp584
Vname
p585
Vgs_ri
p586
sVvalue
p587
Vmobile-gws-hp
p588
sa(dp589
Vname
p590
Vsla
p591
sVvalue
p592
g59
sa(dp593
Vname
p594
Vpfq
p595
sVvalue
p596
Vcoors
p597
sa(dp598
Vname
p599
Vgm
p600
sVvalue
p601
V602
p602
sa(dp603
Vname
p604
Vcp
p605
sVvalue
p606
g491
sa(dp607
Vname
p608
Vgs_id
p609
sVvalue
p610
g59
sa(dp611
Vname
p612
Vxhr
p613
sVvalue
p614
g52
sa(dp615
Vname
p616
Vq
p617
sVvalue
p618
g54
sa(dp619
Vname
p620
Vtch
p621
sVvalue
p622
g59
sa(dp623
Vname
p624
Vech
p625
sVvalue
p626
g59
sa(dp627
Vname
p628
Vpsi
p629
sVvalue
p630
VInXzWLXbAeXgjwSQmJKgDg.1492350243322.1
p631
sasVheaders
p632
(lp633
sVheadersSize
p634
I723
sVbodySize
p635
I0
sVmethod
p636
VGET
p637
sVhttpVersion
p638
VHTTP/1.1
p639
ssVtimings
p640
(dp641
Vcomment
p642
g4
sVreceive
p643
I0
sVsend
p644
I0
sVssl
p645
I-1
sVconnect
p646
I-1
sVdns
p647
I-1
sVwait
p648
I0
sVblocked
p649
I-1
ssVtime
p650
I0
sVresponse
p651
(dp652
Vstatus
p653
I0
sVcomment
p654
g4
sVcookies
p655
(lp656
sV_error
p657
VNo response received
p658
sVstatusText
p659
g4
sVcontent
p660
(dp661
VmimeType
p662
g4
sVcomment
p663
g4
sVsize
p664
I0
ssVheaders
p665
(lp666
sVheadersSize
p667
I-1
sVredirectURL
p668
g4
sVbodySize
p669
I-1
sVhttpVersion
p670
Vunknown
p671
ssa(dp672
Vcomment
p673
g4
sVserverIPAddress
p674
V172.217.6.4
p675
sVpageref
p676
VCoors
p677
sVstartedDateTime
p678
V2017-04-16T08:44:03.592-05:00
p679
sVcache
p680
(dp681
sVrequest
p682
(dp683
Vcomment
p684
g4
sVcookies
p685
(lp686
sVurl
p687
Vhttps://www.google.com/search?site=&source=hp&ei=InXzWLXbAeXgjwSQmJKgDg&q=Coors&oq=Coors&gs_l=mobile-gws-hp.3...199.211.0.244.5.1.0.0.0.0.0.0..0.0....0...1c.1.64.mobile-gws-hp..5.0.0.oR3z3mwhyIU
p688
sVqueryString
p689
(lp690
(dp691
Vname
p692
Vsite
p693
sVvalue
p694
g4
sa(dp695
Vname
p696
Vsource
p697
sVvalue
p698
Vhp
p699
sa(dp700
Vname
p701
Vei
p702
sVvalue
p703
VInXzWLXbAeXgjwSQmJKgDg
p704
sa(dp705
Vname
p706
g617
sVvalue
p707
VCoors
p708
sa(dp709
Vname
p710
Voq
p711
sVvalue
p712
VCoors
p713
sa(dp714
Vname
p715
Vgs_l
p716
sVvalue
p717
Vmobile-gws-hp.3...199.211.0.244.5.1.0.0.0.0.0.0..0.0....0...1c.1.64.mobile-gws-hp..5.0.0.oR3z3mwhyIU
p718
sasVheaders
p719
(lp720
sVheadersSize
p721
I812
sVbodySize
p722
I0
sVmethod
p723
VGET
p724
sVhttpVersion
p725
VHTTP/1.1
p726
ssVtimings
p727
(dp728
Vcomment
p729
g4
sVreceive
p730
I1064
sVsend
p731
I0
sVssl
p732
I-1
sVconnect
p733
I-1
sVdns
p734
I-1
sVwait
p735
I120
sVblocked
p736
I-1
ssVtime
p737
I1185
sVresponse
p738
(dp739
Vstatus
p740
I200
sVcomment
p741
g4
sVcookies
p742
(lp743
sVstatusText
p744
VOK
p745
sVcontent
p746
(dp747
VmimeType
p748
Vtext/html; charset=UTF-8
p749
sVcomment
p750
g4
sVsize
p751
I0
ssVheaders
p752
(lp753
sVheadersSize
p754
I363
sVredirectURL
p755
g4
sVbodySize
p756
I219640
sVhttpVersion
p757
VHTTP/1.1
p758
ssa(dp759
Vcomment
p760
g4
sVserverIPAddress
p761
V172.217.6.4
p762
sVpageref
p763
VCoors
p764
sVstartedDateTime
p765
V2017-04-16T08:44:04.637-05:00
p766
sVcache
p767
(dp768
sVrequest
p769
(dp770
Vcomment
p771
g4
sVcookies
p772
(lp773
sVurl
p774
Vhttps://www.google.com/gen_204?atyp=i&ct=&cad=udla=1&ei=InXzWLKCI6upjwSk9LOYBg&b=0&act=p&ps=0&zx=1492350244582
p775
sVqueryString
p776
(lp777
(dp778
Vname
p779
Vatyp
p780
sVvalue
p781
g30
sa(dp782
Vname
p783
Vct
p784
sVvalue
p785
g4
sa(dp786
Vname
p787
Vcad
p788
sVvalue
p789
Vudla=1
p790
sa(dp791
Vname
p792
Vei
p793
sVvalue
p794
VInXzWLKCI6upjwSk9LOYBg
p795
sa(dp796
Vname
p797
Vb
p798
sVvalue
p799
g491
sa(dp800
Vname
p801
Vact
p802
sVvalue
p803
Vp
p804
sa(dp805
Vname
p806
Vps
p807
sVvalue
p808
g491
sa(dp809
Vname
p810
Vzx
p811
sVvalue
p812
V1492350244582
p813
sasVheaders
p814
(lp815
sVheadersSize
p816
I627
sVbodySize
p817
I0
sVmethod
p818
VGET
p819
sVhttpVersion
p820
VHTTP/1.1
p821
ssVtimings
p822
(dp823
Vcomment
p824
g4
sVreceive
p825
I0
sVsend
p826
I0
sVssl
p827
I30
sVconnect
p828
I48
sVdns
p829
I0
sVwait
p830
I28
sVblocked
p831
I0
ssVtime
p832
I77
sVresponse
p833
(dp834
Vstatus
p835
I204
sVcomment
p836
g4
sVcookies
p837
(lp838
sVstatusText
p839
VNo Content
p840
sVcontent
p841
(dp842
VmimeType
p843
Vtext/html; charset=UTF-8
p844
sVcomment
p845
g4
sVsize
p846
I0
ssVheaders
p847
(lp848
sVheadersSize
p849
I248
sVredirectURL
p850
g4
sVbodySize
p851
I0
sVhttpVersion
p852
VHTTP/1.1
p853
ssa(dp854
Vcomment
p855
g4
sVserverIPAddress
p856
V172.217.6.4
p857
sVpageref
p858
VCoors
p859
sVstartedDateTime
p860
V2017-04-16T08:44:05.529-05:00
p861
sVcache
p862
(dp863
sVrequest
p864
(dp865
Vcomment
p866
g4
sVcookies
p867
(lp868
sVurl
p869
Vhttps://www.google.com/gen_204?s=lu&atyp=csi&ei=InXzWLKCI6upjwSk9LOYBg&ima=4&rt=lmap.1742,aft.1308,wsrt.1643,cst.0,dnst.0,rqst.1187,rspt.1065,rqstt.2,unt.2,cstt.2,dit.1313
p870
sVqueryString
p871
(lp872
(dp873
Vname
p874
g57
sVvalue
p875
Vlu
p876
sa(dp877
Vname
p878
Vatyp
p879
sVvalue
p880
Vcsi
p881
sa(dp882
Vname
p883
Vei
p884
sVvalue
p885
VInXzWLKCI6upjwSk9LOYBg
p886
sa(dp887
Vname
p888
Vima
p889
sVvalue
p890
V4
p891
sa(dp892
Vname
p893
Vrt
p894
sVvalue
p895
Vlmap.1742,aft.1308,wsrt.1643,cst.0,dnst.0,rqst.1187,rspt.1065,rqstt.2,unt.2,cstt.2,dit.1313
p896
sasVheaders
p897
(lp898
sVheadersSize
p899
I688
sVbodySize
p900
I0
sVmethod
p901
VGET
p902
sVhttpVersion
p903
VHTTP/1.1
p904
ssVtimings
p905
(dp906
Vcomment
p907
g4
sVreceive
p908
I0
sVsend
p909
I0
sVssl
p910
I-1
sVconnect
p911
I-1
sVdns
p912
I-1
sVwait
p913
I37
sVblocked
p914
I-1
ssVtime
p915
I38
sVresponse
p916
(dp917
Vstatus
p918
I204
sVcomment
p919
g4
sVcookies
p920
(lp921
sVstatusText
p922
VNo Content
p923
sVcontent
p924
(dp925
VmimeType
p926
Vtext/html; charset=UTF-8
p927
sVcomment
p928
g4
sVsize
p929
I0
ssVheaders
p930
(lp931
sVheadersSize
p932
I248
sVredirectURL
p933
g4
sVbodySize
p934
I0
sVhttpVersion
p935
VHTTP/1.1
p936
ssa(dp937
Vcomment
p938
g4
sVserverIPAddress
p939
V172.217.6.4
p940
sVpageref
p941
VCoors
p942
sVstartedDateTime
p943
V2017-04-16T08:44:05.987-05:00
p944
sVcache
p945
(dp946
sVrequest
p947
(dp948
Vcomment
p949
g4
sVcookies
p950
(lp951
sVurl
p952
Vhttps://www.google.com/async/irc?vet=10ahUKEwiym9vwjanTAhWr1IMKHST6DGMQo0EI-QI..i&ved=0ahUKEwiym9vwjanTAhWr1IMKHST6DGMQo0EI-QI&ei=InXzWLKCI6upjwSk9LOYBg&yv=2&async=iu:1,ved:0ahUKEwiym9vwjanTAhWr1IMKHST6DGMQo0EI-QI,_id:irc_async,_pms:qs
p953
sVqueryString
p954
(lp955
(dp956
Vname
p957
Vvet
p958
sVvalue
p959
V10ahUKEwiym9vwjanTAhWr1IMKHST6DGMQo0EI-QI..i
p960
sa(dp961
Vname
p962
Vved
p963
sVvalue
p964
V0ahUKEwiym9vwjanTAhWr1IMKHST6DGMQo0EI-QI
p965
sa(dp966
Vname
p967
Vei
p968
sVvalue
p969
VInXzWLKCI6upjwSk9LOYBg
p970
sa(dp971
Vname
p972
Vyv
p973
sVvalue
p974
g64
sa(dp975
Vname
p976
Vasync
p977
sVvalue
p978
Viu:1,ved:0ahUKEwiym9vwjanTAhWr1IMKHST6DGMQo0EI-QI,_id:irc_async,_pms:qs
p979
sasVheaders
p980
(lp981
sVheadersSize
p982
I752
sVbodySize
p983
I0
sVmethod
p984
VGET
p985
sVhttpVersion
p986
VHTTP/1.1
p987
ssVtimings
p988
(dp989
Vcomment
p990
g4
sVreceive
p991
I0
sVsend
p992
I0
sVssl
p993
I-1
sVconnect
p994
I-1
sVdns
p995
I-1
sVwait
p996
I65
sVblocked
p997
I-1
ssVtime
p998
I66
sVresponse
p999
(dp1000
Vstatus
p1001
I200
sVcomment
p1002
g4
sVcookies
p1003
(lp1004
sVstatusText
p1005
VOK
p1006
sVcontent
p1007
(dp1008
VmimeType
p1009
Vtext/html; charset=UTF-8
p1010
sVcomment
p1011
g4
sVsize
p1012
I0
ssVheaders
p1013
(lp1014
sVheadersSize
p1015
I383
sVredirectURL
p1016
g4
sVbodySize
p1017
I7790
sVhttpVersion
p1018
VHTTP/1.1
p1019
ssa(dp1020
Vcomment
p1021
g4
sVserverIPAddress
p1022
V216.58.216.193
p1023
sVpageref
p1024
VCoors
p1025
sVstartedDateTime
p1026
V2017-04-16T08:44:06.117-05:00
p1027
sVcache
p1028
(dp1029
sVrequest
p1030
(dp1031
Vcomment
p1032
g4
sVcookies
p1033
(lp1034
sVurl
p1035
Vhttps://cdn.ampproject.org/preconnect.gif?0.5671631410919119
p1036
sVqueryString
p1037
(lp1038
(dp1039
Vname
p1040
V0.5671631410919119
p1041
sVvalue
p1042
g4
sasVheaders
p1043
(lp1044
sVheadersSize
p1045
I375
sVbodySize
p1046
I0
sVmethod
p1047
VGET
p1048
sVhttpVersion
p1049
VHTTP/1.1
p1050
ssVtimings
p1051
(dp1052
Vcomment
p1053
g4
sVreceive
p1054
I0
sVsend
p1055
I0
sVssl
p1056
I-1
sVconnect
p1057
I-1
sVdns
p1058
I-1
sVwait
p1059
I90
sVblocked
p1060
I-1
ssVtime
p1061
I90
sVresponse
p1062
(dp1063
Vstatus
p1064
I200
sVcomment
p1065
g4
sVcookies
p1066
(lp1067
sVstatusText
p1068
VOK
p1069
sVcontent
p1070
(dp1071
VmimeType
p1072
Vimage/gif
p1073
sVcomment
p1074
g4
sVsize
p1075
I0
ssVheaders
p1076
(lp1077
sVheadersSize
p1078
I826
sVredirectURL
p1079
g4
sVbodySize
p1080
I37
sVhttpVersion
p1081
VHTTP/1.1
p1082
ssa(dp1083
Vcomment
p1084
g4
sVserverIPAddress
p1085
V172.217.6.4
p1086
sVpageref
p1087
VCoors
p1088
sVstartedDateTime
p1089
V2017-04-16T08:44:06.357-05:00
p1090
sVcache
p1091
(dp1092
sVrequest
p1093
(dp1094
Vcomment
p1095
g4
sVcookies
p1096
(lp1097
sVurl
p1098
Vhttps://www.google.com/gen_204?s=web&atyp=csi&ei=InXzWLKCI6upjwSk9LOYBg&imc=43&imn=43&imp=28&adh=&xjs=init.56.15.sb_mob.35.dvl.8.vs.5.trex.2.c.1&ima=4&rt=prt.978,iml.1308,xjsls.978,dcl.1298,xjses.1322,xjsee.1537,xjs.1538,qiml.2596,ol.2603,aft.1308,wsrt.135,cst.0,dnst.0,rqst.1187,rspt.1065,rqstt.2,unt.2,cstt.2,dit.1313
p1099
sVqueryString
p1100
(lp1101
(dp1102
Vname
p1103
g57
sVvalue
p1104
Vweb
p1105
sa(dp1106
Vname
p1107
Vatyp
p1108
sVvalue
p1109
Vcsi
p1110
sa(dp1111
Vname
p1112
Vei
p1113
sVvalue
p1114
VInXzWLKCI6upjwSk9LOYBg
p1115
sa(dp1116
Vname
p1117
Vimc
p1118
sVvalue
p1119
V43
p1120
sa(dp1121
Vname
p1122
Vimn
p1123
sVvalue
p1124
V43
p1125
sa(dp1126
Vname
p1127
Vimp
p1128
sVvalue
p1129
V28
p1130
sa(dp1131
Vname
p1132
Vadh
p1133
sVvalue
p1134
g4
sa(dp1135
Vname
p1136
Vxjs
p1137
sVvalue
p1138
Vinit.56.15.sb_mob.35.dvl.8.vs.5.trex.2.c.1
p1139
sa(dp1140
Vname
p1141
Vima
p1142
sVvalue
p1143
g891
sa(dp1144
Vname
p1145
Vrt
p1146
sVvalue
p1147
Vprt.978,iml.1308,xjsls.978,dcl.1298,xjses.1322,xjsee.1537,xjs.1538,qiml.2596,ol.2603,aft.1308,wsrt.135,cst.0,dnst.0,rqst.1187,rspt.1065,rqstt.2,unt.2,cstt.2,dit.1313
p1148
sasVheaders
p1149
(lp1150
sVheadersSize
p1151
I836
sVbodySize
p1152
I0
sVmethod
p1153
VGET
p1154
sVhttpVersion
p1155
VHTTP/1.1
p1156
ssVtimings
p1157
(dp1158
Vcomment
p1159
g4
sVreceive
p1160
I0
sVsend
p1161
I0
sVssl
p1162
I-1
sVconnect
p1163
I-1
sVdns
p1164
I-1
sVwait
p1165
I28
sVblocked
p1166
I-1
ssVtime
p1167
I29
sVresponse
p1168
(dp1169
Vstatus
p1170
I204
sVcomment
p1171
g4
sVcookies
p1172
(lp1173
sVstatusText
p1174
VNo Content
p1175
sVcontent
p1176
(dp1177
VmimeType
p1178
Vtext/html; charset=UTF-8
p1179
sVcomment
p1180
g4
sVsize
p1181
I0
ssVheaders
p1182
(lp1183
sVheadersSize
p1184
I248
sVredirectURL
p1185
g4
sVbodySize
p1186
I0
sVhttpVersion
p1187
VHTTP/1.1
p1188
ssa(dp1189
Vcomment
p1190
g4
sVserverIPAddress
p1191
V172.217.6.4
p1192
sVpageref
p1193
VCoors
p1194
sVstartedDateTime
p1195
V2017-04-16T08:44:08.090-05:00
p1196
sVcache
p1197
(dp1198
sVrequest
p1199
(dp1200
Vcomment
p1201
g4
sVcookies
p1202
(lp1203
sVurl
p1204
Vhttps://www.google.com/gen_204?atyp=i&ct=slh&cad=&ei=1nTzWIvkGoLIjwTj-oXIBA&m=V&t=C&s=1&v=2&pv=0.9493251569752079&me=1:1492350169356,x:2,V,0,0,1280,944:0,N,1,1nTzWIvkGoLIjwTj-oXIBA:0,R,1,24,8,155,1249,284:0,R,1,47,8,449,1249,516:0,R,1,48,8,449,1249,516:0,R,1,52,1182,449,75,116:0,R,1,61,8,487,1174,40:0,R,1,73,8,565,1249,55:0,R,1,77,8,637,1249,20:0,R,1,78,24,637,1217,20:0,R,1,81,8,673,1249,20:0,R,1,86,8,701,1249,20:0,R,1,97,8,741,1249,151:0,R,1,98,8,790,1249,122:2,B,4218:11666,e,U&zx=1492350248089
p1205
sVqueryString
p1206
(lp1207
(dp1208
Vname
p1209
Vatyp
p1210
sVvalue
p1211
g30
sa(dp1212
Vname
p1213
Vct
p1214
sVvalue
p1215
Vslh
p1216
sa(dp1217
Vname
p1218
Vcad
p1219
sVvalue
p1220
g4
sa(dp1221
Vname
p1222
Vei
p1223
sVvalue
p1224
V1nTzWIvkGoLIjwTj-oXIBA
p1225
sa(dp1226
Vname
p1227
g47
sVvalue
p1228
g49
sa(dp1229
Vname
p1230
g52
sVvalue
p1231
g54
sa(dp1232
Vname
p1233
g57
sVvalue
p1234
g59
sa(dp1235
Vname
p1236
g62
sVvalue
p1237
g64
sa(dp1238
Vname
p1239
Vpv
p1240
sVvalue
p1241
V0.9493251569752079
p1242
sa(dp1243
Vname
p1244
Vme
p1245
sVvalue
p1246
V1:1492350169356,x:2,V,0,0,1280,944:0,N,1,1nTzWIvkGoLIjwTj-oXIBA:0,R,1,24,8,155,1249,284:0,R,1,47,8,449,1249,516:0,R,1,48,8,449,1249,516:0,R,1,52,1182,449,75,116:0,R,1,61,8,487,1174,40:0,R,1,73,8,565,1249,55:0,R,1,77,8,637,1249,20:0,R,1,78,24,637,1217,20:0,R,1,81,8,673,1249,20:0,R,1,86,8,701,1249,20:0,R,1,97,8,741,1249,151:0,R,1,98,8,790,1249,122:2,B,4218:11666,e,U
p1247
sa(dp1248
Vname
p1249
Vzx
p1250
sVvalue
p1251
V1492350248089
p1252
sasVheaders
p1253
(lp1254
sVheadersSize
p1255
I1017
sVbodySize
p1256
I0
sVmethod
p1257
VGET
p1258
sVhttpVersion
p1259
VHTTP/1.1
p1260
ssVtimings
p1261
(dp1262
Vcomment
p1263
g4
sVreceive
p1264
I0
sVsend
p1265
I0
sVssl
p1266
I-1
sVconnect
p1267
I-1
sVdns
p1268
I-1
sVwait
p1269
I26
sVblocked
p1270
I-1
ssVtime
p1271
I27
sVresponse
p1272
(dp1273
Vstatus
p1274
I204
sVcomment
p1275
g4
sVcookies
p1276
(lp1277
sVstatusText
p1278
VNo Content
p1279
sVcontent
p1280
(dp1281
VmimeType
p1282
Vtext/html; charset=UTF-8
p1283
sVcomment
p1284
g4
sVsize
p1285
I0
ssVheaders
p1286
(lp1287
sVheadersSize
p1288
I248
sVredirectURL
p1289
g4
sVbodySize
p1290
I0
sVhttpVersion
p1291
VHTTP/1.1
p1292
ssasVversion
p1293
V1.2
p1294
sVpages
p1295
(lp1296
(dp1297
VpageTimings
p1298
(dp1299
Vcomment
p1300
g4
ssVcomment
p1301
g4
sVtitle
p1302
VCoors
p1303
sVid
p1304
VCoors
p1305
sVstartedDateTime
p1306
V2017-04-16T08:44:02.972-05:00
p1307
sasVcreator
p1308
(dp1309
Vcomment
p1310
g4
sVversion
p1311
V2.1.4
p1312
sVname
p1313
VBrowserMob Proxy
p1314
sss.