(dp0
Vlog
p1
(dp2
Vcomment
p3
V
p4
sVentries
p5
(lp6
(dp7
Vcomment
p8
g4
sVserverIPAddress
p9
V216.58.216.196
p10
sVpageref
p11
VAroldis Chapman
p12
sVstartedDateTime
p13
V2017-04-16T08:24:02.013-05:00
p14
sVcache
p15
(dp16
sVrequest
p17
(dp18
Vcomment
p19
g4
sVcookies
p20
(lp21
sVurl
p22
Vhttps://www.google.com/gen_204?atyp=i&ct=slh&cad=&ei=XnDzWKuPEsTHjwTa5pT4Dw&m=V&t=C&s=1&v=2&pv=0.15842354180692875&me=1:1492349025308,x:2,V,0,0,1280,944:0,N,1,XnDzWKuPEsTHjwTa5pT4Dw:0,R,1,24,8,155,1249,405:0,R,1,25,8,155,1249,405:0,R,1,28,8,168,1249,40:0,R,1,41,8,220,1249,146:0,R,1,44,0,236,1265,165:0,R,1,84,8,383,1249,40:0,R,1,85,24,383,1217,40:0,R,1,93,8,439,1249,20:0,R,1,96,8,467,1249,20:0,R,1,135,8,570,1249,359:0,R,1,136,8,614,1249,315:0,R,1,137,0,614,1265,335:0,R,1,169,8,939,1249,201:0,R,1,170,24,939,1217,190:3,B,3844:16699,e,U&zx=1492349042012
p23
sVqueryString
p24
(lp25
(dp26
Vname
p27
Vatyp
p28
sVvalue
p29
Vi
p30
sa(dp31
Vname
p32
Vct
p33
sVvalue
p34
Vslh
p35
sa(dp36
Vname
p37
Vcad
p38
sVvalue
p39
g4
sa(dp40
Vname
p41
Vei
p42
sVvalue
p43
VXnDzWKuPEsTHjwTa5pT4Dw
p44
sa(dp45
Vname
p46
Vm
p47
sVvalue
p48
VV
p49
sa(dp50
Vname
p51
Vt
p52
sVvalue
p53
VC
p54
sa(dp55
Vname
p56
Vs
p57
sVvalue
p58
V1
p59
sa(dp60
Vname
p61
Vv
p62
sVvalue
p63
V2
p64
sa(dp65
Vname
p66
Vpv
p67
sVvalue
p68
V0.15842354180692875
p69
sa(dp70
Vname
p71
Vme
p72
sVvalue
p73
V1:1492349025308,x:2,V,0,0,1280,944:0,N,1,XnDzWKuPEsTHjwTa5pT4Dw:0,R,1,24,8,155,1249,405:0,R,1,25,8,155,1249,405:0,R,1,28,8,168,1249,40:0,R,1,41,8,220,1249,146:0,R,1,44,0,236,1265,165:0,R,1,84,8,383,1249,40:0,R,1,85,24,383,1217,40:0,R,1,93,8,439,1249,20:0,R,1,96,8,467,1249,20:0,R,1,135,8,570,1249,359:0,R,1,136,8,614,1249,315:0,R,1,137,0,614,1265,335:0,R,1,169,8,939,1249,201:0,R,1,170,24,939,1217,190:3,B,3844:16699,e,U
p74
sa(dp75
Vname
p76
Vzx
p77
sVvalue
p78
V1492349042012
p79
sasVheaders
p80
(lp81
sVheadersSize
p82
I1072
sVbodySize
p83
I0
sVmethod
p84
VGET
p85
sVhttpVersion
p86
VHTTP/1.1
p87
ssVtimings
p88
(dp89
Vcomment
p90
g4
sVreceive
p91
I0
sVsend
p92
I0
sVssl
p93
I-1
sVconnect
p94
I-1
sVdns
p95
I-1
sVwait
p96
I0
sVblocked
p97
I-1
ssVtime
p98
I0
sVresponse
p99
(dp100
Vstatus
p101
I0
sVcomment
p102
g4
sVcookies
p103
(lp104
sV_error
p105
VNo response received
p106
sVstatusText
p107
g4
sVcontent
p108
(dp109
VmimeType
p110
g4
sVcomment
p111
g4
sVsize
p112
I0
ssVheaders
p113
(lp114
sVheadersSize
p115
I-1
sVredirectURL
p116
g4
sVbodySize
p117
I-1
sVhttpVersion
p118
Vunknown
p119
ssa(dp120
Vcomment
p121
g4
sVserverIPAddress
p122
V216.58.216.196
p123
sVpageref
p124
VAroldis Chapman
p125
sVstartedDateTime
p126
V2017-04-16T08:24:02.014-05:00
p127
sVcache
p128
(dp129
sVrequest
p130
(dp131
Vcomment
p132
g4
sVcookies
p133
(lp134
sVurl
p135
Vhttps://www.google.com/gen_204?atyp=i&ct=slh&cad=&ei=UXDzWPr8N6qijwSRuYvwBA&s=3&v=2&pv=0.3333314943202711&me=21:1492349022727,e,H&zx=1492349042013
p136
sVqueryString
p137
(lp138
(dp139
Vname
p140
Vatyp
p141
sVvalue
p142
g30
sa(dp143
Vname
p144
Vct
p145
sVvalue
p146
Vslh
p147
sa(dp148
Vname
p149
Vcad
p150
sVvalue
p151
g4
sa(dp152
Vname
p153
Vei
p154
sVvalue
p155
VUXDzWPr8N6qijwSRuYvwBA
p156
sa(dp157
Vname
p158
g57
sVvalue
p159
V3
p160
sa(dp161
Vname
p162
g62
sVvalue
p163
g64
sa(dp164
Vname
p165
Vpv
p166
sVvalue
p167
V0.3333314943202711
p168
sa(dp169
Vname
p170
Vme
p171
sVvalue
p172
V21:1492349022727,e,H
p173
sa(dp174
Vname
p175
Vzx
p176
sVvalue
p177
V1492349042013
p178
sasVheaders
p179
(lp180
sVheadersSize
p181
I663
sVbodySize
p182
I0
sVmethod
p183
VGET
p184
sVhttpVersion
p185
VHTTP/1.1
p186
ssVtimings
p187
(dp188
Vcomment
p189
g4
sVreceive
p190
I0
sVsend
p191
I0
sVssl
p192
I-1
sVconnect
p193
I-1
sVdns
p194
I-1
sVwait
p195
I0
sVblocked
p196
I-1
ssVtime
p197
I0
sVresponse
p198
(dp199
Vstatus
p200
I0
sVcomment
p201
g4
sVcookies
p202
(lp203
sV_error
p204
VNo response received
p205
sVstatusText
p206
g4
sVcontent
p207
(dp208
VmimeType
p209
g4
sVcomment
p210
g4
sVsize
p211
I0
ssVheaders
p212
(lp213
sVheadersSize
p214
I-1
sVredirectURL
p215
g4
sVbodySize
p216
I-1
sVhttpVersion
p217
Vunknown
p218
ssa(dp219
Vcomment
p220
g4
sVserverIPAddress
p221
V216.58.216.196
p222
sVpageref
p223
VAroldis Chapman
p224
sVstartedDateTime
p225
V2017-04-16T08:24:02.017-05:00
p226
sVcache
p227
(dp228
sVrequest
p229
(dp230
Vcomment
p231
g4
sVcookies
p232
(lp233
sVurl
p234
Vhttp://www.google.com/
p235
sVqueryString
p236
(lp237
sVheaders
p238
(lp239
sVheadersSize
p240
I613
sVbodySize
p241
I0
sVmethod
p242
VGET
p243
sVhttpVersion
p244
VHTTP/1.1
p245
ssVtimings
p246
(dp247
Vcomment
p248
g4
sVreceive
p249
I0
sVsend
p250
I0
sVssl
p251
I-1
sVconnect
p252
I-1
sVdns
p253
I-1
sVwait
p254
I45
sVblocked
p255
I-1
ssVtime
p256
I45
sVresponse
p257
(dp258
Vstatus
p259
I302
sVcomment
p260
g4
sVcookies
p261
(lp262
sVstatusText
p263
VFound
p264
sVcontent
p265
(dp266
VmimeType
p267
Vtext/html; charset=UTF-8
p268
sVcomment
p269
g4
sVsize
p270
I0
ssVheaders
p271
(lp272
sVheadersSize
p273
I609
sVredirectURL
p274
Vhttps://www.google.com/?gws_rd=ssl
p275
sVbodySize
p276
I231
sVhttpVersion
p277
VHTTP/1.1
p278
ssa(dp279
Vcomment
p280
g4
sVserverIPAddress
p281
V216.58.216.196
p282
sVpageref
p283
VAroldis Chapman
p284
sVstartedDateTime
p285
V2017-04-16T08:24:02.065-05:00
p286
sVcache
p287
(dp288
sVrequest
p289
(dp290
Vcomment
p291
g4
sVcookies
p292
(lp293
sVurl
p294
Vhttps://www.google.com/?gws_rd=ssl
p295
sVqueryString
p296
(lp297
(dp298
Vname
p299
Vgws_rd
p300
sVvalue
p301
Vssl
p302
sasVheaders
p303
(lp304
sVheadersSize
p305
I607
sVbodySize
p306
I0
sVmethod
p307
VGET
p308
sVhttpVersion
p309
VHTTP/1.1
p310
ssVtimings
p311
(dp312
Vcomment
p313
g4
sVreceive
p314
I25
sVsend
p315
I0
sVssl
p316
I-1
sVconnect
p317
I-1
sVdns
p318
I-1
sVwait
p319
I62
sVblocked
p320
I-1
ssVtime
p321
I88
sVresponse
p322
(dp323
Vstatus
p324
I200
sVcomment
p325
g4
sVcookies
p326
(lp327
sVstatusText
p328
VOK
p329
sVcontent
p330
(dp331
VmimeType
p332
Vtext/html; charset=UTF-8
p333
sVcomment
p334
g4
sVsize
p335
I0
ssVheaders
p336
(lp337
sVheadersSize
p338
I721
sVredirectURL
p339
g4
sVbodySize
p340
I34291
sVhttpVersion
p341
VHTTP/1.1
p342
ssa(dp343
Vcomment
p344
g4
sVserverIPAddress
p345
V216.58.216.196
p346
sVpageref
p347
VAroldis Chapman
p348
sVstartedDateTime
p349
V2017-04-16T08:24:02.500-05:00
p350
sVcache
p351
(dp352
sVrequest
p353
(dp354
Vcomment
p355
g4
sVcookies
p356
(lp357
sVurl
p358
Vhttps://www.google.com/gen_204?s=mobilewebhp&atyp=csi&ei=cXDzWJPVA6fujwSp3LPABw&imc=1&imn=1&imp=0&adh=&xjs=init.53.12.sb_mob.46.dvl.2.c.1.jsa.1.mbsf.1&ima=1&rt=xjsls.19,prt.20,iml.20,dcl.65,xjses.107,xjsee.223,xjs.224,ol.335,aft.20,wsrt.146,cst.0,dnst.0,rqst.89,rspt.25,rqstt.53,unt.52,cstt.52,dit.191
p359
sVqueryString
p360
(lp361
(dp362
Vname
p363
g57
sVvalue
p364
Vmobilewebhp
p365
sa(dp366
Vname
p367
Vatyp
p368
sVvalue
p369
Vcsi
p370
sa(dp371
Vname
p372
Vei
p373
sVvalue
p374
VcXDzWJPVA6fujwSp3LPABw
p375
sa(dp376
Vname
p377
Vimc
p378
sVvalue
p379
g59
sa(dp380
Vname
p381
Vimn
p382
sVvalue
p383
g59
sa(dp384
Vname
p385
Vimp
p386
sVvalue
p387
V0
p388
sa(dp389
Vname
p390
Vadh
p391
sVvalue
p392
g4
sa(dp393
Vname
p394
Vxjs
p395
sVvalue
p396
Vinit.53.12.sb_mob.46.dvl.2.c.1.jsa.1.mbsf.1
p397
sa(dp398
Vname
p399
Vima
p400
sVvalue
p401
g59
sa(dp402
Vname
p403
Vrt
p404
sVvalue
p405
Vxjsls.19,prt.20,iml.20,dcl.65,xjses.107,xjsee.223,xjs.224,ol.335,aft.20,wsrt.146,cst.0,dnst.0,rqst.89,rspt.25,rqstt.53,unt.52,cstt.52,dit.191
p406
sasVheaders
p407
(lp408
sVheadersSize
p409
I829
sVbodySize
p410
I0
sVmethod
p411
VGET
p412
sVhttpVersion
p413
VHTTP/1.1
p414
ssVtimings
p415
(dp416
Vcomment
p417
g4
sVreceive
p418
I0
sVsend
p419
I0
sVssl
p420
I-1
sVconnect
p421
I-1
sVdns
p422
I-1
sVwait
p423
I36
sVblocked
p424
I-1
ssVtime
p425
I36
sVresponse
p426
(dp427
Vstatus
p428
I204
sVcomment
p429
g4
sVcookies
p430
(lp431
sVstatusText
p432
VNo Content
p433
sVcontent
p434
(dp435
VmimeType
p436
Vtext/html; charset=UTF-8
p437
sVcomment
p438
g4
sVsize
p439
I0
ssVheaders
p440
(lp441
sVheadersSize
p442
I248
sVredirectURL
p443
g4
sVbodySize
p444
I0
sVhttpVersion
p445
VHTTP/1.1
p446
ssa(dp447
Vcomment
p448
g4
sVserverIPAddress
p449
V216.58.216.196
p450
sVpageref
p451
VAroldis Chapman
p452
sVstartedDateTime
p453
V2017-04-16T08:24:02.603-05:00
p454
sVcache
p455
(dp456
sVrequest
p457
(dp458
Vcomment
p459
g4
sVcookies
p460
(lp461
sVurl
p462
Vhttps://www.google.com/complete/search?client=mobile-gws-hp&hl=en&gs_rn=64&gs_ri=mobile-gws-hp&sla=1&pfq=anthony%20rizzo&gm=602&cp=0&gs_id=1&xhr=t&q=A&tch=1&ech=1&psi=cXDzWJPVA6fujwSp3LPABw.1492349042329.1
p463
sVqueryString
p464
(lp465
(dp466
Vname
p467
Vclient
p468
sVvalue
p469
Vmobile-gws-hp
p470
sa(dp471
Vname
p472
Vhl
p473
sVvalue
p474
Ven
p475
sa(dp476
Vname
p477
Vgs_rn
p478
sVvalue
p479
V64
p480
sa(dp481
Vname
p482
Vgs_ri
p483
sVvalue
p484
Vmobile-gws-hp
p485
sa(dp486
Vname
p487
Vsla
p488
sVvalue
p489
g59
sa(dp490
Vname
p491
Vpfq
p492
sVvalue
p493
Vanthony rizzo
p494
sa(dp495
Vname
p496
Vgm
p497
sVvalue
p498
V602
p499
sa(dp500
Vname
p501
Vcp
p502
sVvalue
p503
g388
sa(dp504
Vname
p505
Vgs_id
p506
sVvalue
p507
g59
sa(dp508
Vname
p509
Vxhr
p510
sVvalue
p511
g52
sa(dp512
Vname
p513
Vq
p514
sVvalue
p515
VA
p516
sa(dp517
Vname
p518
Vtch
p519
sVvalue
p520
g59
sa(dp521
Vname
p522
Vech
p523
sVvalue
p524
g59
sa(dp525
Vname
p526
Vpsi
p527
sVvalue
p528
VcXDzWJPVA6fujwSp3LPABw.1492349042329.1
p529
sasVheaders
p530
(lp531
sVheadersSize
p532
I733
sVbodySize
p533
I0
sVmethod
p534
VGET
p535
sVhttpVersion
p536
VHTTP/1.1
p537
ssVtimings
p538
(dp539
Vcomment
p540
g4
sVreceive
p541
I0
sVsend
p542
I0
sVssl
p543
I-1
sVconnect
p544
I-1
sVdns
p545
I-1
sVwait
p546
I0
sVblocked
p547
I-1
ssVtime
p548
I0
sVresponse
p549
(dp550
Vstatus
p551
I0
sVcomment
p552
g4
sVcookies
p553
(lp554
sV_error
p555
VNo response received
p556
sVstatusText
p557
g4
sVcontent
p558
(dp559
VmimeType
p560
g4
sVcomment
p561
g4
sVsize
p562
I0
ssVheaders
p563
(lp564
sVheadersSize
p565
I-1
sVredirectURL
p566
g4
sVbodySize
p567
I-1
sVhttpVersion
p568
Vunknown
p569
ssa(dp570
Vcomment
p571
g4
sVserverIPAddress
p572
V216.58.216.196
p573
sVpageref
p574
VAroldis Chapman
p575
sVstartedDateTime
p576
V2017-04-16T08:24:02.686-05:00
p577
sVcache
p578
(dp579
sVrequest
p580
(dp581
Vcomment
p582
g4
sVcookies
p583
(lp584
sVurl
p585
Vhttps://www.google.com/search?site=&source=hp&ei=cXDzWJPVA6fujwSp3LPABw&q=Aroldis+Chapman&oq=Aroldis+Chapman&gs_l=mobile-gws-hp.3...226.266.0.305.15.1.0.0.0.0.0.0..0.0....0...1c.1.64.mobile-gws-hp..15.0.0.Iudq0Hn5WGo
p586
sVqueryString
p587
(lp588
(dp589
Vname
p590
Vsite
p591
sVvalue
p592
g4
sa(dp593
Vname
p594
Vsource
p595
sVvalue
p596
Vhp
p597
sa(dp598
Vname
p599
Vei
p600
sVvalue
p601
VcXDzWJPVA6fujwSp3LPABw
p602
sa(dp603
Vname
p604
g514
sVvalue
p605
VAroldis Chapman
p606
sa(dp607
Vname
p608
Voq
p609
sVvalue
p610
VAroldis Chapman
p611
sa(dp612
Vname
p613
Vgs_l
p614
sVvalue
p615
Vmobile-gws-hp.3...226.266.0.305.15.1.0.0.0.0.0.0..0.0....0...1c.1.64.mobile-gws-hp..15.0.0.Iudq0Hn5WGo
p616
sasVheaders
p617
(lp618
sVheadersSize
p619
I834
sVbodySize
p620
I0
sVmethod
p621
VGET
p622
sVhttpVersion
p623
VHTTP/1.1
p624
ssVtimings
p625
(dp626
Vcomment
p627
g4
sVreceive
p628
I570
sVsend
p629
I0
sVssl
p630
I-1
sVconnect
p631
I-1
sVdns
p632
I-1
sVwait
p633
I165
sVblocked
p634
I-1
ssVtime
p635
I736
sVresponse
p636
(dp637
Vstatus
p638
I200
sVcomment
p639
g4
sVcookies
p640
(lp641
sVstatusText
p642
VOK
p643
sVcontent
p644
(dp645
VmimeType
p646
Vtext/html; charset=UTF-8
p647
sVcomment
p648
g4
sVsize
p649
I0
ssVheaders
p650
(lp651
sVheadersSize
p652
I363
sVredirectURL
p653
g4
sVbodySize
p654
I141743
sVhttpVersion
p655
VHTTP/1.1
p656
ssa(dp657
Vcomment
p658
g4
sVserverIPAddress
p659
V216.58.216.196
p660
sVpageref
p661
VAroldis Chapman
p662
sVstartedDateTime
p663
V2017-04-16T08:24:03.893-05:00
p664
sVcache
p665
(dp666
sVrequest
p667
(dp668
Vcomment
p669
g4
sVcookies
p670
(lp671
sVurl
p672
Vhttps://www.google.com/xjs/_/js/k=xjs.qs.en_US.pCBXVCvTH3s.O/m=syl,syj,syn,em3,em8,em6,em7,sym,aa,abd,sy2g,sy2k,sy29,sy2j,sy2d,sy2a,sy2c,sy2f,sy2l,sy2m,sy2n,emd,async,sybn,sybi,sybo,sy1f,sy45,sy46,sy9w,sybk,sybj,sybp,sy1g,sy30,sy47,sybm,sybl,sybq,sy1h,sybh,dvl,syep,foot,ipv6,sy32,emj,shm,sy5g,sy5i,sy5k,sykh,tl,sy2x,sy2y,sy2t,sy38,em12,vs,sy5j,sy5h,sy6u,sy66,sy67,sy7d,sy7j,sy4u,sy69,sy89,sy7e,sykk,sykl,tnv,bct,sy23,sy9m,syac,sy24,sy4g,sy9b,sy9n,syhz,syl6,ssc,sy1y,sya3,sy22,sy6i,sy25,sya2,sy6j,sy72,emb,sy26,em9,ema,sy31,sya4,sykr,strm,sy2u,sy34,sy6l,sy6k,sy6h,sy6m,qkx,sy4d,sy4f,sy4c,sy4e,sy4b,sy6w,shrb,syd7,dgm,syf5,syf6,syf8,sygb,syg9,kptm,sy99,syf4,syfc,syfn,syf7,syff,sy1i,sy68,sy8d,syfl,syfr,syfq,syfg,sy1j,sy4q,sy5o,sy5r,sy6n,sy6p,sy8h,syc7,syc8,syfb,syfj,syfs,syft,syg3,syg5,syg7,emn,emo,syg4,syg6,ivg,iuci,img,sy41,tcc,sygq,kpc,kpci,sy4h,vrml,sy6y,sycu,d3l,syj7,syj8,syj2,syjc,syj6,syj3,syjg,syjh,syje,syjd,syjk,syji,syjf,syj0,emr,ems,emt,emu,emv,emx,emy,emz,em10,em11,udlg,sy5z,atn,sy4i,sya1,ampfp/am=gCP4LtMEBXQA2RUaq_oFBISzAFA/rt=j/d=0/t=zcms/rs=ACT90oFwm4NZCwIcuuiqmthdlECdBzkhRA
p673
sVqueryString
p674
(lp675
sVheaders
p676
(lp677
sVheadersSize
p678
I1613
sVbodySize
p679
I0
sVmethod
p680
VGET
p681
sVhttpVersion
p682
VHTTP/1.1
p683
ssVtimings
p684
(dp685
Vcomment
p686
g4
sVreceive
p687
I12
sVsend
p688
I0
sVssl
p689
I-1
sVconnect
p690
I-1
sVdns
p691
I-1
sVwait
p692
I14
sVblocked
p693
I-1
ssVtime
p694
I26
sVresponse
p695
(dp696
Vstatus
p697
I200
sVcomment
p698
g4
sVcookies
p699
(lp700
sVstatusText
p701
VOK
p702
sVcontent
p703
(dp704
VmimeType
p705
Vtext/javascript; charset=UTF-8
p706
sVcomment
p707
g4
sVsize
p708
I0
ssVheaders
p709
(lp710
sVheadersSize
p711
I465
sVredirectURL
p712
g4
sVbodySize
p713
I114145
sVhttpVersion
p714
VHTTP/1.1
p715
ssa(dp716
Vcomment
p717
g4
sVserverIPAddress
p718
V216.58.216.196
p719
sVpageref
p720
VAroldis Chapman
p721
sVstartedDateTime
p722
V2017-04-16T08:24:04.279-05:00
p723
sVcache
p724
(dp725
sVrequest
p726
(dp727
Vcomment
p728
g4
sVcookies
p729
(lp730
sVurl
p731
Vhttps://www.google.com/async/irc?vet=10ahUKEwj8nYu0ianTAhWj8oMKHX88D3QQo0EI5AE..i&ved=0ahUKEwj8nYu0ianTAhWj8oMKHX88D3QQo0EI5AE&ei=cXDzWLyhKqPljwT_-LygBw&yv=2&async=iu:1,ved:0ahUKEwj8nYu0ianTAhWj8oMKHX88D3QQo0EI5AE,_id:irc_async,_pms:qs
p732
sVqueryString
p733
(lp734
(dp735
Vname
p736
Vvet
p737
sVvalue
p738
V10ahUKEwj8nYu0ianTAhWj8oMKHX88D3QQo0EI5AE..i
p739
sa(dp740
Vname
p741
Vved
p742
sVvalue
p743
V0ahUKEwj8nYu0ianTAhWj8oMKHX88D3QQo0EI5AE
p744
sa(dp745
Vname
p746
Vei
p747
sVvalue
p748
VcXDzWLyhKqPljwT_-LygBw
p749
sa(dp750
Vname
p751
Vyv
p752
sVvalue
p753
g64
sa(dp754
Vname
p755
Vasync
p756
sVvalue
p757
Viu:1,ved:0ahUKEwj8nYu0ianTAhWj8oMKHX88D3QQo0EI5AE,_id:irc_async,_pms:qs
p758
sasVheaders
p759
(lp760
sVheadersSize
p761
I752
sVbodySize
p762
I0
sVmethod
p763
VGET
p764
sVhttpVersion
p765
VHTTP/1.1
p766
ssVtimings
p767
(dp768
Vcomment
p769
g4
sVreceive
p770
I1
sVsend
p771
I0
sVssl
p772
I-1
sVconnect
p773
I-1
sVdns
p774
I-1
sVwait
p775
I46
sVblocked
p776
I-1
ssVtime
p777
I48
sVresponse
p778
(dp779
Vstatus
p780
I200
sVcomment
p781
g4
sVcookies
p782
(lp783
sVstatusText
p784
VOK
p785
sVcontent
p786
(dp787
VmimeType
p788
Vtext/html; charset=UTF-8
p789
sVcomment
p790
g4
sVsize
p791
I0
ssVheaders
p792
(lp793
sVheadersSize
p794
I383
sVredirectURL
p795
g4
sVbodySize
p796
I7790
sVhttpVersion
p797
VHTTP/1.1
p798
ssa(dp799
Vcomment
p800
g4
sVserverIPAddress
p801
V216.58.216.196
p802
sVpageref
p803
VAroldis Chapman
p804
sVstartedDateTime
p805
V2017-04-16T08:24:04.291-05:00
p806
sVcache
p807
(dp808
sVrequest
p809
(dp810
Vcomment
p811
g4
sVcookies
p812
(lp813
sVurl
p814
Vhttps://www.google.com/gen_204?atyp=i&ct=&cad=&vet=10ahUKEwj8nYu0ianTAhWj8oMKHX88D3QQ5W0ITigC..s&ei=cXDzWLyhKqPljwT_-LygBw&zx=1492349044289
p815
sVqueryString
p816
(lp817
(dp818
Vname
p819
Vatyp
p820
sVvalue
p821
g30
sa(dp822
Vname
p823
Vct
p824
sVvalue
p825
g4
sa(dp826
Vname
p827
Vcad
p828
sVvalue
p829
g4
sa(dp830
Vname
p831
Vvet
p832
sVvalue
p833
V10ahUKEwj8nYu0ianTAhWj8oMKHX88D3QQ5W0ITigC..s
p834
sa(dp835
Vname
p836
Vei
p837
sVvalue
p838
VcXDzWLyhKqPljwT_-LygBw
p839
sa(dp840
Vname
p841
Vzx
p842
sVvalue
p843
V1492349044289
p844
sasVheaders
p845
(lp846
sVheadersSize
p847
I656
sVbodySize
p848
I0
sVmethod
p849
VGET
p850
sVhttpVersion
p851
VHTTP/1.1
p852
ssVtimings
p853
(dp854
Vcomment
p855
g4
sVreceive
p856
I0
sVsend
p857
I0
sVssl
p858
I-1
sVconnect
p859
I-1
sVdns
p860
I-1
sVwait
p861
I29
sVblocked
p862
I-1
ssVtime
p863
I29
sVresponse
p864
(dp865
Vstatus
p866
I204
sVcomment
p867
g4
sVcookies
p868
(lp869
sVstatusText
p870
VNo Content
p871
sVcontent
p872
(dp873
VmimeType
p874
Vtext/html; charset=UTF-8
p875
sVcomment
p876
g4
sVsize
p877
I0
ssVheaders
p878
(lp879
sVheadersSize
p880
I248
sVredirectURL
p881
g4
sVbodySize
p882
I0
sVhttpVersion
p883
VHTTP/1.1
p884
ssa(dp885
Vcomment
p886
g4
sVserverIPAddress
p887
V216.58.216.196
p888
sVpageref
p889
VAroldis Chapman
p890
sVstartedDateTime
p891
V2017-04-16T08:24:04.292-05:00
p892
sVcache
p893
(dp894
sVrequest
p895
(dp896
Vcomment
p897
g4
sVcookies
p898
(lp899
sVurl
p900
Vhttps://www.google.com/gen_204?atyp=i&ct=&cad=&vet=10ahUKEwj8nYu0ianTAhWj8oMKHX88D3QQ5W0IUSgD..s&ei=cXDzWLyhKqPljwT_-LygBw&zx=1492349044292
p901
sVqueryString
p902
(lp903
(dp904
Vname
p905
Vatyp
p906
sVvalue
p907
g30
sa(dp908
Vname
p909
Vct
p910
sVvalue
p911
g4
sa(dp912
Vname
p913
Vcad
p914
sVvalue
p915
g4
sa(dp916
Vname
p917
Vvet
p918
sVvalue
p919
V10ahUKEwj8nYu0ianTAhWj8oMKHX88D3QQ5W0IUSgD..s
p920
sa(dp921
Vname
p922
Vei
p923
sVvalue
p924
VcXDzWLyhKqPljwT_-LygBw
p925
sa(dp926
Vname
p927
Vzx
p928
sVvalue
p929
V1492349044292
p930
sasVheaders
p931
(lp932
sVheadersSize
p933
I656
sVbodySize
p934
I0
sVmethod
p935
VGET
p936
sVhttpVersion
p937
VHTTP/1.1
p938
ssVtimings
p939
(dp940
Vcomment
p941
g4
sVreceive
p942
I0
sVsend
p943
I0
sVssl
p944
I-1
sVconnect
p945
I-1
sVdns
p946
I-1
sVwait
p947
I32
sVblocked
p948
I-1
ssVtime
p949
I32
sVresponse
p950
(dp951
Vstatus
p952
I204
sVcomment
p953
g4
sVcookies
p954
(lp955
sVstatusText
p956
VNo Content
p957
sVcontent
p958
(dp959
VmimeType
p960
Vtext/html; charset=UTF-8
p961
sVcomment
p962
g4
sVsize
p963
I0
ssVheaders
p964
(lp965
sVheadersSize
p966
I248
sVredirectURL
p967
g4
sVbodySize
p968
I0
sVhttpVersion
p969
VHTTP/1.1
p970
ssa(dp971
Vcomment
p972
g4
sVserverIPAddress
p973
V216.58.216.196
p974
sVpageref
p975
VAroldis Chapman
p976
sVstartedDateTime
p977
V2017-04-16T08:24:04.321-05:00
p978
sVcache
p979
(dp980
sVrequest
p981
(dp982
Vcomment
p983
g4
sVcookies
p984
(lp985
sVurl
p986
Vhttps://www.google.com/gen_204?atyp=i&ct=&cad=&vet=10ahUKEwj8nYu0ianTAhWj8oMKHX88D3QQ5W0IXSgH..s&ei=cXDzWLyhKqPljwT_-LygBw&zx=1492349044299
p987
sVqueryString
p988
(lp989
(dp990
Vname
p991
Vatyp
p992
sVvalue
p993
g30
sa(dp994
Vname
p995
Vct
p996
sVvalue
p997
g4
sa(dp998
Vname
p999
Vcad
p1000
sVvalue
p1001
g4
sa(dp1002
Vname
p1003
Vvet
p1004
sVvalue
p1005
V10ahUKEwj8nYu0ianTAhWj8oMKHX88D3QQ5W0IXSgH..s
p1006
sa(dp1007
Vname
p1008
Vei
p1009
sVvalue
p1010
VcXDzWLyhKqPljwT_-LygBw
p1011
sa(dp1012
Vname
p1013
Vzx
p1014
sVvalue
p1015
V1492349044299
p1016
sasVheaders
p1017
(lp1018
sVheadersSize
p1019
I656
sVbodySize
p1020
I0
sVmethod
p1021
VGET
p1022
sVhttpVersion
p1023
VHTTP/1.1
p1024
ssVtimings
p1025
(dp1026
Vcomment
p1027
g4
sVreceive
p1028
I0
sVsend
p1029
I0
sVssl
p1030
I-1
sVconnect
p1031
I-1
sVdns
p1032
I-1
sVwait
p1033
I29
sVblocked
p1034
I-1
ssVtime
p1035
I29
sVresponse
p1036
(dp1037
Vstatus
p1038
I204
sVcomment
p1039
g4
sVcookies
p1040
(lp1041
sVstatusText
p1042
VNo Content
p1043
sVcontent
p1044
(dp1045
VmimeType
p1046
Vtext/html; charset=UTF-8
p1047
sVcomment
p1048
g4
sVsize
p1049
I0
ssVheaders
p1050
(lp1051
sVheadersSize
p1052
I248
sVredirectURL
p1053
g4
sVbodySize
p1054
I0
sVhttpVersion
p1055
VHTTP/1.1
p1056
ssa(dp1057
Vcomment
p1058
g4
sVserverIPAddress
p1059
V216.58.216.196
p1060
sVpageref
p1061
VAroldis Chapman
p1062
sVstartedDateTime
p1063
V2017-04-16T08:24:04.344-05:00
p1064
sVcache
p1065
(dp1066
sVrequest
p1067
(dp1068
Vcomment
p1069
g4
sVcookies
p1070
(lp1071
sVurl
p1072
Vhttps://www.google.com/gen_204?atyp=i&ct=&cad=&vet=10ahUKEwj8nYu0ianTAhWj8oMKHX88D3QQ5W0IVygF..s&ei=cXDzWLyhKqPljwT_-LygBw&zx=1492349044295
p1073
sVqueryString
p1074
(lp1075
(dp1076
Vname
p1077
Vatyp
p1078
sVvalue
p1079
g30
sa(dp1080
Vname
p1081
Vct
p1082
sVvalue
p1083
g4
sa(dp1084
Vname
p1085
Vcad
p1086
sVvalue
p1087
g4
sa(dp1088
Vname
p1089
Vvet
p1090
sVvalue
p1091
V10ahUKEwj8nYu0ianTAhWj8oMKHX88D3QQ5W0IVygF..s
p1092
sa(dp1093
Vname
p1094
Vei
p1095
sVvalue
p1096
VcXDzWLyhKqPljwT_-LygBw
p1097
sa(dp1098
Vname
p1099
Vzx
p1100
sVvalue
p1101
V1492349044295
p1102
sasVheaders
p1103
(lp1104
sVheadersSize
p1105
I656
sVbodySize
p1106
I0
sVmethod
p1107
VGET
p1108
sVhttpVersion
p1109
VHTTP/1.1
p1110
ssVtimings
p1111
(dp1112
Vcomment
p1113
g4
sVreceive
p1114
I0
sVsend
p1115
I0
sVssl
p1116
I27
sVconnect
p1117
I46
sVdns
p1118
I0
sVwait
p1119
I34
sVblocked
p1120
I0
ssVtime
p1121
I81
sVresponse
p1122
(dp1123
Vstatus
p1124
I204
sVcomment
p1125
g4
sVcookies
p1126
(lp1127
sVstatusText
p1128
VNo Content
p1129
sVcontent
p1130
(dp1131
VmimeType
p1132
Vtext/html; charset=UTF-8
p1133
sVcomment
p1134
g4
sVsize
p1135
I0
ssVheaders
p1136
(lp1137
sVheadersSize
p1138
I248
sVredirectURL
p1139
g4
sVbodySize
p1140
I0
sVhttpVersion
p1141
VHTTP/1.1
p1142
ssa(dp1143
Vcomment
p1144
g4
sVserverIPAddress
p1145
V216.58.216.196
p1146
sVpageref
p1147
VAroldis Chapman
p1148
sVstartedDateTime
p1149
V2017-04-16T08:24:04.345-05:00
p1150
sVcache
p1151
(dp1152
sVrequest
p1153
(dp1154
Vcomment
p1155
g4
sVcookies
p1156
(lp1157
sVurl
p1158
Vhttps://www.google.com/gen_204?atyp=i&ct=&cad=&vet=10ahUKEwj8nYu0ianTAhWj8oMKHX88D3QQ5W0IWigG..s&ei=cXDzWLyhKqPljwT_-LygBw&zx=1492349044297
p1159
sVqueryString
p1160
(lp1161
(dp1162
Vname
p1163
Vatyp
p1164
sVvalue
p1165
g30
sa(dp1166
Vname
p1167
Vct
p1168
sVvalue
p1169
g4
sa(dp1170
Vname
p1171
Vcad
p1172
sVvalue
p1173
g4
sa(dp1174
Vname
p1175
Vvet
p1176
sVvalue
p1177
V10ahUKEwj8nYu0ianTAhWj8oMKHX88D3QQ5W0IWigG..s
p1178
sa(dp1179
Vname
p1180
Vei
p1181
sVvalue
p1182
VcXDzWLyhKqPljwT_-LygBw
p1183
sa(dp1184
Vname
p1185
Vzx
p1186
sVvalue
p1187
V1492349044297
p1188
sasVheaders
p1189
(lp1190
sVheadersSize
p1191
I656
sVbodySize
p1192
I0
sVmethod
p1193
VGET
p1194
sVhttpVersion
p1195
VHTTP/1.1
p1196
ssVtimings
p1197
(dp1198
Vcomment
p1199
g4
sVreceive
p1200
I0
sVsend
p1201
I0
sVssl
p1202
I26
sVconnect
p1203
I43
sVdns
p1204
I0
sVwait
p1205
I33
sVblocked
p1206
I0
ssVtime
p1207
I77
sVresponse
p1208
(dp1209
Vstatus
p1210
I204
sVcomment
p1211
g4
sVcookies
p1212
(lp1213
sVstatusText
p1214
VNo Content
p1215
sVcontent
p1216
(dp1217
VmimeType
p1218
Vtext/html; charset=UTF-8
p1219
sVcomment
p1220
g4
sVsize
p1221
I0
ssVheaders
p1222
(lp1223
sVheadersSize
p1224
I248
sVredirectURL
p1225
g4
sVbodySize
p1226
I0
sVhttpVersion
p1227
VHTTP/1.1
p1228
ssa(dp1229
Vcomment
p1230
g4
sVserverIPAddress
p1231
V216.58.216.196
p1232
sVpageref
p1233
VAroldis Chapman
p1234
sVstartedDateTime
p1235
V2017-04-16T08:24:04.347-05:00
p1236
sVcache
p1237
(dp1238
sVrequest
p1239
(dp1240
Vcomment
p1241
g4
sVcookies
p1242
(lp1243
sVurl
p1244
Vhttps://www.google.com/gen_204?atyp=i&ct=&cad=&vet=10ahUKEwj8nYu0ianTAhWj8oMKHX88D3QQ5W0IVCgE..s&ei=cXDzWLyhKqPljwT_-LygBw&zx=1492349044293
p1245
sVqueryString
p1246
(lp1247
(dp1248
Vname
p1249
Vatyp
p1250
sVvalue
p1251
g30
sa(dp1252
Vname
p1253
Vct
p1254
sVvalue
p1255
g4
sa(dp1256
Vname
p1257
Vcad
p1258
sVvalue
p1259
g4
sa(dp1260
Vname
p1261
Vvet
p1262
sVvalue
p1263
V10ahUKEwj8nYu0ianTAhWj8oMKHX88D3QQ5W0IVCgE..s
p1264
sa(dp1265
Vname
p1266
Vei
p1267
sVvalue
p1268
VcXDzWLyhKqPljwT_-LygBw
p1269
sa(dp1270
Vname
p1271
Vzx
p1272
sVvalue
p1273
V1492349044293
p1274
sasVheaders
p1275
(lp1276
sVheadersSize
p1277
I656
sVbodySize
p1278
I0
sVmethod
p1279
VGET
p1280
sVhttpVersion
p1281
VHTTP/1.1
p1282
ssVtimings
p1283
(dp1284
Vcomment
p1285
g4
sVreceive
p1286
I0
sVsend
p1287
I0
sVssl
p1288
I29
sVconnect
p1289
I49
sVdns
p1290
I1
sVwait
p1291
I31
sVblocked
p1292
I0
ssVtime
p1293
I82
sVresponse
p1294
(dp1295
Vstatus
p1296
I204
sVcomment
p1297
g4
sVcookies
p1298
(lp1299
sVstatusText
p1300
VNo Content
p1301
sVcontent
p1302
(dp1303
VmimeType
p1304
Vtext/html; charset=UTF-8
p1305
sVcomment
p1306
g4
sVsize
p1307
I0
ssVheaders
p1308
(lp1309
sVheadersSize
p1310
I248
sVredirectURL
p1311
g4
sVbodySize
p1312
I0
sVhttpVersion
p1313
VHTTP/1.1
p1314
ssa(dp1315
Vcomment
p1316
g4
sVserverIPAddress
p1317
V216.58.216.196
p1318
sVpageref
p1319
VAroldis Chapman
p1320
sVstartedDateTime
p1321
V2017-04-16T08:24:04.398-05:00
p1322
sVcache
p1323
(dp1324
sVrequest
p1325
(dp1326
Vcomment
p1327
g4
sVcookies
p1328
(lp1329
sVurl
p1330
Vhttps://www.google.com/async/ampfp?vet=10ahUKEwj8nYu0ianTAhWj8oMKHX88D3QQtZoBCOIB..i&ei=cXDzWLyhKqPljwT_-LygBw&yv=2&async=_id:ampfp-async,_pms:qs
p1331
sVqueryString
p1332
(lp1333
(dp1334
Vname
p1335
Vvet
p1336
sVvalue
p1337
V10ahUKEwj8nYu0ianTAhWj8oMKHX88D3QQtZoBCOIB..i
p1338
sa(dp1339
Vname
p1340
Vei
p1341
sVvalue
p1342
VcXDzWLyhKqPljwT_-LygBw
p1343
sa(dp1344
Vname
p1345
Vyv
p1346
sVvalue
p1347
g64
sa(dp1348
Vname
p1349
Vasync
p1350
sVvalue
p1351
V_id:ampfp-async,_pms:qs
p1352
sasVheaders
p1353
(lp1354
sVheadersSize
p1355
I662
sVbodySize
p1356
I0
sVmethod
p1357
VGET
p1358
sVhttpVersion
p1359
VHTTP/1.1
p1360
ssVtimings
p1361
(dp1362
Vcomment
p1363
g4
sVreceive
p1364
I0
sVsend
p1365
I0
sVssl
p1366
I-1
sVconnect
p1367
I-1
sVdns
p1368
I-1
sVwait
p1369
I47
sVblocked
p1370
I-1
ssVtime
p1371
I48
sVresponse
p1372
(dp1373
Vstatus
p1374
I200
sVcomment
p1375
g4
sVcookies
p1376
(lp1377
sVstatusText
p1378
VOK
p1379
sVcontent
p1380
(dp1381
VmimeType
p1382
Vtext/html; charset=UTF-8
p1383
sVcomment
p1384
g4
sVsize
p1385
I0
ssVheaders
p1386
(lp1387
sVheadersSize
p1388
I383
sVredirectURL
p1389
g4
sVbodySize
p1390
I4525
sVhttpVersion
p1391
VHTTP/1.1
p1392
ssa(dp1393
Vcomment
p1394
g4
sVserverIPAddress
p1395
V216.58.216.193
p1396
sVpageref
p1397
VAroldis Chapman
p1398
sVstartedDateTime
p1399
V2017-04-16T08:24:04.399-05:00
p1400
sVcache
p1401
(dp1402
sVrequest
p1403
(dp1404
Vcomment
p1405
g4
sVcookies
p1406
(lp1407
sVurl
p1408
Vhttps://cdn.ampproject.org/preconnect.gif?0.10078294922293851
p1409
sVqueryString
p1410
(lp1411
(dp1412
Vname
p1413
V0.10078294922293851
p1414
sVvalue
p1415
g4
sasVheaders
p1416
(lp1417
sVheadersSize
p1418
I376
sVbodySize
p1419
I0
sVmethod
p1420
VGET
p1421
sVhttpVersion
p1422
VHTTP/1.1
p1423
ssVtimings
p1424
(dp1425
Vcomment
p1426
g4
sVreceive
p1427
I0
sVsend
p1428
I0
sVssl
p1429
I-1
sVconnect
p1430
I-1
sVdns
p1431
I-1
sVwait
p1432
I31
sVblocked
p1433
I-1
ssVtime
p1434
I31
sVresponse
p1435
(dp1436
Vstatus
p1437
I200
sVcomment
p1438
g4
sVcookies
p1439
(lp1440
sVstatusText
p1441
VOK
p1442
sVcontent
p1443
(dp1444
VmimeType
p1445
Vimage/gif
p1446
sVcomment
p1447
g4
sVsize
p1448
I0
ssVheaders
p1449
(lp1450
sVheadersSize
p1451
I826
sVredirectURL
p1452
g4
sVbodySize
p1453
I37
sVhttpVersion
p1454
VHTTP/1.1
p1455
ssa(dp1456
Vcomment
p1457
g4
sVserverIPAddress
p1458
V216.58.216.206
p1459
sVpageref
p1460
VAroldis Chapman
p1461
sVstartedDateTime
p1462
V2017-04-16T08:24:04.423-05:00
p1463
sVcache
p1464
(dp1465
sVrequest
p1466
(dp1467
Vcomment
p1468
g4
sVcookies
p1469
(lp1470
sVurl
p1471
Vhttps://encrypted-tbn0.gstatic.com/images?q=tbn:ANd9GcSGjeAyDeYcbW2jOjgrv21x4OPvDF2laRRp-FWxyKcnvAFTO2_-tisxIcHY
p1472
sVqueryString
p1473
(lp1474
(dp1475
Vname
p1476
g514
sVvalue
p1477
Vtbn:ANd9GcSGjeAyDeYcbW2jOjgrv21x4OPvDF2laRRp-FWxyKcnvAFTO2_-tisxIcHY
p1478
sasVheaders
p1479
(lp1480
sVheadersSize
p1481
I427
sVbodySize
p1482
I0
sVmethod
p1483
VGET
p1484
sVhttpVersion
p1485
VHTTP/1.1
p1486
ssVtimings
p1487
(dp1488
Vcomment
p1489
g4
sVreceive
p1490
I2
sVsend
p1491
I0
sVssl
p1492
I-1
sVconnect
p1493
I-1
sVdns
p1494
I-1
sVwait
p1495
I13
sVblocked
p1496
I-1
ssVtime
p1497
I16
sVresponse
p1498
(dp1499
Vstatus
p1500
I200
sVcomment
p1501
g4
sVcookies
p1502
(lp1503
sVstatusText
p1504
VOK
p1505
sVcontent
p1506
(dp1507
VmimeType
p1508
Vimage/jpeg
p1509
sVcomment
p1510
g4
sVsize
p1511
I0
ssVheaders
p1512
(lp1513
sVheadersSize
p1514
I429
sVredirectURL
p1515
g4
sVbodySize
p1516
I7917
sVhttpVersion
p1517
VHTTP/1.1
p1518
ssa(dp1519
Vcomment
p1520
g4
sVserverIPAddress
p1521
V172.217.0.14
p1522
sVpageref
p1523
VAroldis Chapman
p1524
sVstartedDateTime
p1525
V2017-04-16T08:24:04.424-05:00
p1526
sVcache
p1527
(dp1528
sVrequest
p1529
(dp1530
Vcomment
p1531
g4
sVcookies
p1532
(lp1533
sVurl
p1534
Vhttps://encrypted-tbn1.gstatic.com/images?q=tbn:ANd9GcTaZ2SOJT7Dloybf_Ib9CexMl54kHA4d1J_I22UJ_RLxPXrl1n-RjHO3uez7w
p1535
sVqueryString
p1536
(lp1537
(dp1538
Vname
p1539
g514
sVvalue
p1540
Vtbn:ANd9GcTaZ2SOJT7Dloybf_Ib9CexMl54kHA4d1J_I22UJ_RLxPXrl1n-RjHO3uez7w
p1541
sasVheaders
p1542
(lp1543
sVheadersSize
p1544
I429
sVbodySize
p1545
I0
sVmethod
p1546
VGET
p1547
sVhttpVersion
p1548
VHTTP/1.1
p1549
ssVtimings
p1550
(dp1551
Vcomment
p1552
g4
sVreceive
p1553
I0
sVsend
p1554
I0
sVssl
p1555
I-1
sVconnect
p1556
I-1
sVdns
p1557
I-1
sVwait
p1558
I23
sVblocked
p1559
I-1
ssVtime
p1560
I24
sVresponse
p1561
(dp1562
Vstatus
p1563
I200
sVcomment
p1564
g4
sVcookies
p1565
(lp1566
sVstatusText
p1567
VOK
p1568
sVcontent
p1569
(dp1570
VmimeType
p1571
Vimage/jpeg
p1572
sVcomment
p1573
g4
sVsize
p1574
I0
ssVheaders
p1575
(lp1576
sVheadersSize
p1577
I428
sVredirectURL
p1578
g4
sVbodySize
p1579
I8261
sVhttpVersion
p1580
VHTTP/1.1
p1581
ssa(dp1582
Vcomment
p1583
g4
sVserverIPAddress
p1584
V216.58.216.206
p1585
sVpageref
p1586
VAroldis Chapman
p1587
sVstartedDateTime
p1588
V2017-04-16T08:24:04.424-05:00
p1589
sVcache
p1590
(dp1591
sVrequest
p1592
(dp1593
Vcomment
p1594
g4
sVcookies
p1595
(lp1596
sVurl
p1597
Vhttps://encrypted-tbn2.gstatic.com/images?q=tbn:ANd9GcST9F3m4DJkB_Vx2kGGLAa3SMF6STw42KFEx5dswyxYsK2TDkl8xVJXLhXx
p1598
sVqueryString
p1599
(lp1600
(dp1601
Vname
p1602
g514
sVvalue
p1603
Vtbn:ANd9GcST9F3m4DJkB_Vx2kGGLAa3SMF6STw42KFEx5dswyxYsK2TDkl8xVJXLhXx
p1604
sasVheaders
p1605
(lp1606
sVheadersSize
p1607
I427
sVbodySize
p1608
I0
sVmethod
p1609
VGET
p1610
sVhttpVersion
p1611
VHTTP/1.1
p1612
ssVtimings
p1613
(dp1614
Vcomment
p1615
g4
sVreceive
p1616
I0
sVsend
p1617
I0
sVssl
p1618
I-1
sVconnect
p1619
I-1
sVdns
p1620
I-1
sVwait
p1621
I22
sVblocked
p1622
I-1
ssVtime
p1623
I22
sVresponse
p1624
(dp1625
Vstatus
p1626
I200
sVcomment
p1627
g4
sVcookies
p1628
(lp1629
sVstatusText
p1630
VOK
p1631
sVcontent
p1632
(dp1633
VmimeType
p1634
Vimage/jpeg
p1635
sVcomment
p1636
g4
sVsize
p1637
I0
ssVheaders
p1638
(lp1639
sVheadersSize
p1640
I427
sVredirectURL
p1641
g4
sVbodySize
p1642
I4827
sVhttpVersion
p1643
VHTTP/1.1
p1644
ssa(dp1645
Vcomment
p1646
g4
sVserverIPAddress
p1647
V216.58.216.196
p1648
sVpageref
p1649
VAroldis Chapman
p1650
sVstartedDateTime
p1651
V2017-04-16T08:24:04.575-05:00
p1652
sVcache
p1653
(dp1654
sVrequest
p1655
(dp1656
Vcomment
p1657
g4
sVcookies
p1658
(lp1659
sVurl
p1660
Vhttps://www.google.com/async/log_amp_item_set?vet=10ahUKEwiLy_O0ianTAhWF1IMKHWsRC50QooQBCAE..i&ei=cXDzWLyhKqPljwT_-LygBw&yv=2&async=num_items:8,_fmt:jspb
p1661
sVqueryString
p1662
(lp1663
(dp1664
Vname
p1665
Vvet
p1666
sVvalue
p1667
V10ahUKEwiLy_O0ianTAhWF1IMKHWsRC50QooQBCAE..i
p1668
sa(dp1669
Vname
p1670
Vei
p1671
sVvalue
p1672
VcXDzWLyhKqPljwT_-LygBw
p1673
sa(dp1674
Vname
p1675
Vyv
p1676
sVvalue
p1677
g64
sa(dp1678
Vname
p1679
Vasync
p1680
sVvalue
p1681
Vnum_items:8,_fmt:jspb
p1682
sasVheaders
p1683
(lp1684
sVheadersSize
p1685
I670
sVbodySize
p1686
I0
sVmethod
p1687
VGET
p1688
sVhttpVersion
p1689
VHTTP/1.1
p1690
ssVtimings
p1691
(dp1692
Vcomment
p1693
g4
sVreceive
p1694
I0
sVsend
p1695
I0
sVssl
p1696
I-1
sVconnect
p1697
I-1
sVdns
p1698
I-1
sVwait
p1699
I41
sVblocked
p1700
I-1
ssVtime
p1701
I41
sVresponse
p1702
(dp1703
Vstatus
p1704
I200
sVcomment
p1705
g4
sVcookies
p1706
(lp1707
sVstatusText
p1708
VOK
p1709
sVcontent
p1710
(dp1711
VmimeType
p1712
Vapplication/json; charset=UTF-8
p1713
sVcomment
p1714
g4
sVsize
p1715
I0
ssVheaders
p1716
(lp1717
sVheadersSize
p1718
I417
sVredirectURL
p1719
g4
sVbodySize
p1720
I175
sVhttpVersion
p1721
VHTTP/1.1
p1722
ssa(dp1723
Vcomment
p1724
g4
sVserverIPAddress
p1725
V172.217.0.1
p1726
sVpageref
p1727
VAroldis Chapman
p1728
sVstartedDateTime
p1729
V2017-04-16T08:24:05.167-05:00
p1730
sVcache
p1731
(dp1732
sVrequest
p1733
(dp1734
Vcomment
p1735
g4
sVcookies
p1736
(lp1737
sVurl
p1738
Vhttps://amp-nj-com.cdn.ampproject.org/v/amp.nj.com/v1/articles/20491957/why_yankees_aroldis_chapman_may_be_scarier_to_face.amp?amp_js_v=9
p1739
sVqueryString
p1740
(lp1741
(dp1742
Vname
p1743
Vamp_js_v
p1744
sVvalue
p1745
V9
p1746
sasVheaders
p1747
(lp1748
sVheadersSize
p1749
I542
sVbodySize
p1750
I0
sVmethod
p1751
VGET
p1752
sVhttpVersion
p1753
VHTTP/1.1
p1754
ssVtimings
p1755
(dp1756
Vcomment
p1757
g4
sVreceive
p1758
I1
sVsend
p1759
I0
sVssl
p1760
I520
sVconnect
p1761
I536
sVdns
p1762
I35
sVwait
p1763
I46
sVblocked
p1764
I0
ssVtime
p1765
I620
sVresponse
p1766
(dp1767
Vstatus
p1768
I200
sVcomment
p1769
g4
sVcookies
p1770
(lp1771
sVstatusText
p1772
VOK
p1773
sVcontent
p1774
(dp1775
VmimeType
p1776
Vtext/html
p1777
sVcomment
p1778
g4
sVsize
p1779
I0
ssVheaders
p1780
(lp1781
sVheadersSize
p1782
I861
sVredirectURL
p1783
g4
sVbodySize
p1784
I5610
sVhttpVersion
p1785
VHTTP/1.1
p1786
ssa(dp1787
Vcomment
p1788
g4
sVserverIPAddress
p1789
V216.58.216.193
p1790
sVpageref
p1791
VAroldis Chapman
p1792
sVstartedDateTime
p1793
V2017-04-16T08:24:05.282-05:00
p1794
sVcache
p1795
(dp1796
sVrequest
p1797
(dp1798
Vcomment
p1799
g4
sVcookies
p1800
(lp1801
sVurl
p1802
Vhttps://static-advance-net.cdn.ampproject.org/i/static.advance.net/static/njo/static/img/logos/logo_full.svg
p1803
sVqueryString
p1804
(lp1805
sVheaders
p1806
(lp1807
sVheadersSize
p1808
I537
sVbodySize
p1809
I0
sVmethod
p1810
VGET
p1811
sVhttpVersion
p1812
VHTTP/1.1
p1813
ssVtimings
p1814
(dp1815
Vcomment
p1816
g4
sVreceive
p1817
I0
sVsend
p1818
I0
sVssl
p1819
I28
sVconnect
p1820
I45
sVdns
p1821
I4
sVwait
p1822
I24
sVblocked
p1823
I0
ssVtime
p1824
I75
sVresponse
p1825
(dp1826
Vstatus
p1827
I200
sVcomment
p1828
g4
sVcookies
p1829
(lp1830
sVstatusText
p1831
VOK
p1832
sVcontent
p1833
(dp1834
VmimeType
p1835
Vimage/svg+xml
p1836
sVcomment
p1837
g4
sVsize
p1838
I0
ssVheaders
p1839
(lp1840
sVheadersSize
p1841
I878
sVredirectURL
p1842
g4
sVbodySize
p1843
I1540
sVhttpVersion
p1844
VHTTP/1.1
p1845
ssa(dp1846
Vcomment
p1847
g4
sVserverIPAddress
p1848
V216.58.216.193
p1849
sVpageref
p1850
VAroldis Chapman
p1851
sVstartedDateTime
p1852
V2017-04-16T08:24:05.286-05:00
p1853
sVcache
p1854
(dp1855
sVrequest
p1856
(dp1857
Vcomment
p1858
g4
sVcookies
p1859
(lp1860
sVurl
p1861
Vhttps://media-advance-net.cdn.ampproject.org/i/media.advance.net/avatars/10/40/27/82.png
p1862
sVqueryString
p1863
(lp1864
sVheaders
p1865
(lp1866
sVheadersSize
p1867
I517
sVbodySize
p1868
I0
sVmethod
p1869
VGET
p1870
sVhttpVersion
p1871
VHTTP/1.1
p1872
ssVtimings
p1873
(dp1874
Vcomment
p1875
g4
sVreceive
p1876
I0
sVsend
p1877
I0
sVssl
p1878
I30
sVconnect
p1879
I50
sVdns
p1880
I3
sVwait
p1881
I41
sVblocked
p1882
I0
ssVtime
p1883
I95
sVresponse
p1884
(dp1885
Vstatus
p1886
I200
sVcomment
p1887
g4
sVcookies
p1888
(lp1889
sVstatusText
p1890
VOK
p1891
sVcontent
p1892
(dp1893
VmimeType
p1894
Vimage/png
p1895
sVcomment
p1896
g4
sVsize
p1897
I0
ssVheaders
p1898
(lp1899
sVheadersSize
p1900
I819
sVredirectURL
p1901
g4
sVbodySize
p1902
I3311
sVhttpVersion
p1903
VHTTP/1.1
p1904
ssa(dp1905
Vcomment
p1906
g4
sVserverIPAddress
p1907
V172.217.0.1
p1908
sVpageref
p1909
VAroldis Chapman
p1910
sVstartedDateTime
p1911
V2017-04-16T08:24:06.058-05:00
p1912
sVcache
p1913
(dp1914
sVrequest
p1915
(dp1916
Vcomment
p1917
g4
sVcookies
p1918
(lp1919
sVurl
p1920
Vhttps://media-nj-com.cdn.ampproject.org/i/media.nj.com/yankees_main/photo/aroldis-chapman-c3f8550c58a69d3a.jpg
p1921
sVqueryString
p1922
(lp1923
sVheaders
p1924
(lp1925
sVheadersSize
p1926
I539
sVbodySize
p1927
I0
sVmethod
p1928
VGET
p1929
sVhttpVersion
p1930
VHTTP/1.1
p1931
ssVtimings
p1932
(dp1933
Vcomment
p1934
g4
sVreceive
p1935
I89
sVsend
p1936
I0
sVssl
p1937
I649
sVconnect
p1938
I677
sVdns
p1939
I29
sVwait
p1940
I26
sVblocked
p1941
I0
ssVtime
p1942
I823
sVresponse
p1943
(dp1944
Vstatus
p1945
I200
sVcomment
p1946
g4
sVcookies
p1947
(lp1948
sVstatusText
p1949
VOK
p1950
sVcontent
p1951
(dp1952
VmimeType
p1953
Vimage/jpeg
p1954
sVcomment
p1955
g4
sVsize
p1956
I0
ssVheaders
p1957
(lp1958
sVheadersSize
p1959
I846
sVredirectURL
p1960
g4
sVbodySize
p1961
I216603
sVhttpVersion
p1962
VHTTP/1.1
p1963
ssa(dp1964
Vcomment
p1965
g4
sVserverIPAddress
p1966
V216.58.216.196
p1967
sVpageref
p1968
VAroldis Chapman
p1969
sVstartedDateTime
p1970
V2017-04-16T08:24:06.210-05:00
p1971
sVcache
p1972
(dp1973
sVrequest
p1974
(dp1975
Vcomment
p1976
g4
sVcookies
p1977
(lp1978
sVurl
p1979
Vhttps://www.google.com/gen_204?s=web&atyp=csi&ei=cXDzWLyhKqPljwT_-LygBw&imc=46&imn=46&imp=25&adh=&xjs=init.36.14.sb_mob.27.c.3.dvl.3.mbsf.1.foot.1&ima=20&rt=prt.609,iml.727,xjsls.610,dcl.730,xjses.871,xjsee.1022,xjs.1023,qiml.1248,ol.3327,aft.727,wsrt.180,cst.0,dnst.0,rqst.737,rspt.571,rqstt.4,unt.3,cstt.3,dit.877
p1980
sVqueryString
p1981
(lp1982
(dp1983
Vname
p1984
g57
sVvalue
p1985
Vweb
p1986
sa(dp1987
Vname
p1988
Vatyp
p1989
sVvalue
p1990
Vcsi
p1991
sa(dp1992
Vname
p1993
Vei
p1994
sVvalue
p1995
VcXDzWLyhKqPljwT_-LygBw
p1996
sa(dp1997
Vname
p1998
Vimc
p1999
sVvalue
p2000
V46
p2001
sa(dp2002
Vname
p2003
Vimn
p2004
sVvalue
p2005
V46
p2006
sa(dp2007
Vname
p2008
Vimp
p2009
sVvalue
p2010
V25
p2011
sa(dp2012
Vname
p2013
Vadh
p2014
sVvalue
p2015
g4
sa(dp2016
Vname
p2017
Vxjs
p2018
sVvalue
p2019
Vinit.36.14.sb_mob.27.c.3.dvl.3.mbsf.1.foot.1
p2020
sa(dp2021
Vname
p2022
Vima
p2023
sVvalue
p2024
V20
p2025
sa(dp2026
Vname
p2027
Vrt
p2028
sVvalue
p2029
Vprt.609,iml.727,xjsls.610,dcl.730,xjses.871,xjsee.1022,xjs.1023,qiml.1248,ol.3327,aft.727,wsrt.180,cst.0,dnst.0,rqst.737,rspt.571,rqstt.4,unt.3,cstt.3,dit.877
p2030
sasVheaders
p2031
(lp2032
sVheadersSize
p2033
I832
sVbodySize
p2034
I0
sVmethod
p2035
VGET
p2036
sVhttpVersion
p2037
VHTTP/1.1
p2038
ssVtimings
p2039
(dp2040
Vcomment
p2041
g4
sVreceive
p2042
I0
sVsend
p2043
I0
sVssl
p2044
I-1
sVconnect
p2045
I-1
sVdns
p2046
I-1
sVwait
p2047
I40
sVblocked
p2048
I-1
ssVtime
p2049
I40
sVresponse
p2050
(dp2051
Vstatus
p2052
I204
sVcomment
p2053
g4
sVcookies
p2054
(lp2055
sVstatusText
p2056
VNo Content
p2057
sVcontent
p2058
(dp2059
VmimeType
p2060
Vtext/html; charset=UTF-8
p2061
sVcomment
p2062
g4
sVsize
p2063
I0
ssVheaders
p2064
(lp2065
sVheadersSize
p2066
I248
sVredirectURL
p2067
g4
sVbodySize
p2068
I0
sVhttpVersion
p2069
VHTTP/1.1
p2070
ssa(dp2071
Vcomment
p2072
g4
sVserverIPAddress
p2073
V216.58.216.196
p2074
sVpageref
p2075
VAroldis Chapman
p2076
sVstartedDateTime
p2077
V2017-04-16T08:24:06.498-05:00
p2078
sVcache
p2079
(dp2080
sVrequest
p2081
(dp2082
Vcomment
p2083
g4
sVcookies
p2084
(lp2085
sVurl
p2086
Vhttps://www.google.com/gen_204?atyp=i&ct=slh&cad=&ei=XnDzWKuPEsTHjwTa5pT4Dw&m=V&t=C&s=1&v=2&pv=0.15842354180692875&me=1:1492349025308,x:2,V,0,0,1280,944:0,N,1,XnDzWKuPEsTHjwTa5pT4Dw:0,R,1,24,8,155,1249,405:0,R,1,25,8,155,1249,405:0,R,1,28,8,168,1249,40:0,R,1,41,8,220,1249,146:0,R,1,44,0,236,1265,165:0,R,1,84,8,383,1249,40:0,R,1,85,24,383,1217,40:0,R,1,93,8,439,1249,20:0,R,1,96,8,467,1249,20:0,R,1,135,8,570,1249,359:0,R,1,136,8,614,1249,315:0,R,1,137,0,614,1265,335:0,R,1,169,8,939,1249,201:0,R,1,170,24,939,1217,190:3,B,3844:16699,e,U&zx=1492349046357
p2087
sVqueryString
p2088
(lp2089
(dp2090
Vname
p2091
Vatyp
p2092
sVvalue
p2093
g30
sa(dp2094
Vname
p2095
Vct
p2096
sVvalue
p2097
Vslh
p2098
sa(dp2099
Vname
p2100
Vcad
p2101
sVvalue
p2102
g4
sa(dp2103
Vname
p2104
Vei
p2105
sVvalue
p2106
VXnDzWKuPEsTHjwTa5pT4Dw
p2107
sa(dp2108
Vname
p2109
g47
sVvalue
p2110
g49
sa(dp2111
Vname
p2112
g52
sVvalue
p2113
g54
sa(dp2114
Vname
p2115
g57
sVvalue
p2116
g59
sa(dp2117
Vname
p2118
g62
sVvalue
p2119
g64
sa(dp2120
Vname
p2121
Vpv
p2122
sVvalue
p2123
V0.15842354180692875
p2124
sa(dp2125
Vname
p2126
Vme
p2127
sVvalue
p2128
V1:1492349025308,x:2,V,0,0,1280,944:0,N,1,XnDzWKuPEsTHjwTa5pT4Dw:0,R,1,24,8,155,1249,405:0,R,1,25,8,155,1249,405:0,R,1,28,8,168,1249,40:0,R,1,41,8,220,1249,146:0,R,1,44,0,236,1265,165:0,R,1,84,8,383,1249,40:0,R,1,85,24,383,1217,40:0,R,1,93,8,439,1249,20:0,R,1,96,8,467,1249,20:0,R,1,135,8,570,1249,359:0,R,1,136,8,614,1249,315:0,R,1,137,0,614,1265,335:0,R,1,169,8,939,1249,201:0,R,1,170,24,939,1217,190:3,B,3844:16699,e,U
p2129
sa(dp2130
Vname
p2131
Vzx
p2132
sVvalue
p2133
V1492349046357
p2134
sasVheaders
p2135
(lp2136
sVheadersSize
p2137
I1072
sVbodySize
p2138
I0
sVmethod
p2139
VGET
p2140
sVhttpVersion
p2141
VHTTP/1.1
p2142
ssVtimings
p2143
(dp2144
Vcomment
p2145
g4
sVreceive
p2146
I0
sVsend
p2147
I0
sVssl
p2148
I-1
sVconnect
p2149
I-1
sVdns
p2150
I-1
sVwait
p2151
I29
sVblocked
p2152
I-1
ssVtime
p2153
I29
sVresponse
p2154
(dp2155
Vstatus
p2156
I204
sVcomment
p2157
g4
sVcookies
p2158
(lp2159
sVstatusText
p2160
VNo Content
p2161
sVcontent
p2162
(dp2163
VmimeType
p2164
Vtext/html; charset=UTF-8
p2165
sVcomment
p2166
g4
sVsize
p2167
I0
ssVheaders
p2168
(lp2169
sVheadersSize
p2170
I248
sVredirectURL
p2171
g4
sVbodySize
p2172
I0
sVhttpVersion
p2173
VHTTP/1.1
p2174
ssasVversion
p2175
V1.2
p2176
sVpages
p2177
(lp2178
(dp2179
VpageTimings
p2180
(dp2181
Vcomment
p2182
g4
ssVcomment
p2183
g4
sVtitle
p2184
VAroldis Chapman
p2185
sVid
p2186
VAroldis Chapman
p2187
sVstartedDateTime
p2188
V2017-04-16T08:24:02.005-05:00
p2189
sasVcreator
p2190
(dp2191
Vcomment
p2192
g4
sVversion
p2193
V2.1.4
p2194
sVname
p2195
VBrowserMob Proxy
p2196
sss.