(dp0
Vlog
p1
(dp2
Vcomment
p3
V
p4
sVentries
p5
(lp6
(dp7
Vcomment
p8
g4
sVserverIPAddress
p9
V216.58.216.196
p10
sVpageref
p11
VGorilla
p12
sVstartedDateTime
p13
V2017-04-16T08:13:39.173-05:00
p14
sVcache
p15
(dp16
sVrequest
p17
(dp18
Vcomment
p19
g4
sVcookies
p20
(lp21
sVurl
p22
Vhttps://www.google.com/gen_204?atyp=i&ct=slh&cad=&ei=6W3zWJH_PKjgjwSZ57WACQ&m=V&t=C&s=1&v=2&pv=0.8454255658302448&me=1:1492348396418,x:3,V,0,0,1280,944:0,N,1,6W3zWJH_PKjgjwSZ57WACQ:0,R,1,24,8,155,1249,987:0,R,1,25,8,155,1249,987:0,R,1,28,8,168,1249,40:0,R,1,41,8,219,1249,178:0,R,1,44,0,235,1265,197:0,R,1,84,8,414,1249,40:0,R,1,85,24,414,1217,40:0,R,1,88,8,470,1249,20:0,R,1,104,8,510,1249,310:0,R,1,105,0,555,1265,285:0,R,1,131,8,865,1249,204:0,R,1,132,0,865,1265,224:4,B,3156:22746,e,U&zx=1492348419172
p23
sVqueryString
p24
(lp25
(dp26
Vname
p27
Vatyp
p28
sVvalue
p29
Vi
p30
sa(dp31
Vname
p32
Vct
p33
sVvalue
p34
Vslh
p35
sa(dp36
Vname
p37
Vcad
p38
sVvalue
p39
g4
sa(dp40
Vname
p41
Vei
p42
sVvalue
p43
V6W3zWJH_PKjgjwSZ57WACQ
p44
sa(dp45
Vname
p46
Vm
p47
sVvalue
p48
VV
p49
sa(dp50
Vname
p51
Vt
p52
sVvalue
p53
VC
p54
sa(dp55
Vname
p56
Vs
p57
sVvalue
p58
V1
p59
sa(dp60
Vname
p61
Vv
p62
sVvalue
p63
V2
p64
sa(dp65
Vname
p66
Vpv
p67
sVvalue
p68
V0.8454255658302448
p69
sa(dp70
Vname
p71
Vme
p72
sVvalue
p73
V1:1492348396418,x:3,V,0,0,1280,944:0,N,1,6W3zWJH_PKjgjwSZ57WACQ:0,R,1,24,8,155,1249,987:0,R,1,25,8,155,1249,987:0,R,1,28,8,168,1249,40:0,R,1,41,8,219,1249,178:0,R,1,44,0,235,1265,197:0,R,1,84,8,414,1249,40:0,R,1,85,24,414,1217,40:0,R,1,88,8,470,1249,20:0,R,1,104,8,510,1249,310:0,R,1,105,0,555,1265,285:0,R,1,131,8,865,1249,204:0,R,1,132,0,865,1265,224:4,B,3156:22746,e,U
p74
sa(dp75
Vname
p76
Vzx
p77
sVvalue
p78
V1492348419172
p79
sasVheaders
p80
(lp81
sVheadersSize
p82
I1022
sVbodySize
p83
I0
sVmethod
p84
VGET
p85
sVhttpVersion
p86
VHTTP/1.1
p87
ssVtimings
p88
(dp89
Vcomment
p90
g4
sVreceive
p91
I0
sVsend
p92
I0
sVssl
p93
I-1
sVconnect
p94
I-1
sVdns
p95
I-1
sVwait
p96
I0
sVblocked
p97
I-1
ssVtime
p98
I0
sVresponse
p99
(dp100
Vstatus
p101
I0
sVcomment
p102
g4
sVcookies
p103
(lp104
sV_error
p105
VNo response received
p106
sVstatusText
p107
g4
sVcontent
p108
(dp109
VmimeType
p110
g4
sVcomment
p111
g4
sVsize
p112
I0
ssVheaders
p113
(lp114
sVheadersSize
p115
I-1
sVredirectURL
p116
g4
sVbodySize
p117
I-1
sVhttpVersion
p118
Vunknown
p119
ssa(dp120
Vcomment
p121
g4
sVserverIPAddress
p122
V216.58.216.196
p123
sVpageref
p124
VGorilla
p125
sVstartedDateTime
p126
V2017-04-16T08:13:39.177-05:00
p127
sVcache
p128
(dp129
sVrequest
p130
(dp131
Vcomment
p132
g4
sVcookies
p133
(lp134
sVurl
p135
Vhttp://www.google.com/
p136
sVqueryString
p137
(lp138
sVheaders
p139
(lp140
sVheadersSize
p141
I613
sVbodySize
p142
I0
sVmethod
p143
VGET
p144
sVhttpVersion
p145
VHTTP/1.1
p146
ssVtimings
p147
(dp148
Vcomment
p149
g4
sVreceive
p150
I0
sVsend
p151
I0
sVssl
p152
I-1
sVconnect
p153
I-1
sVdns
p154
I-1
sVwait
p155
I40
sVblocked
p156
I-1
ssVtime
p157
I40
sVresponse
p158
(dp159
Vstatus
p160
I302
sVcomment
p161
g4
sVcookies
p162
(lp163
sVstatusText
p164
VFound
p165
sVcontent
p166
(dp167
VmimeType
p168
Vtext/html; charset=UTF-8
p169
sVcomment
p170
g4
sVsize
p171
I0
ssVheaders
p172
(lp173
sVheadersSize
p174
I609
sVredirectURL
p175
Vhttps://www.google.com/?gws_rd=ssl
p176
sVbodySize
p177
I231
sVhttpVersion
p178
VHTTP/1.1
p179
ssa(dp180
Vcomment
p181
g4
sVserverIPAddress
p182
V216.58.216.196
p183
sVpageref
p184
VGorilla
p185
sVstartedDateTime
p186
V2017-04-16T08:13:39.221-05:00
p187
sVcache
p188
(dp189
sVrequest
p190
(dp191
Vcomment
p192
g4
sVcookies
p193
(lp194
sVurl
p195
Vhttps://www.google.com/?gws_rd=ssl
p196
sVqueryString
p197
(lp198
(dp199
Vname
p200
Vgws_rd
p201
sVvalue
p202
Vssl
p203
sasVheaders
p204
(lp205
sVheadersSize
p206
I607
sVbodySize
p207
I0
sVmethod
p208
VGET
p209
sVhttpVersion
p210
VHTTP/1.1
p211
ssVtimings
p212
(dp213
Vcomment
p214
g4
sVreceive
p215
I23
sVsend
p216
I0
sVssl
p217
I-1
sVconnect
p218
I-1
sVdns
p219
I-1
sVwait
p220
I71
sVblocked
p221
I-1
ssVtime
p222
I94
sVresponse
p223
(dp224
Vstatus
p225
I200
sVcomment
p226
g4
sVcookies
p227
(lp228
sVstatusText
p229
VOK
p230
sVcontent
p231
(dp232
VmimeType
p233
Vtext/html; charset=UTF-8
p234
sVcomment
p235
g4
sVsize
p236
I0
ssVheaders
p237
(lp238
sVheadersSize
p239
I721
sVredirectURL
p240
g4
sVbodySize
p241
I34289
sVhttpVersion
p242
VHTTP/1.1
p243
ssa(dp244
Vcomment
p245
g4
sVserverIPAddress
p246
V216.58.216.196
p247
sVpageref
p248
VGorilla
p249
sVstartedDateTime
p250
V2017-04-16T08:13:39.540-05:00
p251
sVcache
p252
(dp253
sVrequest
p254
(dp255
Vcomment
p256
g4
sVcookies
p257
(lp258
sVurl
p259
Vhttps://www.google.com/gen_204?s=mobilewebhp&atyp=csi&ei=Am7zWL_4DanMjwTTpbzwAw&imc=1&imn=1&imp=0&adh=&xjs=init.28.12.sb_mob.19.dvl.4.mbsf.2.c.1.async.1&ima=1&rt=xjsls.11,prt.11,iml.11,dcl.44,xjses.87,xjsee.182,xjs.183,ol.223,aft.11,wsrt.138,cst.0,dnst.0,rqst.98,rspt.26,rqstt.50,unt.48,cstt.48,dit.175
p260
sVqueryString
p261
(lp262
(dp263
Vname
p264
g57
sVvalue
p265
Vmobilewebhp
p266
sa(dp267
Vname
p268
Vatyp
p269
sVvalue
p270
Vcsi
p271
sa(dp272
Vname
p273
Vei
p274
sVvalue
p275
VAm7zWL_4DanMjwTTpbzwAw
p276
sa(dp277
Vname
p278
Vimc
p279
sVvalue
p280
g59
sa(dp281
Vname
p282
Vimn
p283
sVvalue
p284
g59
sa(dp285
Vname
p286
Vimp
p287
sVvalue
p288
V0
p289
sa(dp290
Vname
p291
Vadh
p292
sVvalue
p293
g4
sa(dp294
Vname
p295
Vxjs
p296
sVvalue
p297
Vinit.28.12.sb_mob.19.dvl.4.mbsf.2.c.1.async.1
p298
sa(dp299
Vname
p300
Vima
p301
sVvalue
p302
g59
sa(dp303
Vname
p304
Vrt
p305
sVvalue
p306
Vxjsls.11,prt.11,iml.11,dcl.44,xjses.87,xjsee.182,xjs.183,ol.223,aft.11,wsrt.138,cst.0,dnst.0,rqst.98,rspt.26,rqstt.50,unt.48,cstt.48,dit.175
p307
sasVheaders
p308
(lp309
sVheadersSize
p310
I830
sVbodySize
p311
I0
sVmethod
p312
VGET
p313
sVhttpVersion
p314
VHTTP/1.1
p315
ssVtimings
p316
(dp317
Vcomment
p318
g4
sVreceive
p319
I0
sVsend
p320
I0
sVssl
p321
I-1
sVconnect
p322
I-1
sVdns
p323
I-1
sVwait
p324
I26
sVblocked
p325
I-1
ssVtime
p326
I26
sVresponse
p327
(dp328
Vstatus
p329
I204
sVcomment
p330
g4
sVcookies
p331
(lp332
sVstatusText
p333
VNo Content
p334
sVcontent
p335
(dp336
VmimeType
p337
Vtext/html; charset=UTF-8
p338
sVcomment
p339
g4
sVsize
p340
I0
ssVheaders
p341
(lp342
sVheadersSize
p343
I248
sVredirectURL
p344
g4
sVbodySize
p345
I0
sVhttpVersion
p346
VHTTP/1.1
p347
ssa(dp348
Vcomment
p349
g4
sVserverIPAddress
p350
V216.58.216.196
p351
sVpageref
p352
VGorilla
p353
sVstartedDateTime
p354
V2017-04-16T08:13:39.711-05:00
p355
sVcache
p356
(dp357
sVrequest
p358
(dp359
Vcomment
p360
g4
sVcookies
p361
(lp362
sVurl
p363
Vhttps://www.google.com/complete/search?client=mobile-gws-hp&hl=en&gs_rn=64&gs_ri=mobile-gws-hp&sla=1&pfq=gene%20wilder&gm=602&cp=0&gs_id=1&xhr=t&q=G&tch=1&ech=1&psi=Am7zWL_4DanMjwTTpbzwAw.1492348419463.1
p364
sVqueryString
p365
(lp366
(dp367
Vname
p368
Vclient
p369
sVvalue
p370
Vmobile-gws-hp
p371
sa(dp372
Vname
p373
Vhl
p374
sVvalue
p375
Ven
p376
sa(dp377
Vname
p378
Vgs_rn
p379
sVvalue
p380
V64
p381
sa(dp382
Vname
p383
Vgs_ri
p384
sVvalue
p385
Vmobile-gws-hp
p386
sa(dp387
Vname
p388
Vsla
p389
sVvalue
p390
g59
sa(dp391
Vname
p392
Vpfq
p393
sVvalue
p394
Vgene wilder
p395
sa(dp396
Vname
p397
Vgm
p398
sVvalue
p399
V602
p400
sa(dp401
Vname
p402
Vcp
p403
sVvalue
p404
g289
sa(dp405
Vname
p406
Vgs_id
p407
sVvalue
p408
g59
sa(dp409
Vname
p410
Vxhr
p411
sVvalue
p412
g52
sa(dp413
Vname
p414
Vq
p415
sVvalue
p416
VG
p417
sa(dp418
Vname
p419
Vtch
p420
sVvalue
p421
g59
sa(dp422
Vname
p423
Vech
p424
sVvalue
p425
g59
sa(dp426
Vname
p427
Vpsi
p428
sVvalue
p429
VAm7zWL_4DanMjwTTpbzwAw.1492348419463.1
p430
sasVheaders
p431
(lp432
sVheadersSize
p433
I731
sVbodySize
p434
I0
sVmethod
p435
VGET
p436
sVhttpVersion
p437
VHTTP/1.1
p438
ssVtimings
p439
(dp440
Vcomment
p441
g4
sVreceive
p442
I0
sVsend
p443
I0
sVssl
p444
I-1
sVconnect
p445
I-1
sVdns
p446
I-1
sVwait
p447
I0
sVblocked
p448
I-1
ssVtime
p449
I0
sVresponse
p450
(dp451
Vstatus
p452
I0
sVcomment
p453
g4
sVcookies
p454
(lp455
sV_error
p456
VNo response received
p457
sVstatusText
p458
g4
sVcontent
p459
(dp460
VmimeType
p461
g4
sVcomment
p462
g4
sVsize
p463
I0
ssVheaders
p464
(lp465
sVheadersSize
p466
I-1
sVredirectURL
p467
g4
sVbodySize
p468
I-1
sVhttpVersion
p469
Vunknown
p470
ssa(dp471
Vcomment
p472
g4
sVserverIPAddress
p473
V216.58.216.196
p474
sVpageref
p475
VGorilla
p476
sVstartedDateTime
p477
V2017-04-16T08:13:39.772-05:00
p478
sVcache
p479
(dp480
sVrequest
p481
(dp482
Vcomment
p483
g4
sVcookies
p484
(lp485
sVurl
p486
Vhttps://www.google.com/search?site=&source=hp&ei=Am7zWL_4DanMjwTTpbzwAw&q=Gorilla&oq=Gorilla&gs_l=mobile-gws-hp.3...227.250.0.281.7.1.0.0.0.0.0.0..0.0....0...1c.1.64.mobile-gws-hp..7.0.0.OMI3v7n1aHs
p487
sVqueryString
p488
(lp489
(dp490
Vname
p491
Vsite
p492
sVvalue
p493
g4
sa(dp494
Vname
p495
Vsource
p496
sVvalue
p497
Vhp
p498
sa(dp499
Vname
p500
Vei
p501
sVvalue
p502
VAm7zWL_4DanMjwTTpbzwAw
p503
sa(dp504
Vname
p505
g415
sVvalue
p506
VGorilla
p507
sa(dp508
Vname
p509
Voq
p510
sVvalue
p511
VGorilla
p512
sa(dp513
Vname
p514
Vgs_l
p515
sVvalue
p516
Vmobile-gws-hp.3...227.250.0.281.7.1.0.0.0.0.0.0..0.0....0...1c.1.64.mobile-gws-hp..7.0.0.OMI3v7n1aHs
p517
sasVheaders
p518
(lp519
sVheadersSize
p520
I816
sVbodySize
p521
I0
sVmethod
p522
VGET
p523
sVhttpVersion
p524
VHTTP/1.1
p525
ssVtimings
p526
(dp527
Vcomment
p528
g4
sVreceive
p529
I1065
sVsend
p530
I0
sVssl
p531
I-1
sVconnect
p532
I-1
sVdns
p533
I-1
sVwait
p534
I138
sVblocked
p535
I-1
ssVtime
p536
I1203
sVresponse
p537
(dp538
Vstatus
p539
I200
sVcomment
p540
g4
sVcookies
p541
(lp542
sVstatusText
p543
VOK
p544
sVcontent
p545
(dp546
VmimeType
p547
Vtext/html; charset=UTF-8
p548
sVcomment
p549
g4
sVsize
p550
I0
ssVheaders
p551
(lp552
sVheadersSize
p553
I363
sVredirectURL
p554
g4
sVbodySize
p555
I158454
sVhttpVersion
p556
VHTTP/1.1
p557
ssa(dp558
Vcomment
p559
g4
sVserverIPAddress
p560
V216.58.216.196
p561
sVpageref
p562
VGorilla
p563
sVstartedDateTime
p564
V2017-04-16T08:13:41.542-05:00
p565
sVcache
p566
(dp567
sVrequest
p568
(dp569
Vcomment
p570
g4
sVcookies
p571
(lp572
sVurl
p573
Vhttps://www.google.com/async/irc?vet=10ahUKEwiazIeLh6nTAhVF6YMKHYNnD-UQo0EI3gE..i&ved=0ahUKEwiazIeLh6nTAhVF6YMKHYNnD-UQo0EI3gE&ei=Am7zWJrDL8XSjwSDz72oDg&yv=2&async=iu:1,ved:0ahUKEwiazIeLh6nTAhVF6YMKHYNnD-UQo0EI3gE,_id:irc_async,_pms:qs
p574
sVqueryString
p575
(lp576
(dp577
Vname
p578
Vvet
p579
sVvalue
p580
V10ahUKEwiazIeLh6nTAhVF6YMKHYNnD-UQo0EI3gE..i
p581
sa(dp582
Vname
p583
Vved
p584
sVvalue
p585
V0ahUKEwiazIeLh6nTAhVF6YMKHYNnD-UQo0EI3gE
p586
sa(dp587
Vname
p588
Vei
p589
sVvalue
p590
VAm7zWJrDL8XSjwSDz72oDg
p591
sa(dp592
Vname
p593
Vyv
p594
sVvalue
p595
g64
sa(dp596
Vname
p597
Vasync
p598
sVvalue
p599
Viu:1,ved:0ahUKEwiazIeLh6nTAhVF6YMKHYNnD-UQo0EI3gE,_id:irc_async,_pms:qs
p600
sasVheaders
p601
(lp602
sVheadersSize
p603
I752
sVbodySize
p604
I0
sVmethod
p605
VGET
p606
sVhttpVersion
p607
VHTTP/1.1
p608
ssVtimings
p609
(dp610
Vcomment
p611
g4
sVreceive
p612
I2
sVsend
p613
I0
sVssl
p614
I-1
sVconnect
p615
I-1
sVdns
p616
I-1
sVwait
p617
I43
sVblocked
p618
I-1
ssVtime
p619
I46
sVresponse
p620
(dp621
Vstatus
p622
I200
sVcomment
p623
g4
sVcookies
p624
(lp625
sVstatusText
p626
VOK
p627
sVcontent
p628
(dp629
VmimeType
p630
Vtext/html; charset=UTF-8
p631
sVcomment
p632
g4
sVsize
p633
I0
ssVheaders
p634
(lp635
sVheadersSize
p636
I383
sVredirectURL
p637
g4
sVbodySize
p638
I7789
sVhttpVersion
p639
VHTTP/1.1
p640
ssa(dp641
Vcomment
p642
g4
sVserverIPAddress
p643
V216.58.216.196
p644
sVpageref
p645
VGorilla
p646
sVstartedDateTime
p647
V2017-04-16T08:13:41.554-05:00
p648
sVcache
p649
(dp650
sVrequest
p651
(dp652
Vcomment
p653
g4
sVcookies
p654
(lp655
sVurl
p656
Vhttps://www.google.com/gen_204?atyp=i&ct=&cad=&vet=10ahUKEwiazIeLh6nTAhVF6YMKHYNnD-UQ5W0IMygC..s&ei=Am7zWJrDL8XSjwSDz72oDg&zx=1492348421553
p657
sVqueryString
p658
(lp659
(dp660
Vname
p661
Vatyp
p662
sVvalue
p663
g30
sa(dp664
Vname
p665
Vct
p666
sVvalue
p667
g4
sa(dp668
Vname
p669
Vcad
p670
sVvalue
p671
g4
sa(dp672
Vname
p673
Vvet
p674
sVvalue
p675
V10ahUKEwiazIeLh6nTAhVF6YMKHYNnD-UQ5W0IMygC..s
p676
sa(dp677
Vname
p678
Vei
p679
sVvalue
p680
VAm7zWJrDL8XSjwSDz72oDg
p681
sa(dp682
Vname
p683
Vzx
p684
sVvalue
p685
V1492348421553
p686
sasVheaders
p687
(lp688
sVheadersSize
p689
I656
sVbodySize
p690
I0
sVmethod
p691
VGET
p692
sVhttpVersion
p693
VHTTP/1.1
p694
ssVtimings
p695
(dp696
Vcomment
p697
g4
sVreceive
p698
I0
sVsend
p699
I0
sVssl
p700
I-1
sVconnect
p701
I-1
sVdns
p702
I-1
sVwait
p703
I33
sVblocked
p704
I-1
ssVtime
p705
I33
sVresponse
p706
(dp707
Vstatus
p708
I204
sVcomment
p709
g4
sVcookies
p710
(lp711
sVstatusText
p712
VNo Content
p713
sVcontent
p714
(dp715
VmimeType
p716
Vtext/html; charset=UTF-8
p717
sVcomment
p718
g4
sVsize
p719
I0
ssVheaders
p720
(lp721
sVheadersSize
p722
I248
sVredirectURL
p723
g4
sVbodySize
p724
I0
sVhttpVersion
p725
VHTTP/1.1
p726
ssa(dp727
Vcomment
p728
g4
sVserverIPAddress
p729
V216.58.216.196
p730
sVpageref
p731
VGorilla
p732
sVstartedDateTime
p733
V2017-04-16T08:13:41.558-05:00
p734
sVcache
p735
(dp736
sVrequest
p737
(dp738
Vcomment
p739
g4
sVcookies
p740
(lp741
sVurl
p742
Vhttps://www.google.com/gen_204?atyp=i&ct=&cad=&vet=10ahUKEwiazIeLh6nTAhVF6YMKHYNnD-UQ5W0INigD..s&ei=Am7zWJrDL8XSjwSDz72oDg&zx=1492348421557
p743
sVqueryString
p744
(lp745
(dp746
Vname
p747
Vatyp
p748
sVvalue
p749
g30
sa(dp750
Vname
p751
Vct
p752
sVvalue
p753
g4
sa(dp754
Vname
p755
Vcad
p756
sVvalue
p757
g4
sa(dp758
Vname
p759
Vvet
p760
sVvalue
p761
V10ahUKEwiazIeLh6nTAhVF6YMKHYNnD-UQ5W0INigD..s
p762
sa(dp763
Vname
p764
Vei
p765
sVvalue
p766
VAm7zWJrDL8XSjwSDz72oDg
p767
sa(dp768
Vname
p769
Vzx
p770
sVvalue
p771
V1492348421557
p772
sasVheaders
p773
(lp774
sVheadersSize
p775
I656
sVbodySize
p776
I0
sVmethod
p777
VGET
p778
sVhttpVersion
p779
VHTTP/1.1
p780
ssVtimings
p781
(dp782
Vcomment
p783
g4
sVreceive
p784
I0
sVsend
p785
I0
sVssl
p786
I-1
sVconnect
p787
I-1
sVdns
p788
I-1
sVwait
p789
I44
sVblocked
p790
I-1
ssVtime
p791
I44
sVresponse
p792
(dp793
Vstatus
p794
I204
sVcomment
p795
g4
sVcookies
p796
(lp797
sVstatusText
p798
VNo Content
p799
sVcontent
p800
(dp801
VmimeType
p802
Vtext/html; charset=UTF-8
p803
sVcomment
p804
g4
sVsize
p805
I0
ssVheaders
p806
(lp807
sVheadersSize
p808
I248
sVredirectURL
p809
g4
sVbodySize
p810
I0
sVhttpVersion
p811
VHTTP/1.1
p812
ssa(dp813
Vcomment
p814
g4
sVserverIPAddress
p815
V216.58.216.196
p816
sVpageref
p817
VGorilla
p818
sVstartedDateTime
p819
V2017-04-16T08:13:41.561-05:00
p820
sVcache
p821
(dp822
sVrequest
p823
(dp824
Vcomment
p825
g4
sVcookies
p826
(lp827
sVurl
p828
Vhttps://www.google.com/gen_204?atyp=i&ct=&cad=&vet=10ahUKEwiazIeLh6nTAhVF6YMKHYNnD-UQ5W0IOSgE..s&ei=Am7zWJrDL8XSjwSDz72oDg&zx=1492348421560
p829
sVqueryString
p830
(lp831
(dp832
Vname
p833
Vatyp
p834
sVvalue
p835
g30
sa(dp836
Vname
p837
Vct
p838
sVvalue
p839
g4
sa(dp840
Vname
p841
Vcad
p842
sVvalue
p843
g4
sa(dp844
Vname
p845
Vvet
p846
sVvalue
p847
V10ahUKEwiazIeLh6nTAhVF6YMKHYNnD-UQ5W0IOSgE..s
p848
sa(dp849
Vname
p850
Vei
p851
sVvalue
p852
VAm7zWJrDL8XSjwSDz72oDg
p853
sa(dp854
Vname
p855
Vzx
p856
sVvalue
p857
V1492348421560
p858
sasVheaders
p859
(lp860
sVheadersSize
p861
I656
sVbodySize
p862
I0
sVmethod
p863
VGET
p864
sVhttpVersion
p865
VHTTP/1.1
p866
ssVtimings
p867
(dp868
Vcomment
p869
g4
sVreceive
p870
I0
sVsend
p871
I0
sVssl
p872
I-1
sVconnect
p873
I-1
sVdns
p874
I-1
sVwait
p875
I40
sVblocked
p876
I-1
ssVtime
p877
I40
sVresponse
p878
(dp879
Vstatus
p880
I204
sVcomment
p881
g4
sVcookies
p882
(lp883
sVstatusText
p884
VNo Content
p885
sVcontent
p886
(dp887
VmimeType
p888
Vtext/html; charset=UTF-8
p889
sVcomment
p890
g4
sVsize
p891
I0
ssVheaders
p892
(lp893
sVheadersSize
p894
I248
sVredirectURL
p895
g4
sVbodySize
p896
I0
sVhttpVersion
p897
VHTTP/1.1
p898
ssa(dp899
Vcomment
p900
g4
sVserverIPAddress
p901
V216.58.216.196
p902
sVpageref
p903
VGorilla
p904
sVstartedDateTime
p905
V2017-04-16T08:13:41.607-05:00
p906
sVcache
p907
(dp908
sVrequest
p909
(dp910
Vcomment
p911
g4
sVcookies
p912
(lp913
sVurl
p914
Vhttps://www.google.com/gen_204?atyp=i&ct=&cad=&vet=10ahUKEwiazIeLh6nTAhVF6YMKHYNnD-UQ5W0IPCgF..s&ei=Am7zWJrDL8XSjwSDz72oDg&zx=1492348421563
p915
sVqueryString
p916
(lp917
(dp918
Vname
p919
Vatyp
p920
sVvalue
p921
g30
sa(dp922
Vname
p923
Vct
p924
sVvalue
p925
g4
sa(dp926
Vname
p927
Vcad
p928
sVvalue
p929
g4
sa(dp930
Vname
p931
Vvet
p932
sVvalue
p933
V10ahUKEwiazIeLh6nTAhVF6YMKHYNnD-UQ5W0IPCgF..s
p934
sa(dp935
Vname
p936
Vei
p937
sVvalue
p938
VAm7zWJrDL8XSjwSDz72oDg
p939
sa(dp940
Vname
p941
Vzx
p942
sVvalue
p943
V1492348421563
p944
sasVheaders
p945
(lp946
sVheadersSize
p947
I656
sVbodySize
p948
I0
sVmethod
p949
VGET
p950
sVhttpVersion
p951
VHTTP/1.1
p952
ssVtimings
p953
(dp954
Vcomment
p955
g4
sVreceive
p956
I0
sVsend
p957
I0
sVssl
p958
I17
sVconnect
p959
I38
sVdns
p960
I1
sVwait
p961
I29
sVblocked
p962
I0
ssVtime
p963
I70
sVresponse
p964
(dp965
Vstatus
p966
I204
sVcomment
p967
g4
sVcookies
p968
(lp969
sVstatusText
p970
VNo Content
p971
sVcontent
p972
(dp973
VmimeType
p974
Vtext/html; charset=UTF-8
p975
sVcomment
p976
g4
sVsize
p977
I0
ssVheaders
p978
(lp979
sVheadersSize
p980
I248
sVredirectURL
p981
g4
sVbodySize
p982
I0
sVhttpVersion
p983
VHTTP/1.1
p984
ssa(dp985
Vcomment
p986
g4
sVserverIPAddress
p987
V216.58.216.196
p988
sVpageref
p989
VGorilla
p990
sVstartedDateTime
p991
V2017-04-16T08:13:41.617-05:00
p992
sVcache
p993
(dp994
sVrequest
p995
(dp996
Vcomment
p997
g4
sVcookies
p998
(lp999
sVurl
p1000
Vhttps://www.google.com/gen_204?atyp=i&ct=&cad=&vet=10ahUKEwiazIeLh6nTAhVF6YMKHYNnD-UQ5W0IPygG..s&ei=Am7zWJrDL8XSjwSDz72oDg&zx=1492348421565
p1001
sVqueryString
p1002
(lp1003
(dp1004
Vname
p1005
Vatyp
p1006
sVvalue
p1007
g30
sa(dp1008
Vname
p1009
Vct
p1010
sVvalue
p1011
g4
sa(dp1012
Vname
p1013
Vcad
p1014
sVvalue
p1015
g4
sa(dp1016
Vname
p1017
Vvet
p1018
sVvalue
p1019
V10ahUKEwiazIeLh6nTAhVF6YMKHYNnD-UQ5W0IPygG..s
p1020
sa(dp1021
Vname
p1022
Vei
p1023
sVvalue
p1024
VAm7zWJrDL8XSjwSDz72oDg
p1025
sa(dp1026
Vname
p1027
Vzx
p1028
sVvalue
p1029
V1492348421565
p1030
sasVheaders
p1031
(lp1032
sVheadersSize
p1033
I656
sVbodySize
p1034
I0
sVmethod
p1035
VGET
p1036
sVhttpVersion
p1037
VHTTP/1.1
p1038
ssVtimings
p1039
(dp1040
Vcomment
p1041
g4
sVreceive
p1042
I0
sVsend
p1043
I0
sVssl
p1044
I26
sVconnect
p1045
I48
sVdns
p1046
I0
sVwait
p1047
I26
sVblocked
p1048
I0
ssVtime
p1049
I75
sVresponse
p1050
(dp1051
Vstatus
p1052
I204
sVcomment
p1053
g4
sVcookies
p1054
(lp1055
sVstatusText
p1056
VNo Content
p1057
sVcontent
p1058
(dp1059
VmimeType
p1060
Vtext/html; charset=UTF-8
p1061
sVcomment
p1062
g4
sVsize
p1063
I0
ssVheaders
p1064
(lp1065
sVheadersSize
p1066
I248
sVredirectURL
p1067
g4
sVbodySize
p1068
I0
sVhttpVersion
p1069
VHTTP/1.1
p1070
ssa(dp1071
Vcomment
p1072
g4
sVserverIPAddress
p1073
V216.58.216.193
p1074
sVpageref
p1075
VGorilla
p1076
sVstartedDateTime
p1077
V2017-04-16T08:13:41.627-05:00
p1078
sVcache
p1079
(dp1080
sVrequest
p1081
(dp1082
Vcomment
p1083
g4
sVcookies
p1084
(lp1085
sVurl
p1086
Vhttps://cdn.ampproject.org/preconnect.gif?0.5378128994511009
p1087
sVqueryString
p1088
(lp1089
(dp1090
Vname
p1091
V0.5378128994511009
p1092
sVvalue
p1093
g4
sasVheaders
p1094
(lp1095
sVheadersSize
p1096
I375
sVbodySize
p1097
I0
sVmethod
p1098
VGET
p1099
sVhttpVersion
p1100
VHTTP/1.1
p1101
ssVtimings
p1102
(dp1103
Vcomment
p1104
g4
sVreceive
p1105
I0
sVsend
p1106
I0
sVssl
p1107
I-1
sVconnect
p1108
I-1
sVdns
p1109
I-1
sVwait
p1110
I35
sVblocked
p1111
I-1
ssVtime
p1112
I35
sVresponse
p1113
(dp1114
Vstatus
p1115
I200
sVcomment
p1116
g4
sVcookies
p1117
(lp1118
sVstatusText
p1119
VOK
p1120
sVcontent
p1121
(dp1122
VmimeType
p1123
Vimage/gif
p1124
sVcomment
p1125
g4
sVsize
p1126
I0
ssVheaders
p1127
(lp1128
sVheadersSize
p1129
I826
sVredirectURL
p1130
g4
sVbodySize
p1131
I37
sVhttpVersion
p1132
VHTTP/1.1
p1133
ssa(dp1134
Vcomment
p1135
g4
sVserverIPAddress
p1136
V216.58.216.206
p1137
sVpageref
p1138
VGorilla
p1139
sVstartedDateTime
p1140
V2017-04-16T08:13:41.643-05:00
p1141
sVcache
p1142
(dp1143
sVrequest
p1144
(dp1145
Vcomment
p1146
g4
sVcookies
p1147
(lp1148
sVurl
p1149
Vhttps://encrypted-tbn0.gstatic.com/images?q=tbn:ANd9GcT4yvv8L7MXkUlY19xD1N6H-xiGve7Dxhqw5yHW9G3tRz1rw3WNZchW2_-94A
p1150
sVqueryString
p1151
(lp1152
(dp1153
Vname
p1154
g415
sVvalue
p1155
Vtbn:ANd9GcT4yvv8L7MXkUlY19xD1N6H-xiGve7Dxhqw5yHW9G3tRz1rw3WNZchW2_-94A
p1156
sasVheaders
p1157
(lp1158
sVheadersSize
p1159
I429
sVbodySize
p1160
I0
sVmethod
p1161
VGET
p1162
sVhttpVersion
p1163
VHTTP/1.1
p1164
ssVtimings
p1165
(dp1166
Vcomment
p1167
g4
sVreceive
p1168
I2
sVsend
p1169
I0
sVssl
p1170
I-1
sVconnect
p1171
I-1
sVdns
p1172
I-1
sVwait
p1173
I15
sVblocked
p1174
I-1
ssVtime
p1175
I18
sVresponse
p1176
(dp1177
Vstatus
p1178
I200
sVcomment
p1179
g4
sVcookies
p1180
(lp1181
sVstatusText
p1182
VOK
p1183
sVcontent
p1184
(dp1185
VmimeType
p1186
Vimage/jpeg
p1187
sVcomment
p1188
g4
sVsize
p1189
I0
ssVheaders
p1190
(lp1191
sVheadersSize
p1192
I428
sVredirectURL
p1193
g4
sVbodySize
p1194
I7123
sVhttpVersion
p1195
VHTTP/1.1
p1196
ssa(dp1197
Vcomment
p1198
g4
sVserverIPAddress
p1199
V216.58.216.206
p1200
sVpageref
p1201
VGorilla
p1202
sVstartedDateTime
p1203
V2017-04-16T08:13:41.643-05:00
p1204
sVcache
p1205
(dp1206
sVrequest
p1207
(dp1208
Vcomment
p1209
g4
sVcookies
p1210
(lp1211
sVurl
p1212
Vhttps://encrypted-tbn2.gstatic.com/images?q=tbn:ANd9GcTsjL26EoU2RkZGjQn4GLxjuHin_3ZLb0CBC73f_9JoZ9z2YsNXf6L7mC40xg
p1213
sVqueryString
p1214
(lp1215
(dp1216
Vname
p1217
g415
sVvalue
p1218
Vtbn:ANd9GcTsjL26EoU2RkZGjQn4GLxjuHin_3ZLb0CBC73f_9JoZ9z2YsNXf6L7mC40xg
p1219
sasVheaders
p1220
(lp1221
sVheadersSize
p1222
I429
sVbodySize
p1223
I0
sVmethod
p1224
VGET
p1225
sVhttpVersion
p1226
VHTTP/1.1
p1227
ssVtimings
p1228
(dp1229
Vcomment
p1230
g4
sVreceive
p1231
I0
sVsend
p1232
I0
sVssl
p1233
I-1
sVconnect
p1234
I-1
sVdns
p1235
I-1
sVwait
p1236
I30
sVblocked
p1237
I-1
ssVtime
p1238
I30
sVresponse
p1239
(dp1240
Vstatus
p1241
I200
sVcomment
p1242
g4
sVcookies
p1243
(lp1244
sVstatusText
p1245
VOK
p1246
sVcontent
p1247
(dp1248
VmimeType
p1249
Vimage/jpeg
p1250
sVcomment
p1251
g4
sVsize
p1252
I0
ssVheaders
p1253
(lp1254
sVheadersSize
p1255
I429
sVredirectURL
p1256
g4
sVbodySize
p1257
I9303
sVhttpVersion
p1258
VHTTP/1.1
p1259
ssa(dp1260
Vcomment
p1261
g4
sVserverIPAddress
p1262
V216.58.216.206
p1263
sVpageref
p1264
VGorilla
p1265
sVstartedDateTime
p1266
V2017-04-16T08:13:41.644-05:00
p1267
sVcache
p1268
(dp1269
sVrequest
p1270
(dp1271
Vcomment
p1272
g4
sVcookies
p1273
(lp1274
sVurl
p1275
Vhttps://encrypted-tbn1.gstatic.com/images?q=tbn:ANd9GcSZUbDSKkU8bbr_0U5wGALY7Yhr9Z2sJWSiiZGZX53gnvqhVuOjLnmB5xCe
p1276
sVqueryString
p1277
(lp1278
(dp1279
Vname
p1280
g415
sVvalue
p1281
Vtbn:ANd9GcSZUbDSKkU8bbr_0U5wGALY7Yhr9Z2sJWSiiZGZX53gnvqhVuOjLnmB5xCe
p1282
sasVheaders
p1283
(lp1284
sVheadersSize
p1285
I427
sVbodySize
p1286
I0
sVmethod
p1287
VGET
p1288
sVhttpVersion
p1289
VHTTP/1.1
p1290
ssVtimings
p1291
(dp1292
Vcomment
p1293
g4
sVreceive
p1294
I11
sVsend
p1295
I0
sVssl
p1296
I-1
sVconnect
p1297
I-1
sVdns
p1298
I-1
sVwait
p1299
I18
sVblocked
p1300
I-1
ssVtime
p1301
I29
sVresponse
p1302
(dp1303
Vstatus
p1304
I200
sVcomment
p1305
g4
sVcookies
p1306
(lp1307
sVstatusText
p1308
VOK
p1309
sVcontent
p1310
(dp1311
VmimeType
p1312
Vimage/jpeg
p1313
sVcomment
p1314
g4
sVsize
p1315
I0
ssVheaders
p1316
(lp1317
sVheadersSize
p1318
I427
sVredirectURL
p1319
g4
sVbodySize
p1320
I3135
sVhttpVersion
p1321
VHTTP/1.1
p1322
ssa(dp1323
Vcomment
p1324
g4
sVserverIPAddress
p1325
V216.58.216.196
p1326
sVpageref
p1327
VGorilla
p1328
sVstartedDateTime
p1329
V2017-04-16T08:13:41.721-05:00
p1330
sVcache
p1331
(dp1332
sVrequest
p1333
(dp1334
Vcomment
p1335
g4
sVcookies
p1336
(lp1337
sVurl
p1338
Vhttps://www.google.com/gen_204?s=web&atyp=csi&ei=Am7zWJrDL8XSjwSDz72oDg&imc=40&imn=40&imp=28&adh=&xjs=init.42.14.sb_mob.32.dvl.5.mbsf.2.c.1.foot.1&ima=13&rt=prt.1074,iml.1162,xjsls.1075,dcl.1160,xjses.1284,xjsee.1427,xjs.1428,qiml.1907,ol.1790,aft.1089,wsrt.155,cst.0,dnst.0,rqst.1205,rspt.1065,rqstt.5,unt.5,cstt.5,dit.1308
p1339
sVqueryString
p1340
(lp1341
(dp1342
Vname
p1343
g57
sVvalue
p1344
Vweb
p1345
sa(dp1346
Vname
p1347
Vatyp
p1348
sVvalue
p1349
Vcsi
p1350
sa(dp1351
Vname
p1352
Vei
p1353
sVvalue
p1354
VAm7zWJrDL8XSjwSDz72oDg
p1355
sa(dp1356
Vname
p1357
Vimc
p1358
sVvalue
p1359
V40
p1360
sa(dp1361
Vname
p1362
Vimn
p1363
sVvalue
p1364
V40
p1365
sa(dp1366
Vname
p1367
Vimp
p1368
sVvalue
p1369
V28
p1370
sa(dp1371
Vname
p1372
Vadh
p1373
sVvalue
p1374
g4
sa(dp1375
Vname
p1376
Vxjs
p1377
sVvalue
p1378
Vinit.42.14.sb_mob.32.dvl.5.mbsf.2.c.1.foot.1
p1379
sa(dp1380
Vname
p1381
Vima
p1382
sVvalue
p1383
V13
p1384
sa(dp1385
Vname
p1386
Vrt
p1387
sVvalue
p1388
Vprt.1074,iml.1162,xjsls.1075,dcl.1160,xjses.1284,xjsee.1427,xjs.1428,qiml.1907,ol.1790,aft.1089,wsrt.155,cst.0,dnst.0,rqst.1205,rspt.1065,rqstt.5,unt.5,cstt.5,dit.1308
p1389
sasVheaders
p1390
(lp1391
sVheadersSize
p1392
I841
sVbodySize
p1393
I0
sVmethod
p1394
VGET
p1395
sVhttpVersion
p1396
VHTTP/1.1
p1397
ssVtimings
p1398
(dp1399
Vcomment
p1400
g4
sVreceive
p1401
I0
sVsend
p1402
I0
sVssl
p1403
I-1
sVconnect
p1404
I-1
sVdns
p1405
I-1
sVwait
p1406
I25
sVblocked
p1407
I-1
ssVtime
p1408
I26
sVresponse
p1409
(dp1410
Vstatus
p1411
I204
sVcomment
p1412
g4
sVcookies
p1413
(lp1414
sVstatusText
p1415
VNo Content
p1416
sVcontent
p1417
(dp1418
VmimeType
p1419
Vtext/html; charset=UTF-8
p1420
sVcomment
p1421
g4
sVsize
p1422
I0
ssVheaders
p1423
(lp1424
sVheadersSize
p1425
I248
sVredirectURL
p1426
g4
sVbodySize
p1427
I0
sVhttpVersion
p1428
VHTTP/1.1
p1429
ssa(dp1430
Vcomment
p1431
g4
sVserverIPAddress
p1432
V216.58.216.196
p1433
sVpageref
p1434
VGorilla
p1435
sVstartedDateTime
p1436
V2017-04-16T08:13:43.616-05:00
p1437
sVcache
p1438
(dp1439
sVrequest
p1440
(dp1441
Vcomment
p1442
g4
sVcookies
p1443
(lp1444
sVurl
p1445
Vhttps://www.google.com/gen_204?atyp=i&ct=slh&cad=&ei=6W3zWJH_PKjgjwSZ57WACQ&m=V&t=C&s=1&v=2&pv=0.8454255658302448&me=1:1492348396418,x:3,V,0,0,1280,944:0,N,1,6W3zWJH_PKjgjwSZ57WACQ:0,R,1,24,8,155,1249,987:0,R,1,25,8,155,1249,987:0,R,1,28,8,168,1249,40:0,R,1,41,8,219,1249,178:0,R,1,44,0,235,1265,197:0,R,1,84,8,414,1249,40:0,R,1,85,24,414,1217,40:0,R,1,88,8,470,1249,20:0,R,1,104,8,510,1249,310:0,R,1,105,0,555,1265,285:0,R,1,131,8,865,1249,204:0,R,1,132,0,865,1265,224:4,B,3156:22746,e,U&zx=1492348423614
p1446
sVqueryString
p1447
(lp1448
(dp1449
Vname
p1450
Vatyp
p1451
sVvalue
p1452
g30
sa(dp1453
Vname
p1454
Vct
p1455
sVvalue
p1456
Vslh
p1457
sa(dp1458
Vname
p1459
Vcad
p1460
sVvalue
p1461
g4
sa(dp1462
Vname
p1463
Vei
p1464
sVvalue
p1465
V6W3zWJH_PKjgjwSZ57WACQ
p1466
sa(dp1467
Vname
p1468
g47
sVvalue
p1469
g49
sa(dp1470
Vname
p1471
g52
sVvalue
p1472
g54
sa(dp1473
Vname
p1474
g57
sVvalue
p1475
g59
sa(dp1476
Vname
p1477
g62
sVvalue
p1478
g64
sa(dp1479
Vname
p1480
Vpv
p1481
sVvalue
p1482
V0.8454255658302448
p1483
sa(dp1484
Vname
p1485
Vme
p1486
sVvalue
p1487
V1:1492348396418,x:3,V,0,0,1280,944:0,N,1,6W3zWJH_PKjgjwSZ57WACQ:0,R,1,24,8,155,1249,987:0,R,1,25,8,155,1249,987:0,R,1,28,8,168,1249,40:0,R,1,41,8,219,1249,178:0,R,1,44,0,235,1265,197:0,R,1,84,8,414,1249,40:0,R,1,85,24,414,1217,40:0,R,1,88,8,470,1249,20:0,R,1,104,8,510,1249,310:0,R,1,105,0,555,1265,285:0,R,1,131,8,865,1249,204:0,R,1,132,0,865,1265,224:4,B,3156:22746,e,U
p1488
sa(dp1489
Vname
p1490
Vzx
p1491
sVvalue
p1492
V1492348423614
p1493
sasVheaders
p1494
(lp1495
sVheadersSize
p1496
I1022
sVbodySize
p1497
I0
sVmethod
p1498
VGET
p1499
sVhttpVersion
p1500
VHTTP/1.1
p1501
ssVtimings
p1502
(dp1503
Vcomment
p1504
g4
sVreceive
p1505
I0
sVsend
p1506
I0
sVssl
p1507
I-1
sVconnect
p1508
I-1
sVdns
p1509
I-1
sVwait
p1510
I31
sVblocked
p1511
I-1
ssVtime
p1512
I31
sVresponse
p1513
(dp1514
Vstatus
p1515
I204
sVcomment
p1516
g4
sVcookies
p1517
(lp1518
sVstatusText
p1519
VNo Content
p1520
sVcontent
p1521
(dp1522
VmimeType
p1523
Vtext/html; charset=UTF-8
p1524
sVcomment
p1525
g4
sVsize
p1526
I0
ssVheaders
p1527
(lp1528
sVheadersSize
p1529
I248
sVredirectURL
p1530
g4
sVbodySize
p1531
I0
sVhttpVersion
p1532
VHTTP/1.1
p1533
ssasVversion
p1534
V1.2
p1535
sVpages
p1536
(lp1537
(dp1538
VpageTimings
p1539
(dp1540
Vcomment
p1541
g4
ssVcomment
p1542
g4
sVtitle
p1543
VGorilla
p1544
sVid
p1545
VGorilla
p1546
sVstartedDateTime
p1547
V2017-04-16T08:13:39.164-05:00
p1548
sasVcreator
p1549
(dp1550
Vcomment
p1551
g4
sVversion
p1552
V2.1.4
p1553
sVname
p1554
VBrowserMob Proxy
p1555
sss.