(dp0
Vlog
p1
(dp2
Vcomment
p3
V
p4
sVentries
p5
(lp6
(dp7
Vcomment
p8
g4
sVserverIPAddress
p9
V74.125.70.104
p10
sVpageref
p11
VVolkswagen
p12
sVstartedDateTime
p13
V2017-04-16T08:50:14.046-05:00
p14
sVcache
p15
(dp16
sVrequest
p17
(dp18
Vcomment
p19
g4
sVcookies
p20
(lp21
sVurl
p22
Vhttps://www.google.com/gen_204?atyp=i&ct=slh&cad=&ei=gnbzWP3JEMHSjwSaz6n4Dw&m=V&t=C&s=1&v=2&pv=0.2296723393945379&me=1:1492350599216,x:2,V,0,0,1280,944:0,N,1,gnbzWP3JEMHSjwSaz6n4Dw:0,R,1,24,8,155,1249,445:0,R,1,26,8,155,1197,445:0,R,1,28,95,155,1024,120:0,R,1,68,8,351,1197,83:0,R,1,77,8,435,1197,83:0,R,1,86,8,518,1197,82:0,R,1,97,24,610,1217,115:0,R,1,104,8,746,1249,700:0,R,1,111,8,928,1249,332:0,R,1,112,0,929,1265,351:2,B,3554:14824,e,U&zx=1492350614045
p23
sVqueryString
p24
(lp25
(dp26
Vname
p27
Vatyp
p28
sVvalue
p29
Vi
p30
sa(dp31
Vname
p32
Vct
p33
sVvalue
p34
Vslh
p35
sa(dp36
Vname
p37
Vcad
p38
sVvalue
p39
g4
sa(dp40
Vname
p41
Vei
p42
sVvalue
p43
VgnbzWP3JEMHSjwSaz6n4Dw
p44
sa(dp45
Vname
p46
Vm
p47
sVvalue
p48
VV
p49
sa(dp50
Vname
p51
Vt
p52
sVvalue
p53
VC
p54
sa(dp55
Vname
p56
Vs
p57
sVvalue
p58
V1
p59
sa(dp60
Vname
p61
Vv
p62
sVvalue
p63
V2
p64
sa(dp65
Vname
p66
Vpv
p67
sVvalue
p68
V0.2296723393945379
p69
sa(dp70
Vname
p71
Vme
p72
sVvalue
p73
V1:1492350599216,x:2,V,0,0,1280,944:0,N,1,gnbzWP3JEMHSjwSaz6n4Dw:0,R,1,24,8,155,1249,445:0,R,1,26,8,155,1197,445:0,R,1,28,95,155,1024,120:0,R,1,68,8,351,1197,83:0,R,1,77,8,435,1197,83:0,R,1,86,8,518,1197,82:0,R,1,97,24,610,1217,115:0,R,1,104,8,746,1249,700:0,R,1,111,8,928,1249,332:0,R,1,112,0,929,1265,351:2,B,3554:14824,e,U
p74
sa(dp75
Vname
p76
Vzx
p77
sVvalue
p78
V1492350614045
p79
sasVheaders
p80
(lp81
sVheadersSize
p82
I975
sVbodySize
p83
I0
sVmethod
p84
VGET
p85
sVhttpVersion
p86
VHTTP/1.1
p87
ssVtimings
p88
(dp89
Vcomment
p90
g4
sVreceive
p91
I0
sVsend
p92
I0
sVssl
p93
I-1
sVconnect
p94
I-1
sVdns
p95
I-1
sVwait
p96
I0
sVblocked
p97
I-1
ssVtime
p98
I0
sVresponse
p99
(dp100
Vstatus
p101
I0
sVcomment
p102
g4
sVcookies
p103
(lp104
sV_error
p105
VNo response received
p106
sVstatusText
p107
g4
sVcontent
p108
(dp109
VmimeType
p110
g4
sVcomment
p111
g4
sVsize
p112
I0
ssVheaders
p113
(lp114
sVheadersSize
p115
I-1
sVredirectURL
p116
g4
sVbodySize
p117
I-1
sVhttpVersion
p118
Vunknown
p119
ssa(dp120
Vcomment
p121
g4
sVserverIPAddress
p122
V74.125.70.104
p123
sVpageref
p124
VVolkswagen
p125
sVstartedDateTime
p126
V2017-04-16T08:50:14.047-05:00
p127
sVcache
p128
(dp129
sVrequest
p130
(dp131
Vcomment
p132
g4
sVcookies
p133
(lp134
sVurl
p135
Vhttps://www.google.com/gen_204?atyp=i&ct=slh&cad=&ei=dnbzWL2THurcjwT7rqygBA&m=V&t=C&s=1&v=2&pv=0.7355533824036778&me=1:1492350586089,x:3,V,0,0,1280,944:0,N,1,dnbzWL2THurcjwT7rqygBA:0,R,1,25,8,228,1249,224:0,R,1,35,8,462,1249,501:0,R,1,37,8,462,1197,501:0,R,1,39,95,462,1024,120:0,R,1,70,16,658,1189,83:0,R,1,79,16,741,1189,83:0,R,1,88,16,824,1189,93:3,B,3931:8506,e,U&zx=1492350614045
p136
sVqueryString
p137
(lp138
(dp139
Vname
p140
Vatyp
p141
sVvalue
p142
g30
sa(dp143
Vname
p144
Vct
p145
sVvalue
p146
Vslh
p147
sa(dp148
Vname
p149
Vcad
p150
sVvalue
p151
g4
sa(dp152
Vname
p153
Vei
p154
sVvalue
p155
VdnbzWL2THurcjwT7rqygBA
p156
sa(dp157
Vname
p158
g47
sVvalue
p159
g49
sa(dp160
Vname
p161
g52
sVvalue
p162
g54
sa(dp163
Vname
p164
g57
sVvalue
p165
g59
sa(dp166
Vname
p167
g62
sVvalue
p168
g64
sa(dp169
Vname
p170
Vpv
p171
sVvalue
p172
V0.7355533824036778
p173
sa(dp174
Vname
p175
Vme
p176
sVvalue
p177
V1:1492350586089,x:3,V,0,0,1280,944:0,N,1,dnbzWL2THurcjwT7rqygBA:0,R,1,25,8,228,1249,224:0,R,1,35,8,462,1249,501:0,R,1,37,8,462,1197,501:0,R,1,39,95,462,1024,120:0,R,1,70,16,658,1189,83:0,R,1,79,16,741,1189,83:0,R,1,88,16,824,1189,93:3,B,3931:8506,e,U
p178
sa(dp179
Vname
p180
Vzx
p181
sVvalue
p182
V1492350614045
p183
sasVheaders
p184
(lp185
sVheadersSize
p186
I901
sVbodySize
p187
I0
sVmethod
p188
VGET
p189
sVhttpVersion
p190
VHTTP/1.1
p191
ssVtimings
p192
(dp193
Vcomment
p194
g4
sVreceive
p195
I0
sVsend
p196
I0
sVssl
p197
I-1
sVconnect
p198
I-1
sVdns
p199
I-1
sVwait
p200
I0
sVblocked
p201
I-1
ssVtime
p202
I0
sVresponse
p203
(dp204
Vstatus
p205
I0
sVcomment
p206
g4
sVcookies
p207
(lp208
sV_error
p209
VNo response received
p210
sVstatusText
p211
g4
sVcontent
p212
(dp213
VmimeType
p214
g4
sVcomment
p215
g4
sVsize
p216
I0
ssVheaders
p217
(lp218
sVheadersSize
p219
I-1
sVredirectURL
p220
g4
sVbodySize
p221
I-1
sVhttpVersion
p222
Vunknown
p223
ssa(dp224
Vcomment
p225
g4
sVserverIPAddress
p226
V74.125.70.104
p227
sVpageref
p228
VVolkswagen
p229
sVstartedDateTime
p230
V2017-04-16T08:50:14.048-05:00
p231
sVcache
p232
(dp233
sVrequest
p234
(dp235
Vcomment
p236
g4
sVcookies
p237
(lp238
sVurl
p239
Vhttps://www.google.com/gen_204?atyp=i&ct=slh&cad=&ei=SHbzWJ3KIuzZjwTZ-LvQDA&m=V&t=C&s=1&v=2&pv=0.7970961535757144&me=1:1492350540310,x:2,V,0,0,1280,944:0,N,1,SHbzWJ3KIuzZjwTZ-LvQDA:0,R,1,24,8,155,1249,337:0,R,1,25,8,155,1249,317:0,R,1,26,8,155,1249,90:0,R,1,47,8,502,1249,445:0,R,1,51,8,615,1249,332:0,R,1,52,0,616,1265,351:2,B,4086:13813,e,U&zx=1492350614047
p240
sVqueryString
p241
(lp242
(dp243
Vname
p244
Vatyp
p245
sVvalue
p246
g30
sa(dp247
Vname
p248
Vct
p249
sVvalue
p250
Vslh
p251
sa(dp252
Vname
p253
Vcad
p254
sVvalue
p255
g4
sa(dp256
Vname
p257
Vei
p258
sVvalue
p259
VSHbzWJ3KIuzZjwTZ-LvQDA
p260
sa(dp261
Vname
p262
g47
sVvalue
p263
g49
sa(dp264
Vname
p265
g52
sVvalue
p266
g54
sa(dp267
Vname
p268
g57
sVvalue
p269
g59
sa(dp270
Vname
p271
g62
sVvalue
p272
g64
sa(dp273
Vname
p274
Vpv
p275
sVvalue
p276
V0.7970961535757144
p277
sa(dp278
Vname
p279
Vme
p280
sVvalue
p281
V1:1492350540310,x:2,V,0,0,1280,944:0,N,1,SHbzWJ3KIuzZjwTZ-LvQDA:0,R,1,24,8,155,1249,337:0,R,1,25,8,155,1249,317:0,R,1,26,8,155,1249,90:0,R,1,47,8,502,1249,445:0,R,1,51,8,615,1249,332:0,R,1,52,0,616,1265,351:2,B,4086:13813,e,U
p282
sa(dp283
Vname
p284
Vzx
p285
sVvalue
p286
V1492350614047
p287
sasVheaders
p288
(lp289
sVheadersSize
p290
I876
sVbodySize
p291
I0
sVmethod
p292
VGET
p293
sVhttpVersion
p294
VHTTP/1.1
p295
ssVtimings
p296
(dp297
Vcomment
p298
g4
sVreceive
p299
I0
sVsend
p300
I0
sVssl
p301
I-1
sVconnect
p302
I-1
sVdns
p303
I-1
sVwait
p304
I0
sVblocked
p305
I-1
ssVtime
p306
I0
sVresponse
p307
(dp308
Vstatus
p309
I0
sVcomment
p310
g4
sVcookies
p311
(lp312
sV_error
p313
VNo response received
p314
sVstatusText
p315
g4
sVcontent
p316
(dp317
VmimeType
p318
g4
sVcomment
p319
g4
sVsize
p320
I0
ssVheaders
p321
(lp322
sVheadersSize
p323
I-1
sVredirectURL
p324
g4
sVbodySize
p325
I-1
sVhttpVersion
p326
Vunknown
p327
ssa(dp328
Vcomment
p329
g4
sVserverIPAddress
p330
V74.125.70.104
p331
sVpageref
p332
VVolkswagen
p333
sVstartedDateTime
p334
V2017-04-16T08:50:14.063-05:00
p335
sVcache
p336
(dp337
sVrequest
p338
(dp339
Vcomment
p340
g4
sVcookies
p341
(lp342
sVurl
p343
Vhttp://www.google.com/
p344
sVqueryString
p345
(lp346
sVheaders
p347
(lp348
sVheadersSize
p349
I613
sVbodySize
p350
I0
sVmethod
p351
VGET
p352
sVhttpVersion
p353
VHTTP/1.1
p354
ssVtimings
p355
(dp356
Vcomment
p357
g4
sVreceive
p358
I0
sVsend
p359
I0
sVssl
p360
I-1
sVconnect
p361
I-1
sVdns
p362
I-1
sVwait
p363
I38
sVblocked
p364
I-1
ssVtime
p365
I39
sVresponse
p366
(dp367
Vstatus
p368
I302
sVcomment
p369
g4
sVcookies
p370
(lp371
sVstatusText
p372
VFound
p373
sVcontent
p374
(dp375
VmimeType
p376
Vtext/html; charset=UTF-8
p377
sVcomment
p378
g4
sVsize
p379
I0
ssVheaders
p380
(lp381
sVheadersSize
p382
I609
sVredirectURL
p383
Vhttps://www.google.com/?gws_rd=ssl
p384
sVbodySize
p385
I231
sVhttpVersion
p386
VHTTP/1.1
p387
ssa(dp388
Vcomment
p389
g4
sVserverIPAddress
p390
V74.125.70.104
p391
sVpageref
p392
VVolkswagen
p393
sVstartedDateTime
p394
V2017-04-16T08:50:14.105-05:00
p395
sVcache
p396
(dp397
sVrequest
p398
(dp399
Vcomment
p400
g4
sVcookies
p401
(lp402
sVurl
p403
Vhttps://www.google.com/?gws_rd=ssl
p404
sVqueryString
p405
(lp406
(dp407
Vname
p408
Vgws_rd
p409
sVvalue
p410
Vssl
p411
sasVheaders
p412
(lp413
sVheadersSize
p414
I607
sVbodySize
p415
I0
sVmethod
p416
VGET
p417
sVhttpVersion
p418
VHTTP/1.1
p419
ssVtimings
p420
(dp421
Vcomment
p422
g4
sVreceive
p423
I35
sVsend
p424
I0
sVssl
p425
I-1
sVconnect
p426
I-1
sVdns
p427
I-1
sVwait
p428
I68
sVblocked
p429
I-1
ssVtime
p430
I103
sVresponse
p431
(dp432
Vstatus
p433
I200
sVcomment
p434
g4
sVcookies
p435
(lp436
sVstatusText
p437
VOK
p438
sVcontent
p439
(dp440
VmimeType
p441
Vtext/html; charset=UTF-8
p442
sVcomment
p443
g4
sVsize
p444
I0
ssVheaders
p445
(lp446
sVheadersSize
p447
I721
sVredirectURL
p448
g4
sVbodySize
p449
I34293
sVhttpVersion
p450
VHTTP/1.1
p451
ssa(dp452
Vcomment
p453
g4
sVserverIPAddress
p454
V74.125.70.104
p455
sVpageref
p456
VVolkswagen
p457
sVstartedDateTime
p458
V2017-04-16T08:50:14.559-05:00
p459
sVcache
p460
(dp461
sVrequest
p462
(dp463
Vcomment
p464
g4
sVcookies
p465
(lp466
sVurl
p467
Vhttps://www.google.com/gen_204?s=mobilewebhp&atyp=csi&ei=lXbzWOSPBYzYjwS4q5uwCA&imc=1&imn=1&imp=0&adh=&xjs=init.40.12.sb_mob.29.dvl.6.c.1.jsa.1.mbsf.1&ima=1&rt=xjsls.37,prt.38,iml.38,dcl.83,xjses.131,xjsee.235,xjs.236,ol.355,aft.38,wsrt.155,cst.0,dnst.0,rqst.106,rspt.37,rqstt.61,unt.59,cstt.59,dit.230
p468
sVqueryString
p469
(lp470
(dp471
Vname
p472
g57
sVvalue
p473
Vmobilewebhp
p474
sa(dp475
Vname
p476
Vatyp
p477
sVvalue
p478
Vcsi
p479
sa(dp480
Vname
p481
Vei
p482
sVvalue
p483
VlXbzWOSPBYzYjwS4q5uwCA
p484
sa(dp485
Vname
p486
Vimc
p487
sVvalue
p488
g59
sa(dp489
Vname
p490
Vimn
p491
sVvalue
p492
g59
sa(dp493
Vname
p494
Vimp
p495
sVvalue
p496
V0
p497
sa(dp498
Vname
p499
Vadh
p500
sVvalue
p501
g4
sa(dp502
Vname
p503
Vxjs
p504
sVvalue
p505
Vinit.40.12.sb_mob.29.dvl.6.c.1.jsa.1.mbsf.1
p506
sa(dp507
Vname
p508
Vima
p509
sVvalue
p510
g59
sa(dp511
Vname
p512
Vrt
p513
sVvalue
p514
Vxjsls.37,prt.38,iml.38,dcl.83,xjses.131,xjsee.235,xjs.236,ol.355,aft.38,wsrt.155,cst.0,dnst.0,rqst.106,rspt.37,rqstt.61,unt.59,cstt.59,dit.230
p515
sasVheaders
p516
(lp517
sVheadersSize
p518
I830
sVbodySize
p519
I0
sVmethod
p520
VGET
p521
sVhttpVersion
p522
VHTTP/1.1
p523
ssVtimings
p524
(dp525
Vcomment
p526
g4
sVreceive
p527
I0
sVsend
p528
I0
sVssl
p529
I-1
sVconnect
p530
I-1
sVdns
p531
I-1
sVwait
p532
I24
sVblocked
p533
I-1
ssVtime
p534
I25
sVresponse
p535
(dp536
Vstatus
p537
I204
sVcomment
p538
g4
sVcookies
p539
(lp540
sVstatusText
p541
VNo Content
p542
sVcontent
p543
(dp544
VmimeType
p545
Vtext/html; charset=UTF-8
p546
sVcomment
p547
g4
sVsize
p548
I0
ssVheaders
p549
(lp550
sVheadersSize
p551
I248
sVredirectURL
p552
g4
sVbodySize
p553
I0
sVhttpVersion
p554
VHTTP/1.1
p555
ssa(dp556
Vcomment
p557
g4
sVserverIPAddress
p558
V74.125.70.104
p559
sVpageref
p560
VVolkswagen
p561
sVstartedDateTime
p562
V2017-04-16T08:50:14.667-05:00
p563
sVcache
p564
(dp565
sVrequest
p566
(dp567
Vcomment
p568
g4
sVcookies
p569
(lp570
sVurl
p571
Vhttps://www.google.com/complete/search?client=mobile-gws-hp&hl=en&gs_rn=64&gs_ri=mobile-gws-hp&sla=1&pfq=volvo&gm=602&cp=0&gs_id=1&xhr=t&q=V&tch=1&ech=1&psi=lXbzWOSPBYzYjwS4q5uwCA.1492350614396.1
p572
sVqueryString
p573
(lp574
(dp575
Vname
p576
Vclient
p577
sVvalue
p578
Vmobile-gws-hp
p579
sa(dp580
Vname
p581
Vhl
p582
sVvalue
p583
Ven
p584
sa(dp585
Vname
p586
Vgs_rn
p587
sVvalue
p588
V64
p589
sa(dp590
Vname
p591
Vgs_ri
p592
sVvalue
p593
Vmobile-gws-hp
p594
sa(dp595
Vname
p596
Vsla
p597
sVvalue
p598
g59
sa(dp599
Vname
p600
Vpfq
p601
sVvalue
p602
Vvolvo
p603
sa(dp604
Vname
p605
Vgm
p606
sVvalue
p607
V602
p608
sa(dp609
Vname
p610
Vcp
p611
sVvalue
p612
g497
sa(dp613
Vname
p614
Vgs_id
p615
sVvalue
p616
g59
sa(dp617
Vname
p618
Vxhr
p619
sVvalue
p620
g52
sa(dp621
Vname
p622
Vq
p623
sVvalue
p624
g49
sa(dp625
Vname
p626
Vtch
p627
sVvalue
p628
g59
sa(dp629
Vname
p630
Vech
p631
sVvalue
p632
g59
sa(dp633
Vname
p634
Vpsi
p635
sVvalue
p636
VlXbzWOSPBYzYjwS4q5uwCA.1492350614396.1
p637
sasVheaders
p638
(lp639
sVheadersSize
p640
I723
sVbodySize
p641
I0
sVmethod
p642
VGET
p643
sVhttpVersion
p644
VHTTP/1.1
p645
ssVtimings
p646
(dp647
Vcomment
p648
g4
sVreceive
p649
I0
sVsend
p650
I0
sVssl
p651
I-1
sVconnect
p652
I-1
sVdns
p653
I-1
sVwait
p654
I356
sVblocked
p655
I-1
ssVtime
p656
I357
sVresponse
p657
(dp658
Vstatus
p659
I200
sVcomment
p660
g4
sVcookies
p661
(lp662
sVstatusText
p663
VOK
p664
sVcontent
p665
(dp666
VmimeType
p667
Vapplication/json; charset=UTF-8
p668
sVcomment
p669
g4
sVsize
p670
I0
ssVheaders
p671
(lp672
sVheadersSize
p673
I421
sVredirectURL
p674
g4
sVbodySize
p675
I504
sVhttpVersion
p676
VHTTP/1.1
p677
ssa(dp678
Vcomment
p679
g4
sVserverIPAddress
p680
V74.125.70.104
p681
sVpageref
p682
VVolkswagen
p683
sVstartedDateTime
p684
V2017-04-16T08:50:16.764-05:00
p685
sVcache
p686
(dp687
sVrequest
p688
(dp689
Vcomment
p690
g4
sVcookies
p691
(lp692
sVurl
p693
Vhttps://www.google.com/complete/search?client=mobile-gws-hp&hl=en&gs_rn=64&gs_ri=mobile-gws-hp&sla=1&gm=602&cp=0&gs_id=j&xhr=t&q=Volkswagen&tch=1&ech=2&psi=lXbzWOSPBYzYjwS4q5uwCA.1492350614396.1
p694
sVqueryString
p695
(lp696
(dp697
Vname
p698
Vclient
p699
sVvalue
p700
Vmobile-gws-hp
p701
sa(dp702
Vname
p703
Vhl
p704
sVvalue
p705
Ven
p706
sa(dp707
Vname
p708
Vgs_rn
p709
sVvalue
p710
V64
p711
sa(dp712
Vname
p713
Vgs_ri
p714
sVvalue
p715
Vmobile-gws-hp
p716
sa(dp717
Vname
p718
Vsla
p719
sVvalue
p720
g59
sa(dp721
Vname
p722
Vgm
p723
sVvalue
p724
V602
p725
sa(dp726
Vname
p727
Vcp
p728
sVvalue
p729
g497
sa(dp730
Vname
p731
Vgs_id
p732
sVvalue
p733
Vj
p734
sa(dp735
Vname
p736
Vxhr
p737
sVvalue
p738
g52
sa(dp739
Vname
p740
g623
sVvalue
p741
VVolkswagen
p742
sa(dp743
Vname
p744
Vtch
p745
sVvalue
p746
g59
sa(dp747
Vname
p748
Vech
p749
sVvalue
p750
g64
sa(dp751
Vname
p752
Vpsi
p753
sVvalue
p754
VlXbzWOSPBYzYjwS4q5uwCA.1492350614396.1
p755
sasVheaders
p756
(lp757
sVheadersSize
p758
I722
sVbodySize
p759
I0
sVmethod
p760
VGET
p761
sVhttpVersion
p762
VHTTP/1.1
p763
ssVtimings
p764
(dp765
Vcomment
p766
g4
sVreceive
p767
I0
sVsend
p768
I0
sVssl
p769
I-1
sVconnect
p770
I-1
sVdns
p771
I-1
sVwait
p772
I64
sVblocked
p773
I-1
ssVtime
p774
I65
sVresponse
p775
(dp776
Vstatus
p777
I200
sVcomment
p778
g4
sVcookies
p779
(lp780
sVstatusText
p781
VOK
p782
sVcontent
p783
(dp784
VmimeType
p785
Vapplication/json; charset=UTF-8
p786
sVcomment
p787
g4
sVsize
p788
I0
ssVheaders
p789
(lp790
sVheadersSize
p791
I421
sVredirectURL
p792
g4
sVbodySize
p793
I360
sVhttpVersion
p794
VHTTP/1.1
p795
ssa(dp796
Vcomment
p797
g4
sVserverIPAddress
p798
V74.125.70.104
p799
sVpageref
p800
VVolkswagen
p801
sVstartedDateTime
p802
V2017-04-16T08:50:16.893-05:00
p803
sVcache
p804
(dp805
sVrequest
p806
(dp807
Vcomment
p808
g4
sVcookies
p809
(lp810
sVurl
p811
Vhttps://www.google.com/search?site=&source=hp&ei=lXbzWOSPBYzYjwS4q5uwCA&q=Volkswagen&oq=Volkswagen&gs_l=mobile-gws-hp.3..41j0i46k1j46l2j0.241.269.0.2426.10.2.0.0.0.0.2113.2113.9-1.1.0....0...1c.1.64.mobile-gws-hp..9.1.2113.kab8uphUcC8
p812
sVqueryString
p813
(lp814
(dp815
Vname
p816
Vsite
p817
sVvalue
p818
g4
sa(dp819
Vname
p820
Vsource
p821
sVvalue
p822
Vhp
p823
sa(dp824
Vname
p825
Vei
p826
sVvalue
p827
VlXbzWOSPBYzYjwS4q5uwCA
p828
sa(dp829
Vname
p830
g623
sVvalue
p831
VVolkswagen
p832
sa(dp833
Vname
p834
Voq
p835
sVvalue
p836
VVolkswagen
p837
sa(dp838
Vname
p839
Vgs_l
p840
sVvalue
p841
Vmobile-gws-hp.3..41j0i46k1j46l2j0.241.269.0.2426.10.2.0.0.0.0.2113.2113.9-1.1.0....0...1c.1.64.mobile-gws-hp..9.1.2113.kab8uphUcC8
p842
sasVheaders
p843
(lp844
sVheadersSize
p845
I852
sVbodySize
p846
I0
sVmethod
p847
VGET
p848
sVhttpVersion
p849
VHTTP/1.1
p850
ssVtimings
p851
(dp852
Vcomment
p853
g4
sVreceive
p854
I1210
sVsend
p855
I0
sVssl
p856
I-1
sVconnect
p857
I-1
sVdns
p858
I-1
sVwait
p859
I98
sVblocked
p860
I-1
ssVtime
p861
I1309
sVresponse
p862
(dp863
Vstatus
p864
I200
sVcomment
p865
g4
sVcookies
p866
(lp867
sVstatusText
p868
VOK
p869
sVcontent
p870
(dp871
VmimeType
p872
Vtext/html; charset=UTF-8
p873
sVcomment
p874
g4
sVsize
p875
I0
ssVheaders
p876
(lp877
sVheadersSize
p878
I363
sVredirectURL
p879
g4
sVbodySize
p880
I206890
sVhttpVersion
p881
VHTTP/1.1
p882
ssa(dp883
Vcomment
p884
g4
sVserverIPAddress
p885
V74.125.70.104
p886
sVpageref
p887
VVolkswagen
p888
sVstartedDateTime
p889
V2017-04-16T08:50:17.981-05:00
p890
sVcache
p891
(dp892
sVrequest
p893
(dp894
Vcomment
p895
g4
sVcookies
p896
(lp897
sVurl
p898
Vhttps://www.google.com/gen_204?atyp=i&ct=&cad=udla=1&ei=l3bzWIqPNcr4jwTk0KXoBw&b=0&act=p&ps=0&zx=1492350617979
p899
sVqueryString
p900
(lp901
(dp902
Vname
p903
Vatyp
p904
sVvalue
p905
g30
sa(dp906
Vname
p907
Vct
p908
sVvalue
p909
g4
sa(dp910
Vname
p911
Vcad
p912
sVvalue
p913
Vudla=1
p914
sa(dp915
Vname
p916
Vei
p917
sVvalue
p918
Vl3bzWIqPNcr4jwTk0KXoBw
p919
sa(dp920
Vname
p921
Vb
p922
sVvalue
p923
g497
sa(dp924
Vname
p925
Vact
p926
sVvalue
p927
Vp
p928
sa(dp929
Vname
p930
Vps
p931
sVvalue
p932
g497
sa(dp933
Vname
p934
Vzx
p935
sVvalue
p936
V1492350617979
p937
sasVheaders
p938
(lp939
sVheadersSize
p940
I627
sVbodySize
p941
I0
sVmethod
p942
VGET
p943
sVhttpVersion
p944
VHTTP/1.1
p945
ssVtimings
p946
(dp947
Vcomment
p948
g4
sVreceive
p949
I0
sVsend
p950
I0
sVssl
p951
I-1
sVconnect
p952
I-1
sVdns
p953
I-1
sVwait
p954
I46
sVblocked
p955
I-1
ssVtime
p956
I47
sVresponse
p957
(dp958
Vstatus
p959
I204
sVcomment
p960
g4
sVcookies
p961
(lp962
sVstatusText
p963
VNo Content
p964
sVcontent
p965
(dp966
VmimeType
p967
Vtext/html; charset=UTF-8
p968
sVcomment
p969
g4
sVsize
p970
I0
ssVheaders
p971
(lp972
sVheadersSize
p973
I248
sVredirectURL
p974
g4
sVbodySize
p975
I0
sVhttpVersion
p976
VHTTP/1.1
p977
ssa(dp978
Vcomment
p979
g4
sVserverIPAddress
p980
V74.125.70.104
p981
sVpageref
p982
VVolkswagen
p983
sVstartedDateTime
p984
V2017-04-16T08:50:18.495-05:00
p985
sVcache
p986
(dp987
sVrequest
p988
(dp989
Vcomment
p990
g4
sVcookies
p991
(lp992
sVurl
p993
Vhttps://www.google.com/xjs/_/js/k=xjs.qs.en_US.pCBXVCvTH3s.O/m=syl,syj,syn,em3,em8,em6,em7,sym,aa,abd,sy2g,sy2k,sy29,sy2j,sy2d,sy2a,sy2c,sy2f,sy2l,sy2m,sy2n,emd,async,sybn,sybi,sybo,sy1f,sy45,sy46,sy9w,sybk,sybj,sybp,sy1g,sy30,sy47,sybm,sybl,sybq,sy1h,sybh,dvl,syep,foot,ipv6,sy32,emj,shm,sy5g,sy5i,sy5k,sykh,tl,sy2x,sy2y,sy2t,sy38,em12,vs,sy5j,sy5h,sy6u,sy66,sy67,sy7d,sy7j,sy4u,sy69,sy89,sy7e,sykk,sykl,tnv,sy23,sy24,sy4g,adinfo,attl,apmf,bct,sy9m,syac,sy9b,sy9n,syhz,syl6,ssc,sy1y,sya3,sy22,sy6i,sy25,sya2,sy6j,sy72,emb,sy26,em9,ema,sy31,sya4,sykr,strm,sy5o,sy5r,sy2u,sy5u,sy5t,sy33,sy34,sy2w,sy2z,sy7l,sy4v,sy6z,sy4l,sy37,sy2r,sy35,sy6q,sy7t,sy50,sy71,sy7f,sy7o,syah,syai,syak,syal,alc,sy1r,syaj,flum,sy4d,sy4f,sy4c,sy4e,sy4b,syd7,dgm,sy3x,sy6p,sy3w,syav,syaw,syb0,sy2o,syb1,syaz,syao,sy2v,sy36,sy3z,syau,syb2,syb3,syay,syax,sy8x,syag,syb7,sy2i,sy6k,syam,syaq,syat,syb4,syb5,syb6,sybc,sybg,lrl,lcm,mexp,sy48,sy3a,sy3c,sy5b,sy4x,sybd,sybe,sybt,sy2p,sy56,sybf,sybr,sybs,mlm,sy4z,sy4y,sy5d,sy5e,llmr,akpc,gldm,sy6n,flpm,sy5a,syan,syap,flmm,rltl,sy7y,sy7u,sy7w,sy87,sy7p,sy81,sy7q,sy7s,sy7z,sy82,sy85,sy83,sy5n,syas,syb8,syba,sybb,inf,sy5x,qif,rliv,skp,llmu,sy6l,sy6h,sy6m,qkx,syf5,sy99,syf4,syfc,syfn,syf7,syff,sy1i,sy68,sy8d,syf6,syfl,syfr,syfq,syfg,sy1j,sy4q,sy8h,syc7,syc8,syfb,syfj,syfs,syft,syg3,syg5,syg7,emn,emo,syg4,syg6,ivg,iuci,img,sy6w,shrb,sy41,tcc,syi0,cpn,sy80,sy52,sy7m,sy8l,sycv,sy7r,sy8y,syd0,syda,syd5,sy8q,syd1,sydb,syel,syie,pe,sygq,kpc,kpci,sy4h,vrml,sy6y,sycu,d3l,sy5z,atn,sy4i,sya1,ampfp/am=gCP4LtMEBXQA2RUaq_oFBISzAFA/rt=j/d=0/t=zcms/rs=ACT90oFwm4NZCwIcuuiqmthdlECdBzkhRA
p994
sVqueryString
p995
(lp996
sVheaders
p997
(lp998
sVheadersSize
p999
I2113
sVbodySize
p1000
I0
sVmethod
p1001
VGET
p1002
sVhttpVersion
p1003
VHTTP/1.1
p1004
ssVtimings
p1005
(dp1006
Vcomment
p1007
g4
sVreceive
p1008
I46
sVsend
p1009
I0
sVssl
p1010
I-1
sVconnect
p1011
I-1
sVdns
p1012
I-1
sVwait
p1013
I131
sVblocked
p1014
I-1
ssVtime
p1015
I178
sVresponse
p1016
(dp1017
Vstatus
p1018
I200
sVcomment
p1019
g4
sVcookies
p1020
(lp1021
sVstatusText
p1022
VOK
p1023
sVcontent
p1024
(dp1025
VmimeType
p1026
Vtext/javascript; charset=UTF-8
p1027
sVcomment
p1028
g4
sVsize
p1029
I0
ssVheaders
p1030
(lp1031
sVheadersSize
p1032
I452
sVredirectURL
p1033
g4
sVbodySize
p1034
I212205
sVhttpVersion
p1035
VHTTP/1.1
p1036
ssa(dp1037
Vcomment
p1038
g4
sVserverIPAddress
p1039
V74.125.70.104
p1040
sVpageref
p1041
VVolkswagen
p1042
sVstartedDateTime
p1043
V2017-04-16T08:50:20.527-05:00
p1044
sVcache
p1045
(dp1046
sVrequest
p1047
(dp1048
Vcomment
p1049
g4
sVcookies
p1050
(lp1051
sVurl
p1052
Vhttps://www.google.com/gen_204?atyp=i&ct=phandle&cad=0,det:0&ei=l3bzWIqPNcr4jwTk0KXoBw&zx=1492350620526
p1053
sVqueryString
p1054
(lp1055
(dp1056
Vname
p1057
Vatyp
p1058
sVvalue
p1059
g30
sa(dp1060
Vname
p1061
Vct
p1062
sVvalue
p1063
Vphandle
p1064
sa(dp1065
Vname
p1066
Vcad
p1067
sVvalue
p1068
V0,det:0
p1069
sa(dp1070
Vname
p1071
Vei
p1072
sVvalue
p1073
Vl3bzWIqPNcr4jwTk0KXoBw
p1074
sa(dp1075
Vname
p1076
Vzx
p1077
sVvalue
p1078
V1492350620526
p1079
sasVheaders
p1080
(lp1081
sVheadersSize
p1082
I620
sVbodySize
p1083
I0
sVmethod
p1084
VGET
p1085
sVhttpVersion
p1086
VHTTP/1.1
p1087
ssVtimings
p1088
(dp1089
Vcomment
p1090
g4
sVreceive
p1091
I0
sVsend
p1092
I0
sVssl
p1093
I-1
sVconnect
p1094
I-1
sVdns
p1095
I-1
sVwait
p1096
I31
sVblocked
p1097
I-1
ssVtime
p1098
I31
sVresponse
p1099
(dp1100
Vstatus
p1101
I204
sVcomment
p1102
g4
sVcookies
p1103
(lp1104
sVstatusText
p1105
VNo Content
p1106
sVcontent
p1107
(dp1108
VmimeType
p1109
Vtext/html; charset=UTF-8
p1110
sVcomment
p1111
g4
sVsize
p1112
I0
ssVheaders
p1113
(lp1114
sVheadersSize
p1115
I248
sVredirectURL
p1116
g4
sVbodySize
p1117
I0
sVhttpVersion
p1118
VHTTP/1.1
p1119
ssa(dp1120
Vcomment
p1121
g4
sVserverIPAddress
p1122
V74.125.70.104
p1123
sVpageref
p1124
VVolkswagen
p1125
sVstartedDateTime
p1126
V2017-04-16T08:50:20.660-05:00
p1127
sVcache
p1128
(dp1129
sVrequest
p1130
(dp1131
Vcomment
p1132
g4
sVcookies
p1133
(lp1134
sVurl
p1135
Vhttps://www.google.com/async/irc?vet=10ahUKEwjKttuij6nTAhVK_IMKHWRoCX0Qo0EIvQI..i&ved=0ahUKEwjKttuij6nTAhVK_IMKHWRoCX0Qo0EIvQI&ei=l3bzWIqPNcr4jwTk0KXoBw&yv=2&async=iu:1,ved:0ahUKEwjKttuij6nTAhVK_IMKHWRoCX0Qo0EIvQI,_id:irc_async,_pms:qs
p1136
sVqueryString
p1137
(lp1138
(dp1139
Vname
p1140
Vvet
p1141
sVvalue
p1142
V10ahUKEwjKttuij6nTAhVK_IMKHWRoCX0Qo0EIvQI..i
p1143
sa(dp1144
Vname
p1145
Vved
p1146
sVvalue
p1147
V0ahUKEwjKttuij6nTAhVK_IMKHWRoCX0Qo0EIvQI
p1148
sa(dp1149
Vname
p1150
Vei
p1151
sVvalue
p1152
Vl3bzWIqPNcr4jwTk0KXoBw
p1153
sa(dp1154
Vname
p1155
Vyv
p1156
sVvalue
p1157
g64
sa(dp1158
Vname
p1159
Vasync
p1160
sVvalue
p1161
Viu:1,ved:0ahUKEwjKttuij6nTAhVK_IMKHWRoCX0Qo0EIvQI,_id:irc_async,_pms:qs
p1162
sasVheaders
p1163
(lp1164
sVheadersSize
p1165
I752
sVbodySize
p1166
I0
sVmethod
p1167
VGET
p1168
sVhttpVersion
p1169
VHTTP/1.1
p1170
ssVtimings
p1171
(dp1172
Vcomment
p1173
g4
sVreceive
p1174
I0
sVsend
p1175
I0
sVssl
p1176
I-1
sVconnect
p1177
I-1
sVdns
p1178
I-1
sVwait
p1179
I103
sVblocked
p1180
I-1
ssVtime
p1181
I103
sVresponse
p1182
(dp1183
Vstatus
p1184
I200
sVcomment
p1185
g4
sVcookies
p1186
(lp1187
sVstatusText
p1188
VOK
p1189
sVcontent
p1190
(dp1191
VmimeType
p1192
Vtext/html; charset=UTF-8
p1193
sVcomment
p1194
g4
sVsize
p1195
I0
ssVheaders
p1196
(lp1197
sVheadersSize
p1198
I383
sVredirectURL
p1199
g4
sVbodySize
p1200
I7791
sVhttpVersion
p1201
VHTTP/1.1
p1202
ssa(dp1203
Vcomment
p1204
g4
sVserverIPAddress
p1205
V74.125.70.104
p1206
sVpageref
p1207
VVolkswagen
p1208
sVstartedDateTime
p1209
V2017-04-16T08:50:20.754-05:00
p1210
sVcache
p1211
(dp1212
sVrequest
p1213
(dp1214
Vcomment
p1215
g4
sVcookies
p1216
(lp1217
sVurl
p1218
Vhttps://www.google.com/async/ampfp?vet=10ahUKEwjKttuij6nTAhVK_IMKHWRoCX0QtZoBCLsC..i&ei=l3bzWIqPNcr4jwTk0KXoBw&yv=2&async=_id:ampfp-async,_pms:qs
p1219
sVqueryString
p1220
(lp1221
(dp1222
Vname
p1223
Vvet
p1224
sVvalue
p1225
V10ahUKEwjKttuij6nTAhVK_IMKHWRoCX0QtZoBCLsC..i
p1226
sa(dp1227
Vname
p1228
Vei
p1229
sVvalue
p1230
Vl3bzWIqPNcr4jwTk0KXoBw
p1231
sa(dp1232
Vname
p1233
Vyv
p1234
sVvalue
p1235
g64
sa(dp1236
Vname
p1237
Vasync
p1238
sVvalue
p1239
V_id:ampfp-async,_pms:qs
p1240
sasVheaders
p1241
(lp1242
sVheadersSize
p1243
I662
sVbodySize
p1244
I0
sVmethod
p1245
VGET
p1246
sVhttpVersion
p1247
VHTTP/1.1
p1248
ssVtimings
p1249
(dp1250
Vcomment
p1251
g4
sVreceive
p1252
I3
sVsend
p1253
I0
sVssl
p1254
I-1
sVconnect
p1255
I-1
sVdns
p1256
I-1
sVwait
p1257
I48
sVblocked
p1258
I-1
ssVtime
p1259
I51
sVresponse
p1260
(dp1261
Vstatus
p1262
I200
sVcomment
p1263
g4
sVcookies
p1264
(lp1265
sVstatusText
p1266
VOK
p1267
sVcontent
p1268
(dp1269
VmimeType
p1270
Vtext/html; charset=UTF-8
p1271
sVcomment
p1272
g4
sVsize
p1273
I0
ssVheaders
p1274
(lp1275
sVheadersSize
p1276
I383
sVredirectURL
p1277
g4
sVbodySize
p1278
I4524
sVhttpVersion
p1279
VHTTP/1.1
p1280
ssa(dp1281
Vcomment
p1282
g4
sVserverIPAddress
p1283
V216.58.216.193
p1284
sVpageref
p1285
VVolkswagen
p1286
sVstartedDateTime
p1287
V2017-04-16T08:50:20.756-05:00
p1288
sVcache
p1289
(dp1290
sVrequest
p1291
(dp1292
Vcomment
p1293
g4
sVcookies
p1294
(lp1295
sVurl
p1296
Vhttps://cdn.ampproject.org/preconnect.gif?0.487135449516818
p1297
sVqueryString
p1298
(lp1299
(dp1300
Vname
p1301
V0.487135449516818
p1302
sVvalue
p1303
g4
sasVheaders
p1304
(lp1305
sVheadersSize
p1306
I374
sVbodySize
p1307
I0
sVmethod
p1308
VGET
p1309
sVhttpVersion
p1310
VHTTP/1.1
p1311
ssVtimings
p1312
(dp1313
Vcomment
p1314
g4
sVreceive
p1315
I0
sVsend
p1316
I0
sVssl
p1317
I-1
sVconnect
p1318
I-1
sVdns
p1319
I-1
sVwait
p1320
I42
sVblocked
p1321
I-1
ssVtime
p1322
I42
sVresponse
p1323
(dp1324
Vstatus
p1325
I200
sVcomment
p1326
g4
sVcookies
p1327
(lp1328
sVstatusText
p1329
VOK
p1330
sVcontent
p1331
(dp1332
VmimeType
p1333
Vimage/gif
p1334
sVcomment
p1335
g4
sVsize
p1336
I0
ssVheaders
p1337
(lp1338
sVheadersSize
p1339
I826
sVredirectURL
p1340
g4
sVbodySize
p1341
I37
sVhttpVersion
p1342
VHTTP/1.1
p1343
ssa(dp1344
Vcomment
p1345
g4
sVserverIPAddress
p1346
V74.125.70.104
p1347
sVpageref
p1348
VVolkswagen
p1349
sVstartedDateTime
p1350
V2017-04-16T08:50:20.855-05:00
p1351
sVcache
p1352
(dp1353
sVrequest
p1354
(dp1355
Vcomment
p1356
g4
sVcookies
p1357
(lp1358
sVurl
p1359
Vhttps://www.google.com/gen_204/local?ei=l3bzWIqPNcr4jwTk0KXoBw&tm_n=pt&tm=2520
p1360
sVqueryString
p1361
(lp1362
(dp1363
Vname
p1364
Vei
p1365
sVvalue
p1366
Vl3bzWIqPNcr4jwTk0KXoBw
p1367
sa(dp1368
Vname
p1369
Vtm_n
p1370
sVvalue
p1371
Vpt
p1372
sa(dp1373
Vname
p1374
Vtm
p1375
sVvalue
p1376
V2520
p1377
sasVheaders
p1378
(lp1379
sVheadersSize
p1380
I886
sVbodySize
p1381
I0
sVmethod
p1382
VPOST
p1383
sVhttpVersion
p1384
VHTTP/1.1
p1385
ssVtimings
p1386
(dp1387
Vcomment
p1388
g4
sVreceive
p1389
I0
sVsend
p1390
I0
sVssl
p1391
I-1
sVconnect
p1392
I-1
sVdns
p1393
I-1
sVwait
p1394
I34
sVblocked
p1395
I-1
ssVtime
p1396
I34
sVresponse
p1397
(dp1398
Vstatus
p1399
I204
sVcomment
p1400
g4
sVcookies
p1401
(lp1402
sVstatusText
p1403
VNo Content
p1404
sVcontent
p1405
(dp1406
VmimeType
p1407
Vtext/html; charset=UTF-8
p1408
sVcomment
p1409
g4
sVsize
p1410
I0
ssVheaders
p1411
(lp1412
sVheadersSize
p1413
I290
sVredirectURL
p1414
g4
sVbodySize
p1415
I0
sVhttpVersion
p1416
VHTTP/1.1
p1417
ssa(dp1418
Vcomment
p1419
g4
sVserverIPAddress
p1420
V74.125.70.104
p1421
sVpageref
p1422
VVolkswagen
p1423
sVstartedDateTime
p1424
V2017-04-16T08:50:20.875-05:00
p1425
sVcache
p1426
(dp1427
sVrequest
p1428
(dp1429
Vcomment
p1430
g4
sVcookies
p1431
(lp1432
sVurl
p1433
Vhttps://www.google.com/async/lcl_akp?vet=10ahUKEwjKttuij6nTAhVK_IMKHWRoCX0Q30oIfjAN..i&ved=0ahUKEwjKttuij6nTAhVK_IMKHWRoCX0QkW0IgAEwDQ&ei=l3bzWIqPNcr4jwTk0KXoBw&yv=2&tbs=lf_msr:-1,lf_od:-1,lf_oh:-1,lf_oa:-1,lp:-D!8050!!1!!!0!2|-S!11!0!2|-S!15!0!2|-F!4!0!3|-F!3!0!3,lf_pqs:EAE,lf:1,lf_ui:10&async=id:akp_3238135217496834862,ludocids:3238135217496834862,f:rln,ui:10,_id:p0_uid_15_l3bzWIqPNcr4jwTk0KXoBw,_pms:qs
p1434
sVqueryString
p1435
(lp1436
(dp1437
Vname
p1438
Vvet
p1439
sVvalue
p1440
V10ahUKEwjKttuij6nTAhVK_IMKHWRoCX0Q30oIfjAN..i
p1441
sa(dp1442
Vname
p1443
Vved
p1444
sVvalue
p1445
V0ahUKEwjKttuij6nTAhVK_IMKHWRoCX0QkW0IgAEwDQ
p1446
sa(dp1447
Vname
p1448
Vei
p1449
sVvalue
p1450
Vl3bzWIqPNcr4jwTk0KXoBw
p1451
sa(dp1452
Vname
p1453
Vyv
p1454
sVvalue
p1455
g64
sa(dp1456
Vname
p1457
Vtbs
p1458
sVvalue
p1459
Vlf_msr:-1,lf_od:-1,lf_oh:-1,lf_oa:-1,lp:-D!8050!!1!!!0!2|-S!11!0!2|-S!15!0!2|-F!4!0!3|-F!3!0!3,lf_pqs:EAE,lf:1,lf_ui:10
p1460
sa(dp1461
Vname
p1462
Vasync
p1463
sVvalue
p1464
Vid:akp_3238135217496834862,ludocids:3238135217496834862,f:rln,ui:10,_id:p0_uid_15_l3bzWIqPNcr4jwTk0KXoBw,_pms:qs
p1465
sasVheaders
p1466
(lp1467
sVheadersSize
p1468
I925
sVbodySize
p1469
I0
sVmethod
p1470
VGET
p1471
sVhttpVersion
p1472
VHTTP/1.1
p1473
ssVtimings
p1474
(dp1475
Vcomment
p1476
g4
sVreceive
p1477
I34
sVsend
p1478
I0
sVssl
p1479
I-1
sVconnect
p1480
I-1
sVdns
p1481
I-1
sVwait
p1482
I360
sVblocked
p1483
I-1
ssVtime
p1484
I395
sVresponse
p1485
(dp1486
Vstatus
p1487
I200
sVcomment
p1488
g4
sVcookies
p1489
(lp1490
sVstatusText
p1491
VOK
p1492
sVcontent
p1493
(dp1494
VmimeType
p1495
Vtext/html; charset=UTF-8
p1496
sVcomment
p1497
g4
sVsize
p1498
I0
ssVheaders
p1499
(lp1500
sVheadersSize
p1501
I383
sVredirectURL
p1502
g4
sVbodySize
p1503
I41142
sVhttpVersion
p1504
VHTTP/1.1
p1505
ssa(dp1506
Vcomment
p1507
g4
sVserverIPAddress
p1508
V74.125.70.105
p1509
sVpageref
p1510
VVolkswagen
p1511
sVstartedDateTime
p1512
V2017-04-16T08:50:20.891-05:00
p1513
sVcache
p1514
(dp1515
sVrequest
p1516
(dp1517
Vcomment
p1518
g4
sVcookies
p1519
(lp1520
sVurl
p1521
Vhttps://www.google.com/gen_204/local?ei=l3bzWIqPNcr4jwTk0KXoBw&tm_n=lrl_init&tm=2
p1522
sVqueryString
p1523
(lp1524
(dp1525
Vname
p1526
Vei
p1527
sVvalue
p1528
Vl3bzWIqPNcr4jwTk0KXoBw
p1529
sa(dp1530
Vname
p1531
Vtm_n
p1532
sVvalue
p1533
Vlrl_init
p1534
sa(dp1535
Vname
p1536
Vtm
p1537
sVvalue
p1538
g64
sasVheaders
p1539
(lp1540
sVheadersSize
p1541
I889
sVbodySize
p1542
I0
sVmethod
p1543
VPOST
p1544
sVhttpVersion
p1545
VHTTP/1.1
p1546
ssVtimings
p1547
(dp1548
Vcomment
p1549
g4
sVreceive
p1550
I0
sVsend
p1551
I0
sVssl
p1552
I-1
sVconnect
p1553
I-1
sVdns
p1554
I-1
sVwait
p1555
I44
sVblocked
p1556
I-1
ssVtime
p1557
I44
sVresponse
p1558
(dp1559
Vstatus
p1560
I204
sVcomment
p1561
g4
sVcookies
p1562
(lp1563
sVstatusText
p1564
VNo Content
p1565
sVcontent
p1566
(dp1567
VmimeType
p1568
Vtext/html; charset=UTF-8
p1569
sVcomment
p1570
g4
sVsize
p1571
I0
ssVheaders
p1572
(lp1573
sVheadersSize
p1574
I290
sVredirectURL
p1575
g4
sVbodySize
p1576
I0
sVhttpVersion
p1577
VHTTP/1.1
p1578
ssa(dp1579
Vcomment
p1580
g4
sVserverIPAddress
p1581
V74.125.70.105
p1582
sVpageref
p1583
VVolkswagen
p1584
sVstartedDateTime
p1585
V2017-04-16T08:50:20.941-05:00
p1586
sVcache
p1587
(dp1588
sVrequest
p1589
(dp1590
Vcomment
p1591
g4
sVcookies
p1592
(lp1593
sVurl
p1594
Vhttps://www.google.com/async/lcl_akp?vet=10ahUKEwjKttuij6nTAhVK_IMKHWRoCX0Q30oIiAEwDg..i&ved=0ahUKEwjKttuij6nTAhVK_IMKHWRoCX0QkW0IigEwDg&ei=l3bzWIqPNcr4jwTk0KXoBw&yv=2&tbs=lf_msr:-1,lf_od:-1,lf_oh:-1,lf_oa:-1,lp:-D!8050!!1!!!0!2|-S!11!0!2|-S!15!0!2|-F!4!0!3|-F!3!0!3,lf_pqs:EAE,lf:1,lf_ui:10&async=id:akp_9312820155765388440,ludocids:9312820155765388440,f:rln,ui:10,_id:p0_uid_16_l3bzWIqPNcr4jwTk0KXoBw,_pms:qs
p1595
sVqueryString
p1596
(lp1597
(dp1598
Vname
p1599
Vvet
p1600
sVvalue
p1601
V10ahUKEwjKttuij6nTAhVK_IMKHWRoCX0Q30oIiAEwDg..i
p1602
sa(dp1603
Vname
p1604
Vved
p1605
sVvalue
p1606
V0ahUKEwjKttuij6nTAhVK_IMKHWRoCX0QkW0IigEwDg
p1607
sa(dp1608
Vname
p1609
Vei
p1610
sVvalue
p1611
Vl3bzWIqPNcr4jwTk0KXoBw
p1612
sa(dp1613
Vname
p1614
Vyv
p1615
sVvalue
p1616
g64
sa(dp1617
Vname
p1618
Vtbs
p1619
sVvalue
p1620
Vlf_msr:-1,lf_od:-1,lf_oh:-1,lf_oa:-1,lp:-D!8050!!1!!!0!2|-S!11!0!2|-S!15!0!2|-F!4!0!3|-F!3!0!3,lf_pqs:EAE,lf:1,lf_ui:10
p1621
sa(dp1622
Vname
p1623
Vasync
p1624
sVvalue
p1625
Vid:akp_9312820155765388440,ludocids:9312820155765388440,f:rln,ui:10,_id:p0_uid_16_l3bzWIqPNcr4jwTk0KXoBw,_pms:qs
p1626
sasVheaders
p1627
(lp1628
sVheadersSize
p1629
I927
sVbodySize
p1630
I0
sVmethod
p1631
VGET
p1632
sVhttpVersion
p1633
VHTTP/1.1
p1634
ssVtimings
p1635
(dp1636
Vcomment
p1637
g4
sVreceive
p1638
I36
sVsend
p1639
I0
sVssl
p1640
I33
sVconnect
p1641
I58
sVdns
p1642
I3
sVwait
p1643
I340
sVblocked
p1644
I0
ssVtime
p1645
I438
sVresponse
p1646
(dp1647
Vstatus
p1648
I200
sVcomment
p1649
g4
sVcookies
p1650
(lp1651
sVstatusText
p1652
VOK
p1653
sVcontent
p1654
(dp1655
VmimeType
p1656
Vtext/html; charset=UTF-8
p1657
sVcomment
p1658
g4
sVsize
p1659
I0
ssVheaders
p1660
(lp1661
sVheadersSize
p1662
I383
sVredirectURL
p1663
g4
sVbodySize
p1664
I41376
sVhttpVersion
p1665
VHTTP/1.1
p1666
ssa(dp1667
Vcomment
p1668
g4
sVserverIPAddress
p1669
V74.125.70.105
p1670
sVpageref
p1671
VVolkswagen
p1672
sVstartedDateTime
p1673
V2017-04-16T08:50:20.995-05:00
p1674
sVcache
p1675
(dp1676
sVrequest
p1677
(dp1678
Vcomment
p1679
g4
sVcookies
p1680
(lp1681
sVurl
p1682
Vhttps://www.google.com/async/log_amp_item_set?vet=10ahUKEwiO4Mekj6nTAhWl34MKHdKYDEEQooQBCAE..i&ei=l3bzWIqPNcr4jwTk0KXoBw&yv=2&async=num_items:1,_fmt:jspb
p1683
sVqueryString
p1684
(lp1685
(dp1686
Vname
p1687
Vvet
p1688
sVvalue
p1689
V10ahUKEwiO4Mekj6nTAhWl34MKHdKYDEEQooQBCAE..i
p1690
sa(dp1691
Vname
p1692
Vei
p1693
sVvalue
p1694
Vl3bzWIqPNcr4jwTk0KXoBw
p1695
sa(dp1696
Vname
p1697
Vyv
p1698
sVvalue
p1699
g64
sa(dp1700
Vname
p1701
Vasync
p1702
sVvalue
p1703
Vnum_items:1,_fmt:jspb
p1704
sasVheaders
p1705
(lp1706
sVheadersSize
p1707
I670
sVbodySize
p1708
I0
sVmethod
p1709
VGET
p1710
sVhttpVersion
p1711
VHTTP/1.1
p1712
ssVtimings
p1713
(dp1714
Vcomment
p1715
g4
sVreceive
p1716
I0
sVsend
p1717
I0
sVssl
p1718
I43
sVconnect
p1719
I74
sVdns
p1720
I0
sVwait
p1721
I40
sVblocked
p1722
I0
ssVtime
p1723
I115
sVresponse
p1724
(dp1725
Vstatus
p1726
I200
sVcomment
p1727
g4
sVcookies
p1728
(lp1729
sVstatusText
p1730
VOK
p1731
sVcontent
p1732
(dp1733
VmimeType
p1734
Vapplication/json; charset=UTF-8
p1735
sVcomment
p1736
g4
sVsize
p1737
I0
ssVheaders
p1738
(lp1739
sVheadersSize
p1740
I417
sVredirectURL
p1741
g4
sVbodySize
p1742
I132
sVhttpVersion
p1743
VHTTP/1.1
p1744
ssa(dp1745
Vcomment
p1746
g4
sVserverIPAddress
p1747
V172.217.0.1
p1748
sVpageref
p1749
VVolkswagen
p1750
sVstartedDateTime
p1751
V2017-04-16T08:50:21.284-05:00
p1752
sVcache
p1753
(dp1754
sVrequest
p1755
(dp1756
Vcomment
p1757
g4
sVcookies
p1758
(lp1759
sVurl
p1760
Vhttps://www-carbuzz-com.cdn.ampproject.org/v/www.carbuzz.com/amp-article.aspx?y=2017&m=4&d=15&name=Volkswagen-Teases-I-D-Crossover-Coupe-Concept-For-Shanghai-7738710&amp_js_v=9
p1761
sVqueryString
p1762
(lp1763
(dp1764
Vname
p1765
Vy
p1766
sVvalue
p1767
V2017
p1768
sa(dp1769
Vname
p1770
g47
sVvalue
p1771
V4
p1772
sa(dp1773
Vname
p1774
Vd
p1775
sVvalue
p1776
V15
p1777
sa(dp1778
Vname
p1779
Vname
p1780
sVvalue
p1781
VVolkswagen-Teases-I-D-Crossover-Coupe-Concept-For-Shanghai-7738710
p1782
sa(dp1783
Vname
p1784
Vamp_js_v
p1785
sVvalue
p1786
V9
p1787
sasVheaders
p1788
(lp1789
sVheadersSize
p1790
I581
sVbodySize
p1791
I0
sVmethod
p1792
VGET
p1793
sVhttpVersion
p1794
VHTTP/1.1
p1795
ssVtimings
p1796
(dp1797
Vcomment
p1798
g4
sVreceive
p1799
I0
sVsend
p1800
I0
sVssl
p1801
I302
sVconnect
p1802
I320
sVdns
p1803
I37
sVwait
p1804
I51
sVblocked
p1805
I0
ssVtime
p1806
I408
sVresponse
p1807
(dp1808
Vstatus
p1809
I200
sVcomment
p1810
g4
sVcookies
p1811
(lp1812
sVstatusText
p1813
VOK
p1814
sVcontent
p1815
(dp1816
VmimeType
p1817
Vtext/html
p1818
sVcomment
p1819
g4
sVsize
p1820
I0
ssVheaders
p1821
(lp1822
sVheadersSize
p1823
I859
sVredirectURL
p1824
g4
sVbodySize
p1825
I3753
sVhttpVersion
p1826
VHTTP/1.1
p1827
ssa(dp1828
Vcomment
p1829
g4
sVserverIPAddress
p1830
V74.125.70.105
p1831
sVpageref
p1832
VVolkswagen
p1833
sVstartedDateTime
p1834
V2017-04-16T08:50:21.331-05:00
p1835
sVcache
p1836
(dp1837
sVrequest
p1838
(dp1839
Vcomment
p1840
g4
sVcookies
p1841
(lp1842
sVurl
p1843
Vhttps://www.google.com/maps/vt/data=RfCSdfNZ0LFPrHSm0ublXdzhdrDFhtmHhN1u-gM,4eSDhzhTPxYdclrqe-4fT0bBpbIGULDw-FcVLt38KgZ70VtsHMVIy7hjFTcviXSb4Ggul-EydGrz5yjQfBQlBx2KCRsfU6YL71UxEaF0UOE7a7Jt1IgbdJ6ScNameveWCM_9L34ZAX_SWs-0DzsnA6aF27LLvdxo0XbWyaEdWQEBavHlHqngAwJkMSkB7t_5o3QFBb7DI5Tw2JRAfaupofKCkMpTzwwEoO0oc34hqSYTnunnzk-uMGX9HvoJOSYLzYLl6c2U29smpC8Xsi_qA_fIVcocaty5QLD5Hjar7xOHh1eLRlRKRhRFrDSOhSnLv_JgT2o_iNkcIPOXpmyXYO98CRKf,swES-JbB3NYka1H69BK05ngjxY8?h=120&w=1265&scale=1
p1844
sVqueryString
p1845
(lp1846
(dp1847
Vname
p1848
Vh
p1849
sVvalue
p1850
V120
p1851
sa(dp1852
Vname
p1853
Vw
p1854
sVvalue
p1855
V1265
p1856
sa(dp1857
Vname
p1858
Vscale
p1859
sVvalue
p1860
g59
sasVheaders
p1861
(lp1862
sVheadersSize
p1863
I990
sVbodySize
p1864
I0
sVmethod
p1865
VGET
p1866
sVhttpVersion
p1867
VHTTP/1.1
p1868
ssVtimings
p1869
(dp1870
Vcomment
p1871
g4
sVreceive
p1872
I58
sVsend
p1873
I0
sVssl
p1874
I-1
sVconnect
p1875
I-1
sVdns
p1876
I-1
sVwait
p1877
I187
sVblocked
p1878
I-1
ssVtime
p1879
I245
sVresponse
p1880
(dp1881
Vstatus
p1882
I200
sVcomment
p1883
g4
sVcookies
p1884
(lp1885
sVstatusText
p1886
VOK
p1887
sVcontent
p1888
(dp1889
VmimeType
p1890
Vimage/png
p1891
sVcomment
p1892
g4
sVsize
p1893
I0
ssVheaders
p1894
(lp1895
sVheadersSize
p1896
I479
sVredirectURL
p1897
g4
sVbodySize
p1898
I16624
sVhttpVersion
p1899
VHTTP/1.1
p1900
ssa(dp1901
Vcomment
p1902
g4
sVserverIPAddress
p1903
V74.125.70.105
p1904
sVpageref
p1905
VVolkswagen
p1906
sVstartedDateTime
p1907
V2017-04-16T08:50:21.332-05:00
p1908
sVcache
p1909
(dp1910
sVrequest
p1911
(dp1912
Vcomment
p1913
g4
sVcookies
p1914
(lp1915
sVurl
p1916
Vhttps://www.google.com/maps/vt/data=RfCSdfNZ0LFPrHSm0ublXdzhdrDFhtmHhN1u-gM,4eSDhzhTPxYdclrqe-4fT0bBpbIGULDw-FcVLt38KgZ70VtsHMVIy7hjFTcviXSb4Ggul-EydGrz5yjQfBQlBx2KCRsfU6YL71UxEaF0UOE7a7Jt1IgbdJ6ScNameveWCM_9L34ZAX_SWs-0DzsnA6aF27LLvdxo0XbWyaEdWQEBavHlHqngAwJkMSkB7t_5o3QFBb7DI5Tw2JRAfaupofKCkMpTzwwEoO0oc34hqSYTnunnzk-uMGX9HvoJOSYLzYLl6c2U29smpC8Xsi_qA_fIVcocaty5QLD5Hjar7xOHh1eLRlRKRhRFrDSOhSnLv_JgT2o_iNkcIPOXpmyXYO98CRKf,spt0xCSy-wzxzCsmYH6q-6Xav2E?h=120&w=1024&scale=2
p1917
sVqueryString
p1918
(lp1919
(dp1920
Vname
p1921
g1849
sVvalue
p1922
V120
p1923
sa(dp1924
Vname
p1925
g1854
sVvalue
p1926
V1024
p1927
sa(dp1928
Vname
p1929
Vscale
p1930
sVvalue
p1931
g64
sasVheaders
p1932
(lp1933
sVheadersSize
p1934
I990
sVbodySize
p1935
I0
sVmethod
p1936
VGET
p1937
sVhttpVersion
p1938
VHTTP/1.1
p1939
ssVtimings
p1940
(dp1941
Vcomment
p1942
g4
sVreceive
p1943
I1
sVsend
p1944
I0
sVssl
p1945
I-1
sVconnect
p1946
I-1
sVdns
p1947
I-1
sVwait
p1948
I158
sVblocked
p1949
I-1
ssVtime
p1950
I159
sVresponse
p1951
(dp1952
Vstatus
p1953
I200
sVcomment
p1954
g4
sVcookies
p1955
(lp1956
sVstatusText
p1957
VOK
p1958
sVcontent
p1959
(dp1960
VmimeType
p1961
Vimage/png
p1962
sVcomment
p1963
g4
sVsize
p1964
I0
ssVheaders
p1965
(lp1966
sVheadersSize
p1967
I479
sVredirectURL
p1968
g4
sVbodySize
p1969
I31305
sVhttpVersion
p1970
VHTTP/1.1
p1971
ssa(dp1972
Vcomment
p1973
g4
sVserverIPAddress
p1974
V74.125.70.105
p1975
sVpageref
p1976
VVolkswagen
p1977
sVstartedDateTime
p1978
V2017-04-16T08:50:21.580-05:00
p1979
sVcache
p1980
(dp1981
sVrequest
p1982
(dp1983
Vcomment
p1984
g4
sVcookies
p1985
(lp1986
sVurl
p1987
Vhttps://www.google.com/gen_204/local?ei=l3bzWIqPNcr4jwTk0KXoBw&tm_n=lcsm&tm=249
p1988
sVqueryString
p1989
(lp1990
(dp1991
Vname
p1992
Vei
p1993
sVvalue
p1994
Vl3bzWIqPNcr4jwTk0KXoBw
p1995
sa(dp1996
Vname
p1997
Vtm_n
p1998
sVvalue
p1999
Vlcsm
p2000
sa(dp2001
Vname
p2002
Vtm
p2003
sVvalue
p2004
V249
p2005
sasVheaders
p2006
(lp2007
sVheadersSize
p2008
I887
sVbodySize
p2009
I0
sVmethod
p2010
VPOST
p2011
sVhttpVersion
p2012
VHTTP/1.1
p2013
ssVtimings
p2014
(dp2015
Vcomment
p2016
g4
sVreceive
p2017
I0
sVsend
p2018
I0
sVssl
p2019
I-1
sVconnect
p2020
I-1
sVdns
p2021
I-1
sVwait
p2022
I36
sVblocked
p2023
I-1
ssVtime
p2024
I36
sVresponse
p2025
(dp2026
Vstatus
p2027
I204
sVcomment
p2028
g4
sVcookies
p2029
(lp2030
sVstatusText
p2031
VNo Content
p2032
sVcontent
p2033
(dp2034
VmimeType
p2035
Vtext/html; charset=UTF-8
p2036
sVcomment
p2037
g4
sVsize
p2038
I0
ssVheaders
p2039
(lp2040
sVheadersSize
p2041
I290
sVredirectURL
p2042
g4
sVbodySize
p2043
I0
sVhttpVersion
p2044
VHTTP/1.1
p2045
ssa(dp2046
Vcomment
p2047
g4
sVserverIPAddress
p2048
V216.58.216.202
p2049
sVpageref
p2050
VVolkswagen
p2051
sVstartedDateTime
p2052
V2017-04-16T08:50:21.850-05:00
p2053
sVcache
p2054
(dp2055
sVrequest
p2056
(dp2057
Vcomment
p2058
g4
sVcookies
p2059
(lp2060
sVurl
p2061
Vhttps://fonts.googleapis.com/css?family=Roboto
p2062
sVqueryString
p2063
(lp2064
(dp2065
Vname
p2066
Vfamily
p2067
sVvalue
p2068
VRoboto
p2069
sasVheaders
p2070
(lp2071
sVheadersSize
p2072
I529
sVbodySize
p2073
I0
sVmethod
p2074
VGET
p2075
sVhttpVersion
p2076
VHTTP/1.1
p2077
ssVtimings
p2078
(dp2079
Vcomment
p2080
g4
sVreceive
p2081
I0
sVsend
p2082
I0
sVssl
p2083
I22
sVconnect
p2084
I39
sVdns
p2085
I460
sVwait
p2086
I34
sVblocked
p2087
I0
ssVtime
p2088
I533
sVresponse
p2089
(dp2090
Vstatus
p2091
I200
sVcomment
p2092
g4
sVcookies
p2093
(lp2094
sVstatusText
p2095
VOK
p2096
sVcontent
p2097
(dp2098
VmimeType
p2099
Vtext/css; charset=utf-8
p2100
sVcomment
p2101
g4
sVsize
p2102
I0
ssVheaders
p2103
(lp2104
sVheadersSize
p2105
I405
sVredirectURL
p2106
g4
sVbodySize
p2107
I541
sVhttpVersion
p2108
VHTTP/1.1
p2109
ssa(dp2110
Vcomment
p2111
g4
sVserverIPAddress
p2112
V216.58.216.193
p2113
sVpageref
p2114
VVolkswagen
p2115
sVstartedDateTime
p2116
V2017-04-16T08:50:22.150-05:00
p2117
sVcache
p2118
(dp2119
sVrequest
p2120
(dp2121
Vcomment
p2122
g4
sVcookies
p2123
(lp2124
sVurl
p2125
Vhttps://db-carbuzz-com.cdn.ampproject.org/ii/w1200/db.carbuzz.com/images2/620000/6000/500/626509.jpg
p2126
sVqueryString
p2127
(lp2128
sVheaders
p2129
(lp2130
sVheadersSize
p2131
I568
sVbodySize
p2132
I0
sVmethod
p2133
VGET
p2134
sVhttpVersion
p2135
VHTTP/1.1
p2136
ssVtimings
p2137
(dp2138
Vcomment
p2139
g4
sVreceive
p2140
I14
sVsend
p2141
I0
sVssl
p2142
I205
sVconnect
p2143
I225
sVdns
p2144
I31
sVwait
p2145
I27
sVblocked
p2146
I0
ssVtime
p2147
I298
sVresponse
p2148
(dp2149
Vstatus
p2150
I200
sVcomment
p2151
g4
sVcookies
p2152
(lp2153
sVstatusText
p2154
VOK
p2155
sVcontent
p2156
(dp2157
VmimeType
p2158
Vimage/jpeg
p2159
sVcomment
p2160
g4
sVsize
p2161
I0
ssVheaders
p2162
(lp2163
sVheadersSize
p2164
I850
sVredirectURL
p2165
g4
sVbodySize
p2166
I22115
sVhttpVersion
p2167
VHTTP/1.1
p2168
ssa(dp2169
Vcomment
p2170
g4
sVserverIPAddress
p2171
V216.58.216.193
p2172
sVpageref
p2173
VVolkswagen
p2174
sVstartedDateTime
p2175
V2017-04-16T08:50:22.150-05:00
p2176
sVcache
p2177
(dp2178
sVrequest
p2179
(dp2180
Vcomment
p2181
g4
sVcookies
p2182
(lp2183
sVurl
p2184
Vhttps://db-carbuzz-com.cdn.ampproject.org/ii/w68/db.carbuzz.com/avatars/Martin%20Bigg.jpg
p2185
sVqueryString
p2186
(lp2187
sVheaders
p2188
(lp2189
sVheadersSize
p2190
I557
sVbodySize
p2191
I0
sVmethod
p2192
VGET
p2193
sVhttpVersion
p2194
VHTTP/1.1
p2195
ssVtimings
p2196
(dp2197
Vcomment
p2198
g4
sVreceive
p2199
I0
sVsend
p2200
I0
sVssl
p2201
I211
sVconnect
p2202
I228
sVdns
p2203
I29
sVwait
p2204
I27
sVblocked
p2205
I0
ssVtime
p2206
I285
sVresponse
p2207
(dp2208
Vstatus
p2209
I200
sVcomment
p2210
g4
sVcookies
p2211
(lp2212
sVstatusText
p2213
VOK
p2214
sVcontent
p2215
(dp2216
VmimeType
p2217
Vimage/jpeg
p2218
sVcomment
p2219
g4
sVsize
p2220
I0
ssVheaders
p2221
(lp2222
sVheadersSize
p2223
I849
sVredirectURL
p2224
g4
sVbodySize
p2225
I1330
sVhttpVersion
p2226
VHTTP/1.1
p2227
ssa(dp2228
Vcomment
p2229
g4
sVserverIPAddress
p2230
V216.58.216.193
p2231
sVpageref
p2232
VVolkswagen
p2233
sVstartedDateTime
p2234
V2017-04-16T08:50:22.152-05:00
p2235
sVcache
p2236
(dp2237
sVrequest
p2238
(dp2239
Vcomment
p2240
g4
sVcookies
p2241
(lp2242
sVurl
p2243
Vhttps://db-carbuzz-com.cdn.ampproject.org/ii/w390/db.carbuzz.com/carbuzz_logo2.png
p2244
sVqueryString
p2245
(lp2246
sVheaders
p2247
(lp2248
sVheadersSize
p2249
I550
sVbodySize
p2250
I0
sVmethod
p2251
VGET
p2252
sVhttpVersion
p2253
VHTTP/1.1
p2254
ssVtimings
p2255
(dp2256
Vcomment
p2257
g4
sVreceive
p2258
I0
sVsend
p2259
I0
sVssl
p2260
I210
sVconnect
p2261
I230
sVdns
p2262
I33
sVwait
p2263
I39
sVblocked
p2264
I0
ssVtime
p2265
I304
sVresponse
p2266
(dp2267
Vstatus
p2268
I200
sVcomment
p2269
g4
sVcookies
p2270
(lp2271
sVstatusText
p2272
VOK
p2273
sVcontent
p2274
(dp2275
VmimeType
p2276
Vimage/png
p2277
sVcomment
p2278
g4
sVsize
p2279
I0
ssVheaders
p2280
(lp2281
sVheadersSize
p2282
I824
sVredirectURL
p2283
g4
sVbodySize
p2284
I2434
sVhttpVersion
p2285
VHTTP/1.1
p2286
ssa(dp2287
Vcomment
p2288
g4
sVserverIPAddress
p2289
V74.125.70.105
p2290
sVpageref
p2291
VVolkswagen
p2292
sVstartedDateTime
p2293
V2017-04-16T08:50:22.218-05:00
p2294
sVcache
p2295
(dp2296
sVrequest
p2297
(dp2298
Vcomment
p2299
g4
sVcookies
p2300
(lp2301
sVurl
p2302
Vhttps://www.google.com/gen_204?s=web&atyp=csi&ei=l3bzWIqPNcr4jwTk0KXoBw&imc=44&imn=44&imp=20&adh=tv.204,t.204&xjs=init.38.14.sb_mob.28.dvl.3.jsa.2.mbsf.1.abd.1&ima=11&rt=prt.1066,iml.1209,xjsls.1066,dcl.1282,xjses.1303,xjsee.1463,xjs.1464,qiml.1772,ol.5191,aft.1116,wsrt.158,cst.0,dnst.0,rqst.1311,rspt.1212,rqstt.41,unt.40,cstt.40,dit.1417
p2303
sVqueryString
p2304
(lp2305
(dp2306
Vname
p2307
g57
sVvalue
p2308
Vweb
p2309
sa(dp2310
Vname
p2311
Vatyp
p2312
sVvalue
p2313
Vcsi
p2314
sa(dp2315
Vname
p2316
Vei
p2317
sVvalue
p2318
Vl3bzWIqPNcr4jwTk0KXoBw
p2319
sa(dp2320
Vname
p2321
Vimc
p2322
sVvalue
p2323
V44
p2324
sa(dp2325
Vname
p2326
Vimn
p2327
sVvalue
p2328
V44
p2329
sa(dp2330
Vname
p2331
Vimp
p2332
sVvalue
p2333
V20
p2334
sa(dp2335
Vname
p2336
Vadh
p2337
sVvalue
p2338
Vtv.204,t.204
p2339
sa(dp2340
Vname
p2341
Vxjs
p2342
sVvalue
p2343
Vinit.38.14.sb_mob.28.dvl.3.jsa.2.mbsf.1.abd.1
p2344
sa(dp2345
Vname
p2346
Vima
p2347
sVvalue
p2348
V11
p2349
sa(dp2350
Vname
p2351
Vrt
p2352
sVvalue
p2353
Vprt.1066,iml.1209,xjsls.1066,dcl.1282,xjses.1303,xjsee.1463,xjs.1464,qiml.1772,ol.5191,aft.1116,wsrt.158,cst.0,dnst.0,rqst.1311,rspt.1212,rqstt.41,unt.40,cstt.40,dit.1417
p2354
sasVheaders
p2355
(lp2356
sVheadersSize
p2357
I857
sVbodySize
p2358
I0
sVmethod
p2359
VGET
p2360
sVhttpVersion
p2361
VHTTP/1.1
p2362
ssVtimings
p2363
(dp2364
Vcomment
p2365
g4
sVreceive
p2366
I0
sVsend
p2367
I0
sVssl
p2368
I-1
sVconnect
p2369
I-1
sVdns
p2370
I-1
sVwait
p2371
I28
sVblocked
p2372
I-1
ssVtime
p2373
I29
sVresponse
p2374
(dp2375
Vstatus
p2376
I204
sVcomment
p2377
g4
sVcookies
p2378
(lp2379
sVstatusText
p2380
VNo Content
p2381
sVcontent
p2382
(dp2383
VmimeType
p2384
Vtext/html; charset=UTF-8
p2385
sVcomment
p2386
g4
sVsize
p2387
I0
ssVheaders
p2388
(lp2389
sVheadersSize
p2390
I248
sVredirectURL
p2391
g4
sVbodySize
p2392
I0
sVhttpVersion
p2393
VHTTP/1.1
p2394
ssa(dp2395
Vcomment
p2396
g4
sVserverIPAddress
p2397
V74.125.70.105
p2398
sVpageref
p2399
VVolkswagen
p2400
sVstartedDateTime
p2401
V2017-04-16T08:50:22.724-05:00
p2402
sVcache
p2403
(dp2404
sVrequest
p2405
(dp2406
Vcomment
p2407
g4
sVcookies
p2408
(lp2409
sVurl
p2410
Vhttps://www.google.com/gen_204?atyp=i&ct=slh&cad=&ei=dnbzWL2THurcjwT7rqygBA&m=V&t=C&s=1&v=2&pv=0.7355533824036778&me=1:1492350586089,x:3,V,0,0,1280,944:0,N,1,dnbzWL2THurcjwT7rqygBA:0,R,1,25,8,228,1249,224:0,R,1,35,8,462,1249,501:0,R,1,37,8,462,1197,501:0,R,1,39,95,462,1024,120:0,R,1,70,16,658,1189,83:0,R,1,79,16,741,1189,83:0,R,1,88,16,824,1189,93:3,B,3931:8506,e,U&zx=1492350622722
p2411
sVqueryString
p2412
(lp2413
(dp2414
Vname
p2415
Vatyp
p2416
sVvalue
p2417
g30
sa(dp2418
Vname
p2419
Vct
p2420
sVvalue
p2421
Vslh
p2422
sa(dp2423
Vname
p2424
Vcad
p2425
sVvalue
p2426
g4
sa(dp2427
Vname
p2428
Vei
p2429
sVvalue
p2430
VdnbzWL2THurcjwT7rqygBA
p2431
sa(dp2432
Vname
p2433
g47
sVvalue
p2434
g49
sa(dp2435
Vname
p2436
g52
sVvalue
p2437
g54
sa(dp2438
Vname
p2439
g57
sVvalue
p2440
g59
sa(dp2441
Vname
p2442
g62
sVvalue
p2443
g64
sa(dp2444
Vname
p2445
Vpv
p2446
sVvalue
p2447
V0.7355533824036778
p2448
sa(dp2449
Vname
p2450
Vme
p2451
sVvalue
p2452
V1:1492350586089,x:3,V,0,0,1280,944:0,N,1,dnbzWL2THurcjwT7rqygBA:0,R,1,25,8,228,1249,224:0,R,1,35,8,462,1249,501:0,R,1,37,8,462,1197,501:0,R,1,39,95,462,1024,120:0,R,1,70,16,658,1189,83:0,R,1,79,16,741,1189,83:0,R,1,88,16,824,1189,93:3,B,3931:8506,e,U
p2453
sa(dp2454
Vname
p2455
Vzx
p2456
sVvalue
p2457
V1492350622722
p2458
sasVheaders
p2459
(lp2460
sVheadersSize
p2461
I901
sVbodySize
p2462
I0
sVmethod
p2463
VGET
p2464
sVhttpVersion
p2465
VHTTP/1.1
p2466
ssVtimings
p2467
(dp2468
Vcomment
p2469
g4
sVreceive
p2470
I0
sVsend
p2471
I0
sVssl
p2472
I-1
sVconnect
p2473
I-1
sVdns
p2474
I-1
sVwait
p2475
I25
sVblocked
p2476
I-1
ssVtime
p2477
I25
sVresponse
p2478
(dp2479
Vstatus
p2480
I204
sVcomment
p2481
g4
sVcookies
p2482
(lp2483
sVstatusText
p2484
VNo Content
p2485
sVcontent
p2486
(dp2487
VmimeType
p2488
Vtext/html; charset=UTF-8
p2489
sVcomment
p2490
g4
sVsize
p2491
I0
ssVheaders
p2492
(lp2493
sVheadersSize
p2494
I248
sVredirectURL
p2495
g4
sVbodySize
p2496
I0
sVhttpVersion
p2497
VHTTP/1.1
p2498
ssasVversion
p2499
V1.2
p2500
sVpages
p2501
(lp2502
(dp2503
VpageTimings
p2504
(dp2505
Vcomment
p2506
g4
ssVcomment
p2507
g4
sVtitle
p2508
VVolkswagen
p2509
sVid
p2510
VVolkswagen
p2511
sVstartedDateTime
p2512
V2017-04-16T08:50:14.035-05:00
p2513
sasVcreator
p2514
(dp2515
Vcomment
p2516
g4
sVversion
p2517
V2.1.4
p2518
sVname
p2519
VBrowserMob Proxy
p2520
sss.