(dp0
Vlog
p1
(dp2
Vcomment
p3
V
p4
sVentries
p5
(lp6
(dp7
Vcomment
p8
g4
sVserverIPAddress
p9
V216.58.216.196
p10
sVpageref
p11
VAtlanta Hawks
p12
sVstartedDateTime
p13
V2017-04-16T08:37:14.455-05:00
p14
sVcache
p15
(dp16
sVrequest
p17
(dp18
Vcomment
p19
g4
sVcookies
p20
(lp21
sVurl
p22
Vhttps://www.google.com/gen_204?atyp=i&ct=slh&cad=&ei=cnPzWLb8POupjwTemYS4CA&m=V&t=C&s=1&v=2&pv=0.8081568905597599&me=1:1492349815882,x:1,V,0,0,1280,944:0,N,1,cnPzWLb8POupjwTemYS4CA:0,R,1,24,0,155,1197,506:0,R,1,25,0,155,1197,504:0,R,1,79,8,669,1264,309:0,R,1,80,8,713,1264,265:0,R,1,81,0,713,1280,285:2,B,4757:18569,e,U&zx=1492349834454
p23
sVqueryString
p24
(lp25
(dp26
Vname
p27
Vatyp
p28
sVvalue
p29
Vi
p30
sa(dp31
Vname
p32
Vct
p33
sVvalue
p34
Vslh
p35
sa(dp36
Vname
p37
Vcad
p38
sVvalue
p39
g4
sa(dp40
Vname
p41
Vei
p42
sVvalue
p43
VcnPzWLb8POupjwTemYS4CA
p44
sa(dp45
Vname
p46
Vm
p47
sVvalue
p48
VV
p49
sa(dp50
Vname
p51
Vt
p52
sVvalue
p53
VC
p54
sa(dp55
Vname
p56
Vs
p57
sVvalue
p58
V1
p59
sa(dp60
Vname
p61
Vv
p62
sVvalue
p63
V2
p64
sa(dp65
Vname
p66
Vpv
p67
sVvalue
p68
V0.8081568905597599
p69
sa(dp70
Vname
p71
Vme
p72
sVvalue
p73
V1:1492349815882,x:1,V,0,0,1280,944:0,N,1,cnPzWLb8POupjwTemYS4CA:0,R,1,24,0,155,1197,506:0,R,1,25,0,155,1197,504:0,R,1,79,8,669,1264,309:0,R,1,80,8,713,1264,265:0,R,1,81,0,713,1280,285:2,B,4757:18569,e,U
p74
sa(dp75
Vname
p76
Vzx
p77
sVvalue
p78
V1492349834454
p79
sasVheaders
p80
(lp81
sVheadersSize
p82
I853
sVbodySize
p83
I0
sVmethod
p84
VGET
p85
sVhttpVersion
p86
VHTTP/1.1
p87
ssVtimings
p88
(dp89
Vcomment
p90
g4
sVreceive
p91
I0
sVsend
p92
I0
sVssl
p93
I-1
sVconnect
p94
I-1
sVdns
p95
I-1
sVwait
p96
I0
sVblocked
p97
I-1
ssVtime
p98
I0
sVresponse
p99
(dp100
Vstatus
p101
I0
sVcomment
p102
g4
sVcookies
p103
(lp104
sV_error
p105
VNo response received
p106
sVstatusText
p107
g4
sVcontent
p108
(dp109
VmimeType
p110
g4
sVcomment
p111
g4
sVsize
p112
I0
ssVheaders
p113
(lp114
sVheadersSize
p115
I-1
sVredirectURL
p116
g4
sVbodySize
p117
I-1
sVhttpVersion
p118
Vunknown
p119
ssa(dp120
Vcomment
p121
g4
sVserverIPAddress
p122
V216.58.216.196
p123
sVpageref
p124
VAtlanta Hawks
p125
sVstartedDateTime
p126
V2017-04-16T08:37:14.461-05:00
p127
sVcache
p128
(dp129
sVrequest
p130
(dp131
Vcomment
p132
g4
sVcookies
p133
(lp134
sVurl
p135
Vhttp://www.google.com/
p136
sVqueryString
p137
(lp138
sVheaders
p139
(lp140
sVheadersSize
p141
I613
sVbodySize
p142
I0
sVmethod
p143
VGET
p144
sVhttpVersion
p145
VHTTP/1.1
p146
ssVtimings
p147
(dp148
Vcomment
p149
g4
sVreceive
p150
I0
sVsend
p151
I0
sVssl
p152
I-1
sVconnect
p153
I-1
sVdns
p154
I-1
sVwait
p155
I39
sVblocked
p156
I-1
ssVtime
p157
I39
sVresponse
p158
(dp159
Vstatus
p160
I302
sVcomment
p161
g4
sVcookies
p162
(lp163
sVstatusText
p164
VFound
p165
sVcontent
p166
(dp167
VmimeType
p168
Vtext/html; charset=UTF-8
p169
sVcomment
p170
g4
sVsize
p171
I0
ssVheaders
p172
(lp173
sVheadersSize
p174
I609
sVredirectURL
p175
Vhttps://www.google.com/?gws_rd=ssl
p176
sVbodySize
p177
I231
sVhttpVersion
p178
VHTTP/1.1
p179
ssa(dp180
Vcomment
p181
g4
sVserverIPAddress
p182
V216.58.216.196
p183
sVpageref
p184
VAtlanta Hawks
p185
sVstartedDateTime
p186
V2017-04-16T08:37:14.505-05:00
p187
sVcache
p188
(dp189
sVrequest
p190
(dp191
Vcomment
p192
g4
sVcookies
p193
(lp194
sVurl
p195
Vhttps://www.google.com/?gws_rd=ssl
p196
sVqueryString
p197
(lp198
(dp199
Vname
p200
Vgws_rd
p201
sVvalue
p202
Vssl
p203
sasVheaders
p204
(lp205
sVheadersSize
p206
I607
sVbodySize
p207
I0
sVmethod
p208
VGET
p209
sVhttpVersion
p210
VHTTP/1.1
p211
ssVtimings
p212
(dp213
Vcomment
p214
g4
sVreceive
p215
I34
sVsend
p216
I0
sVssl
p217
I-1
sVconnect
p218
I-1
sVdns
p219
I-1
sVwait
p220
I96
sVblocked
p221
I-1
ssVtime
p222
I130
sVresponse
p223
(dp224
Vstatus
p225
I200
sVcomment
p226
g4
sVcookies
p227
(lp228
sVstatusText
p229
VOK
p230
sVcontent
p231
(dp232
VmimeType
p233
Vtext/html; charset=UTF-8
p234
sVcomment
p235
g4
sVsize
p236
I0
ssVheaders
p237
(lp238
sVheadersSize
p239
I721
sVredirectURL
p240
g4
sVbodySize
p241
I34294
sVhttpVersion
p242
VHTTP/1.1
p243
ssa(dp244
Vcomment
p245
g4
sVserverIPAddress
p246
V216.58.216.196
p247
sVpageref
p248
VAtlanta Hawks
p249
sVstartedDateTime
p250
V2017-04-16T08:37:14.891-05:00
p251
sVcache
p252
(dp253
sVrequest
p254
(dp255
Vcomment
p256
g4
sVcookies
p257
(lp258
sVurl
p259
Vhttps://www.google.com/gen_204?s=mobilewebhp&atyp=csi&ei=iXPzWM2XH6SwjwTt_ZGoAQ&imc=1&imn=1&imp=0&adh=&xjs=init.35.12.sb_mob.23.dvl.5.c.2.jsa.1.mbsf.1&ima=1&rt=xjsls.21,prt.24,iml.24,dcl.43,xjses.107,xjsee.212,xjs.212,ol.256,aft.24,wsrt.175,cst.0,dnst.0,rqst.132,rspt.34,rqstt.50,unt.48,cstt.48,dit.213
p260
sVqueryString
p261
(lp262
(dp263
Vname
p264
g57
sVvalue
p265
Vmobilewebhp
p266
sa(dp267
Vname
p268
Vatyp
p269
sVvalue
p270
Vcsi
p271
sa(dp272
Vname
p273
Vei
p274
sVvalue
p275
ViXPzWM2XH6SwjwTt_ZGoAQ
p276
sa(dp277
Vname
p278
Vimc
p279
sVvalue
p280
g59
sa(dp281
Vname
p282
Vimn
p283
sVvalue
p284
g59
sa(dp285
Vname
p286
Vimp
p287
sVvalue
p288
V0
p289
sa(dp290
Vname
p291
Vadh
p292
sVvalue
p293
g4
sa(dp294
Vname
p295
Vxjs
p296
sVvalue
p297
Vinit.35.12.sb_mob.23.dvl.5.c.2.jsa.1.mbsf.1
p298
sa(dp299
Vname
p300
Vima
p301
sVvalue
p302
g59
sa(dp303
Vname
p304
Vrt
p305
sVvalue
p306
Vxjsls.21,prt.24,iml.24,dcl.43,xjses.107,xjsee.212,xjs.212,ol.256,aft.24,wsrt.175,cst.0,dnst.0,rqst.132,rspt.34,rqstt.50,unt.48,cstt.48,dit.213
p307
sasVheaders
p308
(lp309
sVheadersSize
p310
I830
sVbodySize
p311
I0
sVmethod
p312
VGET
p313
sVhttpVersion
p314
VHTTP/1.1
p315
ssVtimings
p316
(dp317
Vcomment
p318
g4
sVreceive
p319
I0
sVsend
p320
I0
sVssl
p321
I-1
sVconnect
p322
I-1
sVdns
p323
I-1
sVwait
p324
I46
sVblocked
p325
I-1
ssVtime
p326
I47
sVresponse
p327
(dp328
Vstatus
p329
I204
sVcomment
p330
g4
sVcookies
p331
(lp332
sVstatusText
p333
VNo Content
p334
sVcontent
p335
(dp336
VmimeType
p337
Vtext/html; charset=UTF-8
p338
sVcomment
p339
g4
sVsize
p340
I0
ssVheaders
p341
(lp342
sVheadersSize
p343
I248
sVredirectURL
p344
g4
sVbodySize
p345
I0
sVhttpVersion
p346
VHTTP/1.1
p347
ssa(dp348
Vcomment
p349
g4
sVserverIPAddress
p350
V216.58.216.196
p351
sVpageref
p352
VAtlanta Hawks
p353
sVstartedDateTime
p354
V2017-04-16T08:37:15.047-05:00
p355
sVcache
p356
(dp357
sVrequest
p358
(dp359
Vcomment
p360
g4
sVcookies
p361
(lp362
sVurl
p363
Vhttps://www.google.com/complete/search?client=mobile-gws-hp&hl=en&gs_rn=64&gs_ri=mobile-gws-hp&sla=1&pfq=aroldis%20chapman&gm=602&cp=0&gs_id=1&xhr=t&q=A&tch=1&ech=1&psi=iXPzWM2XH6SwjwTt_ZGoAQ.1492349834810.1
p364
sVqueryString
p365
(lp366
(dp367
Vname
p368
Vclient
p369
sVvalue
p370
Vmobile-gws-hp
p371
sa(dp372
Vname
p373
Vhl
p374
sVvalue
p375
Ven
p376
sa(dp377
Vname
p378
Vgs_rn
p379
sVvalue
p380
V64
p381
sa(dp382
Vname
p383
Vgs_ri
p384
sVvalue
p385
Vmobile-gws-hp
p386
sa(dp387
Vname
p388
Vsla
p389
sVvalue
p390
g59
sa(dp391
Vname
p392
Vpfq
p393
sVvalue
p394
Varoldis chapman
p395
sa(dp396
Vname
p397
Vgm
p398
sVvalue
p399
V602
p400
sa(dp401
Vname
p402
Vcp
p403
sVvalue
p404
g289
sa(dp405
Vname
p406
Vgs_id
p407
sVvalue
p408
g59
sa(dp409
Vname
p410
Vxhr
p411
sVvalue
p412
g52
sa(dp413
Vname
p414
Vq
p415
sVvalue
p416
VA
p417
sa(dp418
Vname
p419
Vtch
p420
sVvalue
p421
g59
sa(dp422
Vname
p423
Vech
p424
sVvalue
p425
g59
sa(dp426
Vname
p427
Vpsi
p428
sVvalue
p429
ViXPzWM2XH6SwjwTt_ZGoAQ.1492349834810.1
p430
sasVheaders
p431
(lp432
sVheadersSize
p433
I735
sVbodySize
p434
I0
sVmethod
p435
VGET
p436
sVhttpVersion
p437
VHTTP/1.1
p438
ssVtimings
p439
(dp440
Vcomment
p441
g4
sVreceive
p442
I0
sVsend
p443
I0
sVssl
p444
I-1
sVconnect
p445
I-1
sVdns
p446
I-1
sVwait
p447
I0
sVblocked
p448
I-1
ssVtime
p449
I0
sVresponse
p450
(dp451
Vstatus
p452
I0
sVcomment
p453
g4
sVcookies
p454
(lp455
sV_error
p456
VNo response received
p457
sVstatusText
p458
g4
sVcontent
p459
(dp460
VmimeType
p461
g4
sVcomment
p462
g4
sVsize
p463
I0
ssVheaders
p464
(lp465
sVheadersSize
p466
I-1
sVredirectURL
p467
g4
sVbodySize
p468
I-1
sVhttpVersion
p469
Vunknown
p470
ssa(dp471
Vcomment
p472
g4
sVserverIPAddress
p473
V216.58.216.196
p474
sVpageref
p475
VAtlanta Hawks
p476
sVstartedDateTime
p477
V2017-04-16T08:37:15.171-05:00
p478
sVcache
p479
(dp480
sVrequest
p481
(dp482
Vcomment
p483
g4
sVcookies
p484
(lp485
sVurl
p486
Vhttps://www.google.com/search?site=&source=hp&ei=iXPzWM2XH6SwjwTt_ZGoAQ&q=Atlanta+Hawks&oq=Atlanta+Hawks&gs_l=mobile-gws-hp.3...209.247.0.273.13.1.0.0.0.0.0.0..0.0....0...1c.1.64.mobile-gws-hp..13.0.0.uGbBnBfKqfI
p487
sVqueryString
p488
(lp489
(dp490
Vname
p491
Vsite
p492
sVvalue
p493
g4
sa(dp494
Vname
p495
Vsource
p496
sVvalue
p497
Vhp
p498
sa(dp499
Vname
p500
Vei
p501
sVvalue
p502
ViXPzWM2XH6SwjwTt_ZGoAQ
p503
sa(dp504
Vname
p505
g415
sVvalue
p506
VAtlanta Hawks
p507
sa(dp508
Vname
p509
Voq
p510
sVvalue
p511
VAtlanta Hawks
p512
sa(dp513
Vname
p514
Vgs_l
p515
sVvalue
p516
Vmobile-gws-hp.3...209.247.0.273.13.1.0.0.0.0.0.0..0.0....0...1c.1.64.mobile-gws-hp..13.0.0.uGbBnBfKqfI
p517
sasVheaders
p518
(lp519
sVheadersSize
p520
I830
sVbodySize
p521
I0
sVmethod
p522
VGET
p523
sVhttpVersion
p524
VHTTP/1.1
p525
ssVtimings
p526
(dp527
Vcomment
p528
g4
sVreceive
p529
I1271
sVsend
p530
I0
sVssl
p531
I17
sVconnect
p532
I52
sVdns
p533
I1
sVwait
p534
I103
sVblocked
p535
I0
ssVtime
p536
I1429
sVresponse
p537
(dp538
Vstatus
p539
I200
sVcomment
p540
g4
sVcookies
p541
(lp542
sVstatusText
p543
VOK
p544
sVcontent
p545
(dp546
VmimeType
p547
Vtext/html; charset=UTF-8
p548
sVcomment
p549
g4
sVsize
p550
I0
ssVheaders
p551
(lp552
sVheadersSize
p553
I363
sVredirectURL
p554
g4
sVbodySize
p555
I173254
sVhttpVersion
p556
VHTTP/1.1
p557
ssa(dp558
Vcomment
p559
g4
sVserverIPAddress
p560
V216.58.216.195
p561
sVpageref
p562
VAtlanta Hawks
p563
sVstartedDateTime
p564
V2017-04-16T08:37:16.496-05:00
p565
sVcache
p566
(dp567
sVrequest
p568
(dp569
Vcomment
p570
g4
sVcookies
p571
(lp572
sVurl
p573
Vhttps://ssl.gstatic.com/onebox/media/sports/logos/pm5l5mtY1elOQAl9ZEcm2A_48x48.png
p574
sVqueryString
p575
(lp576
sVheaders
p577
(lp578
sVheadersSize
p579
I397
sVbodySize
p580
I0
sVmethod
p581
VGET
p582
sVhttpVersion
p583
VHTTP/1.1
p584
ssVtimings
p585
(dp586
Vcomment
p587
g4
sVreceive
p588
I0
sVsend
p589
I0
sVssl
p590
I-1
sVconnect
p591
I-1
sVdns
p592
I-1
sVwait
p593
I21
sVblocked
p594
I-1
ssVtime
p595
I21
sVresponse
p596
(dp597
Vstatus
p598
I200
sVcomment
p599
g4
sVcookies
p600
(lp601
sVstatusText
p602
VOK
p603
sVcontent
p604
(dp605
VmimeType
p606
Vimage/png
p607
sVcomment
p608
g4
sVsize
p609
I0
ssVheaders
p610
(lp611
sVheadersSize
p612
I424
sVredirectURL
p613
g4
sVbodySize
p614
I2865
sVhttpVersion
p615
VHTTP/1.1
p616
ssa(dp617
Vcomment
p618
g4
sVserverIPAddress
p619
V216.58.216.195
p620
sVpageref
p621
VAtlanta Hawks
p622
sVstartedDateTime
p623
V2017-04-16T08:37:16.497-05:00
p624
sVcache
p625
(dp626
sVrequest
p627
(dp628
Vcomment
p629
g4
sVcookies
p630
(lp631
sVurl
p632
Vhttps://ssl.gstatic.com/onebox/media/sports/logos/pm5l5mtY1elOQAl9ZEcm2A_96x96.png
p633
sVqueryString
p634
(lp635
sVheaders
p636
(lp637
sVheadersSize
p638
I397
sVbodySize
p639
I0
sVmethod
p640
VGET
p641
sVhttpVersion
p642
VHTTP/1.1
p643
ssVtimings
p644
(dp645
Vcomment
p646
g4
sVreceive
p647
I6
sVsend
p648
I0
sVssl
p649
I-1
sVconnect
p650
I-1
sVdns
p651
I-1
sVwait
p652
I21
sVblocked
p653
I-1
ssVtime
p654
I27
sVresponse
p655
(dp656
Vstatus
p657
I200
sVcomment
p658
g4
sVcookies
p659
(lp660
sVstatusText
p661
VOK
p662
sVcontent
p663
(dp664
VmimeType
p665
Vimage/png
p666
sVcomment
p667
g4
sVsize
p668
I0
ssVheaders
p669
(lp670
sVheadersSize
p671
I424
sVredirectURL
p672
g4
sVbodySize
p673
I5666
sVhttpVersion
p674
VHTTP/1.1
p675
ssa(dp676
Vcomment
p677
g4
sVserverIPAddress
p678
V216.58.216.195
p679
sVpageref
p680
VAtlanta Hawks
p681
sVstartedDateTime
p682
V2017-04-16T08:37:16.497-05:00
p683
sVcache
p684
(dp685
sVrequest
p686
(dp687
Vcomment
p688
g4
sVcookies
p689
(lp690
sVurl
p691
Vhttps://ssl.gstatic.com/onebox/media/sports/logos/NBkMJapxft4V5kvufec4Jg_96x96.png
p692
sVqueryString
p693
(lp694
sVheaders
p695
(lp696
sVheadersSize
p697
I397
sVbodySize
p698
I0
sVmethod
p699
VGET
p700
sVhttpVersion
p701
VHTTP/1.1
p702
ssVtimings
p703
(dp704
Vcomment
p705
g4
sVreceive
p706
I0
sVsend
p707
I0
sVssl
p708
I-1
sVconnect
p709
I-1
sVdns
p710
I-1
sVwait
p711
I21
sVblocked
p712
I-1
ssVtime
p713
I21
sVresponse
p714
(dp715
Vstatus
p716
I200
sVcomment
p717
g4
sVcookies
p718
(lp719
sVstatusText
p720
VOK
p721
sVcontent
p722
(dp723
VmimeType
p724
Vimage/png
p725
sVcomment
p726
g4
sVsize
p727
I0
ssVheaders
p728
(lp729
sVheadersSize
p730
I424
sVredirectURL
p731
g4
sVbodySize
p732
I9263
sVhttpVersion
p733
VHTTP/1.1
p734
ssa(dp735
Vcomment
p736
g4
sVserverIPAddress
p737
V216.58.216.196
p738
sVpageref
p739
VAtlanta Hawks
p740
sVstartedDateTime
p741
V2017-04-16T08:37:17.776-05:00
p742
sVcache
p743
(dp744
sVrequest
p745
(dp746
Vcomment
p747
g4
sVcookies
p748
(lp749
sVurl
p750
Vhttps://www.google.com/async/irc?vet=10ahUKEwjxzfutjKnTAhVC0YMKHVciDlcQo0EI7QI..i&ved=0ahUKEwjxzfutjKnTAhVC0YMKHVciDlcQo0EI7QI&ei=inPzWPHgCcKijwTXxLi4BQ&yv=2&async=iu:1,ved:0ahUKEwjxzfutjKnTAhVC0YMKHVciDlcQo0EI7QI,_id:irc_async,_pms:qs
p751
sVqueryString
p752
(lp753
(dp754
Vname
p755
Vvet
p756
sVvalue
p757
V10ahUKEwjxzfutjKnTAhVC0YMKHVciDlcQo0EI7QI..i
p758
sa(dp759
Vname
p760
Vved
p761
sVvalue
p762
V0ahUKEwjxzfutjKnTAhVC0YMKHVciDlcQo0EI7QI
p763
sa(dp764
Vname
p765
Vei
p766
sVvalue
p767
VinPzWPHgCcKijwTXxLi4BQ
p768
sa(dp769
Vname
p770
Vyv
p771
sVvalue
p772
g64
sa(dp773
Vname
p774
Vasync
p775
sVvalue
p776
Viu:1,ved:0ahUKEwjxzfutjKnTAhVC0YMKHVciDlcQo0EI7QI,_id:irc_async,_pms:qs
p777
sasVheaders
p778
(lp779
sVheadersSize
p780
I752
sVbodySize
p781
I0
sVmethod
p782
VGET
p783
sVhttpVersion
p784
VHTTP/1.1
p785
ssVtimings
p786
(dp787
Vcomment
p788
g4
sVreceive
p789
I2
sVsend
p790
I0
sVssl
p791
I-1
sVconnect
p792
I-1
sVdns
p793
I-1
sVwait
p794
I43
sVblocked
p795
I-1
ssVtime
p796
I45
sVresponse
p797
(dp798
Vstatus
p799
I200
sVcomment
p800
g4
sVcookies
p801
(lp802
sVstatusText
p803
VOK
p804
sVcontent
p805
(dp806
VmimeType
p807
Vtext/html; charset=UTF-8
p808
sVcomment
p809
g4
sVsize
p810
I0
ssVheaders
p811
(lp812
sVheadersSize
p813
I383
sVredirectURL
p814
g4
sVbodySize
p815
I7795
sVhttpVersion
p816
VHTTP/1.1
p817
ssa(dp818
Vcomment
p819
g4
sVserverIPAddress
p820
V216.58.216.196
p821
sVpageref
p822
VAtlanta Hawks
p823
sVstartedDateTime
p824
V2017-04-16T08:37:17.893-05:00
p825
sVcache
p826
(dp827
sVrequest
p828
(dp829
Vcomment
p830
g4
sVcookies
p831
(lp832
sVurl
p833
Vhttps://www.google.com/async/ampfp?vet=10ahUKEwjxzfutjKnTAhVC0YMKHVciDlcQtZoBCOsC..i&ei=inPzWPHgCcKijwTXxLi4BQ&yv=2&async=_id:ampfp-async,_pms:qs
p834
sVqueryString
p835
(lp836
(dp837
Vname
p838
Vvet
p839
sVvalue
p840
V10ahUKEwjxzfutjKnTAhVC0YMKHVciDlcQtZoBCOsC..i
p841
sa(dp842
Vname
p843
Vei
p844
sVvalue
p845
VinPzWPHgCcKijwTXxLi4BQ
p846
sa(dp847
Vname
p848
Vyv
p849
sVvalue
p850
g64
sa(dp851
Vname
p852
Vasync
p853
sVvalue
p854
V_id:ampfp-async,_pms:qs
p855
sasVheaders
p856
(lp857
sVheadersSize
p858
I662
sVbodySize
p859
I0
sVmethod
p860
VGET
p861
sVhttpVersion
p862
VHTTP/1.1
p863
ssVtimings
p864
(dp865
Vcomment
p866
g4
sVreceive
p867
I4
sVsend
p868
I0
sVssl
p869
I-1
sVconnect
p870
I-1
sVdns
p871
I-1
sVwait
p872
I40
sVblocked
p873
I-1
ssVtime
p874
I45
sVresponse
p875
(dp876
Vstatus
p877
I200
sVcomment
p878
g4
sVcookies
p879
(lp880
sVstatusText
p881
VOK
p882
sVcontent
p883
(dp884
VmimeType
p885
Vtext/html; charset=UTF-8
p886
sVcomment
p887
g4
sVsize
p888
I0
ssVheaders
p889
(lp890
sVheadersSize
p891
I383
sVredirectURL
p892
g4
sVbodySize
p893
I4529
sVhttpVersion
p894
VHTTP/1.1
p895
ssa(dp896
Vcomment
p897
g4
sVserverIPAddress
p898
V216.58.216.193
p899
sVpageref
p900
VAtlanta Hawks
p901
sVstartedDateTime
p902
V2017-04-16T08:37:17.893-05:00
p903
sVcache
p904
(dp905
sVrequest
p906
(dp907
Vcomment
p908
g4
sVcookies
p909
(lp910
sVurl
p911
Vhttps://cdn.ampproject.org/preconnect.gif?0.21305012764798859
p912
sVqueryString
p913
(lp914
(dp915
Vname
p916
V0.21305012764798859
p917
sVvalue
p918
g4
sasVheaders
p919
(lp920
sVheadersSize
p921
I376
sVbodySize
p922
I0
sVmethod
p923
VGET
p924
sVhttpVersion
p925
VHTTP/1.1
p926
ssVtimings
p927
(dp928
Vcomment
p929
g4
sVreceive
p930
I0
sVsend
p931
I0
sVssl
p932
I-1
sVconnect
p933
I-1
sVdns
p934
I-1
sVwait
p935
I23
sVblocked
p936
I-1
ssVtime
p937
I23
sVresponse
p938
(dp939
Vstatus
p940
I200
sVcomment
p941
g4
sVcookies
p942
(lp943
sVstatusText
p944
VOK
p945
sVcontent
p946
(dp947
VmimeType
p948
Vimage/gif
p949
sVcomment
p950
g4
sVsize
p951
I0
ssVheaders
p952
(lp953
sVheadersSize
p954
I826
sVredirectURL
p955
g4
sVbodySize
p956
I37
sVhttpVersion
p957
VHTTP/1.1
p958
ssa(dp959
Vcomment
p960
g4
sVserverIPAddress
p961
V216.58.216.196
p962
sVpageref
p963
VAtlanta Hawks
p964
sVstartedDateTime
p965
V2017-04-16T08:37:18.226-05:00
p966
sVcache
p967
(dp968
sVrequest
p969
(dp970
Vcomment
p971
g4
sVcookies
p972
(lp973
sVurl
p974
Vhttps://www.google.com/gen_204?s=web&atyp=csi&ei=inPzWPHgCcKijwTXxLi4BQ&imc=70&imn=70&imp=23&adh=&xjs=init.51.16.sb_mob.36.dvl.5.async.4.mbsf.2.lr.2&ima=11&rt=prt.1335,iml.1554,xjsls.1335,qiml.1639,dcl.1518,xjses.1642,xjsee.1837,xjs.1839,ol.2921,aft.1523,wsrt.180,cst.0,dnst.0,rqst.1379,rspt.1380,rqstt.61,unt.4,cstt.4,dit.1616
p975
sVqueryString
p976
(lp977
(dp978
Vname
p979
g57
sVvalue
p980
Vweb
p981
sa(dp982
Vname
p983
Vatyp
p984
sVvalue
p985
Vcsi
p986
sa(dp987
Vname
p988
Vei
p989
sVvalue
p990
VinPzWPHgCcKijwTXxLi4BQ
p991
sa(dp992
Vname
p993
Vimc
p994
sVvalue
p995
V70
p996
sa(dp997
Vname
p998
Vimn
p999
sVvalue
p1000
V70
p1001
sa(dp1002
Vname
p1003
Vimp
p1004
sVvalue
p1005
V23
p1006
sa(dp1007
Vname
p1008
Vadh
p1009
sVvalue
p1010
g4
sa(dp1011
Vname
p1012
Vxjs
p1013
sVvalue
p1014
Vinit.51.16.sb_mob.36.dvl.5.async.4.mbsf.2.lr.2
p1015
sa(dp1016
Vname
p1017
Vima
p1018
sVvalue
p1019
V11
p1020
sa(dp1021
Vname
p1022
Vrt
p1023
sVvalue
p1024
Vprt.1335,iml.1554,xjsls.1335,qiml.1639,dcl.1518,xjses.1642,xjsee.1837,xjs.1839,ol.2921,aft.1523,wsrt.180,cst.0,dnst.0,rqst.1379,rspt.1380,rqstt.61,unt.4,cstt.4,dit.1616
p1025
sasVheaders
p1026
(lp1027
sVheadersSize
p1028
I844
sVbodySize
p1029
I0
sVmethod
p1030
VGET
p1031
sVhttpVersion
p1032
VHTTP/1.1
p1033
ssVtimings
p1034
(dp1035
Vcomment
p1036
g4
sVreceive
p1037
I0
sVsend
p1038
I0
sVssl
p1039
I-1
sVconnect
p1040
I-1
sVdns
p1041
I-1
sVwait
p1042
I23
sVblocked
p1043
I-1
ssVtime
p1044
I24
sVresponse
p1045
(dp1046
Vstatus
p1047
I204
sVcomment
p1048
g4
sVcookies
p1049
(lp1050
sVstatusText
p1051
VNo Content
p1052
sVcontent
p1053
(dp1054
VmimeType
p1055
Vtext/html; charset=UTF-8
p1056
sVcomment
p1057
g4
sVsize
p1058
I0
ssVheaders
p1059
(lp1060
sVheadersSize
p1061
I248
sVredirectURL
p1062
g4
sVbodySize
p1063
I0
sVhttpVersion
p1064
VHTTP/1.1
p1065
ssa(dp1066
Vcomment
p1067
g4
sVserverIPAddress
p1068
V216.58.216.196
p1069
sVpageref
p1070
VAtlanta Hawks
p1071
sVstartedDateTime
p1072
V2017-04-16T08:37:18.305-05:00
p1073
sVcache
p1074
(dp1075
sVrequest
p1076
(dp1077
Vcomment
p1078
g4
sVcookies
p1079
(lp1080
sVurl
p1081
Vhttps://www.google.com/async/log_amp_item_set?vet=10ahUKEwjUz6GvjKnTAhVD9YMKHfngBpEQooQBCAE..i&ei=inPzWPHgCcKijwTXxLi4BQ&yv=2&async=num_items:5,_fmt:jspb
p1082
sVqueryString
p1083
(lp1084
(dp1085
Vname
p1086
Vvet
p1087
sVvalue
p1088
V10ahUKEwjUz6GvjKnTAhVD9YMKHfngBpEQooQBCAE..i
p1089
sa(dp1090
Vname
p1091
Vei
p1092
sVvalue
p1093
VinPzWPHgCcKijwTXxLi4BQ
p1094
sa(dp1095
Vname
p1096
Vyv
p1097
sVvalue
p1098
g64
sa(dp1099
Vname
p1100
Vasync
p1101
sVvalue
p1102
Vnum_items:5,_fmt:jspb
p1103
sasVheaders
p1104
(lp1105
sVheadersSize
p1106
I670
sVbodySize
p1107
I0
sVmethod
p1108
VGET
p1109
sVhttpVersion
p1110
VHTTP/1.1
p1111
ssVtimings
p1112
(dp1113
Vcomment
p1114
g4
sVreceive
p1115
I0
sVsend
p1116
I0
sVssl
p1117
I-1
sVconnect
p1118
I-1
sVdns
p1119
I-1
sVwait
p1120
I30
sVblocked
p1121
I-1
ssVtime
p1122
I31
sVresponse
p1123
(dp1124
Vstatus
p1125
I200
sVcomment
p1126
g4
sVcookies
p1127
(lp1128
sVstatusText
p1129
VOK
p1130
sVcontent
p1131
(dp1132
VmimeType
p1133
Vapplication/json; charset=UTF-8
p1134
sVcomment
p1135
g4
sVsize
p1136
I0
ssVheaders
p1137
(lp1138
sVheadersSize
p1139
I417
sVredirectURL
p1140
g4
sVbodySize
p1141
I160
sVhttpVersion
p1142
VHTTP/1.1
p1143
ssa(dp1144
Vcomment
p1145
g4
sVserverIPAddress
p1146
V216.58.216.196
p1147
sVpageref
p1148
VAtlanta Hawks
p1149
sVstartedDateTime
p1150
V2017-04-16T08:37:19.850-05:00
p1151
sVcache
p1152
(dp1153
sVrequest
p1154
(dp1155
Vcomment
p1156
g4
sVcookies
p1157
(lp1158
sVurl
p1159
Vhttps://www.google.com/gen_204?atyp=i&ct=slh&cad=&ei=cnPzWLb8POupjwTemYS4CA&m=V&t=C&s=1&v=2&pv=0.8081568905597599&me=1:1492349815882,x:1,V,0,0,1280,944:0,N,1,cnPzWLb8POupjwTemYS4CA:0,R,1,24,0,155,1197,506:0,R,1,25,0,155,1197,504:0,R,1,79,8,669,1264,309:0,R,1,80,8,713,1264,265:0,R,1,81,0,713,1280,285:2,B,4757:18569,e,U&zx=1492349839847
p1160
sVqueryString
p1161
(lp1162
(dp1163
Vname
p1164
Vatyp
p1165
sVvalue
p1166
g30
sa(dp1167
Vname
p1168
Vct
p1169
sVvalue
p1170
Vslh
p1171
sa(dp1172
Vname
p1173
Vcad
p1174
sVvalue
p1175
g4
sa(dp1176
Vname
p1177
Vei
p1178
sVvalue
p1179
VcnPzWLb8POupjwTemYS4CA
p1180
sa(dp1181
Vname
p1182
g47
sVvalue
p1183
g49
sa(dp1184
Vname
p1185
g52
sVvalue
p1186
g54
sa(dp1187
Vname
p1188
g57
sVvalue
p1189
g59
sa(dp1190
Vname
p1191
g62
sVvalue
p1192
g64
sa(dp1193
Vname
p1194
Vpv
p1195
sVvalue
p1196
V0.8081568905597599
p1197
sa(dp1198
Vname
p1199
Vme
p1200
sVvalue
p1201
V1:1492349815882,x:1,V,0,0,1280,944:0,N,1,cnPzWLb8POupjwTemYS4CA:0,R,1,24,0,155,1197,506:0,R,1,25,0,155,1197,504:0,R,1,79,8,669,1264,309:0,R,1,80,8,713,1264,265:0,R,1,81,0,713,1280,285:2,B,4757:18569,e,U
p1202
sa(dp1203
Vname
p1204
Vzx
p1205
sVvalue
p1206
V1492349839847
p1207
sasVheaders
p1208
(lp1209
sVheadersSize
p1210
I853
sVbodySize
p1211
I0
sVmethod
p1212
VGET
p1213
sVhttpVersion
p1214
VHTTP/1.1
p1215
ssVtimings
p1216
(dp1217
Vcomment
p1218
g4
sVreceive
p1219
I0
sVsend
p1220
I0
sVssl
p1221
I-1
sVconnect
p1222
I-1
sVdns
p1223
I-1
sVwait
p1224
I29
sVblocked
p1225
I-1
ssVtime
p1226
I30
sVresponse
p1227
(dp1228
Vstatus
p1229
I204
sVcomment
p1230
g4
sVcookies
p1231
(lp1232
sVstatusText
p1233
VNo Content
p1234
sVcontent
p1235
(dp1236
VmimeType
p1237
Vtext/html; charset=UTF-8
p1238
sVcomment
p1239
g4
sVsize
p1240
I0
ssVheaders
p1241
(lp1242
sVheadersSize
p1243
I248
sVredirectURL
p1244
g4
sVbodySize
p1245
I0
sVhttpVersion
p1246
VHTTP/1.1
p1247
ssasVversion
p1248
V1.2
p1249
sVpages
p1250
(lp1251
(dp1252
VpageTimings
p1253
(dp1254
Vcomment
p1255
g4
ssVcomment
p1256
g4
sVtitle
p1257
VAtlanta Hawks
p1258
sVid
p1259
VAtlanta Hawks
p1260
sVstartedDateTime
p1261
V2017-04-16T08:37:14.444-05:00
p1262
sasVcreator
p1263
(dp1264
Vcomment
p1265
g4
sVversion
p1266
V2.1.4
p1267
sVname
p1268
VBrowserMob Proxy
p1269
sss.