(dp0
Vlog
p1
(dp2
Vcomment
p3
V
p4
sVentries
p5
(lp6
(dp7
Vcomment
p8
g4
sVserverIPAddress
p9
V216.58.216.196
p10
sVpageref
p11
VDog
p12
sVstartedDateTime
p13
V2017-04-16T08:15:07.465-05:00
p14
sVcache
p15
(dp16
sVrequest
p17
(dp18
Vcomment
p19
g4
sVcookies
p20
(lp21
sVurl
p22
Vhttps://www.google.com/gen_204?atyp=i&ct=slh&cad=&ei=R27zWPCZFaXGjwT-jYvIAw&s=2&v=2&pv=0.07210373363463751&me=18:1492348492519,V,0,0,0,0:14944,e,U&zx=1492348507464
p23
sVqueryString
p24
(lp25
(dp26
Vname
p27
Vatyp
p28
sVvalue
p29
Vi
p30
sa(dp31
Vname
p32
Vct
p33
sVvalue
p34
Vslh
p35
sa(dp36
Vname
p37
Vcad
p38
sVvalue
p39
g4
sa(dp40
Vname
p41
Vei
p42
sVvalue
p43
VR27zWPCZFaXGjwT-jYvIAw
p44
sa(dp45
Vname
p46
Vs
p47
sVvalue
p48
V2
p49
sa(dp50
Vname
p51
Vv
p52
sVvalue
p53
g49
sa(dp54
Vname
p55
Vpv
p56
sVvalue
p57
V0.07210373363463751
p58
sa(dp59
Vname
p60
Vme
p61
sVvalue
p62
V18:1492348492519,V,0,0,0,0:14944,e,U
p63
sa(dp64
Vname
p65
Vzx
p66
sVvalue
p67
V1492348507464
p68
sasVheaders
p69
(lp70
sVheadersSize
p71
I680
sVbodySize
p72
I0
sVmethod
p73
VGET
p74
sVhttpVersion
p75
VHTTP/1.1
p76
ssVtimings
p77
(dp78
Vcomment
p79
g4
sVreceive
p80
I0
sVsend
p81
I0
sVssl
p82
I-1
sVconnect
p83
I-1
sVdns
p84
I-1
sVwait
p85
I0
sVblocked
p86
I-1
ssVtime
p87
I0
sVresponse
p88
(dp89
Vstatus
p90
I0
sVcomment
p91
g4
sVcookies
p92
(lp93
sV_error
p94
VNo response received
p95
sVstatusText
p96
g4
sVcontent
p97
(dp98
VmimeType
p99
g4
sVcomment
p100
g4
sVsize
p101
I0
ssVheaders
p102
(lp103
sVheadersSize
p104
I-1
sVredirectURL
p105
g4
sVbodySize
p106
I-1
sVhttpVersion
p107
Vunknown
p108
ssa(dp109
Vcomment
p110
g4
sVserverIPAddress
p111
V216.58.216.196
p112
sVpageref
p113
VDog
p114
sVstartedDateTime
p115
V2017-04-16T08:15:07.470-05:00
p116
sVcache
p117
(dp118
sVrequest
p119
(dp120
Vcomment
p121
g4
sVcookies
p122
(lp123
sVurl
p124
Vhttp://www.google.com/
p125
sVqueryString
p126
(lp127
sVheaders
p128
(lp129
sVheadersSize
p130
I613
sVbodySize
p131
I0
sVmethod
p132
VGET
p133
sVhttpVersion
p134
VHTTP/1.1
p135
ssVtimings
p136
(dp137
Vcomment
p138
g4
sVreceive
p139
I0
sVsend
p140
I0
sVssl
p141
I-1
sVconnect
p142
I-1
sVdns
p143
I-1
sVwait
p144
I53
sVblocked
p145
I-1
ssVtime
p146
I53
sVresponse
p147
(dp148
Vstatus
p149
I302
sVcomment
p150
g4
sVcookies
p151
(lp152
sVstatusText
p153
VFound
p154
sVcontent
p155
(dp156
VmimeType
p157
Vtext/html; charset=UTF-8
p158
sVcomment
p159
g4
sVsize
p160
I0
ssVheaders
p161
(lp162
sVheadersSize
p163
I609
sVredirectURL
p164
Vhttps://www.google.com/?gws_rd=ssl
p165
sVbodySize
p166
I231
sVhttpVersion
p167
VHTTP/1.1
p168
ssa(dp169
Vcomment
p170
g4
sVserverIPAddress
p171
V216.58.216.196
p172
sVpageref
p173
VDog
p174
sVstartedDateTime
p175
V2017-04-16T08:15:07.532-05:00
p176
sVcache
p177
(dp178
sVrequest
p179
(dp180
Vcomment
p181
g4
sVcookies
p182
(lp183
sVurl
p184
Vhttps://www.google.com/?gws_rd=ssl
p185
sVqueryString
p186
(lp187
(dp188
Vname
p189
Vgws_rd
p190
sVvalue
p191
Vssl
p192
sasVheaders
p193
(lp194
sVheadersSize
p195
I607
sVbodySize
p196
I0
sVmethod
p197
VGET
p198
sVhttpVersion
p199
VHTTP/1.1
p200
ssVtimings
p201
(dp202
Vcomment
p203
g4
sVreceive
p204
I20
sVsend
p205
I0
sVssl
p206
I-1
sVconnect
p207
I-1
sVdns
p208
I-1
sVwait
p209
I70
sVblocked
p210
I-1
ssVtime
p211
I91
sVresponse
p212
(dp213
Vstatus
p214
I200
sVcomment
p215
g4
sVcookies
p216
(lp217
sVstatusText
p218
VOK
p219
sVcontent
p220
(dp221
VmimeType
p222
Vtext/html; charset=UTF-8
p223
sVcomment
p224
g4
sVsize
p225
I0
ssVheaders
p226
(lp227
sVheadersSize
p228
I721
sVredirectURL
p229
g4
sVbodySize
p230
I34291
sVhttpVersion
p231
VHTTP/1.1
p232
ssa(dp233
Vcomment
p234
g4
sVserverIPAddress
p235
V216.58.216.196
p236
sVpageref
p237
VDog
p238
sVstartedDateTime
p239
V2017-04-16T08:15:07.840-05:00
p240
sVcache
p241
(dp242
sVrequest
p243
(dp244
Vcomment
p245
g4
sVcookies
p246
(lp247
sVurl
p248
Vhttps://www.google.com/gen_204?s=mobilewebhp&atyp=csi&ei=Wm7zWL7gIOi0jwSMj6rwDA&imc=1&imn=1&imp=0&adh=&xjs=init.28.12.sb_mob.20.dvl.3.async.2.mbsf.1.r.1&ima=1&rt=xjsls.11,prt.13,iml.13,dcl.43,xjses.88,xjsee.180,xjs.180,ol.215,aft.13,wsrt.156,cst.0,dnst.0,rqst.93,rspt.22,rqstt.69,unt.62,cstt.62,dit.189
p249
sVqueryString
p250
(lp251
(dp252
Vname
p253
g47
sVvalue
p254
Vmobilewebhp
p255
sa(dp256
Vname
p257
Vatyp
p258
sVvalue
p259
Vcsi
p260
sa(dp261
Vname
p262
Vei
p263
sVvalue
p264
VWm7zWL7gIOi0jwSMj6rwDA
p265
sa(dp266
Vname
p267
Vimc
p268
sVvalue
p269
V1
p270
sa(dp271
Vname
p272
Vimn
p273
sVvalue
p274
g270
sa(dp275
Vname
p276
Vimp
p277
sVvalue
p278
V0
p279
sa(dp280
Vname
p281
Vadh
p282
sVvalue
p283
g4
sa(dp284
Vname
p285
Vxjs
p286
sVvalue
p287
Vinit.28.12.sb_mob.20.dvl.3.async.2.mbsf.1.r.1
p288
sa(dp289
Vname
p290
Vima
p291
sVvalue
p292
g270
sa(dp293
Vname
p294
Vrt
p295
sVvalue
p296
Vxjsls.11,prt.13,iml.13,dcl.43,xjses.88,xjsee.180,xjs.180,ol.215,aft.13,wsrt.156,cst.0,dnst.0,rqst.93,rspt.22,rqstt.69,unt.62,cstt.62,dit.189
p297
sasVheaders
p298
(lp299
sVheadersSize
p300
I830
sVbodySize
p301
I0
sVmethod
p302
VGET
p303
sVhttpVersion
p304
VHTTP/1.1
p305
ssVtimings
p306
(dp307
Vcomment
p308
g4
sVreceive
p309
I0
sVsend
p310
I0
sVssl
p311
I-1
sVconnect
p312
I-1
sVdns
p313
I-1
sVwait
p314
I24
sVblocked
p315
I-1
ssVtime
p316
I25
sVresponse
p317
(dp318
Vstatus
p319
I204
sVcomment
p320
g4
sVcookies
p321
(lp322
sVstatusText
p323
VNo Content
p324
sVcontent
p325
(dp326
VmimeType
p327
Vtext/html; charset=UTF-8
p328
sVcomment
p329
g4
sVsize
p330
I0
ssVheaders
p331
(lp332
sVheadersSize
p333
I248
sVredirectURL
p334
g4
sVbodySize
p335
I0
sVhttpVersion
p336
VHTTP/1.1
p337
ssa(dp338
Vcomment
p339
g4
sVserverIPAddress
p340
V216.58.216.196
p341
sVpageref
p342
VDog
p343
sVstartedDateTime
p344
V2017-04-16T08:15:07.986-05:00
p345
sVcache
p346
(dp347
sVrequest
p348
(dp349
Vcomment
p350
g4
sVcookies
p351
(lp352
sVurl
p353
Vhttps://www.google.com/complete/search?client=mobile-gws-hp&hl=en&gs_rn=64&gs_ri=mobile-gws-hp&sla=1&pfq=domesticated%20turkey&gm=602&cp=0&gs_id=1&xhr=t&q=D&tch=1&ech=1&psi=Wm7zWL7gIOi0jwSMj6rwDA.1492348507772.1
p354
sVqueryString
p355
(lp356
(dp357
Vname
p358
Vclient
p359
sVvalue
p360
Vmobile-gws-hp
p361
sa(dp362
Vname
p363
Vhl
p364
sVvalue
p365
Ven
p366
sa(dp367
Vname
p368
Vgs_rn
p369
sVvalue
p370
V64
p371
sa(dp372
Vname
p373
Vgs_ri
p374
sVvalue
p375
Vmobile-gws-hp
p376
sa(dp377
Vname
p378
Vsla
p379
sVvalue
p380
g270
sa(dp381
Vname
p382
Vpfq
p383
sVvalue
p384
Vdomesticated turkey
p385
sa(dp386
Vname
p387
Vgm
p388
sVvalue
p389
V602
p390
sa(dp391
Vname
p392
Vcp
p393
sVvalue
p394
g279
sa(dp395
Vname
p396
Vgs_id
p397
sVvalue
p398
g270
sa(dp399
Vname
p400
Vxhr
p401
sVvalue
p402
Vt
p403
sa(dp404
Vname
p405
Vq
p406
sVvalue
p407
VD
p408
sa(dp409
Vname
p410
Vtch
p411
sVvalue
p412
g270
sa(dp413
Vname
p414
Vech
p415
sVvalue
p416
g270
sa(dp417
Vname
p418
Vpsi
p419
sVvalue
p420
VWm7zWL7gIOi0jwSMj6rwDA.1492348507772.1
p421
sasVheaders
p422
(lp423
sVheadersSize
p424
I739
sVbodySize
p425
I0
sVmethod
p426
VGET
p427
sVhttpVersion
p428
VHTTP/1.1
p429
ssVtimings
p430
(dp431
Vcomment
p432
g4
sVreceive
p433
I0
sVsend
p434
I0
sVssl
p435
I-1
sVconnect
p436
I-1
sVdns
p437
I-1
sVwait
p438
I0
sVblocked
p439
I-1
ssVtime
p440
I0
sVresponse
p441
(dp442
Vstatus
p443
I0
sVcomment
p444
g4
sVcookies
p445
(lp446
sV_error
p447
VNo response received
p448
sVstatusText
p449
g4
sVcontent
p450
(dp451
VmimeType
p452
g4
sVcomment
p453
g4
sVsize
p454
I0
ssVheaders
p455
(lp456
sVheadersSize
p457
I-1
sVredirectURL
p458
g4
sVbodySize
p459
I-1
sVhttpVersion
p460
Vunknown
p461
ssa(dp462
Vcomment
p463
g4
sVserverIPAddress
p464
V216.58.216.196
p465
sVpageref
p466
VDog
p467
sVstartedDateTime
p468
V2017-04-16T08:15:08.025-05:00
p469
sVcache
p470
(dp471
sVrequest
p472
(dp473
Vcomment
p474
g4
sVcookies
p475
(lp476
sVurl
p477
Vhttps://www.google.com/search?site=&source=hp&ei=Wm7zWL7gIOi0jwSMj6rwDA&q=Dog&oq=Dog&gs_l=mobile-gws-hp.3...193.200.0.227.3.1.0.0.0.0.0.0..0.0....0...1c.1.64.mobile-gws-hp..3.0.0.JffMKrEu46g
p478
sVqueryString
p479
(lp480
(dp481
Vname
p482
Vsite
p483
sVvalue
p484
g4
sa(dp485
Vname
p486
Vsource
p487
sVvalue
p488
Vhp
p489
sa(dp490
Vname
p491
Vei
p492
sVvalue
p493
VWm7zWL7gIOi0jwSMj6rwDA
p494
sa(dp495
Vname
p496
g406
sVvalue
p497
VDog
p498
sa(dp499
Vname
p500
Voq
p501
sVvalue
p502
VDog
p503
sa(dp504
Vname
p505
Vgs_l
p506
sVvalue
p507
Vmobile-gws-hp.3...193.200.0.227.3.1.0.0.0.0.0.0..0.0....0...1c.1.64.mobile-gws-hp..3.0.0.JffMKrEu46g
p508
sasVheaders
p509
(lp510
sVheadersSize
p511
I808
sVbodySize
p512
I0
sVmethod
p513
VGET
p514
sVhttpVersion
p515
VHTTP/1.1
p516
ssVtimings
p517
(dp518
Vcomment
p519
g4
sVreceive
p520
I959
sVsend
p521
I0
sVssl
p522
I-1
sVconnect
p523
I-1
sVdns
p524
I-1
sVwait
p525
I139
sVblocked
p526
I-1
ssVtime
p527
I1098
sVresponse
p528
(dp529
Vstatus
p530
I200
sVcomment
p531
g4
sVcookies
p532
(lp533
sVstatusText
p534
VOK
p535
sVcontent
p536
(dp537
VmimeType
p538
Vtext/html; charset=UTF-8
p539
sVcomment
p540
g4
sVsize
p541
I0
ssVheaders
p542
(lp543
sVheadersSize
p544
I363
sVredirectURL
p545
g4
sVbodySize
p546
I223681
sVhttpVersion
p547
VHTTP/1.1
p548
ssa(dp549
Vcomment
p550
g4
sVserverIPAddress
p551
V216.58.216.196
p552
sVpageref
p553
VDog
p554
sVstartedDateTime
p555
V2017-04-16T08:15:08.998-05:00
p556
sVcache
p557
(dp558
sVrequest
p559
(dp560
Vcomment
p561
g4
sVcookies
p562
(lp563
sVurl
p564
Vhttps://www.google.com/gen_204?atyp=i&ct=&cad=udla=1&ei=W27zWOmQAsHPjwTX2qfwAQ&b=0&act=p&ps=0&zx=1492348508992
p565
sVqueryString
p566
(lp567
(dp568
Vname
p569
Vatyp
p570
sVvalue
p571
g30
sa(dp572
Vname
p573
Vct
p574
sVvalue
p575
g4
sa(dp576
Vname
p577
Vcad
p578
sVvalue
p579
Vudla=1
p580
sa(dp581
Vname
p582
Vei
p583
sVvalue
p584
VW27zWOmQAsHPjwTX2qfwAQ
p585
sa(dp586
Vname
p587
Vb
p588
sVvalue
p589
g279
sa(dp590
Vname
p591
Vact
p592
sVvalue
p593
Vp
p594
sa(dp595
Vname
p596
Vps
p597
sVvalue
p598
g279
sa(dp599
Vname
p600
Vzx
p601
sVvalue
p602
V1492348508992
p603
sasVheaders
p604
(lp605
sVheadersSize
p606
I627
sVbodySize
p607
I0
sVmethod
p608
VGET
p609
sVhttpVersion
p610
VHTTP/1.1
p611
ssVtimings
p612
(dp613
Vcomment
p614
g4
sVreceive
p615
I0
sVsend
p616
I0
sVssl
p617
I-1
sVconnect
p618
I-1
sVdns
p619
I-1
sVwait
p620
I29
sVblocked
p621
I-1
ssVtime
p622
I29
sVresponse
p623
(dp624
Vstatus
p625
I204
sVcomment
p626
g4
sVcookies
p627
(lp628
sVstatusText
p629
VNo Content
p630
sVcontent
p631
(dp632
VmimeType
p633
Vtext/html; charset=UTF-8
p634
sVcomment
p635
g4
sVsize
p636
I0
ssVheaders
p637
(lp638
sVheadersSize
p639
I248
sVredirectURL
p640
g4
sVbodySize
p641
I0
sVhttpVersion
p642
VHTTP/1.1
p643
ssa(dp644
Vcomment
p645
g4
sVserverIPAddress
p646
V216.58.216.196
p647
sVpageref
p648
VDog
p649
sVstartedDateTime
p650
V2017-04-16T08:15:09.710-05:00
p651
sVcache
p652
(dp653
sVrequest
p654
(dp655
Vcomment
p656
g4
sVcookies
p657
(lp658
sVurl
p659
Vhttps://www.google.com/xjs/_/js/k=xjs.qs.en_US.pCBXVCvTH3s.O/m=syl,syj,syn,em3,em8,em6,em7,sym,aa,abd,sy2g,sy2k,sy29,sy2j,sy2d,sy2a,sy2c,sy2f,sy2l,sy2m,sy2n,emd,async,sybn,sybi,sybo,sy1f,sy45,sy46,sy9w,sybk,sybj,sybp,sy1g,sy30,sy47,sybm,sybl,sybq,sy1h,sybh,dvl,syep,foot,ipv6,sy32,emj,shm,sy5g,sy5i,sy5k,sykh,tl,sy2x,sy2y,sy2t,sy38,em12,vs,sy5j,sy5h,sy6u,sy66,sy67,sy7d,sy7j,sy4u,sy69,sy89,sy7e,sykk,sykl,tnv,bct,sy1y,sy23,sy2u,sy22,sy6i,sy34,sy31,sy6j,sy25,sy6l,sy6k,sy6h,emb,em9,ema,sy6m,qkx,sy4d,sy4f,sy4c,sy4e,sy24,sy4b,sy6w,shrb,sy4g,syd7,dgm,syf5,syf6,syf8,sygb,syg9,kptm,sy99,syf4,sy26,syfc,syfn,syf7,syff,sy1i,sy68,sy8d,sy9b,syfl,syfr,syfq,syfg,sy1j,sy4q,sy5o,sy5r,sy6n,sy6p,sy8h,syc7,syc8,syfb,syfj,syfs,syft,syg3,syg5,syg7,emn,emo,syg4,syg6,ivg,sy9m,syac,sy9n,syhz,syl6,ssc,iuci,img,sy41,tcc,sygq,kpc,kpci,sy4h,vrml,sy6y,sycu,d3l,sya3,sya2,sy72,sya4,sykr,strm,syh6,syl5,kac,kae,strx,sy5u,sy5t,sy33,sy2w,sy2z,sy7l,sy4v,sy6z,sy4l,sy37,sy2r,sy35,sy6q,sy7t,sy50,sy71,sy7f,sy7o,syah,syai,syak,syal,alc,sy1r,syaj,flum,sy3x,sy3w,syav,syaw,syb0,sy2o,syb1,syaz,syao,sy2v,sy36,sy3z,syau,syb2,syb3,syay,syax,sy8x,syag,syb7,sy2i,syam,syaq,syat,syb4,syb5,syb6,sybc,sybg,lrl,lcm,mexp,sy48,sy3a,sy3c,sy5b,sy4x,sybd,sybe,sybt,sy2p,sy56,sybf,sybr,sybs,mlm,sy4z,sy4y,sy5d,sy5e,llmr,akpc,gldm,flpm,sy5a,syan,syap,flmm,rltl,syi0,cpn,sy7y,sy7u,sy7w,sy87,sy7p,sy81,sy7q,sy7s,sy7z,sy82,sy85,sy83,sy5n,syas,syb8,syba,sybb,inf,sy5x,qif,rliv,skp,llmu,sy5z,atn,sy4i,sya1,ampfp/am=gCP4LtMEBXQA2RUaq_oFBISzAFA/rt=j/d=0/t=zcms/rs=ACT90oFwm4NZCwIcuuiqmthdlECdBzkhRA
p660
sVqueryString
p661
(lp662
sVheaders
p663
(lp664
sVheadersSize
p665
I2061
sVbodySize
p666
I0
sVmethod
p667
VGET
p668
sVhttpVersion
p669
VHTTP/1.1
p670
ssVtimings
p671
(dp672
Vcomment
p673
g4
sVreceive
p674
I53
sVsend
p675
I0
sVssl
p676
I-1
sVconnect
p677
I-1
sVdns
p678
I-1
sVwait
p679
I105
sVblocked
p680
I-1
ssVtime
p681
I159
sVresponse
p682
(dp683
Vstatus
p684
I200
sVcomment
p685
g4
sVcookies
p686
(lp687
sVstatusText
p688
VOK
p689
sVcontent
p690
(dp691
VmimeType
p692
Vtext/javascript; charset=UTF-8
p693
sVcomment
p694
g4
sVsize
p695
I0
ssVheaders
p696
(lp697
sVheadersSize
p698
I452
sVredirectURL
p699
g4
sVbodySize
p700
I203693
sVhttpVersion
p701
VHTTP/1.1
p702
ssa(dp703
Vcomment
p704
g4
sVserverIPAddress
p705
V216.58.216.196
p706
sVpageref
p707
VDog
p708
sVstartedDateTime
p709
V2017-04-16T08:15:10.101-05:00
p710
sVcache
p711
(dp712
sVrequest
p713
(dp714
Vcomment
p715
g4
sVcookies
p716
(lp717
sVurl
p718
Vhttps://www.google.com/async/irc?vet=10ahUKEwipqpK1h6nTAhXB54MKHVftCR4Qo0EI0wI..i&ved=0ahUKEwipqpK1h6nTAhXB54MKHVftCR4Qo0EI0wI&ei=W27zWOmQAsHPjwTX2qfwAQ&yv=2&async=iu:1,ved:0ahUKEwipqpK1h6nTAhXB54MKHVftCR4Qo0EI0wI,_id:irc_async,_pms:qs
p719
sVqueryString
p720
(lp721
(dp722
Vname
p723
Vvet
p724
sVvalue
p725
V10ahUKEwipqpK1h6nTAhXB54MKHVftCR4Qo0EI0wI..i
p726
sa(dp727
Vname
p728
Vved
p729
sVvalue
p730
V0ahUKEwipqpK1h6nTAhXB54MKHVftCR4Qo0EI0wI
p731
sa(dp732
Vname
p733
Vei
p734
sVvalue
p735
VW27zWOmQAsHPjwTX2qfwAQ
p736
sa(dp737
Vname
p738
Vyv
p739
sVvalue
p740
g49
sa(dp741
Vname
p742
Vasync
p743
sVvalue
p744
Viu:1,ved:0ahUKEwipqpK1h6nTAhXB54MKHVftCR4Qo0EI0wI,_id:irc_async,_pms:qs
p745
sasVheaders
p746
(lp747
sVheadersSize
p748
I752
sVbodySize
p749
I0
sVmethod
p750
VGET
p751
sVhttpVersion
p752
VHTTP/1.1
p753
ssVtimings
p754
(dp755
Vcomment
p756
g4
sVreceive
p757
I0
sVsend
p758
I0
sVssl
p759
I-1
sVconnect
p760
I-1
sVdns
p761
I-1
sVwait
p762
I70
sVblocked
p763
I-1
ssVtime
p764
I70
sVresponse
p765
(dp766
Vstatus
p767
I200
sVcomment
p768
g4
sVcookies
p769
(lp770
sVstatusText
p771
VOK
p772
sVcontent
p773
(dp774
VmimeType
p775
Vtext/html; charset=UTF-8
p776
sVcomment
p777
g4
sVsize
p778
I0
ssVheaders
p779
(lp780
sVheadersSize
p781
I383
sVredirectURL
p782
g4
sVbodySize
p783
I7795
sVhttpVersion
p784
VHTTP/1.1
p785
ssa(dp786
Vcomment
p787
g4
sVserverIPAddress
p788
V216.58.216.196
p789
sVpageref
p790
VDog
p791
sVstartedDateTime
p792
V2017-04-16T08:15:10.113-05:00
p793
sVcache
p794
(dp795
sVrequest
p796
(dp797
Vcomment
p798
g4
sVcookies
p799
(lp800
sVurl
p801
Vhttps://www.google.com/gen_204?atyp=i&ct=&cad=&vet=10ahUKEwipqpK1h6nTAhXB54MKHVftCR4Q5W0IMygC..s&ei=W27zWOmQAsHPjwTX2qfwAQ&zx=1492348510112
p802
sVqueryString
p803
(lp804
(dp805
Vname
p806
Vatyp
p807
sVvalue
p808
g30
sa(dp809
Vname
p810
Vct
p811
sVvalue
p812
g4
sa(dp813
Vname
p814
Vcad
p815
sVvalue
p816
g4
sa(dp817
Vname
p818
Vvet
p819
sVvalue
p820
V10ahUKEwipqpK1h6nTAhXB54MKHVftCR4Q5W0IMygC..s
p821
sa(dp822
Vname
p823
Vei
p824
sVvalue
p825
VW27zWOmQAsHPjwTX2qfwAQ
p826
sa(dp827
Vname
p828
Vzx
p829
sVvalue
p830
V1492348510112
p831
sasVheaders
p832
(lp833
sVheadersSize
p834
I656
sVbodySize
p835
I0
sVmethod
p836
VGET
p837
sVhttpVersion
p838
VHTTP/1.1
p839
ssVtimings
p840
(dp841
Vcomment
p842
g4
sVreceive
p843
I0
sVsend
p844
I0
sVssl
p845
I-1
sVconnect
p846
I-1
sVdns
p847
I-1
sVwait
p848
I41
sVblocked
p849
I-1
ssVtime
p850
I41
sVresponse
p851
(dp852
Vstatus
p853
I204
sVcomment
p854
g4
sVcookies
p855
(lp856
sVstatusText
p857
VNo Content
p858
sVcontent
p859
(dp860
VmimeType
p861
Vtext/html; charset=UTF-8
p862
sVcomment
p863
g4
sVsize
p864
I0
ssVheaders
p865
(lp866
sVheadersSize
p867
I248
sVredirectURL
p868
g4
sVbodySize
p869
I0
sVhttpVersion
p870
VHTTP/1.1
p871
ssa(dp872
Vcomment
p873
g4
sVserverIPAddress
p874
V216.58.216.196
p875
sVpageref
p876
VDog
p877
sVstartedDateTime
p878
V2017-04-16T08:15:10.116-05:00
p879
sVcache
p880
(dp881
sVrequest
p882
(dp883
Vcomment
p884
g4
sVcookies
p885
(lp886
sVurl
p887
Vhttps://www.google.com/gen_204?atyp=i&ct=&cad=&vet=10ahUKEwipqpK1h6nTAhXB54MKHVftCR4Q5W0INigD..s&ei=W27zWOmQAsHPjwTX2qfwAQ&zx=1492348510115
p888
sVqueryString
p889
(lp890
(dp891
Vname
p892
Vatyp
p893
sVvalue
p894
g30
sa(dp895
Vname
p896
Vct
p897
sVvalue
p898
g4
sa(dp899
Vname
p900
Vcad
p901
sVvalue
p902
g4
sa(dp903
Vname
p904
Vvet
p905
sVvalue
p906
V10ahUKEwipqpK1h6nTAhXB54MKHVftCR4Q5W0INigD..s
p907
sa(dp908
Vname
p909
Vei
p910
sVvalue
p911
VW27zWOmQAsHPjwTX2qfwAQ
p912
sa(dp913
Vname
p914
Vzx
p915
sVvalue
p916
V1492348510115
p917
sasVheaders
p918
(lp919
sVheadersSize
p920
I656
sVbodySize
p921
I0
sVmethod
p922
VGET
p923
sVhttpVersion
p924
VHTTP/1.1
p925
ssVtimings
p926
(dp927
Vcomment
p928
g4
sVreceive
p929
I0
sVsend
p930
I0
sVssl
p931
I-1
sVconnect
p932
I-1
sVdns
p933
I-1
sVwait
p934
I39
sVblocked
p935
I-1
ssVtime
p936
I39
sVresponse
p937
(dp938
Vstatus
p939
I204
sVcomment
p940
g4
sVcookies
p941
(lp942
sVstatusText
p943
VNo Content
p944
sVcontent
p945
(dp946
VmimeType
p947
Vtext/html; charset=UTF-8
p948
sVcomment
p949
g4
sVsize
p950
I0
ssVheaders
p951
(lp952
sVheadersSize
p953
I248
sVredirectURL
p954
g4
sVbodySize
p955
I0
sVhttpVersion
p956
VHTTP/1.1
p957
ssa(dp958
Vcomment
p959
g4
sVserverIPAddress
p960
V216.58.216.196
p961
sVpageref
p962
VDog
p963
sVstartedDateTime
p964
V2017-04-16T08:15:10.118-05:00
p965
sVcache
p966
(dp967
sVrequest
p968
(dp969
Vcomment
p970
g4
sVcookies
p971
(lp972
sVurl
p973
Vhttps://www.google.com/gen_204?atyp=i&ct=&cad=&vet=10ahUKEwipqpK1h6nTAhXB54MKHVftCR4Q5W0IOSgE..s&ei=W27zWOmQAsHPjwTX2qfwAQ&zx=1492348510117
p974
sVqueryString
p975
(lp976
(dp977
Vname
p978
Vatyp
p979
sVvalue
p980
g30
sa(dp981
Vname
p982
Vct
p983
sVvalue
p984
g4
sa(dp985
Vname
p986
Vcad
p987
sVvalue
p988
g4
sa(dp989
Vname
p990
Vvet
p991
sVvalue
p992
V10ahUKEwipqpK1h6nTAhXB54MKHVftCR4Q5W0IOSgE..s
p993
sa(dp994
Vname
p995
Vei
p996
sVvalue
p997
VW27zWOmQAsHPjwTX2qfwAQ
p998
sa(dp999
Vname
p1000
Vzx
p1001
sVvalue
p1002
V1492348510117
p1003
sasVheaders
p1004
(lp1005
sVheadersSize
p1006
I656
sVbodySize
p1007
I0
sVmethod
p1008
VGET
p1009
sVhttpVersion
p1010
VHTTP/1.1
p1011
ssVtimings
p1012
(dp1013
Vcomment
p1014
g4
sVreceive
p1015
I0
sVsend
p1016
I0
sVssl
p1017
I-1
sVconnect
p1018
I-1
sVdns
p1019
I-1
sVwait
p1020
I37
sVblocked
p1021
I-1
ssVtime
p1022
I37
sVresponse
p1023
(dp1024
Vstatus
p1025
I204
sVcomment
p1026
g4
sVcookies
p1027
(lp1028
sVstatusText
p1029
VNo Content
p1030
sVcontent
p1031
(dp1032
VmimeType
p1033
Vtext/html; charset=UTF-8
p1034
sVcomment
p1035
g4
sVsize
p1036
I0
ssVheaders
p1037
(lp1038
sVheadersSize
p1039
I248
sVredirectURL
p1040
g4
sVbodySize
p1041
I0
sVhttpVersion
p1042
VHTTP/1.1
p1043
ssa(dp1044
Vcomment
p1045
g4
sVserverIPAddress
p1046
V216.58.217.14
p1047
sVpageref
p1048
VDog
p1049
sVstartedDateTime
p1050
V2017-04-16T08:15:10.146-05:00
p1051
sVcache
p1052
(dp1053
sVrequest
p1054
(dp1055
Vcomment
p1056
g4
sVcookies
p1057
(lp1058
sVurl
p1059
Vhttps://encrypted-tbn3.gstatic.com/images?q=tbn:ANd9GcTL5yygp2xFTl1s8c6fUUSFOeGBqSTw_-h6mZr3m55K5R536dfiCfE2dLUi_w0jLaqEGYQ
p1060
sVqueryString
p1061
(lp1062
(dp1063
Vname
p1064
g406
sVvalue
p1065
Vtbn:ANd9GcTL5yygp2xFTl1s8c6fUUSFOeGBqSTw_-h6mZr3m55K5R536dfiCfE2dLUi_w0jLaqEGYQ
p1066
sasVheaders
p1067
(lp1068
sVheadersSize
p1069
I438
sVbodySize
p1070
I0
sVmethod
p1071
VGET
p1072
sVhttpVersion
p1073
VHTTP/1.1
p1074
ssVtimings
p1075
(dp1076
Vcomment
p1077
g4
sVreceive
p1078
I0
sVsend
p1079
I0
sVssl
p1080
I-1
sVconnect
p1081
I-1
sVdns
p1082
I-1
sVwait
p1083
I24
sVblocked
p1084
I-1
ssVtime
p1085
I24
sVresponse
p1086
(dp1087
Vstatus
p1088
I200
sVcomment
p1089
g4
sVcookies
p1090
(lp1091
sVstatusText
p1092
VOK
p1093
sVcontent
p1094
(dp1095
VmimeType
p1096
Vimage/jpeg
p1097
sVcomment
p1098
g4
sVsize
p1099
I0
ssVheaders
p1100
(lp1101
sVheadersSize
p1102
I429
sVredirectURL
p1103
g4
sVbodySize
p1104
I4092
sVhttpVersion
p1105
VHTTP/1.1
p1106
ssa(dp1107
Vcomment
p1108
g4
sVserverIPAddress
p1109
V216.58.216.206
p1110
sVpageref
p1111
VDog
p1112
sVstartedDateTime
p1113
V2017-04-16T08:15:10.148-05:00
p1114
sVcache
p1115
(dp1116
sVrequest
p1117
(dp1118
Vcomment
p1119
g4
sVcookies
p1120
(lp1121
sVurl
p1122
Vhttps://encrypted-tbn0.gstatic.com/images?q=tbn:ANd9GcSBm70-JhBwEAKVeEpkT32bvVF0SBOML06YdAJUCnNz2tfFGSwU3cQUbcTsOzWQzsbkZ3I
p1123
sVqueryString
p1124
(lp1125
(dp1126
Vname
p1127
g406
sVvalue
p1128
Vtbn:ANd9GcSBm70-JhBwEAKVeEpkT32bvVF0SBOML06YdAJUCnNz2tfFGSwU3cQUbcTsOzWQzsbkZ3I
p1129
sasVheaders
p1130
(lp1131
sVheadersSize
p1132
I438
sVbodySize
p1133
I0
sVmethod
p1134
VGET
p1135
sVhttpVersion
p1136
VHTTP/1.1
p1137
ssVtimings
p1138
(dp1139
Vcomment
p1140
g4
sVreceive
p1141
I3
sVsend
p1142
I0
sVssl
p1143
I-1
sVconnect
p1144
I-1
sVdns
p1145
I-1
sVwait
p1146
I19
sVblocked
p1147
I-1
ssVtime
p1148
I23
sVresponse
p1149
(dp1150
Vstatus
p1151
I200
sVcomment
p1152
g4
sVcookies
p1153
(lp1154
sVstatusText
p1155
VOK
p1156
sVcontent
p1157
(dp1158
VmimeType
p1159
Vimage/jpeg
p1160
sVcomment
p1161
g4
sVsize
p1162
I0
ssVheaders
p1163
(lp1164
sVheadersSize
p1165
I429
sVredirectURL
p1166
g4
sVbodySize
p1167
I2206
sVhttpVersion
p1168
VHTTP/1.1
p1169
ssa(dp1170
Vcomment
p1171
g4
sVserverIPAddress
p1172
V216.58.217.14
p1173
sVpageref
p1174
VDog
p1175
sVstartedDateTime
p1176
V2017-04-16T08:15:10.149-05:00
p1177
sVcache
p1178
(dp1179
sVrequest
p1180
(dp1181
Vcomment
p1182
g4
sVcookies
p1183
(lp1184
sVurl
p1185
Vhttps://encrypted-tbn3.gstatic.com/images?q=tbn:ANd9GcSdCZOnBZfEH8w2KOB6-zmivls3vYhArGPm6FzvB85NUJRviGnfBb6EuhOcLxGiFuVOw0Y
p1186
sVqueryString
p1187
(lp1188
(dp1189
Vname
p1190
g406
sVvalue
p1191
Vtbn:ANd9GcSdCZOnBZfEH8w2KOB6-zmivls3vYhArGPm6FzvB85NUJRviGnfBb6EuhOcLxGiFuVOw0Y
p1192
sasVheaders
p1193
(lp1194
sVheadersSize
p1195
I438
sVbodySize
p1196
I0
sVmethod
p1197
VGET
p1198
sVhttpVersion
p1199
VHTTP/1.1
p1200
ssVtimings
p1201
(dp1202
Vcomment
p1203
g4
sVreceive
p1204
I2
sVsend
p1205
I0
sVssl
p1206
I-1
sVconnect
p1207
I-1
sVdns
p1208
I-1
sVwait
p1209
I49
sVblocked
p1210
I-1
ssVtime
p1211
I52
sVresponse
p1212
(dp1213
Vstatus
p1214
I200
sVcomment
p1215
g4
sVcookies
p1216
(lp1217
sVstatusText
p1218
VOK
p1219
sVcontent
p1220
(dp1221
VmimeType
p1222
Vimage/jpeg
p1223
sVcomment
p1224
g4
sVsize
p1225
I0
ssVheaders
p1226
(lp1227
sVheadersSize
p1228
I407
sVredirectURL
p1229
g4
sVbodySize
p1230
I3878
sVhttpVersion
p1231
VHTTP/1.1
p1232
ssa(dp1233
Vcomment
p1234
g4
sVserverIPAddress
p1235
V216.58.216.206
p1236
sVpageref
p1237
VDog
p1238
sVstartedDateTime
p1239
V2017-04-16T08:15:10.151-05:00
p1240
sVcache
p1241
(dp1242
sVrequest
p1243
(dp1244
Vcomment
p1245
g4
sVcookies
p1246
(lp1247
sVurl
p1248
Vhttps://encrypted-tbn0.gstatic.com/images?q=tbn:ANd9GcQGwPRTVpTtbiAQlJZmE20g8WYWh3fse4E4Fwh4KewEhrIjMnO_ZdzJzD8EjEOTX_g4FBM
p1249
sVqueryString
p1250
(lp1251
(dp1252
Vname
p1253
g406
sVvalue
p1254
Vtbn:ANd9GcQGwPRTVpTtbiAQlJZmE20g8WYWh3fse4E4Fwh4KewEhrIjMnO_ZdzJzD8EjEOTX_g4FBM
p1255
sasVheaders
p1256
(lp1257
sVheadersSize
p1258
I438
sVbodySize
p1259
I0
sVmethod
p1260
VGET
p1261
sVhttpVersion
p1262
VHTTP/1.1
p1263
ssVtimings
p1264
(dp1265
Vcomment
p1266
g4
sVreceive
p1267
I1
sVsend
p1268
I0
sVssl
p1269
I-1
sVconnect
p1270
I-1
sVdns
p1271
I-1
sVwait
p1272
I25
sVblocked
p1273
I-1
ssVtime
p1274
I27
sVresponse
p1275
(dp1276
Vstatus
p1277
I200
sVcomment
p1278
g4
sVcookies
p1279
(lp1280
sVstatusText
p1281
VOK
p1282
sVcontent
p1283
(dp1284
VmimeType
p1285
Vimage/jpeg
p1286
sVcomment
p1287
g4
sVsize
p1288
I0
ssVheaders
p1289
(lp1290
sVheadersSize
p1291
I428
sVredirectURL
p1292
g4
sVbodySize
p1293
I4040
sVhttpVersion
p1294
VHTTP/1.1
p1295
ssa(dp1296
Vcomment
p1297
g4
sVserverIPAddress
p1298
V216.58.216.196
p1299
sVpageref
p1300
VDog
p1301
sVstartedDateTime
p1302
V2017-04-16T08:15:10.157-05:00
p1303
sVcache
p1304
(dp1305
sVrequest
p1306
(dp1307
Vcomment
p1308
g4
sVcookies
p1309
(lp1310
sVurl
p1311
Vhttps://www.google.com/gen_204?atyp=i&ct=&cad=&vet=10ahUKEwipqpK1h6nTAhXB54MKHVftCR4QtxAIbigDMBQ..s&ei=W27zWOmQAsHPjwTX2qfwAQ&zx=1492348510146
p1312
sVqueryString
p1313
(lp1314
(dp1315
Vname
p1316
Vatyp
p1317
sVvalue
p1318
g30
sa(dp1319
Vname
p1320
Vct
p1321
sVvalue
p1322
g4
sa(dp1323
Vname
p1324
Vcad
p1325
sVvalue
p1326
g4
sa(dp1327
Vname
p1328
Vvet
p1329
sVvalue
p1330
V10ahUKEwipqpK1h6nTAhXB54MKHVftCR4QtxAIbigDMBQ..s
p1331
sa(dp1332
Vname
p1333
Vei
p1334
sVvalue
p1335
VW27zWOmQAsHPjwTX2qfwAQ
p1336
sa(dp1337
Vname
p1338
Vzx
p1339
sVvalue
p1340
V1492348510146
p1341
sasVheaders
p1342
(lp1343
sVheadersSize
p1344
I659
sVbodySize
p1345
I0
sVmethod
p1346
VGET
p1347
sVhttpVersion
p1348
VHTTP/1.1
p1349
ssVtimings
p1350
(dp1351
Vcomment
p1352
g4
sVreceive
p1353
I0
sVsend
p1354
I0
sVssl
p1355
I-1
sVconnect
p1356
I-1
sVdns
p1357
I-1
sVwait
p1358
I41
sVblocked
p1359
I-1
ssVtime
p1360
I41
sVresponse
p1361
(dp1362
Vstatus
p1363
I204
sVcomment
p1364
g4
sVcookies
p1365
(lp1366
sVstatusText
p1367
VNo Content
p1368
sVcontent
p1369
(dp1370
VmimeType
p1371
Vtext/html; charset=UTF-8
p1372
sVcomment
p1373
g4
sVsize
p1374
I0
ssVheaders
p1375
(lp1376
sVheadersSize
p1377
I248
sVredirectURL
p1378
g4
sVbodySize
p1379
I0
sVhttpVersion
p1380
VHTTP/1.1
p1381
ssa(dp1382
Vcomment
p1383
g4
sVserverIPAddress
p1384
V216.58.216.196
p1385
sVpageref
p1386
VDog
p1387
sVstartedDateTime
p1388
V2017-04-16T08:15:10.157-05:00
p1389
sVcache
p1390
(dp1391
sVrequest
p1392
(dp1393
Vcomment
p1394
g4
sVcookies
p1395
(lp1396
sVurl
p1397
Vhttps://www.google.com/gen_204?atyp=i&ct=&cad=&vet=10ahUKEwipqpK1h6nTAhXB54MKHVftCR4QtxAIcCgEMBQ..s&ei=W27zWOmQAsHPjwTX2qfwAQ&zx=1492348510148
p1398
sVqueryString
p1399
(lp1400
(dp1401
Vname
p1402
Vatyp
p1403
sVvalue
p1404
g30
sa(dp1405
Vname
p1406
Vct
p1407
sVvalue
p1408
g4
sa(dp1409
Vname
p1410
Vcad
p1411
sVvalue
p1412
g4
sa(dp1413
Vname
p1414
Vvet
p1415
sVvalue
p1416
V10ahUKEwipqpK1h6nTAhXB54MKHVftCR4QtxAIcCgEMBQ..s
p1417
sa(dp1418
Vname
p1419
Vei
p1420
sVvalue
p1421
VW27zWOmQAsHPjwTX2qfwAQ
p1422
sa(dp1423
Vname
p1424
Vzx
p1425
sVvalue
p1426
V1492348510148
p1427
sasVheaders
p1428
(lp1429
sVheadersSize
p1430
I659
sVbodySize
p1431
I0
sVmethod
p1432
VGET
p1433
sVhttpVersion
p1434
VHTTP/1.1
p1435
ssVtimings
p1436
(dp1437
Vcomment
p1438
g4
sVreceive
p1439
I0
sVsend
p1440
I0
sVssl
p1441
I-1
sVconnect
p1442
I-1
sVdns
p1443
I-1
sVwait
p1444
I31
sVblocked
p1445
I-1
ssVtime
p1446
I31
sVresponse
p1447
(dp1448
Vstatus
p1449
I204
sVcomment
p1450
g4
sVcookies
p1451
(lp1452
sVstatusText
p1453
VNo Content
p1454
sVcontent
p1455
(dp1456
VmimeType
p1457
Vtext/html; charset=UTF-8
p1458
sVcomment
p1459
g4
sVsize
p1460
I0
ssVheaders
p1461
(lp1462
sVheadersSize
p1463
I248
sVredirectURL
p1464
g4
sVbodySize
p1465
I0
sVhttpVersion
p1466
VHTTP/1.1
p1467
ssa(dp1468
Vcomment
p1469
g4
sVserverIPAddress
p1470
V216.58.216.196
p1471
sVpageref
p1472
VDog
p1473
sVstartedDateTime
p1474
V2017-04-16T08:15:10.157-05:00
p1475
sVcache
p1476
(dp1477
sVrequest
p1478
(dp1479
Vcomment
p1480
g4
sVcookies
p1481
(lp1482
sVurl
p1483
Vhttps://www.google.com/gen_204?atyp=i&ct=&cad=&vet=10ahUKEwipqpK1h6nTAhXB54MKHVftCR4QtxAIcigFMBQ..s&ei=W27zWOmQAsHPjwTX2qfwAQ&zx=1492348510149
p1484
sVqueryString
p1485
(lp1486
(dp1487
Vname
p1488
Vatyp
p1489
sVvalue
p1490
g30
sa(dp1491
Vname
p1492
Vct
p1493
sVvalue
p1494
g4
sa(dp1495
Vname
p1496
Vcad
p1497
sVvalue
p1498
g4
sa(dp1499
Vname
p1500
Vvet
p1501
sVvalue
p1502
V10ahUKEwipqpK1h6nTAhXB54MKHVftCR4QtxAIcigFMBQ..s
p1503
sa(dp1504
Vname
p1505
Vei
p1506
sVvalue
p1507
VW27zWOmQAsHPjwTX2qfwAQ
p1508
sa(dp1509
Vname
p1510
Vzx
p1511
sVvalue
p1512
V1492348510149
p1513
sasVheaders
p1514
(lp1515
sVheadersSize
p1516
I659
sVbodySize
p1517
I0
sVmethod
p1518
VGET
p1519
sVhttpVersion
p1520
VHTTP/1.1
p1521
ssVtimings
p1522
(dp1523
Vcomment
p1524
g4
sVreceive
p1525
I0
sVsend
p1526
I0
sVssl
p1527
I-1
sVconnect
p1528
I-1
sVdns
p1529
I-1
sVwait
p1530
I40
sVblocked
p1531
I-1
ssVtime
p1532
I40
sVresponse
p1533
(dp1534
Vstatus
p1535
I204
sVcomment
p1536
g4
sVcookies
p1537
(lp1538
sVstatusText
p1539
VNo Content
p1540
sVcontent
p1541
(dp1542
VmimeType
p1543
Vtext/html; charset=UTF-8
p1544
sVcomment
p1545
g4
sVsize
p1546
I0
ssVheaders
p1547
(lp1548
sVheadersSize
p1549
I248
sVredirectURL
p1550
g4
sVbodySize
p1551
I0
sVhttpVersion
p1552
VHTTP/1.1
p1553
ssa(dp1554
Vcomment
p1555
g4
sVserverIPAddress
p1556
V216.58.216.196
p1557
sVpageref
p1558
VDog
p1559
sVstartedDateTime
p1560
V2017-04-16T08:15:10.165-05:00
p1561
sVcache
p1562
(dp1563
sVrequest
p1564
(dp1565
Vcomment
p1566
g4
sVcookies
p1567
(lp1568
sVurl
p1569
Vhttps://www.google.com/gen_204?atyp=i&ct=&cad=&vet=10ahUKEwipqpK1h6nTAhXB54MKHVftCR4Q5W0IPCgF..s&ei=W27zWOmQAsHPjwTX2qfwAQ&zx=1492348510119
p1570
sVqueryString
p1571
(lp1572
(dp1573
Vname
p1574
Vatyp
p1575
sVvalue
p1576
g30
sa(dp1577
Vname
p1578
Vct
p1579
sVvalue
p1580
g4
sa(dp1581
Vname
p1582
Vcad
p1583
sVvalue
p1584
g4
sa(dp1585
Vname
p1586
Vvet
p1587
sVvalue
p1588
V10ahUKEwipqpK1h6nTAhXB54MKHVftCR4Q5W0IPCgF..s
p1589
sa(dp1590
Vname
p1591
Vei
p1592
sVvalue
p1593
VW27zWOmQAsHPjwTX2qfwAQ
p1594
sa(dp1595
Vname
p1596
Vzx
p1597
sVvalue
p1598
V1492348510119
p1599
sasVheaders
p1600
(lp1601
sVheadersSize
p1602
I656
sVbodySize
p1603
I0
sVmethod
p1604
VGET
p1605
sVhttpVersion
p1606
VHTTP/1.1
p1607
ssVtimings
p1608
(dp1609
Vcomment
p1610
g4
sVreceive
p1611
I0
sVsend
p1612
I0
sVssl
p1613
I22
sVconnect
p1614
I41
sVdns
p1615
I0
sVwait
p1616
I41
sVblocked
p1617
I0
ssVtime
p1618
I83
sVresponse
p1619
(dp1620
Vstatus
p1621
I204
sVcomment
p1622
g4
sVcookies
p1623
(lp1624
sVstatusText
p1625
VNo Content
p1626
sVcontent
p1627
(dp1628
VmimeType
p1629
Vtext/html; charset=UTF-8
p1630
sVcomment
p1631
g4
sVsize
p1632
I0
ssVheaders
p1633
(lp1634
sVheadersSize
p1635
I248
sVredirectURL
p1636
g4
sVbodySize
p1637
I0
sVhttpVersion
p1638
VHTTP/1.1
p1639
ssa(dp1640
Vcomment
p1641
g4
sVserverIPAddress
p1642
V216.58.216.196
p1643
sVpageref
p1644
VDog
p1645
sVstartedDateTime
p1646
V2017-04-16T08:15:10.165-05:00
p1647
sVcache
p1648
(dp1649
sVrequest
p1650
(dp1651
Vcomment
p1652
g4
sVcookies
p1653
(lp1654
sVurl
p1655
Vhttps://www.google.com/gen_204?atyp=i&ct=&cad=&vet=10ahUKEwipqpK1h6nTAhXB54MKHVftCR4Q5W0IPygG..s&ei=W27zWOmQAsHPjwTX2qfwAQ&zx=1492348510122
p1656
sVqueryString
p1657
(lp1658
(dp1659
Vname
p1660
Vatyp
p1661
sVvalue
p1662
g30
sa(dp1663
Vname
p1664
Vct
p1665
sVvalue
p1666
g4
sa(dp1667
Vname
p1668
Vcad
p1669
sVvalue
p1670
g4
sa(dp1671
Vname
p1672
Vvet
p1673
sVvalue
p1674
V10ahUKEwipqpK1h6nTAhXB54MKHVftCR4Q5W0IPygG..s
p1675
sa(dp1676
Vname
p1677
Vei
p1678
sVvalue
p1679
VW27zWOmQAsHPjwTX2qfwAQ
p1680
sa(dp1681
Vname
p1682
Vzx
p1683
sVvalue
p1684
V1492348510122
p1685
sasVheaders
p1686
(lp1687
sVheadersSize
p1688
I656
sVbodySize
p1689
I0
sVmethod
p1690
VGET
p1691
sVhttpVersion
p1692
VHTTP/1.1
p1693
ssVtimings
p1694
(dp1695
Vcomment
p1696
g4
sVreceive
p1697
I0
sVsend
p1698
I0
sVssl
p1699
I22
sVconnect
p1700
I40
sVdns
p1701
I0
sVwait
p1702
I40
sVblocked
p1703
I0
ssVtime
p1704
I81
sVresponse
p1705
(dp1706
Vstatus
p1707
I204
sVcomment
p1708
g4
sVcookies
p1709
(lp1710
sVstatusText
p1711
VNo Content
p1712
sVcontent
p1713
(dp1714
VmimeType
p1715
Vtext/html; charset=UTF-8
p1716
sVcomment
p1717
g4
sVsize
p1718
I0
ssVheaders
p1719
(lp1720
sVheadersSize
p1721
I248
sVredirectURL
p1722
g4
sVbodySize
p1723
I0
sVhttpVersion
p1724
VHTTP/1.1
p1725
ssa(dp1726
Vcomment
p1727
g4
sVserverIPAddress
p1728
V216.58.216.196
p1729
sVpageref
p1730
VDog
p1731
sVstartedDateTime
p1732
V2017-04-16T08:15:10.175-05:00
p1733
sVcache
p1734
(dp1735
sVrequest
p1736
(dp1737
Vcomment
p1738
g4
sVcookies
p1739
(lp1740
sVurl
p1741
Vhttps://www.google.com/gen_204?atyp=i&ct=&cad=&vet=10ahUKEwipqpK1h6nTAhXB54MKHVftCR4QtxAIdCgGMBQ..s&ei=W27zWOmQAsHPjwTX2qfwAQ&zx=1492348510155
p1742
sVqueryString
p1743
(lp1744
(dp1745
Vname
p1746
Vatyp
p1747
sVvalue
p1748
g30
sa(dp1749
Vname
p1750
Vct
p1751
sVvalue
p1752
g4
sa(dp1753
Vname
p1754
Vcad
p1755
sVvalue
p1756
g4
sa(dp1757
Vname
p1758
Vvet
p1759
sVvalue
p1760
V10ahUKEwipqpK1h6nTAhXB54MKHVftCR4QtxAIdCgGMBQ..s
p1761
sa(dp1762
Vname
p1763
Vei
p1764
sVvalue
p1765
VW27zWOmQAsHPjwTX2qfwAQ
p1766
sa(dp1767
Vname
p1768
Vzx
p1769
sVvalue
p1770
V1492348510155
p1771
sasVheaders
p1772
(lp1773
sVheadersSize
p1774
I659
sVbodySize
p1775
I0
sVmethod
p1776
VGET
p1777
sVhttpVersion
p1778
VHTTP/1.1
p1779
ssVtimings
p1780
(dp1781
Vcomment
p1782
g4
sVreceive
p1783
I0
sVsend
p1784
I0
sVssl
p1785
I-1
sVconnect
p1786
I-1
sVdns
p1787
I-1
sVwait
p1788
I39
sVblocked
p1789
I-1
ssVtime
p1790
I40
sVresponse
p1791
(dp1792
Vstatus
p1793
I204
sVcomment
p1794
g4
sVcookies
p1795
(lp1796
sVstatusText
p1797
VNo Content
p1798
sVcontent
p1799
(dp1800
VmimeType
p1801
Vtext/html; charset=UTF-8
p1802
sVcomment
p1803
g4
sVsize
p1804
I0
ssVheaders
p1805
(lp1806
sVheadersSize
p1807
I248
sVredirectURL
p1808
g4
sVbodySize
p1809
I0
sVhttpVersion
p1810
VHTTP/1.1
p1811
ssa(dp1812
Vcomment
p1813
g4
sVserverIPAddress
p1814
V216.58.216.196
p1815
sVpageref
p1816
VDog
p1817
sVstartedDateTime
p1818
V2017-04-16T08:15:10.190-05:00
p1819
sVcache
p1820
(dp1821
sVrequest
p1822
(dp1823
Vcomment
p1824
g4
sVcookies
p1825
(lp1826
sVurl
p1827
Vhttps://www.google.com/gen_204?atyp=i&ct=&cad=&vet=10ahUKEwipqpK1h6nTAhXB54MKHVftCR4QtxAIdigHMBQ..s&ei=W27zWOmQAsHPjwTX2qfwAQ&zx=1492348510158
p1828
sVqueryString
p1829
(lp1830
(dp1831
Vname
p1832
Vatyp
p1833
sVvalue
p1834
g30
sa(dp1835
Vname
p1836
Vct
p1837
sVvalue
p1838
g4
sa(dp1839
Vname
p1840
Vcad
p1841
sVvalue
p1842
g4
sa(dp1843
Vname
p1844
Vvet
p1845
sVvalue
p1846
V10ahUKEwipqpK1h6nTAhXB54MKHVftCR4QtxAIdigHMBQ..s
p1847
sa(dp1848
Vname
p1849
Vei
p1850
sVvalue
p1851
VW27zWOmQAsHPjwTX2qfwAQ
p1852
sa(dp1853
Vname
p1854
Vzx
p1855
sVvalue
p1856
V1492348510158
p1857
sasVheaders
p1858
(lp1859
sVheadersSize
p1860
I659
sVbodySize
p1861
I0
sVmethod
p1862
VGET
p1863
sVhttpVersion
p1864
VHTTP/1.1
p1865
ssVtimings
p1866
(dp1867
Vcomment
p1868
g4
sVreceive
p1869
I0
sVsend
p1870
I0
sVssl
p1871
I-1
sVconnect
p1872
I-1
sVdns
p1873
I-1
sVwait
p1874
I25
sVblocked
p1875
I-1
ssVtime
p1876
I26
sVresponse
p1877
(dp1878
Vstatus
p1879
I204
sVcomment
p1880
g4
sVcookies
p1881
(lp1882
sVstatusText
p1883
VNo Content
p1884
sVcontent
p1885
(dp1886
VmimeType
p1887
Vtext/html; charset=UTF-8
p1888
sVcomment
p1889
g4
sVsize
p1890
I0
ssVheaders
p1891
(lp1892
sVheadersSize
p1893
I248
sVredirectURL
p1894
g4
sVbodySize
p1895
I0
sVhttpVersion
p1896
VHTTP/1.1
p1897
ssa(dp1898
Vcomment
p1899
g4
sVserverIPAddress
p1900
V216.58.216.196
p1901
sVpageref
p1902
VDog
p1903
sVstartedDateTime
p1904
V2017-04-16T08:15:10.199-05:00
p1905
sVcache
p1906
(dp1907
sVrequest
p1908
(dp1909
Vcomment
p1910
g4
sVcookies
p1911
(lp1912
sVurl
p1913
Vhttps://www.google.com/gen_204?atyp=i&ct=&cad=&vet=10ahUKEwipqpK1h6nTAhXB54MKHVftCR4QlpQBCHgoCDAU..s&ei=W27zWOmQAsHPjwTX2qfwAQ&zx=1492348510161
p1914
sVqueryString
p1915
(lp1916
(dp1917
Vname
p1918
Vatyp
p1919
sVvalue
p1920
g30
sa(dp1921
Vname
p1922
Vct
p1923
sVvalue
p1924
g4
sa(dp1925
Vname
p1926
Vcad
p1927
sVvalue
p1928
g4
sa(dp1929
Vname
p1930
Vvet
p1931
sVvalue
p1932
V10ahUKEwipqpK1h6nTAhXB54MKHVftCR4QlpQBCHgoCDAU..s
p1933
sa(dp1934
Vname
p1935
Vei
p1936
sVvalue
p1937
VW27zWOmQAsHPjwTX2qfwAQ
p1938
sa(dp1939
Vname
p1940
Vzx
p1941
sVvalue
p1942
V1492348510161
p1943
sasVheaders
p1944
(lp1945
sVheadersSize
p1946
I660
sVbodySize
p1947
I0
sVmethod
p1948
VGET
p1949
sVhttpVersion
p1950
VHTTP/1.1
p1951
ssVtimings
p1952
(dp1953
Vcomment
p1954
g4
sVreceive
p1955
I0
sVsend
p1956
I0
sVssl
p1957
I-1
sVconnect
p1958
I-1
sVdns
p1959
I-1
sVwait
p1960
I33
sVblocked
p1961
I-1
ssVtime
p1962
I33
sVresponse
p1963
(dp1964
Vstatus
p1965
I204
sVcomment
p1966
g4
sVcookies
p1967
(lp1968
sVstatusText
p1969
VNo Content
p1970
sVcontent
p1971
(dp1972
VmimeType
p1973
Vtext/html; charset=UTF-8
p1974
sVcomment
p1975
g4
sVsize
p1976
I0
ssVheaders
p1977
(lp1978
sVheadersSize
p1979
I248
sVredirectURL
p1980
g4
sVbodySize
p1981
I0
sVhttpVersion
p1982
VHTTP/1.1
p1983
ssa(dp1984
Vcomment
p1985
g4
sVserverIPAddress
p1986
V216.58.216.206
p1987
sVpageref
p1988
VDog
p1989
sVstartedDateTime
p1990
V2017-04-16T08:15:10.236-05:00
p1991
sVcache
p1992
(dp1993
sVrequest
p1994
(dp1995
Vcomment
p1996
g4
sVcookies
p1997
(lp1998
sVurl
p1999
Vhttps://encrypted-tbn0.gstatic.com/images?q=tbn:ANd9GcSnCffhaPGwbCZ6TydwpVNUV0l76wO_Yhoac45MjM7bOAwor9TT8iRgl713a1rH_9Ifjhs
p2000
sVqueryString
p2001
(lp2002
(dp2003
Vname
p2004
g406
sVvalue
p2005
Vtbn:ANd9GcSnCffhaPGwbCZ6TydwpVNUV0l76wO_Yhoac45MjM7bOAwor9TT8iRgl713a1rH_9Ifjhs
p2006
sasVheaders
p2007
(lp2008
sVheadersSize
p2009
I438
sVbodySize
p2010
I0
sVmethod
p2011
VGET
p2012
sVhttpVersion
p2013
VHTTP/1.1
p2014
ssVtimings
p2015
(dp2016
Vcomment
p2017
g4
sVreceive
p2018
I0
sVsend
p2019
I0
sVssl
p2020
I35
sVconnect
p2021
I64
sVdns
p2022
I5
sVwait
p2023
I86
sVblocked
p2024
I0
ssVtime
p2025
I156
sVresponse
p2026
(dp2027
Vstatus
p2028
I200
sVcomment
p2029
g4
sVcookies
p2030
(lp2031
sVstatusText
p2032
VOK
p2033
sVcontent
p2034
(dp2035
VmimeType
p2036
Vimage/jpeg
p2037
sVcomment
p2038
g4
sVsize
p2039
I0
ssVheaders
p2040
(lp2041
sVheadersSize
p2042
I429
sVredirectURL
p2043
g4
sVbodySize
p2044
I3241
sVhttpVersion
p2045
VHTTP/1.1
p2046
ssa(dp2047
Vcomment
p2048
g4
sVserverIPAddress
p2049
V216.58.216.196
p2050
sVpageref
p2051
VDog
p2052
sVstartedDateTime
p2053
V2017-04-16T08:15:10.363-05:00
p2054
sVcache
p2055
(dp2056
sVrequest
p2057
(dp2058
Vcomment
p2059
g4
sVcookies
p2060
(lp2061
sVurl
p2062
Vhttps://www.google.com/async/ampfp?vet=10ahUKEwipqpK1h6nTAhXB54MKHVftCR4QtZoBCNEC..i&ei=W27zWOmQAsHPjwTX2qfwAQ&yv=2&async=_id:ampfp-async,_pms:qs
p2063
sVqueryString
p2064
(lp2065
(dp2066
Vname
p2067
Vvet
p2068
sVvalue
p2069
V10ahUKEwipqpK1h6nTAhXB54MKHVftCR4QtZoBCNEC..i
p2070
sa(dp2071
Vname
p2072
Vei
p2073
sVvalue
p2074
VW27zWOmQAsHPjwTX2qfwAQ
p2075
sa(dp2076
Vname
p2077
Vyv
p2078
sVvalue
p2079
g49
sa(dp2080
Vname
p2081
Vasync
p2082
sVvalue
p2083
V_id:ampfp-async,_pms:qs
p2084
sasVheaders
p2085
(lp2086
sVheadersSize
p2087
I662
sVbodySize
p2088
I0
sVmethod
p2089
VGET
p2090
sVhttpVersion
p2091
VHTTP/1.1
p2092
ssVtimings
p2093
(dp2094
Vcomment
p2095
g4
sVreceive
p2096
I1
sVsend
p2097
I0
sVssl
p2098
I-1
sVconnect
p2099
I-1
sVdns
p2100
I-1
sVwait
p2101
I34
sVblocked
p2102
I-1
ssVtime
p2103
I36
sVresponse
p2104
(dp2105
Vstatus
p2106
I200
sVcomment
p2107
g4
sVcookies
p2108
(lp2109
sVstatusText
p2110
VOK
p2111
sVcontent
p2112
(dp2113
VmimeType
p2114
Vtext/html; charset=UTF-8
p2115
sVcomment
p2116
g4
sVsize
p2117
I0
ssVheaders
p2118
(lp2119
sVheadersSize
p2120
I383
sVredirectURL
p2121
g4
sVbodySize
p2122
I4528
sVhttpVersion
p2123
VHTTP/1.1
p2124
ssa(dp2125
Vcomment
p2126
g4
sVserverIPAddress
p2127
V216.58.216.193
p2128
sVpageref
p2129
VDog
p2130
sVstartedDateTime
p2131
V2017-04-16T08:15:10.364-05:00
p2132
sVcache
p2133
(dp2134
sVrequest
p2135
(dp2136
Vcomment
p2137
g4
sVcookies
p2138
(lp2139
sVurl
p2140
Vhttps://cdn.ampproject.org/preconnect.gif?0.8286283658397564
p2141
sVqueryString
p2142
(lp2143
(dp2144
Vname
p2145
V0.8286283658397564
p2146
sVvalue
p2147
g4
sasVheaders
p2148
(lp2149
sVheadersSize
p2150
I375
sVbodySize
p2151
I0
sVmethod
p2152
VGET
p2153
sVhttpVersion
p2154
VHTTP/1.1
p2155
ssVtimings
p2156
(dp2157
Vcomment
p2158
g4
sVreceive
p2159
I0
sVsend
p2160
I0
sVssl
p2161
I-1
sVconnect
p2162
I-1
sVdns
p2163
I-1
sVwait
p2164
I29
sVblocked
p2165
I-1
ssVtime
p2166
I29
sVresponse
p2167
(dp2168
Vstatus
p2169
I200
sVcomment
p2170
g4
sVcookies
p2171
(lp2172
sVstatusText
p2173
VOK
p2174
sVcontent
p2175
(dp2176
VmimeType
p2177
Vimage/gif
p2178
sVcomment
p2179
g4
sVsize
p2180
I0
ssVheaders
p2181
(lp2182
sVheadersSize
p2183
I826
sVredirectURL
p2184
g4
sVbodySize
p2185
I37
sVhttpVersion
p2186
VHTTP/1.1
p2187
ssa(dp2188
Vcomment
p2189
g4
sVserverIPAddress
p2190
V216.58.217.14
p2191
sVpageref
p2192
VDog
p2193
sVstartedDateTime
p2194
V2017-04-16T08:15:10.376-05:00
p2195
sVcache
p2196
(dp2197
sVrequest
p2198
(dp2199
Vcomment
p2200
g4
sVcookies
p2201
(lp2202
sVurl
p2203
Vhttps://encrypted-tbn3.gstatic.com/images?q=tbn:ANd9GcR_ULNP4Ow4tkoA45rtAaHa_MbIjLTmeWTNgbkICrmZAQc2IxcF_RzetK84
p2204
sVqueryString
p2205
(lp2206
(dp2207
Vname
p2208
g406
sVvalue
p2209
Vtbn:ANd9GcR_ULNP4Ow4tkoA45rtAaHa_MbIjLTmeWTNgbkICrmZAQc2IxcF_RzetK84
p2210
sasVheaders
p2211
(lp2212
sVheadersSize
p2213
I427
sVbodySize
p2214
I0
sVmethod
p2215
VGET
p2216
sVhttpVersion
p2217
VHTTP/1.1
p2218
ssVtimings
p2219
(dp2220
Vcomment
p2221
g4
sVreceive
p2222
I4
sVsend
p2223
I0
sVssl
p2224
I-1
sVconnect
p2225
I-1
sVdns
p2226
I-1
sVwait
p2227
I19
sVblocked
p2228
I-1
ssVtime
p2229
I23
sVresponse
p2230
(dp2231
Vstatus
p2232
I200
sVcomment
p2233
g4
sVcookies
p2234
(lp2235
sVstatusText
p2236
VOK
p2237
sVcontent
p2238
(dp2239
VmimeType
p2240
Vimage/jpeg
p2241
sVcomment
p2242
g4
sVsize
p2243
I0
ssVheaders
p2244
(lp2245
sVheadersSize
p2246
I429
sVredirectURL
p2247
g4
sVbodySize
p2248
I4559
sVhttpVersion
p2249
VHTTP/1.1
p2250
ssa(dp2251
Vcomment
p2252
g4
sVserverIPAddress
p2253
V216.58.217.14
p2254
sVpageref
p2255
VDog
p2256
sVstartedDateTime
p2257
V2017-04-16T08:15:10.377-05:00
p2258
sVcache
p2259
(dp2260
sVrequest
p2261
(dp2262
Vcomment
p2263
g4
sVcookies
p2264
(lp2265
sVurl
p2266
Vhttps://encrypted-tbn3.gstatic.com/images?q=tbn:ANd9GcT255eh9cfIPls1Sl41bDDB9HN8i5dUBYAABO_-dbfrJqW4wN_aYfp22RMZ
p2267
sVqueryString
p2268
(lp2269
(dp2270
Vname
p2271
g406
sVvalue
p2272
Vtbn:ANd9GcT255eh9cfIPls1Sl41bDDB9HN8i5dUBYAABO_-dbfrJqW4wN_aYfp22RMZ
p2273
sasVheaders
p2274
(lp2275
sVheadersSize
p2276
I427
sVbodySize
p2277
I0
sVmethod
p2278
VGET
p2279
sVhttpVersion
p2280
VHTTP/1.1
p2281
ssVtimings
p2282
(dp2283
Vcomment
p2284
g4
sVreceive
p2285
I0
sVsend
p2286
I0
sVssl
p2287
I-1
sVconnect
p2288
I-1
sVdns
p2289
I-1
sVwait
p2290
I43
sVblocked
p2291
I-1
ssVtime
p2292
I44
sVresponse
p2293
(dp2294
Vstatus
p2295
I200
sVcomment
p2296
g4
sVcookies
p2297
(lp2298
sVstatusText
p2299
VOK
p2300
sVcontent
p2301
(dp2302
VmimeType
p2303
Vimage/jpeg
p2304
sVcomment
p2305
g4
sVsize
p2306
I0
ssVheaders
p2307
(lp2308
sVheadersSize
p2309
I428
sVredirectURL
p2310
g4
sVbodySize
p2311
I4839
sVhttpVersion
p2312
VHTTP/1.1
p2313
ssa(dp2314
Vcomment
p2315
g4
sVserverIPAddress
p2316
V216.58.217.14
p2317
sVpageref
p2318
VDog
p2319
sVstartedDateTime
p2320
V2017-04-16T08:15:10.467-05:00
p2321
sVcache
p2322
(dp2323
sVrequest
p2324
(dp2325
Vcomment
p2326
g4
sVcookies
p2327
(lp2328
sVurl
p2329
Vhttps://encrypted-tbn3.gstatic.com/images?q=tbn:ANd9GcTA6KOW3zs8efcLLS-y_DIYlWzNXbnyJdX3eCHZMaZC4f5oxVkzzyn_Hath
p2330
sVqueryString
p2331
(lp2332
(dp2333
Vname
p2334
g406
sVvalue
p2335
Vtbn:ANd9GcTA6KOW3zs8efcLLS-y_DIYlWzNXbnyJdX3eCHZMaZC4f5oxVkzzyn_Hath
p2336
sasVheaders
p2337
(lp2338
sVheadersSize
p2339
I427
sVbodySize
p2340
I0
sVmethod
p2341
VGET
p2342
sVhttpVersion
p2343
VHTTP/1.1
p2344
ssVtimings
p2345
(dp2346
Vcomment
p2347
g4
sVreceive
p2348
I0
sVsend
p2349
I0
sVssl
p2350
I46
sVconnect
p2351
I84
sVdns
p2352
I2
sVwait
p2353
I37
sVblocked
p2354
I0
ssVtime
p2355
I125
sVresponse
p2356
(dp2357
Vstatus
p2358
I200
sVcomment
p2359
g4
sVcookies
p2360
(lp2361
sVstatusText
p2362
VOK
p2363
sVcontent
p2364
(dp2365
VmimeType
p2366
Vimage/jpeg
p2367
sVcomment
p2368
g4
sVsize
p2369
I0
ssVheaders
p2370
(lp2371
sVheadersSize
p2372
I428
sVredirectURL
p2373
g4
sVbodySize
p2374
I6262
sVhttpVersion
p2375
VHTTP/1.1
p2376
ssa(dp2377
Vcomment
p2378
g4
sVserverIPAddress
p2379
V216.58.216.196
p2380
sVpageref
p2381
VDog
p2382
sVstartedDateTime
p2383
V2017-04-16T08:15:10.473-05:00
p2384
sVcache
p2385
(dp2386
sVrequest
p2387
(dp2388
Vcomment
p2389
g4
sVcookies
p2390
(lp2391
sVurl
p2392
Vhttps://www.google.com/xjs/_/js/k=xjs.qs.en_US.pCBXVCvTH3s.O/m=idg,syfu,ish,ivw,syi2,syi5,syi4,fpv,sy8e,sya8,sy91,sya6,sya7,sya9,amp,sp/am=gCP4LtMEBXQA2RUaq_oFBISzAFA/rt=j/d=0/t=zcms/rs=ACT90oFwm4NZCwIcuuiqmthdlECdBzkhRA
p2393
sVqueryString
p2394
(lp2395
sVheaders
p2396
(lp2397
sVheadersSize
p2398
I737
sVbodySize
p2399
I0
sVmethod
p2400
VGET
p2401
sVhttpVersion
p2402
VHTTP/1.1
p2403
ssVtimings
p2404
(dp2405
Vcomment
p2406
g4
sVreceive
p2407
I4
sVsend
p2408
I0
sVssl
p2409
I-1
sVconnect
p2410
I-1
sVdns
p2411
I-1
sVwait
p2412
I15
sVblocked
p2413
I-1
ssVtime
p2414
I19
sVresponse
p2415
(dp2416
Vstatus
p2417
I200
sVcomment
p2418
g4
sVcookies
p2419
(lp2420
sVstatusText
p2421
VOK
p2422
sVcontent
p2423
(dp2424
VmimeType
p2425
Vtext/javascript; charset=UTF-8
p2426
sVcomment
p2427
g4
sVsize
p2428
I0
ssVheaders
p2429
(lp2430
sVheadersSize
p2431
I464
sVredirectURL
p2432
g4
sVbodySize
p2433
I29729
sVhttpVersion
p2434
VHTTP/1.1
p2435
ssa(dp2436
Vcomment
p2437
g4
sVserverIPAddress
p2438
V216.58.216.196
p2439
sVpageref
p2440
VDog
p2441
sVstartedDateTime
p2442
V2017-04-16T08:15:10.515-05:00
p2443
sVcache
p2444
(dp2445
sVrequest
p2446
(dp2447
Vcomment
p2448
g4
sVcookies
p2449
(lp2450
sVurl
p2451
Vhttps://www.google.com/gen_204/local?ei=W27zWOmQAsHPjwTX2qfwAQ&tm_n=pt&tm=1120
p2452
sVqueryString
p2453
(lp2454
(dp2455
Vname
p2456
Vei
p2457
sVvalue
p2458
VW27zWOmQAsHPjwTX2qfwAQ
p2459
sa(dp2460
Vname
p2461
Vtm_n
p2462
sVvalue
p2463
Vpt
p2464
sa(dp2465
Vname
p2466
Vtm
p2467
sVvalue
p2468
V1120
p2469
sasVheaders
p2470
(lp2471
sVheadersSize
p2472
I842
sVbodySize
p2473
I0
sVmethod
p2474
VPOST
p2475
sVhttpVersion
p2476
VHTTP/1.1
p2477
ssVtimings
p2478
(dp2479
Vcomment
p2480
g4
sVreceive
p2481
I0
sVsend
p2482
I0
sVssl
p2483
I-1
sVconnect
p2484
I-1
sVdns
p2485
I-1
sVwait
p2486
I41
sVblocked
p2487
I-1
ssVtime
p2488
I42
sVresponse
p2489
(dp2490
Vstatus
p2491
I204
sVcomment
p2492
g4
sVcookies
p2493
(lp2494
sVstatusText
p2495
VNo Content
p2496
sVcontent
p2497
(dp2498
VmimeType
p2499
Vtext/html; charset=UTF-8
p2500
sVcomment
p2501
g4
sVsize
p2502
I0
ssVheaders
p2503
(lp2504
sVheadersSize
p2505
I290
sVredirectURL
p2506
g4
sVbodySize
p2507
I0
sVhttpVersion
p2508
VHTTP/1.1
p2509
ssa(dp2510
Vcomment
p2511
g4
sVserverIPAddress
p2512
V216.58.216.196
p2513
sVpageref
p2514
VDog
p2515
sVstartedDateTime
p2516
V2017-04-16T08:15:10.545-05:00
p2517
sVcache
p2518
(dp2519
sVrequest
p2520
(dp2521
Vcomment
p2522
g4
sVcookies
p2523
(lp2524
sVurl
p2525
Vhttps://www.google.com/async/lcl_akp?vet=10ahUKEwipqpK1h6nTAhXB54MKHVftCR4Q30oIjgIwLg..i&ved=0ahUKEwipqpK1h6nTAhXB54MKHVftCR4QkW0IkAIwLg&ei=W27zWOmQAsHPjwTX2qfwAQ&yv=2&tbs=lf_msr:-1,lf_od:-1,lf_oh:-1,lf_oa:-1,lp:-D!1610!!1!!!0!2|-S!11!0!2|-S!15!0!2|-F!4!0!3|-F!3!0!3,lf_pqs:EAE,lf:1,lf_ui:2&async=id:akp_12155853257200172671,ludocids:12155853257200172671,f:rln,ui:2,_id:p0_uid_41_W27zWOmQAsHPjwTX2qfwAQ,_pms:qs
p2526
sVqueryString
p2527
(lp2528
(dp2529
Vname
p2530
Vvet
p2531
sVvalue
p2532
V10ahUKEwipqpK1h6nTAhXB54MKHVftCR4Q30oIjgIwLg..i
p2533
sa(dp2534
Vname
p2535
Vved
p2536
sVvalue
p2537
V0ahUKEwipqpK1h6nTAhXB54MKHVftCR4QkW0IkAIwLg
p2538
sa(dp2539
Vname
p2540
Vei
p2541
sVvalue
p2542
VW27zWOmQAsHPjwTX2qfwAQ
p2543
sa(dp2544
Vname
p2545
Vyv
p2546
sVvalue
p2547
g49
sa(dp2548
Vname
p2549
Vtbs
p2550
sVvalue
p2551
Vlf_msr:-1,lf_od:-1,lf_oh:-1,lf_oa:-1,lp:-D!1610!!1!!!0!2|-S!11!0!2|-S!15!0!2|-F!4!0!3|-F!3!0!3,lf_pqs:EAE,lf:1,lf_ui:2
p2552
sa(dp2553
Vname
p2554
Vasync
p2555
sVvalue
p2556
Vid:akp_12155853257200172671,ludocids:12155853257200172671,f:rln,ui:2,_id:p0_uid_41_W27zWOmQAsHPjwTX2qfwAQ,_pms:qs
p2557
sasVheaders
p2558
(lp2559
sVheadersSize
p2560
I927
sVbodySize
p2561
I0
sVmethod
p2562
VGET
p2563
sVhttpVersion
p2564
VHTTP/1.1
p2565
ssVtimings
p2566
(dp2567
Vcomment
p2568
g4
sVreceive
p2569
I25
sVsend
p2570
I0
sVssl
p2571
I-1
sVconnect
p2572
I-1
sVdns
p2573
I-1
sVwait
p2574
I253
sVblocked
p2575
I-1
ssVtime
p2576
I279
sVresponse
p2577
(dp2578
Vstatus
p2579
I200
sVcomment
p2580
g4
sVcookies
p2581
(lp2582
sVstatusText
p2583
VOK
p2584
sVcontent
p2585
(dp2586
VmimeType
p2587
Vtext/html; charset=UTF-8
p2588
sVcomment
p2589
g4
sVsize
p2590
I0
ssVheaders
p2591
(lp2592
sVheadersSize
p2593
I383
sVredirectURL
p2594
g4
sVbodySize
p2595
I37038
sVhttpVersion
p2596
VHTTP/1.1
p2597
ssa(dp2598
Vcomment
p2599
g4
sVserverIPAddress
p2600
V216.58.216.196
p2601
sVpageref
p2602
VDog
p2603
sVstartedDateTime
p2604
V2017-04-16T08:15:10.549-05:00
p2605
sVcache
p2606
(dp2607
sVrequest
p2608
(dp2609
Vcomment
p2610
g4
sVcookies
p2611
(lp2612
sVurl
p2613
Vhttps://www.google.com/async/lcl_akp?vet=10ahUKEwipqpK1h6nTAhXB54MKHVftCR4Q30oImAIwLw..i&ved=0ahUKEwipqpK1h6nTAhXB54MKHVftCR4QkW0ImgIwLw&ei=W27zWOmQAsHPjwTX2qfwAQ&yv=2&tbs=lf_msr:-1,lf_od:-1,lf_oh:-1,lf_oa:-1,lp:-D!1610!!1!!!0!2|-S!11!0!2|-S!15!0!2|-F!4!0!3|-F!3!0!3,lf_pqs:EAE,lf:1,lf_ui:2&async=id:akp_10927811170442876537,ludocids:10927811170442876537,f:rln,ui:2,_id:p0_uid_42_W27zWOmQAsHPjwTX2qfwAQ,_pms:qs
p2614
sVqueryString
p2615
(lp2616
(dp2617
Vname
p2618
Vvet
p2619
sVvalue
p2620
V10ahUKEwipqpK1h6nTAhXB54MKHVftCR4Q30oImAIwLw..i
p2621
sa(dp2622
Vname
p2623
Vved
p2624
sVvalue
p2625
V0ahUKEwipqpK1h6nTAhXB54MKHVftCR4QkW0ImgIwLw
p2626
sa(dp2627
Vname
p2628
Vei
p2629
sVvalue
p2630
VW27zWOmQAsHPjwTX2qfwAQ
p2631
sa(dp2632
Vname
p2633
Vyv
p2634
sVvalue
p2635
g49
sa(dp2636
Vname
p2637
Vtbs
p2638
sVvalue
p2639
Vlf_msr:-1,lf_od:-1,lf_oh:-1,lf_oa:-1,lp:-D!1610!!1!!!0!2|-S!11!0!2|-S!15!0!2|-F!4!0!3|-F!3!0!3,lf_pqs:EAE,lf:1,lf_ui:2
p2640
sa(dp2641
Vname
p2642
Vasync
p2643
sVvalue
p2644
Vid:akp_10927811170442876537,ludocids:10927811170442876537,f:rln,ui:2,_id:p0_uid_42_W27zWOmQAsHPjwTX2qfwAQ,_pms:qs
p2645
sasVheaders
p2646
(lp2647
sVheadersSize
p2648
I927
sVbodySize
p2649
I0
sVmethod
p2650
VGET
p2651
sVhttpVersion
p2652
VHTTP/1.1
p2653
ssVtimings
p2654
(dp2655
Vcomment
p2656
g4
sVreceive
p2657
I26
sVsend
p2658
I0
sVssl
p2659
I-1
sVconnect
p2660
I-1
sVdns
p2661
I-1
sVwait
p2662
I215
sVblocked
p2663
I-1
ssVtime
p2664
I242
sVresponse
p2665
(dp2666
Vstatus
p2667
I200
sVcomment
p2668
g4
sVcookies
p2669
(lp2670
sVstatusText
p2671
VOK
p2672
sVcontent
p2673
(dp2674
VmimeType
p2675
Vtext/html; charset=UTF-8
p2676
sVcomment
p2677
g4
sVsize
p2678
I0
ssVheaders
p2679
(lp2680
sVheadersSize
p2681
I383
sVredirectURL
p2682
g4
sVbodySize
p2683
I32330
sVhttpVersion
p2684
VHTTP/1.1
p2685
ssa(dp2686
Vcomment
p2687
g4
sVserverIPAddress
p2688
V216.58.216.196
p2689
sVpageref
p2690
VDog
p2691
sVstartedDateTime
p2692
V2017-04-16T08:15:10.557-05:00
p2693
sVcache
p2694
(dp2695
sVrequest
p2696
(dp2697
Vcomment
p2698
g4
sVcookies
p2699
(lp2700
sVurl
p2701
Vhttps://www.google.com/async/lcl_akp?vet=10ahUKEwipqpK1h6nTAhXB54MKHVftCR4Q30oIogIwMA..i&ved=0ahUKEwipqpK1h6nTAhXB54MKHVftCR4QkW0IpAIwMA&ei=W27zWOmQAsHPjwTX2qfwAQ&yv=2&tbs=lf_msr:-1,lf_od:-1,lf_oh:-1,lf_oa:-1,lp:-D!1610!!1!!!0!2|-S!11!0!2|-S!15!0!2|-F!4!0!3|-F!3!0!3,lf_pqs:EAE,lf:1,lf_ui:2&async=id:akp_16571007190390394839,ludocids:16571007190390394839,f:rln,ui:2,_id:p0_uid_43_W27zWOmQAsHPjwTX2qfwAQ,_pms:qs
p2702
sVqueryString
p2703
(lp2704
(dp2705
Vname
p2706
Vvet
p2707
sVvalue
p2708
V10ahUKEwipqpK1h6nTAhXB54MKHVftCR4Q30oIogIwMA..i
p2709
sa(dp2710
Vname
p2711
Vved
p2712
sVvalue
p2713
V0ahUKEwipqpK1h6nTAhXB54MKHVftCR4QkW0IpAIwMA
p2714
sa(dp2715
Vname
p2716
Vei
p2717
sVvalue
p2718
VW27zWOmQAsHPjwTX2qfwAQ
p2719
sa(dp2720
Vname
p2721
Vyv
p2722
sVvalue
p2723
g49
sa(dp2724
Vname
p2725
Vtbs
p2726
sVvalue
p2727
Vlf_msr:-1,lf_od:-1,lf_oh:-1,lf_oa:-1,lp:-D!1610!!1!!!0!2|-S!11!0!2|-S!15!0!2|-F!4!0!3|-F!3!0!3,lf_pqs:EAE,lf:1,lf_ui:2
p2728
sa(dp2729
Vname
p2730
Vasync
p2731
sVvalue
p2732
Vid:akp_16571007190390394839,ludocids:16571007190390394839,f:rln,ui:2,_id:p0_uid_43_W27zWOmQAsHPjwTX2qfwAQ,_pms:qs
p2733
sasVheaders
p2734
(lp2735
sVheadersSize
p2736
I927
sVbodySize
p2737
I0
sVmethod
p2738
VGET
p2739
sVhttpVersion
p2740
VHTTP/1.1
p2741
ssVtimings
p2742
(dp2743
Vcomment
p2744
g4
sVreceive
p2745
I29
sVsend
p2746
I0
sVssl
p2747
I-1
sVconnect
p2748
I-1
sVdns
p2749
I-1
sVwait
p2750
I237
sVblocked
p2751
I-1
ssVtime
p2752
I267
sVresponse
p2753
(dp2754
Vstatus
p2755
I200
sVcomment
p2756
g4
sVcookies
p2757
(lp2758
sVstatusText
p2759
VOK
p2760
sVcontent
p2761
(dp2762
VmimeType
p2763
Vtext/html; charset=UTF-8
p2764
sVcomment
p2765
g4
sVsize
p2766
I0
ssVheaders
p2767
(lp2768
sVheadersSize
p2769
I383
sVredirectURL
p2770
g4
sVbodySize
p2771
I34158
sVhttpVersion
p2772
VHTTP/1.1
p2773
ssa(dp2774
Vcomment
p2775
g4
sVserverIPAddress
p2776
V216.58.216.196
p2777
sVpageref
p2778
VDog
p2779
sVstartedDateTime
p2780
V2017-04-16T08:15:10.579-05:00
p2781
sVcache
p2782
(dp2783
sVrequest
p2784
(dp2785
Vcomment
p2786
g4
sVcookies
p2787
(lp2788
sVurl
p2789
Vhttps://www.google.com/gen_204/local?ei=W27zWOmQAsHPjwTX2qfwAQ&tm_n=lrl_init&tm=3
p2790
sVqueryString
p2791
(lp2792
(dp2793
Vname
p2794
Vei
p2795
sVvalue
p2796
VW27zWOmQAsHPjwTX2qfwAQ
p2797
sa(dp2798
Vname
p2799
Vtm_n
p2800
sVvalue
p2801
Vlrl_init
p2802
sa(dp2803
Vname
p2804
Vtm
p2805
sVvalue
p2806
V3
p2807
sasVheaders
p2808
(lp2809
sVheadersSize
p2810
I845
sVbodySize
p2811
I0
sVmethod
p2812
VPOST
p2813
sVhttpVersion
p2814
VHTTP/1.1
p2815
ssVtimings
p2816
(dp2817
Vcomment
p2818
g4
sVreceive
p2819
I0
sVsend
p2820
I0
sVssl
p2821
I-1
sVconnect
p2822
I-1
sVdns
p2823
I-1
sVwait
p2824
I32
sVblocked
p2825
I-1
ssVtime
p2826
I32
sVresponse
p2827
(dp2828
Vstatus
p2829
I204
sVcomment
p2830
g4
sVcookies
p2831
(lp2832
sVstatusText
p2833
VNo Content
p2834
sVcontent
p2835
(dp2836
VmimeType
p2837
Vtext/html; charset=UTF-8
p2838
sVcomment
p2839
g4
sVsize
p2840
I0
ssVheaders
p2841
(lp2842
sVheadersSize
p2843
I290
sVredirectURL
p2844
g4
sVbodySize
p2845
I0
sVhttpVersion
p2846
VHTTP/1.1
p2847
ssa(dp2848
Vcomment
p2849
g4
sVserverIPAddress
p2850
V216.58.216.196
p2851
sVpageref
p2852
VDog
p2853
sVstartedDateTime
p2854
V2017-04-16T08:15:10.607-05:00
p2855
sVcache
p2856
(dp2857
sVrequest
p2858
(dp2859
Vcomment
p2860
g4
sVcookies
p2861
(lp2862
sVurl
p2863
Vhttps://www.google.com/gen_204?s=web&atyp=csi&ei=W27zWOmQAsHPjwTX2qfwAQ&imc=76&imn=76&imp=36&adh=&xjs=init.67.14.sb_mob.54.dvl.4.c.2.mbsf.2.jsa.2&ima=16&rt=prt.1001,iml.1163,xjsls.1001,dcl.1141,xjses.1276,xjsee.1516,xjs.1517,qiml.2390,ol.2404,aft.1041,wsrt.153,cst.0,dnst.0,rqst.1100,rspt.960,rqstt.2,unt.1,cstt.1,dit.1220
p2864
sVqueryString
p2865
(lp2866
(dp2867
Vname
p2868
g47
sVvalue
p2869
Vweb
p2870
sa(dp2871
Vname
p2872
Vatyp
p2873
sVvalue
p2874
Vcsi
p2875
sa(dp2876
Vname
p2877
Vei
p2878
sVvalue
p2879
VW27zWOmQAsHPjwTX2qfwAQ
p2880
sa(dp2881
Vname
p2882
Vimc
p2883
sVvalue
p2884
V76
p2885
sa(dp2886
Vname
p2887
Vimn
p2888
sVvalue
p2889
V76
p2890
sa(dp2891
Vname
p2892
Vimp
p2893
sVvalue
p2894
V36
p2895
sa(dp2896
Vname
p2897
Vadh
p2898
sVvalue
p2899
g4
sa(dp2900
Vname
p2901
Vxjs
p2902
sVvalue
p2903
Vinit.67.14.sb_mob.54.dvl.4.c.2.mbsf.2.jsa.2
p2904
sa(dp2905
Vname
p2906
Vima
p2907
sVvalue
p2908
V16
p2909
sa(dp2910
Vname
p2911
Vrt
p2912
sVvalue
p2913
Vprt.1001,iml.1163,xjsls.1001,dcl.1141,xjses.1276,xjsee.1516,xjs.1517,qiml.2390,ol.2404,aft.1041,wsrt.153,cst.0,dnst.0,rqst.1100,rspt.960,rqstt.2,unt.1,cstt.1,dit.1220
p2914
sasVheaders
p2915
(lp2916
sVheadersSize
p2917
I839
sVbodySize
p2918
I0
sVmethod
p2919
VGET
p2920
sVhttpVersion
p2921
VHTTP/1.1
p2922
ssVtimings
p2923
(dp2924
Vcomment
p2925
g4
sVreceive
p2926
I0
sVsend
p2927
I0
sVssl
p2928
I-1
sVconnect
p2929
I-1
sVdns
p2930
I-1
sVwait
p2931
I28
sVblocked
p2932
I-1
ssVtime
p2933
I29
sVresponse
p2934
(dp2935
Vstatus
p2936
I204
sVcomment
p2937
g4
sVcookies
p2938
(lp2939
sVstatusText
p2940
VNo Content
p2941
sVcontent
p2942
(dp2943
VmimeType
p2944
Vtext/html; charset=UTF-8
p2945
sVcomment
p2946
g4
sVsize
p2947
I0
ssVheaders
p2948
(lp2949
sVheadersSize
p2950
I248
sVredirectURL
p2951
g4
sVbodySize
p2952
I0
sVhttpVersion
p2953
VHTTP/1.1
p2954
ssa(dp2955
Vcomment
p2956
g4
sVserverIPAddress
p2957
V216.58.216.196
p2958
sVpageref
p2959
VDog
p2960
sVstartedDateTime
p2961
V2017-04-16T08:15:10.631-05:00
p2962
sVcache
p2963
(dp2964
sVrequest
p2965
(dp2966
Vcomment
p2967
g4
sVcookies
p2968
(lp2969
sVurl
p2970
Vhttps://www.google.com/async/log_amp_item_set?vet=10ahUKEwj01KC2h6nTAhXr6YMKHVX8CicQooQBCAE..i&ei=W27zWOmQAsHPjwTX2qfwAQ&yv=2&async=num_items:1,_fmt:jspb
p2971
sVqueryString
p2972
(lp2973
(dp2974
Vname
p2975
Vvet
p2976
sVvalue
p2977
V10ahUKEwj01KC2h6nTAhXr6YMKHVX8CicQooQBCAE..i
p2978
sa(dp2979
Vname
p2980
Vei
p2981
sVvalue
p2982
VW27zWOmQAsHPjwTX2qfwAQ
p2983
sa(dp2984
Vname
p2985
Vyv
p2986
sVvalue
p2987
g49
sa(dp2988
Vname
p2989
Vasync
p2990
sVvalue
p2991
Vnum_items:1,_fmt:jspb
p2992
sasVheaders
p2993
(lp2994
sVheadersSize
p2995
I670
sVbodySize
p2996
I0
sVmethod
p2997
VGET
p2998
sVhttpVersion
p2999
VHTTP/1.1
p3000
ssVtimings
p3001
(dp3002
Vcomment
p3003
g4
sVreceive
p3004
I0
sVsend
p3005
I0
sVssl
p3006
I-1
sVconnect
p3007
I-1
sVdns
p3008
I-1
sVwait
p3009
I32
sVblocked
p3010
I-1
ssVtime
p3011
I32
sVresponse
p3012
(dp3013
Vstatus
p3014
I200
sVcomment
p3015
g4
sVcookies
p3016
(lp3017
sVstatusText
p3018
VOK
p3019
sVcontent
p3020
(dp3021
VmimeType
p3022
Vapplication/json; charset=UTF-8
p3023
sVcomment
p3024
g4
sVsize
p3025
I0
ssVheaders
p3026
(lp3027
sVheadersSize
p3028
I417
sVredirectURL
p3029
g4
sVbodySize
p3030
I132
sVhttpVersion
p3031
VHTTP/1.1
p3032
ssa(dp3033
Vcomment
p3034
g4
sVserverIPAddress
p3035
V216.58.216.196
p3036
sVpageref
p3037
VDog
p3038
sVstartedDateTime
p3039
V2017-04-16T08:15:10.884-05:00
p3040
sVcache
p3041
(dp3042
sVrequest
p3043
(dp3044
Vcomment
p3045
g4
sVcookies
p3046
(lp3047
sVurl
p3048
Vhttps://www.google.com/maps/vt/data=RfCSdfNZ0LFPrHSm0ublXdzhdrDFhtmHhN1u-gM,fjfAQSkZi7pPhcwy15qH1llR1vfhELU2CJH4kRBiQ14XVx_gnR541DfJpjTUzI2vKh4NrjshlpXTQeQze4xumjfIFvGt3WTx76jpeS2CKziTxu7blH-klcC_SNTlxCiRtNbK-_LFSQdsXChHsKWZ9728gvLZeZzBgBbLZDTe61uN-lOSv6VfdQ4OHba_-mMvkubYtgjCu0aKXbsQei_8-dLkE4-rVsCBfxTNMVFEZsXgW0wkFR6OUy-ByttU7biDwMfvGJZjldLhhiqx2Rk1d3UJwZbiHYnjBaPbCYsupJiC4oa-5v6Z2G_2yGfiyJnhPmg3Q9pFOaRRiwDd3TafTLtcipAVFNO4XKRuqD7mRTpUPNxEKhNN8E8N2ONgYOXiFSv1ie7PBRA0tq7-i2d0X8XWkNsm-h3YFmd-IGYIJCBDeY6Dz0MTKD1ANgbxhQ89goFH4vPQOrXvt_6Dmut6icVcnPrtds9Wfi00UcNwU2wAVhWMW7Pt7bjHfJOK-61R8U8S3uccGNvqZy7gFeVuno3uHawkBcgS_uQrZ1oLs0fWHGQISGaBvzdQ2QzmrbyzzNOYHzk-DAq7ork_syHFdgQrdbsegb_tLnMGWfVkhehGDT8zlNDdD4xf67JqU7iUM81EIhgKz7nDAg_uqMY6jVP7w9jM8hXrXxQNdTgqjJs5iLREa__b5wRHkoTX-cS20_1JcwY7,spt0xCSy-wzxzCsmYH6q-6Xav2E?h=120&w=1024&scale=2
p3049
sVqueryString
p3050
(lp3051
(dp3052
Vname
p3053
Vh
p3054
sVvalue
p3055
V120
p3056
sa(dp3057
Vname
p3058
Vw
p3059
sVvalue
p3060
V1024
p3061
sa(dp3062
Vname
p3063
Vscale
p3064
sVvalue
p3065
g49
sasVheaders
p3066
(lp3067
sVheadersSize
p3068
I1354
sVbodySize
p3069
I0
sVmethod
p3070
VGET
p3071
sVhttpVersion
p3072
VHTTP/1.1
p3073
ssVtimings
p3074
(dp3075
Vcomment
p3076
g4
sVreceive
p3077
I1
sVsend
p3078
I0
sVssl
p3079
I-1
sVconnect
p3080
I-1
sVdns
p3081
I-1
sVwait
p3082
I81
sVblocked
p3083
I-1
ssVtime
p3084
I83
sVresponse
p3085
(dp3086
Vstatus
p3087
I200
sVcomment
p3088
g4
sVcookies
p3089
(lp3090
sVstatusText
p3091
VOK
p3092
sVcontent
p3093
(dp3094
VmimeType
p3095
Vimage/png
p3096
sVcomment
p3097
g4
sVsize
p3098
I0
ssVheaders
p3099
(lp3100
sVheadersSize
p3101
I479
sVredirectURL
p3102
g4
sVbodySize
p3103
I20165
sVhttpVersion
p3104
VHTTP/1.1
p3105
ssa(dp3106
Vcomment
p3107
g4
sVserverIPAddress
p3108
V216.58.216.196
p3109
sVpageref
p3110
VDog
p3111
sVstartedDateTime
p3112
V2017-04-16T08:15:10.891-05:00
p3113
sVcache
p3114
(dp3115
sVrequest
p3116
(dp3117
Vcomment
p3118
g4
sVcookies
p3119
(lp3120
sVurl
p3121
Vhttps://www.google.com/xjs/_/js/k=xjs.qs.en_US.pCBXVCvTH3s.O/m=sy80,sy7m,sy8l,sy84,sy7r,sy7v,sy8q,sy7x,sy86,sy8k,sy8t,sy7g,sy9u,sy7n,sy3b,sycx,syew,syi6,syi9,syi7,syi8,syia,hcar,sy6a,sy6b,kch,sy6d,ltgt,syim,lubh,lurq,lusa,mmt,mpc,pv,sya0,syig,syif,syih,sttu,uvl/am=gCP4LtMEBXQA2RUaq_oFBISzAFA/rt=j/d=0/t=zcms/rs=ACT90oFwm4NZCwIcuuiqmthdlECdBzkhRA
p3122
sVqueryString
p3123
(lp3124
sVheaders
p3125
(lp3126
sVheadersSize
p3127
I863
sVbodySize
p3128
I0
sVmethod
p3129
VGET
p3130
sVhttpVersion
p3131
VHTTP/1.1
p3132
ssVtimings
p3133
(dp3134
Vcomment
p3135
g4
sVreceive
p3136
I10
sVsend
p3137
I0
sVssl
p3138
I-1
sVconnect
p3139
I-1
sVdns
p3140
I-1
sVwait
p3141
I14
sVblocked
p3142
I-1
ssVtime
p3143
I25
sVresponse
p3144
(dp3145
Vstatus
p3146
I200
sVcomment
p3147
g4
sVcookies
p3148
(lp3149
sVstatusText
p3150
VOK
p3151
sVcontent
p3152
(dp3153
VmimeType
p3154
Vtext/javascript; charset=UTF-8
p3155
sVcomment
p3156
g4
sVsize
p3157
I0
ssVheaders
p3158
(lp3159
sVheadersSize
p3160
I464
sVredirectURL
p3161
g4
sVbodySize
p3162
I34322
sVhttpVersion
p3163
VHTTP/1.1
p3164
ssa(dp3165
Vcomment
p3166
g4
sVserverIPAddress
p3167
V216.58.216.196
p3168
sVpageref
p3169
VDog
p3170
sVstartedDateTime
p3171
V2017-04-16T08:15:11.102-05:00
p3172
sVcache
p3173
(dp3174
sVrequest
p3175
(dp3176
Vcomment
p3177
g4
sVcookies
p3178
(lp3179
sVurl
p3180
Vhttps://www.google.com/maps/vt/data=RfCSdfNZ0LFPrHSm0ublXdzhdrDFhtmHhN1u-gM,fjfAQSkZi7pPhcwy15qH1llR1vfhELU2CJH4kRBiQ14XVx_gnR541DfJpjTUzI2vKh4NrjshlpXTQeQze4xumjfIFvGt3WTx76jpeS2CKziTxu7blH-klcC_SNTlxCiRtNbK-_LFSQdsXChHsKWZ9728gvLZeZzBgBbLZDTe61uN-lOSv6VfdQ4OHba_-mMvkubYtgjCu0aKXbsQei_8-dLkE4-rVsCBfxTNMVFEZsXgW0wkFR6OUy-ByttU7biDwMfvGJZjldLhhiqx2Rk1d3UJwZbiHYnjBaPbCYsupJiC4oa-5v6Z2G_2yGfiyJnhPmg3Q9pFOaRRiwDd3TafTLtcipAVFNO4XKRuqD7mRTpUPNxEKhNN8E8N2ONgYOXiFSv1ie7PBRA0tq7-i2d0X8XWkNsm-h3YFmd-IGYIJCBDeY6Dz0MTKD1ANgbxhQ89goFH4vPQOrXvt_6Dmut6icVcnPrtds9Wfi00UcNwU2wAVhWMW7Pt7bjHfJOK-61R8U8S3uccGNvqZy7gFeVuno3uHawkBcgS_uQrZ1oLs0fWHGQISGaBvzdQ2QzmrbyzzNOYHzk-DAq7ork_syHFdgQrdbsegb_tLnMGWfVkhehGDT8zlNDdD4xf67JqU7iUM81EIhgKz7nDAg_uqMY6jVP7w9jM8hXrXxQNdTgqjJs5iLREa__b5wRHkoTX-cS20_1JcwY7,swES-JbB3NYka1H69BK05ngjxY8?h=120&w=1265&scale=1
p3181
sVqueryString
p3182
(lp3183
(dp3184
Vname
p3185
g3054
sVvalue
p3186
V120
p3187
sa(dp3188
Vname
p3189
g3059
sVvalue
p3190
V1265
p3191
sa(dp3192
Vname
p3193
Vscale
p3194
sVvalue
p3195
g270
sasVheaders
p3196
(lp3197
sVheadersSize
p3198
I1354
sVbodySize
p3199
I0
sVmethod
p3200
VGET
p3201
sVhttpVersion
p3202
VHTTP/1.1
p3203
ssVtimings
p3204
(dp3205
Vcomment
p3206
g4
sVreceive
p3207
I2
sVsend
p3208
I0
sVssl
p3209
I-1
sVconnect
p3210
I-1
sVdns
p3211
I-1
sVwait
p3212
I71
sVblocked
p3213
I-1
ssVtime
p3214
I73
sVresponse
p3215
(dp3216
Vstatus
p3217
I200
sVcomment
p3218
g4
sVcookies
p3219
(lp3220
sVstatusText
p3221
VOK
p3222
sVcontent
p3223
(dp3224
VmimeType
p3225
Vimage/png
p3226
sVcomment
p3227
g4
sVsize
p3228
I0
ssVheaders
p3229
(lp3230
sVheadersSize
p3231
I479
sVredirectURL
p3232
g4
sVbodySize
p3233
I17361
sVhttpVersion
p3234
VHTTP/1.1
p3235
ssa(dp3236
Vcomment
p3237
g4
sVserverIPAddress
p3238
V216.58.216.193
p3239
sVpageref
p3240
VDog
p3241
sVstartedDateTime
p3242
V2017-04-16T08:15:11.117-05:00
p3243
sVcache
p3244
(dp3245
sVrequest
p3246
(dp3247
Vcomment
p3248
g4
sVcookies
p3249
(lp3250
sVurl
p3251
Vhttps://fox40-com.cdn.ampproject.org/v/fox40.com/2017/04/15/stockton-animal-shelter-temporarily-closes-due-to-potentially-deadly-dog-disease/amp/?amp_js_v=9
p3252
sVqueryString
p3253
(lp3254
(dp3255
Vname
p3256
Vamp_js_v
p3257
sVvalue
p3258
V9
p3259
sasVheaders
p3260
(lp3261
sVheadersSize
p3262
I561
sVbodySize
p3263
I0
sVmethod
p3264
VGET
p3265
sVhttpVersion
p3266
VHTTP/1.1
p3267
ssVtimings
p3268
(dp3269
Vcomment
p3270
g4
sVreceive
p3271
I3
sVsend
p3272
I0
sVssl
p3273
I412
sVconnect
p3274
I427
sVdns
p3275
I46
sVwait
p3276
I53
sVblocked
p3277
I0
ssVtime
p3278
I530
sVresponse
p3279
(dp3280
Vstatus
p3281
I200
sVcomment
p3282
g4
sVcookies
p3283
(lp3284
sVstatusText
p3285
VOK
p3286
sVcontent
p3287
(dp3288
VmimeType
p3289
Vtext/html
p3290
sVcomment
p3291
g4
sVsize
p3292
I0
ssVheaders
p3293
(lp3294
sVheadersSize
p3295
I861
sVredirectURL
p3296
g4
sVbodySize
p3297
I4599
sVhttpVersion
p3298
VHTTP/1.1
p3299
ssa(dp3300
Vcomment
p3301
g4
sVserverIPAddress
p3302
V216.58.216.202
p3303
sVpageref
p3304
VDog
p3305
sVstartedDateTime
p3306
V2017-04-16T08:15:11.197-05:00
p3307
sVcache
p3308
(dp3309
sVrequest
p3310
(dp3311
Vcomment
p3312
g4
sVcookies
p3313
(lp3314
sVurl
p3315
Vhttps://fonts.googleapis.com/css?family=Lato:300,400,700,900,100italic,300italic,400italic,700italic,900italic%7CMontserrat:400,700%7COpen+Sans+Condensed:700
p3316
sVqueryString
p3317
(lp3318
(dp3319
Vname
p3320
Vfamily
p3321
sVvalue
p3322
VLato:300,400,700,900,100italic,300italic,400italic,700italic,900italic|Montserrat:400,700|Open Sans Condensed:700
p3323
sasVheaders
p3324
(lp3325
sVheadersSize
p3326
I620
sVbodySize
p3327
I0
sVmethod
p3328
VGET
p3329
sVhttpVersion
p3330
VHTTP/1.1
p3331
ssVtimings
p3332
(dp3333
Vcomment
p3334
g4
sVreceive
p3335
I0
sVsend
p3336
I0
sVssl
p3337
I-1
sVconnect
p3338
I-1
sVdns
p3339
I-1
sVwait
p3340
I41
sVblocked
p3341
I-1
ssVtime
p3342
I42
sVresponse
p3343
(dp3344
Vstatus
p3345
I200
sVcomment
p3346
g4
sVcookies
p3347
(lp3348
sVstatusText
p3349
VOK
p3350
sVcontent
p3351
(dp3352
VmimeType
p3353
Vtext/css; charset=utf-8
p3354
sVcomment
p3355
g4
sVsize
p3356
I0
ssVheaders
p3357
(lp3358
sVheadersSize
p3359
I405
sVredirectURL
p3360
g4
sVbodySize
p3361
I1492
sVhttpVersion
p3362
VHTTP/1.1
p3363
ssa(dp3364
Vcomment
p3365
g4
sVserverIPAddress
p3366
V216.58.216.196
p3367
sVpageref
p3368
VDog
p3369
sVstartedDateTime
p3370
V2017-04-16T08:15:11.200-05:00
p3371
sVcache
p3372
(dp3373
sVrequest
p3374
(dp3375
Vcomment
p3376
g4
sVcookies
p3377
(lp3378
sVurl
p3379
Vhttps://www.google.com/gen_204/local?ei=W27zWOmQAsHPjwTX2qfwAQ&tm_n=lcsm&tm=316
p3380
sVqueryString
p3381
(lp3382
(dp3383
Vname
p3384
Vei
p3385
sVvalue
p3386
VW27zWOmQAsHPjwTX2qfwAQ
p3387
sa(dp3388
Vname
p3389
Vtm_n
p3390
sVvalue
p3391
Vlcsm
p3392
sa(dp3393
Vname
p3394
Vtm
p3395
sVvalue
p3396
V316
p3397
sasVheaders
p3398
(lp3399
sVheadersSize
p3400
I843
sVbodySize
p3401
I0
sVmethod
p3402
VPOST
p3403
sVhttpVersion
p3404
VHTTP/1.1
p3405
ssVtimings
p3406
(dp3407
Vcomment
p3408
g4
sVreceive
p3409
I0
sVsend
p3410
I0
sVssl
p3411
I-1
sVconnect
p3412
I-1
sVdns
p3413
I-1
sVwait
p3414
I37
sVblocked
p3415
I-1
ssVtime
p3416
I37
sVresponse
p3417
(dp3418
Vstatus
p3419
I204
sVcomment
p3420
g4
sVcookies
p3421
(lp3422
sVstatusText
p3423
VNo Content
p3424
sVcontent
p3425
(dp3426
VmimeType
p3427
Vtext/html; charset=UTF-8
p3428
sVcomment
p3429
g4
sVsize
p3430
I0
ssVheaders
p3431
(lp3432
sVheadersSize
p3433
I290
sVredirectURL
p3434
g4
sVbodySize
p3435
I0
sVhttpVersion
p3436
VHTTP/1.1
p3437
ssa(dp3438
Vcomment
p3439
g4
sVserverIPAddress
p3440
V216.58.216.195
p3441
sVpageref
p3442
VDog
p3443
sVstartedDateTime
p3444
V2017-04-16T08:15:11.326-05:00
p3445
sVcache
p3446
(dp3447
sVrequest
p3448
(dp3449
Vcomment
p3450
g4
sVcookies
p3451
(lp3452
sVurl
p3453
Vhttps://fonts.gstatic.com/s/lato/v13/22JRxvfANxSmnAhzbFH8PgLUuEpTyoUstqEm5AMlJo4.woff2
p3454
sVqueryString
p3455
(lp3456
sVheaders
p3457
(lp3458
sVheadersSize
p3459
I635
sVbodySize
p3460
I0
sVmethod
p3461
VGET
p3462
sVhttpVersion
p3463
VHTTP/1.1
p3464
ssVtimings
p3465
(dp3466
Vcomment
p3467
g4
sVreceive
p3468
I2
sVsend
p3469
I0
sVssl
p3470
I22
sVconnect
p3471
I35
sVdns
p3472
I5
sVwait
p3473
I18
sVblocked
p3474
I0
ssVtime
p3475
I62
sVresponse
p3476
(dp3477
Vstatus
p3478
I200
sVcomment
p3479
g4
sVcookies
p3480
(lp3481
sVstatusText
p3482
VOK
p3483
sVcontent
p3484
(dp3485
VmimeType
p3486
Vfont/woff2
p3487
sVcomment
p3488
g4
sVsize
p3489
I0
ssVheaders
p3490
(lp3491
sVheadersSize
p3492
I453
sVredirectURL
p3493
g4
sVbodySize
p3494
I13680
sVhttpVersion
p3495
VHTTP/1.1
p3496
ssa(dp3497
Vcomment
p3498
g4
sVserverIPAddress
p3499
V216.58.216.195
p3500
sVpageref
p3501
VDog
p3502
sVstartedDateTime
p3503
V2017-04-16T08:15:11.332-05:00
p3504
sVcache
p3505
(dp3506
sVrequest
p3507
(dp3508
Vcomment
p3509
g4
sVcookies
p3510
(lp3511
sVurl
p3512
Vhttps://fonts.gstatic.com/s/opensanscondensed/v10/gk5FxslNkTTHtojXrkp-xIgEy7irt_A5K-aDq9kG7DHr7w4p9aSvGirXi6XmeXNA.woff2
p3513
sVqueryString
p3514
(lp3515
sVheaders
p3516
(lp3517
sVheadersSize
p3518
I669
sVbodySize
p3519
I0
sVmethod
p3520
VGET
p3521
sVhttpVersion
p3522
VHTTP/1.1
p3523
ssVtimings
p3524
(dp3525
Vcomment
p3526
g4
sVreceive
p3527
I0
sVsend
p3528
I0
sVssl
p3529
I23
sVconnect
p3530
I41
sVdns
p3531
I4
sVwait
p3532
I14
sVblocked
p3533
I0
ssVtime
p3534
I61
sVresponse
p3535
(dp3536
Vstatus
p3537
I200
sVcomment
p3538
g4
sVcookies
p3539
(lp3540
sVstatusText
p3541
VOK
p3542
sVcontent
p3543
(dp3544
VmimeType
p3545
Vfont/woff2
p3546
sVcomment
p3547
g4
sVsize
p3548
I0
ssVheaders
p3549
(lp3550
sVheadersSize
p3551
I454
sVredirectURL
p3552
g4
sVbodySize
p3553
I11060
sVhttpVersion
p3554
VHTTP/1.1
p3555
ssa(dp3556
Vcomment
p3557
g4
sVserverIPAddress
p3558
V216.58.216.193
p3559
sVpageref
p3560
VDog
p3561
sVstartedDateTime
p3562
V2017-04-16T08:15:11.664-05:00
p3563
sVcache
p3564
(dp3565
sVrequest
p3566
(dp3567
Vcomment
p3568
g4
sVcookies
p3569
(lp3570
sVurl
p3571
Vhttps://s0-wp-com.cdn.ampproject.org/ii/w330/s/s0.wp.com/wp-content/themes/vip/localtv-2/img/ktxl/logo@2x.png
p3572
sVqueryString
p3573
(lp3574
sVheaders
p3575
(lp3576
sVheadersSize
p3577
I557
sVbodySize
p3578
I0
sVmethod
p3579
VGET
p3580
sVhttpVersion
p3581
VHTTP/1.1
p3582
ssVtimings
p3583
(dp3584
Vcomment
p3585
g4
sVreceive
p3586
I1
sVsend
p3587
I0
sVssl
p3588
I269
sVconnect
p3589
I286
sVdns
p3590
I46
sVwait
p3591
I25
sVblocked
p3592
I0
ssVtime
p3593
I361
sVresponse
p3594
(dp3595
Vstatus
p3596
I200
sVcomment
p3597
g4
sVcookies
p3598
(lp3599
sVstatusText
p3600
VOK
p3601
sVcontent
p3602
(dp3603
VmimeType
p3604
Vimage/png
p3605
sVcomment
p3606
g4
sVsize
p3607
I0
ssVheaders
p3608
(lp3609
sVheadersSize
p3610
I824
sVredirectURL
p3611
g4
sVbodySize
p3612
I8005
sVhttpVersion
p3613
VHTTP/1.1
p3614
ssa(dp3615
Vcomment
p3616
g4
sVserverIPAddress
p3617
V216.58.216.196
p3618
sVpageref
p3619
VDog
p3620
sVstartedDateTime
p3621
V2017-04-16T08:15:12.314-05:00
p3622
sVcache
p3623
(dp3624
sVrequest
p3625
(dp3626
Vcomment
p3627
g4
sVcookies
p3628
(lp3629
sVurl
p3630
Vhttps://www.google.com/gen_204?atyp=i&ct=slh&cad=&ei=R27zWPCZFaXGjwT-jYvIAw&s=2&v=2&pv=0.07210373363463751&me=18:1492348492519,V,0,0,0,0:14944,e,U&zx=1492348512311
p3631
sVqueryString
p3632
(lp3633
(dp3634
Vname
p3635
Vatyp
p3636
sVvalue
p3637
g30
sa(dp3638
Vname
p3639
Vct
p3640
sVvalue
p3641
Vslh
p3642
sa(dp3643
Vname
p3644
Vcad
p3645
sVvalue
p3646
g4
sa(dp3647
Vname
p3648
Vei
p3649
sVvalue
p3650
VR27zWPCZFaXGjwT-jYvIAw
p3651
sa(dp3652
Vname
p3653
g47
sVvalue
p3654
g49
sa(dp3655
Vname
p3656
g52
sVvalue
p3657
g49
sa(dp3658
Vname
p3659
Vpv
p3660
sVvalue
p3661
V0.07210373363463751
p3662
sa(dp3663
Vname
p3664
Vme
p3665
sVvalue
p3666
V18:1492348492519,V,0,0,0,0:14944,e,U
p3667
sa(dp3668
Vname
p3669
Vzx
p3670
sVvalue
p3671
V1492348512311
p3672
sasVheaders
p3673
(lp3674
sVheadersSize
p3675
I680
sVbodySize
p3676
I0
sVmethod
p3677
VGET
p3678
sVhttpVersion
p3679
VHTTP/1.1
p3680
ssVtimings
p3681
(dp3682
Vcomment
p3683
g4
sVreceive
p3684
I0
sVsend
p3685
I0
sVssl
p3686
I-1
sVconnect
p3687
I-1
sVdns
p3688
I-1
sVwait
p3689
I34
sVblocked
p3690
I-1
ssVtime
p3691
I34
sVresponse
p3692
(dp3693
Vstatus
p3694
I204
sVcomment
p3695
g4
sVcookies
p3696
(lp3697
sVstatusText
p3698
VNo Content
p3699
sVcontent
p3700
(dp3701
VmimeType
p3702
Vtext/html; charset=UTF-8
p3703
sVcomment
p3704
g4
sVsize
p3705
I0
ssVheaders
p3706
(lp3707
sVheadersSize
p3708
I248
sVredirectURL
p3709
g4
sVbodySize
p3710
I0
sVhttpVersion
p3711
VHTTP/1.1
p3712
ssasVversion
p3713
V1.2
p3714
sVpages
p3715
(lp3716
(dp3717
VpageTimings
p3718
(dp3719
Vcomment
p3720
g4
ssVcomment
p3721
g4
sVtitle
p3722
VDog
p3723
sVid
p3724
VDog
p3725
sVstartedDateTime
p3726
V2017-04-16T08:15:07.457-05:00
p3727
sasVcreator
p3728
(dp3729
Vcomment
p3730
g4
sVversion
p3731
V2.1.4
p3732
sVname
p3733
VBrowserMob Proxy
p3734
sss.