(dp0
Vlog
p1
(dp2
Vcomment
p3
V
p4
sVentries
p5
(lp6
(dp7
Vcomment
p8
g4
sVserverIPAddress
p9
V216.58.216.196
p10
sVpageref
p11
VOrlando Shooting
p12
sVstartedDateTime
p13
V2017-04-16T07:59:42.003-05:00
p14
sVcache
p15
(dp16
sVrequest
p17
(dp18
Vcomment
p19
g4
sVcookies
p20
(lp21
sVurl
p22
Vhttps://www.google.com/gen_204?atyp=i&ct=slh&cad=&ei=rGrzWNqBBsGfjwT8naKYBQ&s=2&v=2&pv=0.8656908683658006&me=18:1492347572904,V,0,0,0,0:9097,e,U&zx=1492347582002
p23
sVqueryString
p24
(lp25
(dp26
Vname
p27
Vatyp
p28
sVvalue
p29
Vi
p30
sa(dp31
Vname
p32
Vct
p33
sVvalue
p34
Vslh
p35
sa(dp36
Vname
p37
Vcad
p38
sVvalue
p39
g4
sa(dp40
Vname
p41
Vei
p42
sVvalue
p43
VrGrzWNqBBsGfjwT8naKYBQ
p44
sa(dp45
Vname
p46
Vs
p47
sVvalue
p48
V2
p49
sa(dp50
Vname
p51
Vv
p52
sVvalue
p53
g49
sa(dp54
Vname
p55
Vpv
p56
sVvalue
p57
V0.8656908683658006
p58
sa(dp59
Vname
p60
Vme
p61
sVvalue
p62
V18:1492347572904,V,0,0,0,0:9097,e,U
p63
sa(dp64
Vname
p65
Vzx
p66
sVvalue
p67
V1492347582002
p68
sasVheaders
p69
(lp70
sVheadersSize
p71
I678
sVbodySize
p72
I0
sVmethod
p73
VGET
p74
sVhttpVersion
p75
VHTTP/1.1
p76
ssVtimings
p77
(dp78
Vcomment
p79
g4
sVreceive
p80
I0
sVsend
p81
I0
sVssl
p82
I-1
sVconnect
p83
I-1
sVdns
p84
I-1
sVwait
p85
I0
sVblocked
p86
I-1
ssVtime
p87
I0
sVresponse
p88
(dp89
Vstatus
p90
I0
sVcomment
p91
g4
sVcookies
p92
(lp93
sV_error
p94
VNo response received
p95
sVstatusText
p96
g4
sVcontent
p97
(dp98
VmimeType
p99
g4
sVcomment
p100
g4
sVsize
p101
I0
ssVheaders
p102
(lp103
sVheadersSize
p104
I-1
sVredirectURL
p105
g4
sVbodySize
p106
I-1
sVhttpVersion
p107
Vunknown
p108
ssa(dp109
Vcomment
p110
g4
sVserverIPAddress
p111
V216.58.216.196
p112
sVpageref
p113
VOrlando Shooting
p114
sVstartedDateTime
p115
V2017-04-16T07:59:42.006-05:00
p116
sVcache
p117
(dp118
sVrequest
p119
(dp120
Vcomment
p121
g4
sVcookies
p122
(lp123
sVurl
p124
Vhttp://www.google.com/
p125
sVqueryString
p126
(lp127
sVheaders
p128
(lp129
sVheadersSize
p130
I613
sVbodySize
p131
I0
sVmethod
p132
VGET
p133
sVhttpVersion
p134
VHTTP/1.1
p135
ssVtimings
p136
(dp137
Vcomment
p138
g4
sVreceive
p139
I0
sVsend
p140
I0
sVssl
p141
I-1
sVconnect
p142
I-1
sVdns
p143
I-1
sVwait
p144
I37
sVblocked
p145
I-1
ssVtime
p146
I37
sVresponse
p147
(dp148
Vstatus
p149
I302
sVcomment
p150
g4
sVcookies
p151
(lp152
sVstatusText
p153
VFound
p154
sVcontent
p155
(dp156
VmimeType
p157
Vtext/html; charset=UTF-8
p158
sVcomment
p159
g4
sVsize
p160
I0
ssVheaders
p161
(lp162
sVheadersSize
p163
I609
sVredirectURL
p164
Vhttps://www.google.com/?gws_rd=ssl
p165
sVbodySize
p166
I231
sVhttpVersion
p167
VHTTP/1.1
p168
ssa(dp169
Vcomment
p170
g4
sVserverIPAddress
p171
V216.58.216.196
p172
sVpageref
p173
VOrlando Shooting
p174
sVstartedDateTime
p175
V2017-04-16T07:59:42.047-05:00
p176
sVcache
p177
(dp178
sVrequest
p179
(dp180
Vcomment
p181
g4
sVcookies
p182
(lp183
sVurl
p184
Vhttps://www.google.com/?gws_rd=ssl
p185
sVqueryString
p186
(lp187
(dp188
Vname
p189
Vgws_rd
p190
sVvalue
p191
Vssl
p192
sasVheaders
p193
(lp194
sVheadersSize
p195
I607
sVbodySize
p196
I0
sVmethod
p197
VGET
p198
sVhttpVersion
p199
VHTTP/1.1
p200
ssVtimings
p201
(dp202
Vcomment
p203
g4
sVreceive
p204
I23
sVsend
p205
I0
sVssl
p206
I-1
sVconnect
p207
I-1
sVdns
p208
I-1
sVwait
p209
I77
sVblocked
p210
I-1
ssVtime
p211
I101
sVresponse
p212
(dp213
Vstatus
p214
I200
sVcomment
p215
g4
sVcookies
p216
(lp217
sVstatusText
p218
VOK
p219
sVcontent
p220
(dp221
VmimeType
p222
Vtext/html; charset=UTF-8
p223
sVcomment
p224
g4
sVsize
p225
I0
ssVheaders
p226
(lp227
sVheadersSize
p228
I721
sVredirectURL
p229
g4
sVbodySize
p230
I34294
sVhttpVersion
p231
VHTTP/1.1
p232
ssa(dp233
Vcomment
p234
g4
sVserverIPAddress
p235
V216.58.216.196
p236
sVpageref
p237
VOrlando Shooting
p238
sVstartedDateTime
p239
V2017-04-16T07:59:42.301-05:00
p240
sVcache
p241
(dp242
sVrequest
p243
(dp244
Vcomment
p245
g4
sVcookies
p246
(lp247
sVurl
p248
Vhttps://www.google.com/gen_204?s=mobilewebhp&atyp=csi&ei=vWrzWImCBIePjwSg2JqYCg&imc=1&imn=1&imp=0&adh=&xjs=init.26.12.sb_mob.17.dvl.4.c.1.jsa.1.mbsf.1&ima=1&rt=xjsls.12,prt.13,iml.13,dcl.29,xjses.65,xjsee.132,xjs.133,ol.159,aft.13,wsrt.138,cst.0,dnst.0,rqst.102,rspt.23,rqstt.45,unt.44,cstt.44,dit.160
p249
sVqueryString
p250
(lp251
(dp252
Vname
p253
g47
sVvalue
p254
Vmobilewebhp
p255
sa(dp256
Vname
p257
Vatyp
p258
sVvalue
p259
Vcsi
p260
sa(dp261
Vname
p262
Vei
p263
sVvalue
p264
VvWrzWImCBIePjwSg2JqYCg
p265
sa(dp266
Vname
p267
Vimc
p268
sVvalue
p269
V1
p270
sa(dp271
Vname
p272
Vimn
p273
sVvalue
p274
g270
sa(dp275
Vname
p276
Vimp
p277
sVvalue
p278
V0
p279
sa(dp280
Vname
p281
Vadh
p282
sVvalue
p283
g4
sa(dp284
Vname
p285
Vxjs
p286
sVvalue
p287
Vinit.26.12.sb_mob.17.dvl.4.c.1.jsa.1.mbsf.1
p288
sa(dp289
Vname
p290
Vima
p291
sVvalue
p292
g270
sa(dp293
Vname
p294
Vrt
p295
sVvalue
p296
Vxjsls.12,prt.13,iml.13,dcl.29,xjses.65,xjsee.132,xjs.133,ol.159,aft.13,wsrt.138,cst.0,dnst.0,rqst.102,rspt.23,rqstt.45,unt.44,cstt.44,dit.160
p297
sasVheaders
p298
(lp299
sVheadersSize
p300
I829
sVbodySize
p301
I0
sVmethod
p302
VGET
p303
sVhttpVersion
p304
VHTTP/1.1
p305
ssVtimings
p306
(dp307
Vcomment
p308
g4
sVreceive
p309
I0
sVsend
p310
I0
sVssl
p311
I-1
sVconnect
p312
I-1
sVdns
p313
I-1
sVwait
p314
I31
sVblocked
p315
I-1
ssVtime
p316
I32
sVresponse
p317
(dp318
Vstatus
p319
I204
sVcomment
p320
g4
sVcookies
p321
(lp322
sVstatusText
p323
VNo Content
p324
sVcontent
p325
(dp326
VmimeType
p327
Vtext/html; charset=UTF-8
p328
sVcomment
p329
g4
sVsize
p330
I0
ssVheaders
p331
(lp332
sVheadersSize
p333
I248
sVredirectURL
p334
g4
sVbodySize
p335
I0
sVhttpVersion
p336
VHTTP/1.1
p337
ssa(dp338
Vcomment
p339
g4
sVserverIPAddress
p340
V216.58.216.196
p341
sVpageref
p342
VOrlando Shooting
p343
sVstartedDateTime
p344
V2017-04-16T07:59:42.420-05:00
p345
sVcache
p346
(dp347
sVrequest
p348
(dp349
Vcomment
p350
g4
sVcookies
p351
(lp352
sVurl
p353
Vhttps://www.google.com/complete/search?client=mobile-gws-hp&hl=en&gs_rn=64&gs_ri=mobile-gws-hp&sla=1&pfq=olympics&gm=602&cp=0&gs_id=1&xhr=t&q=O&tch=1&ech=1&psi=vWrzWImCBIePjwSg2JqYCg.1492347582249.1
p354
sVqueryString
p355
(lp356
(dp357
Vname
p358
Vclient
p359
sVvalue
p360
Vmobile-gws-hp
p361
sa(dp362
Vname
p363
Vhl
p364
sVvalue
p365
Ven
p366
sa(dp367
Vname
p368
Vgs_rn
p369
sVvalue
p370
V64
p371
sa(dp372
Vname
p373
Vgs_ri
p374
sVvalue
p375
Vmobile-gws-hp
p376
sa(dp377
Vname
p378
Vsla
p379
sVvalue
p380
g270
sa(dp381
Vname
p382
Vpfq
p383
sVvalue
p384
Volympics
p385
sa(dp386
Vname
p387
Vgm
p388
sVvalue
p389
V602
p390
sa(dp391
Vname
p392
Vcp
p393
sVvalue
p394
g279
sa(dp395
Vname
p396
Vgs_id
p397
sVvalue
p398
g270
sa(dp399
Vname
p400
Vxhr
p401
sVvalue
p402
Vt
p403
sa(dp404
Vname
p405
Vq
p406
sVvalue
p407
VO
p408
sa(dp409
Vname
p410
Vtch
p411
sVvalue
p412
g270
sa(dp413
Vname
p414
Vech
p415
sVvalue
p416
g270
sa(dp417
Vname
p418
Vpsi
p419
sVvalue
p420
VvWrzWImCBIePjwSg2JqYCg.1492347582249.1
p421
sasVheaders
p422
(lp423
sVheadersSize
p424
I726
sVbodySize
p425
I0
sVmethod
p426
VGET
p427
sVhttpVersion
p428
VHTTP/1.1
p429
ssVtimings
p430
(dp431
Vcomment
p432
g4
sVreceive
p433
I0
sVsend
p434
I0
sVssl
p435
I-1
sVconnect
p436
I-1
sVdns
p437
I-1
sVwait
p438
I0
sVblocked
p439
I-1
ssVtime
p440
I0
sVresponse
p441
(dp442
Vstatus
p443
I0
sVcomment
p444
g4
sVcookies
p445
(lp446
sV_error
p447
VNo response received
p448
sVstatusText
p449
g4
sVcontent
p450
(dp451
VmimeType
p452
g4
sVcomment
p453
g4
sVsize
p454
I0
ssVheaders
p455
(lp456
sVheadersSize
p457
I-1
sVredirectURL
p458
g4
sVbodySize
p459
I-1
sVhttpVersion
p460
Vunknown
p461
ssa(dp462
Vcomment
p463
g4
sVserverIPAddress
p464
V216.58.216.196
p465
sVpageref
p466
VOrlando Shooting
p467
sVstartedDateTime
p468
V2017-04-16T07:59:42.484-05:00
p469
sVcache
p470
(dp471
sVrequest
p472
(dp473
Vcomment
p474
g4
sVcookies
p475
(lp476
sVurl
p477
Vhttps://www.google.com/search?site=&source=hp&ei=vWrzWImCBIePjwSg2JqYCg&q=Orlando+Shooting&oq=Orlando+Shooting&gs_l=mobile-gws-hp.3...153.190.0.213.16.1.0.0.0.0.0.0..0.0....0...1c.1.64.mobile-gws-hp..16.0.0.YK6xd62EOlg
p478
sVqueryString
p479
(lp480
(dp481
Vname
p482
Vsite
p483
sVvalue
p484
g4
sa(dp485
Vname
p486
Vsource
p487
sVvalue
p488
Vhp
p489
sa(dp490
Vname
p491
Vei
p492
sVvalue
p493
VvWrzWImCBIePjwSg2JqYCg
p494
sa(dp495
Vname
p496
g406
sVvalue
p497
VOrlando Shooting
p498
sa(dp499
Vname
p500
Voq
p501
sVvalue
p502
VOrlando Shooting
p503
sa(dp504
Vname
p505
Vgs_l
p506
sVvalue
p507
Vmobile-gws-hp.3...153.190.0.213.16.1.0.0.0.0.0.0..0.0....0...1c.1.64.mobile-gws-hp..16.0.0.YK6xd62EOlg
p508
sasVheaders
p509
(lp510
sVheadersSize
p511
I836
sVbodySize
p512
I0
sVmethod
p513
VGET
p514
sVhttpVersion
p515
VHTTP/1.1
p516
ssVtimings
p517
(dp518
Vcomment
p519
g4
sVreceive
p520
I939
sVsend
p521
I0
sVssl
p522
I-1
sVconnect
p523
I-1
sVdns
p524
I-1
sVwait
p525
I84
sVblocked
p526
I-1
ssVtime
p527
I1024
sVresponse
p528
(dp529
Vstatus
p530
I200
sVcomment
p531
g4
sVcookies
p532
(lp533
sVstatusText
p534
VOK
p535
sVcontent
p536
(dp537
VmimeType
p538
Vtext/html; charset=UTF-8
p539
sVcomment
p540
g4
sVsize
p541
I0
ssVheaders
p542
(lp543
sVheadersSize
p544
I363
sVredirectURL
p545
g4
sVbodySize
p546
I145132
sVhttpVersion
p547
VHTTP/1.1
p548
ssa(dp549
Vcomment
p550
g4
sVserverIPAddress
p551
V216.58.216.196
p552
sVpageref
p553
VOrlando Shooting
p554
sVstartedDateTime
p555
V2017-04-16T07:59:43.852-05:00
p556
sVcache
p557
(dp558
sVrequest
p559
(dp560
Vcomment
p561
g4
sVcookies
p562
(lp563
sVurl
p564
Vhttps://www.google.com/async/irc?vet=10ahUKEwj5uOj7g6nTAhVn04MKHd0PBnMQo0EI3gE..i&ved=0ahUKEwj5uOj7g6nTAhVn04MKHd0PBnMQo0EI3gE&ei=vWrzWLnmHuemjwTdn5iYBw&yv=2&async=iu:1,ved:0ahUKEwj5uOj7g6nTAhVn04MKHd0PBnMQo0EI3gE,_id:irc_async,_pms:qs
p565
sVqueryString
p566
(lp567
(dp568
Vname
p569
Vvet
p570
sVvalue
p571
V10ahUKEwj5uOj7g6nTAhVn04MKHd0PBnMQo0EI3gE..i
p572
sa(dp573
Vname
p574
Vved
p575
sVvalue
p576
V0ahUKEwj5uOj7g6nTAhVn04MKHd0PBnMQo0EI3gE
p577
sa(dp578
Vname
p579
Vei
p580
sVvalue
p581
VvWrzWLnmHuemjwTdn5iYBw
p582
sa(dp583
Vname
p584
Vyv
p585
sVvalue
p586
g49
sa(dp587
Vname
p588
Vasync
p589
sVvalue
p590
Viu:1,ved:0ahUKEwj5uOj7g6nTAhVn04MKHd0PBnMQo0EI3gE,_id:irc_async,_pms:qs
p591
sasVheaders
p592
(lp593
sVheadersSize
p594
I752
sVbodySize
p595
I0
sVmethod
p596
VGET
p597
sVhttpVersion
p598
VHTTP/1.1
p599
ssVtimings
p600
(dp601
Vcomment
p602
g4
sVreceive
p603
I1
sVsend
p604
I0
sVssl
p605
I-1
sVconnect
p606
I-1
sVdns
p607
I-1
sVwait
p608
I37
sVblocked
p609
I-1
ssVtime
p610
I39
sVresponse
p611
(dp612
Vstatus
p613
I200
sVcomment
p614
g4
sVcookies
p615
(lp616
sVstatusText
p617
VOK
p618
sVcontent
p619
(dp620
VmimeType
p621
Vtext/html; charset=UTF-8
p622
sVcomment
p623
g4
sVsize
p624
I0
ssVheaders
p625
(lp626
sVheadersSize
p627
I383
sVredirectURL
p628
g4
sVbodySize
p629
I7788
sVhttpVersion
p630
VHTTP/1.1
p631
ssa(dp632
Vcomment
p633
g4
sVserverIPAddress
p634
V216.58.216.196
p635
sVpageref
p636
VOrlando Shooting
p637
sVstartedDateTime
p638
V2017-04-16T07:59:43.865-05:00
p639
sVcache
p640
(dp641
sVrequest
p642
(dp643
Vcomment
p644
g4
sVcookies
p645
(lp646
sVurl
p647
Vhttps://www.google.com/gen_204?atyp=i&ct=&cad=&vet=10ahUKEwj5uOj7g6nTAhVn04MKHd0PBnMQ5W0IPSgC..s&ei=vWrzWLnmHuemjwTdn5iYBw&zx=1492347583864
p648
sVqueryString
p649
(lp650
(dp651
Vname
p652
Vatyp
p653
sVvalue
p654
g30
sa(dp655
Vname
p656
Vct
p657
sVvalue
p658
g4
sa(dp659
Vname
p660
Vcad
p661
sVvalue
p662
g4
sa(dp663
Vname
p664
Vvet
p665
sVvalue
p666
V10ahUKEwj5uOj7g6nTAhVn04MKHd0PBnMQ5W0IPSgC..s
p667
sa(dp668
Vname
p669
Vei
p670
sVvalue
p671
VvWrzWLnmHuemjwTdn5iYBw
p672
sa(dp673
Vname
p674
Vzx
p675
sVvalue
p676
V1492347583864
p677
sasVheaders
p678
(lp679
sVheadersSize
p680
I656
sVbodySize
p681
I0
sVmethod
p682
VGET
p683
sVhttpVersion
p684
VHTTP/1.1
p685
ssVtimings
p686
(dp687
Vcomment
p688
g4
sVreceive
p689
I0
sVsend
p690
I0
sVssl
p691
I-1
sVconnect
p692
I-1
sVdns
p693
I-1
sVwait
p694
I29
sVblocked
p695
I-1
ssVtime
p696
I29
sVresponse
p697
(dp698
Vstatus
p699
I204
sVcomment
p700
g4
sVcookies
p701
(lp702
sVstatusText
p703
VNo Content
p704
sVcontent
p705
(dp706
VmimeType
p707
Vtext/html; charset=UTF-8
p708
sVcomment
p709
g4
sVsize
p710
I0
ssVheaders
p711
(lp712
sVheadersSize
p713
I248
sVredirectURL
p714
g4
sVbodySize
p715
I0
sVhttpVersion
p716
VHTTP/1.1
p717
ssa(dp718
Vcomment
p719
g4
sVserverIPAddress
p720
V216.58.216.196
p721
sVpageref
p722
VOrlando Shooting
p723
sVstartedDateTime
p724
V2017-04-16T07:59:43.868-05:00
p725
sVcache
p726
(dp727
sVrequest
p728
(dp729
Vcomment
p730
g4
sVcookies
p731
(lp732
sVurl
p733
Vhttps://www.google.com/gen_204?atyp=i&ct=&cad=&vet=10ahUKEwj5uOj7g6nTAhVn04MKHd0PBnMQ5W0IQCgD..s&ei=vWrzWLnmHuemjwTdn5iYBw&zx=1492347583867
p734
sVqueryString
p735
(lp736
(dp737
Vname
p738
Vatyp
p739
sVvalue
p740
g30
sa(dp741
Vname
p742
Vct
p743
sVvalue
p744
g4
sa(dp745
Vname
p746
Vcad
p747
sVvalue
p748
g4
sa(dp749
Vname
p750
Vvet
p751
sVvalue
p752
V10ahUKEwj5uOj7g6nTAhVn04MKHd0PBnMQ5W0IQCgD..s
p753
sa(dp754
Vname
p755
Vei
p756
sVvalue
p757
VvWrzWLnmHuemjwTdn5iYBw
p758
sa(dp759
Vname
p760
Vzx
p761
sVvalue
p762
V1492347583867
p763
sasVheaders
p764
(lp765
sVheadersSize
p766
I656
sVbodySize
p767
I0
sVmethod
p768
VGET
p769
sVhttpVersion
p770
VHTTP/1.1
p771
ssVtimings
p772
(dp773
Vcomment
p774
g4
sVreceive
p775
I0
sVsend
p776
I0
sVssl
p777
I-1
sVconnect
p778
I-1
sVdns
p779
I-1
sVwait
p780
I36
sVblocked
p781
I-1
ssVtime
p782
I36
sVresponse
p783
(dp784
Vstatus
p785
I204
sVcomment
p786
g4
sVcookies
p787
(lp788
sVstatusText
p789
VNo Content
p790
sVcontent
p791
(dp792
VmimeType
p793
Vtext/html; charset=UTF-8
p794
sVcomment
p795
g4
sVsize
p796
I0
ssVheaders
p797
(lp798
sVheadersSize
p799
I248
sVredirectURL
p800
g4
sVbodySize
p801
I0
sVhttpVersion
p802
VHTTP/1.1
p803
ssa(dp804
Vcomment
p805
g4
sVserverIPAddress
p806
V216.58.216.196
p807
sVpageref
p808
VOrlando Shooting
p809
sVstartedDateTime
p810
V2017-04-16T07:59:43.872-05:00
p811
sVcache
p812
(dp813
sVrequest
p814
(dp815
Vcomment
p816
g4
sVcookies
p817
(lp818
sVurl
p819
Vhttps://www.google.com/gen_204?atyp=i&ct=&cad=&vet=10ahUKEwj5uOj7g6nTAhVn04MKHd0PBnMQ5W0IQygE..s&ei=vWrzWLnmHuemjwTdn5iYBw&zx=1492347583870
p820
sVqueryString
p821
(lp822
(dp823
Vname
p824
Vatyp
p825
sVvalue
p826
g30
sa(dp827
Vname
p828
Vct
p829
sVvalue
p830
g4
sa(dp831
Vname
p832
Vcad
p833
sVvalue
p834
g4
sa(dp835
Vname
p836
Vvet
p837
sVvalue
p838
V10ahUKEwj5uOj7g6nTAhVn04MKHd0PBnMQ5W0IQygE..s
p839
sa(dp840
Vname
p841
Vei
p842
sVvalue
p843
VvWrzWLnmHuemjwTdn5iYBw
p844
sa(dp845
Vname
p846
Vzx
p847
sVvalue
p848
V1492347583870
p849
sasVheaders
p850
(lp851
sVheadersSize
p852
I656
sVbodySize
p853
I0
sVmethod
p854
VGET
p855
sVhttpVersion
p856
VHTTP/1.1
p857
ssVtimings
p858
(dp859
Vcomment
p860
g4
sVreceive
p861
I0
sVsend
p862
I0
sVssl
p863
I-1
sVconnect
p864
I-1
sVdns
p865
I-1
sVwait
p866
I37
sVblocked
p867
I-1
ssVtime
p868
I38
sVresponse
p869
(dp870
Vstatus
p871
I204
sVcomment
p872
g4
sVcookies
p873
(lp874
sVstatusText
p875
VNo Content
p876
sVcontent
p877
(dp878
VmimeType
p879
Vtext/html; charset=UTF-8
p880
sVcomment
p881
g4
sVsize
p882
I0
ssVheaders
p883
(lp884
sVheadersSize
p885
I248
sVredirectURL
p886
g4
sVbodySize
p887
I0
sVhttpVersion
p888
VHTTP/1.1
p889
ssa(dp890
Vcomment
p891
g4
sVserverIPAddress
p892
V216.58.216.196
p893
sVpageref
p894
VOrlando Shooting
p895
sVstartedDateTime
p896
V2017-04-16T07:59:43.894-05:00
p897
sVcache
p898
(dp899
sVrequest
p900
(dp901
Vcomment
p902
g4
sVcookies
p903
(lp904
sVurl
p905
Vhttps://www.google.com/gen_204?atyp=i&ct=&cad=&vet=10ahUKEwj5uOj7g6nTAhVn04MKHd0PBnMQ5W0ITCgH..s&ei=vWrzWLnmHuemjwTdn5iYBw&zx=1492347583880
p906
sVqueryString
p907
(lp908
(dp909
Vname
p910
Vatyp
p911
sVvalue
p912
g30
sa(dp913
Vname
p914
Vct
p915
sVvalue
p916
g4
sa(dp917
Vname
p918
Vcad
p919
sVvalue
p920
g4
sa(dp921
Vname
p922
Vvet
p923
sVvalue
p924
V10ahUKEwj5uOj7g6nTAhVn04MKHd0PBnMQ5W0ITCgH..s
p925
sa(dp926
Vname
p927
Vei
p928
sVvalue
p929
VvWrzWLnmHuemjwTdn5iYBw
p930
sa(dp931
Vname
p932
Vzx
p933
sVvalue
p934
V1492347583880
p935
sasVheaders
p936
(lp937
sVheadersSize
p938
I656
sVbodySize
p939
I0
sVmethod
p940
VGET
p941
sVhttpVersion
p942
VHTTP/1.1
p943
ssVtimings
p944
(dp945
Vcomment
p946
g4
sVreceive
p947
I0
sVsend
p948
I0
sVssl
p949
I-1
sVconnect
p950
I-1
sVdns
p951
I-1
sVwait
p952
I72
sVblocked
p953
I-1
ssVtime
p954
I72
sVresponse
p955
(dp956
Vstatus
p957
I204
sVcomment
p958
g4
sVcookies
p959
(lp960
sVstatusText
p961
VNo Content
p962
sVcontent
p963
(dp964
VmimeType
p965
Vtext/html; charset=UTF-8
p966
sVcomment
p967
g4
sVsize
p968
I0
ssVheaders
p969
(lp970
sVheadersSize
p971
I248
sVredirectURL
p972
g4
sVbodySize
p973
I0
sVhttpVersion
p974
VHTTP/1.1
p975
ssa(dp976
Vcomment
p977
g4
sVserverIPAddress
p978
V216.58.216.196
p979
sVpageref
p980
VOrlando Shooting
p981
sVstartedDateTime
p982
V2017-04-16T07:59:43.961-05:00
p983
sVcache
p984
(dp985
sVrequest
p986
(dp987
Vcomment
p988
g4
sVcookies
p989
(lp990
sVurl
p991
Vhttps://www.google.com/gen_204?atyp=i&ct=&cad=&vet=10ahUKEwj5uOj7g6nTAhVn04MKHd0PBnMQ5W0IRigF..s&ei=vWrzWLnmHuemjwTdn5iYBw&zx=1492347583874
p992
sVqueryString
p993
(lp994
(dp995
Vname
p996
Vatyp
p997
sVvalue
p998
g30
sa(dp999
Vname
p1000
Vct
p1001
sVvalue
p1002
g4
sa(dp1003
Vname
p1004
Vcad
p1005
sVvalue
p1006
g4
sa(dp1007
Vname
p1008
Vvet
p1009
sVvalue
p1010
V10ahUKEwj5uOj7g6nTAhVn04MKHd0PBnMQ5W0IRigF..s
p1011
sa(dp1012
Vname
p1013
Vei
p1014
sVvalue
p1015
VvWrzWLnmHuemjwTdn5iYBw
p1016
sa(dp1017
Vname
p1018
Vzx
p1019
sVvalue
p1020
V1492347583874
p1021
sasVheaders
p1022
(lp1023
sVheadersSize
p1024
I656
sVbodySize
p1025
I0
sVmethod
p1026
VGET
p1027
sVhttpVersion
p1028
VHTTP/1.1
p1029
ssVtimings
p1030
(dp1031
Vcomment
p1032
g4
sVreceive
p1033
I0
sVsend
p1034
I0
sVssl
p1035
I65
sVconnect
p1036
I82
sVdns
p1037
I0
sVwait
p1038
I27
sVblocked
p1039
I0
ssVtime
p1040
I109
sVresponse
p1041
(dp1042
Vstatus
p1043
I204
sVcomment
p1044
g4
sVcookies
p1045
(lp1046
sVstatusText
p1047
VNo Content
p1048
sVcontent
p1049
(dp1050
VmimeType
p1051
Vtext/html; charset=UTF-8
p1052
sVcomment
p1053
g4
sVsize
p1054
I0
ssVheaders
p1055
(lp1056
sVheadersSize
p1057
I248
sVredirectURL
p1058
g4
sVbodySize
p1059
I0
sVhttpVersion
p1060
VHTTP/1.1
p1061
ssa(dp1062
Vcomment
p1063
g4
sVserverIPAddress
p1064
V216.58.216.196
p1065
sVpageref
p1066
VOrlando Shooting
p1067
sVstartedDateTime
p1068
V2017-04-16T07:59:43.971-05:00
p1069
sVcache
p1070
(dp1071
sVrequest
p1072
(dp1073
Vcomment
p1074
g4
sVcookies
p1075
(lp1076
sVurl
p1077
Vhttps://www.google.com/gen_204?atyp=i&ct=&cad=&vet=10ahUKEwj5uOj7g6nTAhVn04MKHd0PBnMQ5W0ISSgG..s&ei=vWrzWLnmHuemjwTdn5iYBw&zx=1492347583877
p1078
sVqueryString
p1079
(lp1080
(dp1081
Vname
p1082
Vatyp
p1083
sVvalue
p1084
g30
sa(dp1085
Vname
p1086
Vct
p1087
sVvalue
p1088
g4
sa(dp1089
Vname
p1090
Vcad
p1091
sVvalue
p1092
g4
sa(dp1093
Vname
p1094
Vvet
p1095
sVvalue
p1096
V10ahUKEwj5uOj7g6nTAhVn04MKHd0PBnMQ5W0ISSgG..s
p1097
sa(dp1098
Vname
p1099
Vei
p1100
sVvalue
p1101
VvWrzWLnmHuemjwTdn5iYBw
p1102
sa(dp1103
Vname
p1104
Vzx
p1105
sVvalue
p1106
V1492347583877
p1107
sasVheaders
p1108
(lp1109
sVheadersSize
p1110
I656
sVbodySize
p1111
I0
sVmethod
p1112
VGET
p1113
sVhttpVersion
p1114
VHTTP/1.1
p1115
ssVtimings
p1116
(dp1117
Vcomment
p1118
g4
sVreceive
p1119
I0
sVsend
p1120
I0
sVssl
p1121
I21
sVconnect
p1122
I91
sVdns
p1123
I0
sVwait
p1124
I27
sVblocked
p1125
I0
ssVtime
p1126
I119
sVresponse
p1127
(dp1128
Vstatus
p1129
I204
sVcomment
p1130
g4
sVcookies
p1131
(lp1132
sVstatusText
p1133
VNo Content
p1134
sVcontent
p1135
(dp1136
VmimeType
p1137
Vtext/html; charset=UTF-8
p1138
sVcomment
p1139
g4
sVsize
p1140
I0
ssVheaders
p1141
(lp1142
sVheadersSize
p1143
I248
sVredirectURL
p1144
g4
sVbodySize
p1145
I0
sVhttpVersion
p1146
VHTTP/1.1
p1147
ssa(dp1148
Vcomment
p1149
g4
sVserverIPAddress
p1150
V216.58.216.196
p1151
sVpageref
p1152
VOrlando Shooting
p1153
sVstartedDateTime
p1154
V2017-04-16T07:59:43.981-05:00
p1155
sVcache
p1156
(dp1157
sVrequest
p1158
(dp1159
Vcomment
p1160
g4
sVcookies
p1161
(lp1162
sVurl
p1163
Vhttps://www.google.com/async/ampfp?vet=10ahUKEwj5uOj7g6nTAhVn04MKHd0PBnMQtZoBCNwB..i&ei=vWrzWLnmHuemjwTdn5iYBw&yv=2&async=_id:ampfp-async,_pms:qs
p1164
sVqueryString
p1165
(lp1166
(dp1167
Vname
p1168
Vvet
p1169
sVvalue
p1170
V10ahUKEwj5uOj7g6nTAhVn04MKHd0PBnMQtZoBCNwB..i
p1171
sa(dp1172
Vname
p1173
Vei
p1174
sVvalue
p1175
VvWrzWLnmHuemjwTdn5iYBw
p1176
sa(dp1177
Vname
p1178
Vyv
p1179
sVvalue
p1180
g49
sa(dp1181
Vname
p1182
Vasync
p1183
sVvalue
p1184
V_id:ampfp-async,_pms:qs
p1185
sasVheaders
p1186
(lp1187
sVheadersSize
p1188
I662
sVbodySize
p1189
I0
sVmethod
p1190
VGET
p1191
sVhttpVersion
p1192
VHTTP/1.1
p1193
ssVtimings
p1194
(dp1195
Vcomment
p1196
g4
sVreceive
p1197
I0
sVsend
p1198
I0
sVssl
p1199
I-1
sVconnect
p1200
I-1
sVdns
p1201
I-1
sVwait
p1202
I38
sVblocked
p1203
I-1
ssVtime
p1204
I39
sVresponse
p1205
(dp1206
Vstatus
p1207
I200
sVcomment
p1208
g4
sVcookies
p1209
(lp1210
sVstatusText
p1211
VOK
p1212
sVcontent
p1213
(dp1214
VmimeType
p1215
Vtext/html; charset=UTF-8
p1216
sVcomment
p1217
g4
sVsize
p1218
I0
ssVheaders
p1219
(lp1220
sVheadersSize
p1221
I383
sVredirectURL
p1222
g4
sVbodySize
p1223
I4526
sVhttpVersion
p1224
VHTTP/1.1
p1225
ssa(dp1226
Vcomment
p1227
g4
sVserverIPAddress
p1228
V216.58.216.193
p1229
sVpageref
p1230
VOrlando Shooting
p1231
sVstartedDateTime
p1232
V2017-04-16T07:59:43.981-05:00
p1233
sVcache
p1234
(dp1235
sVrequest
p1236
(dp1237
Vcomment
p1238
g4
sVcookies
p1239
(lp1240
sVurl
p1241
Vhttps://cdn.ampproject.org/preconnect.gif?0.015482528061493972
p1242
sVqueryString
p1243
(lp1244
(dp1245
Vname
p1246
V0.015482528061493972
p1247
sVvalue
p1248
g4
sasVheaders
p1249
(lp1250
sVheadersSize
p1251
I377
sVbodySize
p1252
I0
sVmethod
p1253
VGET
p1254
sVhttpVersion
p1255
VHTTP/1.1
p1256
ssVtimings
p1257
(dp1258
Vcomment
p1259
g4
sVreceive
p1260
I0
sVsend
p1261
I0
sVssl
p1262
I-1
sVconnect
p1263
I-1
sVdns
p1264
I-1
sVwait
p1265
I37
sVblocked
p1266
I-1
ssVtime
p1267
I38
sVresponse
p1268
(dp1269
Vstatus
p1270
I200
sVcomment
p1271
g4
sVcookies
p1272
(lp1273
sVstatusText
p1274
VOK
p1275
sVcontent
p1276
(dp1277
VmimeType
p1278
Vimage/gif
p1279
sVcomment
p1280
g4
sVsize
p1281
I0
ssVheaders
p1282
(lp1283
sVheadersSize
p1284
I826
sVredirectURL
p1285
g4
sVbodySize
p1286
I37
sVhttpVersion
p1287
VHTTP/1.1
p1288
ssa(dp1289
Vcomment
p1290
g4
sVserverIPAddress
p1291
V216.58.216.206
p1292
sVpageref
p1293
VOrlando Shooting
p1294
sVstartedDateTime
p1295
V2017-04-16T07:59:43.995-05:00
p1296
sVcache
p1297
(dp1298
sVrequest
p1299
(dp1300
Vcomment
p1301
g4
sVcookies
p1302
(lp1303
sVurl
p1304
Vhttps://encrypted-tbn1.gstatic.com/images?q=tbn:ANd9GcSPArKfQOk8ZTV3ZcUxv34k1MFA6OtxyAQZmRKYbRtvhu7Jp3WuEw9hsfG0
p1305
sVqueryString
p1306
(lp1307
(dp1308
Vname
p1309
g406
sVvalue
p1310
Vtbn:ANd9GcSPArKfQOk8ZTV3ZcUxv34k1MFA6OtxyAQZmRKYbRtvhu7Jp3WuEw9hsfG0
p1311
sasVheaders
p1312
(lp1313
sVheadersSize
p1314
I427
sVbodySize
p1315
I0
sVmethod
p1316
VGET
p1317
sVhttpVersion
p1318
VHTTP/1.1
p1319
ssVtimings
p1320
(dp1321
Vcomment
p1322
g4
sVreceive
p1323
I1
sVsend
p1324
I0
sVssl
p1325
I-1
sVconnect
p1326
I-1
sVdns
p1327
I-1
sVwait
p1328
I24
sVblocked
p1329
I-1
ssVtime
p1330
I25
sVresponse
p1331
(dp1332
Vstatus
p1333
I200
sVcomment
p1334
g4
sVcookies
p1335
(lp1336
sVstatusText
p1337
VOK
p1338
sVcontent
p1339
(dp1340
VmimeType
p1341
Vimage/jpeg
p1342
sVcomment
p1343
g4
sVsize
p1344
I0
ssVheaders
p1345
(lp1346
sVheadersSize
p1347
I427
sVredirectURL
p1348
g4
sVbodySize
p1349
I6098
sVhttpVersion
p1350
VHTTP/1.1
p1351
ssa(dp1352
Vcomment
p1353
g4
sVserverIPAddress
p1354
V216.58.216.206
p1355
sVpageref
p1356
VOrlando Shooting
p1357
sVstartedDateTime
p1358
V2017-04-16T07:59:43.995-05:00
p1359
sVcache
p1360
(dp1361
sVrequest
p1362
(dp1363
Vcomment
p1364
g4
sVcookies
p1365
(lp1366
sVurl
p1367
Vhttps://encrypted-tbn2.gstatic.com/images?q=tbn:ANd9GcTTPjsmWxXekilw1kftFJnUuGEDZ_Lxu6bTATBNuNTk3NyBg_PA7-lpiL0
p1368
sVqueryString
p1369
(lp1370
(dp1371
Vname
p1372
g406
sVvalue
p1373
Vtbn:ANd9GcTTPjsmWxXekilw1kftFJnUuGEDZ_Lxu6bTATBNuNTk3NyBg_PA7-lpiL0
p1374
sasVheaders
p1375
(lp1376
sVheadersSize
p1377
I426
sVbodySize
p1378
I0
sVmethod
p1379
VGET
p1380
sVhttpVersion
p1381
VHTTP/1.1
p1382
ssVtimings
p1383
(dp1384
Vcomment
p1385
g4
sVreceive
p1386
I1
sVsend
p1387
I0
sVssl
p1388
I-1
sVconnect
p1389
I-1
sVdns
p1390
I-1
sVwait
p1391
I26
sVblocked
p1392
I-1
ssVtime
p1393
I28
sVresponse
p1394
(dp1395
Vstatus
p1396
I200
sVcomment
p1397
g4
sVcookies
p1398
(lp1399
sVstatusText
p1400
VOK
p1401
sVcontent
p1402
(dp1403
VmimeType
p1404
Vimage/jpeg
p1405
sVcomment
p1406
g4
sVsize
p1407
I0
ssVheaders
p1408
(lp1409
sVheadersSize
p1410
I415
sVredirectURL
p1411
g4
sVbodySize
p1412
I5010
sVhttpVersion
p1413
VHTTP/1.1
p1414
ssa(dp1415
Vcomment
p1416
g4
sVserverIPAddress
p1417
V216.58.216.196
p1418
sVpageref
p1419
VOrlando Shooting
p1420
sVstartedDateTime
p1421
V2017-04-16T07:59:44.098-05:00
p1422
sVcache
p1423
(dp1424
sVrequest
p1425
(dp1426
Vcomment
p1427
g4
sVcookies
p1428
(lp1429
sVurl
p1430
Vhttps://www.google.com/async/log_amp_item_set?vet=10ahUKEwj6vsP8g6nTAhVB6IMKHZYEAUQQooQBCAE..i&ei=vWrzWLnmHuemjwTdn5iYBw&yv=2&async=num_items:2,_fmt:jspb
p1431
sVqueryString
p1432
(lp1433
(dp1434
Vname
p1435
Vvet
p1436
sVvalue
p1437
V10ahUKEwj6vsP8g6nTAhVB6IMKHZYEAUQQooQBCAE..i
p1438
sa(dp1439
Vname
p1440
Vei
p1441
sVvalue
p1442
VvWrzWLnmHuemjwTdn5iYBw
p1443
sa(dp1444
Vname
p1445
Vyv
p1446
sVvalue
p1447
g49
sa(dp1448
Vname
p1449
Vasync
p1450
sVvalue
p1451
Vnum_items:2,_fmt:jspb
p1452
sasVheaders
p1453
(lp1454
sVheadersSize
p1455
I670
sVbodySize
p1456
I0
sVmethod
p1457
VGET
p1458
sVhttpVersion
p1459
VHTTP/1.1
p1460
ssVtimings
p1461
(dp1462
Vcomment
p1463
g4
sVreceive
p1464
I0
sVsend
p1465
I0
sVssl
p1466
I-1
sVconnect
p1467
I-1
sVdns
p1468
I-1
sVwait
p1469
I32
sVblocked
p1470
I-1
ssVtime
p1471
I32
sVresponse
p1472
(dp1473
Vstatus
p1474
I200
sVcomment
p1475
g4
sVcookies
p1476
(lp1477
sVstatusText
p1478
VOK
p1479
sVcontent
p1480
(dp1481
VmimeType
p1482
Vapplication/json; charset=UTF-8
p1483
sVcomment
p1484
g4
sVsize
p1485
I0
ssVheaders
p1486
(lp1487
sVheadersSize
p1488
I417
sVredirectURL
p1489
g4
sVbodySize
p1490
I139
sVhttpVersion
p1491
VHTTP/1.1
p1492
ssa(dp1493
Vcomment
p1494
g4
sVserverIPAddress
p1495
V216.58.216.193
p1496
sVpageref
p1497
VOrlando Shooting
p1498
sVstartedDateTime
p1499
V2017-04-16T07:59:44.893-05:00
p1500
sVcache
p1501
(dp1502
sVrequest
p1503
(dp1504
Vcomment
p1505
g4
sVcookies
p1506
(lp1507
sVurl
p1508
Vhttps://www-orlandosentinel-com.cdn.ampproject.org/v/www.orlandosentinel.com/news/breaking-news/os-mount-dora-barbershop-shooting-20170414-story,amp.html?amp_js_v=9
p1509
sVqueryString
p1510
(lp1511
(dp1512
Vname
p1513
Vamp_js_v
p1514
sVvalue
p1515
V9
p1516
sasVheaders
p1517
(lp1518
sVheadersSize
p1519
I569
sVbodySize
p1520
I0
sVmethod
p1521
VGET
p1522
sVhttpVersion
p1523
VHTTP/1.1
p1524
ssVtimings
p1525
(dp1526
Vcomment
p1527
g4
sVreceive
p1528
I1
sVsend
p1529
I0
sVssl
p1530
I732
sVconnect
p1531
I746
sVdns
p1532
I39
sVwait
p1533
I63
sVblocked
p1534
I0
ssVtime
p1535
I851
sVresponse
p1536
(dp1537
Vstatus
p1538
I200
sVcomment
p1539
g4
sVcookies
p1540
(lp1541
sVstatusText
p1542
VOK
p1543
sVcontent
p1544
(dp1545
VmimeType
p1546
Vtext/html
p1547
sVcomment
p1548
g4
sVsize
p1549
I0
ssVheaders
p1550
(lp1551
sVheadersSize
p1552
I861
sVredirectURL
p1553
g4
sVbodySize
p1554
I8026
sVhttpVersion
p1555
VHTTP/1.1
p1556
ssa(dp1557
Vcomment
p1558
g4
sVserverIPAddress
p1559
V216.58.216.193
p1560
sVpageref
p1561
VOrlando Shooting
p1562
sVstartedDateTime
p1563
V2017-04-16T07:59:44.971-05:00
p1564
sVcache
p1565
(dp1566
sVrequest
p1567
(dp1568
Vcomment
p1569
g4
sVcookies
p1570
(lp1571
sVurl
p1572
Vhttps://cdn.ampproject.org/rtv/011492014732688/v0/amp-brightcove-0.1.js
p1573
sVqueryString
p1574
(lp1575
sVheaders
p1576
(lp1577
sVheadersSize
p1578
I527
sVbodySize
p1579
I0
sVmethod
p1580
VGET
p1581
sVhttpVersion
p1582
VHTTP/1.1
p1583
ssVtimings
p1584
(dp1585
Vcomment
p1586
g4
sVreceive
p1587
I0
sVsend
p1588
I0
sVssl
p1589
I-1
sVconnect
p1590
I-1
sVdns
p1591
I-1
sVwait
p1592
I27
sVblocked
p1593
I-1
ssVtime
p1594
I28
sVresponse
p1595
(dp1596
Vstatus
p1597
I200
sVcomment
p1598
g4
sVcookies
p1599
(lp1600
sVstatusText
p1601
VOK
p1602
sVcontent
p1603
(dp1604
VmimeType
p1605
Vtext/javascript
p1606
sVcomment
p1607
g4
sVsize
p1608
I0
ssVheaders
p1609
(lp1610
sVheadersSize
p1611
I1165
sVredirectURL
p1612
g4
sVbodySize
p1613
I1320
sVhttpVersion
p1614
VHTTP/1.1
p1615
ssa(dp1616
Vcomment
p1617
g4
sVserverIPAddress
p1618
V216.58.216.193
p1619
sVpageref
p1620
VOrlando Shooting
p1621
sVstartedDateTime
p1622
V2017-04-16T07:59:45.000-05:00
p1623
sVcache
p1624
(dp1625
sVrequest
p1626
(dp1627
Vcomment
p1628
g4
sVcookies
p1629
(lp1630
sVurl
p1631
Vhttps://www-orlandosentinel-com.cdn.ampproject.org/i/www.orlandosentinel.com/as/prod/orlnews/images/logo_amp.1q2w3_b5141af3be2ecd5605e0b9e2f3debd15.svg
p1632
sVqueryString
p1633
(lp1634
sVheaders
p1635
(lp1636
sVheadersSize
p1637
I607
sVbodySize
p1638
I0
sVmethod
p1639
VGET
p1640
sVhttpVersion
p1641
VHTTP/1.1
p1642
ssVtimings
p1643
(dp1644
Vcomment
p1645
g4
sVreceive
p1646
I0
sVsend
p1647
I0
sVssl
p1648
I-1
sVconnect
p1649
I-1
sVdns
p1650
I-1
sVwait
p1651
I47
sVblocked
p1652
I-1
ssVtime
p1653
I48
sVresponse
p1654
(dp1655
Vstatus
p1656
I200
sVcomment
p1657
g4
sVcookies
p1658
(lp1659
sVstatusText
p1660
VOK
p1661
sVcontent
p1662
(dp1663
VmimeType
p1664
Vimage/svg+xml
p1665
sVcomment
p1666
g4
sVsize
p1667
I0
ssVheaders
p1668
(lp1669
sVheadersSize
p1670
I881
sVredirectURL
p1671
g4
sVbodySize
p1672
I2244
sVhttpVersion
p1673
VHTTP/1.1
p1674
ssa(dp1675
Vcomment
p1676
g4
sVserverIPAddress
p1677
V216.58.216.193
p1678
sVpageref
p1679
VOrlando Shooting
p1680
sVstartedDateTime
p1681
V2017-04-16T07:59:45.550-05:00
p1682
sVcache
p1683
(dp1684
sVrequest
p1685
(dp1686
Vcomment
p1687
g4
sVcookies
p1688
(lp1689
sVurl
p1690
Vhttps://www-trbimg-com.cdn.ampproject.org/i/www.trbimg.com/img-555b6ddb/turbine/os-christal-hayes-bio-20150508/140/140x140
p1691
sVqueryString
p1692
(lp1693
sVheaders
p1694
(lp1695
sVheadersSize
p1696
I578
sVbodySize
p1697
I0
sVmethod
p1698
VGET
p1699
sVhttpVersion
p1700
VHTTP/1.1
p1701
ssVtimings
p1702
(dp1703
Vcomment
p1704
g4
sVreceive
p1705
I0
sVsend
p1706
I0
sVssl
p1707
I450
sVconnect
p1708
I465
sVdns
p1709
I29
sVwait
p1710
I27
sVblocked
p1711
I0
ssVtime
p1712
I523
sVresponse
p1713
(dp1714
Vstatus
p1715
I200
sVcomment
p1716
g4
sVcookies
p1717
(lp1718
sVstatusText
p1719
VOK
p1720
sVcontent
p1721
(dp1722
VmimeType
p1723
Vimage/jpeg
p1724
sVcomment
p1725
g4
sVsize
p1726
I0
ssVheaders
p1727
(lp1728
sVheadersSize
p1729
I849
sVredirectURL
p1730
g4
sVbodySize
p1731
I3221
sVhttpVersion
p1732
VHTTP/1.1
p1733
ssa(dp1734
Vcomment
p1735
g4
sVserverIPAddress
p1736
V216.58.216.196
p1737
sVpageref
p1738
VOrlando Shooting
p1739
sVstartedDateTime
p1740
V2017-04-16T07:59:45.593-05:00
p1741
sVcache
p1742
(dp1743
sVrequest
p1744
(dp1745
Vcomment
p1746
g4
sVcookies
p1747
(lp1748
sVurl
p1749
Vhttps://www.google.com/gen_204?s=web&atyp=csi&ei=vWrzWLnmHuemjwTdn5iYBw&imc=36&imn=36&imp=24&adh=&xjs=init.28.14.sb_mob.21.dvl.3.c.1.mbsf.1.async.1&ima=14&rt=prt.904,iml.1184,xjsls.904,dcl.999,xjses.1006,xjsee.1107,xjs.1107,qiml.1605,ol.3004,aft.1181,wsrt.97,cst.0,dnst.0,rqst.1026,rspt.940,rqstt.2,unt.2,cstt.2,dit.1079
p1750
sVqueryString
p1751
(lp1752
(dp1753
Vname
p1754
g47
sVvalue
p1755
Vweb
p1756
sa(dp1757
Vname
p1758
Vatyp
p1759
sVvalue
p1760
Vcsi
p1761
sa(dp1762
Vname
p1763
Vei
p1764
sVvalue
p1765
VvWrzWLnmHuemjwTdn5iYBw
p1766
sa(dp1767
Vname
p1768
Vimc
p1769
sVvalue
p1770
V36
p1771
sa(dp1772
Vname
p1773
Vimn
p1774
sVvalue
p1775
V36
p1776
sa(dp1777
Vname
p1778
Vimp
p1779
sVvalue
p1780
V24
p1781
sa(dp1782
Vname
p1783
Vadh
p1784
sVvalue
p1785
g4
sa(dp1786
Vname
p1787
Vxjs
p1788
sVvalue
p1789
Vinit.28.14.sb_mob.21.dvl.3.c.1.mbsf.1.async.1
p1790
sa(dp1791
Vname
p1792
Vima
p1793
sVvalue
p1794
V14
p1795
sa(dp1796
Vname
p1797
Vrt
p1798
sVvalue
p1799
Vprt.904,iml.1184,xjsls.904,dcl.999,xjses.1006,xjsee.1107,xjs.1107,qiml.1605,ol.3004,aft.1181,wsrt.97,cst.0,dnst.0,rqst.1026,rspt.940,rqstt.2,unt.2,cstt.2,dit.1079
p1800
sasVheaders
p1801
(lp1802
sVheadersSize
p1803
I837
sVbodySize
p1804
I0
sVmethod
p1805
VGET
p1806
sVhttpVersion
p1807
VHTTP/1.1
p1808
ssVtimings
p1809
(dp1810
Vcomment
p1811
g4
sVreceive
p1812
I0
sVsend
p1813
I0
sVssl
p1814
I-1
sVconnect
p1815
I-1
sVdns
p1816
I-1
sVwait
p1817
I27
sVblocked
p1818
I-1
ssVtime
p1819
I27
sVresponse
p1820
(dp1821
Vstatus
p1822
I204
sVcomment
p1823
g4
sVcookies
p1824
(lp1825
sVstatusText
p1826
VNo Content
p1827
sVcontent
p1828
(dp1829
VmimeType
p1830
Vtext/html; charset=UTF-8
p1831
sVcomment
p1832
g4
sVsize
p1833
I0
ssVheaders
p1834
(lp1835
sVheadersSize
p1836
I248
sVredirectURL
p1837
g4
sVbodySize
p1838
I0
sVhttpVersion
p1839
VHTTP/1.1
p1840
ssa(dp1841
Vcomment
p1842
g4
sVserverIPAddress
p1843
V216.58.216.196
p1844
sVpageref
p1845
VOrlando Shooting
p1846
sVstartedDateTime
p1847
V2017-04-16T07:59:45.943-05:00
p1848
sVcache
p1849
(dp1850
sVrequest
p1851
(dp1852
Vcomment
p1853
g4
sVcookies
p1854
(lp1855
sVurl
p1856
Vhttps://www.google.com/gen_204?atyp=i&ct=slh&cad=&ei=rGrzWNqBBsGfjwT8naKYBQ&s=2&v=2&pv=0.8656908683658006&me=18:1492347572904,V,0,0,0,0:9097,e,U&zx=1492347585942
p1857
sVqueryString
p1858
(lp1859
(dp1860
Vname
p1861
Vatyp
p1862
sVvalue
p1863
g30
sa(dp1864
Vname
p1865
Vct
p1866
sVvalue
p1867
Vslh
p1868
sa(dp1869
Vname
p1870
Vcad
p1871
sVvalue
p1872
g4
sa(dp1873
Vname
p1874
Vei
p1875
sVvalue
p1876
VrGrzWNqBBsGfjwT8naKYBQ
p1877
sa(dp1878
Vname
p1879
g47
sVvalue
p1880
g49
sa(dp1881
Vname
p1882
g52
sVvalue
p1883
g49
sa(dp1884
Vname
p1885
Vpv
p1886
sVvalue
p1887
V0.8656908683658006
p1888
sa(dp1889
Vname
p1890
Vme
p1891
sVvalue
p1892
V18:1492347572904,V,0,0,0,0:9097,e,U
p1893
sa(dp1894
Vname
p1895
Vzx
p1896
sVvalue
p1897
V1492347585942
p1898
sasVheaders
p1899
(lp1900
sVheadersSize
p1901
I678
sVbodySize
p1902
I0
sVmethod
p1903
VGET
p1904
sVhttpVersion
p1905
VHTTP/1.1
p1906
ssVtimings
p1907
(dp1908
Vcomment
p1909
g4
sVreceive
p1910
I0
sVsend
p1911
I0
sVssl
p1912
I-1
sVconnect
p1913
I-1
sVdns
p1914
I-1
sVwait
p1915
I34
sVblocked
p1916
I-1
ssVtime
p1917
I34
sVresponse
p1918
(dp1919
Vstatus
p1920
I204
sVcomment
p1921
g4
sVcookies
p1922
(lp1923
sVstatusText
p1924
VNo Content
p1925
sVcontent
p1926
(dp1927
VmimeType
p1928
Vtext/html; charset=UTF-8
p1929
sVcomment
p1930
g4
sVsize
p1931
I0
ssVheaders
p1932
(lp1933
sVheadersSize
p1934
I248
sVredirectURL
p1935
g4
sVbodySize
p1936
I0
sVhttpVersion
p1937
VHTTP/1.1
p1938
ssasVversion
p1939
V1.2
p1940
sVpages
p1941
(lp1942
(dp1943
VpageTimings
p1944
(dp1945
Vcomment
p1946
g4
ssVcomment
p1947
g4
sVtitle
p1948
VOrlando Shooting
p1949
sVid
p1950
VOrlando Shooting
p1951
sVstartedDateTime
p1952
V2017-04-16T07:59:41.996-05:00
p1953
sasVcreator
p1954
(dp1955
Vcomment
p1956
g4
sVversion
p1957
V2.1.4
p1958
sVname
p1959
VBrowserMob Proxy
p1960
sss.