(dp0
Vlog
p1
(dp2
Vcomment
p3
V
p4
sVentries
p5
(lp6
(dp7
Vcomment
p8
g4
sVserverIPAddress
p9
V216.58.216.196
p10
sVpageref
p11
VChyna
p12
sVstartedDateTime
p13
V2017-04-16T08:09:23.285-05:00
p14
sVcache
p15
(dp16
sVrequest
p17
(dp18
Vcomment
p19
g4
sVcookies
p20
(lp21
sVurl
p22
Vhttps://www.google.com/gen_204?atyp=i&ct=slh&cad=&ei=9mzzWLG6BIngjwTRvrKwDg&m=V&t=C&s=1&v=2&pv=0.19711984465328525&me=1:1492348152583,x:1,V,0,0,1280,944:0,N,1,9mzzWLG6BIngjwTRvrKwDg:0,R,1,24,8,155,1249,778:0,R,1,25,8,155,1249,778:0,R,1,29,8,168,1249,40:0,R,1,47,8,267,1249,178:0,R,1,50,0,283,1265,197:0,R,1,90,8,462,1249,40:0,R,1,91,24,462,1217,40:0,R,1,97,8,518,1249,20:0,R,1,117,8,603,1249,263:0,R,1,118,0,603,1265,283:0,R,1,181,8,943,1249,201:0,R,1,182,24,943,1217,190:2,B,4118:10698,e,U&zx=1492348163284
p23
sVqueryString
p24
(lp25
(dp26
Vname
p27
Vatyp
p28
sVvalue
p29
Vi
p30
sa(dp31
Vname
p32
Vct
p33
sVvalue
p34
Vslh
p35
sa(dp36
Vname
p37
Vcad
p38
sVvalue
p39
g4
sa(dp40
Vname
p41
Vei
p42
sVvalue
p43
V9mzzWLG6BIngjwTRvrKwDg
p44
sa(dp45
Vname
p46
Vm
p47
sVvalue
p48
VV
p49
sa(dp50
Vname
p51
Vt
p52
sVvalue
p53
VC
p54
sa(dp55
Vname
p56
Vs
p57
sVvalue
p58
V1
p59
sa(dp60
Vname
p61
Vv
p62
sVvalue
p63
V2
p64
sa(dp65
Vname
p66
Vpv
p67
sVvalue
p68
V0.19711984465328525
p69
sa(dp70
Vname
p71
Vme
p72
sVvalue
p73
V1:1492348152583,x:1,V,0,0,1280,944:0,N,1,9mzzWLG6BIngjwTRvrKwDg:0,R,1,24,8,155,1249,778:0,R,1,25,8,155,1249,778:0,R,1,29,8,168,1249,40:0,R,1,47,8,267,1249,178:0,R,1,50,0,283,1265,197:0,R,1,90,8,462,1249,40:0,R,1,91,24,462,1217,40:0,R,1,97,8,518,1249,20:0,R,1,117,8,603,1249,263:0,R,1,118,0,603,1265,283:0,R,1,181,8,943,1249,201:0,R,1,182,24,943,1217,190:2,B,4118:10698,e,U
p74
sa(dp75
Vname
p76
Vzx
p77
sVvalue
p78
V1492348163284
p79
sasVheaders
p80
(lp81
sVheadersSize
p82
I1024
sVbodySize
p83
I0
sVmethod
p84
VGET
p85
sVhttpVersion
p86
VHTTP/1.1
p87
ssVtimings
p88
(dp89
Vcomment
p90
g4
sVreceive
p91
I0
sVsend
p92
I0
sVssl
p93
I-1
sVconnect
p94
I-1
sVdns
p95
I-1
sVwait
p96
I0
sVblocked
p97
I-1
ssVtime
p98
I0
sVresponse
p99
(dp100
Vstatus
p101
I0
sVcomment
p102
g4
sVcookies
p103
(lp104
sV_error
p105
VNo response received
p106
sVstatusText
p107
g4
sVcontent
p108
(dp109
VmimeType
p110
g4
sVcomment
p111
g4
sVsize
p112
I0
ssVheaders
p113
(lp114
sVheadersSize
p115
I-1
sVredirectURL
p116
g4
sVbodySize
p117
I-1
sVhttpVersion
p118
Vunknown
p119
ssa(dp120
Vcomment
p121
g4
sVserverIPAddress
p122
V216.58.216.196
p123
sVpageref
p124
VChyna
p125
sVstartedDateTime
p126
V2017-04-16T08:09:23.289-05:00
p127
sVcache
p128
(dp129
sVrequest
p130
(dp131
Vcomment
p132
g4
sVcookies
p133
(lp134
sVurl
p135
Vhttp://www.google.com/
p136
sVqueryString
p137
(lp138
sVheaders
p139
(lp140
sVheadersSize
p141
I613
sVbodySize
p142
I0
sVmethod
p143
VGET
p144
sVhttpVersion
p145
VHTTP/1.1
p146
ssVtimings
p147
(dp148
Vcomment
p149
g4
sVreceive
p150
I0
sVsend
p151
I0
sVssl
p152
I-1
sVconnect
p153
I-1
sVdns
p154
I-1
sVwait
p155
I65
sVblocked
p156
I-1
ssVtime
p157
I65
sVresponse
p158
(dp159
Vstatus
p160
I302
sVcomment
p161
g4
sVcookies
p162
(lp163
sVstatusText
p164
VFound
p165
sVcontent
p166
(dp167
VmimeType
p168
Vtext/html; charset=UTF-8
p169
sVcomment
p170
g4
sVsize
p171
I0
ssVheaders
p172
(lp173
sVheadersSize
p174
I609
sVredirectURL
p175
Vhttps://www.google.com/?gws_rd=ssl
p176
sVbodySize
p177
I231
sVhttpVersion
p178
VHTTP/1.1
p179
ssa(dp180
Vcomment
p181
g4
sVserverIPAddress
p182
V216.58.216.196
p183
sVpageref
p184
VChyna
p185
sVstartedDateTime
p186
V2017-04-16T08:09:23.358-05:00
p187
sVcache
p188
(dp189
sVrequest
p190
(dp191
Vcomment
p192
g4
sVcookies
p193
(lp194
sVurl
p195
Vhttps://www.google.com/?gws_rd=ssl
p196
sVqueryString
p197
(lp198
(dp199
Vname
p200
Vgws_rd
p201
sVvalue
p202
Vssl
p203
sasVheaders
p204
(lp205
sVheadersSize
p206
I607
sVbodySize
p207
I0
sVmethod
p208
VGET
p209
sVhttpVersion
p210
VHTTP/1.1
p211
ssVtimings
p212
(dp213
Vcomment
p214
g4
sVreceive
p215
I18
sVsend
p216
I0
sVssl
p217
I-1
sVconnect
p218
I-1
sVdns
p219
I-1
sVwait
p220
I70
sVblocked
p221
I-1
ssVtime
p222
I89
sVresponse
p223
(dp224
Vstatus
p225
I200
sVcomment
p226
g4
sVcookies
p227
(lp228
sVstatusText
p229
VOK
p230
sVcontent
p231
(dp232
VmimeType
p233
Vtext/html; charset=UTF-8
p234
sVcomment
p235
g4
sVsize
p236
I0
ssVheaders
p237
(lp238
sVheadersSize
p239
I721
sVredirectURL
p240
g4
sVbodySize
p241
I34286
sVhttpVersion
p242
VHTTP/1.1
p243
ssa(dp244
Vcomment
p245
g4
sVserverIPAddress
p246
V216.58.216.196
p247
sVpageref
p248
VChyna
p249
sVstartedDateTime
p250
V2017-04-16T08:09:23.637-05:00
p251
sVcache
p252
(dp253
sVrequest
p254
(dp255
Vcomment
p256
g4
sVcookies
p257
(lp258
sVurl
p259
Vhttps://www.google.com/gen_204?s=mobilewebhp&atyp=csi&ei=Am3zWOzIFuXYjwSrxruADg&imc=1&imn=1&imp=0&adh=&xjs=init.22.12.sb_mob.17.dvl.3.r.1.async.1.TG8rFw.0&ima=1&rt=xjsls.8,prt.9,iml.9,dcl.35,xjses.72,xjsee.148,xjs.149,ol.182,aft.9,wsrt.168,cst.0,dnst.0,rqst.93,rspt.22,rqstt.75,unt.73,cstt.73,dit.200
p260
sVqueryString
p261
(lp262
(dp263
Vname
p264
g57
sVvalue
p265
Vmobilewebhp
p266
sa(dp267
Vname
p268
Vatyp
p269
sVvalue
p270
Vcsi
p271
sa(dp272
Vname
p273
Vei
p274
sVvalue
p275
VAm3zWOzIFuXYjwSrxruADg
p276
sa(dp277
Vname
p278
Vimc
p279
sVvalue
p280
g59
sa(dp281
Vname
p282
Vimn
p283
sVvalue
p284
g59
sa(dp285
Vname
p286
Vimp
p287
sVvalue
p288
V0
p289
sa(dp290
Vname
p291
Vadh
p292
sVvalue
p293
g4
sa(dp294
Vname
p295
Vxjs
p296
sVvalue
p297
Vinit.22.12.sb_mob.17.dvl.3.r.1.async.1.TG8rFw.0
p298
sa(dp299
Vname
p300
Vima
p301
sVvalue
p302
g59
sa(dp303
Vname
p304
Vrt
p305
sVvalue
p306
Vxjsls.8,prt.9,iml.9,dcl.35,xjses.72,xjsee.148,xjs.149,ol.182,aft.9,wsrt.168,cst.0,dnst.0,rqst.93,rspt.22,rqstt.75,unt.73,cstt.73,dit.200
p307
sasVheaders
p308
(lp309
sVheadersSize
p310
I828
sVbodySize
p311
I0
sVmethod
p312
VGET
p313
sVhttpVersion
p314
VHTTP/1.1
p315
ssVtimings
p316
(dp317
Vcomment
p318
g4
sVreceive
p319
I0
sVsend
p320
I0
sVssl
p321
I-1
sVconnect
p322
I-1
sVdns
p323
I-1
sVwait
p324
I26
sVblocked
p325
I-1
ssVtime
p326
I26
sVresponse
p327
(dp328
Vstatus
p329
I204
sVcomment
p330
g4
sVcookies
p331
(lp332
sVstatusText
p333
VNo Content
p334
sVcontent
p335
(dp336
VmimeType
p337
Vtext/html; charset=UTF-8
p338
sVcomment
p339
g4
sVsize
p340
I0
ssVheaders
p341
(lp342
sVheadersSize
p343
I248
sVredirectURL
p344
g4
sVbodySize
p345
I0
sVhttpVersion
p346
VHTTP/1.1
p347
ssa(dp348
Vcomment
p349
g4
sVserverIPAddress
p350
V216.58.216.196
p351
sVpageref
p352
VChyna
p353
sVstartedDateTime
p354
V2017-04-16T08:09:23.769-05:00
p355
sVcache
p356
(dp357
sVrequest
p358
(dp359
Vcomment
p360
g4
sVcookies
p361
(lp362
sVurl
p363
Vhttps://www.google.com/complete/search?client=mobile-gws-hp&hl=en&gs_rn=64&gs_ri=mobile-gws-hp&sla=1&pfq=carrie%20fisher&gm=602&cp=0&gs_id=1&xhr=t&q=C&tch=1&ech=1&psi=Am3zWOzIFuXYjwSrxruADg.1492348163577.1
p364
sVqueryString
p365
(lp366
(dp367
Vname
p368
Vclient
p369
sVvalue
p370
Vmobile-gws-hp
p371
sa(dp372
Vname
p373
Vhl
p374
sVvalue
p375
Ven
p376
sa(dp377
Vname
p378
Vgs_rn
p379
sVvalue
p380
V64
p381
sa(dp382
Vname
p383
Vgs_ri
p384
sVvalue
p385
Vmobile-gws-hp
p386
sa(dp387
Vname
p388
Vsla
p389
sVvalue
p390
g59
sa(dp391
Vname
p392
Vpfq
p393
sVvalue
p394
Vcarrie fisher
p395
sa(dp396
Vname
p397
Vgm
p398
sVvalue
p399
V602
p400
sa(dp401
Vname
p402
Vcp
p403
sVvalue
p404
g289
sa(dp405
Vname
p406
Vgs_id
p407
sVvalue
p408
g59
sa(dp409
Vname
p410
Vxhr
p411
sVvalue
p412
g52
sa(dp413
Vname
p414
Vq
p415
sVvalue
p416
g54
sa(dp417
Vname
p418
Vtch
p419
sVvalue
p420
g59
sa(dp421
Vname
p422
Vech
p423
sVvalue
p424
g59
sa(dp425
Vname
p426
Vpsi
p427
sVvalue
p428
VAm3zWOzIFuXYjwSrxruADg.1492348163577.1
p429
sasVheaders
p430
(lp431
sVheadersSize
p432
I733
sVbodySize
p433
I0
sVmethod
p434
VGET
p435
sVhttpVersion
p436
VHTTP/1.1
p437
ssVtimings
p438
(dp439
Vcomment
p440
g4
sVreceive
p441
I0
sVsend
p442
I0
sVssl
p443
I-1
sVconnect
p444
I-1
sVdns
p445
I-1
sVwait
p446
I0
sVblocked
p447
I-1
ssVtime
p448
I0
sVresponse
p449
(dp450
Vstatus
p451
I0
sVcomment
p452
g4
sVcookies
p453
(lp454
sV_error
p455
VNo response received
p456
sVstatusText
p457
g4
sVcontent
p458
(dp459
VmimeType
p460
g4
sVcomment
p461
g4
sVsize
p462
I0
ssVheaders
p463
(lp464
sVheadersSize
p465
I-1
sVredirectURL
p466
g4
sVbodySize
p467
I-1
sVhttpVersion
p468
Vunknown
p469
ssa(dp470
Vcomment
p471
g4
sVserverIPAddress
p472
V216.58.216.196
p473
sVpageref
p474
VChyna
p475
sVstartedDateTime
p476
V2017-04-16T08:09:23.809-05:00
p477
sVcache
p478
(dp479
sVrequest
p480
(dp481
Vcomment
p482
g4
sVcookies
p483
(lp484
sVurl
p485
Vhttps://www.google.com/search?site=&source=hp&ei=Am3zWOzIFuXYjwSrxruADg&q=Chyna&oq=Chyna&gs_l=mobile-gws-hp.3...173.185.0.210.5.1.0.0.0.0.0.0..0.0....0...1c.1.64.mobile-gws-hp..5.0.0.kY3l_eALteQ
p486
sVqueryString
p487
(lp488
(dp489
Vname
p490
Vsite
p491
sVvalue
p492
g4
sa(dp493
Vname
p494
Vsource
p495
sVvalue
p496
Vhp
p497
sa(dp498
Vname
p499
Vei
p500
sVvalue
p501
VAm3zWOzIFuXYjwSrxruADg
p502
sa(dp503
Vname
p504
g415
sVvalue
p505
VChyna
p506
sa(dp507
Vname
p508
Voq
p509
sVvalue
p510
VChyna
p511
sa(dp512
Vname
p513
Vgs_l
p514
sVvalue
p515
Vmobile-gws-hp.3...173.185.0.210.5.1.0.0.0.0.0.0..0.0....0...1c.1.64.mobile-gws-hp..5.0.0.kY3l_eALteQ
p516
sasVheaders
p517
(lp518
sVheadersSize
p519
I812
sVbodySize
p520
I0
sVmethod
p521
VGET
p522
sVhttpVersion
p523
VHTTP/1.1
p524
ssVtimings
p525
(dp526
Vcomment
p527
g4
sVreceive
p528
I704
sVsend
p529
I0
sVssl
p530
I-1
sVconnect
p531
I-1
sVdns
p532
I-1
sVwait
p533
I114
sVblocked
p534
I-1
ssVtime
p535
I819
sVresponse
p536
(dp537
Vstatus
p538
I200
sVcomment
p539
g4
sVcookies
p540
(lp541
sVstatusText
p542
VOK
p543
sVcontent
p544
(dp545
VmimeType
p546
Vtext/html; charset=UTF-8
p547
sVcomment
p548
g4
sVsize
p549
I0
ssVheaders
p550
(lp551
sVheadersSize
p552
I363
sVredirectURL
p553
g4
sVbodySize
p554
I131522
sVhttpVersion
p555
VHTTP/1.1
p556
ssa(dp557
Vcomment
p558
g4
sVserverIPAddress
p559
V216.58.216.196
p560
sVpageref
p561
VChyna
p562
sVstartedDateTime
p563
V2017-04-16T08:09:24.952-05:00
p564
sVcache
p565
(dp566
sVrequest
p567
(dp568
Vcomment
p569
g4
sVcookies
p570
(lp571
sVurl
p572
Vhttps://www.google.com/xjs/_/js/k=xjs.qs.en_US.pCBXVCvTH3s.O/m=syl,syj,syn,em3,em8,em6,em7,sym,aa,abd,sy2g,sy2k,sy29,sy2j,sy2d,sy2a,sy2c,sy2f,sy2l,sy2m,sy2n,emd,async,sybn,sybi,sybo,sy1f,sy45,sy46,sy9w,sybk,sybj,sybp,sy1g,sy30,sy47,sybm,sybl,sybq,sy1h,sybh,dvl,syep,foot,ipv6,sy32,emj,shm,sy5g,sy5i,sy5k,sykh,tl,sy2x,sy2y,sy2t,sy38,em12,vs,sy5j,sy5h,sy6u,sy66,sy67,sy7d,sy7j,sy4u,sy69,sy89,sy7e,sykk,sykl,tnv,bct,sy23,sy9m,syac,sy24,sy4g,sy9b,sy9n,syhz,syl6,ssc,sy1y,sya3,sy22,sy6i,sy25,sya2,sy6j,sy72,emb,sy26,em9,ema,sy31,sya4,sykr,strm,syh6,syl5,kac,kae,strx,sy6y,sycu,d3l,sy48,sy3a,sy3c,sy5b,sy4x,sy4z,sy56,syea,sy4y,syci,syeb,sy4v,sy5d,sy40,sy76,sye9,syec,sye4,sy5a,sy51,sy5e,sy65,sye2,sy4t,sy4w,sy52,sy91,sy9l,sye6,syg5,sygv,sy5f,sy3b,sy4h,sy53,sy6d,sydt,sygs,sygw,sygu,sy2u,sygt,sy34,sygx,kpoe,sy4d,sy4f,sy4c,sy4e,sy4b,sy6w,shrb,syd7,dgm,syf5,syf6,syf8,sygb,syg9,kptm,sy99,syf4,syfc,syfn,syf7,syff,sy1i,sy68,sy8d,syfl,syfr,syfq,syfg,sy1j,sy4q,sy5o,sy5r,sy6n,sy6p,sy8h,syc7,syc8,syfb,syfj,syfs,syft,syg3,syg7,emn,emo,syg4,syg6,ivg,iuci,img,sy41,tcc,sy5x,qif,syj7,syj8,syj2,syjc,syj6,syj3,syjg,syjh,syje,syjd,syjk,syji,syjf,syj0,emr,ems,emt,emu,emv,emx,emy,emz,em10,em11,udlg,sy5z,atn,sy4i,sya1,ampfp/am=gCP4LtMEBXQA2RUaq_oFBISzAFA/rt=j/d=0/t=zcms/rs=ACT90oFwm4NZCwIcuuiqmthdlECdBzkhRA
p573
sVqueryString
p574
(lp575
sVheaders
p576
(lp577
sVheadersSize
p578
I1807
sVbodySize
p579
I0
sVmethod
p580
VGET
p581
sVhttpVersion
p582
VHTTP/1.1
p583
ssVtimings
p584
(dp585
Vcomment
p586
g4
sVreceive
p587
I54
sVsend
p588
I0
sVssl
p589
I-1
sVconnect
p590
I-1
sVdns
p591
I-1
sVwait
p592
I117
sVblocked
p593
I-1
ssVtime
p594
I171
sVresponse
p595
(dp596
Vstatus
p597
I200
sVcomment
p598
g4
sVcookies
p599
(lp600
sVstatusText
p601
VOK
p602
sVcontent
p603
(dp604
VmimeType
p605
Vtext/javascript; charset=UTF-8
p606
sVcomment
p607
g4
sVsize
p608
I0
ssVheaders
p609
(lp610
sVheadersSize
p611
I452
sVredirectURL
p612
g4
sVbodySize
p613
I288899
sVhttpVersion
p614
VHTTP/1.1
p615
ssa(dp616
Vcomment
p617
g4
sVserverIPAddress
p618
V216.58.216.196
p619
sVpageref
p620
VChyna
p621
sVstartedDateTime
p622
V2017-04-16T08:09:25.611-05:00
p623
sVcache
p624
(dp625
sVrequest
p626
(dp627
Vcomment
p628
g4
sVcookies
p629
(lp630
sVurl
p631
Vhttps://www.google.com/async/irc?vet=10ahUKEwjFroKRhqnTAhUo2oMKHeRnBKAQo0EIhAI..i&ved=0ahUKEwjFroKRhqnTAhUo2oMKHeRnBKAQo0EIhAI&ei=Am3zWMWlM6i0jwTkz5GACg&yv=2&async=iu:1,ved:0ahUKEwjFroKRhqnTAhUo2oMKHeRnBKAQo0EIhAI,_id:irc_async,_pms:qs
p632
sVqueryString
p633
(lp634
(dp635
Vname
p636
Vvet
p637
sVvalue
p638
V10ahUKEwjFroKRhqnTAhUo2oMKHeRnBKAQo0EIhAI..i
p639
sa(dp640
Vname
p641
Vved
p642
sVvalue
p643
V0ahUKEwjFroKRhqnTAhUo2oMKHeRnBKAQo0EIhAI
p644
sa(dp645
Vname
p646
Vei
p647
sVvalue
p648
VAm3zWMWlM6i0jwTkz5GACg
p649
sa(dp650
Vname
p651
Vyv
p652
sVvalue
p653
g64
sa(dp654
Vname
p655
Vasync
p656
sVvalue
p657
Viu:1,ved:0ahUKEwjFroKRhqnTAhUo2oMKHeRnBKAQo0EIhAI,_id:irc_async,_pms:qs
p658
sasVheaders
p659
(lp660
sVheadersSize
p661
I752
sVbodySize
p662
I0
sVmethod
p663
VGET
p664
sVhttpVersion
p665
VHTTP/1.1
p666
ssVtimings
p667
(dp668
Vcomment
p669
g4
sVreceive
p670
I1
sVsend
p671
I0
sVssl
p672
I-1
sVconnect
p673
I-1
sVdns
p674
I-1
sVwait
p675
I56
sVblocked
p676
I-1
ssVtime
p677
I57
sVresponse
p678
(dp679
Vstatus
p680
I200
sVcomment
p681
g4
sVcookies
p682
(lp683
sVstatusText
p684
VOK
p685
sVcontent
p686
(dp687
VmimeType
p688
Vtext/html; charset=UTF-8
p689
sVcomment
p690
g4
sVsize
p691
I0
ssVheaders
p692
(lp693
sVheadersSize
p694
I383
sVredirectURL
p695
g4
sVbodySize
p696
I7794
sVhttpVersion
p697
VHTTP/1.1
p698
ssa(dp699
Vcomment
p700
g4
sVserverIPAddress
p701
V216.58.216.196
p702
sVpageref
p703
VChyna
p704
sVstartedDateTime
p705
V2017-04-16T08:09:25.684-05:00
p706
sVcache
p707
(dp708
sVrequest
p709
(dp710
Vcomment
p711
g4
sVcookies
p712
(lp713
sVurl
p714
Vhttps://www.google.com/async/ampfp?vet=10ahUKEwjFroKRhqnTAhUo2oMKHeRnBKAQtZoBCIIC..i&ei=Am3zWMWlM6i0jwTkz5GACg&yv=2&async=_id:ampfp-async,_pms:qs
p715
sVqueryString
p716
(lp717
(dp718
Vname
p719
Vvet
p720
sVvalue
p721
V10ahUKEwjFroKRhqnTAhUo2oMKHeRnBKAQtZoBCIIC..i
p722
sa(dp723
Vname
p724
Vei
p725
sVvalue
p726
VAm3zWMWlM6i0jwTkz5GACg
p727
sa(dp728
Vname
p729
Vyv
p730
sVvalue
p731
g64
sa(dp732
Vname
p733
Vasync
p734
sVvalue
p735
V_id:ampfp-async,_pms:qs
p736
sasVheaders
p737
(lp738
sVheadersSize
p739
I662
sVbodySize
p740
I0
sVmethod
p741
VGET
p742
sVhttpVersion
p743
VHTTP/1.1
p744
ssVtimings
p745
(dp746
Vcomment
p747
g4
sVreceive
p748
I0
sVsend
p749
I0
sVssl
p750
I-1
sVconnect
p751
I-1
sVdns
p752
I-1
sVwait
p753
I36
sVblocked
p754
I-1
ssVtime
p755
I36
sVresponse
p756
(dp757
Vstatus
p758
I200
sVcomment
p759
g4
sVcookies
p760
(lp761
sVstatusText
p762
VOK
p763
sVcontent
p764
(dp765
VmimeType
p766
Vtext/html; charset=UTF-8
p767
sVcomment
p768
g4
sVsize
p769
I0
ssVheaders
p770
(lp771
sVheadersSize
p772
I383
sVredirectURL
p773
g4
sVbodySize
p774
I4527
sVhttpVersion
p775
VHTTP/1.1
p776
ssa(dp777
Vcomment
p778
g4
sVserverIPAddress
p779
V216.58.216.193
p780
sVpageref
p781
VChyna
p782
sVstartedDateTime
p783
V2017-04-16T08:09:25.685-05:00
p784
sVcache
p785
(dp786
sVrequest
p787
(dp788
Vcomment
p789
g4
sVcookies
p790
(lp791
sVurl
p792
Vhttps://cdn.ampproject.org/preconnect.gif?0.6992547365493273
p793
sVqueryString
p794
(lp795
(dp796
Vname
p797
V0.6992547365493273
p798
sVvalue
p799
g4
sasVheaders
p800
(lp801
sVheadersSize
p802
I375
sVbodySize
p803
I0
sVmethod
p804
VGET
p805
sVhttpVersion
p806
VHTTP/1.1
p807
ssVtimings
p808
(dp809
Vcomment
p810
g4
sVreceive
p811
I0
sVsend
p812
I0
sVssl
p813
I-1
sVconnect
p814
I-1
sVdns
p815
I-1
sVwait
p816
I32
sVblocked
p817
I-1
ssVtime
p818
I32
sVresponse
p819
(dp820
Vstatus
p821
I200
sVcomment
p822
g4
sVcookies
p823
(lp824
sVstatusText
p825
VOK
p826
sVcontent
p827
(dp828
VmimeType
p829
Vimage/gif
p830
sVcomment
p831
g4
sVsize
p832
I0
ssVheaders
p833
(lp834
sVheadersSize
p835
I826
sVredirectURL
p836
g4
sVbodySize
p837
I37
sVhttpVersion
p838
VHTTP/1.1
p839
ssa(dp840
Vcomment
p841
g4
sVserverIPAddress
p842
V216.58.216.206
p843
sVpageref
p844
VChyna
p845
sVstartedDateTime
p846
V2017-04-16T08:09:25.697-05:00
p847
sVcache
p848
(dp849
sVrequest
p850
(dp851
Vcomment
p852
g4
sVcookies
p853
(lp854
sVurl
p855
Vhttps://encrypted-tbn3.gstatic.com/images?q=tbn:ANd9GcR1I4hQrSUtkjLjvZ8_2SVTRTOyzu4EbQbIAORIa_oFyv60d9cSU6RiZOSy
p856
sVqueryString
p857
(lp858
(dp859
Vname
p860
g415
sVvalue
p861
Vtbn:ANd9GcR1I4hQrSUtkjLjvZ8_2SVTRTOyzu4EbQbIAORIa_oFyv60d9cSU6RiZOSy
p862
sasVheaders
p863
(lp864
sVheadersSize
p865
I427
sVbodySize
p866
I0
sVmethod
p867
VGET
p868
sVhttpVersion
p869
VHTTP/1.1
p870
ssVtimings
p871
(dp872
Vcomment
p873
g4
sVreceive
p874
I4
sVsend
p875
I0
sVssl
p876
I-1
sVconnect
p877
I-1
sVdns
p878
I-1
sVwait
p879
I26
sVblocked
p880
I-1
ssVtime
p881
I31
sVresponse
p882
(dp883
Vstatus
p884
I200
sVcomment
p885
g4
sVcookies
p886
(lp887
sVstatusText
p888
VOK
p889
sVcontent
p890
(dp891
VmimeType
p892
Vimage/jpeg
p893
sVcomment
p894
g4
sVsize
p895
I0
ssVheaders
p896
(lp897
sVheadersSize
p898
I415
sVredirectURL
p899
g4
sVbodySize
p900
I7501
sVhttpVersion
p901
VHTTP/1.1
p902
ssa(dp903
Vcomment
p904
g4
sVserverIPAddress
p905
V216.58.216.196
p906
sVpageref
p907
VChyna
p908
sVstartedDateTime
p909
V2017-04-16T08:09:25.786-05:00
p910
sVcache
p911
(dp912
sVrequest
p913
(dp914
Vcomment
p915
g4
sVcookies
p916
(lp917
sVurl
p918
Vhttps://www.google.com/gen_204?s=web&atyp=csi&ei=Am3zWMWlM6i0jwTkz5GACg&imc=58&imn=58&imp=22&adh=&xjs=init.33.14.sb_mob.25.dvl.3.c.1.mbsf.1.r.1&ima=6&rt=prt.729,iml.836,xjsls.729,qiml.993,dcl.824,xjses.870,xjsee.1012,xjs.1013,ol.1830,aft.746,wsrt.126,cst.0,dnst.0,rqst.820,rspt.705,rqstt.2,unt.2,cstt.2,dit.913
p919
sVqueryString
p920
(lp921
(dp922
Vname
p923
g57
sVvalue
p924
Vweb
p925
sa(dp926
Vname
p927
Vatyp
p928
sVvalue
p929
Vcsi
p930
sa(dp931
Vname
p932
Vei
p933
sVvalue
p934
VAm3zWMWlM6i0jwTkz5GACg
p935
sa(dp936
Vname
p937
Vimc
p938
sVvalue
p939
V58
p940
sa(dp941
Vname
p942
Vimn
p943
sVvalue
p944
V58
p945
sa(dp946
Vname
p947
Vimp
p948
sVvalue
p949
V22
p950
sa(dp951
Vname
p952
Vadh
p953
sVvalue
p954
g4
sa(dp955
Vname
p956
Vxjs
p957
sVvalue
p958
Vinit.33.14.sb_mob.25.dvl.3.c.1.mbsf.1.r.1
p959
sa(dp960
Vname
p961
Vima
p962
sVvalue
p963
V6
p964
sa(dp965
Vname
p966
Vrt
p967
sVvalue
p968
Vprt.729,iml.836,xjsls.729,qiml.993,dcl.824,xjses.870,xjsee.1012,xjs.1013,ol.1830,aft.746,wsrt.126,cst.0,dnst.0,rqst.820,rspt.705,rqstt.2,unt.2,cstt.2,dit.913
p969
sasVheaders
p970
(lp971
sVheadersSize
p972
I827
sVbodySize
p973
I0
sVmethod
p974
VGET
p975
sVhttpVersion
p976
VHTTP/1.1
p977
ssVtimings
p978
(dp979
Vcomment
p980
g4
sVreceive
p981
I0
sVsend
p982
I0
sVssl
p983
I-1
sVconnect
p984
I-1
sVdns
p985
I-1
sVwait
p986
I25
sVblocked
p987
I-1
ssVtime
p988
I25
sVresponse
p989
(dp990
Vstatus
p991
I204
sVcomment
p992
g4
sVcookies
p993
(lp994
sVstatusText
p995
VNo Content
p996
sVcontent
p997
(dp998
VmimeType
p999
Vtext/html; charset=UTF-8
p1000
sVcomment
p1001
g4
sVsize
p1002
I0
ssVheaders
p1003
(lp1004
sVheadersSize
p1005
I248
sVredirectURL
p1006
g4
sVbodySize
p1007
I0
sVhttpVersion
p1008
VHTTP/1.1
p1009
ssa(dp1010
Vcomment
p1011
g4
sVserverIPAddress
p1012
V216.58.216.196
p1013
sVpageref
p1014
VChyna
p1015
sVstartedDateTime
p1016
V2017-04-16T08:09:25.826-05:00
p1017
sVcache
p1018
(dp1019
sVrequest
p1020
(dp1021
Vcomment
p1022
g4
sVcookies
p1023
(lp1024
sVurl
p1025
Vhttps://www.google.com/async/log_amp_item_set?vet=10ahUKEwiiwfORhqnTAhUs74MKHSVUAhUQooQBCAE..i&ei=Am3zWMWlM6i0jwTkz5GACg&yv=2&async=num_items:3,_fmt:jspb
p1026
sVqueryString
p1027
(lp1028
(dp1029
Vname
p1030
Vvet
p1031
sVvalue
p1032
V10ahUKEwiiwfORhqnTAhUs74MKHSVUAhUQooQBCAE..i
p1033
sa(dp1034
Vname
p1035
Vei
p1036
sVvalue
p1037
VAm3zWMWlM6i0jwTkz5GACg
p1038
sa(dp1039
Vname
p1040
Vyv
p1041
sVvalue
p1042
g64
sa(dp1043
Vname
p1044
Vasync
p1045
sVvalue
p1046
Vnum_items:3,_fmt:jspb
p1047
sasVheaders
p1048
(lp1049
sVheadersSize
p1050
I670
sVbodySize
p1051
I0
sVmethod
p1052
VGET
p1053
sVhttpVersion
p1054
VHTTP/1.1
p1055
ssVtimings
p1056
(dp1057
Vcomment
p1058
g4
sVreceive
p1059
I0
sVsend
p1060
I0
sVssl
p1061
I-1
sVconnect
p1062
I-1
sVdns
p1063
I-1
sVwait
p1064
I44
sVblocked
p1065
I-1
ssVtime
p1066
I45
sVresponse
p1067
(dp1068
Vstatus
p1069
I200
sVcomment
p1070
g4
sVcookies
p1071
(lp1072
sVstatusText
p1073
VOK
p1074
sVcontent
p1075
(dp1076
VmimeType
p1077
Vapplication/json; charset=UTF-8
p1078
sVcomment
p1079
g4
sVsize
p1080
I0
ssVheaders
p1081
(lp1082
sVheadersSize
p1083
I417
sVredirectURL
p1084
g4
sVbodySize
p1085
I146
sVhttpVersion
p1086
VHTTP/1.1
p1087
ssa(dp1088
Vcomment
p1089
g4
sVserverIPAddress
p1090
V216.58.216.193
p1091
sVpageref
p1092
VChyna
p1093
sVstartedDateTime
p1094
V2017-04-16T08:09:26.614-05:00
p1095
sVcache
p1096
(dp1097
sVrequest
p1098
(dp1099
Vcomment
p1100
g4
sVcookies
p1101
(lp1102
sVurl
p1103
Vhttps://heavy-com.cdn.ampproject.org/v/heavy.com/sports/2017/04/chyna-isaiah-thomas-sister-facebook-photos-pictures/amp/?amp_js_v=9
p1104
sVqueryString
p1105
(lp1106
(dp1107
Vname
p1108
Vamp_js_v
p1109
sVvalue
p1110
V9
p1111
sasVheaders
p1112
(lp1113
sVheadersSize
p1114
I536
sVbodySize
p1115
I0
sVmethod
p1116
VGET
p1117
sVhttpVersion
p1118
VHTTP/1.1
p1119
ssVtimings
p1120
(dp1121
Vcomment
p1122
g4
sVreceive
p1123
I15
sVsend
p1124
I0
sVssl
p1125
I720
sVconnect
p1126
I740
sVdns
p1127
I36
sVwait
p1128
I168
sVblocked
p1129
I0
ssVtime
p1130
I961
sVresponse
p1131
(dp1132
Vstatus
p1133
I200
sVcomment
p1134
g4
sVcookies
p1135
(lp1136
sVstatusText
p1137
VOK
p1138
sVcontent
p1139
(dp1140
VmimeType
p1141
Vtext/html
p1142
sVcomment
p1143
g4
sVsize
p1144
I0
ssVheaders
p1145
(lp1146
sVheadersSize
p1147
I860
sVredirectURL
p1148
g4
sVbodySize
p1149
I12416
sVhttpVersion
p1150
VHTTP/1.1
p1151
ssa(dp1152
Vcomment
p1153
g4
sVserverIPAddress
p1154
V216.58.216.202
p1155
sVpageref
p1156
VChyna
p1157
sVstartedDateTime
p1158
V2017-04-16T08:09:26.873-05:00
p1159
sVcache
p1160
(dp1161
sVrequest
p1162
(dp1163
Vcomment
p1164
g4
sVcookies
p1165
(lp1166
sVurl
p1167
Vhttps://fonts.googleapis.com/css?family=Open+Sans:400,300,300italic,400italic,600,600italic%7CDroid+Sans:400,700
p1168
sVqueryString
p1169
(lp1170
(dp1171
Vname
p1172
Vfamily
p1173
sVvalue
p1174
VOpen Sans:400,300,300italic,400italic,600,600italic|Droid Sans:400,700
p1175
sasVheaders
p1176
(lp1177
sVheadersSize
p1178
I550
sVbodySize
p1179
I0
sVmethod
p1180
VGET
p1181
sVhttpVersion
p1182
VHTTP/1.1
p1183
ssVtimings
p1184
(dp1185
Vcomment
p1186
g4
sVreceive
p1187
I2
sVsend
p1188
I0
sVssl
p1189
I-1
sVconnect
p1190
I-1
sVdns
p1191
I-1
sVwait
p1192
I102
sVblocked
p1193
I-1
ssVtime
p1194
I105
sVresponse
p1195
(dp1196
Vstatus
p1197
I200
sVcomment
p1198
g4
sVcookies
p1199
(lp1200
sVstatusText
p1201
VOK
p1202
sVcontent
p1203
(dp1204
VmimeType
p1205
Vtext/css; charset=utf-8
p1206
sVcomment
p1207
g4
sVsize
p1208
I0
ssVheaders
p1209
(lp1210
sVheadersSize
p1211
I405
sVredirectURL
p1212
g4
sVbodySize
p1213
I1473
sVhttpVersion
p1214
VHTTP/1.1
p1215
ssa(dp1216
Vcomment
p1217
g4
sVserverIPAddress
p1218
V216.58.216.193
p1219
sVpageref
p1220
VChyna
p1221
sVstartedDateTime
p1222
V2017-04-16T08:09:26.979-05:00
p1223
sVcache
p1224
(dp1225
sVrequest
p1226
(dp1227
Vcomment
p1228
g4
sVcookies
p1229
(lp1230
sVurl
p1231
Vhttps://s0-wp-com.cdn.ampproject.org/i/s/s0.wp.com/wp-content/themes/vip/heavy/images/sprite6.png
p1232
sVqueryString
p1233
(lp1234
sVheaders
p1235
(lp1236
sVheadersSize
p1237
I520
sVbodySize
p1238
I0
sVmethod
p1239
VGET
p1240
sVhttpVersion
p1241
VHTTP/1.1
p1242
ssVtimings
p1243
(dp1244
Vcomment
p1245
g4
sVreceive
p1246
I7
sVsend
p1247
I0
sVssl
p1248
I-1
sVconnect
p1249
I-1
sVdns
p1250
I-1
sVwait
p1251
I32
sVblocked
p1252
I-1
ssVtime
p1253
I40
sVresponse
p1254
(dp1255
Vstatus
p1256
I200
sVcomment
p1257
g4
sVcookies
p1258
(lp1259
sVstatusText
p1260
VOK
p1261
sVcontent
p1262
(dp1263
VmimeType
p1264
Vimage/png
p1265
sVcomment
p1266
g4
sVsize
p1267
I0
ssVheaders
p1268
(lp1269
sVheadersSize
p1270
I824
sVredirectURL
p1271
g4
sVbodySize
p1272
I6028
sVhttpVersion
p1273
VHTTP/1.1
p1274
ssa(dp1275
Vcomment
p1276
g4
sVserverIPAddress
p1277
V216.58.216.193
p1278
sVpageref
p1279
VChyna
p1280
sVstartedDateTime
p1281
V2017-04-16T08:09:26.979-05:00
p1282
sVcache
p1283
(dp1284
sVrequest
p1285
(dp1286
Vcomment
p1287
g4
sVcookies
p1288
(lp1289
sVurl
p1290
Vhttps://s0-wp-com.cdn.ampproject.org/i/s/s0.wp.com/wp-content/themes/vip/heavy/images/inline-share-icons.png
p1291
sVqueryString
p1292
(lp1293
sVheaders
p1294
(lp1295
sVheadersSize
p1296
I531
sVbodySize
p1297
I0
sVmethod
p1298
VGET
p1299
sVhttpVersion
p1300
VHTTP/1.1
p1301
ssVtimings
p1302
(dp1303
Vcomment
p1304
g4
sVreceive
p1305
I0
sVsend
p1306
I0
sVssl
p1307
I-1
sVconnect
p1308
I-1
sVdns
p1309
I-1
sVwait
p1310
I32
sVblocked
p1311
I-1
ssVtime
p1312
I32
sVresponse
p1313
(dp1314
Vstatus
p1315
I200
sVcomment
p1316
g4
sVcookies
p1317
(lp1318
sVstatusText
p1319
VOK
p1320
sVcontent
p1321
(dp1322
VmimeType
p1323
Vimage/png
p1324
sVcomment
p1325
g4
sVsize
p1326
I0
ssVheaders
p1327
(lp1328
sVheadersSize
p1329
I824
sVredirectURL
p1330
g4
sVbodySize
p1331
I3128
sVhttpVersion
p1332
VHTTP/1.1
p1333
ssa(dp1334
Vcomment
p1335
g4
sVserverIPAddress
p1336
V216.58.216.193
p1337
sVpageref
p1338
VChyna
p1339
sVstartedDateTime
p1340
V2017-04-16T08:09:27.035-05:00
p1341
sVcache
p1342
(dp1343
sVrequest
p1344
(dp1345
Vcomment
p1346
g4
sVcookies
p1347
(lp1348
sVurl
p1349
Vhttps://s0-wp-com.cdn.ampproject.org/i/s/s0.wp.com/wp-content/themes/vip/heavy/images/ajax-loader.gif
p1350
sVqueryString
p1351
(lp1352
sVheaders
p1353
(lp1354
sVheadersSize
p1355
I524
sVbodySize
p1356
I0
sVmethod
p1357
VGET
p1358
sVhttpVersion
p1359
VHTTP/1.1
p1360
ssVtimings
p1361
(dp1362
Vcomment
p1363
g4
sVreceive
p1364
I0
sVsend
p1365
I0
sVssl
p1366
I26
sVconnect
p1367
I49
sVdns
p1368
I3
sVwait
p1369
I37
sVblocked
p1370
I0
ssVtime
p1371
I90
sVresponse
p1372
(dp1373
Vstatus
p1374
I200
sVcomment
p1375
g4
sVcookies
p1376
(lp1377
sVstatusText
p1378
VOK
p1379
sVcontent
p1380
(dp1381
VmimeType
p1382
Vimage/gif
p1383
sVcomment
p1384
g4
sVsize
p1385
I0
ssVheaders
p1386
(lp1387
sVheadersSize
p1388
I824
sVredirectURL
p1389
g4
sVbodySize
p1390
I6820
sVhttpVersion
p1391
VHTTP/1.1
p1392
ssa(dp1393
Vcomment
p1394
g4
sVserverIPAddress
p1395
V216.58.216.195
p1396
sVpageref
p1397
VChyna
p1398
sVstartedDateTime
p1399
V2017-04-16T08:09:27.039-05:00
p1400
sVcache
p1401
(dp1402
sVrequest
p1403
(dp1404
Vcomment
p1405
g4
sVcookies
p1406
(lp1407
sVurl
p1408
Vhttps://fonts.gstatic.com/s/droidsans/v6/EFpQQyG9GqCrobXxL-KRMWaVI6zN22yiurzcBKxPjFE.woff2
p1409
sVqueryString
p1410
(lp1411
sVheaders
p1412
(lp1413
sVheadersSize
p1414
I594
sVbodySize
p1415
I0
sVmethod
p1416
VGET
p1417
sVhttpVersion
p1418
VHTTP/1.1
p1419
ssVtimings
p1420
(dp1421
Vcomment
p1422
g4
sVreceive
p1423
I7
sVsend
p1424
I0
sVssl
p1425
I-1
sVconnect
p1426
I-1
sVdns
p1427
I-1
sVwait
p1428
I26
sVblocked
p1429
I-1
ssVtime
p1430
I34
sVresponse
p1431
(dp1432
Vstatus
p1433
I200
sVcomment
p1434
g4
sVcookies
p1435
(lp1436
sVstatusText
p1437
VOK
p1438
sVcontent
p1439
(dp1440
VmimeType
p1441
Vfont/woff2
p1442
sVcomment
p1443
g4
sVsize
p1444
I0
ssVheaders
p1445
(lp1446
sVheadersSize
p1447
I454
sVredirectURL
p1448
g4
sVbodySize
p1449
I11480
sVhttpVersion
p1450
VHTTP/1.1
p1451
ssa(dp1452
Vcomment
p1453
g4
sVserverIPAddress
p1454
V216.58.216.195
p1455
sVpageref
p1456
VChyna
p1457
sVstartedDateTime
p1458
V2017-04-16T08:09:27.040-05:00
p1459
sVcache
p1460
(dp1461
sVrequest
p1462
(dp1463
Vcomment
p1464
g4
sVcookies
p1465
(lp1466
sVurl
p1467
Vhttps://fonts.gstatic.com/s/droidsans/v6/s-BiyweUPV0v-yRb-cjciAzyDMXhdD8sAj6OAJTFsBI.woff2
p1468
sVqueryString
p1469
(lp1470
sVheaders
p1471
(lp1472
sVheadersSize
p1473
I594
sVbodySize
p1474
I0
sVmethod
p1475
VGET
p1476
sVhttpVersion
p1477
VHTTP/1.1
p1478
ssVtimings
p1479
(dp1480
Vcomment
p1481
g4
sVreceive
p1482
I4
sVsend
p1483
I0
sVssl
p1484
I-1
sVconnect
p1485
I-1
sVdns
p1486
I-1
sVwait
p1487
I26
sVblocked
p1488
I-1
ssVtime
p1489
I30
sVresponse
p1490
(dp1491
Vstatus
p1492
I200
sVcomment
p1493
g4
sVcookies
p1494
(lp1495
sVstatusText
p1496
VOK
p1497
sVcontent
p1498
(dp1499
VmimeType
p1500
Vfont/woff2
p1501
sVcomment
p1502
g4
sVsize
p1503
I0
ssVheaders
p1504
(lp1505
sVheadersSize
p1506
I432
sVredirectURL
p1507
g4
sVbodySize
p1508
I11304
sVhttpVersion
p1509
VHTTP/1.1
p1510
ssa(dp1511
Vcomment
p1512
g4
sVserverIPAddress
p1513
V216.58.216.193
p1514
sVpageref
p1515
VChyna
p1516
sVstartedDateTime
p1517
V2017-04-16T08:09:27.075-05:00
p1518
sVcache
p1519
(dp1520
sVrequest
p1521
(dp1522
Vcomment
p1523
g4
sVcookies
p1524
(lp1525
sVurl
p1526
Vhttps://s0-wp-com.cdn.ampproject.org/i/s/s0.wp.com/wp-content/themes/vip/heavy/images/gallery-arrows.png
p1527
sVqueryString
p1528
(lp1529
sVheaders
p1530
(lp1531
sVheadersSize
p1532
I527
sVbodySize
p1533
I0
sVmethod
p1534
VGET
p1535
sVhttpVersion
p1536
VHTTP/1.1
p1537
ssVtimings
p1538
(dp1539
Vcomment
p1540
g4
sVreceive
p1541
I0
sVsend
p1542
I0
sVssl
p1543
I54
sVconnect
p1544
I87
sVdns
p1545
I3
sVwait
p1546
I25
sVblocked
p1547
I0
ssVtime
p1548
I116
sVresponse
p1549
(dp1550
Vstatus
p1551
I200
sVcomment
p1552
g4
sVcookies
p1553
(lp1554
sVstatusText
p1555
VOK
p1556
sVcontent
p1557
(dp1558
VmimeType
p1559
Vimage/png
p1560
sVcomment
p1561
g4
sVsize
p1562
I0
ssVheaders
p1563
(lp1564
sVheadersSize
p1565
I823
sVredirectURL
p1566
g4
sVbodySize
p1567
I485
sVhttpVersion
p1568
VHTTP/1.1
p1569
ssa(dp1570
Vcomment
p1571
g4
sVserverIPAddress
p1572
V216.58.216.193
p1573
sVpageref
p1574
VChyna
p1575
sVstartedDateTime
p1576
V2017-04-16T08:09:27.077-05:00
p1577
sVcache
p1578
(dp1579
sVrequest
p1580
(dp1581
Vcomment
p1582
g4
sVcookies
p1583
(lp1584
sVurl
p1585
Vhttps://s0-wp-com.cdn.ampproject.org/ii/w270/s/s0.wp.com/wp-content/themes/vip/heavy/images/heavy-logo.png
p1586
sVqueryString
p1587
(lp1588
sVheaders
p1589
(lp1590
sVheadersSize
p1591
I529
sVbodySize
p1592
I0
sVmethod
p1593
VGET
p1594
sVhttpVersion
p1595
VHTTP/1.1
p1596
ssVtimings
p1597
(dp1598
Vcomment
p1599
g4
sVreceive
p1600
I0
sVsend
p1601
I0
sVssl
p1602
I56
sVconnect
p1603
I90
sVdns
p1604
I1
sVwait
p1605
I22
sVblocked
p1606
I0
ssVtime
p1607
I115
sVresponse
p1608
(dp1609
Vstatus
p1610
I200
sVcomment
p1611
g4
sVcookies
p1612
(lp1613
sVstatusText
p1614
VOK
p1615
sVcontent
p1616
(dp1617
VmimeType
p1618
Vimage/png
p1619
sVcomment
p1620
g4
sVsize
p1621
I0
ssVheaders
p1622
(lp1623
sVheadersSize
p1624
I824
sVredirectURL
p1625
g4
sVbodySize
p1626
I1203
sVhttpVersion
p1627
VHTTP/1.1
p1628
ssa(dp1629
Vcomment
p1630
g4
sVserverIPAddress
p1631
V216.58.216.193
p1632
sVpageref
p1633
VChyna
p1634
sVstartedDateTime
p1635
V2017-04-16T08:09:27.078-05:00
p1636
sVcache
p1637
(dp1638
sVrequest
p1639
(dp1640
Vcomment
p1641
g4
sVcookies
p1642
(lp1643
sVurl
p1644
Vhttps://s0-wp-com.cdn.ampproject.org/i/s/s0.wp.com/wp-content/themes/vip/heavy/images/inline-next.png
p1645
sVqueryString
p1646
(lp1647
sVheaders
p1648
(lp1649
sVheadersSize
p1650
I524
sVbodySize
p1651
I0
sVmethod
p1652
VGET
p1653
sVhttpVersion
p1654
VHTTP/1.1
p1655
ssVtimings
p1656
(dp1657
Vcomment
p1658
g4
sVreceive
p1659
I0
sVsend
p1660
I0
sVssl
p1661
I58
sVconnect
p1662
I92
sVdns
p1663
I3
sVwait
p1664
I27
sVblocked
p1665
I0
ssVtime
p1666
I122
sVresponse
p1667
(dp1668
Vstatus
p1669
I200
sVcomment
p1670
g4
sVcookies
p1671
(lp1672
sVstatusText
p1673
VOK
p1674
sVcontent
p1675
(dp1676
VmimeType
p1677
Vimage/png
p1678
sVcomment
p1679
g4
sVsize
p1680
I0
ssVheaders
p1681
(lp1682
sVheadersSize
p1683
I823
sVredirectURL
p1684
g4
sVbodySize
p1685
I229
sVhttpVersion
p1686
VHTTP/1.1
p1687
ssa(dp1688
Vcomment
p1689
g4
sVserverIPAddress
p1690
V216.58.216.196
p1691
sVpageref
p1692
VChyna
p1693
sVstartedDateTime
p1694
V2017-04-16T08:09:27.642-05:00
p1695
sVcache
p1696
(dp1697
sVrequest
p1698
(dp1699
Vcomment
p1700
g4
sVcookies
p1701
(lp1702
sVurl
p1703
Vhttps://www.google.com/gen_204?atyp=i&ct=slh&cad=&ei=9mzzWLG6BIngjwTRvrKwDg&m=V&t=C&s=1&v=2&pv=0.19711984465328525&me=1:1492348152583,x:1,V,0,0,1280,944:0,N,1,9mzzWLG6BIngjwTRvrKwDg:0,R,1,24,8,155,1249,778:0,R,1,25,8,155,1249,778:0,R,1,29,8,168,1249,40:0,R,1,47,8,267,1249,178:0,R,1,50,0,283,1265,197:0,R,1,90,8,462,1249,40:0,R,1,91,24,462,1217,40:0,R,1,97,8,518,1249,20:0,R,1,117,8,603,1249,263:0,R,1,118,0,603,1265,283:0,R,1,181,8,943,1249,201:0,R,1,182,24,943,1217,190:2,B,4118:10698,e,U&zx=1492348167641
p1704
sVqueryString
p1705
(lp1706
(dp1707
Vname
p1708
Vatyp
p1709
sVvalue
p1710
g30
sa(dp1711
Vname
p1712
Vct
p1713
sVvalue
p1714
Vslh
p1715
sa(dp1716
Vname
p1717
Vcad
p1718
sVvalue
p1719
g4
sa(dp1720
Vname
p1721
Vei
p1722
sVvalue
p1723
V9mzzWLG6BIngjwTRvrKwDg
p1724
sa(dp1725
Vname
p1726
g47
sVvalue
p1727
g49
sa(dp1728
Vname
p1729
g52
sVvalue
p1730
g54
sa(dp1731
Vname
p1732
g57
sVvalue
p1733
g59
sa(dp1734
Vname
p1735
g62
sVvalue
p1736
g64
sa(dp1737
Vname
p1738
Vpv
p1739
sVvalue
p1740
V0.19711984465328525
p1741
sa(dp1742
Vname
p1743
Vme
p1744
sVvalue
p1745
V1:1492348152583,x:1,V,0,0,1280,944:0,N,1,9mzzWLG6BIngjwTRvrKwDg:0,R,1,24,8,155,1249,778:0,R,1,25,8,155,1249,778:0,R,1,29,8,168,1249,40:0,R,1,47,8,267,1249,178:0,R,1,50,0,283,1265,197:0,R,1,90,8,462,1249,40:0,R,1,91,24,462,1217,40:0,R,1,97,8,518,1249,20:0,R,1,117,8,603,1249,263:0,R,1,118,0,603,1265,283:0,R,1,181,8,943,1249,201:0,R,1,182,24,943,1217,190:2,B,4118:10698,e,U
p1746
sa(dp1747
Vname
p1748
Vzx
p1749
sVvalue
p1750
V1492348167641
p1751
sasVheaders
p1752
(lp1753
sVheadersSize
p1754
I1024
sVbodySize
p1755
I0
sVmethod
p1756
VGET
p1757
sVhttpVersion
p1758
VHTTP/1.1
p1759
ssVtimings
p1760
(dp1761
Vcomment
p1762
g4
sVreceive
p1763
I0
sVsend
p1764
I0
sVssl
p1765
I-1
sVconnect
p1766
I-1
sVdns
p1767
I-1
sVwait
p1768
I26
sVblocked
p1769
I-1
ssVtime
p1770
I26
sVresponse
p1771
(dp1772
Vstatus
p1773
I204
sVcomment
p1774
g4
sVcookies
p1775
(lp1776
sVstatusText
p1777
VNo Content
p1778
sVcontent
p1779
(dp1780
VmimeType
p1781
Vtext/html; charset=UTF-8
p1782
sVcomment
p1783
g4
sVsize
p1784
I0
ssVheaders
p1785
(lp1786
sVheadersSize
p1787
I248
sVredirectURL
p1788
g4
sVbodySize
p1789
I0
sVhttpVersion
p1790
VHTTP/1.1
p1791
ssa(dp1792
Vcomment
p1793
g4
sVserverIPAddress
p1794
V216.58.216.193
p1795
sVpageref
p1796
VChyna
p1797
sVstartedDateTime
p1798
V2017-04-16T08:09:27.815-05:00
p1799
sVcache
p1800
(dp1801
sVrequest
p1802
(dp1803
Vcomment
p1804
g4
sVcookies
p1805
(lp1806
sVurl
p1807
Vhttps://heavyeditorial-files-wordpress-com.cdn.ampproject.org/ii/w1200/s/heavyeditorial.files.wordpress.com/2017/04/110.jpg?quality=65&strip=all&w=780
p1808
sVqueryString
p1809
(lp1810
(dp1811
Vname
p1812
Vquality
p1813
sVvalue
p1814
V65
p1815
sa(dp1816
Vname
p1817
Vstrip
p1818
sVvalue
p1819
Vall
p1820
sa(dp1821
Vname
p1822
Vw
p1823
sVvalue
p1824
V780
p1825
sasVheaders
p1826
(lp1827
sVheadersSize
p1828
I573
sVbodySize
p1829
I0
sVmethod
p1830
VGET
p1831
sVhttpVersion
p1832
VHTTP/1.1
p1833
ssVtimings
p1834
(dp1835
Vcomment
p1836
g4
sVreceive
p1837
I38
sVsend
p1838
I0
sVssl
p1839
I754
sVconnect
p1840
I781
sVdns
p1841
I47
sVwait
p1842
I30
sVblocked
p1843
I0
ssVtime
p1844
I898
sVresponse
p1845
(dp1846
Vstatus
p1847
I200
sVcomment
p1848
g4
sVcookies
p1849
(lp1850
sVstatusText
p1851
VOK
p1852
sVcontent
p1853
(dp1854
VmimeType
p1855
Vimage/jpeg
p1856
sVcomment
p1857
g4
sVsize
p1858
I0
ssVheaders
p1859
(lp1860
sVheadersSize
p1861
I849
sVredirectURL
p1862
g4
sVbodySize
p1863
I89633
sVhttpVersion
p1864
VHTTP/1.1
p1865
ssasVversion
p1866
V1.2
p1867
sVpages
p1868
(lp1869
(dp1870
VpageTimings
p1871
(dp1872
Vcomment
p1873
g4
ssVcomment
p1874
g4
sVtitle
p1875
VChyna
p1876
sVid
p1877
VChyna
p1878
sVstartedDateTime
p1879
V2017-04-16T08:09:23.274-05:00
p1880
sasVcreator
p1881
(dp1882
Vcomment
p1883
g4
sVversion
p1884
V2.1.4
p1885
sVname
p1886
VBrowserMob Proxy
p1887
sss.