(dp0
Vlog
p1
(dp2
Vcomment
p3
V
p4
sVentries
p5
(lp6
(dp7
Vcomment
p8
g4
sVserverIPAddress
p9
V216.58.216.196
p10
sVpageref
p11
VO.J. Simpson
p12
sVstartedDateTime
p13
V2017-04-16T08:07:38.889-05:00
p14
sVcache
p15
(dp16
sVrequest
p17
(dp18
Vcomment
p19
g4
sVcookies
p20
(lp21
sVurl
p22
Vhttps://www.google.com/gen_204?atyp=i&ct=slh&cad=&ei=h2zzWN2PNonLjwSzooHwCA&m=V&t=C&s=1&v=2&pv=0.10273147265738025&me=1:1492348042782,x:3,V,0,0,1280,944:0,N,1,h2zzWN2PNonLjwSzooHwCA:0,R,1,24,8,155,1249,445:0,R,1,28,8,268,1249,332:0,R,1,29,0,269,1265,351:0,R,1,60,8,610,1249,1307:0,R,1,61,8,610,1249,1307:0,R,1,65,8,623,1249,40:0,R,1,84,8,722,1249,178:0,R,1,87,0,738,1265,197:0,R,1,127,8,917,1249,40:0,R,1,128,24,917,1217,40:3,B,4498:16100,e,U&zx=1492348058888
p23
sVqueryString
p24
(lp25
(dp26
Vname
p27
Vatyp
p28
sVvalue
p29
Vi
p30
sa(dp31
Vname
p32
Vct
p33
sVvalue
p34
Vslh
p35
sa(dp36
Vname
p37
Vcad
p38
sVvalue
p39
g4
sa(dp40
Vname
p41
Vei
p42
sVvalue
p43
Vh2zzWN2PNonLjwSzooHwCA
p44
sa(dp45
Vname
p46
Vm
p47
sVvalue
p48
VV
p49
sa(dp50
Vname
p51
Vt
p52
sVvalue
p53
VC
p54
sa(dp55
Vname
p56
Vs
p57
sVvalue
p58
V1
p59
sa(dp60
Vname
p61
Vv
p62
sVvalue
p63
V2
p64
sa(dp65
Vname
p66
Vpv
p67
sVvalue
p68
V0.10273147265738025
p69
sa(dp70
Vname
p71
Vme
p72
sVvalue
p73
V1:1492348042782,x:3,V,0,0,1280,944:0,N,1,h2zzWN2PNonLjwSzooHwCA:0,R,1,24,8,155,1249,445:0,R,1,28,8,268,1249,332:0,R,1,29,0,269,1265,351:0,R,1,60,8,610,1249,1307:0,R,1,61,8,610,1249,1307:0,R,1,65,8,623,1249,40:0,R,1,84,8,722,1249,178:0,R,1,87,0,738,1265,197:0,R,1,127,8,917,1249,40:0,R,1,128,24,917,1217,40:3,B,4498:16100,e,U
p74
sa(dp75
Vname
p76
Vzx
p77
sVvalue
p78
V1492348058888
p79
sasVheaders
p80
(lp81
sVheadersSize
p82
I976
sVbodySize
p83
I0
sVmethod
p84
VGET
p85
sVhttpVersion
p86
VHTTP/1.1
p87
ssVtimings
p88
(dp89
Vcomment
p90
g4
sVreceive
p91
I0
sVsend
p92
I0
sVssl
p93
I-1
sVconnect
p94
I-1
sVdns
p95
I-1
sVwait
p96
I0
sVblocked
p97
I-1
ssVtime
p98
I0
sVresponse
p99
(dp100
Vstatus
p101
I0
sVcomment
p102
g4
sVcookies
p103
(lp104
sV_error
p105
VNo response received
p106
sVstatusText
p107
g4
sVcontent
p108
(dp109
VmimeType
p110
g4
sVcomment
p111
g4
sVsize
p112
I0
ssVheaders
p113
(lp114
sVheadersSize
p115
I-1
sVredirectURL
p116
g4
sVbodySize
p117
I-1
sVhttpVersion
p118
Vunknown
p119
ssa(dp120
Vcomment
p121
g4
sVserverIPAddress
p122
V216.58.216.196
p123
sVpageref
p124
VO.J. Simpson
p125
sVstartedDateTime
p126
V2017-04-16T08:07:38.893-05:00
p127
sVcache
p128
(dp129
sVrequest
p130
(dp131
Vcomment
p132
g4
sVcookies
p133
(lp134
sVurl
p135
Vhttp://www.google.com/
p136
sVqueryString
p137
(lp138
sVheaders
p139
(lp140
sVheadersSize
p141
I613
sVbodySize
p142
I0
sVmethod
p143
VGET
p144
sVhttpVersion
p145
VHTTP/1.1
p146
ssVtimings
p147
(dp148
Vcomment
p149
g4
sVreceive
p150
I0
sVsend
p151
I0
sVssl
p152
I-1
sVconnect
p153
I-1
sVdns
p154
I-1
sVwait
p155
I81
sVblocked
p156
I-1
ssVtime
p157
I82
sVresponse
p158
(dp159
Vstatus
p160
I302
sVcomment
p161
g4
sVcookies
p162
(lp163
sVstatusText
p164
VFound
p165
sVcontent
p166
(dp167
VmimeType
p168
Vtext/html; charset=UTF-8
p169
sVcomment
p170
g4
sVsize
p171
I0
ssVheaders
p172
(lp173
sVheadersSize
p174
I609
sVredirectURL
p175
Vhttps://www.google.com/?gws_rd=ssl
p176
sVbodySize
p177
I231
sVhttpVersion
p178
VHTTP/1.1
p179
ssa(dp180
Vcomment
p181
g4
sVserverIPAddress
p182
V216.58.216.196
p183
sVpageref
p184
VO.J. Simpson
p185
sVstartedDateTime
p186
V2017-04-16T08:07:38.979-05:00
p187
sVcache
p188
(dp189
sVrequest
p190
(dp191
Vcomment
p192
g4
sVcookies
p193
(lp194
sVurl
p195
Vhttps://www.google.com/?gws_rd=ssl
p196
sVqueryString
p197
(lp198
(dp199
Vname
p200
Vgws_rd
p201
sVvalue
p202
Vssl
p203
sasVheaders
p204
(lp205
sVheadersSize
p206
I607
sVbodySize
p207
I0
sVmethod
p208
VGET
p209
sVhttpVersion
p210
VHTTP/1.1
p211
ssVtimings
p212
(dp213
Vcomment
p214
g4
sVreceive
p215
I38
sVsend
p216
I0
sVssl
p217
I-1
sVconnect
p218
I-1
sVdns
p219
I-1
sVwait
p220
I375
sVblocked
p221
I-1
ssVtime
p222
I414
sVresponse
p223
(dp224
Vstatus
p225
I200
sVcomment
p226
g4
sVcookies
p227
(lp228
sVstatusText
p229
VOK
p230
sVcontent
p231
(dp232
VmimeType
p233
Vtext/html; charset=UTF-8
p234
sVcomment
p235
g4
sVsize
p236
I0
ssVheaders
p237
(lp238
sVheadersSize
p239
I721
sVredirectURL
p240
g4
sVbodySize
p241
I34295
sVhttpVersion
p242
VHTTP/1.1
p243
ssa(dp244
Vcomment
p245
g4
sVserverIPAddress
p246
V216.58.216.196
p247
sVpageref
p248
VO.J. Simpson
p249
sVstartedDateTime
p250
V2017-04-16T08:07:39.359-05:00
p251
sVcache
p252
(dp253
sVrequest
p254
(dp255
Vcomment
p256
g4
sVcookies
p257
(lp258
sVurl
p259
Vhttps://www.google.com/gen_204?atyp=i&ct=slh&cad=&ei=h2zzWN2PNonLjwSzooHwCA&s=2&v=2&pv=0.10273147265738025&me=16:1492348059357,e,H&zx=1492348059358
p260
sVqueryString
p261
(lp262
(dp263
Vname
p264
Vatyp
p265
sVvalue
p266
g30
sa(dp267
Vname
p268
Vct
p269
sVvalue
p270
Vslh
p271
sa(dp272
Vname
p273
Vcad
p274
sVvalue
p275
g4
sa(dp276
Vname
p277
Vei
p278
sVvalue
p279
Vh2zzWN2PNonLjwSzooHwCA
p280
sa(dp281
Vname
p282
g57
sVvalue
p283
g64
sa(dp284
Vname
p285
g62
sVvalue
p286
g64
sa(dp287
Vname
p288
Vpv
p289
sVvalue
p290
V0.10273147265738025
p291
sa(dp292
Vname
p293
Vme
p294
sVvalue
p295
V16:1492348059357,e,H
p296
sa(dp297
Vname
p298
Vzx
p299
sVvalue
p300
V1492348059358
p301
sasVheaders
p302
(lp303
sVheadersSize
p304
I664
sVbodySize
p305
I0
sVmethod
p306
VGET
p307
sVhttpVersion
p308
VHTTP/1.1
p309
ssVtimings
p310
(dp311
Vcomment
p312
g4
sVreceive
p313
I0
sVsend
p314
I0
sVssl
p315
I-1
sVconnect
p316
I-1
sVdns
p317
I-1
sVwait
p318
I45
sVblocked
p319
I-1
ssVtime
p320
I45
sVresponse
p321
(dp322
Vstatus
p323
I204
sVcomment
p324
g4
sVcookies
p325
(lp326
sVstatusText
p327
VNo Content
p328
sVcontent
p329
(dp330
VmimeType
p331
Vtext/html; charset=UTF-8
p332
sVcomment
p333
g4
sVsize
p334
I0
ssVheaders
p335
(lp336
sVheadersSize
p337
I248
sVredirectURL
p338
g4
sVbodySize
p339
I0
sVhttpVersion
p340
VHTTP/1.1
p341
ssa(dp342
Vcomment
p343
g4
sVserverIPAddress
p344
V216.58.216.196
p345
sVpageref
p346
VO.J. Simpson
p347
sVstartedDateTime
p348
V2017-04-16T08:07:39.616-05:00
p349
sVcache
p350
(dp351
sVrequest
p352
(dp353
Vcomment
p354
g4
sVcookies
p355
(lp356
sVurl
p357
Vhttps://www.google.com/gen_204?s=mobilewebhp&atyp=csi&ei=mWzzWM63PIfAjwTH9IqYAw&imc=1&imn=1&imp=0&adh=&xjs=init.25.12.sb_mob.19.dvl.3.c.1.mbsf.1.async.1&ima=1&rt=xjsls.15,prt.16,iml.16,dcl.39,xjses.89,xjsee.187,xjs.188,ol.222,aft.16,wsrt.501,cst.0,dnst.0,rqst.416,rspt.40,rqstt.91,unt.89,cstt.89,dit.536
p358
sVqueryString
p359
(lp360
(dp361
Vname
p362
g57
sVvalue
p363
Vmobilewebhp
p364
sa(dp365
Vname
p366
Vatyp
p367
sVvalue
p368
Vcsi
p369
sa(dp370
Vname
p371
Vei
p372
sVvalue
p373
VmWzzWM63PIfAjwTH9IqYAw
p374
sa(dp375
Vname
p376
Vimc
p377
sVvalue
p378
g59
sa(dp379
Vname
p380
Vimn
p381
sVvalue
p382
g59
sa(dp383
Vname
p384
Vimp
p385
sVvalue
p386
V0
p387
sa(dp388
Vname
p389
Vadh
p390
sVvalue
p391
g4
sa(dp392
Vname
p393
Vxjs
p394
sVvalue
p395
Vinit.25.12.sb_mob.19.dvl.3.c.1.mbsf.1.async.1
p396
sa(dp397
Vname
p398
Vima
p399
sVvalue
p400
g59
sa(dp401
Vname
p402
Vrt
p403
sVvalue
p404
Vxjsls.15,prt.16,iml.16,dcl.39,xjses.89,xjsee.187,xjs.188,ol.222,aft.16,wsrt.501,cst.0,dnst.0,rqst.416,rspt.40,rqstt.91,unt.89,cstt.89,dit.536
p405
sasVheaders
p406
(lp407
sVheadersSize
p408
I831
sVbodySize
p409
I0
sVmethod
p410
VGET
p411
sVhttpVersion
p412
VHTTP/1.1
p413
ssVtimings
p414
(dp415
Vcomment
p416
g4
sVreceive
p417
I0
sVsend
p418
I0
sVssl
p419
I-1
sVconnect
p420
I-1
sVdns
p421
I-1
sVwait
p422
I24
sVblocked
p423
I-1
ssVtime
p424
I24
sVresponse
p425
(dp426
Vstatus
p427
I204
sVcomment
p428
g4
sVcookies
p429
(lp430
sVstatusText
p431
VNo Content
p432
sVcontent
p433
(dp434
VmimeType
p435
Vtext/html; charset=UTF-8
p436
sVcomment
p437
g4
sVsize
p438
I0
ssVheaders
p439
(lp440
sVheadersSize
p441
I248
sVredirectURL
p442
g4
sVbodySize
p443
I0
sVhttpVersion
p444
VHTTP/1.1
p445
ssa(dp446
Vcomment
p447
g4
sVserverIPAddress
p448
V216.58.216.196
p449
sVpageref
p450
VO.J. Simpson
p451
sVstartedDateTime
p452
V2017-04-16T08:07:39.752-05:00
p453
sVcache
p454
(dp455
sVrequest
p456
(dp457
Vcomment
p458
g4
sVcookies
p459
(lp460
sVurl
p461
Vhttps://www.google.com/complete/search?client=mobile-gws-hp&hl=en&gs_rn=64&gs_ri=mobile-gws-hp&sla=1&pfq=orlando%20shooting&gm=602&cp=0&gs_id=1&xhr=t&q=O&tch=1&ech=1&psi=mWzzWM63PIfAjwTH9IqYAw.1492348059551.1
p462
sVqueryString
p463
(lp464
(dp465
Vname
p466
Vclient
p467
sVvalue
p468
Vmobile-gws-hp
p469
sa(dp470
Vname
p471
Vhl
p472
sVvalue
p473
Ven
p474
sa(dp475
Vname
p476
Vgs_rn
p477
sVvalue
p478
V64
p479
sa(dp480
Vname
p481
Vgs_ri
p482
sVvalue
p483
Vmobile-gws-hp
p484
sa(dp485
Vname
p486
Vsla
p487
sVvalue
p488
g59
sa(dp489
Vname
p490
Vpfq
p491
sVvalue
p492
Vorlando shooting
p493
sa(dp494
Vname
p495
Vgm
p496
sVvalue
p497
V602
p498
sa(dp499
Vname
p500
Vcp
p501
sVvalue
p502
g387
sa(dp503
Vname
p504
Vgs_id
p505
sVvalue
p506
g59
sa(dp507
Vname
p508
Vxhr
p509
sVvalue
p510
g52
sa(dp511
Vname
p512
Vq
p513
sVvalue
p514
VO
p515
sa(dp516
Vname
p517
Vtch
p518
sVvalue
p519
g59
sa(dp520
Vname
p521
Vech
p522
sVvalue
p523
g59
sa(dp524
Vname
p525
Vpsi
p526
sVvalue
p527
VmWzzWM63PIfAjwTH9IqYAw.1492348059551.1
p528
sasVheaders
p529
(lp530
sVheadersSize
p531
I736
sVbodySize
p532
I0
sVmethod
p533
VGET
p534
sVhttpVersion
p535
VHTTP/1.1
p536
ssVtimings
p537
(dp538
Vcomment
p539
g4
sVreceive
p540
I0
sVsend
p541
I0
sVssl
p542
I-1
sVconnect
p543
I-1
sVdns
p544
I-1
sVwait
p545
I0
sVblocked
p546
I-1
ssVtime
p547
I0
sVresponse
p548
(dp549
Vstatus
p550
I0
sVcomment
p551
g4
sVcookies
p552
(lp553
sV_error
p554
VNo response received
p555
sVstatusText
p556
g4
sVcontent
p557
(dp558
VmimeType
p559
g4
sVcomment
p560
g4
sVsize
p561
I0
ssVheaders
p562
(lp563
sVheadersSize
p564
I-1
sVredirectURL
p565
g4
sVbodySize
p566
I-1
sVhttpVersion
p567
Vunknown
p568
ssa(dp569
Vcomment
p570
g4
sVserverIPAddress
p571
V216.58.216.196
p572
sVpageref
p573
VO.J. Simpson
p574
sVstartedDateTime
p575
V2017-04-16T08:07:39.835-05:00
p576
sVcache
p577
(dp578
sVrequest
p579
(dp580
Vcomment
p581
g4
sVcookies
p582
(lp583
sVurl
p584
Vhttps://www.google.com/search?site=&source=hp&ei=mWzzWM63PIfAjwTH9IqYAw&q=O.J.+Simpson&oq=O.J.+Simpson&gs_l=mobile-gws-hp.3...180.215.0.257.12.1.0.0.0.0.0.0..0.0....0...1c.1.64.mobile-gws-hp..12.0.0.OyiQwhEijLg
p585
sVqueryString
p586
(lp587
(dp588
Vname
p589
Vsite
p590
sVvalue
p591
g4
sa(dp592
Vname
p593
Vsource
p594
sVvalue
p595
Vhp
p596
sa(dp597
Vname
p598
Vei
p599
sVvalue
p600
VmWzzWM63PIfAjwTH9IqYAw
p601
sa(dp602
Vname
p603
g513
sVvalue
p604
VO.J. Simpson
p605
sa(dp606
Vname
p607
Voq
p608
sVvalue
p609
VO.J. Simpson
p610
sa(dp611
Vname
p612
Vgs_l
p613
sVvalue
p614
Vmobile-gws-hp.3...180.215.0.257.12.1.0.0.0.0.0.0..0.0....0...1c.1.64.mobile-gws-hp..12.0.0.OyiQwhEijLg
p615
sasVheaders
p616
(lp617
sVheadersSize
p618
I828
sVbodySize
p619
I0
sVmethod
p620
VGET
p621
sVhttpVersion
p622
VHTTP/1.1
p623
ssVtimings
p624
(dp625
Vcomment
p626
g4
sVreceive
p627
I703
sVsend
p628
I0
sVssl
p629
I-1
sVconnect
p630
I-1
sVdns
p631
I-1
sVwait
p632
I94
sVblocked
p633
I-1
ssVtime
p634
I798
sVresponse
p635
(dp636
Vstatus
p637
I200
sVcomment
p638
g4
sVcookies
p639
(lp640
sVstatusText
p641
VOK
p642
sVcontent
p643
(dp644
VmimeType
p645
Vtext/html; charset=UTF-8
p646
sVcomment
p647
g4
sVsize
p648
I0
ssVheaders
p649
(lp650
sVheadersSize
p651
I363
sVredirectURL
p652
g4
sVbodySize
p653
I112189
sVhttpVersion
p654
VHTTP/1.1
p655
ssa(dp656
Vcomment
p657
g4
sVserverIPAddress
p658
V216.58.216.196
p659
sVpageref
p660
VO.J. Simpson
p661
sVstartedDateTime
p662
V2017-04-16T08:07:40.918-05:00
p663
sVcache
p664
(dp665
sVrequest
p666
(dp667
Vcomment
p668
g4
sVcookies
p669
(lp670
sVurl
p671
Vhttps://www.google.com/xjs/_/js/k=xjs.qs.en_US.pCBXVCvTH3s.O/m=syl,syj,syn,em3,em8,em6,em7,sym,aa,abd,sy2g,sy2k,sy29,sy2j,sy2d,sy2a,sy2c,sy2f,sy2l,sy2m,sy2n,emd,async,sybn,sybi,sybo,sy1f,sy45,sy46,sy9w,sybk,sybj,sybp,sy1g,sy30,sy47,sybm,sybl,sybq,sy1h,sybh,dvl,syep,foot,ipv6,sy32,emj,shm,sy5g,sy5i,sy5k,sykh,tl,sy2x,sy2y,sy2t,sy38,em12,vs,sy5j,sy5h,sy6u,sy66,sy67,sy7d,sy7j,sy4u,sy69,sy89,sy7e,sykk,sykl,tnv,bct,sy48,sy3a,sy3c,sy5b,sy4x,sy4z,sy56,syea,sy4y,syci,syeb,sy4v,sy5d,sya3,sy40,sy76,sye9,syec,sye4,sy5a,sy51,sy5e,sya2,sy65,sye2,sy31,sy4t,sy4w,sy52,sy91,sy9l,sya4,sye6,syg5,sygv,sy5f,sy23,sy3b,sy4h,sy53,sy6d,sydt,sygs,sygw,sygu,sy2u,sygt,sy24,sy34,sygx,kpoe,sy4d,sy4f,sy4c,sy4e,sy4b,sy6w,shrb,sy4g,syd7,dgm,sy9m,sy9n,tbhm,sy1y,syac,sy25,sy99,syl6,emb,em9,ema,sy22,syl7,tbm,syf5,syf6,syf8,sygb,syg9,kptm,syf4,sy26,syfc,syfn,syf7,syff,sy1i,sy6i,sy68,sy8d,sy9b,syfl,syfr,syfq,syfg,sy1j,sy4q,sy5o,sy5r,sy6j,sy6n,sy6p,sy8h,syc7,syc8,syfb,syfj,syfs,syft,syg3,syg7,emn,emo,syg4,syg6,ivg,syhz,ssc,iuci,img,sy41,tcc,sy5x,qif,sygq,kpc,kpci,vrml,syj7,syj8,syj2,syjc,syj6,syj3,syjg,syjh,syje,syjd,syjk,syji,syjf,syj0,emr,ems,emt,emu,emv,emx,emy,emz,em10,em11,udlg,sy5z,atn,sy4i,sya1,ampfp/am=gCP4LtMEBXQA2RUaq_oFBISzAFA/rt=j/d=0/t=zcms/rs=ACT90oFwm4NZCwIcuuiqmthdlECdBzkhRA
p672
sVqueryString
p673
(lp674
sVheaders
p675
(lp676
sVheadersSize
p677
I1788
sVbodySize
p678
I0
sVmethod
p679
VGET
p680
sVhttpVersion
p681
VHTTP/1.1
p682
ssVtimings
p683
(dp684
Vcomment
p685
g4
sVreceive
p686
I76
sVsend
p687
I0
sVssl
p688
I-1
sVconnect
p689
I-1
sVdns
p690
I-1
sVwait
p691
I17
sVblocked
p692
I-1
ssVtime
p693
I93
sVresponse
p694
(dp695
Vstatus
p696
I200
sVcomment
p697
g4
sVcookies
p698
(lp699
sVstatusText
p700
VOK
p701
sVcontent
p702
(dp703
VmimeType
p704
Vtext/javascript; charset=UTF-8
p705
sVcomment
p706
g4
sVsize
p707
I0
ssVheaders
p708
(lp709
sVheadersSize
p710
I465
sVredirectURL
p711
g4
sVbodySize
p712
I287987
sVhttpVersion
p713
VHTTP/1.1
p714
ssa(dp715
Vcomment
p716
g4
sVserverIPAddress
p717
V216.58.216.196
p718
sVpageref
p719
VO.J. Simpson
p720
sVstartedDateTime
p721
V2017-04-16T08:07:41.322-05:00
p722
sVcache
p723
(dp724
sVrequest
p725
(dp726
Vcomment
p727
g4
sVcookies
p728
(lp729
sVurl
p730
Vhttps://www.google.com/gen_204?atyp=i&ct=&cad=&uact=1&vet=10ahUKEwiFnbffhanTAhUi_4MKHTRMDIUQ9V8IKigA..s&ei=mmzzWIXoM6L-jwS0mLGoCA&zx=1492348061321
p731
sVqueryString
p732
(lp733
(dp734
Vname
p735
Vatyp
p736
sVvalue
p737
g30
sa(dp738
Vname
p739
Vct
p740
sVvalue
p741
g4
sa(dp742
Vname
p743
Vcad
p744
sVvalue
p745
g4
sa(dp746
Vname
p747
Vuact
p748
sVvalue
p749
g59
sa(dp750
Vname
p751
Vvet
p752
sVvalue
p753
V10ahUKEwiFnbffhanTAhUi_4MKHTRMDIUQ9V8IKigA..s
p754
sa(dp755
Vname
p756
Vei
p757
sVvalue
p758
VmmzzWIXoM6L-jwS0mLGoCA
p759
sa(dp760
Vname
p761
Vzx
p762
sVvalue
p763
V1492348061321
p764
sasVheaders
p765
(lp766
sVheadersSize
p767
I663
sVbodySize
p768
I0
sVmethod
p769
VGET
p770
sVhttpVersion
p771
VHTTP/1.1
p772
ssVtimings
p773
(dp774
Vcomment
p775
g4
sVreceive
p776
I0
sVsend
p777
I0
sVssl
p778
I-1
sVconnect
p779
I-1
sVdns
p780
I-1
sVwait
p781
I25
sVblocked
p782
I-1
ssVtime
p783
I25
sVresponse
p784
(dp785
Vstatus
p786
I204
sVcomment
p787
g4
sVcookies
p788
(lp789
sVstatusText
p790
VNo Content
p791
sVcontent
p792
(dp793
VmimeType
p794
Vtext/html; charset=UTF-8
p795
sVcomment
p796
g4
sVsize
p797
I0
ssVheaders
p798
(lp799
sVheadersSize
p800
I248
sVredirectURL
p801
g4
sVbodySize
p802
I0
sVhttpVersion
p803
VHTTP/1.1
p804
ssa(dp805
Vcomment
p806
g4
sVserverIPAddress
p807
V216.58.216.196
p808
sVpageref
p809
VO.J. Simpson
p810
sVstartedDateTime
p811
V2017-04-16T08:07:41.324-05:00
p812
sVcache
p813
(dp814
sVrequest
p815
(dp816
Vcomment
p817
g4
sVcookies
p818
(lp819
sVurl
p820
Vhttps://www.google.com/gen_204?atyp=i&ct=&cad=&uact=1&vet=10ahUKEwiFnbffhanTAhUi_4MKHTRMDIUQ9V8IKygB..s&ei=mmzzWIXoM6L-jwS0mLGoCA&zx=1492348061323
p821
sVqueryString
p822
(lp823
(dp824
Vname
p825
Vatyp
p826
sVvalue
p827
g30
sa(dp828
Vname
p829
Vct
p830
sVvalue
p831
g4
sa(dp832
Vname
p833
Vcad
p834
sVvalue
p835
g4
sa(dp836
Vname
p837
Vuact
p838
sVvalue
p839
g59
sa(dp840
Vname
p841
Vvet
p842
sVvalue
p843
V10ahUKEwiFnbffhanTAhUi_4MKHTRMDIUQ9V8IKygB..s
p844
sa(dp845
Vname
p846
Vei
p847
sVvalue
p848
VmmzzWIXoM6L-jwS0mLGoCA
p849
sa(dp850
Vname
p851
Vzx
p852
sVvalue
p853
V1492348061323
p854
sasVheaders
p855
(lp856
sVheadersSize
p857
I663
sVbodySize
p858
I0
sVmethod
p859
VGET
p860
sVhttpVersion
p861
VHTTP/1.1
p862
ssVtimings
p863
(dp864
Vcomment
p865
g4
sVreceive
p866
I0
sVsend
p867
I0
sVssl
p868
I-1
sVconnect
p869
I-1
sVdns
p870
I-1
sVwait
p871
I27
sVblocked
p872
I-1
ssVtime
p873
I28
sVresponse
p874
(dp875
Vstatus
p876
I204
sVcomment
p877
g4
sVcookies
p878
(lp879
sVstatusText
p880
VNo Content
p881
sVcontent
p882
(dp883
VmimeType
p884
Vtext/html; charset=UTF-8
p885
sVcomment
p886
g4
sVsize
p887
I0
ssVheaders
p888
(lp889
sVheadersSize
p890
I248
sVredirectURL
p891
g4
sVbodySize
p892
I0
sVhttpVersion
p893
VHTTP/1.1
p894
ssa(dp895
Vcomment
p896
g4
sVserverIPAddress
p897
V216.58.216.196
p898
sVpageref
p899
VO.J. Simpson
p900
sVstartedDateTime
p901
V2017-04-16T08:07:41.327-05:00
p902
sVcache
p903
(dp904
sVrequest
p905
(dp906
Vcomment
p907
g4
sVcookies
p908
(lp909
sVurl
p910
Vhttps://www.google.com/gen_204?atyp=i&ct=&cad=&uact=1&vet=10ahUKEwiFnbffhanTAhUi_4MKHTRMDIUQ9V8ILCgC..s&ei=mmzzWIXoM6L-jwS0mLGoCA&zx=1492348061326
p911
sVqueryString
p912
(lp913
(dp914
Vname
p915
Vatyp
p916
sVvalue
p917
g30
sa(dp918
Vname
p919
Vct
p920
sVvalue
p921
g4
sa(dp922
Vname
p923
Vcad
p924
sVvalue
p925
g4
sa(dp926
Vname
p927
Vuact
p928
sVvalue
p929
g59
sa(dp930
Vname
p931
Vvet
p932
sVvalue
p933
V10ahUKEwiFnbffhanTAhUi_4MKHTRMDIUQ9V8ILCgC..s
p934
sa(dp935
Vname
p936
Vei
p937
sVvalue
p938
VmmzzWIXoM6L-jwS0mLGoCA
p939
sa(dp940
Vname
p941
Vzx
p942
sVvalue
p943
V1492348061326
p944
sasVheaders
p945
(lp946
sVheadersSize
p947
I663
sVbodySize
p948
I0
sVmethod
p949
VGET
p950
sVhttpVersion
p951
VHTTP/1.1
p952
ssVtimings
p953
(dp954
Vcomment
p955
g4
sVreceive
p956
I0
sVsend
p957
I0
sVssl
p958
I-1
sVconnect
p959
I-1
sVdns
p960
I-1
sVwait
p961
I28
sVblocked
p962
I-1
ssVtime
p963
I28
sVresponse
p964
(dp965
Vstatus
p966
I204
sVcomment
p967
g4
sVcookies
p968
(lp969
sVstatusText
p970
VNo Content
p971
sVcontent
p972
(dp973
VmimeType
p974
Vtext/html; charset=UTF-8
p975
sVcomment
p976
g4
sVsize
p977
I0
ssVheaders
p978
(lp979
sVheadersSize
p980
I248
sVredirectURL
p981
g4
sVbodySize
p982
I0
sVhttpVersion
p983
VHTTP/1.1
p984
ssa(dp985
Vcomment
p986
g4
sVserverIPAddress
p987
V216.58.216.196
p988
sVpageref
p989
VO.J. Simpson
p990
sVstartedDateTime
p991
V2017-04-16T08:07:41.341-05:00
p992
sVcache
p993
(dp994
sVrequest
p995
(dp996
Vcomment
p997
g4
sVcookies
p998
(lp999
sVurl
p1000
Vhttps://www.google.com/async/irc?vet=10ahUKEwiFnbffhanTAhUi_4MKHTRMDIUQo0EIrgI..i&ved=0ahUKEwiFnbffhanTAhUi_4MKHTRMDIUQo0EIrgI&ei=mmzzWIXoM6L-jwS0mLGoCA&yv=2&async=iu:1,ved:0ahUKEwiFnbffhanTAhUi_4MKHTRMDIUQo0EIrgI,_id:irc_async,_pms:qs
p1001
sVqueryString
p1002
(lp1003
(dp1004
Vname
p1005
Vvet
p1006
sVvalue
p1007
V10ahUKEwiFnbffhanTAhUi_4MKHTRMDIUQo0EIrgI..i
p1008
sa(dp1009
Vname
p1010
Vved
p1011
sVvalue
p1012
V0ahUKEwiFnbffhanTAhUi_4MKHTRMDIUQo0EIrgI
p1013
sa(dp1014
Vname
p1015
Vei
p1016
sVvalue
p1017
VmmzzWIXoM6L-jwS0mLGoCA
p1018
sa(dp1019
Vname
p1020
Vyv
p1021
sVvalue
p1022
g64
sa(dp1023
Vname
p1024
Vasync
p1025
sVvalue
p1026
Viu:1,ved:0ahUKEwiFnbffhanTAhUi_4MKHTRMDIUQo0EIrgI,_id:irc_async,_pms:qs
p1027
sasVheaders
p1028
(lp1029
sVheadersSize
p1030
I752
sVbodySize
p1031
I0
sVmethod
p1032
VGET
p1033
sVhttpVersion
p1034
VHTTP/1.1
p1035
ssVtimings
p1036
(dp1037
Vcomment
p1038
g4
sVreceive
p1039
I0
sVsend
p1040
I0
sVssl
p1041
I-1
sVconnect
p1042
I-1
sVdns
p1043
I-1
sVwait
p1044
I46
sVblocked
p1045
I-1
ssVtime
p1046
I47
sVresponse
p1047
(dp1048
Vstatus
p1049
I200
sVcomment
p1050
g4
sVcookies
p1051
(lp1052
sVstatusText
p1053
VOK
p1054
sVcontent
p1055
(dp1056
VmimeType
p1057
Vtext/html; charset=UTF-8
p1058
sVcomment
p1059
g4
sVsize
p1060
I0
ssVheaders
p1061
(lp1062
sVheadersSize
p1063
I383
sVredirectURL
p1064
g4
sVbodySize
p1065
I7796
sVhttpVersion
p1066
VHTTP/1.1
p1067
ssa(dp1068
Vcomment
p1069
g4
sVserverIPAddress
p1070
V216.58.216.196
p1071
sVpageref
p1072
VO.J. Simpson
p1073
sVstartedDateTime
p1074
V2017-04-16T08:07:41.350-05:00
p1075
sVcache
p1076
(dp1077
sVrequest
p1078
(dp1079
Vcomment
p1080
g4
sVcookies
p1081
(lp1082
sVurl
p1083
Vhttps://www.google.com/gen_204?atyp=i&ct=&cad=&vet=10ahUKEwiFnbffhanTAhUi_4MKHTRMDIUQ5W0IOSgC..s&ei=mmzzWIXoM6L-jwS0mLGoCA&zx=1492348061349
p1084
sVqueryString
p1085
(lp1086
(dp1087
Vname
p1088
Vatyp
p1089
sVvalue
p1090
g30
sa(dp1091
Vname
p1092
Vct
p1093
sVvalue
p1094
g4
sa(dp1095
Vname
p1096
Vcad
p1097
sVvalue
p1098
g4
sa(dp1099
Vname
p1100
Vvet
p1101
sVvalue
p1102
V10ahUKEwiFnbffhanTAhUi_4MKHTRMDIUQ5W0IOSgC..s
p1103
sa(dp1104
Vname
p1105
Vei
p1106
sVvalue
p1107
VmmzzWIXoM6L-jwS0mLGoCA
p1108
sa(dp1109
Vname
p1110
Vzx
p1111
sVvalue
p1112
V1492348061349
p1113
sasVheaders
p1114
(lp1115
sVheadersSize
p1116
I656
sVbodySize
p1117
I0
sVmethod
p1118
VGET
p1119
sVhttpVersion
p1120
VHTTP/1.1
p1121
ssVtimings
p1122
(dp1123
Vcomment
p1124
g4
sVreceive
p1125
I0
sVsend
p1126
I0
sVssl
p1127
I-1
sVconnect
p1128
I-1
sVdns
p1129
I-1
sVwait
p1130
I27
sVblocked
p1131
I-1
ssVtime
p1132
I27
sVresponse
p1133
(dp1134
Vstatus
p1135
I204
sVcomment
p1136
g4
sVcookies
p1137
(lp1138
sVstatusText
p1139
VNo Content
p1140
sVcontent
p1141
(dp1142
VmimeType
p1143
Vtext/html; charset=UTF-8
p1144
sVcomment
p1145
g4
sVsize
p1146
I0
ssVheaders
p1147
(lp1148
sVheadersSize
p1149
I248
sVredirectURL
p1150
g4
sVbodySize
p1151
I0
sVhttpVersion
p1152
VHTTP/1.1
p1153
ssa(dp1154
Vcomment
p1155
g4
sVserverIPAddress
p1156
V216.58.216.196
p1157
sVpageref
p1158
VO.J. Simpson
p1159
sVstartedDateTime
p1160
V2017-04-16T08:07:41.355-05:00
p1161
sVcache
p1162
(dp1163
sVrequest
p1164
(dp1165
Vcomment
p1166
g4
sVcookies
p1167
(lp1168
sVurl
p1169
Vhttps://www.google.com/gen_204?atyp=i&ct=&cad=&vet=10ahUKEwiFnbffhanTAhUi_4MKHTRMDIUQ5W0IPygE..s&ei=mmzzWIXoM6L-jwS0mLGoCA&zx=1492348061352
p1170
sVqueryString
p1171
(lp1172
(dp1173
Vname
p1174
Vatyp
p1175
sVvalue
p1176
g30
sa(dp1177
Vname
p1178
Vct
p1179
sVvalue
p1180
g4
sa(dp1181
Vname
p1182
Vcad
p1183
sVvalue
p1184
g4
sa(dp1185
Vname
p1186
Vvet
p1187
sVvalue
p1188
V10ahUKEwiFnbffhanTAhUi_4MKHTRMDIUQ5W0IPygE..s
p1189
sa(dp1190
Vname
p1191
Vei
p1192
sVvalue
p1193
VmmzzWIXoM6L-jwS0mLGoCA
p1194
sa(dp1195
Vname
p1196
Vzx
p1197
sVvalue
p1198
V1492348061352
p1199
sasVheaders
p1200
(lp1201
sVheadersSize
p1202
I656
sVbodySize
p1203
I0
sVmethod
p1204
VGET
p1205
sVhttpVersion
p1206
VHTTP/1.1
p1207
ssVtimings
p1208
(dp1209
Vcomment
p1210
g4
sVreceive
p1211
I0
sVsend
p1212
I0
sVssl
p1213
I-1
sVconnect
p1214
I-1
sVdns
p1215
I-1
sVwait
p1216
I33
sVblocked
p1217
I-1
ssVtime
p1218
I33
sVresponse
p1219
(dp1220
Vstatus
p1221
I204
sVcomment
p1222
g4
sVcookies
p1223
(lp1224
sVstatusText
p1225
VNo Content
p1226
sVcontent
p1227
(dp1228
VmimeType
p1229
Vtext/html; charset=UTF-8
p1230
sVcomment
p1231
g4
sVsize
p1232
I0
ssVheaders
p1233
(lp1234
sVheadersSize
p1235
I248
sVredirectURL
p1236
g4
sVbodySize
p1237
I0
sVhttpVersion
p1238
VHTTP/1.1
p1239
ssa(dp1240
Vcomment
p1241
g4
sVserverIPAddress
p1242
V216.58.216.196
p1243
sVpageref
p1244
VO.J. Simpson
p1245
sVstartedDateTime
p1246
V2017-04-16T08:07:41.357-05:00
p1247
sVcache
p1248
(dp1249
sVrequest
p1250
(dp1251
Vcomment
p1252
g4
sVcookies
p1253
(lp1254
sVurl
p1255
Vhttps://www.google.com/gen_204?atyp=i&ct=&cad=&vet=10ahUKEwiFnbffhanTAhUi_4MKHTRMDIUQ5W0IRSgG..s&ei=mmzzWIXoM6L-jwS0mLGoCA&zx=1492348061356
p1256
sVqueryString
p1257
(lp1258
(dp1259
Vname
p1260
Vatyp
p1261
sVvalue
p1262
g30
sa(dp1263
Vname
p1264
Vct
p1265
sVvalue
p1266
g4
sa(dp1267
Vname
p1268
Vcad
p1269
sVvalue
p1270
g4
sa(dp1271
Vname
p1272
Vvet
p1273
sVvalue
p1274
V10ahUKEwiFnbffhanTAhUi_4MKHTRMDIUQ5W0IRSgG..s
p1275
sa(dp1276
Vname
p1277
Vei
p1278
sVvalue
p1279
VmmzzWIXoM6L-jwS0mLGoCA
p1280
sa(dp1281
Vname
p1282
Vzx
p1283
sVvalue
p1284
V1492348061356
p1285
sasVheaders
p1286
(lp1287
sVheadersSize
p1288
I656
sVbodySize
p1289
I0
sVmethod
p1290
VGET
p1291
sVhttpVersion
p1292
VHTTP/1.1
p1293
ssVtimings
p1294
(dp1295
Vcomment
p1296
g4
sVreceive
p1297
I0
sVsend
p1298
I0
sVssl
p1299
I-1
sVconnect
p1300
I-1
sVdns
p1301
I-1
sVwait
p1302
I34
sVblocked
p1303
I-1
ssVtime
p1304
I34
sVresponse
p1305
(dp1306
Vstatus
p1307
I204
sVcomment
p1308
g4
sVcookies
p1309
(lp1310
sVstatusText
p1311
VNo Content
p1312
sVcontent
p1313
(dp1314
VmimeType
p1315
Vtext/html; charset=UTF-8
p1316
sVcomment
p1317
g4
sVsize
p1318
I0
ssVheaders
p1319
(lp1320
sVheadersSize
p1321
I248
sVredirectURL
p1322
g4
sVbodySize
p1323
I0
sVhttpVersion
p1324
VHTTP/1.1
p1325
ssa(dp1326
Vcomment
p1327
g4
sVserverIPAddress
p1328
V216.58.216.196
p1329
sVpageref
p1330
VO.J. Simpson
p1331
sVstartedDateTime
p1332
V2017-04-16T08:07:41.384-05:00
p1333
sVcache
p1334
(dp1335
sVrequest
p1336
(dp1337
Vcomment
p1338
g4
sVcookies
p1339
(lp1340
sVurl
p1341
Vhttps://www.google.com/gen_204?atyp=i&ct=&cad=&vet=10ahUKEwiFnbffhanTAhUi_4MKHTRMDIUQ5W0IPCgD..s&ei=mmzzWIXoM6L-jwS0mLGoCA&zx=1492348061351
p1342
sVqueryString
p1343
(lp1344
(dp1345
Vname
p1346
Vatyp
p1347
sVvalue
p1348
g30
sa(dp1349
Vname
p1350
Vct
p1351
sVvalue
p1352
g4
sa(dp1353
Vname
p1354
Vcad
p1355
sVvalue
p1356
g4
sa(dp1357
Vname
p1358
Vvet
p1359
sVvalue
p1360
V10ahUKEwiFnbffhanTAhUi_4MKHTRMDIUQ5W0IPCgD..s
p1361
sa(dp1362
Vname
p1363
Vei
p1364
sVvalue
p1365
VmmzzWIXoM6L-jwS0mLGoCA
p1366
sa(dp1367
Vname
p1368
Vzx
p1369
sVvalue
p1370
V1492348061351
p1371
sasVheaders
p1372
(lp1373
sVheadersSize
p1374
I656
sVbodySize
p1375
I0
sVmethod
p1376
VGET
p1377
sVhttpVersion
p1378
VHTTP/1.1
p1379
ssVtimings
p1380
(dp1381
Vcomment
p1382
g4
sVreceive
p1383
I0
sVsend
p1384
I0
sVssl
p1385
I17
sVconnect
p1386
I29
sVdns
p1387
I1
sVwait
p1388
I34
sVblocked
p1389
I0
ssVtime
p1390
I65
sVresponse
p1391
(dp1392
Vstatus
p1393
I204
sVcomment
p1394
g4
sVcookies
p1395
(lp1396
sVstatusText
p1397
VNo Content
p1398
sVcontent
p1399
(dp1400
VmimeType
p1401
Vtext/html; charset=UTF-8
p1402
sVcomment
p1403
g4
sVsize
p1404
I0
ssVheaders
p1405
(lp1406
sVheadersSize
p1407
I248
sVredirectURL
p1408
g4
sVbodySize
p1409
I0
sVhttpVersion
p1410
VHTTP/1.1
p1411
ssa(dp1412
Vcomment
p1413
g4
sVserverIPAddress
p1414
V216.58.216.196
p1415
sVpageref
p1416
VO.J. Simpson
p1417
sVstartedDateTime
p1418
V2017-04-16T08:07:41.391-05:00
p1419
sVcache
p1420
(dp1421
sVrequest
p1422
(dp1423
Vcomment
p1424
g4
sVcookies
p1425
(lp1426
sVurl
p1427
Vhttps://www.google.com/gen_204?atyp=i&ct=&cad=&vet=10ahUKEwiFnbffhanTAhUi_4MKHTRMDIUQ5W0IQigF..s&ei=mmzzWIXoM6L-jwS0mLGoCA&zx=1492348061354
p1428
sVqueryString
p1429
(lp1430
(dp1431
Vname
p1432
Vatyp
p1433
sVvalue
p1434
g30
sa(dp1435
Vname
p1436
Vct
p1437
sVvalue
p1438
g4
sa(dp1439
Vname
p1440
Vcad
p1441
sVvalue
p1442
g4
sa(dp1443
Vname
p1444
Vvet
p1445
sVvalue
p1446
V10ahUKEwiFnbffhanTAhUi_4MKHTRMDIUQ5W0IQigF..s
p1447
sa(dp1448
Vname
p1449
Vei
p1450
sVvalue
p1451
VmmzzWIXoM6L-jwS0mLGoCA
p1452
sa(dp1453
Vname
p1454
Vzx
p1455
sVvalue
p1456
V1492348061354
p1457
sasVheaders
p1458
(lp1459
sVheadersSize
p1460
I656
sVbodySize
p1461
I0
sVmethod
p1462
VGET
p1463
sVhttpVersion
p1464
VHTTP/1.1
p1465
ssVtimings
p1466
(dp1467
Vcomment
p1468
g4
sVreceive
p1469
I0
sVsend
p1470
I0
sVssl
p1471
I21
sVconnect
p1472
I35
sVdns
p1473
I0
sVwait
p1474
I27
sVblocked
p1475
I0
ssVtime
p1476
I63
sVresponse
p1477
(dp1478
Vstatus
p1479
I204
sVcomment
p1480
g4
sVcookies
p1481
(lp1482
sVstatusText
p1483
VNo Content
p1484
sVcontent
p1485
(dp1486
VmimeType
p1487
Vtext/html; charset=UTF-8
p1488
sVcomment
p1489
g4
sVsize
p1490
I0
ssVheaders
p1491
(lp1492
sVheadersSize
p1493
I248
sVredirectURL
p1494
g4
sVbodySize
p1495
I0
sVhttpVersion
p1496
VHTTP/1.1
p1497
ssa(dp1498
Vcomment
p1499
g4
sVserverIPAddress
p1500
V216.58.216.196
p1501
sVpageref
p1502
VO.J. Simpson
p1503
sVstartedDateTime
p1504
V2017-04-16T08:07:41.423-05:00
p1505
sVcache
p1506
(dp1507
sVrequest
p1508
(dp1509
Vcomment
p1510
g4
sVcookies
p1511
(lp1512
sVurl
p1513
Vhttps://www.google.com/async/ampfp?vet=10ahUKEwiFnbffhanTAhUi_4MKHTRMDIUQtZoBCKwC..i&ei=mmzzWIXoM6L-jwS0mLGoCA&yv=2&async=_id:ampfp-async,_pms:qs
p1514
sVqueryString
p1515
(lp1516
(dp1517
Vname
p1518
Vvet
p1519
sVvalue
p1520
V10ahUKEwiFnbffhanTAhUi_4MKHTRMDIUQtZoBCKwC..i
p1521
sa(dp1522
Vname
p1523
Vei
p1524
sVvalue
p1525
VmmzzWIXoM6L-jwS0mLGoCA
p1526
sa(dp1527
Vname
p1528
Vyv
p1529
sVvalue
p1530
g64
sa(dp1531
Vname
p1532
Vasync
p1533
sVvalue
p1534
V_id:ampfp-async,_pms:qs
p1535
sasVheaders
p1536
(lp1537
sVheadersSize
p1538
I662
sVbodySize
p1539
I0
sVmethod
p1540
VGET
p1541
sVhttpVersion
p1542
VHTTP/1.1
p1543
ssVtimings
p1544
(dp1545
Vcomment
p1546
g4
sVreceive
p1547
I0
sVsend
p1548
I0
sVssl
p1549
I-1
sVconnect
p1550
I-1
sVdns
p1551
I-1
sVwait
p1552
I38
sVblocked
p1553
I-1
ssVtime
p1554
I39
sVresponse
p1555
(dp1556
Vstatus
p1557
I200
sVcomment
p1558
g4
sVcookies
p1559
(lp1560
sVstatusText
p1561
VOK
p1562
sVcontent
p1563
(dp1564
VmimeType
p1565
Vtext/html; charset=UTF-8
p1566
sVcomment
p1567
g4
sVsize
p1568
I0
ssVheaders
p1569
(lp1570
sVheadersSize
p1571
I383
sVredirectURL
p1572
g4
sVbodySize
p1573
I4522
sVhttpVersion
p1574
VHTTP/1.1
p1575
ssa(dp1576
Vcomment
p1577
g4
sVserverIPAddress
p1578
V216.58.216.193
p1579
sVpageref
p1580
VO.J. Simpson
p1581
sVstartedDateTime
p1582
V2017-04-16T08:07:41.424-05:00
p1583
sVcache
p1584
(dp1585
sVrequest
p1586
(dp1587
Vcomment
p1588
g4
sVcookies
p1589
(lp1590
sVurl
p1591
Vhttps://cdn.ampproject.org/preconnect.gif?0.9508160268249287
p1592
sVqueryString
p1593
(lp1594
(dp1595
Vname
p1596
V0.9508160268249287
p1597
sVvalue
p1598
g4
sasVheaders
p1599
(lp1600
sVheadersSize
p1601
I375
sVbodySize
p1602
I0
sVmethod
p1603
VGET
p1604
sVhttpVersion
p1605
VHTTP/1.1
p1606
ssVtimings
p1607
(dp1608
Vcomment
p1609
g4
sVreceive
p1610
I0
sVsend
p1611
I0
sVssl
p1612
I-1
sVconnect
p1613
I-1
sVdns
p1614
I-1
sVwait
p1615
I30
sVblocked
p1616
I-1
ssVtime
p1617
I30
sVresponse
p1618
(dp1619
Vstatus
p1620
I200
sVcomment
p1621
g4
sVcookies
p1622
(lp1623
sVstatusText
p1624
VOK
p1625
sVcontent
p1626
(dp1627
VmimeType
p1628
Vimage/gif
p1629
sVcomment
p1630
g4
sVsize
p1631
I0
ssVheaders
p1632
(lp1633
sVheadersSize
p1634
I826
sVredirectURL
p1635
g4
sVbodySize
p1636
I37
sVhttpVersion
p1637
VHTTP/1.1
p1638
ssa(dp1639
Vcomment
p1640
g4
sVserverIPAddress
p1641
V216.58.216.206
p1642
sVpageref
p1643
VO.J. Simpson
p1644
sVstartedDateTime
p1645
V2017-04-16T08:07:41.438-05:00
p1646
sVcache
p1647
(dp1648
sVrequest
p1649
(dp1650
Vcomment
p1651
g4
sVcookies
p1652
(lp1653
sVurl
p1654
Vhttps://encrypted-tbn3.gstatic.com/images?q=tbn:ANd9GcROvpYMhjm4WoPn9IxsPfxO7hd8ShVexQL55vS8Qxo-joClZYBHT7gkb_BC
p1655
sVqueryString
p1656
(lp1657
(dp1658
Vname
p1659
g513
sVvalue
p1660
Vtbn:ANd9GcROvpYMhjm4WoPn9IxsPfxO7hd8ShVexQL55vS8Qxo-joClZYBHT7gkb_BC
p1661
sasVheaders
p1662
(lp1663
sVheadersSize
p1664
I427
sVbodySize
p1665
I0
sVmethod
p1666
VGET
p1667
sVhttpVersion
p1668
VHTTP/1.1
p1669
ssVtimings
p1670
(dp1671
Vcomment
p1672
g4
sVreceive
p1673
I2
sVsend
p1674
I0
sVssl
p1675
I-1
sVconnect
p1676
I-1
sVdns
p1677
I-1
sVwait
p1678
I13
sVblocked
p1679
I-1
ssVtime
p1680
I16
sVresponse
p1681
(dp1682
Vstatus
p1683
I200
sVcomment
p1684
g4
sVcookies
p1685
(lp1686
sVstatusText
p1687
VOK
p1688
sVcontent
p1689
(dp1690
VmimeType
p1691
Vimage/jpeg
p1692
sVcomment
p1693
g4
sVsize
p1694
I0
ssVheaders
p1695
(lp1696
sVheadersSize
p1697
I429
sVredirectURL
p1698
g4
sVbodySize
p1699
I7607
sVhttpVersion
p1700
VHTTP/1.1
p1701
ssa(dp1702
Vcomment
p1703
g4
sVserverIPAddress
p1704
V216.58.216.206
p1705
sVpageref
p1706
VO.J. Simpson
p1707
sVstartedDateTime
p1708
V2017-04-16T08:07:41.438-05:00
p1709
sVcache
p1710
(dp1711
sVrequest
p1712
(dp1713
Vcomment
p1714
g4
sVcookies
p1715
(lp1716
sVurl
p1717
Vhttps://encrypted-tbn0.gstatic.com/images?q=tbn:ANd9GcS6M5kinT7L5ZvNFPgptsUmPjMNXnmicI4jnDS4-VYGiWjmPDBNA9uKjlac
p1718
sVqueryString
p1719
(lp1720
(dp1721
Vname
p1722
g513
sVvalue
p1723
Vtbn:ANd9GcS6M5kinT7L5ZvNFPgptsUmPjMNXnmicI4jnDS4-VYGiWjmPDBNA9uKjlac
p1724
sasVheaders
p1725
(lp1726
sVheadersSize
p1727
I427
sVbodySize
p1728
I0
sVmethod
p1729
VGET
p1730
sVhttpVersion
p1731
VHTTP/1.1
p1732
ssVtimings
p1733
(dp1734
Vcomment
p1735
g4
sVreceive
p1736
I1
sVsend
p1737
I0
sVssl
p1738
I-1
sVconnect
p1739
I-1
sVdns
p1740
I-1
sVwait
p1741
I17
sVblocked
p1742
I-1
ssVtime
p1743
I19
sVresponse
p1744
(dp1745
Vstatus
p1746
I200
sVcomment
p1747
g4
sVcookies
p1748
(lp1749
sVstatusText
p1750
VOK
p1751
sVcontent
p1752
(dp1753
VmimeType
p1754
Vimage/jpeg
p1755
sVcomment
p1756
g4
sVsize
p1757
I0
ssVheaders
p1758
(lp1759
sVheadersSize
p1760
I428
sVredirectURL
p1761
g4
sVbodySize
p1762
I4260
sVhttpVersion
p1763
VHTTP/1.1
p1764
ssa(dp1765
Vcomment
p1766
g4
sVserverIPAddress
p1767
V216.58.216.206
p1768
sVpageref
p1769
VO.J. Simpson
p1770
sVstartedDateTime
p1771
V2017-04-16T08:07:41.438-05:00
p1772
sVcache
p1773
(dp1774
sVrequest
p1775
(dp1776
Vcomment
p1777
g4
sVcookies
p1778
(lp1779
sVurl
p1780
Vhttps://encrypted-tbn3.gstatic.com/images?q=tbn:ANd9GcSMkzZH_EO9EXt4Kzu2I2wO7wNV4QD7eLK3VgA8IHak6uq24rkPvVvUZ6x1bQ
p1781
sVqueryString
p1782
(lp1783
(dp1784
Vname
p1785
g513
sVvalue
p1786
Vtbn:ANd9GcSMkzZH_EO9EXt4Kzu2I2wO7wNV4QD7eLK3VgA8IHak6uq24rkPvVvUZ6x1bQ
p1787
sasVheaders
p1788
(lp1789
sVheadersSize
p1790
I429
sVbodySize
p1791
I0
sVmethod
p1792
VGET
p1793
sVhttpVersion
p1794
VHTTP/1.1
p1795
ssVtimings
p1796
(dp1797
Vcomment
p1798
g4
sVreceive
p1799
I1
sVsend
p1800
I0
sVssl
p1801
I-1
sVconnect
p1802
I-1
sVdns
p1803
I-1
sVwait
p1804
I24
sVblocked
p1805
I-1
ssVtime
p1806
I25
sVresponse
p1807
(dp1808
Vstatus
p1809
I200
sVcomment
p1810
g4
sVcookies
p1811
(lp1812
sVstatusText
p1813
VOK
p1814
sVcontent
p1815
(dp1816
VmimeType
p1817
Vimage/jpeg
p1818
sVcomment
p1819
g4
sVsize
p1820
I0
ssVheaders
p1821
(lp1822
sVheadersSize
p1823
I428
sVredirectURL
p1824
g4
sVbodySize
p1825
I7591
sVhttpVersion
p1826
VHTTP/1.1
p1827
ssa(dp1828
Vcomment
p1829
g4
sVserverIPAddress
p1830
V216.58.216.196
p1831
sVpageref
p1832
VO.J. Simpson
p1833
sVstartedDateTime
p1834
V2017-04-16T08:07:41.559-05:00
p1835
sVcache
p1836
(dp1837
sVrequest
p1838
(dp1839
Vcomment
p1840
g4
sVcookies
p1841
(lp1842
sVurl
p1843
Vhttps://www.google.com/async/log_amp_item_set?vet=10ahUKEwiP9ZfghanTAhWJ64MKHbCEBagQooQBCAE..i&ei=mmzzWIXoM6L-jwS0mLGoCA&yv=2&async=num_items:1,_fmt:jspb
p1844
sVqueryString
p1845
(lp1846
(dp1847
Vname
p1848
Vvet
p1849
sVvalue
p1850
V10ahUKEwiP9ZfghanTAhWJ64MKHbCEBagQooQBCAE..i
p1851
sa(dp1852
Vname
p1853
Vei
p1854
sVvalue
p1855
VmmzzWIXoM6L-jwS0mLGoCA
p1856
sa(dp1857
Vname
p1858
Vyv
p1859
sVvalue
p1860
g64
sa(dp1861
Vname
p1862
Vasync
p1863
sVvalue
p1864
Vnum_items:1,_fmt:jspb
p1865
sasVheaders
p1866
(lp1867
sVheadersSize
p1868
I670
sVbodySize
p1869
I0
sVmethod
p1870
VGET
p1871
sVhttpVersion
p1872
VHTTP/1.1
p1873
ssVtimings
p1874
(dp1875
Vcomment
p1876
g4
sVreceive
p1877
I0
sVsend
p1878
I0
sVssl
p1879
I-1
sVconnect
p1880
I-1
sVdns
p1881
I-1
sVwait
p1882
I33
sVblocked
p1883
I-1
ssVtime
p1884
I33
sVresponse
p1885
(dp1886
Vstatus
p1887
I200
sVcomment
p1888
g4
sVcookies
p1889
(lp1890
sVstatusText
p1891
VOK
p1892
sVcontent
p1893
(dp1894
VmimeType
p1895
Vapplication/json; charset=UTF-8
p1896
sVcomment
p1897
g4
sVsize
p1898
I0
ssVheaders
p1899
(lp1900
sVheadersSize
p1901
I417
sVredirectURL
p1902
g4
sVbodySize
p1903
I132
sVhttpVersion
p1904
VHTTP/1.1
p1905
ssa(dp1906
Vcomment
p1907
g4
sVserverIPAddress
p1908
V216.58.216.193
p1909
sVpageref
p1910
VO.J. Simpson
p1911
sVstartedDateTime
p1912
V2017-04-16T08:07:42.519-05:00
p1913
sVcache
p1914
(dp1915
sVrequest
p1916
(dp1917
Vcomment
p1918
g4
sVcookies
p1919
(lp1920
sVurl
p1921
Vhttps://abcnews-go-com.cdn.ampproject.org/v/abcnews.go.com/amp/US/oj-simpson-trial-now/story?id=17377772&amp_js_v=9
p1922
sVqueryString
p1923
(lp1924
(dp1925
Vname
p1926
Vid
p1927
sVvalue
p1928
V17377772
p1929
sa(dp1930
Vname
p1931
Vamp_js_v
p1932
sVvalue
p1933
V9
p1934
sasVheaders
p1935
(lp1936
sVheadersSize
p1937
I520
sVbodySize
p1938
I0
sVmethod
p1939
VGET
p1940
sVhttpVersion
p1941
VHTTP/1.1
p1942
ssVtimings
p1943
(dp1944
Vcomment
p1945
g4
sVreceive
p1946
I2
sVsend
p1947
I0
sVssl
p1948
I894
sVconnect
p1949
I914
sVdns
p1950
I37
sVwait
p1951
I76
sVblocked
p1952
I0
ssVtime
p1953
I1031
sVresponse
p1954
(dp1955
Vstatus
p1956
I200
sVcomment
p1957
g4
sVcookies
p1958
(lp1959
sVstatusText
p1960
VOK
p1961
sVcontent
p1962
(dp1963
VmimeType
p1964
Vtext/html
p1965
sVcomment
p1966
g4
sVsize
p1967
I0
ssVheaders
p1968
(lp1969
sVheadersSize
p1970
I862
sVredirectURL
p1971
g4
sVbodySize
p1972
I11175
sVhttpVersion
p1973
VHTTP/1.1
p1974
ssa(dp1975
Vcomment
p1976
g4
sVserverIPAddress
p1977
V216.58.216.202
p1978
sVpageref
p1979
VO.J. Simpson
p1980
sVstartedDateTime
p1981
V2017-04-16T08:07:42.611-05:00
p1982
sVcache
p1983
(dp1984
sVrequest
p1985
(dp1986
Vcomment
p1987
g4
sVcookies
p1988
(lp1989
sVurl
p1990
Vhttps://fonts.googleapis.com/css?family=Open+Sans:400,600,700
p1991
sVqueryString
p1992
(lp1993
(dp1994
Vname
p1995
Vfamily
p1996
sVvalue
p1997
VOpen Sans:400,600,700
p1998
sasVheaders
p1999
(lp2000
sVheadersSize
p2001
I483
sVbodySize
p2002
I0
sVmethod
p2003
VGET
p2004
sVhttpVersion
p2005
VHTTP/1.1
p2006
ssVtimings
p2007
(dp2008
Vcomment
p2009
g4
sVreceive
p2010
I1
sVsend
p2011
I0
sVssl
p2012
I-1
sVconnect
p2013
I-1
sVdns
p2014
I-1
sVwait
p2015
I36
sVblocked
p2016
I-1
ssVtime
p2017
I38
sVresponse
p2018
(dp2019
Vstatus
p2020
I200
sVcomment
p2021
g4
sVcookies
p2022
(lp2023
sVstatusText
p2024
VOK
p2025
sVcontent
p2026
(dp2027
VmimeType
p2028
Vtext/css; charset=utf-8
p2029
sVcomment
p2030
g4
sVsize
p2031
I0
ssVheaders
p2032
(lp2033
sVheadersSize
p2034
I405
sVredirectURL
p2035
g4
sVbodySize
p2036
I807
sVhttpVersion
p2037
VHTTP/1.1
p2038
ssa(dp2039
Vcomment
p2040
g4
sVserverIPAddress
p2041
V216.58.216.195
p2042
sVpageref
p2043
VO.J. Simpson
p2044
sVstartedDateTime
p2045
V2017-04-16T08:07:42.726-05:00
p2046
sVcache
p2047
(dp2048
sVrequest
p2049
(dp2050
Vcomment
p2051
g4
sVcookies
p2052
(lp2053
sVurl
p2054
Vhttps://fonts.gstatic.com/s/opensans/v13/cJZKeOuBrn4kERxqtaUH3ZBw1xU1rKptJj_0jans920.woff2
p2055
sVqueryString
p2056
(lp2057
sVheaders
p2058
(lp2059
sVheadersSize
p2060
I548
sVbodySize
p2061
I0
sVmethod
p2062
VGET
p2063
sVhttpVersion
p2064
VHTTP/1.1
p2065
ssVtimings
p2066
(dp2067
Vcomment
p2068
g4
sVreceive
p2069
I13
sVsend
p2070
I0
sVssl
p2071
I25
sVconnect
p2072
I37
sVdns
p2073
I2
sVwait
p2074
I12
sVblocked
p2075
I0
ssVtime
p2076
I66
sVresponse
p2077
(dp2078
Vstatus
p2079
I200
sVcomment
p2080
g4
sVcookies
p2081
(lp2082
sVstatusText
p2083
VOK
p2084
sVcontent
p2085
(dp2086
VmimeType
p2087
Vfont/woff2
p2088
sVcomment
p2089
g4
sVsize
p2090
I0
ssVheaders
p2091
(lp2092
sVheadersSize
p2093
I453
sVredirectURL
p2094
g4
sVbodySize
p2095
I10352
sVhttpVersion
p2096
VHTTP/1.1
p2097
ssa(dp2098
Vcomment
p2099
g4
sVserverIPAddress
p2100
V216.58.216.195
p2101
sVpageref
p2102
VO.J. Simpson
p2103
sVstartedDateTime
p2104
V2017-04-16T08:07:42.726-05:00
p2105
sVcache
p2106
(dp2107
sVrequest
p2108
(dp2109
Vcomment
p2110
g4
sVcookies
p2111
(lp2112
sVurl
p2113
Vhttps://fonts.gstatic.com/s/opensans/v13/k3k702ZOKiLJc3WVjuplzBampu5_7CjHW5spxoeN3Vs.woff2
p2114
sVqueryString
p2115
(lp2116
sVheaders
p2117
(lp2118
sVheadersSize
p2119
I548
sVbodySize
p2120
I0
sVmethod
p2121
VGET
p2122
sVhttpVersion
p2123
VHTTP/1.1
p2124
ssVtimings
p2125
(dp2126
Vcomment
p2127
g4
sVreceive
p2128
I13
sVsend
p2129
I0
sVssl
p2130
I24
sVconnect
p2131
I37
sVdns
p2132
I1
sVwait
p2133
I12
sVblocked
p2134
I0
ssVtime
p2135
I65
sVresponse
p2136
(dp2137
Vstatus
p2138
I200
sVcomment
p2139
g4
sVcookies
p2140
(lp2141
sVstatusText
p2142
VOK
p2143
sVcontent
p2144
(dp2145
VmimeType
p2146
Vfont/woff2
p2147
sVcomment
p2148
g4
sVsize
p2149
I0
ssVheaders
p2150
(lp2151
sVheadersSize
p2152
I453
sVredirectURL
p2153
g4
sVbodySize
p2154
I10284
sVhttpVersion
p2155
VHTTP/1.1
p2156
ssa(dp2157
Vcomment
p2158
g4
sVserverIPAddress
p2159
V216.58.216.195
p2160
sVpageref
p2161
VO.J. Simpson
p2162
sVstartedDateTime
p2163
V2017-04-16T08:07:42.726-05:00
p2164
sVcache
p2165
(dp2166
sVrequest
p2167
(dp2168
Vcomment
p2169
g4
sVcookies
p2170
(lp2171
sVurl
p2172
Vhttps://fonts.gstatic.com/s/opensans/v13/MTP_ySUJH_bn48VBG8sNShampu5_7CjHW5spxoeN3Vs.woff2
p2173
sVqueryString
p2174
(lp2175
sVheaders
p2176
(lp2177
sVheadersSize
p2178
I548
sVbodySize
p2179
I0
sVmethod
p2180
VGET
p2181
sVhttpVersion
p2182
VHTTP/1.1
p2183
ssVtimings
p2184
(dp2185
Vcomment
p2186
g4
sVreceive
p2187
I1
sVsend
p2188
I0
sVssl
p2189
I24
sVconnect
p2190
I37
sVdns
p2191
I0
sVwait
p2192
I12
sVblocked
p2193
I0
ssVtime
p2194
I51
sVresponse
p2195
(dp2196
Vstatus
p2197
I200
sVcomment
p2198
g4
sVcookies
p2199
(lp2200
sVstatusText
p2201
VOK
p2202
sVcontent
p2203
(dp2204
VmimeType
p2205
Vfont/woff2
p2206
sVcomment
p2207
g4
sVsize
p2208
I0
ssVheaders
p2209
(lp2210
sVheadersSize
p2211
I453
sVredirectURL
p2212
g4
sVbodySize
p2213
I10328
sVhttpVersion
p2214
VHTTP/1.1
p2215
ssa(dp2216
Vcomment
p2217
g4
sVserverIPAddress
p2218
V216.58.216.193
p2219
sVpageref
p2220
VO.J. Simpson
p2221
sVstartedDateTime
p2222
V2017-04-16T08:07:43.292-05:00
p2223
sVcache
p2224
(dp2225
sVrequest
p2226
(dp2227
Vcomment
p2228
g4
sVcookies
p2229
(lp2230
sVurl
p2231
Vhttps://a-abcnews-com.cdn.ampproject.org/i/a.abcnews.com/assets/beta/assets/abcn_images/abc_logo_aluminum_@2x.png
p2232
sVqueryString
p2233
(lp2234
sVheaders
p2235
(lp2236
sVheadersSize
p2237
I520
sVbodySize
p2238
I0
sVmethod
p2239
VGET
p2240
sVhttpVersion
p2241
VHTTP/1.1
p2242
ssVtimings
p2243
(dp2244
Vcomment
p2245
g4
sVreceive
p2246
I1
sVsend
p2247
I0
sVssl
p2248
I568
sVconnect
p2249
I587
sVdns
p2250
I37
sVwait
p2251
I23
sVblocked
p2252
I0
ssVtime
p2253
I649
sVresponse
p2254
(dp2255
Vstatus
p2256
I200
sVcomment
p2257
g4
sVcookies
p2258
(lp2259
sVstatusText
p2260
VOK
p2261
sVcontent
p2262
(dp2263
VmimeType
p2264
Vimage/png
p2265
sVcomment
p2266
g4
sVsize
p2267
I0
ssVheaders
p2268
(lp2269
sVheadersSize
p2270
I822
sVredirectURL
p2271
g4
sVbodySize
p2272
I4707
sVhttpVersion
p2273
VHTTP/1.1
p2274
ssa(dp2275
Vcomment
p2276
g4
sVserverIPAddress
p2277
V216.58.216.193
p2278
sVpageref
p2279
VO.J. Simpson
p2280
sVstartedDateTime
p2281
V2017-04-16T08:07:43.295-05:00
p2282
sVcache
p2283
(dp2284
sVrequest
p2285
(dp2286
Vcomment
p2287
g4
sVcookies
p2288
(lp2289
sVurl
p2290
Vhttps://a-abcnews-com.cdn.ampproject.org/i/a.abcnews.com/images/US/abc_archive_WNBM5303A_001_wg.jpg
p2291
sVqueryString
p2292
(lp2293
sVheaders
p2294
(lp2295
sVheadersSize
p2296
I506
sVbodySize
p2297
I0
sVmethod
p2298
VGET
p2299
sVhttpVersion
p2300
VHTTP/1.1
p2301
ssVtimings
p2302
(dp2303
Vcomment
p2304
g4
sVreceive
p2305
I77
sVsend
p2306
I0
sVssl
p2307
I358
sVconnect
p2308
I376
sVdns
p2309
I0
sVwait
p2310
I66
sVblocked
p2311
I0
ssVtime
p2312
I521
sVresponse
p2313
(dp2314
Vstatus
p2315
I200
sVcomment
p2316
g4
sVcookies
p2317
(lp2318
sVstatusText
p2319
VOK
p2320
sVcontent
p2321
(dp2322
VmimeType
p2323
Vimage/jpeg
p2324
sVcomment
p2325
g4
sVsize
p2326
I0
ssVheaders
p2327
(lp2328
sVheadersSize
p2329
I845
sVredirectURL
p2330
g4
sVbodySize
p2331
I23662
sVhttpVersion
p2332
VHTTP/1.1
p2333
ssa(dp2334
Vcomment
p2335
g4
sVserverIPAddress
p2336
V216.58.216.193
p2337
sVpageref
p2338
VO.J. Simpson
p2339
sVstartedDateTime
p2340
V2017-04-16T08:07:43.299-05:00
p2341
sVcache
p2342
(dp2343
sVrequest
p2344
(dp2345
Vcomment
p2346
g4
sVcookies
p2347
(lp2348
sVurl
p2349
Vhttps://a-abcnews-com.cdn.ampproject.org/ii/w1200/a.abcnews.com/images/US/GTY_simpson_trial_victims_jef_140605_16x9_1600.jpg
p2350
sVqueryString
p2351
(lp2352
sVheaders
p2353
(lp2354
sVheadersSize
p2355
I531
sVbodySize
p2356
I0
sVmethod
p2357
VGET
p2358
sVhttpVersion
p2359
VHTTP/1.1
p2360
ssVtimings
p2361
(dp2362
Vcomment
p2363
g4
sVreceive
p2364
I159
sVsend
p2365
I0
sVssl
p2366
I516
sVconnect
p2367
I540
sVdns
p2368
I0
sVwait
p2369
I114
sVblocked
p2370
I0
ssVtime
p2371
I814
sVresponse
p2372
(dp2373
Vstatus
p2374
I200
sVcomment
p2375
g4
sVcookies
p2376
(lp2377
sVstatusText
p2378
VOK
p2379
sVcontent
p2380
(dp2381
VmimeType
p2382
Vimage/jpeg
p2383
sVcomment
p2384
g4
sVsize
p2385
I0
ssVheaders
p2386
(lp2387
sVheadersSize
p2388
I846
sVredirectURL
p2389
g4
sVbodySize
p2390
I88946
sVhttpVersion
p2391
VHTTP/1.1
p2392
ssa(dp2393
Vcomment
p2394
g4
sVserverIPAddress
p2395
V216.58.216.196
p2396
sVpageref
p2397
VO.J. Simpson
p2398
sVstartedDateTime
p2399
V2017-04-16T08:07:43.399-05:00
p2400
sVcache
p2401
(dp2402
sVrequest
p2403
(dp2404
Vcomment
p2405
g4
sVcookies
p2406
(lp2407
sVurl
p2408
Vhttps://www.google.com/gen_204?atyp=i&ct=slh&cad=&ei=h2zzWN2PNonLjwSzooHwCA&s=2&v=2&pv=0.10273147265738025&me=16:1492348059357,e,H&zx=1492348063397
p2409
sVqueryString
p2410
(lp2411
(dp2412
Vname
p2413
Vatyp
p2414
sVvalue
p2415
g30
sa(dp2416
Vname
p2417
Vct
p2418
sVvalue
p2419
Vslh
p2420
sa(dp2421
Vname
p2422
Vcad
p2423
sVvalue
p2424
g4
sa(dp2425
Vname
p2426
Vei
p2427
sVvalue
p2428
Vh2zzWN2PNonLjwSzooHwCA
p2429
sa(dp2430
Vname
p2431
g57
sVvalue
p2432
g64
sa(dp2433
Vname
p2434
g62
sVvalue
p2435
g64
sa(dp2436
Vname
p2437
Vpv
p2438
sVvalue
p2439
V0.10273147265738025
p2440
sa(dp2441
Vname
p2442
Vme
p2443
sVvalue
p2444
V16:1492348059357,e,H
p2445
sa(dp2446
Vname
p2447
Vzx
p2448
sVvalue
p2449
V1492348063397
p2450
sasVheaders
p2451
(lp2452
sVheadersSize
p2453
I664
sVbodySize
p2454
I0
sVmethod
p2455
VGET
p2456
sVhttpVersion
p2457
VHTTP/1.1
p2458
ssVtimings
p2459
(dp2460
Vcomment
p2461
g4
sVreceive
p2462
I0
sVsend
p2463
I0
sVssl
p2464
I-1
sVconnect
p2465
I-1
sVdns
p2466
I-1
sVwait
p2467
I53
sVblocked
p2468
I-1
ssVtime
p2469
I53
sVresponse
p2470
(dp2471
Vstatus
p2472
I204
sVcomment
p2473
g4
sVcookies
p2474
(lp2475
sVstatusText
p2476
VNo Content
p2477
sVcontent
p2478
(dp2479
VmimeType
p2480
Vtext/html; charset=UTF-8
p2481
sVcomment
p2482
g4
sVsize
p2483
I0
ssVheaders
p2484
(lp2485
sVheadersSize
p2486
I248
sVredirectURL
p2487
g4
sVbodySize
p2488
I0
sVhttpVersion
p2489
VHTTP/1.1
p2490
ssa(dp2491
Vcomment
p2492
g4
sVserverIPAddress
p2493
V216.58.216.196
p2494
sVpageref
p2495
VO.J. Simpson
p2496
sVstartedDateTime
p2497
V2017-04-16T08:07:43.592-05:00
p2498
sVcache
p2499
(dp2500
sVrequest
p2501
(dp2502
Vcomment
p2503
g4
sVcookies
p2504
(lp2505
sVurl
p2506
Vhttps://www.google.com/gen_204?s=web&atyp=csi&ei=mmzzWIXoM6L-jwS0mLGoCA&imc=39&imn=39&imp=22&adh=&xjs=init.32.14.sb_mob.22.dvl.5.c.1.mbsf.1.jsa.1&ima=9&rt=prt.633,iml.948,xjsls.634,dcl.773,xjses.801,xjsee.928,xjs.928,qiml.1643,ol.3598,aft.948,wsrt.153,cst.0,dnst.0,rqst.801,rspt.705,rqstt.5,unt.5,cstt.5,dit.880
p2507
sVqueryString
p2508
(lp2509
(dp2510
Vname
p2511
g57
sVvalue
p2512
Vweb
p2513
sa(dp2514
Vname
p2515
Vatyp
p2516
sVvalue
p2517
Vcsi
p2518
sa(dp2519
Vname
p2520
Vei
p2521
sVvalue
p2522
VmmzzWIXoM6L-jwS0mLGoCA
p2523
sa(dp2524
Vname
p2525
Vimc
p2526
sVvalue
p2527
V39
p2528
sa(dp2529
Vname
p2530
Vimn
p2531
sVvalue
p2532
V39
p2533
sa(dp2534
Vname
p2535
Vimp
p2536
sVvalue
p2537
V22
p2538
sa(dp2539
Vname
p2540
Vadh
p2541
sVvalue
p2542
g4
sa(dp2543
Vname
p2544
Vxjs
p2545
sVvalue
p2546
Vinit.32.14.sb_mob.22.dvl.5.c.1.mbsf.1.jsa.1
p2547
sa(dp2548
Vname
p2549
Vima
p2550
sVvalue
p2551
g1934
sa(dp2552
Vname
p2553
Vrt
p2554
sVvalue
p2555
Vprt.633,iml.948,xjsls.634,dcl.773,xjses.801,xjsee.928,xjs.928,qiml.1643,ol.3598,aft.948,wsrt.153,cst.0,dnst.0,rqst.801,rspt.705,rqstt.5,unt.5,cstt.5,dit.880
p2556
sasVheaders
p2557
(lp2558
sVheadersSize
p2559
I828
sVbodySize
p2560
I0
sVmethod
p2561
VGET
p2562
sVhttpVersion
p2563
VHTTP/1.1
p2564
ssVtimings
p2565
(dp2566
Vcomment
p2567
g4
sVreceive
p2568
I0
sVsend
p2569
I0
sVssl
p2570
I-1
sVconnect
p2571
I-1
sVdns
p2572
I-1
sVwait
p2573
I122
sVblocked
p2574
I-1
ssVtime
p2575
I122
sVresponse
p2576
(dp2577
Vstatus
p2578
I204
sVcomment
p2579
g4
sVcookies
p2580
(lp2581
sVstatusText
p2582
VNo Content
p2583
sVcontent
p2584
(dp2585
VmimeType
p2586
Vtext/html; charset=UTF-8
p2587
sVcomment
p2588
g4
sVsize
p2589
I0
ssVheaders
p2590
(lp2591
sVheadersSize
p2592
I248
sVredirectURL
p2593
g4
sVbodySize
p2594
I0
sVhttpVersion
p2595
VHTTP/1.1
p2596
ssasVversion
p2597
V1.2
p2598
sVpages
p2599
(lp2600
(dp2601
VpageTimings
p2602
(dp2603
Vcomment
p2604
g4
ssVcomment
p2605
g4
sVtitle
p2606
VO.J. Simpson
p2607
sVid
p2608
VO.J. Simpson
p2609
sVstartedDateTime
p2610
V2017-04-16T08:07:38.882-05:00
p2611
sasVcreator
p2612
(dp2613
Vcomment
p2614
g4
sVversion
p2615
V2.1.4
p2616
sVname
p2617
VBrowserMob Proxy
p2618
sss.