(dp0
Vlog
p1
(dp2
Vcomment
p3
V
p4
sVentries
p5
(lp6
(dp7
Vcomment
p8
g4
sVserverIPAddress
p9
V216.58.216.196
p10
sVpageref
p11
VOklahoma City Thunder
p12
sVstartedDateTime
p13
V2017-04-16T08:32:51.993-05:00
p14
sVcache
p15
(dp16
sVrequest
p17
(dp18
Vcomment
p19
g4
sVcookies
p20
(lp21
sVurl
p22
Vhttps://www.google.com/gen_204?atyp=i&ct=slh&cad=&ei=dHLzWO_xEOvHjwSxnIOoCw&s=2&v=2&pv=0.4248089188677242&me=11:1492349561953,V,0,0,0,0:10038,e,U&zx=1492349571991
p23
sVqueryString
p24
(lp25
(dp26
Vname
p27
Vatyp
p28
sVvalue
p29
Vi
p30
sa(dp31
Vname
p32
Vct
p33
sVvalue
p34
Vslh
p35
sa(dp36
Vname
p37
Vcad
p38
sVvalue
p39
g4
sa(dp40
Vname
p41
Vei
p42
sVvalue
p43
VdHLzWO_xEOvHjwSxnIOoCw
p44
sa(dp45
Vname
p46
Vs
p47
sVvalue
p48
V2
p49
sa(dp50
Vname
p51
Vv
p52
sVvalue
p53
g49
sa(dp54
Vname
p55
Vpv
p56
sVvalue
p57
V0.4248089188677242
p58
sa(dp59
Vname
p60
Vme
p61
sVvalue
p62
V11:1492349561953,V,0,0,0,0:10038,e,U
p63
sa(dp64
Vname
p65
Vzx
p66
sVvalue
p67
V1492349571991
p68
sasVheaders
p69
(lp70
sVheadersSize
p71
I679
sVbodySize
p72
I0
sVmethod
p73
VGET
p74
sVhttpVersion
p75
VHTTP/1.1
p76
ssVtimings
p77
(dp78
Vcomment
p79
g4
sVreceive
p80
I0
sVsend
p81
I0
sVssl
p82
I-1
sVconnect
p83
I-1
sVdns
p84
I-1
sVwait
p85
I0
sVblocked
p86
I-1
ssVtime
p87
I0
sVresponse
p88
(dp89
Vstatus
p90
I0
sVcomment
p91
g4
sVcookies
p92
(lp93
sV_error
p94
VNo response received
p95
sVstatusText
p96
g4
sVcontent
p97
(dp98
VmimeType
p99
g4
sVcomment
p100
g4
sVsize
p101
I0
ssVheaders
p102
(lp103
sVheadersSize
p104
I-1
sVredirectURL
p105
g4
sVbodySize
p106
I-1
sVhttpVersion
p107
Vunknown
p108
ssa(dp109
Vcomment
p110
g4
sVserverIPAddress
p111
V216.58.216.196
p112
sVpageref
p113
VOklahoma City Thunder
p114
sVstartedDateTime
p115
V2017-04-16T08:32:51.998-05:00
p116
sVcache
p117
(dp118
sVrequest
p119
(dp120
Vcomment
p121
g4
sVcookies
p122
(lp123
sVurl
p124
Vhttp://www.google.com/
p125
sVqueryString
p126
(lp127
sVheaders
p128
(lp129
sVheadersSize
p130
I613
sVbodySize
p131
I0
sVmethod
p132
VGET
p133
sVhttpVersion
p134
VHTTP/1.1
p135
ssVtimings
p136
(dp137
Vcomment
p138
g4
sVreceive
p139
I0
sVsend
p140
I0
sVssl
p141
I-1
sVconnect
p142
I-1
sVdns
p143
I-1
sVwait
p144
I58
sVblocked
p145
I-1
ssVtime
p146
I58
sVresponse
p147
(dp148
Vstatus
p149
I302
sVcomment
p150
g4
sVcookies
p151
(lp152
sVstatusText
p153
VFound
p154
sVcontent
p155
(dp156
VmimeType
p157
Vtext/html; charset=UTF-8
p158
sVcomment
p159
g4
sVsize
p160
I0
ssVheaders
p161
(lp162
sVheadersSize
p163
I609
sVredirectURL
p164
Vhttps://www.google.com/?gws_rd=ssl
p165
sVbodySize
p166
I231
sVhttpVersion
p167
VHTTP/1.1
p168
ssa(dp169
Vcomment
p170
g4
sVserverIPAddress
p171
V216.58.216.196
p172
sVpageref
p173
VOklahoma City Thunder
p174
sVstartedDateTime
p175
V2017-04-16T08:32:52.063-05:00
p176
sVcache
p177
(dp178
sVrequest
p179
(dp180
Vcomment
p181
g4
sVcookies
p182
(lp183
sVurl
p184
Vhttps://www.google.com/?gws_rd=ssl
p185
sVqueryString
p186
(lp187
(dp188
Vname
p189
Vgws_rd
p190
sVvalue
p191
Vssl
p192
sasVheaders
p193
(lp194
sVheadersSize
p195
I607
sVbodySize
p196
I0
sVmethod
p197
VGET
p198
sVhttpVersion
p199
VHTTP/1.1
p200
ssVtimings
p201
(dp202
Vcomment
p203
g4
sVreceive
p204
I34
sVsend
p205
I0
sVssl
p206
I-1
sVconnect
p207
I-1
sVdns
p208
I-1
sVwait
p209
I68
sVblocked
p210
I-1
ssVtime
p211
I102
sVresponse
p212
(dp213
Vstatus
p214
I200
sVcomment
p215
g4
sVcookies
p216
(lp217
sVstatusText
p218
VOK
p219
sVcontent
p220
(dp221
VmimeType
p222
Vtext/html; charset=UTF-8
p223
sVcomment
p224
g4
sVsize
p225
I0
ssVheaders
p226
(lp227
sVheadersSize
p228
I721
sVredirectURL
p229
g4
sVbodySize
p230
I34291
sVhttpVersion
p231
VHTTP/1.1
p232
ssa(dp233
Vcomment
p234
g4
sVserverIPAddress
p235
V216.58.216.196
p236
sVpageref
p237
VOklahoma City Thunder
p238
sVstartedDateTime
p239
V2017-04-16T08:32:52.391-05:00
p240
sVcache
p241
(dp242
sVrequest
p243
(dp244
Vcomment
p245
g4
sVcookies
p246
(lp247
sVurl
p248
Vhttps://www.google.com/gen_204?s=mobilewebhp&atyp=csi&ei=g3LzWKKgA6fRjwTPpKeoBQ&imc=1&imn=1&imp=0&adh=&xjs=init.25.12.sb_mob.21.dvl.2.c.1.mbsf.1.TG8rFw.0&ima=1&rt=xjsls.33,prt.34,iml.34,dcl.55,xjses.93,xjsee.175,xjs.176,ol.238,aft.34,wsrt.156,cst.0,dnst.0,rqst.104,rspt.35,rqstt.72,unt.67,cstt.67,dit.202
p249
sVqueryString
p250
(lp251
(dp252
Vname
p253
g47
sVvalue
p254
Vmobilewebhp
p255
sa(dp256
Vname
p257
Vatyp
p258
sVvalue
p259
Vcsi
p260
sa(dp261
Vname
p262
Vei
p263
sVvalue
p264
Vg3LzWKKgA6fRjwTPpKeoBQ
p265
sa(dp266
Vname
p267
Vimc
p268
sVvalue
p269
V1
p270
sa(dp271
Vname
p272
Vimn
p273
sVvalue
p274
g270
sa(dp275
Vname
p276
Vimp
p277
sVvalue
p278
V0
p279
sa(dp280
Vname
p281
Vadh
p282
sVvalue
p283
g4
sa(dp284
Vname
p285
Vxjs
p286
sVvalue
p287
Vinit.25.12.sb_mob.21.dvl.2.c.1.mbsf.1.TG8rFw.0
p288
sa(dp289
Vname
p290
Vima
p291
sVvalue
p292
g270
sa(dp293
Vname
p294
Vrt
p295
sVvalue
p296
Vxjsls.33,prt.34,iml.34,dcl.55,xjses.93,xjsee.175,xjs.176,ol.238,aft.34,wsrt.156,cst.0,dnst.0,rqst.104,rspt.35,rqstt.72,unt.67,cstt.67,dit.202
p297
sasVheaders
p298
(lp299
sVheadersSize
p300
I832
sVbodySize
p301
I0
sVmethod
p302
VGET
p303
sVhttpVersion
p304
VHTTP/1.1
p305
ssVtimings
p306
(dp307
Vcomment
p308
g4
sVreceive
p309
I0
sVsend
p310
I0
sVssl
p311
I-1
sVconnect
p312
I-1
sVdns
p313
I-1
sVwait
p314
I184
sVblocked
p315
I-1
ssVtime
p316
I184
sVresponse
p317
(dp318
Vstatus
p319
I204
sVcomment
p320
g4
sVcookies
p321
(lp322
sVstatusText
p323
VNo Content
p324
sVcontent
p325
(dp326
VmimeType
p327
Vtext/html; charset=UTF-8
p328
sVcomment
p329
g4
sVsize
p330
I0
ssVheaders
p331
(lp332
sVheadersSize
p333
I248
sVredirectURL
p334
g4
sVbodySize
p335
I0
sVhttpVersion
p336
VHTTP/1.1
p337
ssa(dp338
Vcomment
p339
g4
sVserverIPAddress
p340
V216.58.216.196
p341
sVpageref
p342
VOklahoma City Thunder
p343
sVstartedDateTime
p344
V2017-04-16T08:32:52.589-05:00
p345
sVcache
p346
(dp347
sVrequest
p348
(dp349
Vcomment
p350
g4
sVcookies
p351
(lp352
sVurl
p353
Vhttps://www.google.com/complete/search?client=mobile-gws-hp&hl=en&gs_rn=64&gs_ri=mobile-gws-hp&sla=1&pfq=owl&gm=602&cp=0&gs_id=1&xhr=t&q=O&tch=1&ech=1&psi=g3LzWKKgA6fRjwTPpKeoBQ.1492349572296.1
p354
sVqueryString
p355
(lp356
(dp357
Vname
p358
Vclient
p359
sVvalue
p360
Vmobile-gws-hp
p361
sa(dp362
Vname
p363
Vhl
p364
sVvalue
p365
Ven
p366
sa(dp367
Vname
p368
Vgs_rn
p369
sVvalue
p370
V64
p371
sa(dp372
Vname
p373
Vgs_ri
p374
sVvalue
p375
Vmobile-gws-hp
p376
sa(dp377
Vname
p378
Vsla
p379
sVvalue
p380
g270
sa(dp381
Vname
p382
Vpfq
p383
sVvalue
p384
Vowl
p385
sa(dp386
Vname
p387
Vgm
p388
sVvalue
p389
V602
p390
sa(dp391
Vname
p392
Vcp
p393
sVvalue
p394
g279
sa(dp395
Vname
p396
Vgs_id
p397
sVvalue
p398
g270
sa(dp399
Vname
p400
Vxhr
p401
sVvalue
p402
Vt
p403
sa(dp404
Vname
p405
Vq
p406
sVvalue
p407
VO
p408
sa(dp409
Vname
p410
Vtch
p411
sVvalue
p412
g270
sa(dp413
Vname
p414
Vech
p415
sVvalue
p416
g270
sa(dp417
Vname
p418
Vpsi
p419
sVvalue
p420
Vg3LzWKKgA6fRjwTPpKeoBQ.1492349572296.1
p421
sasVheaders
p422
(lp423
sVheadersSize
p424
I721
sVbodySize
p425
I0
sVmethod
p426
VGET
p427
sVhttpVersion
p428
VHTTP/1.1
p429
ssVtimings
p430
(dp431
Vcomment
p432
g4
sVreceive
p433
I0
sVsend
p434
I0
sVssl
p435
I32
sVconnect
p436
I53
sVdns
p437
I1
sVwait
p438
I0
sVblocked
p439
I0
ssVtime
p440
I55
sVresponse
p441
(dp442
Vstatus
p443
I0
sVcomment
p444
g4
sVcookies
p445
(lp446
sV_error
p447
VNo response received
p448
sVstatusText
p449
g4
sVcontent
p450
(dp451
VmimeType
p452
g4
sVcomment
p453
g4
sVsize
p454
I0
ssVheaders
p455
(lp456
sVheadersSize
p457
I-1
sVredirectURL
p458
g4
sVbodySize
p459
I-1
sVhttpVersion
p460
Vunknown
p461
ssa(dp462
Vcomment
p463
g4
sVserverIPAddress
p464
V216.58.216.196
p465
sVpageref
p466
VOklahoma City Thunder
p467
sVstartedDateTime
p468
V2017-04-16T08:32:52.631-05:00
p469
sVcache
p470
(dp471
sVrequest
p472
(dp473
Vcomment
p474
g4
sVcookies
p475
(lp476
sVurl
p477
Vhttps://www.google.com/search?site=&source=hp&ei=g3LzWKKgA6fRjwTPpKeoBQ&q=Oklahoma+City+Thunder&oq=Oklahoma+City+Thunder&gs_l=mobile-gws-hp.3...215.268.0.309.21.1.0.0.0.0.0.0..0.0....0...1c.1.64.mobile-gws-hp..21.0.0.tNkXc7toy40
p478
sVqueryString
p479
(lp480
(dp481
Vname
p482
Vsite
p483
sVvalue
p484
g4
sa(dp485
Vname
p486
Vsource
p487
sVvalue
p488
Vhp
p489
sa(dp490
Vname
p491
Vei
p492
sVvalue
p493
Vg3LzWKKgA6fRjwTPpKeoBQ
p494
sa(dp495
Vname
p496
g406
sVvalue
p497
VOklahoma City Thunder
p498
sa(dp499
Vname
p500
Voq
p501
sVvalue
p502
VOklahoma City Thunder
p503
sa(dp504
Vname
p505
Vgs_l
p506
sVvalue
p507
Vmobile-gws-hp.3...215.268.0.309.21.1.0.0.0.0.0.0..0.0....0...1c.1.64.mobile-gws-hp..21.0.0.tNkXc7toy40
p508
sasVheaders
p509
(lp510
sVheadersSize
p511
I846
sVbodySize
p512
I0
sVmethod
p513
VGET
p514
sVhttpVersion
p515
VHTTP/1.1
p516
ssVtimings
p517
(dp518
Vcomment
p519
g4
sVreceive
p520
I900
sVsend
p521
I0
sVssl
p522
I-1
sVconnect
p523
I-1
sVdns
p524
I-1
sVwait
p525
I96
sVblocked
p526
I-1
ssVtime
p527
I997
sVresponse
p528
(dp529
Vstatus
p530
I200
sVcomment
p531
g4
sVcookies
p532
(lp533
sVstatusText
p534
VOK
p535
sVcontent
p536
(dp537
VmimeType
p538
Vtext/html; charset=UTF-8
p539
sVcomment
p540
g4
sVsize
p541
I0
ssVheaders
p542
(lp543
sVheadersSize
p544
I363
sVredirectURL
p545
g4
sVbodySize
p546
I129706
sVhttpVersion
p547
VHTTP/1.1
p548
ssa(dp549
Vcomment
p550
g4
sVserverIPAddress
p551
V216.58.216.195
p552
sVpageref
p553
VOklahoma City Thunder
p554
sVstartedDateTime
p555
V2017-04-16T08:32:53.728-05:00
p556
sVcache
p557
(dp558
sVrequest
p559
(dp560
Vcomment
p561
g4
sVcookies
p562
(lp563
sVurl
p564
Vhttps://ssl.gstatic.com/onebox/media/sports/logos/b4bJ9zKFBDykdSIGUrbWdw_48x48.png
p565
sVqueryString
p566
(lp567
sVheaders
p568
(lp569
sVheadersSize
p570
I397
sVbodySize
p571
I0
sVmethod
p572
VGET
p573
sVhttpVersion
p574
VHTTP/1.1
p575
ssVtimings
p576
(dp577
Vcomment
p578
g4
sVreceive
p579
I2
sVsend
p580
I0
sVssl
p581
I-1
sVconnect
p582
I-1
sVdns
p583
I-1
sVwait
p584
I14
sVblocked
p585
I-1
ssVtime
p586
I17
sVresponse
p587
(dp588
Vstatus
p589
I200
sVcomment
p590
g4
sVcookies
p591
(lp592
sVstatusText
p593
VOK
p594
sVcontent
p595
(dp596
VmimeType
p597
Vimage/png
p598
sVcomment
p599
g4
sVsize
p600
I0
ssVheaders
p601
(lp602
sVheadersSize
p603
I402
sVredirectURL
p604
g4
sVbodySize
p605
I3018
sVhttpVersion
p606
VHTTP/1.1
p607
ssa(dp608
Vcomment
p609
g4
sVserverIPAddress
p610
V216.58.216.195
p611
sVpageref
p612
VOklahoma City Thunder
p613
sVstartedDateTime
p614
V2017-04-16T08:32:53.729-05:00
p615
sVcache
p616
(dp617
sVrequest
p618
(dp619
Vcomment
p620
g4
sVcookies
p621
(lp622
sVurl
p623
Vhttps://ssl.gstatic.com/onebox/media/sports/logos/b4bJ9zKFBDykdSIGUrbWdw_96x96.png
p624
sVqueryString
p625
(lp626
sVheaders
p627
(lp628
sVheadersSize
p629
I397
sVbodySize
p630
I0
sVmethod
p631
VGET
p632
sVhttpVersion
p633
VHTTP/1.1
p634
ssVtimings
p635
(dp636
Vcomment
p637
g4
sVreceive
p638
I0
sVsend
p639
I0
sVssl
p640
I-1
sVconnect
p641
I-1
sVdns
p642
I-1
sVwait
p643
I20
sVblocked
p644
I-1
ssVtime
p645
I21
sVresponse
p646
(dp647
Vstatus
p648
I200
sVcomment
p649
g4
sVcookies
p650
(lp651
sVstatusText
p652
VOK
p653
sVcontent
p654
(dp655
VmimeType
p656
Vimage/png
p657
sVcomment
p658
g4
sVsize
p659
I0
ssVheaders
p660
(lp661
sVheadersSize
p662
I424
sVredirectURL
p663
g4
sVbodySize
p664
I7565
sVhttpVersion
p665
VHTTP/1.1
p666
ssa(dp667
Vcomment
p668
g4
sVserverIPAddress
p669
V216.58.216.195
p670
sVpageref
p671
VOklahoma City Thunder
p672
sVstartedDateTime
p673
V2017-04-16T08:32:53.730-05:00
p674
sVcache
p675
(dp676
sVrequest
p677
(dp678
Vcomment
p679
g4
sVcookies
p680
(lp681
sVurl
p682
Vhttps://ssl.gstatic.com/onebox/media/sports/logos/zhO6MIB1UzZmtXLHkJQBmg_96x96.png
p683
sVqueryString
p684
(lp685
sVheaders
p686
(lp687
sVheadersSize
p688
I397
sVbodySize
p689
I0
sVmethod
p690
VGET
p691
sVhttpVersion
p692
VHTTP/1.1
p693
ssVtimings
p694
(dp695
Vcomment
p696
g4
sVreceive
p697
I6
sVsend
p698
I0
sVssl
p699
I-1
sVconnect
p700
I-1
sVdns
p701
I-1
sVwait
p702
I18
sVblocked
p703
I-1
ssVtime
p704
I24
sVresponse
p705
(dp706
Vstatus
p707
I200
sVcomment
p708
g4
sVcookies
p709
(lp710
sVstatusText
p711
VOK
p712
sVcontent
p713
(dp714
VmimeType
p715
Vimage/png
p716
sVcomment
p717
g4
sVsize
p718
I0
ssVheaders
p719
(lp720
sVheadersSize
p721
I424
sVredirectURL
p722
g4
sVbodySize
p723
I5053
sVhttpVersion
p724
VHTTP/1.1
p725
ssa(dp726
Vcomment
p727
g4
sVserverIPAddress
p728
V216.58.216.195
p729
sVpageref
p730
VOklahoma City Thunder
p731
sVstartedDateTime
p732
V2017-04-16T08:32:53.730-05:00
p733
sVcache
p734
(dp735
sVrequest
p736
(dp737
Vcomment
p738
g4
sVcookies
p739
(lp740
sVurl
p741
Vhttps://ssl.gstatic.com/onebox/media/sports/logos/zhO6MIB1UzZmtXLHkJQBmg_48x48.png
p742
sVqueryString
p743
(lp744
sVheaders
p745
(lp746
sVheadersSize
p747
I397
sVbodySize
p748
I0
sVmethod
p749
VGET
p750
sVhttpVersion
p751
VHTTP/1.1
p752
ssVtimings
p753
(dp754
Vcomment
p755
g4
sVreceive
p756
I0
sVsend
p757
I0
sVssl
p758
I-1
sVconnect
p759
I-1
sVdns
p760
I-1
sVwait
p761
I17
sVblocked
p762
I-1
ssVtime
p763
I18
sVresponse
p764
(dp765
Vstatus
p766
I200
sVcomment
p767
g4
sVcookies
p768
(lp769
sVstatusText
p770
VOK
p771
sVcontent
p772
(dp773
VmimeType
p774
Vimage/png
p775
sVcomment
p776
g4
sVsize
p777
I0
ssVheaders
p778
(lp779
sVheadersSize
p780
I424
sVredirectURL
p781
g4
sVbodySize
p782
I2258
sVhttpVersion
p783
VHTTP/1.1
p784
ssa(dp785
Vcomment
p786
g4
sVserverIPAddress
p787
V216.58.216.196
p788
sVpageref
p789
VOklahoma City Thunder
p790
sVstartedDateTime
p791
V2017-04-16T08:32:54.735-05:00
p792
sVcache
p793
(dp794
sVrequest
p795
(dp796
Vcomment
p797
g4
sVcookies
p798
(lp799
sVurl
p800
Vhttps://www.google.com/async/irc?vet=10ahUKEwjm-OOwi6nTAhUJzoMKHWVTDX8Qo0EInQI..i&ved=0ahUKEwjm-OOwi6nTAhUJzoMKHWVTDX8Qo0EInQI&ei=g3LzWKarJomcjwTlprX4Bw&yv=2&async=iu:1,ved:0ahUKEwjm-OOwi6nTAhUJzoMKHWVTDX8Qo0EInQI,_id:irc_async,_pms:qs
p801
sVqueryString
p802
(lp803
(dp804
Vname
p805
Vvet
p806
sVvalue
p807
V10ahUKEwjm-OOwi6nTAhUJzoMKHWVTDX8Qo0EInQI..i
p808
sa(dp809
Vname
p810
Vved
p811
sVvalue
p812
V0ahUKEwjm-OOwi6nTAhUJzoMKHWVTDX8Qo0EInQI
p813
sa(dp814
Vname
p815
Vei
p816
sVvalue
p817
Vg3LzWKarJomcjwTlprX4Bw
p818
sa(dp819
Vname
p820
Vyv
p821
sVvalue
p822
g49
sa(dp823
Vname
p824
Vasync
p825
sVvalue
p826
Viu:1,ved:0ahUKEwjm-OOwi6nTAhUJzoMKHWVTDX8Qo0EInQI,_id:irc_async,_pms:qs
p827
sasVheaders
p828
(lp829
sVheadersSize
p830
I752
sVbodySize
p831
I0
sVmethod
p832
VGET
p833
sVhttpVersion
p834
VHTTP/1.1
p835
ssVtimings
p836
(dp837
Vcomment
p838
g4
sVreceive
p839
I5
sVsend
p840
I0
sVssl
p841
I-1
sVconnect
p842
I-1
sVdns
p843
I-1
sVwait
p844
I45
sVblocked
p845
I-1
ssVtime
p846
I51
sVresponse
p847
(dp848
Vstatus
p849
I200
sVcomment
p850
g4
sVcookies
p851
(lp852
sVstatusText
p853
VOK
p854
sVcontent
p855
(dp856
VmimeType
p857
Vtext/html; charset=UTF-8
p858
sVcomment
p859
g4
sVsize
p860
I0
ssVheaders
p861
(lp862
sVheadersSize
p863
I383
sVredirectURL
p864
g4
sVbodySize
p865
I7791
sVhttpVersion
p866
VHTTP/1.1
p867
ssa(dp868
Vcomment
p869
g4
sVserverIPAddress
p870
V216.58.216.196
p871
sVpageref
p872
VOklahoma City Thunder
p873
sVstartedDateTime
p874
V2017-04-16T08:32:54.873-05:00
p875
sVcache
p876
(dp877
sVrequest
p878
(dp879
Vcomment
p880
g4
sVcookies
p881
(lp882
sVurl
p883
Vhttps://www.google.com/async/ampfp?vet=10ahUKEwjm-OOwi6nTAhUJzoMKHWVTDX8QtZoBCJsC..i&ei=g3LzWKarJomcjwTlprX4Bw&yv=2&async=_id:ampfp-async,_pms:qs
p884
sVqueryString
p885
(lp886
(dp887
Vname
p888
Vvet
p889
sVvalue
p890
V10ahUKEwjm-OOwi6nTAhUJzoMKHWVTDX8QtZoBCJsC..i
p891
sa(dp892
Vname
p893
Vei
p894
sVvalue
p895
Vg3LzWKarJomcjwTlprX4Bw
p896
sa(dp897
Vname
p898
Vyv
p899
sVvalue
p900
g49
sa(dp901
Vname
p902
Vasync
p903
sVvalue
p904
V_id:ampfp-async,_pms:qs
p905
sasVheaders
p906
(lp907
sVheadersSize
p908
I662
sVbodySize
p909
I0
sVmethod
p910
VGET
p911
sVhttpVersion
p912
VHTTP/1.1
p913
ssVtimings
p914
(dp915
Vcomment
p916
g4
sVreceive
p917
I0
sVsend
p918
I0
sVssl
p919
I-1
sVconnect
p920
I-1
sVdns
p921
I-1
sVwait
p922
I43
sVblocked
p923
I-1
ssVtime
p924
I44
sVresponse
p925
(dp926
Vstatus
p927
I200
sVcomment
p928
g4
sVcookies
p929
(lp930
sVstatusText
p931
VOK
p932
sVcontent
p933
(dp934
VmimeType
p935
Vtext/html; charset=UTF-8
p936
sVcomment
p937
g4
sVsize
p938
I0
ssVheaders
p939
(lp940
sVheadersSize
p941
I383
sVredirectURL
p942
g4
sVbodySize
p943
I4526
sVhttpVersion
p944
VHTTP/1.1
p945
ssa(dp946
Vcomment
p947
g4
sVserverIPAddress
p948
V216.58.216.193
p949
sVpageref
p950
VOklahoma City Thunder
p951
sVstartedDateTime
p952
V2017-04-16T08:32:54.873-05:00
p953
sVcache
p954
(dp955
sVrequest
p956
(dp957
Vcomment
p958
g4
sVcookies
p959
(lp960
sVurl
p961
Vhttps://cdn.ampproject.org/preconnect.gif?0.7477303187280613
p962
sVqueryString
p963
(lp964
(dp965
Vname
p966
V0.7477303187280613
p967
sVvalue
p968
g4
sasVheaders
p969
(lp970
sVheadersSize
p971
I375
sVbodySize
p972
I0
sVmethod
p973
VGET
p974
sVhttpVersion
p975
VHTTP/1.1
p976
ssVtimings
p977
(dp978
Vcomment
p979
g4
sVreceive
p980
I0
sVsend
p981
I0
sVssl
p982
I-1
sVconnect
p983
I-1
sVdns
p984
I-1
sVwait
p985
I33
sVblocked
p986
I-1
ssVtime
p987
I33
sVresponse
p988
(dp989
Vstatus
p990
I200
sVcomment
p991
g4
sVcookies
p992
(lp993
sVstatusText
p994
VOK
p995
sVcontent
p996
(dp997
VmimeType
p998
Vimage/gif
p999
sVcomment
p1000
g4
sVsize
p1001
I0
ssVheaders
p1002
(lp1003
sVheadersSize
p1004
I826
sVredirectURL
p1005
g4
sVbodySize
p1006
I37
sVhttpVersion
p1007
VHTTP/1.1
p1008
ssa(dp1009
Vcomment
p1010
g4
sVserverIPAddress
p1011
V216.58.216.196
p1012
sVpageref
p1013
VOklahoma City Thunder
p1014
sVstartedDateTime
p1015
V2017-04-16T08:32:55.071-05:00
p1016
sVcache
p1017
(dp1018
sVrequest
p1019
(dp1020
Vcomment
p1021
g4
sVcookies
p1022
(lp1023
sVurl
p1024
Vhttps://www.google.com/gen_204?s=web&atyp=csi&ei=g3LzWKarJomcjwTlprX4Bw&imc=59&imn=59&imp=24&adh=&xjs=init.57.16.sb_mob.45.async.3.dvl.3.c.1.mbsf.1&ima=17&rt=prt.1063,iml.1264,xjsls.1064,dcl.1123,qiml.1338,xjses.1304,xjsee.1495,xjs.1495,ol.2320,aft.1264,wsrt.108,cst.0,dnst.0,rqst.1007,rspt.909,rqstt.2,unt.2,cstt.2,dit.1183
p1025
sVqueryString
p1026
(lp1027
(dp1028
Vname
p1029
g47
sVvalue
p1030
Vweb
p1031
sa(dp1032
Vname
p1033
Vatyp
p1034
sVvalue
p1035
Vcsi
p1036
sa(dp1037
Vname
p1038
Vei
p1039
sVvalue
p1040
Vg3LzWKarJomcjwTlprX4Bw
p1041
sa(dp1042
Vname
p1043
Vimc
p1044
sVvalue
p1045
V59
p1046
sa(dp1047
Vname
p1048
Vimn
p1049
sVvalue
p1050
V59
p1051
sa(dp1052
Vname
p1053
Vimp
p1054
sVvalue
p1055
V24
p1056
sa(dp1057
Vname
p1058
Vadh
p1059
sVvalue
p1060
g4
sa(dp1061
Vname
p1062
Vxjs
p1063
sVvalue
p1064
Vinit.57.16.sb_mob.45.async.3.dvl.3.c.1.mbsf.1
p1065
sa(dp1066
Vname
p1067
Vima
p1068
sVvalue
p1069
V17
p1070
sa(dp1071
Vname
p1072
Vrt
p1073
sVvalue
p1074
Vprt.1063,iml.1264,xjsls.1064,dcl.1123,qiml.1338,xjses.1304,xjsee.1495,xjs.1495,ol.2320,aft.1264,wsrt.108,cst.0,dnst.0,rqst.1007,rspt.909,rqstt.2,unt.2,cstt.2,dit.1183
p1075
sasVheaders
p1076
(lp1077
sVheadersSize
p1078
I841
sVbodySize
p1079
I0
sVmethod
p1080
VGET
p1081
sVhttpVersion
p1082
VHTTP/1.1
p1083
ssVtimings
p1084
(dp1085
Vcomment
p1086
g4
sVreceive
p1087
I0
sVsend
p1088
I0
sVssl
p1089
I-1
sVconnect
p1090
I-1
sVdns
p1091
I-1
sVwait
p1092
I25
sVblocked
p1093
I-1
ssVtime
p1094
I25
sVresponse
p1095
(dp1096
Vstatus
p1097
I204
sVcomment
p1098
g4
sVcookies
p1099
(lp1100
sVstatusText
p1101
VNo Content
p1102
sVcontent
p1103
(dp1104
VmimeType
p1105
Vtext/html; charset=UTF-8
p1106
sVcomment
p1107
g4
sVsize
p1108
I0
ssVheaders
p1109
(lp1110
sVheadersSize
p1111
I248
sVredirectURL
p1112
g4
sVbodySize
p1113
I0
sVhttpVersion
p1114
VHTTP/1.1
p1115
ssa(dp1116
Vcomment
p1117
g4
sVserverIPAddress
p1118
V216.58.216.196
p1119
sVpageref
p1120
VOklahoma City Thunder
p1121
sVstartedDateTime
p1122
V2017-04-16T08:32:55.141-05:00
p1123
sVcache
p1124
(dp1125
sVrequest
p1126
(dp1127
Vcomment
p1128
g4
sVcookies
p1129
(lp1130
sVurl
p1131
Vhttps://www.google.com/async/log_amp_item_set?vet=10ahUKEwjhzuyxi6nTAhUG0IMKHdf8Du0QooQBCAE..i&ei=g3LzWKarJomcjwTlprX4Bw&yv=2&async=num_items:10,_fmt:jspb
p1132
sVqueryString
p1133
(lp1134
(dp1135
Vname
p1136
Vvet
p1137
sVvalue
p1138
V10ahUKEwjhzuyxi6nTAhUG0IMKHdf8Du0QooQBCAE..i
p1139
sa(dp1140
Vname
p1141
Vei
p1142
sVvalue
p1143
Vg3LzWKarJomcjwTlprX4Bw
p1144
sa(dp1145
Vname
p1146
Vyv
p1147
sVvalue
p1148
g49
sa(dp1149
Vname
p1150
Vasync
p1151
sVvalue
p1152
Vnum_items:10,_fmt:jspb
p1153
sasVheaders
p1154
(lp1155
sVheadersSize
p1156
I671
sVbodySize
p1157
I0
sVmethod
p1158
VGET
p1159
sVhttpVersion
p1160
VHTTP/1.1
p1161
ssVtimings
p1162
(dp1163
Vcomment
p1164
g4
sVreceive
p1165
I0
sVsend
p1166
I0
sVssl
p1167
I-1
sVconnect
p1168
I-1
sVdns
p1169
I-1
sVwait
p1170
I35
sVblocked
p1171
I-1
ssVtime
p1172
I36
sVresponse
p1173
(dp1174
Vstatus
p1175
I200
sVcomment
p1176
g4
sVcookies
p1177
(lp1178
sVstatusText
p1179
VOK
p1180
sVcontent
p1181
(dp1182
VmimeType
p1183
Vapplication/json; charset=UTF-8
p1184
sVcomment
p1185
g4
sVsize
p1186
I0
ssVheaders
p1187
(lp1188
sVheadersSize
p1189
I417
sVredirectURL
p1190
g4
sVbodySize
p1191
I183
sVhttpVersion
p1192
VHTTP/1.1
p1193
ssa(dp1194
Vcomment
p1195
g4
sVserverIPAddress
p1196
V216.58.216.193
p1197
sVpageref
p1198
VOklahoma City Thunder
p1199
sVstartedDateTime
p1200
V2017-04-16T08:32:55.389-05:00
p1201
sVcache
p1202
(dp1203
sVrequest
p1204
(dp1205
Vcomment
p1206
g4
sVcookies
p1207
(lp1208
sVurl
p1209
Vhttps://www-welcometoloudcity-com.cdn.ampproject.org/v/www.welcometoloudcity.com/platform/amp/2017/4/16/15317522/oklahoma-city-thunder-vs-houston-rockets-game-one-preview-odds-prediction?amp_js_v=9
p1210
sVqueryString
p1211
(lp1212
(dp1213
Vname
p1214
Vamp_js_v
p1215
sVvalue
p1216
V9
p1217
sasVheaders
p1218
(lp1219
sVheadersSize
p1220
I602
sVbodySize
p1221
I0
sVmethod
p1222
VGET
p1223
sVhttpVersion
p1224
VHTTP/1.1
p1225
ssVtimings
p1226
(dp1227
Vcomment
p1228
g4
sVreceive
p1229
I1
sVsend
p1230
I0
sVssl
p1231
I183
sVconnect
p1232
I199
sVdns
p1233
I32
sVwait
p1234
I21
sVblocked
p1235
I0
ssVtime
p1236
I255
sVresponse
p1237
(dp1238
Vstatus
p1239
I200
sVcomment
p1240
g4
sVcookies
p1241
(lp1242
sVstatusText
p1243
VOK
p1244
sVcontent
p1245
(dp1246
VmimeType
p1247
Vtext/html
p1248
sVcomment
p1249
g4
sVsize
p1250
I0
ssVheaders
p1251
(lp1252
sVheadersSize
p1253
I860
sVredirectURL
p1254
g4
sVbodySize
p1255
I11755
sVhttpVersion
p1256
VHTTP/1.1
p1257
ssa(dp1258
Vcomment
p1259
g4
sVserverIPAddress
p1260
V216.58.216.193
p1261
sVpageref
p1262
VOklahoma City Thunder
p1263
sVstartedDateTime
p1264
V2017-04-16T08:32:55.590-05:00
p1265
sVcache
p1266
(dp1267
sVrequest
p1268
(dp1269
Vcomment
p1270
g4
sVcookies
p1271
(lp1272
sVurl
p1273
Vhttps://cdn0-vox--cdn-com.cdn.ampproject.org/i/s/cdn0.vox-cdn.com/thumbor/HuFVUh1SKVWcPhMznwd9aA9jWAo=/0x0:3000x2000/1310x873/cdn0.vox-cdn.com/uploads/chorus_image/image/54281619/usa_today_9790781.0.jpg
p1274
sVqueryString
p1275
(lp1276
sVheaders
p1277
(lp1278
sVheadersSize
p1279
I691
sVbodySize
p1280
I0
sVmethod
p1281
VGET
p1282
sVhttpVersion
p1283
VHTTP/1.1
p1284
ssVtimings
p1285
(dp1286
Vcomment
p1287
g4
sVreceive
p1288
I49
sVsend
p1289
I0
sVssl
p1290
I-1
sVconnect
p1291
I-1
sVdns
p1292
I-1
sVwait
p1293
I28
sVblocked
p1294
I-1
ssVtime
p1295
I77
sVresponse
p1296
(dp1297
Vstatus
p1298
I200
sVcomment
p1299
g4
sVcookies
p1300
(lp1301
sVstatusText
p1302
VOK
p1303
sVcontent
p1304
(dp1305
VmimeType
p1306
Vimage/jpeg
p1307
sVcomment
p1308
g4
sVsize
p1309
I0
ssVheaders
p1310
(lp1311
sVheadersSize
p1312
I851
sVredirectURL
p1313
g4
sVbodySize
p1314
I177209
sVhttpVersion
p1315
VHTTP/1.1
p1316
ssa(dp1317
Vcomment
p1318
g4
sVserverIPAddress
p1319
V216.58.216.193
p1320
sVpageref
p1321
VOklahoma City Thunder
p1322
sVstartedDateTime
p1323
V2017-04-16T08:32:55.863-05:00
p1324
sVcache
p1325
(dp1326
sVrequest
p1327
(dp1328
Vcomment
p1329
g4
sVcookies
p1330
(lp1331
sVurl
p1332
Vhttps://cdn2-vox--cdn-com.cdn.ampproject.org/ii/w100/s/cdn2.vox-cdn.com/uploads/blog/sbnu_logo_minimal/203/large_welcometoloudcity.com.minimal.png
p1333
sVqueryString
p1334
(lp1335
sVheaders
p1336
(lp1337
sVheadersSize
p1338
I635
sVbodySize
p1339
I0
sVmethod
p1340
VGET
p1341
sVhttpVersion
p1342
VHTTP/1.1
p1343
ssVtimings
p1344
(dp1345
Vcomment
p1346
g4
sVreceive
p1347
I0
sVsend
p1348
I0
sVssl
p1349
I199
sVconnect
p1350
I238
sVdns
p1351
I34
sVwait
p1352
I28
sVblocked
p1353
I0
ssVtime
p1354
I301
sVresponse
p1355
(dp1356
Vstatus
p1357
I200
sVcomment
p1358
g4
sVcookies
p1359
(lp1360
sVstatusText
p1361
VOK
p1362
sVcontent
p1363
(dp1364
VmimeType
p1365
Vimage/png
p1366
sVcomment
p1367
g4
sVsize
p1368
I0
ssVheaders
p1369
(lp1370
sVheadersSize
p1371
I824
sVredirectURL
p1372
g4
sVbodySize
p1373
I3736
sVhttpVersion
p1374
VHTTP/1.1
p1375
ssa(dp1376
Vcomment
p1377
g4
sVserverIPAddress
p1378
V216.58.216.196
p1379
sVpageref
p1380
VOklahoma City Thunder
p1381
sVstartedDateTime
p1382
V2017-04-16T08:32:56.850-05:00
p1383
sVcache
p1384
(dp1385
sVrequest
p1386
(dp1387
Vcomment
p1388
g4
sVcookies
p1389
(lp1390
sVurl
p1391
Vhttps://www.google.com/gen_204?atyp=i&ct=slh&cad=&ei=dHLzWO_xEOvHjwSxnIOoCw&s=2&v=2&pv=0.4248089188677242&me=11:1492349561953,V,0,0,0,0:10038,e,U&zx=1492349576848
p1392
sVqueryString
p1393
(lp1394
(dp1395
Vname
p1396
Vatyp
p1397
sVvalue
p1398
g30
sa(dp1399
Vname
p1400
Vct
p1401
sVvalue
p1402
Vslh
p1403
sa(dp1404
Vname
p1405
Vcad
p1406
sVvalue
p1407
g4
sa(dp1408
Vname
p1409
Vei
p1410
sVvalue
p1411
VdHLzWO_xEOvHjwSxnIOoCw
p1412
sa(dp1413
Vname
p1414
g47
sVvalue
p1415
g49
sa(dp1416
Vname
p1417
g52
sVvalue
p1418
g49
sa(dp1419
Vname
p1420
Vpv
p1421
sVvalue
p1422
V0.4248089188677242
p1423
sa(dp1424
Vname
p1425
Vme
p1426
sVvalue
p1427
V11:1492349561953,V,0,0,0,0:10038,e,U
p1428
sa(dp1429
Vname
p1430
Vzx
p1431
sVvalue
p1432
V1492349576848
p1433
sasVheaders
p1434
(lp1435
sVheadersSize
p1436
I679
sVbodySize
p1437
I0
sVmethod
p1438
VGET
p1439
sVhttpVersion
p1440
VHTTP/1.1
p1441
ssVtimings
p1442
(dp1443
Vcomment
p1444
g4
sVreceive
p1445
I0
sVsend
p1446
I0
sVssl
p1447
I-1
sVconnect
p1448
I-1
sVdns
p1449
I-1
sVwait
p1450
I25
sVblocked
p1451
I-1
ssVtime
p1452
I25
sVresponse
p1453
(dp1454
Vstatus
p1455
I204
sVcomment
p1456
g4
sVcookies
p1457
(lp1458
sVstatusText
p1459
VNo Content
p1460
sVcontent
p1461
(dp1462
VmimeType
p1463
Vtext/html; charset=UTF-8
p1464
sVcomment
p1465
g4
sVsize
p1466
I0
ssVheaders
p1467
(lp1468
sVheadersSize
p1469
I248
sVredirectURL
p1470
g4
sVbodySize
p1471
I0
sVhttpVersion
p1472
VHTTP/1.1
p1473
ssasVversion
p1474
V1.2
p1475
sVpages
p1476
(lp1477
(dp1478
VpageTimings
p1479
(dp1480
Vcomment
p1481
g4
ssVcomment
p1482
g4
sVtitle
p1483
VOklahoma City Thunder
p1484
sVid
p1485
VOklahoma City Thunder
p1486
sVstartedDateTime
p1487
V2017-04-16T08:32:51.984-05:00
p1488
sasVcreator
p1489
(dp1490
Vcomment
p1491
g4
sVversion
p1492
V2.1.4
p1493
sVname
p1494
VBrowserMob Proxy
p1495
sss.