(dp0
Vlog
p1
(dp2
Vcomment
p3
V
p4
sVentries
p5
(lp6
(dp7
Vcomment
p8
g4
sVserverIPAddress
p9
V216.58.216.196
p10
sVpageref
p11
VSan Francisco Giants
p12
sVstartedDateTime
p13
V2017-04-16T08:27:07.864-05:00
p14
sVcache
p15
(dp16
sVrequest
p17
(dp18
Vcomment
p19
g4
sVcookies
p20
(lp21
sVurl
p22
Vhttps://www.google.com/gen_204?atyp=i&ct=slh&cad=&ei=HHHzWNntCoiwjwShtKWoDA&m=V&t=C&s=1&v=2&pv=0.30798009060495957&me=1:1492349215889,x:2,V,0,0,1280,944:0,N,1,HHHzWNntCoiwjwShtKWoDA:0,R,1,24,0,155,1197,502:0,R,1,25,0,155,1197,500:0,R,1,78,8,665,1264,545:0,R,1,79,8,709,1264,315:0,R,1,80,0,709,1280,335:1,B,4168:11970,e,U&zx=1492349227863
p23
sVqueryString
p24
(lp25
(dp26
Vname
p27
Vatyp
p28
sVvalue
p29
Vi
p30
sa(dp31
Vname
p32
Vct
p33
sVvalue
p34
Vslh
p35
sa(dp36
Vname
p37
Vcad
p38
sVvalue
p39
g4
sa(dp40
Vname
p41
Vei
p42
sVvalue
p43
VHHHzWNntCoiwjwShtKWoDA
p44
sa(dp45
Vname
p46
Vm
p47
sVvalue
p48
VV
p49
sa(dp50
Vname
p51
Vt
p52
sVvalue
p53
VC
p54
sa(dp55
Vname
p56
Vs
p57
sVvalue
p58
V1
p59
sa(dp60
Vname
p61
Vv
p62
sVvalue
p63
V2
p64
sa(dp65
Vname
p66
Vpv
p67
sVvalue
p68
V0.30798009060495957
p69
sa(dp70
Vname
p71
Vme
p72
sVvalue
p73
V1:1492349215889,x:2,V,0,0,1280,944:0,N,1,HHHzWNntCoiwjwShtKWoDA:0,R,1,24,0,155,1197,502:0,R,1,25,0,155,1197,500:0,R,1,78,8,665,1264,545:0,R,1,79,8,709,1264,315:0,R,1,80,0,709,1280,335:1,B,4168:11970,e,U
p74
sa(dp75
Vname
p76
Vzx
p77
sVvalue
p78
V1492349227863
p79
sasVheaders
p80
(lp81
sVheadersSize
p82
I854
sVbodySize
p83
I0
sVmethod
p84
VGET
p85
sVhttpVersion
p86
VHTTP/1.1
p87
ssVtimings
p88
(dp89
Vcomment
p90
g4
sVreceive
p91
I0
sVsend
p92
I0
sVssl
p93
I-1
sVconnect
p94
I-1
sVdns
p95
I-1
sVwait
p96
I0
sVblocked
p97
I-1
ssVtime
p98
I0
sVresponse
p99
(dp100
Vstatus
p101
I0
sVcomment
p102
g4
sVcookies
p103
(lp104
sV_error
p105
VNo response received
p106
sVstatusText
p107
g4
sVcontent
p108
(dp109
VmimeType
p110
g4
sVcomment
p111
g4
sVsize
p112
I0
ssVheaders
p113
(lp114
sVheadersSize
p115
I-1
sVredirectURL
p116
g4
sVbodySize
p117
I-1
sVhttpVersion
p118
Vunknown
p119
ssa(dp120
Vcomment
p121
g4
sVserverIPAddress
p122
V216.58.216.196
p123
sVpageref
p124
VSan Francisco Giants
p125
sVstartedDateTime
p126
V2017-04-16T08:27:07.864-05:00
p127
sVcache
p128
(dp129
sVrequest
p130
(dp131
Vcomment
p132
g4
sVcookies
p133
(lp134
sVurl
p135
Vhttps://www.google.com/gen_204?atyp=i&ct=slh&cad=&ei=7XDzWKbUDoXLjwS6-KnoDw&m=V&t=C&s=1&v=2&pv=0.22458876654708204&me=1:1492349169069,x:2,V,0,0,1280,944:0,N,1,7XDzWKbUDoXLjwS6-KnoDw:0,R,1,24,8,155,1249,249:0,R,1,34,8,414,1249,261:0,R,1,35,8,414,1249,241:0,R,1,36,8,414,1249,90:0,R,1,51,8,685,1249,251:18,B,3805:20955,e,U&zx=1492349227863
p136
sVqueryString
p137
(lp138
(dp139
Vname
p140
Vatyp
p141
sVvalue
p142
g30
sa(dp143
Vname
p144
Vct
p145
sVvalue
p146
Vslh
p147
sa(dp148
Vname
p149
Vcad
p150
sVvalue
p151
g4
sa(dp152
Vname
p153
Vei
p154
sVvalue
p155
V7XDzWKbUDoXLjwS6-KnoDw
p156
sa(dp157
Vname
p158
g47
sVvalue
p159
g49
sa(dp160
Vname
p161
g52
sVvalue
p162
g54
sa(dp163
Vname
p164
g57
sVvalue
p165
g59
sa(dp166
Vname
p167
g62
sVvalue
p168
g64
sa(dp169
Vname
p170
Vpv
p171
sVvalue
p172
V0.22458876654708204
p173
sa(dp174
Vname
p175
Vme
p176
sVvalue
p177
V1:1492349169069,x:2,V,0,0,1280,944:0,N,1,7XDzWKbUDoXLjwS6-KnoDw:0,R,1,24,8,155,1249,249:0,R,1,34,8,414,1249,261:0,R,1,35,8,414,1249,241:0,R,1,36,8,414,1249,90:0,R,1,51,8,685,1249,251:18,B,3805:20955,e,U
p178
sa(dp179
Vname
p180
Vzx
p181
sVvalue
p182
V1492349227863
p183
sasVheaders
p184
(lp185
sVheadersSize
p186
I854
sVbodySize
p187
I0
sVmethod
p188
VGET
p189
sVhttpVersion
p190
VHTTP/1.1
p191
ssVtimings
p192
(dp193
Vcomment
p194
g4
sVreceive
p195
I0
sVsend
p196
I0
sVssl
p197
I-1
sVconnect
p198
I-1
sVdns
p199
I-1
sVwait
p200
I0
sVblocked
p201
I-1
ssVtime
p202
I0
sVresponse
p203
(dp204
Vstatus
p205
I0
sVcomment
p206
g4
sVcookies
p207
(lp208
sV_error
p209
VNo response received
p210
sVstatusText
p211
g4
sVcontent
p212
(dp213
VmimeType
p214
g4
sVcomment
p215
g4
sVsize
p216
I0
ssVheaders
p217
(lp218
sVheadersSize
p219
I-1
sVredirectURL
p220
g4
sVbodySize
p221
I-1
sVhttpVersion
p222
Vunknown
p223
ssa(dp224
Vcomment
p225
g4
sVserverIPAddress
p226
V216.58.216.196
p227
sVpageref
p228
VSan Francisco Giants
p229
sVstartedDateTime
p230
V2017-04-16T08:27:07.871-05:00
p231
sVcache
p232
(dp233
sVrequest
p234
(dp235
Vcomment
p236
g4
sVcookies
p237
(lp238
sVurl
p239
Vhttp://www.google.com/
p240
sVqueryString
p241
(lp242
sVheaders
p243
(lp244
sVheadersSize
p245
I613
sVbodySize
p246
I0
sVmethod
p247
VGET
p248
sVhttpVersion
p249
VHTTP/1.1
p250
ssVtimings
p251
(dp252
Vcomment
p253
g4
sVreceive
p254
I0
sVsend
p255
I0
sVssl
p256
I-1
sVconnect
p257
I-1
sVdns
p258
I-1
sVwait
p259
I49
sVblocked
p260
I-1
ssVtime
p261
I49
sVresponse
p262
(dp263
Vstatus
p264
I302
sVcomment
p265
g4
sVcookies
p266
(lp267
sVstatusText
p268
VFound
p269
sVcontent
p270
(dp271
VmimeType
p272
Vtext/html; charset=UTF-8
p273
sVcomment
p274
g4
sVsize
p275
I0
ssVheaders
p276
(lp277
sVheadersSize
p278
I609
sVredirectURL
p279
Vhttps://www.google.com/?gws_rd=ssl
p280
sVbodySize
p281
I231
sVhttpVersion
p282
VHTTP/1.1
p283
ssa(dp284
Vcomment
p285
g4
sVserverIPAddress
p286
V216.58.216.196
p287
sVpageref
p288
VSan Francisco Giants
p289
sVstartedDateTime
p290
V2017-04-16T08:27:07.866-05:00
p291
sVcache
p292
(dp293
sVrequest
p294
(dp295
Vcomment
p296
g4
sVcookies
p297
(lp298
sVurl
p299
Vhttps://www.google.com
p300
sVqueryString
p301
(lp302
sVheaders
p303
(lp304
sVheadersSize
p305
I0
sVbodySize
p306
I0
sVmethod
p307
VCONNECT
p308
sVhttpVersion
p309
VHTTP/1.1
p310
ssVtimings
p311
(dp312
Vcomment
p313
g4
sVreceive
p314
I0
sVsend
p315
I0
sVssl
p316
I-1
sVconnect
p317
I44
sVdns
p318
I1
sVwait
p319
I0
sVblocked
p320
I0
ssVtime
p321
I45
sVresponse
p322
(dp323
Vstatus
p324
I0
sVcomment
p325
g4
sVcookies
p326
(lp327
sV_error
p328
VUnable to connect to host
p329
sVstatusText
p330
g4
sVcontent
p331
(dp332
VmimeType
p333
g4
sVcomment
p334
g4
sVsize
p335
I0
ssVheaders
p336
(lp337
sVheadersSize
p338
I-1
sVredirectURL
p339
g4
sVbodySize
p340
I-1
sVhttpVersion
p341
Vunknown
p342
ssa(dp343
Vcomment
p344
g4
sVserverIPAddress
p345
V216.58.216.196
p346
sVpageref
p347
VSan Francisco Giants
p348
sVstartedDateTime
p349
V2017-04-16T08:27:07.967-05:00
p350
sVcache
p351
(dp352
sVrequest
p353
(dp354
Vcomment
p355
g4
sVcookies
p356
(lp357
sVurl
p358
Vhttps://www.google.com/?gws_rd=ssl
p359
sVqueryString
p360
(lp361
(dp362
Vname
p363
Vgws_rd
p364
sVvalue
p365
Vssl
p366
sasVheaders
p367
(lp368
sVheadersSize
p369
I607
sVbodySize
p370
I0
sVmethod
p371
VGET
p372
sVhttpVersion
p373
VHTTP/1.1
p374
ssVtimings
p375
(dp376
Vcomment
p377
g4
sVreceive
p378
I25
sVsend
p379
I0
sVssl
p380
I23
sVconnect
p381
I42
sVdns
p382
I0
sVwait
p383
I66
sVblocked
p384
I0
ssVtime
p385
I134
sVresponse
p386
(dp387
Vstatus
p388
I200
sVcomment
p389
g4
sVcookies
p390
(lp391
sVstatusText
p392
VOK
p393
sVcontent
p394
(dp395
VmimeType
p396
Vtext/html; charset=UTF-8
p397
sVcomment
p398
g4
sVsize
p399
I0
ssVheaders
p400
(lp401
sVheadersSize
p402
I721
sVredirectURL
p403
g4
sVbodySize
p404
I34294
sVhttpVersion
p405
VHTTP/1.1
p406
ssa(dp407
Vcomment
p408
g4
sVserverIPAddress
p409
V216.58.216.196
p410
sVpageref
p411
VSan Francisco Giants
p412
sVstartedDateTime
p413
V2017-04-16T08:27:08.586-05:00
p414
sVcache
p415
(dp416
sVrequest
p417
(dp418
Vcomment
p419
g4
sVcookies
p420
(lp421
sVurl
p422
Vhttps://www.google.com/gen_204?s=mobilewebhp&atyp=csi&ei=KnHzWNTtOpKvjwSYrK3wDQ&imc=1&imn=1&imp=0&adh=&xjs=init.37.12.sb_mob.28.dvl.3.mbsf.2.c.1.jsa.1&ima=1&rt=xjsls.35,prt.36,iml.36,dcl.64,xjses.360,xjsee.486,xjs.487,ol.529,aft.36,wsrt.189,cst.0,dnst.0,rqst.96,rspt.98,rqstt.104,unt.60,cstt.60,dit.237
p423
sVqueryString
p424
(lp425
(dp426
Vname
p427
g57
sVvalue
p428
Vmobilewebhp
p429
sa(dp430
Vname
p431
Vatyp
p432
sVvalue
p433
Vcsi
p434
sa(dp435
Vname
p436
Vei
p437
sVvalue
p438
VKnHzWNTtOpKvjwSYrK3wDQ
p439
sa(dp440
Vname
p441
Vimc
p442
sVvalue
p443
g59
sa(dp444
Vname
p445
Vimn
p446
sVvalue
p447
g59
sa(dp448
Vname
p449
Vimp
p450
sVvalue
p451
V0
p452
sa(dp453
Vname
p454
Vadh
p455
sVvalue
p456
g4
sa(dp457
Vname
p458
Vxjs
p459
sVvalue
p460
Vinit.37.12.sb_mob.28.dvl.3.mbsf.2.c.1.jsa.1
p461
sa(dp462
Vname
p463
Vima
p464
sVvalue
p465
g59
sa(dp466
Vname
p467
Vrt
p468
sVvalue
p469
Vxjsls.35,prt.36,iml.36,dcl.64,xjses.360,xjsee.486,xjs.487,ol.529,aft.36,wsrt.189,cst.0,dnst.0,rqst.96,rspt.98,rqstt.104,unt.60,cstt.60,dit.237
p470
sasVheaders
p471
(lp472
sVheadersSize
p473
I830
sVbodySize
p474
I0
sVmethod
p475
VGET
p476
sVhttpVersion
p477
VHTTP/1.1
p478
ssVtimings
p479
(dp480
Vcomment
p481
g4
sVreceive
p482
I0
sVsend
p483
I0
sVssl
p484
I-1
sVconnect
p485
I-1
sVdns
p486
I-1
sVwait
p487
I31
sVblocked
p488
I-1
ssVtime
p489
I32
sVresponse
p490
(dp491
Vstatus
p492
I204
sVcomment
p493
g4
sVcookies
p494
(lp495
sVstatusText
p496
VNo Content
p497
sVcontent
p498
(dp499
VmimeType
p500
Vtext/html; charset=UTF-8
p501
sVcomment
p502
g4
sVsize
p503
I0
ssVheaders
p504
(lp505
sVheadersSize
p506
I248
sVredirectURL
p507
g4
sVbodySize
p508
I0
sVhttpVersion
p509
VHTTP/1.1
p510
ssa(dp511
Vcomment
p512
g4
sVserverIPAddress
p513
V216.58.216.196
p514
sVpageref
p515
VSan Francisco Giants
p516
sVstartedDateTime
p517
V2017-04-16T08:27:08.706-05:00
p518
sVcache
p519
(dp520
sVrequest
p521
(dp522
Vcomment
p523
g4
sVcookies
p524
(lp525
sVurl
p526
Vhttps://www.google.com/complete/search?client=mobile-gws-hp&hl=en&gs_rn=64&gs_ri=mobile-gws-hp&sla=1&pfq=steve%20avery&gm=602&cp=0&gs_id=1&xhr=t&q=S&tch=1&ech=1&psi=KnHzWNTtOpKvjwSYrK3wDQ.1492349228500.1
p527
sVqueryString
p528
(lp529
(dp530
Vname
p531
Vclient
p532
sVvalue
p533
Vmobile-gws-hp
p534
sa(dp535
Vname
p536
Vhl
p537
sVvalue
p538
Ven
p539
sa(dp540
Vname
p541
Vgs_rn
p542
sVvalue
p543
V64
p544
sa(dp545
Vname
p546
Vgs_ri
p547
sVvalue
p548
Vmobile-gws-hp
p549
sa(dp550
Vname
p551
Vsla
p552
sVvalue
p553
g59
sa(dp554
Vname
p555
Vpfq
p556
sVvalue
p557
Vsteve avery
p558
sa(dp559
Vname
p560
Vgm
p561
sVvalue
p562
V602
p563
sa(dp564
Vname
p565
Vcp
p566
sVvalue
p567
g452
sa(dp568
Vname
p569
Vgs_id
p570
sVvalue
p571
g59
sa(dp572
Vname
p573
Vxhr
p574
sVvalue
p575
g52
sa(dp576
Vname
p577
Vq
p578
sVvalue
p579
VS
p580
sa(dp581
Vname
p582
Vtch
p583
sVvalue
p584
g59
sa(dp585
Vname
p586
Vech
p587
sVvalue
p588
g59
sa(dp589
Vname
p590
Vpsi
p591
sVvalue
p592
VKnHzWNTtOpKvjwSYrK3wDQ.1492349228500.1
p593
sasVheaders
p594
(lp595
sVheadersSize
p596
I731
sVbodySize
p597
I0
sVmethod
p598
VGET
p599
sVhttpVersion
p600
VHTTP/1.1
p601
ssVtimings
p602
(dp603
Vcomment
p604
g4
sVreceive
p605
I0
sVsend
p606
I0
sVssl
p607
I-1
sVconnect
p608
I-1
sVdns
p609
I-1
sVwait
p610
I0
sVblocked
p611
I-1
ssVtime
p612
I0
sVresponse
p613
(dp614
Vstatus
p615
I0
sVcomment
p616
g4
sVcookies
p617
(lp618
sV_error
p619
VNo response received
p620
sVstatusText
p621
g4
sVcontent
p622
(dp623
VmimeType
p624
g4
sVcomment
p625
g4
sVsize
p626
I0
ssVheaders
p627
(lp628
sVheadersSize
p629
I-1
sVredirectURL
p630
g4
sVbodySize
p631
I-1
sVhttpVersion
p632
Vunknown
p633
ssa(dp634
Vcomment
p635
g4
sVserverIPAddress
p636
V216.58.216.196
p637
sVpageref
p638
VSan Francisco Giants
p639
sVstartedDateTime
p640
V2017-04-16T08:27:08.876-05:00
p641
sVcache
p642
(dp643
sVrequest
p644
(dp645
Vcomment
p646
g4
sVcookies
p647
(lp648
sVurl
p649
Vhttps://www.google.com/search?site=&source=hp&ei=KnHzWNTtOpKvjwSYrK3wDQ&q=San+Francisco+Giants&oq=San+Francisco+Giants&gs_l=mobile-gws-hp.3...179.234.0.265.20.1.0.0.0.0.0.0..0.0....0...1c.1.64.mobile-gws-hp..20.0.0.qmoIoMVVmWM
p650
sVqueryString
p651
(lp652
(dp653
Vname
p654
Vsite
p655
sVvalue
p656
g4
sa(dp657
Vname
p658
Vsource
p659
sVvalue
p660
Vhp
p661
sa(dp662
Vname
p663
Vei
p664
sVvalue
p665
VKnHzWNTtOpKvjwSYrK3wDQ
p666
sa(dp667
Vname
p668
g578
sVvalue
p669
VSan Francisco Giants
p670
sa(dp671
Vname
p672
Voq
p673
sVvalue
p674
VSan Francisco Giants
p675
sa(dp676
Vname
p677
Vgs_l
p678
sVvalue
p679
Vmobile-gws-hp.3...179.234.0.265.20.1.0.0.0.0.0.0..0.0....0...1c.1.64.mobile-gws-hp..20.0.0.qmoIoMVVmWM
p680
sasVheaders
p681
(lp682
sVheadersSize
p683
I844
sVbodySize
p684
I0
sVmethod
p685
VGET
p686
sVhttpVersion
p687
VHTTP/1.1
p688
ssVtimings
p689
(dp690
Vcomment
p691
g4
sVreceive
p692
I986
sVsend
p693
I0
sVssl
p694
I27
sVconnect
p695
I76
sVdns
p696
I0
sVwait
p697
I105
sVblocked
p698
I0
ssVtime
p699
I1168
sVresponse
p700
(dp701
Vstatus
p702
I200
sVcomment
p703
g4
sVcookies
p704
(lp705
sVstatusText
p706
VOK
p707
sVcontent
p708
(dp709
VmimeType
p710
Vtext/html; charset=UTF-8
p711
sVcomment
p712
g4
sVsize
p713
I0
ssVheaders
p714
(lp715
sVheadersSize
p716
I363
sVredirectURL
p717
g4
sVbodySize
p718
I245591
sVhttpVersion
p719
VHTTP/1.1
p720
ssa(dp721
Vcomment
p722
g4
sVserverIPAddress
p723
V172.217.0.3
p724
sVpageref
p725
VSan Francisco Giants
p726
sVstartedDateTime
p727
V2017-04-16T08:27:09.904-05:00
p728
sVcache
p729
(dp730
sVrequest
p731
(dp732
Vcomment
p733
g4
sVcookies
p734
(lp735
sVurl
p736
Vhttps://ssl.gstatic.com/onebox/media/sports/logos/Dg6bjCXwfLPYpZhI66005g_48x48.png
p737
sVqueryString
p738
(lp739
sVheaders
p740
(lp741
sVheadersSize
p742
I397
sVbodySize
p743
I0
sVmethod
p744
VGET
p745
sVhttpVersion
p746
VHTTP/1.1
p747
ssVtimings
p748
(dp749
Vcomment
p750
g4
sVreceive
p751
I0
sVsend
p752
I0
sVssl
p753
I-1
sVconnect
p754
I-1
sVdns
p755
I-1
sVwait
p756
I31
sVblocked
p757
I-1
ssVtime
p758
I31
sVresponse
p759
(dp760
Vstatus
p761
I200
sVcomment
p762
g4
sVcookies
p763
(lp764
sVstatusText
p765
VOK
p766
sVcontent
p767
(dp768
VmimeType
p769
Vimage/png
p770
sVcomment
p771
g4
sVsize
p772
I0
ssVheaders
p773
(lp774
sVheadersSize
p775
I424
sVredirectURL
p776
g4
sVbodySize
p777
I2993
sVhttpVersion
p778
VHTTP/1.1
p779
ssa(dp780
Vcomment
p781
g4
sVserverIPAddress
p782
V172.217.0.3
p783
sVpageref
p784
VSan Francisco Giants
p785
sVstartedDateTime
p786
V2017-04-16T08:27:09.905-05:00
p787
sVcache
p788
(dp789
sVrequest
p790
(dp791
Vcomment
p792
g4
sVcookies
p793
(lp794
sVurl
p795
Vhttps://ssl.gstatic.com/onebox/media/sports/logos/Xhoba8Glkl5hAKLPis5WXQ_96x96.png
p796
sVqueryString
p797
(lp798
sVheaders
p799
(lp800
sVheadersSize
p801
I397
sVbodySize
p802
I0
sVmethod
p803
VGET
p804
sVhttpVersion
p805
VHTTP/1.1
p806
ssVtimings
p807
(dp808
Vcomment
p809
g4
sVreceive
p810
I0
sVsend
p811
I0
sVssl
p812
I-1
sVconnect
p813
I-1
sVdns
p814
I-1
sVwait
p815
I29
sVblocked
p816
I-1
ssVtime
p817
I30
sVresponse
p818
(dp819
Vstatus
p820
I200
sVcomment
p821
g4
sVcookies
p822
(lp823
sVstatusText
p824
VOK
p825
sVcontent
p826
(dp827
VmimeType
p828
Vimage/png
p829
sVcomment
p830
g4
sVsize
p831
I0
ssVheaders
p832
(lp833
sVheadersSize
p834
I423
sVredirectURL
p835
g4
sVbodySize
p836
I7651
sVhttpVersion
p837
VHTTP/1.1
p838
ssa(dp839
Vcomment
p840
g4
sVserverIPAddress
p841
V172.217.0.3
p842
sVpageref
p843
VSan Francisco Giants
p844
sVstartedDateTime
p845
V2017-04-16T08:27:09.906-05:00
p846
sVcache
p847
(dp848
sVrequest
p849
(dp850
Vcomment
p851
g4
sVcookies
p852
(lp853
sVurl
p854
Vhttps://ssl.gstatic.com/onebox/media/sports/logos/Dg6bjCXwfLPYpZhI66005g_96x96.png
p855
sVqueryString
p856
(lp857
sVheaders
p858
(lp859
sVheadersSize
p860
I397
sVbodySize
p861
I0
sVmethod
p862
VGET
p863
sVhttpVersion
p864
VHTTP/1.1
p865
ssVtimings
p866
(dp867
Vcomment
p868
g4
sVreceive
p869
I0
sVsend
p870
I0
sVssl
p871
I-1
sVconnect
p872
I-1
sVdns
p873
I-1
sVwait
p874
I30
sVblocked
p875
I-1
ssVtime
p876
I31
sVresponse
p877
(dp878
Vstatus
p879
I200
sVcomment
p880
g4
sVcookies
p881
(lp882
sVstatusText
p883
VOK
p884
sVcontent
p885
(dp886
VmimeType
p887
Vimage/png
p888
sVcomment
p889
g4
sVsize
p890
I0
ssVheaders
p891
(lp892
sVheadersSize
p893
I422
sVredirectURL
p894
g4
sVbodySize
p895
I8267
sVhttpVersion
p896
VHTTP/1.1
p897
ssa(dp898
Vcomment
p899
g4
sVserverIPAddress
p900
V172.217.0.3
p901
sVpageref
p902
VSan Francisco Giants
p903
sVstartedDateTime
p904
V2017-04-16T08:27:09.906-05:00
p905
sVcache
p906
(dp907
sVrequest
p908
(dp909
Vcomment
p910
g4
sVcookies
p911
(lp912
sVurl
p913
Vhttps://ssl.gstatic.com/onebox/media/sports/logos/9o_LwIzPvp46JyAcQdr7ow_48x48.png
p914
sVqueryString
p915
(lp916
sVheaders
p917
(lp918
sVheadersSize
p919
I397
sVbodySize
p920
I0
sVmethod
p921
VGET
p922
sVhttpVersion
p923
VHTTP/1.1
p924
ssVtimings
p925
(dp926
Vcomment
p927
g4
sVreceive
p928
I0
sVsend
p929
I0
sVssl
p930
I-1
sVconnect
p931
I-1
sVdns
p932
I-1
sVwait
p933
I29
sVblocked
p934
I-1
ssVtime
p935
I30
sVresponse
p936
(dp937
Vstatus
p938
I200
sVcomment
p939
g4
sVcookies
p940
(lp941
sVstatusText
p942
VOK
p943
sVcontent
p944
(dp945
VmimeType
p946
Vimage/png
p947
sVcomment
p948
g4
sVsize
p949
I0
ssVheaders
p950
(lp951
sVheadersSize
p952
I402
sVredirectURL
p953
g4
sVbodySize
p954
I3520
sVhttpVersion
p955
VHTTP/1.1
p956
ssa(dp957
Vcomment
p958
g4
sVserverIPAddress
p959
V216.58.216.196
p960
sVpageref
p961
VSan Francisco Giants
p962
sVstartedDateTime
p963
V2017-04-16T08:27:10.862-05:00
p964
sVcache
p965
(dp966
sVrequest
p967
(dp968
Vcomment
p969
g4
sVcookies
p970
(lp971
sVurl
p972
Vhttps://www.google.com/xjs/_/js/k=xjs.qs.en_US.pCBXVCvTH3s.O/m=syl,syj,syn,em3,em8,em6,em7,sym,aa,abd,sy2g,sy2k,sy29,sy2j,sy2d,sy2a,sy2c,sy2f,sy2l,sy2m,sy2n,emd,async,sybn,sybi,sybo,sy1f,sy45,sy46,sy9w,sybk,sybj,sybp,sy1g,sy30,sy47,sybm,sybl,sybq,sy1h,sybh,dvl,syep,foot,ipv6,sy5g,sy5j,sy5h,sy6u,sy7d,sy7j,sy2x,sy5i,sy89,sy7e,sy23,sy2y,sy5k,sy6c,sy91,sy9b,sy9l,syhi,syhj,syhk,syhl,lr,lrli,sy32,emj,shm,sykh,tl,sy2t,sy38,em12,vs,sy66,sy67,sy4u,sy69,sykk,sykl,tnv,bct,sy48,sy3a,sy3c,sy5b,sy4x,sy4z,sy56,sy1y,sy31,sy4y,sy22,sy6i,sy4h,sy6h,sy6o,sya3,sy5d,sy25,sy6j,sy6k,sy6r,sya2,sy5e,sy6n,emb,em9,ema,sy24,sy2o,sy4c,sy65,sy6p,sy6s,sy6w,sy72,sya4,syd7,syel,syho,syhs,syhu,syhv,sio,sy6y,sycu,d3l,sy5x,qif,tabs,sy9m,syac,sy4g,sy9n,syhz,syl6,ssc,sy26,sykr,strm,sy2u,sy34,sy6l,sy6m,qkx,syf5,sy99,syf4,syfc,syfn,syf7,syff,sy1i,sy68,sy8d,syf6,syfl,syfr,syfq,syfg,sy1j,sy4q,sy5o,sy5r,sy8h,syc7,syc8,syfb,syfj,syfs,syft,syg3,syg5,syg7,emn,emo,syg4,syg6,ivg,iuci,img,sy4d,sy4f,sy4e,sy4b,shrb,dgm,sy41,tcc,sy1r,sy8g,syer,sy9u,syex,syey,syet,syeu,syew,syez,syf0,hlr,sy4i,syes,hlmi,sygq,kpc,kpci,twt,syj7,syj8,syj2,syjc,syj6,syj3,syjg,syjh,syje,syjd,syjk,syji,syjf,syj0,emr,ems,emt,emu,emv,emx,emy,emz,em10,em11,udlg,sy5z,atn,sya1,ampfp/am=gCP4LtMEBXQA2RUaq_oFBISzAFA/rt=j/d=0/t=zcms/rs=ACT90oFwm4NZCwIcuuiqmthdlECdBzkhRA
p973
sVqueryString
p974
(lp975
sVheaders
p976
(lp977
sVheadersSize
p978
I1822
sVbodySize
p979
I0
sVmethod
p980
VGET
p981
sVhttpVersion
p982
VHTTP/1.1
p983
ssVtimings
p984
(dp985
Vcomment
p986
g4
sVreceive
p987
I50
sVsend
p988
I0
sVssl
p989
I-1
sVconnect
p990
I-1
sVdns
p991
I-1
sVwait
p992
I25
sVblocked
p993
I-1
ssVtime
p994
I76
sVresponse
p995
(dp996
Vstatus
p997
I200
sVcomment
p998
g4
sVcookies
p999
(lp1000
sVstatusText
p1001
VOK
p1002
sVcontent
p1003
(dp1004
VmimeType
p1005
Vtext/javascript; charset=UTF-8
p1006
sVcomment
p1007
g4
sVsize
p1008
I0
ssVheaders
p1009
(lp1010
sVheadersSize
p1011
I465
sVredirectURL
p1012
g4
sVbodySize
p1013
I225707
sVhttpVersion
p1014
VHTTP/1.1
p1015
ssa(dp1016
Vcomment
p1017
g4
sVserverIPAddress
p1018
V216.58.216.196
p1019
sVpageref
p1020
VSan Francisco Giants
p1021
sVstartedDateTime
p1022
V2017-04-16T08:27:11.745-05:00
p1023
sVcache
p1024
(dp1025
sVrequest
p1026
(dp1027
Vcomment
p1028
g4
sVcookies
p1029
(lp1030
sVurl
p1031
Vhttps://www.google.com/async/irc?vet=10ahUKEwj06u6MiqnTAhUl2oMKHRNUDuAQo0EIjAM..i&ved=0ahUKEwj06u6MiqnTAhUl2oMKHRNUDuAQo0EIjAM&ei=K3HzWLSpNaW0jwSTqLmADg&yv=2&async=iu:1,ved:0ahUKEwj06u6MiqnTAhUl2oMKHRNUDuAQo0EIjAM,_id:irc_async,_pms:qs
p1032
sVqueryString
p1033
(lp1034
(dp1035
Vname
p1036
Vvet
p1037
sVvalue
p1038
V10ahUKEwj06u6MiqnTAhUl2oMKHRNUDuAQo0EIjAM..i
p1039
sa(dp1040
Vname
p1041
Vved
p1042
sVvalue
p1043
V0ahUKEwj06u6MiqnTAhUl2oMKHRNUDuAQo0EIjAM
p1044
sa(dp1045
Vname
p1046
Vei
p1047
sVvalue
p1048
VK3HzWLSpNaW0jwSTqLmADg
p1049
sa(dp1050
Vname
p1051
Vyv
p1052
sVvalue
p1053
g64
sa(dp1054
Vname
p1055
Vasync
p1056
sVvalue
p1057
Viu:1,ved:0ahUKEwj06u6MiqnTAhUl2oMKHRNUDuAQo0EIjAM,_id:irc_async,_pms:qs
p1058
sasVheaders
p1059
(lp1060
sVheadersSize
p1061
I752
sVbodySize
p1062
I0
sVmethod
p1063
VGET
p1064
sVhttpVersion
p1065
VHTTP/1.1
p1066
ssVtimings
p1067
(dp1068
Vcomment
p1069
g4
sVreceive
p1070
I1
sVsend
p1071
I0
sVssl
p1072
I-1
sVconnect
p1073
I-1
sVdns
p1074
I-1
sVwait
p1075
I36
sVblocked
p1076
I-1
ssVtime
p1077
I37
sVresponse
p1078
(dp1079
Vstatus
p1080
I200
sVcomment
p1081
g4
sVcookies
p1082
(lp1083
sVstatusText
p1084
VOK
p1085
sVcontent
p1086
(dp1087
VmimeType
p1088
Vtext/html; charset=UTF-8
p1089
sVcomment
p1090
g4
sVsize
p1091
I0
ssVheaders
p1092
(lp1093
sVheadersSize
p1094
I383
sVredirectURL
p1095
g4
sVbodySize
p1096
I7794
sVhttpVersion
p1097
VHTTP/1.1
p1098
ssa(dp1099
Vcomment
p1100
g4
sVserverIPAddress
p1101
V216.58.216.196
p1102
sVpageref
p1103
VSan Francisco Giants
p1104
sVstartedDateTime
p1105
V2017-04-16T08:27:11.935-05:00
p1106
sVcache
p1107
(dp1108
sVrequest
p1109
(dp1110
Vcomment
p1111
g4
sVcookies
p1112
(lp1113
sVurl
p1114
Vhttps://www.google.com/async/ampfp?vet=10ahUKEwj06u6MiqnTAhUl2oMKHRNUDuAQtZoBCIoD..i&ei=K3HzWLSpNaW0jwSTqLmADg&yv=2&async=_id:ampfp-async,_pms:qs
p1115
sVqueryString
p1116
(lp1117
(dp1118
Vname
p1119
Vvet
p1120
sVvalue
p1121
V10ahUKEwj06u6MiqnTAhUl2oMKHRNUDuAQtZoBCIoD..i
p1122
sa(dp1123
Vname
p1124
Vei
p1125
sVvalue
p1126
VK3HzWLSpNaW0jwSTqLmADg
p1127
sa(dp1128
Vname
p1129
Vyv
p1130
sVvalue
p1131
g64
sa(dp1132
Vname
p1133
Vasync
p1134
sVvalue
p1135
V_id:ampfp-async,_pms:qs
p1136
sasVheaders
p1137
(lp1138
sVheadersSize
p1139
I662
sVbodySize
p1140
I0
sVmethod
p1141
VGET
p1142
sVhttpVersion
p1143
VHTTP/1.1
p1144
ssVtimings
p1145
(dp1146
Vcomment
p1147
g4
sVreceive
p1148
I0
sVsend
p1149
I0
sVssl
p1150
I-1
sVconnect
p1151
I-1
sVdns
p1152
I-1
sVwait
p1153
I47
sVblocked
p1154
I-1
ssVtime
p1155
I47
sVresponse
p1156
(dp1157
Vstatus
p1158
I200
sVcomment
p1159
g4
sVcookies
p1160
(lp1161
sVstatusText
p1162
VOK
p1163
sVcontent
p1164
(dp1165
VmimeType
p1166
Vtext/html; charset=UTF-8
p1167
sVcomment
p1168
g4
sVsize
p1169
I0
ssVheaders
p1170
(lp1171
sVheadersSize
p1172
I383
sVredirectURL
p1173
g4
sVbodySize
p1174
I4524
sVhttpVersion
p1175
VHTTP/1.1
p1176
ssa(dp1177
Vcomment
p1178
g4
sVserverIPAddress
p1179
V216.58.216.193
p1180
sVpageref
p1181
VSan Francisco Giants
p1182
sVstartedDateTime
p1183
V2017-04-16T08:27:11.938-05:00
p1184
sVcache
p1185
(dp1186
sVrequest
p1187
(dp1188
Vcomment
p1189
g4
sVcookies
p1190
(lp1191
sVurl
p1192
Vhttps://cdn.ampproject.org/preconnect.gif?0.30869154041571445
p1193
sVqueryString
p1194
(lp1195
(dp1196
Vname
p1197
V0.30869154041571445
p1198
sVvalue
p1199
g4
sasVheaders
p1200
(lp1201
sVheadersSize
p1202
I376
sVbodySize
p1203
I0
sVmethod
p1204
VGET
p1205
sVhttpVersion
p1206
VHTTP/1.1
p1207
ssVtimings
p1208
(dp1209
Vcomment
p1210
g4
sVreceive
p1211
I0
sVsend
p1212
I0
sVssl
p1213
I-1
sVconnect
p1214
I-1
sVdns
p1215
I-1
sVwait
p1216
I41
sVblocked
p1217
I-1
ssVtime
p1218
I41
sVresponse
p1219
(dp1220
Vstatus
p1221
I200
sVcomment
p1222
g4
sVcookies
p1223
(lp1224
sVstatusText
p1225
VOK
p1226
sVcontent
p1227
(dp1228
VmimeType
p1229
Vimage/gif
p1230
sVcomment
p1231
g4
sVsize
p1232
I0
ssVheaders
p1233
(lp1234
sVheadersSize
p1235
I826
sVredirectURL
p1236
g4
sVbodySize
p1237
I37
sVhttpVersion
p1238
VHTTP/1.1
p1239
ssa(dp1240
Vcomment
p1241
g4
sVserverIPAddress
p1242
V172.217.0.1
p1243
sVpageref
p1244
VSan Francisco Giants
p1245
sVstartedDateTime
p1246
V2017-04-16T08:27:11.954-05:00
p1247
sVcache
p1248
(dp1249
sVrequest
p1250
(dp1251
Vcomment
p1252
g4
sVcookies
p1253
(lp1254
sVurl
p1255
Vhttps://lh3.googleusercontent.com/vv2_H0O-DtW-qZ-NUXkwNYNO1V3l3KpxaiL3QInCr9Jt7WnvYh1RtzAveUuVH14c8nOqgx3x_dmpVNAN77gAQYqe=w232-h131-p-no
p1256
sVqueryString
p1257
(lp1258
sVheaders
p1259
(lp1260
sVheadersSize
p1261
I452
sVbodySize
p1262
I0
sVmethod
p1263
VGET
p1264
sVhttpVersion
p1265
VHTTP/1.1
p1266
ssVtimings
p1267
(dp1268
Vcomment
p1269
g4
sVreceive
p1270
I921
sVsend
p1271
I0
sVssl
p1272
I-1
sVconnect
p1273
I-1
sVdns
p1274
I-1
sVwait
p1275
I25
sVblocked
p1276
I-1
ssVtime
p1277
I946
sVresponse
p1278
(dp1279
Vstatus
p1280
I200
sVcomment
p1281
g4
sVcookies
p1282
(lp1283
sVstatusText
p1284
VOK
p1285
sVcontent
p1286
(dp1287
VmimeType
p1288
Vimage/gif
p1289
sVcomment
p1290
g4
sVsize
p1291
I0
ssVheaders
p1292
(lp1293
sVheadersSize
p1294
I496
sVredirectURL
p1295
g4
sVbodySize
p1296
I1778528
sVhttpVersion
p1297
VHTTP/1.1
p1298
ssa(dp1299
Vcomment
p1300
g4
sVserverIPAddress
p1301
V172.217.0.1
p1302
sVpageref
p1303
VSan Francisco Giants
p1304
sVstartedDateTime
p1305
V2017-04-16T08:27:11.972-05:00
p1306
sVcache
p1307
(dp1308
sVrequest
p1309
(dp1310
Vcomment
p1311
g4
sVcookies
p1312
(lp1313
sVurl
p1314
Vhttps://lh3.googleusercontent.com/dMh9ATPOthPegpkYXyZleY3DjZwQgcavaVcjz0dfMI2rB5uppcFhvR9TpvvTlUIXD-F2JsdXZZzsVMpb9VZo22ZU=w232-h131-p-k-no
p1315
sVqueryString
p1316
(lp1317
sVheaders
p1318
(lp1319
sVheadersSize
p1320
I454
sVbodySize
p1321
I0
sVmethod
p1322
VGET
p1323
sVhttpVersion
p1324
VHTTP/1.1
p1325
ssVtimings
p1326
(dp1327
Vcomment
p1328
g4
sVreceive
p1329
I1
sVsend
p1330
I0
sVssl
p1331
I-1
sVconnect
p1332
I-1
sVdns
p1333
I-1
sVwait
p1334
I22
sVblocked
p1335
I-1
ssVtime
p1336
I24
sVresponse
p1337
(dp1338
Vstatus
p1339
I200
sVcomment
p1340
g4
sVcookies
p1341
(lp1342
sVstatusText
p1343
VOK
p1344
sVcontent
p1345
(dp1346
VmimeType
p1347
Vimage/jpeg
p1348
sVcomment
p1349
g4
sVsize
p1350
I0
ssVheaders
p1351
(lp1352
sVheadersSize
p1353
I495
sVredirectURL
p1354
g4
sVbodySize
p1355
I21207
sVhttpVersion
p1356
VHTTP/1.1
p1357
ssa(dp1358
Vcomment
p1359
g4
sVserverIPAddress
p1360
V172.217.0.1
p1361
sVpageref
p1362
VSan Francisco Giants
p1363
sVstartedDateTime
p1364
V2017-04-16T08:27:11.976-05:00
p1365
sVcache
p1366
(dp1367
sVrequest
p1368
(dp1369
Vcomment
p1370
g4
sVcookies
p1371
(lp1372
sVurl
p1373
Vhttps://lh3.googleusercontent.com/6LNdzBeNHECUg38heM44BuNq3aBH0Keq8nZzEloCZg8WF4MZmkWxO7eH1pNczzB0jdBo8O88Wr_QJvDYLpdcsWY=w232-h131-p-no
p1374
sVqueryString
p1375
(lp1376
sVheaders
p1377
(lp1378
sVheadersSize
p1379
I451
sVbodySize
p1380
I0
sVmethod
p1381
VGET
p1382
sVhttpVersion
p1383
VHTTP/1.1
p1384
ssVtimings
p1385
(dp1386
Vcomment
p1387
g4
sVreceive
p1388
I747
sVsend
p1389
I0
sVssl
p1390
I-1
sVconnect
p1391
I-1
sVdns
p1392
I-1
sVwait
p1393
I26
sVblocked
p1394
I-1
ssVtime
p1395
I774
sVresponse
p1396
(dp1397
Vstatus
p1398
I200
sVcomment
p1399
g4
sVcookies
p1400
(lp1401
sVstatusText
p1402
VOK
p1403
sVcontent
p1404
(dp1405
VmimeType
p1406
Vimage/gif
p1407
sVcomment
p1408
g4
sVsize
p1409
I0
ssVheaders
p1410
(lp1411
sVheadersSize
p1412
I496
sVredirectURL
p1413
g4
sVbodySize
p1414
I1578181
sVhttpVersion
p1415
VHTTP/1.1
p1416
ssa(dp1417
Vcomment
p1418
g4
sVserverIPAddress
p1419
V216.58.216.196
p1420
sVpageref
p1421
VSan Francisco Giants
p1422
sVstartedDateTime
p1423
V2017-04-16T08:27:13.943-05:00
p1424
sVcache
p1425
(dp1426
sVrequest
p1427
(dp1428
Vcomment
p1429
g4
sVcookies
p1430
(lp1431
sVurl
p1432
Vhttps://www.google.com/gen_204?s=web&atyp=csi&ei=K3HzWLSpNaW0jwSTqLmADg&imc=72&imn=72&imp=25&adh=&xjs=init.94.16.sb_mob.77.async.4.jsa.3.dvl.3.c.2&ima=11&rt=prt.1025,iml.1311,xjsls.1026,dcl.1195,qiml.1627,xjses.1485,xjsee.1845,xjs.1846,ol.4916,aft.1311,wsrt.205,cst.0,dnst.0,rqst.1094,rspt.1096,rqstt.82,unt.3,cstt.3,dit.1373
p1433
sVqueryString
p1434
(lp1435
(dp1436
Vname
p1437
g57
sVvalue
p1438
Vweb
p1439
sa(dp1440
Vname
p1441
Vatyp
p1442
sVvalue
p1443
Vcsi
p1444
sa(dp1445
Vname
p1446
Vei
p1447
sVvalue
p1448
VK3HzWLSpNaW0jwSTqLmADg
p1449
sa(dp1450
Vname
p1451
Vimc
p1452
sVvalue
p1453
V72
p1454
sa(dp1455
Vname
p1456
Vimn
p1457
sVvalue
p1458
V72
p1459
sa(dp1460
Vname
p1461
Vimp
p1462
sVvalue
p1463
V25
p1464
sa(dp1465
Vname
p1466
Vadh
p1467
sVvalue
p1468
g4
sa(dp1469
Vname
p1470
Vxjs
p1471
sVvalue
p1472
Vinit.94.16.sb_mob.77.async.4.jsa.3.dvl.3.c.2
p1473
sa(dp1474
Vname
p1475
Vima
p1476
sVvalue
p1477
V11
p1478
sa(dp1479
Vname
p1480
Vrt
p1481
sVvalue
p1482
Vprt.1025,iml.1311,xjsls.1026,dcl.1195,qiml.1627,xjses.1485,xjsee.1845,xjs.1846,ol.4916,aft.1311,wsrt.205,cst.0,dnst.0,rqst.1094,rspt.1096,rqstt.82,unt.3,cstt.3,dit.1373
p1483
sasVheaders
p1484
(lp1485
sVheadersSize
p1486
I842
sVbodySize
p1487
I0
sVmethod
p1488
VGET
p1489
sVhttpVersion
p1490
VHTTP/1.1
p1491
ssVtimings
p1492
(dp1493
Vcomment
p1494
g4
sVreceive
p1495
I0
sVsend
p1496
I0
sVssl
p1497
I-1
sVconnect
p1498
I-1
sVdns
p1499
I-1
sVwait
p1500
I29
sVblocked
p1501
I-1
ssVtime
p1502
I29
sVresponse
p1503
(dp1504
Vstatus
p1505
I204
sVcomment
p1506
g4
sVcookies
p1507
(lp1508
sVstatusText
p1509
VNo Content
p1510
sVcontent
p1511
(dp1512
VmimeType
p1513
Vtext/html; charset=UTF-8
p1514
sVcomment
p1515
g4
sVsize
p1516
I0
ssVheaders
p1517
(lp1518
sVheadersSize
p1519
I248
sVredirectURL
p1520
g4
sVbodySize
p1521
I0
sVhttpVersion
p1522
VHTTP/1.1
p1523
ssa(dp1524
Vcomment
p1525
g4
sVserverIPAddress
p1526
V216.58.216.196
p1527
sVpageref
p1528
VSan Francisco Giants
p1529
sVstartedDateTime
p1530
V2017-04-16T08:27:14.035-05:00
p1531
sVcache
p1532
(dp1533
sVrequest
p1534
(dp1535
Vcomment
p1536
g4
sVcookies
p1537
(lp1538
sVurl
p1539
Vhttps://www.google.com/async/log_amp_item_set?vet=10ahUKEwi5tKmOiqnTAhXs54MKHZyDAw0QooQBCAE..i&ei=K3HzWLSpNaW0jwSTqLmADg&yv=2&async=num_items:1,_fmt:jspb
p1540
sVqueryString
p1541
(lp1542
(dp1543
Vname
p1544
Vvet
p1545
sVvalue
p1546
V10ahUKEwi5tKmOiqnTAhXs54MKHZyDAw0QooQBCAE..i
p1547
sa(dp1548
Vname
p1549
Vei
p1550
sVvalue
p1551
VK3HzWLSpNaW0jwSTqLmADg
p1552
sa(dp1553
Vname
p1554
Vyv
p1555
sVvalue
p1556
g64
sa(dp1557
Vname
p1558
Vasync
p1559
sVvalue
p1560
Vnum_items:1,_fmt:jspb
p1561
sasVheaders
p1562
(lp1563
sVheadersSize
p1564
I670
sVbodySize
p1565
I0
sVmethod
p1566
VGET
p1567
sVhttpVersion
p1568
VHTTP/1.1
p1569
ssVtimings
p1570
(dp1571
Vcomment
p1572
g4
sVreceive
p1573
I1
sVsend
p1574
I0
sVssl
p1575
I-1
sVconnect
p1576
I-1
sVdns
p1577
I-1
sVwait
p1578
I38
sVblocked
p1579
I-1
ssVtime
p1580
I40
sVresponse
p1581
(dp1582
Vstatus
p1583
I200
sVcomment
p1584
g4
sVcookies
p1585
(lp1586
sVstatusText
p1587
VOK
p1588
sVcontent
p1589
(dp1590
VmimeType
p1591
Vapplication/json; charset=UTF-8
p1592
sVcomment
p1593
g4
sVsize
p1594
I0
ssVheaders
p1595
(lp1596
sVheadersSize
p1597
I417
sVredirectURL
p1598
g4
sVbodySize
p1599
I132
sVhttpVersion
p1600
VHTTP/1.1
p1601
ssa(dp1602
Vcomment
p1603
g4
sVserverIPAddress
p1604
V216.58.216.196
p1605
sVpageref
p1606
VSan Francisco Giants
p1607
sVstartedDateTime
p1608
V2017-04-16T08:27:14.100-05:00
p1609
sVcache
p1610
(dp1611
sVrequest
p1612
(dp1613
Vcomment
p1614
g4
sVcookies
p1615
(lp1616
sVurl
p1617
Vhttps://www.google.com/gen_204?atyp=i&ct=ampipf&cad=&ampve&ei=K3HzWLSpNaW0jwSTqLmADg&zx=1492349234035
p1618
sVqueryString
p1619
(lp1620
(dp1621
Vname
p1622
Vatyp
p1623
sVvalue
p1624
g30
sa(dp1625
Vname
p1626
Vct
p1627
sVvalue
p1628
Vampipf
p1629
sa(dp1630
Vname
p1631
Vcad
p1632
sVvalue
p1633
g4
sa(dp1634
Vname
p1635
Vampve
p1636
sVvalue
p1637
g4
sa(dp1638
Vname
p1639
Vei
p1640
sVvalue
p1641
VK3HzWLSpNaW0jwSTqLmADg
p1642
sa(dp1643
Vname
p1644
Vzx
p1645
sVvalue
p1646
V1492349234035
p1647
sasVheaders
p1648
(lp1649
sVheadersSize
p1650
I618
sVbodySize
p1651
I0
sVmethod
p1652
VGET
p1653
sVhttpVersion
p1654
VHTTP/1.1
p1655
ssVtimings
p1656
(dp1657
Vcomment
p1658
g4
sVreceive
p1659
I0
sVsend
p1660
I0
sVssl
p1661
I32
sVconnect
p1662
I51
sVdns
p1663
I0
sVwait
p1664
I37
sVblocked
p1665
I0
ssVtime
p1666
I90
sVresponse
p1667
(dp1668
Vstatus
p1669
I204
sVcomment
p1670
g4
sVcookies
p1671
(lp1672
sVstatusText
p1673
VNo Content
p1674
sVcontent
p1675
(dp1676
VmimeType
p1677
Vtext/html; charset=UTF-8
p1678
sVcomment
p1679
g4
sVsize
p1680
I0
ssVheaders
p1681
(lp1682
sVheadersSize
p1683
I248
sVredirectURL
p1684
g4
sVbodySize
p1685
I0
sVhttpVersion
p1686
VHTTP/1.1
p1687
ssa(dp1688
Vcomment
p1689
g4
sVserverIPAddress
p1690
V216.58.216.196
p1691
sVpageref
p1692
VSan Francisco Giants
p1693
sVstartedDateTime
p1694
V2017-04-16T08:27:14.108-05:00
p1695
sVcache
p1696
(dp1697
sVrequest
p1698
(dp1699
Vcomment
p1700
g4
sVcookies
p1701
(lp1702
sVurl
p1703
Vhttps://www.google.com/gen_204?atyp=i&ct=slh&cad=&ei=7XDzWKbUDoXLjwS6-KnoDw&m=V&t=C&s=1&v=2&pv=0.22458876654708204&me=1:1492349169069,x:2,V,0,0,1280,944:0,N,1,7XDzWKbUDoXLjwS6-KnoDw:0,R,1,24,8,155,1249,249:0,R,1,34,8,414,1249,261:0,R,1,35,8,414,1249,241:0,R,1,36,8,414,1249,90:0,R,1,51,8,685,1249,251:18,B,3805:20955,e,U&zx=1492349234053
p1704
sVqueryString
p1705
(lp1706
(dp1707
Vname
p1708
Vatyp
p1709
sVvalue
p1710
g30
sa(dp1711
Vname
p1712
Vct
p1713
sVvalue
p1714
Vslh
p1715
sa(dp1716
Vname
p1717
Vcad
p1718
sVvalue
p1719
g4
sa(dp1720
Vname
p1721
Vei
p1722
sVvalue
p1723
V7XDzWKbUDoXLjwS6-KnoDw
p1724
sa(dp1725
Vname
p1726
g47
sVvalue
p1727
g49
sa(dp1728
Vname
p1729
g52
sVvalue
p1730
g54
sa(dp1731
Vname
p1732
g57
sVvalue
p1733
g59
sa(dp1734
Vname
p1735
g62
sVvalue
p1736
g64
sa(dp1737
Vname
p1738
Vpv
p1739
sVvalue
p1740
V0.22458876654708204
p1741
sa(dp1742
Vname
p1743
Vme
p1744
sVvalue
p1745
V1:1492349169069,x:2,V,0,0,1280,944:0,N,1,7XDzWKbUDoXLjwS6-KnoDw:0,R,1,24,8,155,1249,249:0,R,1,34,8,414,1249,261:0,R,1,35,8,414,1249,241:0,R,1,36,8,414,1249,90:0,R,1,51,8,685,1249,251:18,B,3805:20955,e,U
p1746
sa(dp1747
Vname
p1748
Vzx
p1749
sVvalue
p1750
V1492349234053
p1751
sasVheaders
p1752
(lp1753
sVheadersSize
p1754
I854
sVbodySize
p1755
I0
sVmethod
p1756
VGET
p1757
sVhttpVersion
p1758
VHTTP/1.1
p1759
ssVtimings
p1760
(dp1761
Vcomment
p1762
g4
sVreceive
p1763
I0
sVsend
p1764
I0
sVssl
p1765
I31
sVconnect
p1766
I50
sVdns
p1767
I0
sVwait
p1768
I38
sVblocked
p1769
I0
ssVtime
p1770
I89
sVresponse
p1771
(dp1772
Vstatus
p1773
I204
sVcomment
p1774
g4
sVcookies
p1775
(lp1776
sVstatusText
p1777
VNo Content
p1778
sVcontent
p1779
(dp1780
VmimeType
p1781
Vtext/html; charset=UTF-8
p1782
sVcomment
p1783
g4
sVsize
p1784
I0
ssVheaders
p1785
(lp1786
sVheadersSize
p1787
I248
sVredirectURL
p1788
g4
sVbodySize
p1789
I0
sVhttpVersion
p1790
VHTTP/1.1
p1791
ssa(dp1792
Vcomment
p1793
g4
sVserverIPAddress
p1794
V172.217.0.1
p1795
sVpageref
p1796
VSan Francisco Giants
p1797
sVstartedDateTime
p1798
V2017-04-16T08:27:15.319-05:00
p1799
sVcache
p1800
(dp1801
sVrequest
p1802
(dp1803
Vcomment
p1804
g4
sVcookies
p1805
(lp1806
sVurl
p1807
Vhttps://syndication-bleacherreport-com.cdn.ampproject.org/v/s/syndication.bleacherreport.com/amp/san-francisco-giants?amp_js_v=9
p1808
sVqueryString
p1809
(lp1810
(dp1811
Vname
p1812
Vamp_js_v
p1813
sVvalue
p1814
V9
p1815
sasVheaders
p1816
(lp1817
sVheadersSize
p1818
I533
sVbodySize
p1819
I0
sVmethod
p1820
VGET
p1821
sVhttpVersion
p1822
VHTTP/1.1
p1823
ssVtimings
p1824
(dp1825
Vcomment
p1826
g4
sVreceive
p1827
I3
sVsend
p1828
I0
sVssl
p1829
I1187
sVconnect
p1830
I1230
sVdns
p1831
I36
sVwait
p1832
I89
sVblocked
p1833
I0
ssVtime
p1834
I1360
sVresponse
p1835
(dp1836
Vstatus
p1837
I200
sVcomment
p1838
g4
sVcookies
p1839
(lp1840
sVstatusText
p1841
VOK
p1842
sVcontent
p1843
(dp1844
VmimeType
p1845
Vtext/html
p1846
sVcomment
p1847
g4
sVsize
p1848
I0
ssVheaders
p1849
(lp1850
sVheadersSize
p1851
I860
sVredirectURL
p1852
g4
sVbodySize
p1853
I11322
sVhttpVersion
p1854
VHTTP/1.1
p1855
ssa(dp1856
Vcomment
p1857
g4
sVserverIPAddress
p1858
V172.217.0.1
p1859
sVpageref
p1860
VSan Francisco Giants
p1861
sVstartedDateTime
p1862
V2017-04-16T08:27:15.495-05:00
p1863
sVcache
p1864
(dp1865
sVrequest
p1866
(dp1867
Vcomment
p1868
g4
sVcookies
p1869
(lp1870
sVurl
p1871
Vhttps://syndication-bleacherreport-com.cdn.ampproject.org/r/s/syndication.bleacherreport.com/fonts/open-sans/regular.woff
p1872
sVqueryString
p1873
(lp1874
sVheaders
p1875
(lp1876
sVheadersSize
p1877
I595
sVbodySize
p1878
I0
sVmethod
p1879
VGET
p1880
sVhttpVersion
p1881
VHTTP/1.1
p1882
ssVtimings
p1883
(dp1884
Vcomment
p1885
g4
sVreceive
p1886
I11
sVsend
p1887
I1
sVssl
p1888
I-1
sVconnect
p1889
I-1
sVdns
p1890
I-1
sVwait
p1891
I19
sVblocked
p1892
I-1
ssVtime
p1893
I32
sVresponse
p1894
(dp1895
Vstatus
p1896
I200
sVcomment
p1897
g4
sVcookies
p1898
(lp1899
sVstatusText
p1900
VOK
p1901
sVcontent
p1902
(dp1903
VmimeType
p1904
Vapplication/font-woff
p1905
sVcomment
p1906
g4
sVsize
p1907
I0
ssVheaders
p1908
(lp1909
sVheadersSize
p1910
I864
sVredirectURL
p1911
g4
sVbodySize
p1912
I13988
sVhttpVersion
p1913
VHTTP/1.1
p1914
ssa(dp1915
Vcomment
p1916
g4
sVserverIPAddress
p1917
V172.217.0.1
p1918
sVpageref
p1919
VSan Francisco Giants
p1920
sVstartedDateTime
p1921
V2017-04-16T08:27:15.542-05:00
p1922
sVcache
p1923
(dp1924
sVrequest
p1925
(dp1926
Vcomment
p1927
g4
sVcookies
p1928
(lp1929
sVurl
p1930
Vhttps://syndication-bleacherreport-com.cdn.ampproject.org/r/s/syndication.bleacherreport.com/fonts/tungsten-medium/tungsten-medium-webfont.woff
p1931
sVqueryString
p1932
(lp1933
sVheaders
p1934
(lp1935
sVheadersSize
p1936
I617
sVbodySize
p1937
I0
sVmethod
p1938
VGET
p1939
sVhttpVersion
p1940
VHTTP/1.1
p1941
ssVtimings
p1942
(dp1943
Vcomment
p1944
g4
sVreceive
p1945
I6
sVsend
p1946
I0
sVssl
p1947
I33
sVconnect
p1948
I45
sVdns
p1949
I0
sVwait
p1950
I36
sVblocked
p1951
I0
ssVtime
p1952
I89
sVresponse
p1953
(dp1954
Vstatus
p1955
I200
sVcomment
p1956
g4
sVcookies
p1957
(lp1958
sVstatusText
p1959
VOK
p1960
sVcontent
p1961
(dp1962
VmimeType
p1963
Vapplication/font-woff
p1964
sVcomment
p1965
g4
sVsize
p1966
I0
ssVheaders
p1967
(lp1968
sVheadersSize
p1969
I864
sVredirectURL
p1970
g4
sVbodySize
p1971
I25456
sVhttpVersion
p1972
VHTTP/1.1
p1973
ssa(dp1974
Vcomment
p1975
g4
sVserverIPAddress
p1976
V172.217.0.1
p1977
sVpageref
p1978
VSan Francisco Giants
p1979
sVstartedDateTime
p1980
V2017-04-16T08:27:15.579-05:00
p1981
sVcache
p1982
(dp1983
sVrequest
p1984
(dp1985
Vcomment
p1986
g4
sVcookies
p1987
(lp1988
sVurl
p1989
Vhttps://syndication-bleacherreport-com.cdn.ampproject.org/r/s/syndication.bleacherreport.com/fonts/tungsten-book/Tungsten-Book.woff
p1990
sVqueryString
p1991
(lp1992
sVheaders
p1993
(lp1994
sVheadersSize
p1995
I605
sVbodySize
p1996
I0
sVmethod
p1997
VGET
p1998
sVhttpVersion
p1999
VHTTP/1.1
p2000
ssVtimings
p2001
(dp2002
Vcomment
p2003
g4
sVreceive
p2004
I24
sVsend
p2005
I0
sVssl
p2006
I55
sVconnect
p2007
I80
sVdns
p2008
I0
sVwait
p2009
I29
sVblocked
p2010
I0
ssVtime
p2011
I135
sVresponse
p2012
(dp2013
Vstatus
p2014
I200
sVcomment
p2015
g4
sVcookies
p2016
(lp2017
sVstatusText
p2018
VOK
p2019
sVcontent
p2020
(dp2021
VmimeType
p2022
Vapplication/font-woff
p2023
sVcomment
p2024
g4
sVsize
p2025
I0
ssVheaders
p2026
(lp2027
sVheadersSize
p2028
I864
sVredirectURL
p2029
g4
sVbodySize
p2030
I24364
sVhttpVersion
p2031
VHTTP/1.1
p2032
ssa(dp2033
Vcomment
p2034
g4
sVserverIPAddress
p2035
V172.217.0.1
p2036
sVpageref
p2037
VSan Francisco Giants
p2038
sVstartedDateTime
p2039
V2017-04-16T08:27:15.596-05:00
p2040
sVcache
p2041
(dp2042
sVrequest
p2043
(dp2044
Vcomment
p2045
g4
sVcookies
p2046
(lp2047
sVurl
p2048
Vhttps://syndication-bleacherreport-com.cdn.ampproject.org/r/s/syndication.bleacherreport.com/fonts/open-sans/semibold.woff
p2049
sVqueryString
p2050
(lp2051
sVheaders
p2052
(lp2053
sVheadersSize
p2054
I596
sVbodySize
p2055
I0
sVmethod
p2056
VGET
p2057
sVhttpVersion
p2058
VHTTP/1.1
p2059
ssVtimings
p2060
(dp2061
Vcomment
p2062
g4
sVreceive
p2063
I3
sVsend
p2064
I0
sVssl
p2065
I71
sVconnect
p2066
I95
sVdns
p2067
I0
sVwait
p2068
I25
sVblocked
p2069
I0
ssVtime
p2070
I124
sVresponse
p2071
(dp2072
Vstatus
p2073
I200
sVcomment
p2074
g4
sVcookies
p2075
(lp2076
sVstatusText
p2077
VOK
p2078
sVcontent
p2079
(dp2080
VmimeType
p2081
Vapplication/font-woff
p2082
sVcomment
p2083
g4
sVsize
p2084
I0
ssVheaders
p2085
(lp2086
sVheadersSize
p2087
I864
sVredirectURL
p2088
g4
sVbodySize
p2089
I14052
sVhttpVersion
p2090
VHTTP/1.1
p2091
ssa(dp2092
Vcomment
p2093
g4
sVserverIPAddress
p2094
V172.217.0.1
p2095
sVpageref
p2096
VSan Francisco Giants
p2097
sVstartedDateTime
p2098
V2017-04-16T08:27:15.938-05:00
p2099
sVcache
p2100
(dp2101
sVrequest
p2102
(dp2103
Vcomment
p2104
g4
sVcookies
p2105
(lp2106
sVurl
p2107
Vhttps://syndication-bleacherreport-com.cdn.ampproject.org/ii/w82/s/syndication.bleacherreport.com/images/br-logo-bw.png
p2108
sVqueryString
p2109
(lp2110
sVheaders
p2111
(lp2112
sVheadersSize
p2113
I539
sVbodySize
p2114
I0
sVmethod
p2115
VGET
p2116
sVhttpVersion
p2117
VHTTP/1.1
p2118
ssVtimings
p2119
(dp2120
Vcomment
p2121
g4
sVreceive
p2122
I0
sVsend
p2123
I0
sVssl
p2124
I-1
sVconnect
p2125
I-1
sVdns
p2126
I-1
sVwait
p2127
I40
sVblocked
p2128
I-1
ssVtime
p2129
I41
sVresponse
p2130
(dp2131
Vstatus
p2132
I200
sVcomment
p2133
g4
sVcookies
p2134
(lp2135
sVstatusText
p2136
VOK
p2137
sVcontent
p2138
(dp2139
VmimeType
p2140
Vimage/png
p2141
sVcomment
p2142
g4
sVsize
p2143
I0
ssVheaders
p2144
(lp2145
sVheadersSize
p2146
I818
sVredirectURL
p2147
g4
sVbodySize
p2148
I656
sVhttpVersion
p2149
VHTTP/1.1
p2150
ssa(dp2151
Vcomment
p2152
g4
sVserverIPAddress
p2153
V172.217.0.1
p2154
sVpageref
p2155
VSan Francisco Giants
p2156
sVstartedDateTime
p2157
V2017-04-16T08:27:15.938-05:00
p2158
sVcache
p2159
(dp2160
sVrequest
p2161
(dp2162
Vcomment
p2163
g4
sVcookies
p2164
(lp2165
sVurl
p2166
Vhttps://cdn-bleacherreport-net.cdn.ampproject.org/i/cdn.bleacherreport.net/images/team_logos/164x164/san_francisco_giants.png
p2167
sVqueryString
p2168
(lp2169
sVheaders
p2170
(lp2171
sVheadersSize
p2172
I545
sVbodySize
p2173
I0
sVmethod
p2174
VGET
p2175
sVhttpVersion
p2176
VHTTP/1.1
p2177
ssVtimings
p2178
(dp2179
Vcomment
p2180
g4
sVreceive
p2181
I0
sVsend
p2182
I0
sVssl
p2183
I402
sVconnect
p2184
I423
sVdns
p2185
I36
sVwait
p2186
I40
sVblocked
p2187
I0
ssVtime
p2188
I500
sVresponse
p2189
(dp2190
Vstatus
p2191
I200
sVcomment
p2192
g4
sVcookies
p2193
(lp2194
sVstatusText
p2195
VOK
p2196
sVcontent
p2197
(dp2198
VmimeType
p2199
Vimage/png
p2200
sVcomment
p2201
g4
sVsize
p2202
I0
ssVheaders
p2203
(lp2204
sVheadersSize
p2205
I821
sVredirectURL
p2206
g4
sVbodySize
p2207
I2624
sVhttpVersion
p2208
VHTTP/1.1
p2209
ssa(dp2210
Vcomment
p2211
g4
sVserverIPAddress
p2212
V172.217.0.1
p2213
sVpageref
p2214
VSan Francisco Giants
p2215
sVstartedDateTime
p2216
V2017-04-16T08:27:15.952-05:00
p2217
sVcache
p2218
(dp2219
sVrequest
p2220
(dp2221
Vcomment
p2222
g4
sVcookies
p2223
(lp2224
sVurl
p2225
Vhttps://cdn-bleacherreport-net.cdn.ampproject.org/i/cdn.bleacherreport.net/images/team_logos/164x164/san_diego_padres.png
p2226
sVqueryString
p2227
(lp2228
sVheaders
p2229
(lp2230
sVheadersSize
p2231
I541
sVbodySize
p2232
I0
sVmethod
p2233
VGET
p2234
sVhttpVersion
p2235
VHTTP/1.1
p2236
ssVtimings
p2237
(dp2238
Vcomment
p2239
g4
sVreceive
p2240
I0
sVsend
p2241
I0
sVssl
p2242
I414
sVconnect
p2243
I434
sVdns
p2244
I25
sVwait
p2245
I30
sVblocked
p2246
I0
ssVtime
p2247
I490
sVresponse
p2248
(dp2249
Vstatus
p2250
I200
sVcomment
p2251
g4
sVcookies
p2252
(lp2253
sVstatusText
p2254
VOK
p2255
sVcontent
p2256
(dp2257
VmimeType
p2258
Vimage/png
p2259
sVcomment
p2260
g4
sVsize
p2261
I0
ssVheaders
p2262
(lp2263
sVheadersSize
p2264
I821
sVredirectURL
p2265
g4
sVbodySize
p2266
I2637
sVhttpVersion
p2267
VHTTP/1.1
p2268
ssa(dp2269
Vcomment
p2270
g4
sVserverIPAddress
p2271
V172.217.0.1
p2272
sVpageref
p2273
VSan Francisco Giants
p2274
sVstartedDateTime
p2275
V2017-04-16T08:27:15.953-05:00
p2276
sVcache
p2277
(dp2278
sVrequest
p2279
(dp2280
Vcomment
p2281
g4
sVcookies
p2282
(lp2283
sVurl
p2284
Vhttps://syndication-bleacherreport-com.cdn.ampproject.org/ii/w47/s/syndication.bleacherreport.com/images/refresh.png
p2285
sVqueryString
p2286
(lp2287
sVheaders
p2288
(lp2289
sVheadersSize
p2290
I536
sVbodySize
p2291
I0
sVmethod
p2292
VGET
p2293
sVhttpVersion
p2294
VHTTP/1.1
p2295
ssVtimings
p2296
(dp2297
Vcomment
p2298
g4
sVreceive
p2299
I0
sVsend
p2300
I0
sVssl
p2301
I-1
sVconnect
p2302
I-1
sVdns
p2303
I-1
sVwait
p2304
I27
sVblocked
p2305
I-1
ssVtime
p2306
I28
sVresponse
p2307
(dp2308
Vstatus
p2309
I200
sVcomment
p2310
g4
sVcookies
p2311
(lp2312
sVstatusText
p2313
VOK
p2314
sVcontent
p2315
(dp2316
VmimeType
p2317
Vimage/png
p2318
sVcomment
p2319
g4
sVsize
p2320
I0
ssVheaders
p2321
(lp2322
sVheadersSize
p2323
I819
sVredirectURL
p2324
g4
sVbodySize
p2325
I1267
sVhttpVersion
p2326
VHTTP/1.1
p2327
ssa(dp2328
Vcomment
p2329
g4
sVserverIPAddress
p2330
V172.217.0.1
p2331
sVpageref
p2332
VSan Francisco Giants
p2333
sVstartedDateTime
p2334
V2017-04-16T08:27:15.954-05:00
p2335
sVcache
p2336
(dp2337
sVrequest
p2338
(dp2339
Vcomment
p2340
g4
sVcookies
p2341
(lp2342
sVurl
p2343
Vhttps://cdn-bleacherreport-net.cdn.ampproject.org/i/cdn.bleacherreport.net/images/team_logos/164x164/colorado_rockies.png
p2344
sVqueryString
p2345
(lp2346
sVheaders
p2347
(lp2348
sVheadersSize
p2349
I541
sVbodySize
p2350
I0
sVmethod
p2351
VGET
p2352
sVhttpVersion
p2353
VHTTP/1.1
p2354
ssVtimings
p2355
(dp2356
Vcomment
p2357
g4
sVreceive
p2358
I0
sVsend
p2359
I0
sVssl
p2360
I421
sVconnect
p2361
I441
sVdns
p2362
I34
sVwait
p2363
I27
sVblocked
p2364
I0
ssVtime
p2365
I503
sVresponse
p2366
(dp2367
Vstatus
p2368
I200
sVcomment
p2369
g4
sVcookies
p2370
(lp2371
sVstatusText
p2372
VOK
p2373
sVcontent
p2374
(dp2375
VmimeType
p2376
Vimage/png
p2377
sVcomment
p2378
g4
sVsize
p2379
I0
ssVheaders
p2380
(lp2381
sVheadersSize
p2382
I821
sVredirectURL
p2383
g4
sVbodySize
p2384
I4969
sVhttpVersion
p2385
VHTTP/1.1
p2386
ssa(dp2387
Vcomment
p2388
g4
sVserverIPAddress
p2389
V172.217.0.1
p2390
sVpageref
p2391
VSan Francisco Giants
p2392
sVstartedDateTime
p2393
V2017-04-16T08:27:15.956-05:00
p2394
sVcache
p2395
(dp2396
sVrequest
p2397
(dp2398
Vcomment
p2399
g4
sVcookies
p2400
(lp2401
sVurl
p2402
Vhttps://cdn-bleacherreport-net.cdn.ampproject.org/i/cdn.bleacherreport.net/images/team_logos/164x164/arizona_diamondbacks.png
p2403
sVqueryString
p2404
(lp2405
sVheaders
p2406
(lp2407
sVheadersSize
p2408
I545
sVbodySize
p2409
I0
sVmethod
p2410
VGET
p2411
sVhttpVersion
p2412
VHTTP/1.1
p2413
ssVtimings
p2414
(dp2415
Vcomment
p2416
g4
sVreceive
p2417
I0
sVsend
p2418
I0
sVssl
p2419
I424
sVconnect
p2420
I445
sVdns
p2421
I27
sVwait
p2422
I51
sVblocked
p2423
I0
ssVtime
p2424
I525
sVresponse
p2425
(dp2426
Vstatus
p2427
I200
sVcomment
p2428
g4
sVcookies
p2429
(lp2430
sVstatusText
p2431
VOK
p2432
sVcontent
p2433
(dp2434
VmimeType
p2435
Vimage/png
p2436
sVcomment
p2437
g4
sVsize
p2438
I0
ssVheaders
p2439
(lp2440
sVheadersSize
p2441
I821
sVredirectURL
p2442
g4
sVbodySize
p2443
I4130
sVhttpVersion
p2444
VHTTP/1.1
p2445
ssa(dp2446
Vcomment
p2447
g4
sVserverIPAddress
p2448
V172.217.0.1
p2449
sVpageref
p2450
VSan Francisco Giants
p2451
sVstartedDateTime
p2452
V2017-04-16T08:27:16.025-05:00
p2453
sVcache
p2454
(dp2455
sVrequest
p2456
(dp2457
Vcomment
p2458
g4
sVcookies
p2459
(lp2460
sVurl
p2461
Vhttps://cdn-bleacherreport-net.cdn.ampproject.org/ii/w150/cdn.bleacherreport.net/images/team_logos/150x150/san_francisco_giants.png
p2462
sVqueryString
p2463
(lp2464
sVheaders
p2465
(lp2466
sVheadersSize
p2467
I551
sVbodySize
p2468
I0
sVmethod
p2469
VGET
p2470
sVhttpVersion
p2471
VHTTP/1.1
p2472
ssVtimings
p2473
(dp2474
Vcomment
p2475
g4
sVreceive
p2476
I0
sVsend
p2477
I0
sVssl
p2478
I24
sVconnect
p2479
I64
sVdns
p2480
I0
sVwait
p2481
I50
sVblocked
p2482
I0
ssVtime
p2483
I115
sVresponse
p2484
(dp2485
Vstatus
p2486
I200
sVcomment
p2487
g4
sVcookies
p2488
(lp2489
sVstatusText
p2490
VOK
p2491
sVcontent
p2492
(dp2493
VmimeType
p2494
Vimage/png
p2495
sVcomment
p2496
g4
sVsize
p2497
I0
ssVheaders
p2498
(lp2499
sVheadersSize
p2500
I821
sVredirectURL
p2501
g4
sVbodySize
p2502
I1233
sVhttpVersion
p2503
VHTTP/1.1
p2504
ssa(dp2505
Vcomment
p2506
g4
sVserverIPAddress
p2507
V172.217.0.1
p2508
sVpageref
p2509
VSan Francisco Giants
p2510
sVstartedDateTime
p2511
V2017-04-16T08:27:16.609-05:00
p2512
sVcache
p2513
(dp2514
sVrequest
p2515
(dp2516
Vcomment
p2517
g4
sVcookies
p2518
(lp2519
sVurl
p2520
Vhttps://img-bleacherreport-net.cdn.ampproject.org/i/s/img.bleacherreport.net/cms/media/image/ba/b8/b9/18/30b7/4a83/9706/da14b9eaf234/crop_exact_668928674.jpg?h=396&q=90&w=594
p2521
sVqueryString
p2522
(lp2523
(dp2524
Vname
p2525
Vh
p2526
sVvalue
p2527
V396
p2528
sa(dp2529
Vname
p2530
g578
sVvalue
p2531
V90
p2532
sa(dp2533
Vname
p2534
Vw
p2535
sVvalue
p2536
V594
p2537
sasVheaders
p2538
(lp2539
sVheadersSize
p2540
I594
sVbodySize
p2541
I0
sVmethod
p2542
VGET
p2543
sVhttpVersion
p2544
VHTTP/1.1
p2545
ssVtimings
p2546
(dp2547
Vcomment
p2548
g4
sVreceive
p2549
I65
sVsend
p2550
I0
sVssl
p2551
I557
sVconnect
p2552
I585
sVdns
p2553
I55
sVwait
p2554
I34
sVblocked
p2555
I0
ssVtime
p2556
I740
sVresponse
p2557
(dp2558
Vstatus
p2559
I200
sVcomment
p2560
g4
sVcookies
p2561
(lp2562
sVstatusText
p2563
VOK
p2564
sVcontent
p2565
(dp2566
VmimeType
p2567
Vimage/jpeg
p2568
sVcomment
p2569
g4
sVsize
p2570
I0
ssVheaders
p2571
(lp2572
sVheadersSize
p2573
I848
sVredirectURL
p2574
g4
sVbodySize
p2575
I37143
sVhttpVersion
p2576
VHTTP/1.1
p2577
ssa(dp2578
Vcomment
p2579
g4
sVserverIPAddress
p2580
V172.217.0.1
p2581
sVpageref
p2582
VSan Francisco Giants
p2583
sVstartedDateTime
p2584
V2017-04-16T08:27:16.614-05:00
p2585
sVcache
p2586
(dp2587
sVrequest
p2588
(dp2589
Vcomment
p2590
g4
sVcookies
p2591
(lp2592
sVurl
p2593
Vhttps://img-bleacherreport-net.cdn.ampproject.org/i/s/img.bleacherreport.net/cms/media/image/e0/a7/1f/41/076d/4628/b1f8/78ad6a425494/crop_exact_preview.jpg?h=342&q=90&w=512
p2594
sVqueryString
p2595
(lp2596
(dp2597
Vname
p2598
g2526
sVvalue
p2599
V342
p2600
sa(dp2601
Vname
p2602
g578
sVvalue
p2603
V90
p2604
sa(dp2605
Vname
p2606
g2535
sVvalue
p2607
V512
p2608
sasVheaders
p2609
(lp2610
sVheadersSize
p2611
I592
sVbodySize
p2612
I0
sVmethod
p2613
VGET
p2614
sVhttpVersion
p2615
VHTTP/1.1
p2616
ssVtimings
p2617
(dp2618
Vcomment
p2619
g4
sVreceive
p2620
I17
sVsend
p2621
I0
sVssl
p2622
I565
sVconnect
p2623
I595
sVdns
p2624
I55
sVwait
p2625
I25
sVblocked
p2626
I0
ssVtime
p2627
I693
sVresponse
p2628
(dp2629
Vstatus
p2630
I200
sVcomment
p2631
g4
sVcookies
p2632
(lp2633
sVstatusText
p2634
VOK
p2635
sVcontent
p2636
(dp2637
VmimeType
p2638
Vimage/jpeg
p2639
sVcomment
p2640
g4
sVsize
p2641
I0
ssVheaders
p2642
(lp2643
sVheadersSize
p2644
I848
sVredirectURL
p2645
g4
sVbodySize
p2646
I38799
sVhttpVersion
p2647
VHTTP/1.1
p2648
ssa(dp2649
Vcomment
p2650
g4
sVserverIPAddress
p2651
V172.217.0.1
p2652
sVpageref
p2653
VSan Francisco Giants
p2654
sVstartedDateTime
p2655
V2017-04-16T08:27:16.616-05:00
p2656
sVcache
p2657
(dp2658
sVrequest
p2659
(dp2660
Vcomment
p2661
g4
sVcookies
p2662
(lp2663
sVurl
p2664
Vhttps://img-bleacherreport-net.cdn.ampproject.org/i/s/img.bleacherreport.net/cms/media/image/98/bc/78/ed/382a/4cee/95a9/f62966be5a3f/crop_exact_Rob.jpg?h=2615&q=90&w=3889
p2665
sVqueryString
p2666
(lp2667
(dp2668
Vname
p2669
g2526
sVvalue
p2670
V2615
p2671
sa(dp2672
Vname
p2673
g578
sVvalue
p2674
V90
p2675
sa(dp2676
Vname
p2677
g2535
sVvalue
p2678
V3889
p2679
sasVheaders
p2680
(lp2681
sVheadersSize
p2682
I590
sVbodySize
p2683
I0
sVmethod
p2684
VGET
p2685
sVhttpVersion
p2686
VHTTP/1.1
p2687
ssVtimings
p2688
(dp2689
Vcomment
p2690
g4
sVreceive
p2691
I88
sVsend
p2692
I0
sVssl
p2693
I569
sVconnect
p2694
I600
sVdns
p2695
I53
sVwait
p2696
I31
sVblocked
p2697
I0
ssVtime
p2698
I773
sVresponse
p2699
(dp2700
Vstatus
p2701
I200
sVcomment
p2702
g4
sVcookies
p2703
(lp2704
sVstatusText
p2705
VOK
p2706
sVcontent
p2707
(dp2708
VmimeType
p2709
Vimage/jpeg
p2710
sVcomment
p2711
g4
sVsize
p2712
I0
ssVheaders
p2713
(lp2714
sVheadersSize
p2715
I848
sVredirectURL
p2716
g4
sVbodySize
p2717
I82567
sVhttpVersion
p2718
VHTTP/1.1
p2719
ssasVversion
p2720
V1.2
p2721
sVpages
p2722
(lp2723
(dp2724
VpageTimings
p2725
(dp2726
Vcomment
p2727
g4
ssVcomment
p2728
g4
sVtitle
p2729
VSan Francisco Giants
p2730
sVid
p2731
VSan Francisco Giants
p2732
sVstartedDateTime
p2733
V2017-04-16T08:27:07.856-05:00
p2734
sasVcreator
p2735
(dp2736
Vcomment
p2737
g4
sVversion
p2738
V2.1.4
p2739
sVname
p2740
VBrowserMob Proxy
p2741
sss.