(dp0
Vlog
p1
(dp2
Vcomment
p3
V
p4
sVentries
p5
(lp6
(dp7
Vcomment
p8
g4
sVserverIPAddress
p9
V172.217.6.4
p10
sVpageref
p11
VDraymond Green
p12
sVstartedDateTime
p13
V2017-04-16T08:29:15.642-05:00
p14
sVcache
p15
(dp16
sVrequest
p17
(dp18
Vcomment
p19
g4
sVcookies
p20
(lp21
sVurl
p22
Vhttps://www.google.com/gen_204?atyp=i&ct=slh&cad=&ei=nXHzWIKbPKXSjwSo65mwDg&m=V&t=C&s=1&v=2&pv=0.9959760588225225&me=1:1492349344537,x:1,V,0,0,1280,944:0,N,1,nXHzWIKbPKXSjwSo65mwDg:0,R,1,24,8,155,1249,579:0,R,1,28,8,268,1249,332:0,R,1,29,0,269,1265,351:0,R,1,60,8,600,1249,134:0,R,1,91,8,744,1249,409:0,R,1,92,8,744,1249,409:0,R,1,95,8,757,1249,40:0,R,1,108,8,809,1249,170:0,R,1,111,0,825,1265,189:2,B,3148:11100,e,U&zx=1492349355641
p23
sVqueryString
p24
(lp25
(dp26
Vname
p27
Vatyp
p28
sVvalue
p29
Vi
p30
sa(dp31
Vname
p32
Vct
p33
sVvalue
p34
Vslh
p35
sa(dp36
Vname
p37
Vcad
p38
sVvalue
p39
g4
sa(dp40
Vname
p41
Vei
p42
sVvalue
p43
VnXHzWIKbPKXSjwSo65mwDg
p44
sa(dp45
Vname
p46
Vm
p47
sVvalue
p48
VV
p49
sa(dp50
Vname
p51
Vt
p52
sVvalue
p53
VC
p54
sa(dp55
Vname
p56
Vs
p57
sVvalue
p58
V1
p59
sa(dp60
Vname
p61
Vv
p62
sVvalue
p63
V2
p64
sa(dp65
Vname
p66
Vpv
p67
sVvalue
p68
V0.9959760588225225
p69
sa(dp70
Vname
p71
Vme
p72
sVvalue
p73
V1:1492349344537,x:1,V,0,0,1280,944:0,N,1,nXHzWIKbPKXSjwSo65mwDg:0,R,1,24,8,155,1249,579:0,R,1,28,8,268,1249,332:0,R,1,29,0,269,1265,351:0,R,1,60,8,600,1249,134:0,R,1,91,8,744,1249,409:0,R,1,92,8,744,1249,409:0,R,1,95,8,757,1249,40:0,R,1,108,8,809,1249,170:0,R,1,111,0,825,1265,189:2,B,3148:11100,e,U
p74
sa(dp75
Vname
p76
Vzx
p77
sVvalue
p78
V1492349355641
p79
sasVheaders
p80
(lp81
sVheadersSize
p82
I950
sVbodySize
p83
I0
sVmethod
p84
VGET
p85
sVhttpVersion
p86
VHTTP/1.1
p87
ssVtimings
p88
(dp89
Vcomment
p90
g4
sVreceive
p91
I0
sVsend
p92
I0
sVssl
p93
I-1
sVconnect
p94
I-1
sVdns
p95
I-1
sVwait
p96
I0
sVblocked
p97
I-1
ssVtime
p98
I0
sVresponse
p99
(dp100
Vstatus
p101
I0
sVcomment
p102
g4
sVcookies
p103
(lp104
sV_error
p105
VNo response received
p106
sVstatusText
p107
g4
sVcontent
p108
(dp109
VmimeType
p110
g4
sVcomment
p111
g4
sVsize
p112
I0
ssVheaders
p113
(lp114
sVheadersSize
p115
I-1
sVredirectURL
p116
g4
sVbodySize
p117
I-1
sVhttpVersion
p118
Vunknown
p119
ssa(dp120
Vcomment
p121
g4
sVserverIPAddress
p122
V172.217.6.4
p123
sVpageref
p124
VDraymond Green
p125
sVstartedDateTime
p126
V2017-04-16T08:29:15.643-05:00
p127
sVcache
p128
(dp129
sVrequest
p130
(dp131
Vcomment
p132
g4
sVcookies
p133
(lp134
sVurl
p135
Vhttps://www.google.com/gen_204?atyp=i&ct=slh&cad=&ei=eXHzWOnfM4LejwSdqJiwBA&m=V&t=C&s=1&v=2&pv=0.9222008428454901&me=1:1492349308454,x:6,V,0,0,1280,944:0,N,1,eXHzWOnfM4LejwSdqJiwBA:0,R,1,24,8,155,1249,251:0,R,1,34,8,416,1249,615:0,R,1,35,8,416,1249,615:0,R,1,38,8,429,1249,40:0,R,1,51,8,481,1249,146:0,R,1,54,0,497,1265,165:0,R,1,94,8,644,1249,20:0,R,1,95,24,644,1217,20:0,R,1,101,8,680,1249,20:0,R,1,103,8,708,1249,20:2,B,3857:13665,e,U&zx=1492349355642
p136
sVqueryString
p137
(lp138
(dp139
Vname
p140
Vatyp
p141
sVvalue
p142
g30
sa(dp143
Vname
p144
Vct
p145
sVvalue
p146
Vslh
p147
sa(dp148
Vname
p149
Vcad
p150
sVvalue
p151
g4
sa(dp152
Vname
p153
Vei
p154
sVvalue
p155
VeXHzWOnfM4LejwSdqJiwBA
p156
sa(dp157
Vname
p158
g47
sVvalue
p159
g49
sa(dp160
Vname
p161
g52
sVvalue
p162
g54
sa(dp163
Vname
p164
g57
sVvalue
p165
g59
sa(dp166
Vname
p167
g62
sVvalue
p168
g64
sa(dp169
Vname
p170
Vpv
p171
sVvalue
p172
V0.9222008428454901
p173
sa(dp174
Vname
p175
Vme
p176
sVvalue
p177
V1:1492349308454,x:6,V,0,0,1280,944:0,N,1,eXHzWOnfM4LejwSdqJiwBA:0,R,1,24,8,155,1249,251:0,R,1,34,8,416,1249,615:0,R,1,35,8,416,1249,615:0,R,1,38,8,429,1249,40:0,R,1,51,8,481,1249,146:0,R,1,54,0,497,1265,165:0,R,1,94,8,644,1249,20:0,R,1,95,24,644,1217,20:0,R,1,101,8,680,1249,20:0,R,1,103,8,708,1249,20:2,B,3857:13665,e,U
p178
sa(dp179
Vname
p180
Vzx
p181
sVvalue
p182
V1492349355642
p183
sasVheaders
p184
(lp185
sVheadersSize
p186
I971
sVbodySize
p187
I0
sVmethod
p188
VGET
p189
sVhttpVersion
p190
VHTTP/1.1
p191
ssVtimings
p192
(dp193
Vcomment
p194
g4
sVreceive
p195
I0
sVsend
p196
I0
sVssl
p197
I-1
sVconnect
p198
I-1
sVdns
p199
I-1
sVwait
p200
I0
sVblocked
p201
I-1
ssVtime
p202
I0
sVresponse
p203
(dp204
Vstatus
p205
I0
sVcomment
p206
g4
sVcookies
p207
(lp208
sV_error
p209
VNo response received
p210
sVstatusText
p211
g4
sVcontent
p212
(dp213
VmimeType
p214
g4
sVcomment
p215
g4
sVsize
p216
I0
ssVheaders
p217
(lp218
sVheadersSize
p219
I-1
sVredirectURL
p220
g4
sVbodySize
p221
I-1
sVhttpVersion
p222
Vunknown
p223
ssa(dp224
Vcomment
p225
g4
sVserverIPAddress
p226
V172.217.6.4
p227
sVpageref
p228
VDraymond Green
p229
sVstartedDateTime
p230
V2017-04-16T08:29:15.643-05:00
p231
sVcache
p232
(dp233
sVrequest
p234
(dp235
Vcomment
p236
g4
sVcookies
p237
(lp238
sVurl
p239
Vhttps://www.google.com/gen_204?atyp=i&ct=slh&cad=&ei=iXHzWNK2MYmcjwTlprX4Bw&m=V&t=C&s=1&v=2&pv=0.26723701262739796&me=1:1492349325116,x:3,V,0,0,1280,944:0,N,1,iXHzWNK2MYmcjwTlprX4Bw:0,R,1,24,8,155,1249,647:0,R,1,25,8,155,1249,647:0,R,1,28,8,168,1249,40:0,R,1,41,8,220,1249,178:0,R,1,44,0,236,1265,197:0,R,1,84,8,415,1249,20:0,R,1,85,24,415,1217,20:0,R,1,93,8,451,1249,20:0,R,1,96,8,479,1249,20:0,R,1,145,24,812,1217,115:6,B,3405:17314,e,U&zx=1492349355642
p240
sVqueryString
p241
(lp242
(dp243
Vname
p244
Vatyp
p245
sVvalue
p246
g30
sa(dp247
Vname
p248
Vct
p249
sVvalue
p250
Vslh
p251
sa(dp252
Vname
p253
Vcad
p254
sVvalue
p255
g4
sa(dp256
Vname
p257
Vei
p258
sVvalue
p259
ViXHzWNK2MYmcjwTlprX4Bw
p260
sa(dp261
Vname
p262
g47
sVvalue
p263
g49
sa(dp264
Vname
p265
g52
sVvalue
p266
g54
sa(dp267
Vname
p268
g57
sVvalue
p269
g59
sa(dp270
Vname
p271
g62
sVvalue
p272
g64
sa(dp273
Vname
p274
Vpv
p275
sVvalue
p276
V0.26723701262739796
p277
sa(dp278
Vname
p279
Vme
p280
sVvalue
p281
V1:1492349325116,x:3,V,0,0,1280,944:0,N,1,iXHzWNK2MYmcjwTlprX4Bw:0,R,1,24,8,155,1249,647:0,R,1,25,8,155,1249,647:0,R,1,28,8,168,1249,40:0,R,1,41,8,220,1249,178:0,R,1,44,0,236,1265,197:0,R,1,84,8,415,1249,20:0,R,1,85,24,415,1217,20:0,R,1,93,8,451,1249,20:0,R,1,96,8,479,1249,20:0,R,1,145,24,812,1217,115:6,B,3405:17314,e,U
p282
sa(dp283
Vname
p284
Vzx
p285
sVvalue
p286
V1492349355642
p287
sasVheaders
p288
(lp289
sVheadersSize
p290
I972
sVbodySize
p291
I0
sVmethod
p292
VGET
p293
sVhttpVersion
p294
VHTTP/1.1
p295
ssVtimings
p296
(dp297
Vcomment
p298
g4
sVreceive
p299
I0
sVsend
p300
I0
sVssl
p301
I-1
sVconnect
p302
I-1
sVdns
p303
I-1
sVwait
p304
I0
sVblocked
p305
I-1
ssVtime
p306
I0
sVresponse
p307
(dp308
Vstatus
p309
I0
sVcomment
p310
g4
sVcookies
p311
(lp312
sV_error
p313
VNo response received
p314
sVstatusText
p315
g4
sVcontent
p316
(dp317
VmimeType
p318
g4
sVcomment
p319
g4
sVsize
p320
I0
ssVheaders
p321
(lp322
sVheadersSize
p323
I-1
sVredirectURL
p324
g4
sVbodySize
p325
I-1
sVhttpVersion
p326
Vunknown
p327
ssa(dp328
Vcomment
p329
g4
sVserverIPAddress
p330
V172.217.6.4
p331
sVpageref
p332
VDraymond Green
p333
sVstartedDateTime
p334
V2017-04-16T08:29:15.644-05:00
p335
sVcache
p336
(dp337
sVrequest
p338
(dp339
Vcomment
p340
g4
sVcookies
p341
(lp342
sVurl
p343
Vhttps://www.google.com/gen_204?atyp=i&ct=slh&cad=&ei=BXHzWIP8Meq-jwTI64z4DQ&m=V&t=C&s=1&v=2&pv=0.8802857241403822&me=1:1492349192964,x:2,V,0,0,1280,944:0,N,1,BXHzWIP8Meq-jwTI64z4DQ:0,R,1,24,8,155,1249,281:0,R,1,25,8,155,1249,261:0,R,1,26,8,155,1249,261:0,R,1,27,8,155,1249,110:0,R,1,42,8,446,1249,251:0,R,1,52,8,707,1249,301:0,R,1,53,8,707,1249,301:0,R,1,57,1142,707,115,107:0,R,1,66,8,741,1134,40:0,R,1,78,8,831,1249,40:0,R,1,79,24,831,1217,40:0,R,1,82,8,887,1249,20:0,R,1,84,8,915,1249,20:1,B,3492:19394,e,U&zx=1492349355642
p344
sVqueryString
p345
(lp346
(dp347
Vname
p348
Vatyp
p349
sVvalue
p350
g30
sa(dp351
Vname
p352
Vct
p353
sVvalue
p354
Vslh
p355
sa(dp356
Vname
p357
Vcad
p358
sVvalue
p359
g4
sa(dp360
Vname
p361
Vei
p362
sVvalue
p363
VBXHzWIP8Meq-jwTI64z4DQ
p364
sa(dp365
Vname
p366
g47
sVvalue
p367
g49
sa(dp368
Vname
p369
g52
sVvalue
p370
g54
sa(dp371
Vname
p372
g57
sVvalue
p373
g59
sa(dp374
Vname
p375
g62
sVvalue
p376
g64
sa(dp377
Vname
p378
Vpv
p379
sVvalue
p380
V0.8802857241403822
p381
sa(dp382
Vname
p383
Vme
p384
sVvalue
p385
V1:1492349192964,x:2,V,0,0,1280,944:0,N,1,BXHzWIP8Meq-jwTI64z4DQ:0,R,1,24,8,155,1249,281:0,R,1,25,8,155,1249,261:0,R,1,26,8,155,1249,261:0,R,1,27,8,155,1249,110:0,R,1,42,8,446,1249,251:0,R,1,52,8,707,1249,301:0,R,1,53,8,707,1249,301:0,R,1,57,1142,707,115,107:0,R,1,66,8,741,1134,40:0,R,1,78,8,831,1249,40:0,R,1,79,24,831,1217,40:0,R,1,82,8,887,1249,20:0,R,1,84,8,915,1249,20:1,B,3492:19394,e,U
p386
sa(dp387
Vname
p388
Vzx
p389
sVvalue
p390
V1492349355642
p391
sasVheaders
p392
(lp393
sVheadersSize
p394
I1043
sVbodySize
p395
I0
sVmethod
p396
VGET
p397
sVhttpVersion
p398
VHTTP/1.1
p399
ssVtimings
p400
(dp401
Vcomment
p402
g4
sVreceive
p403
I0
sVsend
p404
I0
sVssl
p405
I-1
sVconnect
p406
I-1
sVdns
p407
I-1
sVwait
p408
I0
sVblocked
p409
I-1
ssVtime
p410
I0
sVresponse
p411
(dp412
Vstatus
p413
I0
sVcomment
p414
g4
sVcookies
p415
(lp416
sV_error
p417
VNo response received
p418
sVstatusText
p419
g4
sVcontent
p420
(dp421
VmimeType
p422
g4
sVcomment
p423
g4
sVsize
p424
I0
ssVheaders
p425
(lp426
sVheadersSize
p427
I-1
sVredirectURL
p428
g4
sVbodySize
p429
I-1
sVhttpVersion
p430
Vunknown
p431
ssa(dp432
Vcomment
p433
g4
sVserverIPAddress
p434
V172.217.6.4
p435
sVpageref
p436
VDraymond Green
p437
sVstartedDateTime
p438
V2017-04-16T08:29:15.649-05:00
p439
sVcache
p440
(dp441
sVrequest
p442
(dp443
Vcomment
p444
g4
sVcookies
p445
(lp446
sVurl
p447
Vhttp://www.google.com/
p448
sVqueryString
p449
(lp450
sVheaders
p451
(lp452
sVheadersSize
p453
I613
sVbodySize
p454
I0
sVmethod
p455
VGET
p456
sVhttpVersion
p457
VHTTP/1.1
p458
ssVtimings
p459
(dp460
Vcomment
p461
g4
sVreceive
p462
I0
sVsend
p463
I0
sVssl
p464
I-1
sVconnect
p465
I-1
sVdns
p466
I-1
sVwait
p467
I37
sVblocked
p468
I-1
ssVtime
p469
I38
sVresponse
p470
(dp471
Vstatus
p472
I302
sVcomment
p473
g4
sVcookies
p474
(lp475
sVstatusText
p476
VFound
p477
sVcontent
p478
(dp479
VmimeType
p480
Vtext/html; charset=UTF-8
p481
sVcomment
p482
g4
sVsize
p483
I0
ssVheaders
p484
(lp485
sVheadersSize
p486
I609
sVredirectURL
p487
Vhttps://www.google.com/?gws_rd=ssl
p488
sVbodySize
p489
I231
sVhttpVersion
p490
VHTTP/1.1
p491
ssa(dp492
Vcomment
p493
g4
sVserverIPAddress
p494
V172.217.6.4
p495
sVpageref
p496
VDraymond Green
p497
sVstartedDateTime
p498
V2017-04-16T08:29:15.693-05:00
p499
sVcache
p500
(dp501
sVrequest
p502
(dp503
Vcomment
p504
g4
sVcookies
p505
(lp506
sVurl
p507
Vhttps://www.google.com/?gws_rd=ssl
p508
sVqueryString
p509
(lp510
(dp511
Vname
p512
Vgws_rd
p513
sVvalue
p514
Vssl
p515
sasVheaders
p516
(lp517
sVheadersSize
p518
I607
sVbodySize
p519
I0
sVmethod
p520
VGET
p521
sVhttpVersion
p522
VHTTP/1.1
p523
ssVtimings
p524
(dp525
Vcomment
p526
g4
sVreceive
p527
I68
sVsend
p528
I0
sVssl
p529
I-1
sVconnect
p530
I-1
sVdns
p531
I-1
sVwait
p532
I71
sVblocked
p533
I-1
ssVtime
p534
I140
sVresponse
p535
(dp536
Vstatus
p537
I200
sVcomment
p538
g4
sVcookies
p539
(lp540
sVstatusText
p541
VOK
p542
sVcontent
p543
(dp544
VmimeType
p545
Vtext/html; charset=UTF-8
p546
sVcomment
p547
g4
sVsize
p548
I0
ssVheaders
p549
(lp550
sVheadersSize
p551
I721
sVredirectURL
p552
g4
sVbodySize
p553
I34291
sVhttpVersion
p554
VHTTP/1.1
p555
ssa(dp556
Vcomment
p557
g4
sVserverIPAddress
p558
V172.217.6.4
p559
sVpageref
p560
VDraymond Green
p561
sVstartedDateTime
p562
V2017-04-16T08:29:16.029-05:00
p563
sVcache
p564
(dp565
sVrequest
p566
(dp567
Vcomment
p568
g4
sVcookies
p569
(lp570
sVurl
p571
Vhttps://www.google.com/gen_204?s=mobilewebhp&atyp=csi&ei=qnHzWJaIKsiKjwSn5IWgCA&imc=1&imn=1&imp=0&adh=&xjs=init.24.12.sb_mob.18.dvl.3.c.1.jsa.1.mbsf.1&ima=1&rt=xjsls.44,prt.45,iml.45,dcl.83,xjses.103,xjsee.192,xjs.193,ol.244,aft.45,wsrt.140,cst.0,dnst.0,rqst.143,rspt.71,rqstt.52,unt.48,cstt.48,dit.214
p572
sVqueryString
p573
(lp574
(dp575
Vname
p576
g57
sVvalue
p577
Vmobilewebhp
p578
sa(dp579
Vname
p580
Vatyp
p581
sVvalue
p582
Vcsi
p583
sa(dp584
Vname
p585
Vei
p586
sVvalue
p587
VqnHzWJaIKsiKjwSn5IWgCA
p588
sa(dp589
Vname
p590
Vimc
p591
sVvalue
p592
g59
sa(dp593
Vname
p594
Vimn
p595
sVvalue
p596
g59
sa(dp597
Vname
p598
Vimp
p599
sVvalue
p600
V0
p601
sa(dp602
Vname
p603
Vadh
p604
sVvalue
p605
g4
sa(dp606
Vname
p607
Vxjs
p608
sVvalue
p609
Vinit.24.12.sb_mob.18.dvl.3.c.1.jsa.1.mbsf.1
p610
sa(dp611
Vname
p612
Vima
p613
sVvalue
p614
g59
sa(dp615
Vname
p616
Vrt
p617
sVvalue
p618
Vxjsls.44,prt.45,iml.45,dcl.83,xjses.103,xjsee.192,xjs.193,ol.244,aft.45,wsrt.140,cst.0,dnst.0,rqst.143,rspt.71,rqstt.52,unt.48,cstt.48,dit.214
p619
sasVheaders
p620
(lp621
sVheadersSize
p622
I830
sVbodySize
p623
I0
sVmethod
p624
VGET
p625
sVhttpVersion
p626
VHTTP/1.1
p627
ssVtimings
p628
(dp629
Vcomment
p630
g4
sVreceive
p631
I0
sVsend
p632
I0
sVssl
p633
I-1
sVconnect
p634
I-1
sVdns
p635
I-1
sVwait
p636
I27
sVblocked
p637
I-1
ssVtime
p638
I27
sVresponse
p639
(dp640
Vstatus
p641
I204
sVcomment
p642
g4
sVcookies
p643
(lp644
sVstatusText
p645
VNo Content
p646
sVcontent
p647
(dp648
VmimeType
p649
Vtext/html; charset=UTF-8
p650
sVcomment
p651
g4
sVsize
p652
I0
ssVheaders
p653
(lp654
sVheadersSize
p655
I248
sVredirectURL
p656
g4
sVbodySize
p657
I0
sVhttpVersion
p658
VHTTP/1.1
p659
ssa(dp660
Vcomment
p661
g4
sVserverIPAddress
p662
V172.217.6.4
p663
sVpageref
p664
VDraymond Green
p665
sVstartedDateTime
p666
V2017-04-16T08:29:16.174-05:00
p667
sVcache
p668
(dp669
sVrequest
p670
(dp671
Vcomment
p672
g4
sVcookies
p673
(lp674
sVurl
p675
Vhttps://www.google.com/complete/search?client=mobile-gws-hp&hl=en&gs_rn=64&gs_ri=mobile-gws-hp&sla=1&pfq=detroit%20tigers&gm=602&cp=0&gs_id=1&xhr=t&q=D&tch=1&ech=1&psi=qnHzWJaIKsiKjwSn5IWgCA.1492349355943.1
p676
sVqueryString
p677
(lp678
(dp679
Vname
p680
Vclient
p681
sVvalue
p682
Vmobile-gws-hp
p683
sa(dp684
Vname
p685
Vhl
p686
sVvalue
p687
Ven
p688
sa(dp689
Vname
p690
Vgs_rn
p691
sVvalue
p692
V64
p693
sa(dp694
Vname
p695
Vgs_ri
p696
sVvalue
p697
Vmobile-gws-hp
p698
sa(dp699
Vname
p700
Vsla
p701
sVvalue
p702
g59
sa(dp703
Vname
p704
Vpfq
p705
sVvalue
p706
Vdetroit tigers
p707
sa(dp708
Vname
p709
Vgm
p710
sVvalue
p711
V602
p712
sa(dp713
Vname
p714
Vcp
p715
sVvalue
p716
g601
sa(dp717
Vname
p718
Vgs_id
p719
sVvalue
p720
g59
sa(dp721
Vname
p722
Vxhr
p723
sVvalue
p724
g52
sa(dp725
Vname
p726
Vq
p727
sVvalue
p728
VD
p729
sa(dp730
Vname
p731
Vtch
p732
sVvalue
p733
g59
sa(dp734
Vname
p735
Vech
p736
sVvalue
p737
g59
sa(dp738
Vname
p739
Vpsi
p740
sVvalue
p741
VqnHzWJaIKsiKjwSn5IWgCA.1492349355943.1
p742
sasVheaders
p743
(lp744
sVheadersSize
p745
I734
sVbodySize
p746
I0
sVmethod
p747
VGET
p748
sVhttpVersion
p749
VHTTP/1.1
p750
ssVtimings
p751
(dp752
Vcomment
p753
g4
sVreceive
p754
I0
sVsend
p755
I0
sVssl
p756
I-1
sVconnect
p757
I-1
sVdns
p758
I-1
sVwait
p759
I0
sVblocked
p760
I-1
ssVtime
p761
I0
sVresponse
p762
(dp763
Vstatus
p764
I0
sVcomment
p765
g4
sVcookies
p766
(lp767
sV_error
p768
VNo response received
p769
sVstatusText
p770
g4
sVcontent
p771
(dp772
VmimeType
p773
g4
sVcomment
p774
g4
sVsize
p775
I0
ssVheaders
p776
(lp777
sVheadersSize
p778
I-1
sVredirectURL
p779
g4
sVbodySize
p780
I-1
sVhttpVersion
p781
Vunknown
p782
ssa(dp783
Vcomment
p784
g4
sVserverIPAddress
p785
V172.217.6.4
p786
sVpageref
p787
VDraymond Green
p788
sVstartedDateTime
p789
V2017-04-16T08:29:16.262-05:00
p790
sVcache
p791
(dp792
sVrequest
p793
(dp794
Vcomment
p795
g4
sVcookies
p796
(lp797
sVurl
p798
Vhttps://www.google.com/search?site=&source=hp&ei=qnHzWJaIKsiKjwSn5IWgCA&q=Draymond+Green&oq=Draymond+Green&gs_l=mobile-gws-hp.3...210.247.0.291.14.1.0.0.0.0.0.0..0.0....0...1c.1.64.mobile-gws-hp..14.0.0._eg0QA0de4Y
p799
sVqueryString
p800
(lp801
(dp802
Vname
p803
Vsite
p804
sVvalue
p805
g4
sa(dp806
Vname
p807
Vsource
p808
sVvalue
p809
Vhp
p810
sa(dp811
Vname
p812
Vei
p813
sVvalue
p814
VqnHzWJaIKsiKjwSn5IWgCA
p815
sa(dp816
Vname
p817
g727
sVvalue
p818
VDraymond Green
p819
sa(dp820
Vname
p821
Voq
p822
sVvalue
p823
VDraymond Green
p824
sa(dp825
Vname
p826
Vgs_l
p827
sVvalue
p828
Vmobile-gws-hp.3...210.247.0.291.14.1.0.0.0.0.0.0..0.0....0...1c.1.64.mobile-gws-hp..14.0.0._eg0QA0de4Y
p829
sasVheaders
p830
(lp831
sVheadersSize
p832
I832
sVbodySize
p833
I0
sVmethod
p834
VGET
p835
sVhttpVersion
p836
VHTTP/1.1
p837
ssVtimings
p838
(dp839
Vcomment
p840
g4
sVreceive
p841
I801
sVsend
p842
I0
sVssl
p843
I-1
sVconnect
p844
I-1
sVdns
p845
I-1
sVwait
p846
I103
sVblocked
p847
I-1
ssVtime
p848
I905
sVresponse
p849
(dp850
Vstatus
p851
I200
sVcomment
p852
g4
sVcookies
p853
(lp854
sVstatusText
p855
VOK
p856
sVcontent
p857
(dp858
VmimeType
p859
Vtext/html; charset=UTF-8
p860
sVcomment
p861
g4
sVsize
p862
I0
ssVheaders
p863
(lp864
sVheadersSize
p865
I363
sVredirectURL
p866
g4
sVbodySize
p867
I176895
sVhttpVersion
p868
VHTTP/1.1
p869
ssa(dp870
Vcomment
p871
g4
sVserverIPAddress
p872
V172.217.6.4
p873
sVpageref
p874
VDraymond Green
p875
sVstartedDateTime
p876
V2017-04-16T08:29:18.369-05:00
p877
sVcache
p878
(dp879
sVrequest
p880
(dp881
Vcomment
p882
g4
sVcookies
p883
(lp884
sVurl
p885
Vhttps://www.google.com/async/irc?vet=10ahUKEwiG8c3JiqnTAhXi6YMKHUHwCYkQo0EIjgI..i&ved=0ahUKEwiG8c3JiqnTAhXi6YMKHUHwCYkQo0EIjgI&ei=q3HzWMbvD-LTjwTB4KfICA&yv=2&async=iu:1,ved:0ahUKEwiG8c3JiqnTAhXi6YMKHUHwCYkQo0EIjgI,_id:irc_async,_pms:qs
p886
sVqueryString
p887
(lp888
(dp889
Vname
p890
Vvet
p891
sVvalue
p892
V10ahUKEwiG8c3JiqnTAhXi6YMKHUHwCYkQo0EIjgI..i
p893
sa(dp894
Vname
p895
Vved
p896
sVvalue
p897
V0ahUKEwiG8c3JiqnTAhXi6YMKHUHwCYkQo0EIjgI
p898
sa(dp899
Vname
p900
Vei
p901
sVvalue
p902
Vq3HzWMbvD-LTjwTB4KfICA
p903
sa(dp904
Vname
p905
Vyv
p906
sVvalue
p907
g64
sa(dp908
Vname
p909
Vasync
p910
sVvalue
p911
Viu:1,ved:0ahUKEwiG8c3JiqnTAhXi6YMKHUHwCYkQo0EIjgI,_id:irc_async,_pms:qs
p912
sasVheaders
p913
(lp914
sVheadersSize
p915
I752
sVbodySize
p916
I0
sVmethod
p917
VGET
p918
sVhttpVersion
p919
VHTTP/1.1
p920
ssVtimings
p921
(dp922
Vcomment
p923
g4
sVreceive
p924
I2
sVsend
p925
I0
sVssl
p926
I-1
sVconnect
p927
I-1
sVdns
p928
I-1
sVwait
p929
I43
sVblocked
p930
I-1
ssVtime
p931
I46
sVresponse
p932
(dp933
Vstatus
p934
I200
sVcomment
p935
g4
sVcookies
p936
(lp937
sVstatusText
p938
VOK
p939
sVcontent
p940
(dp941
VmimeType
p942
Vtext/html; charset=UTF-8
p943
sVcomment
p944
g4
sVsize
p945
I0
ssVheaders
p946
(lp947
sVheadersSize
p948
I383
sVredirectURL
p949
g4
sVbodySize
p950
I7790
sVhttpVersion
p951
VHTTP/1.1
p952
ssa(dp953
Vcomment
p954
g4
sVserverIPAddress
p955
V172.217.6.4
p956
sVpageref
p957
VDraymond Green
p958
sVstartedDateTime
p959
V2017-04-16T08:29:18.412-05:00
p960
sVcache
p961
(dp962
sVrequest
p963
(dp964
Vcomment
p965
g4
sVcookies
p966
(lp967
sVurl
p968
Vhttps://www.google.com/gen_204?atyp=i&ct=&cad=&vet=10ahUKEwiG8c3JiqnTAhXi6YMKHUHwCYkQ5W0IVygC..s&ei=q3HzWMbvD-LTjwTB4KfICA&zx=1492349358375
p969
sVqueryString
p970
(lp971
(dp972
Vname
p973
Vatyp
p974
sVvalue
p975
g30
sa(dp976
Vname
p977
Vct
p978
sVvalue
p979
g4
sa(dp980
Vname
p981
Vcad
p982
sVvalue
p983
g4
sa(dp984
Vname
p985
Vvet
p986
sVvalue
p987
V10ahUKEwiG8c3JiqnTAhXi6YMKHUHwCYkQ5W0IVygC..s
p988
sa(dp989
Vname
p990
Vei
p991
sVvalue
p992
Vq3HzWMbvD-LTjwTB4KfICA
p993
sa(dp994
Vname
p995
Vzx
p996
sVvalue
p997
V1492349358375
p998
sasVheaders
p999
(lp1000
sVheadersSize
p1001
I656
sVbodySize
p1002
I0
sVmethod
p1003
VGET
p1004
sVhttpVersion
p1005
VHTTP/1.1
p1006
ssVtimings
p1007
(dp1008
Vcomment
p1009
g4
sVreceive
p1010
I0
sVsend
p1011
I0
sVssl
p1012
I17
sVconnect
p1013
I33
sVdns
p1014
I0
sVwait
p1015
I33
sVblocked
p1016
I0
ssVtime
p1017
I68
sVresponse
p1018
(dp1019
Vstatus
p1020
I204
sVcomment
p1021
g4
sVcookies
p1022
(lp1023
sVstatusText
p1024
VNo Content
p1025
sVcontent
p1026
(dp1027
VmimeType
p1028
Vtext/html; charset=UTF-8
p1029
sVcomment
p1030
g4
sVsize
p1031
I0
ssVheaders
p1032
(lp1033
sVheadersSize
p1034
I248
sVredirectURL
p1035
g4
sVbodySize
p1036
I0
sVhttpVersion
p1037
VHTTP/1.1
p1038
ssa(dp1039
Vcomment
p1040
g4
sVserverIPAddress
p1041
V172.217.6.4
p1042
sVpageref
p1043
VDraymond Green
p1044
sVstartedDateTime
p1045
V2017-04-16T08:29:18.418-05:00
p1046
sVcache
p1047
(dp1048
sVrequest
p1049
(dp1050
Vcomment
p1051
g4
sVcookies
p1052
(lp1053
sVurl
p1054
Vhttps://www.google.com/gen_204?atyp=i&ct=&cad=&vet=10ahUKEwiG8c3JiqnTAhXi6YMKHUHwCYkQ5W0IYCgF..s&ei=q3HzWMbvD-LTjwTB4KfICA&zx=1492349358381
p1055
sVqueryString
p1056
(lp1057
(dp1058
Vname
p1059
Vatyp
p1060
sVvalue
p1061
g30
sa(dp1062
Vname
p1063
Vct
p1064
sVvalue
p1065
g4
sa(dp1066
Vname
p1067
Vcad
p1068
sVvalue
p1069
g4
sa(dp1070
Vname
p1071
Vvet
p1072
sVvalue
p1073
V10ahUKEwiG8c3JiqnTAhXi6YMKHUHwCYkQ5W0IYCgF..s
p1074
sa(dp1075
Vname
p1076
Vei
p1077
sVvalue
p1078
Vq3HzWMbvD-LTjwTB4KfICA
p1079
sa(dp1080
Vname
p1081
Vzx
p1082
sVvalue
p1083
V1492349358381
p1084
sasVheaders
p1085
(lp1086
sVheadersSize
p1087
I656
sVbodySize
p1088
I0
sVmethod
p1089
VGET
p1090
sVhttpVersion
p1091
VHTTP/1.1
p1092
ssVtimings
p1093
(dp1094
Vcomment
p1095
g4
sVreceive
p1096
I0
sVsend
p1097
I0
sVssl
p1098
I18
sVconnect
p1099
I34
sVdns
p1100
I0
sVwait
p1101
I29
sVblocked
p1102
I0
ssVtime
p1103
I64
sVresponse
p1104
(dp1105
Vstatus
p1106
I204
sVcomment
p1107
g4
sVcookies
p1108
(lp1109
sVstatusText
p1110
VNo Content
p1111
sVcontent
p1112
(dp1113
VmimeType
p1114
Vtext/html; charset=UTF-8
p1115
sVcomment
p1116
g4
sVsize
p1117
I0
ssVheaders
p1118
(lp1119
sVheadersSize
p1120
I248
sVredirectURL
p1121
g4
sVbodySize
p1122
I0
sVhttpVersion
p1123
VHTTP/1.1
p1124
ssa(dp1125
Vcomment
p1126
g4
sVserverIPAddress
p1127
V172.217.6.4
p1128
sVpageref
p1129
VDraymond Green
p1130
sVstartedDateTime
p1131
V2017-04-16T08:29:18.427-05:00
p1132
sVcache
p1133
(dp1134
sVrequest
p1135
(dp1136
Vcomment
p1137
g4
sVcookies
p1138
(lp1139
sVurl
p1140
Vhttps://www.google.com/gen_204?atyp=i&ct=&cad=&vet=10ahUKEwiG8c3JiqnTAhXi6YMKHUHwCYkQ5W0IWigD..s&ei=q3HzWMbvD-LTjwTB4KfICA&zx=1492349358376
p1141
sVqueryString
p1142
(lp1143
(dp1144
Vname
p1145
Vatyp
p1146
sVvalue
p1147
g30
sa(dp1148
Vname
p1149
Vct
p1150
sVvalue
p1151
g4
sa(dp1152
Vname
p1153
Vcad
p1154
sVvalue
p1155
g4
sa(dp1156
Vname
p1157
Vvet
p1158
sVvalue
p1159
V10ahUKEwiG8c3JiqnTAhXi6YMKHUHwCYkQ5W0IWigD..s
p1160
sa(dp1161
Vname
p1162
Vei
p1163
sVvalue
p1164
Vq3HzWMbvD-LTjwTB4KfICA
p1165
sa(dp1166
Vname
p1167
Vzx
p1168
sVvalue
p1169
V1492349358376
p1170
sasVheaders
p1171
(lp1172
sVheadersSize
p1173
I656
sVbodySize
p1174
I0
sVmethod
p1175
VGET
p1176
sVhttpVersion
p1177
VHTTP/1.1
p1178
ssVtimings
p1179
(dp1180
Vcomment
p1181
g4
sVreceive
p1182
I0
sVsend
p1183
I0
sVssl
p1184
I27
sVconnect
p1185
I47
sVdns
p1186
I0
sVwait
p1187
I26
sVblocked
p1188
I0
ssVtime
p1189
I74
sVresponse
p1190
(dp1191
Vstatus
p1192
I204
sVcomment
p1193
g4
sVcookies
p1194
(lp1195
sVstatusText
p1196
VNo Content
p1197
sVcontent
p1198
(dp1199
VmimeType
p1200
Vtext/html; charset=UTF-8
p1201
sVcomment
p1202
g4
sVsize
p1203
I0
ssVheaders
p1204
(lp1205
sVheadersSize
p1206
I248
sVredirectURL
p1207
g4
sVbodySize
p1208
I0
sVhttpVersion
p1209
VHTTP/1.1
p1210
ssa(dp1211
Vcomment
p1212
g4
sVserverIPAddress
p1213
V172.217.6.4
p1214
sVpageref
p1215
VDraymond Green
p1216
sVstartedDateTime
p1217
V2017-04-16T08:29:18.427-05:00
p1218
sVcache
p1219
(dp1220
sVrequest
p1221
(dp1222
Vcomment
p1223
g4
sVcookies
p1224
(lp1225
sVurl
p1226
Vhttps://www.google.com/gen_204?atyp=i&ct=&cad=&vet=10ahUKEwiG8c3JiqnTAhXi6YMKHUHwCYkQ5W0IXSgE..s&ei=q3HzWMbvD-LTjwTB4KfICA&zx=1492349358378
p1227
sVqueryString
p1228
(lp1229
(dp1230
Vname
p1231
Vatyp
p1232
sVvalue
p1233
g30
sa(dp1234
Vname
p1235
Vct
p1236
sVvalue
p1237
g4
sa(dp1238
Vname
p1239
Vcad
p1240
sVvalue
p1241
g4
sa(dp1242
Vname
p1243
Vvet
p1244
sVvalue
p1245
V10ahUKEwiG8c3JiqnTAhXi6YMKHUHwCYkQ5W0IXSgE..s
p1246
sa(dp1247
Vname
p1248
Vei
p1249
sVvalue
p1250
Vq3HzWMbvD-LTjwTB4KfICA
p1251
sa(dp1252
Vname
p1253
Vzx
p1254
sVvalue
p1255
V1492349358378
p1256
sasVheaders
p1257
(lp1258
sVheadersSize
p1259
I656
sVbodySize
p1260
I0
sVmethod
p1261
VGET
p1262
sVhttpVersion
p1263
VHTTP/1.1
p1264
ssVtimings
p1265
(dp1266
Vcomment
p1267
g4
sVreceive
p1268
I0
sVsend
p1269
I0
sVssl
p1270
I27
sVconnect
p1271
I46
sVdns
p1272
I0
sVwait
p1273
I25
sVblocked
p1274
I0
ssVtime
p1275
I72
sVresponse
p1276
(dp1277
Vstatus
p1278
I204
sVcomment
p1279
g4
sVcookies
p1280
(lp1281
sVstatusText
p1282
VNo Content
p1283
sVcontent
p1284
(dp1285
VmimeType
p1286
Vtext/html; charset=UTF-8
p1287
sVcomment
p1288
g4
sVsize
p1289
I0
ssVheaders
p1290
(lp1291
sVheadersSize
p1292
I248
sVredirectURL
p1293
g4
sVbodySize
p1294
I0
sVhttpVersion
p1295
VHTTP/1.1
p1296
ssa(dp1297
Vcomment
p1298
g4
sVserverIPAddress
p1299
V172.217.6.4
p1300
sVpageref
p1301
VDraymond Green
p1302
sVstartedDateTime
p1303
V2017-04-16T08:29:18.429-05:00
p1304
sVcache
p1305
(dp1306
sVrequest
p1307
(dp1308
Vcomment
p1309
g4
sVcookies
p1310
(lp1311
sVurl
p1312
Vhttps://www.google.com/gen_204?atyp=i&ct=&cad=&vet=10ahUKEwiG8c3JiqnTAhXi6YMKHUHwCYkQ5W0IYygG..s&ei=q3HzWMbvD-LTjwTB4KfICA&zx=1492349358384
p1313
sVqueryString
p1314
(lp1315
(dp1316
Vname
p1317
Vatyp
p1318
sVvalue
p1319
g30
sa(dp1320
Vname
p1321
Vct
p1322
sVvalue
p1323
g4
sa(dp1324
Vname
p1325
Vcad
p1326
sVvalue
p1327
g4
sa(dp1328
Vname
p1329
Vvet
p1330
sVvalue
p1331
V10ahUKEwiG8c3JiqnTAhXi6YMKHUHwCYkQ5W0IYygG..s
p1332
sa(dp1333
Vname
p1334
Vei
p1335
sVvalue
p1336
Vq3HzWMbvD-LTjwTB4KfICA
p1337
sa(dp1338
Vname
p1339
Vzx
p1340
sVvalue
p1341
V1492349358384
p1342
sasVheaders
p1343
(lp1344
sVheadersSize
p1345
I656
sVbodySize
p1346
I0
sVmethod
p1347
VGET
p1348
sVhttpVersion
p1349
VHTTP/1.1
p1350
ssVtimings
p1351
(dp1352
Vcomment
p1353
g4
sVreceive
p1354
I0
sVsend
p1355
I0
sVssl
p1356
I18
sVconnect
p1357
I41
sVdns
p1358
I0
sVwait
p1359
I44
sVblocked
p1360
I0
ssVtime
p1361
I86
sVresponse
p1362
(dp1363
Vstatus
p1364
I204
sVcomment
p1365
g4
sVcookies
p1366
(lp1367
sVstatusText
p1368
VNo Content
p1369
sVcontent
p1370
(dp1371
VmimeType
p1372
Vtext/html; charset=UTF-8
p1373
sVcomment
p1374
g4
sVsize
p1375
I0
ssVheaders
p1376
(lp1377
sVheadersSize
p1378
I248
sVredirectURL
p1379
g4
sVbodySize
p1380
I0
sVhttpVersion
p1381
VHTTP/1.1
p1382
ssa(dp1383
Vcomment
p1384
g4
sVserverIPAddress
p1385
V172.217.6.4
p1386
sVpageref
p1387
VDraymond Green
p1388
sVstartedDateTime
p1389
V2017-04-16T08:29:18.498-05:00
p1390
sVcache
p1391
(dp1392
sVrequest
p1393
(dp1394
Vcomment
p1395
g4
sVcookies
p1396
(lp1397
sVurl
p1398
Vhttps://www.google.com/async/ampfp?vet=10ahUKEwiG8c3JiqnTAhXi6YMKHUHwCYkQtZoBCIwC..i&ei=q3HzWMbvD-LTjwTB4KfICA&yv=2&async=_id:ampfp-async,_pms:qs
p1399
sVqueryString
p1400
(lp1401
(dp1402
Vname
p1403
Vvet
p1404
sVvalue
p1405
V10ahUKEwiG8c3JiqnTAhXi6YMKHUHwCYkQtZoBCIwC..i
p1406
sa(dp1407
Vname
p1408
Vei
p1409
sVvalue
p1410
Vq3HzWMbvD-LTjwTB4KfICA
p1411
sa(dp1412
Vname
p1413
Vyv
p1414
sVvalue
p1415
g64
sa(dp1416
Vname
p1417
Vasync
p1418
sVvalue
p1419
V_id:ampfp-async,_pms:qs
p1420
sasVheaders
p1421
(lp1422
sVheadersSize
p1423
I662
sVbodySize
p1424
I0
sVmethod
p1425
VGET
p1426
sVhttpVersion
p1427
VHTTP/1.1
p1428
ssVtimings
p1429
(dp1430
Vcomment
p1431
g4
sVreceive
p1432
I0
sVsend
p1433
I0
sVssl
p1434
I-1
sVconnect
p1435
I-1
sVdns
p1436
I-1
sVwait
p1437
I51
sVblocked
p1438
I-1
ssVtime
p1439
I51
sVresponse
p1440
(dp1441
Vstatus
p1442
I200
sVcomment
p1443
g4
sVcookies
p1444
(lp1445
sVstatusText
p1446
VOK
p1447
sVcontent
p1448
(dp1449
VmimeType
p1450
Vtext/html; charset=UTF-8
p1451
sVcomment
p1452
g4
sVsize
p1453
I0
ssVheaders
p1454
(lp1455
sVheadersSize
p1456
I383
sVredirectURL
p1457
g4
sVbodySize
p1458
I4525
sVhttpVersion
p1459
VHTTP/1.1
p1460
ssa(dp1461
Vcomment
p1462
g4
sVserverIPAddress
p1463
V216.58.216.193
p1464
sVpageref
p1465
VDraymond Green
p1466
sVstartedDateTime
p1467
V2017-04-16T08:29:18.499-05:00
p1468
sVcache
p1469
(dp1470
sVrequest
p1471
(dp1472
Vcomment
p1473
g4
sVcookies
p1474
(lp1475
sVurl
p1476
Vhttps://cdn.ampproject.org/preconnect.gif?0.9582078043902466
p1477
sVqueryString
p1478
(lp1479
(dp1480
Vname
p1481
V0.9582078043902466
p1482
sVvalue
p1483
g4
sasVheaders
p1484
(lp1485
sVheadersSize
p1486
I375
sVbodySize
p1487
I0
sVmethod
p1488
VGET
p1489
sVhttpVersion
p1490
VHTTP/1.1
p1491
ssVtimings
p1492
(dp1493
Vcomment
p1494
g4
sVreceive
p1495
I0
sVsend
p1496
I0
sVssl
p1497
I-1
sVconnect
p1498
I-1
sVdns
p1499
I-1
sVwait
p1500
I31
sVblocked
p1501
I-1
ssVtime
p1502
I31
sVresponse
p1503
(dp1504
Vstatus
p1505
I200
sVcomment
p1506
g4
sVcookies
p1507
(lp1508
sVstatusText
p1509
VOK
p1510
sVcontent
p1511
(dp1512
VmimeType
p1513
Vimage/gif
p1514
sVcomment
p1515
g4
sVsize
p1516
I0
ssVheaders
p1517
(lp1518
sVheadersSize
p1519
I826
sVredirectURL
p1520
g4
sVbodySize
p1521
I37
sVhttpVersion
p1522
VHTTP/1.1
p1523
ssa(dp1524
Vcomment
p1525
g4
sVserverIPAddress
p1526
V172.217.0.14
p1527
sVpageref
p1528
VDraymond Green
p1529
sVstartedDateTime
p1530
V2017-04-16T08:29:18.518-05:00
p1531
sVcache
p1532
(dp1533
sVrequest
p1534
(dp1535
Vcomment
p1536
g4
sVcookies
p1537
(lp1538
sVurl
p1539
Vhttps://encrypted-tbn3.gstatic.com/images?q=tbn:ANd9GcTd8SASGsTvvmM7RHiTBiWNWm-q7hgKMTYhcrRaYfxn8hrGEGadtnQbjY1jbw
p1540
sVqueryString
p1541
(lp1542
(dp1543
Vname
p1544
g727
sVvalue
p1545
Vtbn:ANd9GcTd8SASGsTvvmM7RHiTBiWNWm-q7hgKMTYhcrRaYfxn8hrGEGadtnQbjY1jbw
p1546
sasVheaders
p1547
(lp1548
sVheadersSize
p1549
I429
sVbodySize
p1550
I0
sVmethod
p1551
VGET
p1552
sVhttpVersion
p1553
VHTTP/1.1
p1554
ssVtimings
p1555
(dp1556
Vcomment
p1557
g4
sVreceive
p1558
I4
sVsend
p1559
I0
sVssl
p1560
I-1
sVconnect
p1561
I-1
sVdns
p1562
I-1
sVwait
p1563
I12
sVblocked
p1564
I-1
ssVtime
p1565
I17
sVresponse
p1566
(dp1567
Vstatus
p1568
I200
sVcomment
p1569
g4
sVcookies
p1570
(lp1571
sVstatusText
p1572
VOK
p1573
sVcontent
p1574
(dp1575
VmimeType
p1576
Vimage/jpeg
p1577
sVcomment
p1578
g4
sVsize
p1579
I0
ssVheaders
p1580
(lp1581
sVheadersSize
p1582
I427
sVredirectURL
p1583
g4
sVbodySize
p1584
I8916
sVhttpVersion
p1585
VHTTP/1.1
p1586
ssa(dp1587
Vcomment
p1588
g4
sVserverIPAddress
p1589
V172.217.0.14
p1590
sVpageref
p1591
VDraymond Green
p1592
sVstartedDateTime
p1593
V2017-04-16T08:29:18.519-05:00
p1594
sVcache
p1595
(dp1596
sVrequest
p1597
(dp1598
Vcomment
p1599
g4
sVcookies
p1600
(lp1601
sVurl
p1602
Vhttps://encrypted-tbn1.gstatic.com/images?q=tbn:ANd9GcRI7cOY9uXj_CFe_qSw7SeeB6pS1PzhetpxFK2f1HySf205DW7eZNTNz85tog
p1603
sVqueryString
p1604
(lp1605
(dp1606
Vname
p1607
g727
sVvalue
p1608
Vtbn:ANd9GcRI7cOY9uXj_CFe_qSw7SeeB6pS1PzhetpxFK2f1HySf205DW7eZNTNz85tog
p1609
sasVheaders
p1610
(lp1611
sVheadersSize
p1612
I429
sVbodySize
p1613
I0
sVmethod
p1614
VGET
p1615
sVhttpVersion
p1616
VHTTP/1.1
p1617
ssVtimings
p1618
(dp1619
Vcomment
p1620
g4
sVreceive
p1621
I13
sVsend
p1622
I0
sVssl
p1623
I-1
sVconnect
p1624
I-1
sVdns
p1625
I-1
sVwait
p1626
I19
sVblocked
p1627
I-1
ssVtime
p1628
I32
sVresponse
p1629
(dp1630
Vstatus
p1631
I200
sVcomment
p1632
g4
sVcookies
p1633
(lp1634
sVstatusText
p1635
VOK
p1636
sVcontent
p1637
(dp1638
VmimeType
p1639
Vimage/jpeg
p1640
sVcomment
p1641
g4
sVsize
p1642
I0
ssVheaders
p1643
(lp1644
sVheadersSize
p1645
I428
sVredirectURL
p1646
g4
sVbodySize
p1647
I3839
sVhttpVersion
p1648
VHTTP/1.1
p1649
ssa(dp1650
Vcomment
p1651
g4
sVserverIPAddress
p1652
V172.217.0.14
p1653
sVpageref
p1654
VDraymond Green
p1655
sVstartedDateTime
p1656
V2017-04-16T08:29:18.519-05:00
p1657
sVcache
p1658
(dp1659
sVrequest
p1660
(dp1661
Vcomment
p1662
g4
sVcookies
p1663
(lp1664
sVurl
p1665
Vhttps://encrypted-tbn2.gstatic.com/images?q=tbn:ANd9GcSyJuvVL44d9JkbQwV6WCIY75Mtkr1GGFEOS9aEcWSA0pJV9huSCDhdfdwU
p1666
sVqueryString
p1667
(lp1668
(dp1669
Vname
p1670
g727
sVvalue
p1671
Vtbn:ANd9GcSyJuvVL44d9JkbQwV6WCIY75Mtkr1GGFEOS9aEcWSA0pJV9huSCDhdfdwU
p1672
sasVheaders
p1673
(lp1674
sVheadersSize
p1675
I427
sVbodySize
p1676
I0
sVmethod
p1677
VGET
p1678
sVhttpVersion
p1679
VHTTP/1.1
p1680
ssVtimings
p1681
(dp1682
Vcomment
p1683
g4
sVreceive
p1684
I0
sVsend
p1685
I0
sVssl
p1686
I-1
sVconnect
p1687
I-1
sVdns
p1688
I-1
sVwait
p1689
I31
sVblocked
p1690
I-1
ssVtime
p1691
I31
sVresponse
p1692
(dp1693
Vstatus
p1694
I200
sVcomment
p1695
g4
sVcookies
p1696
(lp1697
sVstatusText
p1698
VOK
p1699
sVcontent
p1700
(dp1701
VmimeType
p1702
Vimage/jpeg
p1703
sVcomment
p1704
g4
sVsize
p1705
I0
ssVheaders
p1706
(lp1707
sVheadersSize
p1708
I428
sVredirectURL
p1709
g4
sVbodySize
p1710
I4623
sVhttpVersion
p1711
VHTTP/1.1
p1712
ssa(dp1713
Vcomment
p1714
g4
sVserverIPAddress
p1715
V172.217.6.4
p1716
sVpageref
p1717
VDraymond Green
p1718
sVstartedDateTime
p1719
V2017-04-16T08:29:18.608-05:00
p1720
sVcache
p1721
(dp1722
sVrequest
p1723
(dp1724
Vcomment
p1725
g4
sVcookies
p1726
(lp1727
sVurl
p1728
Vhttps://www.google.com/gen_204?s=web&atyp=csi&ei=q3HzWMbvD-LTjwTB4KfICA&imc=54&imn=54&imp=29&adh=&xjs=init.37.15.sb_mob.27.dvl.3.async.2.c.1.mbsf.1&ima=19&rt=prt.858,iml.877,xjsls.858,dcl.983,xjses.1075,xjsee.1245,xjs.1245,qiml.2323,ol.2216,aft.876,wsrt.121,cst.0,dnst.0,rqst.908,rspt.803,rqstt.5,unt.5,cstt.5,dit.1056
p1729
sVqueryString
p1730
(lp1731
(dp1732
Vname
p1733
g57
sVvalue
p1734
Vweb
p1735
sa(dp1736
Vname
p1737
Vatyp
p1738
sVvalue
p1739
Vcsi
p1740
sa(dp1741
Vname
p1742
Vei
p1743
sVvalue
p1744
Vq3HzWMbvD-LTjwTB4KfICA
p1745
sa(dp1746
Vname
p1747
Vimc
p1748
sVvalue
p1749
V54
p1750
sa(dp1751
Vname
p1752
Vimn
p1753
sVvalue
p1754
V54
p1755
sa(dp1756
Vname
p1757
Vimp
p1758
sVvalue
p1759
V29
p1760
sa(dp1761
Vname
p1762
Vadh
p1763
sVvalue
p1764
g4
sa(dp1765
Vname
p1766
Vxjs
p1767
sVvalue
p1768
Vinit.37.15.sb_mob.27.dvl.3.async.2.c.1.mbsf.1
p1769
sa(dp1770
Vname
p1771
Vima
p1772
sVvalue
p1773
V19
p1774
sa(dp1775
Vname
p1776
Vrt
p1777
sVvalue
p1778
Vprt.858,iml.877,xjsls.858,dcl.983,xjses.1075,xjsee.1245,xjs.1245,qiml.2323,ol.2216,aft.876,wsrt.121,cst.0,dnst.0,rqst.908,rspt.803,rqstt.5,unt.5,cstt.5,dit.1056
p1779
sasVheaders
p1780
(lp1781
sVheadersSize
p1782
I835
sVbodySize
p1783
I0
sVmethod
p1784
VGET
p1785
sVhttpVersion
p1786
VHTTP/1.1
p1787
ssVtimings
p1788
(dp1789
Vcomment
p1790
g4
sVreceive
p1791
I0
sVsend
p1792
I0
sVssl
p1793
I-1
sVconnect
p1794
I-1
sVdns
p1795
I-1
sVwait
p1796
I24
sVblocked
p1797
I-1
ssVtime
p1798
I25
sVresponse
p1799
(dp1800
Vstatus
p1801
I204
sVcomment
p1802
g4
sVcookies
p1803
(lp1804
sVstatusText
p1805
VNo Content
p1806
sVcontent
p1807
(dp1808
VmimeType
p1809
Vtext/html; charset=UTF-8
p1810
sVcomment
p1811
g4
sVsize
p1812
I0
ssVheaders
p1813
(lp1814
sVheadersSize
p1815
I248
sVredirectURL
p1816
g4
sVbodySize
p1817
I0
sVhttpVersion
p1818
VHTTP/1.1
p1819
ssa(dp1820
Vcomment
p1821
g4
sVserverIPAddress
p1822
V172.217.6.4
p1823
sVpageref
p1824
VDraymond Green
p1825
sVstartedDateTime
p1826
V2017-04-16T08:29:18.674-05:00
p1827
sVcache
p1828
(dp1829
sVrequest
p1830
(dp1831
Vcomment
p1832
g4
sVcookies
p1833
(lp1834
sVurl
p1835
Vhttps://www.google.com/async/log_amp_item_set?vet=10ahUKEwjU_9XKiqnTAhVG3IMKHVx3DRgQooQBCAE..i&ei=q3HzWMbvD-LTjwTB4KfICA&yv=2&async=num_items:10,_fmt:jspb
p1836
sVqueryString
p1837
(lp1838
(dp1839
Vname
p1840
Vvet
p1841
sVvalue
p1842
V10ahUKEwjU_9XKiqnTAhVG3IMKHVx3DRgQooQBCAE..i
p1843
sa(dp1844
Vname
p1845
Vei
p1846
sVvalue
p1847
Vq3HzWMbvD-LTjwTB4KfICA
p1848
sa(dp1849
Vname
p1850
Vyv
p1851
sVvalue
p1852
g64
sa(dp1853
Vname
p1854
Vasync
p1855
sVvalue
p1856
Vnum_items:10,_fmt:jspb
p1857
sasVheaders
p1858
(lp1859
sVheadersSize
p1860
I671
sVbodySize
p1861
I0
sVmethod
p1862
VGET
p1863
sVhttpVersion
p1864
VHTTP/1.1
p1865
ssVtimings
p1866
(dp1867
Vcomment
p1868
g4
sVreceive
p1869
I0
sVsend
p1870
I0
sVssl
p1871
I-1
sVconnect
p1872
I-1
sVdns
p1873
I-1
sVwait
p1874
I34
sVblocked
p1875
I-1
ssVtime
p1876
I35
sVresponse
p1877
(dp1878
Vstatus
p1879
I200
sVcomment
p1880
g4
sVcookies
p1881
(lp1882
sVstatusText
p1883
VOK
p1884
sVcontent
p1885
(dp1886
VmimeType
p1887
Vapplication/json; charset=UTF-8
p1888
sVcomment
p1889
g4
sVsize
p1890
I0
ssVheaders
p1891
(lp1892
sVheadersSize
p1893
I417
sVredirectURL
p1894
g4
sVbodySize
p1895
I184
sVhttpVersion
p1896
VHTTP/1.1
p1897
ssa(dp1898
Vcomment
p1899
g4
sVserverIPAddress
p1900
V216.58.216.193
p1901
sVpageref
p1902
VDraymond Green
p1903
sVstartedDateTime
p1904
V2017-04-16T08:29:18.993-05:00
p1905
sVcache
p1906
(dp1907
sVrequest
p1908
(dp1909
Vcomment
p1910
g4
sVcookies
p1911
(lp1912
sVurl
p1913
Vhttps://uproxx-com.cdn.ampproject.org/v/uproxx.com/dimemag/draymond-green-gary-payton-trash-talking/amp/?amp_js_v=9
p1914
sVqueryString
p1915
(lp1916
(dp1917
Vname
p1918
Vamp_js_v
p1919
sVvalue
p1920
V9
p1921
sasVheaders
p1922
(lp1923
sVheadersSize
p1924
I520
sVbodySize
p1925
I0
sVmethod
p1926
VGET
p1927
sVhttpVersion
p1928
VHTTP/1.1
p1929
ssVtimings
p1930
(dp1931
Vcomment
p1932
g4
sVreceive
p1933
I0
sVsend
p1934
I0
sVssl
p1935
I252
sVconnect
p1936
I267
sVdns
p1937
I36
sVwait
p1938
I87
sVblocked
p1939
I0
ssVtime
p1940
I392
sVresponse
p1941
(dp1942
Vstatus
p1943
I200
sVcomment
p1944
g4
sVcookies
p1945
(lp1946
sVstatusText
p1947
VOK
p1948
sVcontent
p1949
(dp1950
VmimeType
p1951
Vtext/html
p1952
sVcomment
p1953
g4
sVsize
p1954
I0
ssVheaders
p1955
(lp1956
sVheadersSize
p1957
I861
sVredirectURL
p1958
g4
sVbodySize
p1959
I7764
sVhttpVersion
p1960
VHTTP/1.1
p1961
ssa(dp1962
Vcomment
p1963
g4
sVserverIPAddress
p1964
V172.217.0.14
p1965
sVpageref
p1966
VDraymond Green
p1967
sVstartedDateTime
p1968
V2017-04-16T08:29:19.221-05:00
p1969
sVcache
p1970
(dp1971
sVrequest
p1972
(dp1973
Vcomment
p1974
g4
sVcookies
p1975
(lp1976
sVurl
p1977
Vhttps://i.ytimg.com/vi/05hmEXdDj_8/sddefault.jpg
p1978
sVqueryString
p1979
(lp1980
sVheaders
p1981
(lp1982
sVheadersSize
p1983
I455
sVbodySize
p1984
I0
sVmethod
p1985
VGET
p1986
sVhttpVersion
p1987
VHTTP/1.1
p1988
ssVtimings
p1989
(dp1990
Vcomment
p1991
g4
sVreceive
p1992
I0
sVsend
p1993
I0
sVssl
p1994
I-1
sVconnect
p1995
I-1
sVdns
p1996
I-1
sVwait
p1997
I0
sVblocked
p1998
I-1
ssVtime
p1999
I0
sVresponse
p2000
(dp2001
Vstatus
p2002
I0
sVcomment
p2003
g4
sVcookies
p2004
(lp2005
sV_error
p2006
VNo response received
p2007
sVstatusText
p2008
g4
sVcontent
p2009
(dp2010
VmimeType
p2011
g4
sVcomment
p2012
g4
sVsize
p2013
I0
ssVheaders
p2014
(lp2015
sVheadersSize
p2016
I-1
sVredirectURL
p2017
g4
sVbodySize
p2018
I-1
sVhttpVersion
p2019
Vunknown
p2020
ssa(dp2021
Vcomment
p2022
g4
sVserverIPAddress
p2023
V172.217.0.14
p2024
sVpageref
p2025
VDraymond Green
p2026
sVstartedDateTime
p2027
V2017-04-16T08:29:19.269-05:00
p2028
sVcache
p2029
(dp2030
sVrequest
p2031
(dp2032
Vcomment
p2033
g4
sVcookies
p2034
(lp2035
sVurl
p2036
Vhttps://i.ytimg.com/vi/05hmEXdDj_8/sddefault.jpg
p2037
sVqueryString
p2038
(lp2039
sVheaders
p2040
(lp2041
sVheadersSize
p2042
I404
sVbodySize
p2043
I0
sVmethod
p2044
VGET
p2045
sVhttpVersion
p2046
VHTTP/1.1
p2047
ssVtimings
p2048
(dp2049
Vcomment
p2050
g4
sVreceive
p2051
I19
sVsend
p2052
I0
sVssl
p2053
I28
sVconnect
p2054
I43
sVdns
p2055
I1
sVwait
p2056
I13
sVblocked
p2057
I0
ssVtime
p2058
I77
sVresponse
p2059
(dp2060
Vstatus
p2061
I200
sVcomment
p2062
g4
sVcookies
p2063
(lp2064
sVstatusText
p2065
VOK
p2066
sVcontent
p2067
(dp2068
VmimeType
p2069
Vimage/jpeg
p2070
sVcomment
p2071
g4
sVsize
p2072
I0
ssVheaders
p2073
(lp2074
sVheadersSize
p2075
I362
sVredirectURL
p2076
g4
sVbodySize
p2077
I32693
sVhttpVersion
p2078
VHTTP/1.1
p2079
ssa(dp2080
Vcomment
p2081
g4
sVserverIPAddress
p2082
V172.217.0.14
p2083
sVpageref
p2084
VDraymond Green
p2085
sVstartedDateTime
p2086
V2017-04-16T08:29:19.271-05:00
p2087
sVcache
p2088
(dp2089
sVrequest
p2090
(dp2091
Vcomment
p2092
g4
sVcookies
p2093
(lp2094
sVurl
p2095
Vhttps://i.ytimg.com/vi/JmalyD4faUI/sddefault.jpg
p2096
sVqueryString
p2097
(lp2098
sVheaders
p2099
(lp2100
sVheadersSize
p2101
I378
sVbodySize
p2102
I0
sVmethod
p2103
VGET
p2104
sVhttpVersion
p2105
VHTTP/1.1
p2106
ssVtimings
p2107
(dp2108
Vcomment
p2109
g4
sVreceive
p2110
I26
sVsend
p2111
I0
sVssl
p2112
I24
sVconnect
p2113
I39
sVdns
p2114
I0
sVwait
p2115
I13
sVblocked
p2116
I0
ssVtime
p2117
I79
sVresponse
p2118
(dp2119
Vstatus
p2120
I200
sVcomment
p2121
g4
sVcookies
p2122
(lp2123
sVstatusText
p2124
VOK
p2125
sVcontent
p2126
(dp2127
VmimeType
p2128
Vimage/jpeg
p2129
sVcomment
p2130
g4
sVsize
p2131
I0
ssVheaders
p2132
(lp2133
sVheadersSize
p2134
I362
sVredirectURL
p2135
g4
sVbodySize
p2136
I49035
sVhttpVersion
p2137
VHTTP/1.1
p2138
ssa(dp2139
Vcomment
p2140
g4
sVserverIPAddress
p2141
V172.217.6.4
p2142
sVpageref
p2143
VDraymond Green
p2144
sVstartedDateTime
p2145
V2017-04-16T08:29:20.467-05:00
p2146
sVcache
p2147
(dp2148
sVrequest
p2149
(dp2150
Vcomment
p2151
g4
sVcookies
p2152
(lp2153
sVurl
p2154
Vhttps://www.google.com/gen_204?atyp=i&ct=slh&cad=&ei=eXHzWOnfM4LejwSdqJiwBA&m=V&t=C&s=1&v=2&pv=0.9222008428454901&me=1:1492349308454,x:6,V,0,0,1280,944:0,N,1,eXHzWOnfM4LejwSdqJiwBA:0,R,1,24,8,155,1249,251:0,R,1,34,8,416,1249,615:0,R,1,35,8,416,1249,615:0,R,1,38,8,429,1249,40:0,R,1,51,8,481,1249,146:0,R,1,54,0,497,1265,165:0,R,1,94,8,644,1249,20:0,R,1,95,24,644,1217,20:0,R,1,101,8,680,1249,20:0,R,1,103,8,708,1249,20:2,B,3857:13665,e,U&zx=1492349360465
p2155
sVqueryString
p2156
(lp2157
(dp2158
Vname
p2159
Vatyp
p2160
sVvalue
p2161
g30
sa(dp2162
Vname
p2163
Vct
p2164
sVvalue
p2165
Vslh
p2166
sa(dp2167
Vname
p2168
Vcad
p2169
sVvalue
p2170
g4
sa(dp2171
Vname
p2172
Vei
p2173
sVvalue
p2174
VeXHzWOnfM4LejwSdqJiwBA
p2175
sa(dp2176
Vname
p2177
g47
sVvalue
p2178
g49
sa(dp2179
Vname
p2180
g52
sVvalue
p2181
g54
sa(dp2182
Vname
p2183
g57
sVvalue
p2184
g59
sa(dp2185
Vname
p2186
g62
sVvalue
p2187
g64
sa(dp2188
Vname
p2189
Vpv
p2190
sVvalue
p2191
V0.9222008428454901
p2192
sa(dp2193
Vname
p2194
Vme
p2195
sVvalue
p2196
V1:1492349308454,x:6,V,0,0,1280,944:0,N,1,eXHzWOnfM4LejwSdqJiwBA:0,R,1,24,8,155,1249,251:0,R,1,34,8,416,1249,615:0,R,1,35,8,416,1249,615:0,R,1,38,8,429,1249,40:0,R,1,51,8,481,1249,146:0,R,1,54,0,497,1265,165:0,R,1,94,8,644,1249,20:0,R,1,95,24,644,1217,20:0,R,1,101,8,680,1249,20:0,R,1,103,8,708,1249,20:2,B,3857:13665,e,U
p2197
sa(dp2198
Vname
p2199
Vzx
p2200
sVvalue
p2201
V1492349360465
p2202
sasVheaders
p2203
(lp2204
sVheadersSize
p2205
I971
sVbodySize
p2206
I0
sVmethod
p2207
VGET
p2208
sVhttpVersion
p2209
VHTTP/1.1
p2210
ssVtimings
p2211
(dp2212
Vcomment
p2213
g4
sVreceive
p2214
I0
sVsend
p2215
I0
sVssl
p2216
I-1
sVconnect
p2217
I-1
sVdns
p2218
I-1
sVwait
p2219
I28
sVblocked
p2220
I-1
ssVtime
p2221
I28
sVresponse
p2222
(dp2223
Vstatus
p2224
I204
sVcomment
p2225
g4
sVcookies
p2226
(lp2227
sVstatusText
p2228
VNo Content
p2229
sVcontent
p2230
(dp2231
VmimeType
p2232
Vtext/html; charset=UTF-8
p2233
sVcomment
p2234
g4
sVsize
p2235
I0
ssVheaders
p2236
(lp2237
sVheadersSize
p2238
I248
sVredirectURL
p2239
g4
sVbodySize
p2240
I0
sVhttpVersion
p2241
VHTTP/1.1
p2242
ssasVversion
p2243
V1.2
p2244
sVpages
p2245
(lp2246
(dp2247
VpageTimings
p2248
(dp2249
Vcomment
p2250
g4
ssVcomment
p2251
g4
sVtitle
p2252
VDraymond Green
p2253
sVid
p2254
VDraymond Green
p2255
sVstartedDateTime
p2256
V2017-04-16T08:29:15.634-05:00
p2257
sasVcreator
p2258
(dp2259
Vcomment
p2260
g4
sVversion
p2261
V2.1.4
p2262
sVname
p2263
VBrowserMob Proxy
p2264
sss.