(dp0
Vlog
p1
(dp2
Vcomment
p3
V
p4
sVentries
p5
(lp6
(dp7
Vcomment
p8
g4
sVserverIPAddress
p9
V216.58.216.196
p10
sVpageref
p11
VWashington Nationals
p12
sVstartedDateTime
p13
V2017-04-16T08:26:52.362-05:00
p14
sVcache
p15
(dp16
sVrequest
p17
(dp18
Vcomment
p19
g4
sVcookies
p20
(lp21
sVurl
p22
Vhttps://www.google.com/gen_204?atyp=i&ct=slh&cad=&ei=BXHzWIP8Meq-jwTI64z4DQ&m=V&t=C&s=1&v=2&pv=0.8802857241403822&me=1:1492349192964,x:2,V,0,0,1280,944:0,N,1,BXHzWIP8Meq-jwTI64z4DQ:0,R,1,24,8,155,1249,281:0,R,1,25,8,155,1249,261:0,R,1,26,8,155,1249,261:0,R,1,27,8,155,1249,110:0,R,1,42,8,446,1249,251:0,R,1,52,8,707,1249,301:0,R,1,53,8,707,1249,301:0,R,1,57,1142,707,115,107:0,R,1,66,8,741,1134,40:0,R,1,78,8,831,1249,40:0,R,1,79,24,831,1217,40:0,R,1,82,8,887,1249,20:0,R,1,84,8,915,1249,20:1,B,3492:19394,e,U&zx=1492349212361
p23
sVqueryString
p24
(lp25
(dp26
Vname
p27
Vatyp
p28
sVvalue
p29
Vi
p30
sa(dp31
Vname
p32
Vct
p33
sVvalue
p34
Vslh
p35
sa(dp36
Vname
p37
Vcad
p38
sVvalue
p39
g4
sa(dp40
Vname
p41
Vei
p42
sVvalue
p43
VBXHzWIP8Meq-jwTI64z4DQ
p44
sa(dp45
Vname
p46
Vm
p47
sVvalue
p48
VV
p49
sa(dp50
Vname
p51
Vt
p52
sVvalue
p53
VC
p54
sa(dp55
Vname
p56
Vs
p57
sVvalue
p58
V1
p59
sa(dp60
Vname
p61
Vv
p62
sVvalue
p63
V2
p64
sa(dp65
Vname
p66
Vpv
p67
sVvalue
p68
V0.8802857241403822
p69
sa(dp70
Vname
p71
Vme
p72
sVvalue
p73
V1:1492349192964,x:2,V,0,0,1280,944:0,N,1,BXHzWIP8Meq-jwTI64z4DQ:0,R,1,24,8,155,1249,281:0,R,1,25,8,155,1249,261:0,R,1,26,8,155,1249,261:0,R,1,27,8,155,1249,110:0,R,1,42,8,446,1249,251:0,R,1,52,8,707,1249,301:0,R,1,53,8,707,1249,301:0,R,1,57,1142,707,115,107:0,R,1,66,8,741,1134,40:0,R,1,78,8,831,1249,40:0,R,1,79,24,831,1217,40:0,R,1,82,8,887,1249,20:0,R,1,84,8,915,1249,20:1,B,3492:19394,e,U
p74
sa(dp75
Vname
p76
Vzx
p77
sVvalue
p78
V1492349212361
p79
sasVheaders
p80
(lp81
sVheadersSize
p82
I1043
sVbodySize
p83
I0
sVmethod
p84
VGET
p85
sVhttpVersion
p86
VHTTP/1.1
p87
ssVtimings
p88
(dp89
Vcomment
p90
g4
sVreceive
p91
I0
sVsend
p92
I0
sVssl
p93
I-1
sVconnect
p94
I-1
sVdns
p95
I-1
sVwait
p96
I0
sVblocked
p97
I-1
ssVtime
p98
I0
sVresponse
p99
(dp100
Vstatus
p101
I0
sVcomment
p102
g4
sVcookies
p103
(lp104
sV_error
p105
VNo response received
p106
sVstatusText
p107
g4
sVcontent
p108
(dp109
VmimeType
p110
g4
sVcomment
p111
g4
sVsize
p112
I0
ssVheaders
p113
(lp114
sVheadersSize
p115
I-1
sVredirectURL
p116
g4
sVbodySize
p117
I-1
sVhttpVersion
p118
Vunknown
p119
ssa(dp120
Vcomment
p121
g4
sVserverIPAddress
p122
V216.58.216.196
p123
sVpageref
p124
VWashington Nationals
p125
sVstartedDateTime
p126
V2017-04-16T08:26:52.363-05:00
p127
sVcache
p128
(dp129
sVrequest
p130
(dp131
Vcomment
p132
g4
sVcookies
p133
(lp134
sVurl
p135
Vhttps://www.google.com/gen_204?atyp=i&ct=slh&cad=&ei=13DzWPfiHIOLjwTNhoLABA&m=V&t=C&s=1&v=2&pv=0.7880447979059323&me=1:1492349146739,x:2,V,0,0,1280,944:0,N,1,13DzWPfiHIOLjwTNhoLABA:0,R,1,24,0,155,1197,635:0,R,1,25,0,155,1197,633:0,R,1,79,8,798,1264,545:0,R,1,80,8,842,1264,315:0,R,1,81,0,842,1280,335:2,B,4663:18745,e,U&zx=1492349212361
p136
sVqueryString
p137
(lp138
(dp139
Vname
p140
Vatyp
p141
sVvalue
p142
g30
sa(dp143
Vname
p144
Vct
p145
sVvalue
p146
Vslh
p147
sa(dp148
Vname
p149
Vcad
p150
sVvalue
p151
g4
sa(dp152
Vname
p153
Vei
p154
sVvalue
p155
V13DzWPfiHIOLjwTNhoLABA
p156
sa(dp157
Vname
p158
g47
sVvalue
p159
g49
sa(dp160
Vname
p161
g52
sVvalue
p162
g54
sa(dp163
Vname
p164
g57
sVvalue
p165
g59
sa(dp166
Vname
p167
g62
sVvalue
p168
g64
sa(dp169
Vname
p170
Vpv
p171
sVvalue
p172
V0.7880447979059323
p173
sa(dp174
Vname
p175
Vme
p176
sVvalue
p177
V1:1492349146739,x:2,V,0,0,1280,944:0,N,1,13DzWPfiHIOLjwTNhoLABA:0,R,1,24,0,155,1197,635:0,R,1,25,0,155,1197,633:0,R,1,79,8,798,1264,545:0,R,1,80,8,842,1264,315:0,R,1,81,0,842,1280,335:2,B,4663:18745,e,U
p178
sa(dp179
Vname
p180
Vzx
p181
sVvalue
p182
V1492349212361
p183
sasVheaders
p184
(lp185
sVheadersSize
p186
I853
sVbodySize
p187
I0
sVmethod
p188
VGET
p189
sVhttpVersion
p190
VHTTP/1.1
p191
ssVtimings
p192
(dp193
Vcomment
p194
g4
sVreceive
p195
I0
sVsend
p196
I0
sVssl
p197
I-1
sVconnect
p198
I-1
sVdns
p199
I-1
sVwait
p200
I0
sVblocked
p201
I-1
ssVtime
p202
I0
sVresponse
p203
(dp204
Vstatus
p205
I0
sVcomment
p206
g4
sVcookies
p207
(lp208
sV_error
p209
VNo response received
p210
sVstatusText
p211
g4
sVcontent
p212
(dp213
VmimeType
p214
g4
sVcomment
p215
g4
sVsize
p216
I0
ssVheaders
p217
(lp218
sVheadersSize
p219
I-1
sVredirectURL
p220
g4
sVbodySize
p221
I-1
sVhttpVersion
p222
Vunknown
p223
ssa(dp224
Vcomment
p225
g4
sVserverIPAddress
p226
V216.58.216.196
p227
sVpageref
p228
VWashington Nationals
p229
sVstartedDateTime
p230
V2017-04-16T08:26:52.367-05:00
p231
sVcache
p232
(dp233
sVrequest
p234
(dp235
Vcomment
p236
g4
sVcookies
p237
(lp238
sVurl
p239
Vhttp://www.google.com/
p240
sVqueryString
p241
(lp242
sVheaders
p243
(lp244
sVheadersSize
p245
I613
sVbodySize
p246
I0
sVmethod
p247
VGET
p248
sVhttpVersion
p249
VHTTP/1.1
p250
ssVtimings
p251
(dp252
Vcomment
p253
g4
sVreceive
p254
I0
sVsend
p255
I0
sVssl
p256
I-1
sVconnect
p257
I-1
sVdns
p258
I-1
sVwait
p259
I42
sVblocked
p260
I-1
ssVtime
p261
I42
sVresponse
p262
(dp263
Vstatus
p264
I302
sVcomment
p265
g4
sVcookies
p266
(lp267
sVstatusText
p268
VFound
p269
sVcontent
p270
(dp271
VmimeType
p272
Vtext/html; charset=UTF-8
p273
sVcomment
p274
g4
sVsize
p275
I0
ssVheaders
p276
(lp277
sVheadersSize
p278
I609
sVredirectURL
p279
Vhttps://www.google.com/?gws_rd=ssl
p280
sVbodySize
p281
I231
sVhttpVersion
p282
VHTTP/1.1
p283
ssa(dp284
Vcomment
p285
g4
sVserverIPAddress
p286
V216.58.216.196
p287
sVpageref
p288
VWashington Nationals
p289
sVstartedDateTime
p290
V2017-04-16T08:26:52.364-05:00
p291
sVcache
p292
(dp293
sVrequest
p294
(dp295
Vcomment
p296
g4
sVcookies
p297
(lp298
sVurl
p299
Vhttps://www.google.com
p300
sVqueryString
p301
(lp302
sVheaders
p303
(lp304
sVheadersSize
p305
I0
sVbodySize
p306
I0
sVmethod
p307
VCONNECT
p308
sVhttpVersion
p309
VHTTP/1.1
p310
ssVtimings
p311
(dp312
Vcomment
p313
g4
sVreceive
p314
I0
sVsend
p315
I0
sVssl
p316
I-1
sVconnect
p317
I47
sVdns
p318
I0
sVwait
p319
I0
sVblocked
p320
I0
ssVtime
p321
I47
sVresponse
p322
(dp323
Vstatus
p324
I0
sVcomment
p325
g4
sVcookies
p326
(lp327
sV_error
p328
VUnable to connect to host
p329
sVstatusText
p330
g4
sVcontent
p331
(dp332
VmimeType
p333
g4
sVcomment
p334
g4
sVsize
p335
I0
ssVheaders
p336
(lp337
sVheadersSize
p338
I-1
sVredirectURL
p339
g4
sVbodySize
p340
I-1
sVhttpVersion
p341
Vunknown
p342
ssa(dp343
Vcomment
p344
g4
sVserverIPAddress
p345
V216.58.216.196
p346
sVpageref
p347
VWashington Nationals
p348
sVstartedDateTime
p349
V2017-04-16T08:26:52.465-05:00
p350
sVcache
p351
(dp352
sVrequest
p353
(dp354
Vcomment
p355
g4
sVcookies
p356
(lp357
sVurl
p358
Vhttps://www.google.com/?gws_rd=ssl
p359
sVqueryString
p360
(lp361
(dp362
Vname
p363
Vgws_rd
p364
sVvalue
p365
Vssl
p366
sasVheaders
p367
(lp368
sVheadersSize
p369
I607
sVbodySize
p370
I0
sVmethod
p371
VGET
p372
sVhttpVersion
p373
VHTTP/1.1
p374
ssVtimings
p375
(dp376
Vcomment
p377
g4
sVreceive
p378
I21
sVsend
p379
I0
sVssl
p380
I23
sVconnect
p381
I48
sVdns
p382
I0
sVwait
p383
I74
sVblocked
p384
I0
ssVtime
p385
I144
sVresponse
p386
(dp387
Vstatus
p388
I200
sVcomment
p389
g4
sVcookies
p390
(lp391
sVstatusText
p392
VOK
p393
sVcontent
p394
(dp395
VmimeType
p396
Vtext/html; charset=UTF-8
p397
sVcomment
p398
g4
sVsize
p399
I0
ssVheaders
p400
(lp401
sVheadersSize
p402
I721
sVredirectURL
p403
g4
sVbodySize
p404
I34292
sVhttpVersion
p405
VHTTP/1.1
p406
ssa(dp407
Vcomment
p408
g4
sVserverIPAddress
p409
V216.58.216.196
p410
sVpageref
p411
VWashington Nationals
p412
sVstartedDateTime
p413
V2017-04-16T08:26:52.936-05:00
p414
sVcache
p415
(dp416
sVrequest
p417
(dp418
Vcomment
p419
g4
sVcookies
p420
(lp421
sVurl
p422
Vhttps://www.google.com/gen_204?s=mobilewebhp&atyp=csi&ei=G3HzWPORHOXBjwS87anoAw&imc=1&imn=1&imp=0&adh=&xjs=init.34.12.sb_mob.23.dvl.4.async.2.c.1.jsa.1&ima=1&rt=xjsls.25,prt.26,iml.26,dcl.54,xjses.130,xjsee.239,xjs.241,ol.367,aft.26,wsrt.204,cst.0,dnst.0,rqst.97,rspt.99,rqstt.104,unt.52,cstt.52,dit.247
p423
sVqueryString
p424
(lp425
(dp426
Vname
p427
g57
sVvalue
p428
Vmobilewebhp
p429
sa(dp430
Vname
p431
Vatyp
p432
sVvalue
p433
Vcsi
p434
sa(dp435
Vname
p436
Vei
p437
sVvalue
p438
VG3HzWPORHOXBjwS87anoAw
p439
sa(dp440
Vname
p441
Vimc
p442
sVvalue
p443
g59
sa(dp444
Vname
p445
Vimn
p446
sVvalue
p447
g59
sa(dp448
Vname
p449
Vimp
p450
sVvalue
p451
V0
p452
sa(dp453
Vname
p454
Vadh
p455
sVvalue
p456
g4
sa(dp457
Vname
p458
Vxjs
p459
sVvalue
p460
Vinit.34.12.sb_mob.23.dvl.4.async.2.c.1.jsa.1
p461
sa(dp462
Vname
p463
Vima
p464
sVvalue
p465
g59
sa(dp466
Vname
p467
Vrt
p468
sVvalue
p469
Vxjsls.25,prt.26,iml.26,dcl.54,xjses.130,xjsee.239,xjs.241,ol.367,aft.26,wsrt.204,cst.0,dnst.0,rqst.97,rspt.99,rqstt.104,unt.52,cstt.52,dit.247
p470
sasVheaders
p471
(lp472
sVheadersSize
p473
I831
sVbodySize
p474
I0
sVmethod
p475
VGET
p476
sVhttpVersion
p477
VHTTP/1.1
p478
ssVtimings
p479
(dp480
Vcomment
p481
g4
sVreceive
p482
I0
sVsend
p483
I0
sVssl
p484
I-1
sVconnect
p485
I-1
sVdns
p486
I-1
sVwait
p487
I25
sVblocked
p488
I-1
ssVtime
p489
I25
sVresponse
p490
(dp491
Vstatus
p492
I204
sVcomment
p493
g4
sVcookies
p494
(lp495
sVstatusText
p496
VNo Content
p497
sVcontent
p498
(dp499
VmimeType
p500
Vtext/html; charset=UTF-8
p501
sVcomment
p502
g4
sVsize
p503
I0
ssVheaders
p504
(lp505
sVheadersSize
p506
I248
sVredirectURL
p507
g4
sVbodySize
p508
I0
sVhttpVersion
p509
VHTTP/1.1
p510
ssa(dp511
Vcomment
p512
g4
sVserverIPAddress
p513
V216.58.216.196
p514
sVpageref
p515
VWashington Nationals
p516
sVstartedDateTime
p517
V2017-04-16T08:26:53.036-05:00
p518
sVcache
p519
(dp520
sVrequest
p521
(dp522
Vcomment
p523
g4
sVcookies
p524
(lp525
sVurl
p526
Vhttps://www.google.com/complete/search?client=mobile-gws-hp&hl=en&gs_rn=64&gs_ri=mobile-gws-hp&sla=1&gm=602&cp=0&gs_id=1&xhr=t&q=W&tch=1&ech=1&psi=G3HzWPORHOXBjwS87anoAw.1492349212771.1
p527
sVqueryString
p528
(lp529
(dp530
Vname
p531
Vclient
p532
sVvalue
p533
Vmobile-gws-hp
p534
sa(dp535
Vname
p536
Vhl
p537
sVvalue
p538
Ven
p539
sa(dp540
Vname
p541
Vgs_rn
p542
sVvalue
p543
V64
p544
sa(dp545
Vname
p546
Vgs_ri
p547
sVvalue
p548
Vmobile-gws-hp
p549
sa(dp550
Vname
p551
Vsla
p552
sVvalue
p553
g59
sa(dp554
Vname
p555
Vgm
p556
sVvalue
p557
V602
p558
sa(dp559
Vname
p560
Vcp
p561
sVvalue
p562
g452
sa(dp563
Vname
p564
Vgs_id
p565
sVvalue
p566
g59
sa(dp567
Vname
p568
Vxhr
p569
sVvalue
p570
g52
sa(dp571
Vname
p572
Vq
p573
sVvalue
p574
VW
p575
sa(dp576
Vname
p577
Vtch
p578
sVvalue
p579
g59
sa(dp580
Vname
p581
Vech
p582
sVvalue
p583
g59
sa(dp584
Vname
p585
Vpsi
p586
sVvalue
p587
VG3HzWPORHOXBjwS87anoAw.1492349212771.1
p588
sasVheaders
p589
(lp590
sVheadersSize
p591
I713
sVbodySize
p592
I0
sVmethod
p593
VGET
p594
sVhttpVersion
p595
VHTTP/1.1
p596
ssVtimings
p597
(dp598
Vcomment
p599
g4
sVreceive
p600
I0
sVsend
p601
I0
sVssl
p602
I-1
sVconnect
p603
I-1
sVdns
p604
I-1
sVwait
p605
I0
sVblocked
p606
I-1
ssVtime
p607
I0
sVresponse
p608
(dp609
Vstatus
p610
I0
sVcomment
p611
g4
sVcookies
p612
(lp613
sV_error
p614
VNo response received
p615
sVstatusText
p616
g4
sVcontent
p617
(dp618
VmimeType
p619
g4
sVcomment
p620
g4
sVsize
p621
I0
ssVheaders
p622
(lp623
sVheadersSize
p624
I-1
sVredirectURL
p625
g4
sVbodySize
p626
I-1
sVhttpVersion
p627
Vunknown
p628
ssa(dp629
Vcomment
p630
g4
sVserverIPAddress
p631
V216.58.216.196
p632
sVpageref
p633
VWashington Nationals
p634
sVstartedDateTime
p635
V2017-04-16T08:26:53.180-05:00
p636
sVcache
p637
(dp638
sVrequest
p639
(dp640
Vcomment
p641
g4
sVcookies
p642
(lp643
sVurl
p644
Vhttps://www.google.com/search?site=&source=hp&ei=G3HzWPORHOXBjwS87anoAw&q=Washington+Nationals&oq=Washington+Nationals&gs_l=mobile-gws-hp.3...239.292.0.329.20.1.0.0.0.0.0.0..0.0....0...1c.1.64.mobile-gws-hp..20.0.0.EF0Y5NE_tqY
p645
sVqueryString
p646
(lp647
(dp648
Vname
p649
Vsite
p650
sVvalue
p651
g4
sa(dp652
Vname
p653
Vsource
p654
sVvalue
p655
Vhp
p656
sa(dp657
Vname
p658
Vei
p659
sVvalue
p660
VG3HzWPORHOXBjwS87anoAw
p661
sa(dp662
Vname
p663
g573
sVvalue
p664
VWashington Nationals
p665
sa(dp666
Vname
p667
Voq
p668
sVvalue
p669
VWashington Nationals
p670
sa(dp671
Vname
p672
Vgs_l
p673
sVvalue
p674
Vmobile-gws-hp.3...239.292.0.329.20.1.0.0.0.0.0.0..0.0....0...1c.1.64.mobile-gws-hp..20.0.0.EF0Y5NE_tqY
p675
sasVheaders
p676
(lp677
sVheadersSize
p678
I844
sVbodySize
p679
I0
sVmethod
p680
VGET
p681
sVhttpVersion
p682
VHTTP/1.1
p683
ssVtimings
p684
(dp685
Vcomment
p686
g4
sVreceive
p687
I1091
sVsend
p688
I0
sVssl
p689
I19
sVconnect
p690
I47
sVdns
p691
I0
sVwait
p692
I99
sVblocked
p693
I0
ssVtime
p694
I1238
sVresponse
p695
(dp696
Vstatus
p697
I200
sVcomment
p698
g4
sVcookies
p699
(lp700
sVstatusText
p701
VOK
p702
sVcontent
p703
(dp704
VmimeType
p705
Vtext/html; charset=UTF-8
p706
sVcomment
p707
g4
sVsize
p708
I0
ssVheaders
p709
(lp710
sVheadersSize
p711
I363
sVredirectURL
p712
g4
sVbodySize
p713
I279018
sVhttpVersion
p714
VHTTP/1.1
p715
ssa(dp716
Vcomment
p717
g4
sVserverIPAddress
p718
V172.217.0.3
p719
sVpageref
p720
VWashington Nationals
p721
sVstartedDateTime
p722
V2017-04-16T08:26:54.302-05:00
p723
sVcache
p724
(dp725
sVrequest
p726
(dp727
Vcomment
p728
g4
sVcookies
p729
(lp730
sVurl
p731
Vhttps://ssl.gstatic.com/onebox/media/sports/logos/jEASG37S2n1Zeq8th2vEiA_48x48.png
p732
sVqueryString
p733
(lp734
sVheaders
p735
(lp736
sVheadersSize
p737
I397
sVbodySize
p738
I0
sVmethod
p739
VGET
p740
sVhttpVersion
p741
VHTTP/1.1
p742
ssVtimings
p743
(dp744
Vcomment
p745
g4
sVreceive
p746
I1
sVsend
p747
I0
sVssl
p748
I-1
sVconnect
p749
I-1
sVdns
p750
I-1
sVwait
p751
I23
sVblocked
p752
I-1
ssVtime
p753
I24
sVresponse
p754
(dp755
Vstatus
p756
I200
sVcomment
p757
g4
sVcookies
p758
(lp759
sVstatusText
p760
VOK
p761
sVcontent
p762
(dp763
VmimeType
p764
Vimage/png
p765
sVcomment
p766
g4
sVsize
p767
I0
ssVheaders
p768
(lp769
sVheadersSize
p770
I402
sVredirectURL
p771
g4
sVbodySize
p772
I5763
sVhttpVersion
p773
VHTTP/1.1
p774
ssa(dp775
Vcomment
p776
g4
sVserverIPAddress
p777
V172.217.0.3
p778
sVpageref
p779
VWashington Nationals
p780
sVstartedDateTime
p781
V2017-04-16T08:26:54.302-05:00
p782
sVcache
p783
(dp784
sVrequest
p785
(dp786
Vcomment
p787
g4
sVcookies
p788
(lp789
sVurl
p790
Vhttps://ssl.gstatic.com/onebox/media/sports/logos/DmFsZ1exRh9X0ZrTDt0Gaw_96x96.png
p791
sVqueryString
p792
(lp793
sVheaders
p794
(lp795
sVheadersSize
p796
I397
sVbodySize
p797
I0
sVmethod
p798
VGET
p799
sVhttpVersion
p800
VHTTP/1.1
p801
ssVtimings
p802
(dp803
Vcomment
p804
g4
sVreceive
p805
I6
sVsend
p806
I0
sVssl
p807
I-1
sVconnect
p808
I-1
sVdns
p809
I-1
sVwait
p810
I16
sVblocked
p811
I-1
ssVtime
p812
I23
sVresponse
p813
(dp814
Vstatus
p815
I200
sVcomment
p816
g4
sVcookies
p817
(lp818
sVstatusText
p819
VOK
p820
sVcontent
p821
(dp822
VmimeType
p823
Vimage/png
p824
sVcomment
p825
g4
sVsize
p826
I0
ssVheaders
p827
(lp828
sVheadersSize
p829
I424
sVredirectURL
p830
g4
sVbodySize
p831
I7194
sVhttpVersion
p832
VHTTP/1.1
p833
ssa(dp834
Vcomment
p835
g4
sVserverIPAddress
p836
V172.217.0.3
p837
sVpageref
p838
VWashington Nationals
p839
sVstartedDateTime
p840
V2017-04-16T08:26:54.302-05:00
p841
sVcache
p842
(dp843
sVrequest
p844
(dp845
Vcomment
p846
g4
sVcookies
p847
(lp848
sVurl
p849
Vhttps://ssl.gstatic.com/onebox/media/sports/logos/jEASG37S2n1Zeq8th2vEiA_96x96.png
p850
sVqueryString
p851
(lp852
sVheaders
p853
(lp854
sVheadersSize
p855
I397
sVbodySize
p856
I0
sVmethod
p857
VGET
p858
sVhttpVersion
p859
VHTTP/1.1
p860
ssVtimings
p861
(dp862
Vcomment
p863
g4
sVreceive
p864
I6
sVsend
p865
I0
sVssl
p866
I-1
sVconnect
p867
I-1
sVdns
p868
I-1
sVwait
p869
I25
sVblocked
p870
I-1
ssVtime
p871
I31
sVresponse
p872
(dp873
Vstatus
p874
I200
sVcomment
p875
g4
sVcookies
p876
(lp877
sVstatusText
p878
VOK
p879
sVcontent
p880
(dp881
VmimeType
p882
Vimage/png
p883
sVcomment
p884
g4
sVsize
p885
I0
ssVheaders
p886
(lp887
sVheadersSize
p888
I422
sVredirectURL
p889
g4
sVbodySize
p890
I14880
sVhttpVersion
p891
VHTTP/1.1
p892
ssa(dp893
Vcomment
p894
g4
sVserverIPAddress
p895
V172.217.0.3
p896
sVpageref
p897
VWashington Nationals
p898
sVstartedDateTime
p899
V2017-04-16T08:26:54.302-05:00
p900
sVcache
p901
(dp902
sVrequest
p903
(dp904
Vcomment
p905
g4
sVcookies
p906
(lp907
sVurl
p908
Vhttps://ssl.gstatic.com/onebox/media/sports/logos/XY1SVEZwciGu2O0ChWKv4A_48x48.png
p909
sVqueryString
p910
(lp911
sVheaders
p912
(lp913
sVheadersSize
p914
I397
sVbodySize
p915
I0
sVmethod
p916
VGET
p917
sVhttpVersion
p918
VHTTP/1.1
p919
ssVtimings
p920
(dp921
Vcomment
p922
g4
sVreceive
p923
I0
sVsend
p924
I0
sVssl
p925
I-1
sVconnect
p926
I-1
sVdns
p927
I-1
sVwait
p928
I25
sVblocked
p929
I-1
ssVtime
p930
I25
sVresponse
p931
(dp932
Vstatus
p933
I200
sVcomment
p934
g4
sVcookies
p935
(lp936
sVstatusText
p937
VOK
p938
sVcontent
p939
(dp940
VmimeType
p941
Vimage/png
p942
sVcomment
p943
g4
sVsize
p944
I0
ssVheaders
p945
(lp946
sVheadersSize
p947
I402
sVredirectURL
p948
g4
sVbodySize
p949
I2636
sVhttpVersion
p950
VHTTP/1.1
p951
ssa(dp952
Vcomment
p953
g4
sVserverIPAddress
p954
V216.58.216.196
p955
sVpageref
p956
VWashington Nationals
p957
sVstartedDateTime
p958
V2017-04-16T08:26:54.353-05:00
p959
sVcache
p960
(dp961
sVrequest
p962
(dp963
Vcomment
p964
g4
sVcookies
p965
(lp966
sVurl
p967
Vhttps://www.google.com/gen_204?atyp=i&ct=&cad=udla=1&ei=HHHzWNntCoiwjwShtKWoDA&b=0&act=p&ps=0&zx=1492349214288
p968
sVqueryString
p969
(lp970
(dp971
Vname
p972
Vatyp
p973
sVvalue
p974
g30
sa(dp975
Vname
p976
Vct
p977
sVvalue
p978
g4
sa(dp979
Vname
p980
Vcad
p981
sVvalue
p982
Vudla=1
p983
sa(dp984
Vname
p985
Vei
p986
sVvalue
p987
VHHHzWNntCoiwjwShtKWoDA
p988
sa(dp989
Vname
p990
Vb
p991
sVvalue
p992
g452
sa(dp993
Vname
p994
Vact
p995
sVvalue
p996
Vp
p997
sa(dp998
Vname
p999
Vps
p1000
sVvalue
p1001
g452
sa(dp1002
Vname
p1003
Vzx
p1004
sVvalue
p1005
V1492349214288
p1006
sasVheaders
p1007
(lp1008
sVheadersSize
p1009
I627
sVbodySize
p1010
I0
sVmethod
p1011
VGET
p1012
sVhttpVersion
p1013
VHTTP/1.1
p1014
ssVtimings
p1015
(dp1016
Vcomment
p1017
g4
sVreceive
p1018
I0
sVsend
p1019
I0
sVssl
p1020
I36
sVconnect
p1021
I50
sVdns
p1022
I0
sVwait
p1023
I51
sVblocked
p1024
I0
ssVtime
p1025
I102
sVresponse
p1026
(dp1027
Vstatus
p1028
I204
sVcomment
p1029
g4
sVcookies
p1030
(lp1031
sVstatusText
p1032
VNo Content
p1033
sVcontent
p1034
(dp1035
VmimeType
p1036
Vtext/html; charset=UTF-8
p1037
sVcomment
p1038
g4
sVsize
p1039
I0
ssVheaders
p1040
(lp1041
sVheadersSize
p1042
I248
sVredirectURL
p1043
g4
sVbodySize
p1044
I0
sVhttpVersion
p1045
VHTTP/1.1
p1046
ssa(dp1047
Vcomment
p1048
g4
sVserverIPAddress
p1049
V216.58.216.196
p1050
sVpageref
p1051
VWashington Nationals
p1052
sVstartedDateTime
p1053
V2017-04-16T08:26:55.040-05:00
p1054
sVcache
p1055
(dp1056
sVrequest
p1057
(dp1058
Vcomment
p1059
g4
sVcookies
p1060
(lp1061
sVurl
p1062
Vhttps://www.google.com/xjs/_/js/k=xjs.qs.en_US.pCBXVCvTH3s.O/m=syl,syj,syn,em3,em8,em6,em7,sym,aa,abd,sy2g,sy2k,sy29,sy2j,sy2d,sy2a,sy2c,sy2f,sy2l,sy2m,sy2n,emd,async,sybn,sybi,sybo,sy1f,sy45,sy46,sy9w,sybk,sybj,sybp,sy1g,sy30,sy47,sybm,sybl,sybq,sy1h,sybh,dvl,syep,foot,ipv6,sy5g,sy5j,sy5h,sy6u,sy7d,sy7j,sy2x,sy5i,sy89,sy7e,sy23,sy2y,sy5k,sy6c,sy91,sy9b,sy9l,syhi,syhj,syhk,syhl,lr,lrli,sy32,emj,shm,sykh,tl,sy2t,sy38,em12,vs,sy66,sy67,sy4u,sy69,sykk,sykl,tnv,bct,sy48,sy3a,sy3c,sy5b,sy4x,sy4z,sy56,sy1y,sy31,sy4y,sy22,sy6i,sy4h,sy6h,sy6o,sya3,sy5d,sy25,sy6j,sy6k,sy6r,sya2,sy5e,sy6n,emb,em9,ema,sy24,sy2o,sy4c,sy65,sy6p,sy6s,sy6w,sy72,sya4,syd7,syel,syho,syhs,syhu,syhv,sio,sy6y,sycu,d3l,sy5x,qif,tabs,sy9m,syac,sy4g,sy9n,syhz,syl6,ssc,sy26,sykr,strm,syh6,syl5,kac,kae,strx,sy2u,sy34,sy6l,sy6m,qkx,syf5,sy99,syf4,syfc,syfn,syf7,syff,sy1i,sy68,sy8d,syf6,syfl,syfr,syfq,syfg,sy1j,sy4q,sy5o,sy5r,sy8h,syc7,syc8,syfb,syfj,syfs,syft,syg3,syg5,syg7,emn,emo,syg4,syg6,ivg,iuci,img,sy4d,sy4f,sy4e,sy4b,shrb,dgm,sy41,tcc,sy1r,sy8g,syer,sy9u,syex,syey,syet,syeu,syew,syez,syf0,hlr,sy4i,syes,hlmi,sygq,kpc,kpci,sy6t,nvm,twt,sy5z,atn,sya1,ampfp/am=gCP4LtMEBXQA2RUaq_oFBISzAFA/rt=j/d=0/t=zcms/rs=ACT90oFwm4NZCwIcuuiqmthdlECdBzkhRA
p1063
sVqueryString
p1064
(lp1065
sVheaders
p1066
(lp1067
sVheadersSize
p1068
I1737
sVbodySize
p1069
I0
sVmethod
p1070
VGET
p1071
sVhttpVersion
p1072
VHTTP/1.1
p1073
ssVtimings
p1074
(dp1075
Vcomment
p1076
g4
sVreceive
p1077
I51
sVsend
p1078
I0
sVssl
p1079
I-1
sVconnect
p1080
I-1
sVdns
p1081
I-1
sVwait
p1082
I98
sVblocked
p1083
I-1
ssVtime
p1084
I150
sVresponse
p1085
(dp1086
Vstatus
p1087
I200
sVcomment
p1088
g4
sVcookies
p1089
(lp1090
sVstatusText
p1091
VOK
p1092
sVcontent
p1093
(dp1094
VmimeType
p1095
Vtext/javascript; charset=UTF-8
p1096
sVcomment
p1097
g4
sVsize
p1098
I0
ssVheaders
p1099
(lp1100
sVheadersSize
p1101
I452
sVredirectURL
p1102
g4
sVbodySize
p1103
I227469
sVhttpVersion
p1104
VHTTP/1.1
p1105
ssa(dp1106
Vcomment
p1107
g4
sVserverIPAddress
p1108
V216.58.216.196
p1109
sVpageref
p1110
VWashington Nationals
p1111
sVstartedDateTime
p1112
V2017-04-16T08:26:55.824-05:00
p1113
sVcache
p1114
(dp1115
sVrequest
p1116
(dp1117
Vcomment
p1118
g4
sVcookies
p1119
(lp1120
sVurl
p1121
Vhttps://www.google.com/async/irc?vet=10ahUKEwjZ67CFiqnTAhUI2IMKHSFaCcUQo0EIwAM..i&ved=0ahUKEwjZ67CFiqnTAhUI2IMKHSFaCcUQo0EIwAM&ei=HHHzWNntCoiwjwShtKWoDA&yv=2&async=iu:1,ved:0ahUKEwjZ67CFiqnTAhUI2IMKHSFaCcUQo0EIwAM,_id:irc_async,_pms:qs
p1122
sVqueryString
p1123
(lp1124
(dp1125
Vname
p1126
Vvet
p1127
sVvalue
p1128
V10ahUKEwjZ67CFiqnTAhUI2IMKHSFaCcUQo0EIwAM..i
p1129
sa(dp1130
Vname
p1131
Vved
p1132
sVvalue
p1133
V0ahUKEwjZ67CFiqnTAhUI2IMKHSFaCcUQo0EIwAM
p1134
sa(dp1135
Vname
p1136
Vei
p1137
sVvalue
p1138
VHHHzWNntCoiwjwShtKWoDA
p1139
sa(dp1140
Vname
p1141
Vyv
p1142
sVvalue
p1143
g64
sa(dp1144
Vname
p1145
Vasync
p1146
sVvalue
p1147
Viu:1,ved:0ahUKEwjZ67CFiqnTAhUI2IMKHSFaCcUQo0EIwAM,_id:irc_async,_pms:qs
p1148
sasVheaders
p1149
(lp1150
sVheadersSize
p1151
I752
sVbodySize
p1152
I0
sVmethod
p1153
VGET
p1154
sVhttpVersion
p1155
VHTTP/1.1
p1156
ssVtimings
p1157
(dp1158
Vcomment
p1159
g4
sVreceive
p1160
I1
sVsend
p1161
I0
sVssl
p1162
I-1
sVconnect
p1163
I-1
sVdns
p1164
I-1
sVwait
p1165
I36
sVblocked
p1166
I-1
ssVtime
p1167
I38
sVresponse
p1168
(dp1169
Vstatus
p1170
I200
sVcomment
p1171
g4
sVcookies
p1172
(lp1173
sVstatusText
p1174
VOK
p1175
sVcontent
p1176
(dp1177
VmimeType
p1178
Vtext/html; charset=UTF-8
p1179
sVcomment
p1180
g4
sVsize
p1181
I0
ssVheaders
p1182
(lp1183
sVheadersSize
p1184
I383
sVredirectURL
p1185
g4
sVbodySize
p1186
I7788
sVhttpVersion
p1187
VHTTP/1.1
p1188
ssa(dp1189
Vcomment
p1190
g4
sVserverIPAddress
p1191
V216.58.216.196
p1192
sVpageref
p1193
VWashington Nationals
p1194
sVstartedDateTime
p1195
V2017-04-16T08:26:55.942-05:00
p1196
sVcache
p1197
(dp1198
sVrequest
p1199
(dp1200
Vcomment
p1201
g4
sVcookies
p1202
(lp1203
sVurl
p1204
Vhttps://www.google.com/async/ampfp?vet=10ahUKEwjZ67CFiqnTAhUI2IMKHSFaCcUQtZoBCL4D..i&ei=HHHzWNntCoiwjwShtKWoDA&yv=2&async=_id:ampfp-async,_pms:qs
p1205
sVqueryString
p1206
(lp1207
(dp1208
Vname
p1209
Vvet
p1210
sVvalue
p1211
V10ahUKEwjZ67CFiqnTAhUI2IMKHSFaCcUQtZoBCL4D..i
p1212
sa(dp1213
Vname
p1214
Vei
p1215
sVvalue
p1216
VHHHzWNntCoiwjwShtKWoDA
p1217
sa(dp1218
Vname
p1219
Vyv
p1220
sVvalue
p1221
g64
sa(dp1222
Vname
p1223
Vasync
p1224
sVvalue
p1225
V_id:ampfp-async,_pms:qs
p1226
sasVheaders
p1227
(lp1228
sVheadersSize
p1229
I662
sVbodySize
p1230
I0
sVmethod
p1231
VGET
p1232
sVhttpVersion
p1233
VHTTP/1.1
p1234
ssVtimings
p1235
(dp1236
Vcomment
p1237
g4
sVreceive
p1238
I0
sVsend
p1239
I0
sVssl
p1240
I-1
sVconnect
p1241
I-1
sVdns
p1242
I-1
sVwait
p1243
I35
sVblocked
p1244
I-1
ssVtime
p1245
I35
sVresponse
p1246
(dp1247
Vstatus
p1248
I200
sVcomment
p1249
g4
sVcookies
p1250
(lp1251
sVstatusText
p1252
VOK
p1253
sVcontent
p1254
(dp1255
VmimeType
p1256
Vtext/html; charset=UTF-8
p1257
sVcomment
p1258
g4
sVsize
p1259
I0
ssVheaders
p1260
(lp1261
sVheadersSize
p1262
I383
sVredirectURL
p1263
g4
sVbodySize
p1264
I4521
sVhttpVersion
p1265
VHTTP/1.1
p1266
ssa(dp1267
Vcomment
p1268
g4
sVserverIPAddress
p1269
V216.58.216.193
p1270
sVpageref
p1271
VWashington Nationals
p1272
sVstartedDateTime
p1273
V2017-04-16T08:26:55.943-05:00
p1274
sVcache
p1275
(dp1276
sVrequest
p1277
(dp1278
Vcomment
p1279
g4
sVcookies
p1280
(lp1281
sVurl
p1282
Vhttps://cdn.ampproject.org/preconnect.gif?0.22687343110714886
p1283
sVqueryString
p1284
(lp1285
(dp1286
Vname
p1287
V0.22687343110714886
p1288
sVvalue
p1289
g4
sasVheaders
p1290
(lp1291
sVheadersSize
p1292
I376
sVbodySize
p1293
I0
sVmethod
p1294
VGET
p1295
sVhttpVersion
p1296
VHTTP/1.1
p1297
ssVtimings
p1298
(dp1299
Vcomment
p1300
g4
sVreceive
p1301
I0
sVsend
p1302
I0
sVssl
p1303
I-1
sVconnect
p1304
I-1
sVdns
p1305
I-1
sVwait
p1306
I27
sVblocked
p1307
I-1
ssVtime
p1308
I27
sVresponse
p1309
(dp1310
Vstatus
p1311
I200
sVcomment
p1312
g4
sVcookies
p1313
(lp1314
sVstatusText
p1315
VOK
p1316
sVcontent
p1317
(dp1318
VmimeType
p1319
Vimage/gif
p1320
sVcomment
p1321
g4
sVsize
p1322
I0
ssVheaders
p1323
(lp1324
sVheadersSize
p1325
I826
sVredirectURL
p1326
g4
sVbodySize
p1327
I37
sVhttpVersion
p1328
VHTTP/1.1
p1329
ssa(dp1330
Vcomment
p1331
g4
sVserverIPAddress
p1332
V172.217.0.1
p1333
sVpageref
p1334
VWashington Nationals
p1335
sVstartedDateTime
p1336
V2017-04-16T08:26:55.955-05:00
p1337
sVcache
p1338
(dp1339
sVrequest
p1340
(dp1341
Vcomment
p1342
g4
sVcookies
p1343
(lp1344
sVurl
p1345
Vhttps://lh3.googleusercontent.com/nxCF9l3sAi2mgW79wmqxxMsAsZnhOmHSF6MqNvViPjf1Ugk-PR0EjG4Lf9728AkxTomuKDb4zOb6nCMeIMty2vf4=w232-h131-p-no
p1346
sVqueryString
p1347
(lp1348
sVheaders
p1349
(lp1350
sVheadersSize
p1351
I452
sVbodySize
p1352
I0
sVmethod
p1353
VGET
p1354
sVhttpVersion
p1355
VHTTP/1.1
p1356
ssVtimings
p1357
(dp1358
Vcomment
p1359
g4
sVreceive
p1360
I691
sVsend
p1361
I0
sVssl
p1362
I-1
sVconnect
p1363
I-1
sVdns
p1364
I-1
sVwait
p1365
I16
sVblocked
p1366
I-1
ssVtime
p1367
I707
sVresponse
p1368
(dp1369
Vstatus
p1370
I200
sVcomment
p1371
g4
sVcookies
p1372
(lp1373
sVstatusText
p1374
VOK
p1375
sVcontent
p1376
(dp1377
VmimeType
p1378
Vimage/gif
p1379
sVcomment
p1380
g4
sVsize
p1381
I0
ssVheaders
p1382
(lp1383
sVheadersSize
p1384
I496
sVredirectURL
p1385
g4
sVbodySize
p1386
I1287241
sVhttpVersion
p1387
VHTTP/1.1
p1388
ssa(dp1389
Vcomment
p1390
g4
sVserverIPAddress
p1391
V172.217.0.1
p1392
sVpageref
p1393
VWashington Nationals
p1394
sVstartedDateTime
p1395
V2017-04-16T08:26:55.963-05:00
p1396
sVcache
p1397
(dp1398
sVrequest
p1399
(dp1400
Vcomment
p1401
g4
sVcookies
p1402
(lp1403
sVurl
p1404
Vhttps://lh3.googleusercontent.com/EEQhfuLoTdCoDxfjKHQzzeNwV5XJIYy7KiTSCTDtG1-LEcoPze1SpgtF5CpB6Eik_4N1lUZsikvGHWN9E0FGYg01=w232-h131-p-no
p1405
sVqueryString
p1406
(lp1407
sVheaders
p1408
(lp1409
sVheadersSize
p1410
I452
sVbodySize
p1411
I0
sVmethod
p1412
VGET
p1413
sVhttpVersion
p1414
VHTTP/1.1
p1415
ssVtimings
p1416
(dp1417
Vcomment
p1418
g4
sVreceive
p1419
I1003
sVsend
p1420
I0
sVssl
p1421
I-1
sVconnect
p1422
I-1
sVdns
p1423
I-1
sVwait
p1424
I22
sVblocked
p1425
I-1
ssVtime
p1426
I1026
sVresponse
p1427
(dp1428
Vstatus
p1429
I200
sVcomment
p1430
g4
sVcookies
p1431
(lp1432
sVstatusText
p1433
VOK
p1434
sVcontent
p1435
(dp1436
VmimeType
p1437
Vimage/gif
p1438
sVcomment
p1439
g4
sVsize
p1440
I0
ssVheaders
p1441
(lp1442
sVheadersSize
p1443
I496
sVredirectURL
p1444
g4
sVbodySize
p1445
I1871599
sVhttpVersion
p1446
VHTTP/1.1
p1447
ssa(dp1448
Vcomment
p1449
g4
sVserverIPAddress
p1450
V216.58.216.196
p1451
sVpageref
p1452
VWashington Nationals
p1453
sVstartedDateTime
p1454
V2017-04-16T08:26:56.327-05:00
p1455
sVcache
p1456
(dp1457
sVrequest
p1458
(dp1459
Vcomment
p1460
g4
sVcookies
p1461
(lp1462
sVurl
p1463
Vhttps://www.google.com/async/log_amp_item_set?vet=10ahUKEwirk9mGiqnTAhUB3YMKHb1hB3wQooQBCAE..i&ei=HHHzWNntCoiwjwShtKWoDA&yv=2&async=num_items:10,_fmt:jspb
p1464
sVqueryString
p1465
(lp1466
(dp1467
Vname
p1468
Vvet
p1469
sVvalue
p1470
V10ahUKEwirk9mGiqnTAhUB3YMKHb1hB3wQooQBCAE..i
p1471
sa(dp1472
Vname
p1473
Vei
p1474
sVvalue
p1475
VHHHzWNntCoiwjwShtKWoDA
p1476
sa(dp1477
Vname
p1478
Vyv
p1479
sVvalue
p1480
g64
sa(dp1481
Vname
p1482
Vasync
p1483
sVvalue
p1484
Vnum_items:10,_fmt:jspb
p1485
sasVheaders
p1486
(lp1487
sVheadersSize
p1488
I671
sVbodySize
p1489
I0
sVmethod
p1490
VGET
p1491
sVhttpVersion
p1492
VHTTP/1.1
p1493
ssVtimings
p1494
(dp1495
Vcomment
p1496
g4
sVreceive
p1497
I0
sVsend
p1498
I0
sVssl
p1499
I-1
sVconnect
p1500
I-1
sVdns
p1501
I-1
sVwait
p1502
I37
sVblocked
p1503
I-1
ssVtime
p1504
I37
sVresponse
p1505
(dp1506
Vstatus
p1507
I200
sVcomment
p1508
g4
sVcookies
p1509
(lp1510
sVstatusText
p1511
VOK
p1512
sVcontent
p1513
(dp1514
VmimeType
p1515
Vapplication/json; charset=UTF-8
p1516
sVcomment
p1517
g4
sVsize
p1518
I0
ssVheaders
p1519
(lp1520
sVheadersSize
p1521
I417
sVredirectURL
p1522
g4
sVbodySize
p1523
I183
sVhttpVersion
p1524
VHTTP/1.1
p1525
ssa(dp1526
Vcomment
p1527
g4
sVserverIPAddress
p1528
V172.217.0.1
p1529
sVpageref
p1530
VWashington Nationals
p1531
sVstartedDateTime
p1532
V2017-04-16T08:26:56.682-05:00
p1533
sVcache
p1534
(dp1535
sVrequest
p1536
(dp1537
Vcomment
p1538
g4
sVcookies
p1539
(lp1540
sVurl
p1541
Vhttps://www-washingtonpost-com.cdn.ampproject.org/v/s/www.washingtonpost.com/amphtml/sports/nationals-bullpen-issues-persist-in-4-2-loss-to-phillies/2017/04/15/c97a5970-2147-11e7-a0a7-8b2a45e3dc84_story.html?amp_js_v=9
p1542
sVqueryString
p1543
(lp1544
(dp1545
Vname
p1546
Vamp_js_v
p1547
sVvalue
p1548
V9
p1549
sasVheaders
p1550
(lp1551
sVheadersSize
p1552
I623
sVbodySize
p1553
I0
sVmethod
p1554
VGET
p1555
sVhttpVersion
p1556
VHTTP/1.1
p1557
ssVtimings
p1558
(dp1559
Vcomment
p1560
g4
sVreceive
p1561
I7
sVsend
p1562
I0
sVssl
p1563
I258
sVconnect
p1564
I291
sVdns
p1565
I43
sVwait
p1566
I180
sVblocked
p1567
I0
ssVtime
p1568
I523
sVresponse
p1569
(dp1570
Vstatus
p1571
I200
sVcomment
p1572
g4
sVcookies
p1573
(lp1574
sVstatusText
p1575
VOK
p1576
sVcontent
p1577
(dp1578
VmimeType
p1579
Vtext/html
p1580
sVcomment
p1581
g4
sVsize
p1582
I0
ssVheaders
p1583
(lp1584
sVheadersSize
p1585
I861
sVredirectURL
p1586
g4
sVbodySize
p1587
I9858
sVhttpVersion
p1588
VHTTP/1.1
p1589
ssa(dp1590
Vcomment
p1591
g4
sVserverIPAddress
p1592
V172.217.0.1
p1593
sVpageref
p1594
VWashington Nationals
p1595
sVstartedDateTime
p1596
V2017-04-16T08:26:57.363-05:00
p1597
sVcache
p1598
(dp1599
sVrequest
p1600
(dp1601
Vcomment
p1602
g4
sVcookies
p1603
(lp1604
sVurl
p1605
Vhttps://css-washingtonpost-com.cdn.ampproject.org/r/s/css.washingtonpost.com/wp-stat/wapo-sass-assets/fonts/Font-Awesome/fontawesome-webfont.woff
p1606
sVqueryString
p1607
(lp1608
sVheaders
p1609
(lp1610
sVheadersSize
p1611
I818
sVbodySize
p1612
I0
sVmethod
p1613
VGET
p1614
sVhttpVersion
p1615
VHTTP/1.1
p1616
ssVtimings
p1617
(dp1618
Vcomment
p1619
g4
sVreceive
p1620
I0
sVsend
p1621
I0
sVssl
p1622
I374
sVconnect
p1623
I390
sVdns
p1624
I65
sVwait
p1625
I23
sVblocked
p1626
I0
ssVtime
p1627
I479
sVresponse
p1628
(dp1629
Vstatus
p1630
I304
sVcomment
p1631
g4
sVcookies
p1632
(lp1633
sVstatusText
p1634
VNot Modified
p1635
sVcontent
p1636
(dp1637
VmimeType
p1638
Vapplication/font-woff
p1639
sVcomment
p1640
g4
sVsize
p1641
I0
ssVheaders
p1642
(lp1643
sVheadersSize
p1644
I356
sVredirectURL
p1645
g4
sVbodySize
p1646
I0
sVhttpVersion
p1647
VHTTP/1.1
p1648
ssa(dp1649
Vcomment
p1650
g4
sVserverIPAddress
p1651
V172.217.0.1
p1652
sVpageref
p1653
VWashington Nationals
p1654
sVstartedDateTime
p1655
V2017-04-16T08:26:57.490-05:00
p1656
sVcache
p1657
(dp1658
sVrequest
p1659
(dp1660
Vcomment
p1661
g4
sVcookies
p1662
(lp1663
sVurl
p1664
Vhttps://img-washingtonpost-com.cdn.ampproject.org/ii/w1200/s/img.washingtonpost.com/wp-apps/imrs.php?src=https://img.washingtonpost.com/rw/2010-2019/WashingtonPost/2017/04/15/Sports/Images/JN3_7897a.jpg?uuid=HpZ7VCIWEee7WadMyvHQLw&w=600
p1665
sVqueryString
p1666
(lp1667
(dp1668
Vname
p1669
Vsrc
p1670
sVvalue
p1671
Vhttps://img.washingtonpost.com/rw/2010-2019/WashingtonPost/2017/04/15/Sports/Images/JN3_7897a.jpg?uuid=HpZ7VCIWEee7WadMyvHQLw
p1672
sa(dp1673
Vname
p1674
Vw
p1675
sVvalue
p1676
V600
p1677
sasVheaders
p1678
(lp1679
sVheadersSize
p1680
I746
sVbodySize
p1681
I0
sVmethod
p1682
VGET
p1683
sVhttpVersion
p1684
VHTTP/1.1
p1685
ssVtimings
p1686
(dp1687
Vcomment
p1688
g4
sVreceive
p1689
I26
sVsend
p1690
I0
sVssl
p1691
I328
sVconnect
p1692
I341
sVdns
p1693
I40
sVwait
p1694
I23
sVblocked
p1695
I0
ssVtime
p1696
I431
sVresponse
p1697
(dp1698
Vstatus
p1699
I200
sVcomment
p1700
g4
sVcookies
p1701
(lp1702
sVstatusText
p1703
VOK
p1704
sVcontent
p1705
(dp1706
VmimeType
p1707
Vimage/jpeg
p1708
sVcomment
p1709
g4
sVsize
p1710
I0
ssVheaders
p1711
(lp1712
sVheadersSize
p1713
I849
sVredirectURL
p1714
g4
sVbodySize
p1715
I26558
sVhttpVersion
p1716
VHTTP/1.1
p1717
ssa(dp1718
Vcomment
p1719
g4
sVserverIPAddress
p1720
V216.58.216.196
p1721
sVpageref
p1722
VWashington Nationals
p1723
sVstartedDateTime
p1724
V2017-04-16T08:26:57.895-05:00
p1725
sVcache
p1726
(dp1727
sVrequest
p1728
(dp1729
Vcomment
p1730
g4
sVcookies
p1731
(lp1732
sVurl
p1733
Vhttps://www.google.com/gen_204?atyp=i&ct=slh&cad=&ei=13DzWPfiHIOLjwTNhoLABA&m=V&t=C&s=1&v=2&pv=0.7880447979059323&me=1:1492349146739,x:2,V,0,0,1280,944:0,N,1,13DzWPfiHIOLjwTNhoLABA:0,R,1,24,0,155,1197,635:0,R,1,25,0,155,1197,633:0,R,1,79,8,798,1264,545:0,R,1,80,8,842,1264,315:0,R,1,81,0,842,1280,335:2,B,4663:18745,e,U&zx=1492349217893
p1734
sVqueryString
p1735
(lp1736
(dp1737
Vname
p1738
Vatyp
p1739
sVvalue
p1740
g30
sa(dp1741
Vname
p1742
Vct
p1743
sVvalue
p1744
Vslh
p1745
sa(dp1746
Vname
p1747
Vcad
p1748
sVvalue
p1749
g4
sa(dp1750
Vname
p1751
Vei
p1752
sVvalue
p1753
V13DzWPfiHIOLjwTNhoLABA
p1754
sa(dp1755
Vname
p1756
g47
sVvalue
p1757
g49
sa(dp1758
Vname
p1759
g52
sVvalue
p1760
g54
sa(dp1761
Vname
p1762
g57
sVvalue
p1763
g59
sa(dp1764
Vname
p1765
g62
sVvalue
p1766
g64
sa(dp1767
Vname
p1768
Vpv
p1769
sVvalue
p1770
V0.7880447979059323
p1771
sa(dp1772
Vname
p1773
Vme
p1774
sVvalue
p1775
V1:1492349146739,x:2,V,0,0,1280,944:0,N,1,13DzWPfiHIOLjwTNhoLABA:0,R,1,24,0,155,1197,635:0,R,1,25,0,155,1197,633:0,R,1,79,8,798,1264,545:0,R,1,80,8,842,1264,315:0,R,1,81,0,842,1280,335:2,B,4663:18745,e,U
p1776
sa(dp1777
Vname
p1778
Vzx
p1779
sVvalue
p1780
V1492349217893
p1781
sasVheaders
p1782
(lp1783
sVheadersSize
p1784
I853
sVbodySize
p1785
I0
sVmethod
p1786
VGET
p1787
sVhttpVersion
p1788
VHTTP/1.1
p1789
ssVtimings
p1790
(dp1791
Vcomment
p1792
g4
sVreceive
p1793
I0
sVsend
p1794
I0
sVssl
p1795
I-1
sVconnect
p1796
I-1
sVdns
p1797
I-1
sVwait
p1798
I36
sVblocked
p1799
I-1
ssVtime
p1800
I36
sVresponse
p1801
(dp1802
Vstatus
p1803
I204
sVcomment
p1804
g4
sVcookies
p1805
(lp1806
sVstatusText
p1807
VNo Content
p1808
sVcontent
p1809
(dp1810
VmimeType
p1811
Vtext/html; charset=UTF-8
p1812
sVcomment
p1813
g4
sVsize
p1814
I0
ssVheaders
p1815
(lp1816
sVheadersSize
p1817
I248
sVredirectURL
p1818
g4
sVbodySize
p1819
I0
sVhttpVersion
p1820
VHTTP/1.1
p1821
ssa(dp1822
Vcomment
p1823
g4
sVserverIPAddress
p1824
V74.125.70.132
p1825
sVpageref
p1826
VWashington Nationals
p1827
sVstartedDateTime
p1828
V2017-04-16T08:26:58.457-05:00
p1829
sVcache
p1830
(dp1831
sVrequest
p1832
(dp1833
Vcomment
p1834
g4
sVcookies
p1835
(lp1836
sVurl
p1837
Vhttps://js-washingtonpost-com.cdn.ampproject.org/i/s/js.washingtonpost.com/wp-stat/analytics/t.gif
p1838
sVqueryString
p1839
(lp1840
sVheaders
p1841
(lp1842
sVheadersSize
p1843
I658
sVbodySize
p1844
I0
sVmethod
p1845
VGET
p1846
sVhttpVersion
p1847
VHTTP/1.1
p1848
ssVtimings
p1849
(dp1850
Vcomment
p1851
g4
sVreceive
p1852
I0
sVsend
p1853
I0
sVssl
p1854
I838
sVconnect
p1855
I863
sVdns
p1856
I433
sVwait
p1857
I135
sVblocked
p1858
I0
ssVtime
p1859
I1432
sVresponse
p1860
(dp1861
Vstatus
p1862
I304
sVcomment
p1863
g4
sVcookies
p1864
(lp1865
sVstatusText
p1866
VNot Modified
p1867
sVcontent
p1868
(dp1869
VmimeType
p1870
Vimage/png
p1871
sVcomment
p1872
g4
sVsize
p1873
I0
ssVheaders
p1874
(lp1875
sVheadersSize
p1876
I344
sVredirectURL
p1877
g4
sVbodySize
p1878
I0
sVhttpVersion
p1879
VHTTP/1.1
p1880
ssa(dp1881
Vcomment
p1882
g4
sVserverIPAddress
p1883
V216.58.216.196
p1884
sVpageref
p1885
VWashington Nationals
p1886
sVstartedDateTime
p1887
V2017-04-16T08:26:58.633-05:00
p1888
sVcache
p1889
(dp1890
sVrequest
p1891
(dp1892
Vcomment
p1893
g4
sVcookies
p1894
(lp1895
sVurl
p1896
Vhttps://www.google.com/gen_204?s=web&atyp=csi&ei=HHHzWNntCoiwjwShtKWoDA&imc=100&imn=100&imp=32&adh=&xjs=init.73.16.sb_mob.40.foot.11.async.9.dvl.3.mbsf.2&ima=17&rt=prt.1244,iml.1462,xjsls.1245,qiml.1534,dcl.1347,xjses.1519,xjsee.1735,xjs.1736,ol.5308,aft.1461,wsrt.165,cst.0,dnst.0,rqst.1195,rspt.1196,rqstt.52,unt.2,cstt.2,dit.1454
p1897
sVqueryString
p1898
(lp1899
(dp1900
Vname
p1901
g57
sVvalue
p1902
Vweb
p1903
sa(dp1904
Vname
p1905
Vatyp
p1906
sVvalue
p1907
Vcsi
p1908
sa(dp1909
Vname
p1910
Vei
p1911
sVvalue
p1912
VHHHzWNntCoiwjwShtKWoDA
p1913
sa(dp1914
Vname
p1915
Vimc
p1916
sVvalue
p1917
V100
p1918
sa(dp1919
Vname
p1920
Vimn
p1921
sVvalue
p1922
V100
p1923
sa(dp1924
Vname
p1925
Vimp
p1926
sVvalue
p1927
V32
p1928
sa(dp1929
Vname
p1930
Vadh
p1931
sVvalue
p1932
g4
sa(dp1933
Vname
p1934
Vxjs
p1935
sVvalue
p1936
Vinit.73.16.sb_mob.40.foot.11.async.9.dvl.3.mbsf.2
p1937
sa(dp1938
Vname
p1939
Vima
p1940
sVvalue
p1941
V17
p1942
sa(dp1943
Vname
p1944
Vrt
p1945
sVvalue
p1946
Vprt.1244,iml.1462,xjsls.1245,qiml.1534,dcl.1347,xjses.1519,xjsee.1735,xjs.1736,ol.5308,aft.1461,wsrt.165,cst.0,dnst.0,rqst.1195,rspt.1196,rqstt.52,unt.2,cstt.2,dit.1454
p1947
sasVheaders
p1948
(lp1949
sVheadersSize
p1950
I849
sVbodySize
p1951
I0
sVmethod
p1952
VGET
p1953
sVhttpVersion
p1954
VHTTP/1.1
p1955
ssVtimings
p1956
(dp1957
Vcomment
p1958
g4
sVreceive
p1959
I0
sVsend
p1960
I0
sVssl
p1961
I-1
sVconnect
p1962
I-1
sVdns
p1963
I-1
sVwait
p1964
I36
sVblocked
p1965
I-1
ssVtime
p1966
I37
sVresponse
p1967
(dp1968
Vstatus
p1969
I204
sVcomment
p1970
g4
sVcookies
p1971
(lp1972
sVstatusText
p1973
VNo Content
p1974
sVcontent
p1975
(dp1976
VmimeType
p1977
Vtext/html; charset=UTF-8
p1978
sVcomment
p1979
g4
sVsize
p1980
I0
ssVheaders
p1981
(lp1982
sVheadersSize
p1983
I248
sVredirectURL
p1984
g4
sVbodySize
p1985
I0
sVhttpVersion
p1986
VHTTP/1.1
p1987
ssasVversion
p1988
V1.2
p1989
sVpages
p1990
(lp1991
(dp1992
VpageTimings
p1993
(dp1994
Vcomment
p1995
g4
ssVcomment
p1996
g4
sVtitle
p1997
VWashington Nationals
p1998
sVid
p1999
VWashington Nationals
p2000
sVstartedDateTime
p2001
V2017-04-16T08:26:52.354-05:00
p2002
sasVcreator
p2003
(dp2004
Vcomment
p2005
g4
sVversion
p2006
V2.1.4
p2007
sVname
p2008
VBrowserMob Proxy
p2009
sss.