(dp0
Vlog
p1
(dp2
Vcomment
p3
V
p4
sVentries
p5
(lp6
(dp7
Vcomment
p8
g4
sVserverIPAddress
p9
V216.58.216.196
p10
sVpageref
p11
VHartford Yard Goats
p12
sVstartedDateTime
p13
V2017-04-16T08:26:05.490-05:00
p14
sVcache
p15
(dp16
sVrequest
p17
(dp18
Vcomment
p19
g4
sVcookies
p20
(lp21
sVurl
p22
Vhttps://www.google.com/gen_204?atyp=i&ct=slh&cad=&ei=13DzWPfiHIOLjwTNhoLABA&m=V&t=C&s=1&v=2&pv=0.7880447979059323&me=1:1492349146739,x:2,V,0,0,1280,944:0,N,1,13DzWPfiHIOLjwTNhoLABA:0,R,1,24,0,155,1197,635:0,R,1,25,0,155,1197,633:0,R,1,79,8,798,1264,545:0,R,1,80,8,842,1264,315:0,R,1,81,0,842,1280,335:2,B,4663:18745,e,U&zx=1492349165489
p23
sVqueryString
p24
(lp25
(dp26
Vname
p27
Vatyp
p28
sVvalue
p29
Vi
p30
sa(dp31
Vname
p32
Vct
p33
sVvalue
p34
Vslh
p35
sa(dp36
Vname
p37
Vcad
p38
sVvalue
p39
g4
sa(dp40
Vname
p41
Vei
p42
sVvalue
p43
V13DzWPfiHIOLjwTNhoLABA
p44
sa(dp45
Vname
p46
Vm
p47
sVvalue
p48
VV
p49
sa(dp50
Vname
p51
Vt
p52
sVvalue
p53
VC
p54
sa(dp55
Vname
p56
Vs
p57
sVvalue
p58
V1
p59
sa(dp60
Vname
p61
Vv
p62
sVvalue
p63
V2
p64
sa(dp65
Vname
p66
Vpv
p67
sVvalue
p68
V0.7880447979059323
p69
sa(dp70
Vname
p71
Vme
p72
sVvalue
p73
V1:1492349146739,x:2,V,0,0,1280,944:0,N,1,13DzWPfiHIOLjwTNhoLABA:0,R,1,24,0,155,1197,635:0,R,1,25,0,155,1197,633:0,R,1,79,8,798,1264,545:0,R,1,80,8,842,1264,315:0,R,1,81,0,842,1280,335:2,B,4663:18745,e,U
p74
sa(dp75
Vname
p76
Vzx
p77
sVvalue
p78
V1492349165489
p79
sasVheaders
p80
(lp81
sVheadersSize
p82
I853
sVbodySize
p83
I0
sVmethod
p84
VGET
p85
sVhttpVersion
p86
VHTTP/1.1
p87
ssVtimings
p88
(dp89
Vcomment
p90
g4
sVreceive
p91
I0
sVsend
p92
I0
sVssl
p93
I-1
sVconnect
p94
I-1
sVdns
p95
I-1
sVwait
p96
I0
sVblocked
p97
I-1
ssVtime
p98
I0
sVresponse
p99
(dp100
Vstatus
p101
I0
sVcomment
p102
g4
sVcookies
p103
(lp104
sV_error
p105
VNo response received
p106
sVstatusText
p107
g4
sVcontent
p108
(dp109
VmimeType
p110
g4
sVcomment
p111
g4
sVsize
p112
I0
ssVheaders
p113
(lp114
sVheadersSize
p115
I-1
sVredirectURL
p116
g4
sVbodySize
p117
I-1
sVhttpVersion
p118
Vunknown
p119
ssa(dp120
Vcomment
p121
g4
sVserverIPAddress
p122
V216.58.216.196
p123
sVpageref
p124
VHartford Yard Goats
p125
sVstartedDateTime
p126
V2017-04-16T08:26:05.500-05:00
p127
sVcache
p128
(dp129
sVrequest
p130
(dp131
Vcomment
p132
g4
sVcookies
p133
(lp134
sVurl
p135
Vhttp://www.google.com/
p136
sVqueryString
p137
(lp138
sVheaders
p139
(lp140
sVheadersSize
p141
I613
sVbodySize
p142
I0
sVmethod
p143
VGET
p144
sVhttpVersion
p145
VHTTP/1.1
p146
ssVtimings
p147
(dp148
Vcomment
p149
g4
sVreceive
p150
I0
sVsend
p151
I0
sVssl
p152
I-1
sVconnect
p153
I-1
sVdns
p154
I-1
sVwait
p155
I47
sVblocked
p156
I-1
ssVtime
p157
I47
sVresponse
p158
(dp159
Vstatus
p160
I302
sVcomment
p161
g4
sVcookies
p162
(lp163
sVstatusText
p164
VFound
p165
sVcontent
p166
(dp167
VmimeType
p168
Vtext/html; charset=UTF-8
p169
sVcomment
p170
g4
sVsize
p171
I0
ssVheaders
p172
(lp173
sVheadersSize
p174
I609
sVredirectURL
p175
Vhttps://www.google.com/?gws_rd=ssl
p176
sVbodySize
p177
I231
sVhttpVersion
p178
VHTTP/1.1
p179
ssa(dp180
Vcomment
p181
g4
sVserverIPAddress
p182
V216.58.216.196
p183
sVpageref
p184
VHartford Yard Goats
p185
sVstartedDateTime
p186
V2017-04-16T08:26:05.493-05:00
p187
sVcache
p188
(dp189
sVrequest
p190
(dp191
Vcomment
p192
g4
sVcookies
p193
(lp194
sVurl
p195
Vhttps://www.google.com
p196
sVqueryString
p197
(lp198
sVheaders
p199
(lp200
sVheadersSize
p201
I0
sVbodySize
p202
I0
sVmethod
p203
VCONNECT
p204
sVhttpVersion
p205
VHTTP/1.1
p206
ssVtimings
p207
(dp208
Vcomment
p209
g4
sVreceive
p210
I0
sVsend
p211
I0
sVssl
p212
I-1
sVconnect
p213
I56
sVdns
p214
I0
sVwait
p215
I0
sVblocked
p216
I0
ssVtime
p217
I56
sVresponse
p218
(dp219
Vstatus
p220
I0
sVcomment
p221
g4
sVcookies
p222
(lp223
sV_error
p224
VUnable to connect to host
p225
sVstatusText
p226
g4
sVcontent
p227
(dp228
VmimeType
p229
g4
sVcomment
p230
g4
sVsize
p231
I0
ssVheaders
p232
(lp233
sVheadersSize
p234
I-1
sVredirectURL
p235
g4
sVbodySize
p236
I-1
sVhttpVersion
p237
Vunknown
p238
ssa(dp239
Vcomment
p240
g4
sVserverIPAddress
p241
V216.58.216.196
p242
sVpageref
p243
VHartford Yard Goats
p244
sVstartedDateTime
p245
V2017-04-16T08:26:05.492-05:00
p246
sVcache
p247
(dp248
sVrequest
p249
(dp250
Vcomment
p251
g4
sVcookies
p252
(lp253
sVurl
p254
Vhttps://www.google.com
p255
sVqueryString
p256
(lp257
sVheaders
p258
(lp259
sVheadersSize
p260
I0
sVbodySize
p261
I0
sVmethod
p262
VCONNECT
p263
sVhttpVersion
p264
VHTTP/1.1
p265
ssVtimings
p266
(dp267
Vcomment
p268
g4
sVreceive
p269
I0
sVsend
p270
I0
sVssl
p271
I-1
sVconnect
p272
I56
sVdns
p273
I0
sVwait
p274
I0
sVblocked
p275
I0
ssVtime
p276
I56
sVresponse
p277
(dp278
Vstatus
p279
I0
sVcomment
p280
g4
sVcookies
p281
(lp282
sV_error
p283
VUnable to connect to host
p284
sVstatusText
p285
g4
sVcontent
p286
(dp287
VmimeType
p288
g4
sVcomment
p289
g4
sVsize
p290
I0
ssVheaders
p291
(lp292
sVheadersSize
p293
I-1
sVredirectURL
p294
g4
sVbodySize
p295
I-1
sVhttpVersion
p296
Vunknown
p297
ssa(dp298
Vcomment
p299
g4
sVserverIPAddress
p300
V216.58.216.196
p301
sVpageref
p302
VHartford Yard Goats
p303
sVstartedDateTime
p304
V2017-04-16T08:26:05.624-05:00
p305
sVcache
p306
(dp307
sVrequest
p308
(dp309
Vcomment
p310
g4
sVcookies
p311
(lp312
sVurl
p313
Vhttps://www.google.com/?gws_rd=ssl
p314
sVqueryString
p315
(lp316
(dp317
Vname
p318
Vgws_rd
p319
sVvalue
p320
Vssl
p321
sasVheaders
p322
(lp323
sVheadersSize
p324
I607
sVbodySize
p325
I0
sVmethod
p326
VGET
p327
sVhttpVersion
p328
VHTTP/1.1
p329
ssVtimings
p330
(dp331
Vcomment
p332
g4
sVreceive
p333
I65
sVsend
p334
I0
sVssl
p335
I55
sVconnect
p336
I71
sVdns
p337
I0
sVwait
p338
I83
sVblocked
p339
I0
ssVtime
p340
I220
sVresponse
p341
(dp342
Vstatus
p343
I200
sVcomment
p344
g4
sVcookies
p345
(lp346
sVstatusText
p347
VOK
p348
sVcontent
p349
(dp350
VmimeType
p351
Vtext/html; charset=UTF-8
p352
sVcomment
p353
g4
sVsize
p354
I0
ssVheaders
p355
(lp356
sVheadersSize
p357
I721
sVredirectURL
p358
g4
sVbodySize
p359
I34291
sVhttpVersion
p360
VHTTP/1.1
p361
ssa(dp362
Vcomment
p363
g4
sVserverIPAddress
p364
V216.58.216.196
p365
sVpageref
p366
VHartford Yard Goats
p367
sVstartedDateTime
p368
V2017-04-16T08:26:05.959-05:00
p369
sVcache
p370
(dp371
sVrequest
p372
(dp373
Vcomment
p374
g4
sVcookies
p375
(lp376
sVurl
p377
Vhttps://www.google.com/gen_204?s=mobilewebhp&atyp=csi&ei=7HDzWNCGJqjJjwTC_oaQBA&imc=1&imn=1&imp=0&adh=&xjs=init.25.12.sb_mob.19.dvl.2.c.1.jsa.1.async.1&ima=1&rt=xjsls.22,prt.23,iml.23,dcl.64,xjses.82,xjsee.175,xjs.176,ol.222,aft.23,wsrt.244,cst.0,dnst.0,rqst.151,rspt.152,rqstt.135,unt.61,cstt.61,dit.305
p378
sVqueryString
p379
(lp380
(dp381
Vname
p382
g57
sVvalue
p383
Vmobilewebhp
p384
sa(dp385
Vname
p386
Vatyp
p387
sVvalue
p388
Vcsi
p389
sa(dp390
Vname
p391
Vei
p392
sVvalue
p393
V7HDzWNCGJqjJjwTC_oaQBA
p394
sa(dp395
Vname
p396
Vimc
p397
sVvalue
p398
g59
sa(dp399
Vname
p400
Vimn
p401
sVvalue
p402
g59
sa(dp403
Vname
p404
Vimp
p405
sVvalue
p406
V0
p407
sa(dp408
Vname
p409
Vadh
p410
sVvalue
p411
g4
sa(dp412
Vname
p413
Vxjs
p414
sVvalue
p415
Vinit.25.12.sb_mob.19.dvl.2.c.1.jsa.1.async.1
p416
sa(dp417
Vname
p418
Vima
p419
sVvalue
p420
g59
sa(dp421
Vname
p422
Vrt
p423
sVvalue
p424
Vxjsls.22,prt.23,iml.23,dcl.64,xjses.82,xjsee.175,xjs.176,ol.222,aft.23,wsrt.244,cst.0,dnst.0,rqst.151,rspt.152,rqstt.135,unt.61,cstt.61,dit.305
p425
sasVheaders
p426
(lp427
sVheadersSize
p428
I832
sVbodySize
p429
I0
sVmethod
p430
VGET
p431
sVhttpVersion
p432
VHTTP/1.1
p433
ssVtimings
p434
(dp435
Vcomment
p436
g4
sVreceive
p437
I0
sVsend
p438
I0
sVssl
p439
I-1
sVconnect
p440
I-1
sVdns
p441
I-1
sVwait
p442
I133
sVblocked
p443
I-1
ssVtime
p444
I133
sVresponse
p445
(dp446
Vstatus
p447
I204
sVcomment
p448
g4
sVcookies
p449
(lp450
sVstatusText
p451
VNo Content
p452
sVcontent
p453
(dp454
VmimeType
p455
Vtext/html; charset=UTF-8
p456
sVcomment
p457
g4
sVsize
p458
I0
ssVheaders
p459
(lp460
sVheadersSize
p461
I248
sVredirectURL
p462
g4
sVbodySize
p463
I0
sVhttpVersion
p464
VHTTP/1.1
p465
ssa(dp466
Vcomment
p467
g4
sVserverIPAddress
p468
V216.58.216.196
p469
sVpageref
p470
VHartford Yard Goats
p471
sVstartedDateTime
p472
V2017-04-16T08:26:06.096-05:00
p473
sVcache
p474
(dp475
sVrequest
p476
(dp477
Vcomment
p478
g4
sVcookies
p479
(lp480
sVurl
p481
Vhttps://www.google.com/complete/search?client=mobile-gws-hp&hl=en&gs_rn=64&gs_ri=mobile-gws-hp&sla=1&pfq=hornet&gm=602&cp=0&gs_id=1&xhr=t&q=H&tch=1&ech=1&psi=7HDzWNCGJqjJjwTC_oaQBA.1492349165880.1
p482
sVqueryString
p483
(lp484
(dp485
Vname
p486
Vclient
p487
sVvalue
p488
Vmobile-gws-hp
p489
sa(dp490
Vname
p491
Vhl
p492
sVvalue
p493
Ven
p494
sa(dp495
Vname
p496
Vgs_rn
p497
sVvalue
p498
V64
p499
sa(dp500
Vname
p501
Vgs_ri
p502
sVvalue
p503
Vmobile-gws-hp
p504
sa(dp505
Vname
p506
Vsla
p507
sVvalue
p508
g59
sa(dp509
Vname
p510
Vpfq
p511
sVvalue
p512
Vhornet
p513
sa(dp514
Vname
p515
Vgm
p516
sVvalue
p517
V602
p518
sa(dp519
Vname
p520
Vcp
p521
sVvalue
p522
g407
sa(dp523
Vname
p524
Vgs_id
p525
sVvalue
p526
g59
sa(dp527
Vname
p528
Vxhr
p529
sVvalue
p530
g52
sa(dp531
Vname
p532
Vq
p533
sVvalue
p534
VH
p535
sa(dp536
Vname
p537
Vtch
p538
sVvalue
p539
g59
sa(dp540
Vname
p541
Vech
p542
sVvalue
p543
g59
sa(dp544
Vname
p545
Vpsi
p546
sVvalue
p547
V7HDzWNCGJqjJjwTC_oaQBA.1492349165880.1
p548
sasVheaders
p549
(lp550
sVheadersSize
p551
I724
sVbodySize
p552
I0
sVmethod
p553
VGET
p554
sVhttpVersion
p555
VHTTP/1.1
p556
ssVtimings
p557
(dp558
Vcomment
p559
g4
sVreceive
p560
I0
sVsend
p561
I0
sVssl
p562
I-1
sVconnect
p563
I-1
sVdns
p564
I-1
sVwait
p565
I0
sVblocked
p566
I-1
ssVtime
p567
I0
sVresponse
p568
(dp569
Vstatus
p570
I0
sVcomment
p571
g4
sVcookies
p572
(lp573
sV_error
p574
VNo response received
p575
sVstatusText
p576
g4
sVcontent
p577
(dp578
VmimeType
p579
g4
sVcomment
p580
g4
sVsize
p581
I0
ssVheaders
p582
(lp583
sVheadersSize
p584
I-1
sVredirectURL
p585
g4
sVbodySize
p586
I-1
sVhttpVersion
p587
Vunknown
p588
ssa(dp589
Vcomment
p590
g4
sVserverIPAddress
p591
V216.58.216.196
p592
sVpageref
p593
VHartford Yard Goats
p594
sVstartedDateTime
p595
V2017-04-16T08:26:06.242-05:00
p596
sVcache
p597
(dp598
sVrequest
p599
(dp600
Vcomment
p601
g4
sVcookies
p602
(lp603
sVurl
p604
Vhttps://www.google.com/search?site=&source=hp&ei=7HDzWNCGJqjJjwTC_oaQBA&q=Hartford+Yard+Goats&oq=Hartford+Yard+Goats&gs_l=mobile-gws-hp.3...193.240.0.266.19.1.0.0.0.0.0.0..0.0....0...1c.1.64.mobile-gws-hp..19.0.0.o2rQnfFqASw
p605
sVqueryString
p606
(lp607
(dp608
Vname
p609
Vsite
p610
sVvalue
p611
g4
sa(dp612
Vname
p613
Vsource
p614
sVvalue
p615
Vhp
p616
sa(dp617
Vname
p618
Vei
p619
sVvalue
p620
V7HDzWNCGJqjJjwTC_oaQBA
p621
sa(dp622
Vname
p623
g533
sVvalue
p624
VHartford Yard Goats
p625
sa(dp626
Vname
p627
Voq
p628
sVvalue
p629
VHartford Yard Goats
p630
sa(dp631
Vname
p632
Vgs_l
p633
sVvalue
p634
Vmobile-gws-hp.3...193.240.0.266.19.1.0.0.0.0.0.0..0.0....0...1c.1.64.mobile-gws-hp..19.0.0.o2rQnfFqASw
p635
sasVheaders
p636
(lp637
sVheadersSize
p638
I842
sVbodySize
p639
I0
sVmethod
p640
VGET
p641
sVhttpVersion
p642
VHTTP/1.1
p643
ssVtimings
p644
(dp645
Vcomment
p646
g4
sVreceive
p647
I974
sVsend
p648
I0
sVssl
p649
I44
sVconnect
p650
I65
sVdns
p651
I0
sVwait
p652
I98
sVblocked
p653
I0
ssVtime
p654
I1139
sVresponse
p655
(dp656
Vstatus
p657
I200
sVcomment
p658
g4
sVcookies
p659
(lp660
sVstatusText
p661
VOK
p662
sVcontent
p663
(dp664
VmimeType
p665
Vtext/html; charset=UTF-8
p666
sVcomment
p667
g4
sVsize
p668
I0
ssVheaders
p669
(lp670
sVheadersSize
p671
I363
sVredirectURL
p672
g4
sVbodySize
p673
I261294
sVhttpVersion
p674
VHTTP/1.1
p675
ssa(dp676
Vcomment
p677
g4
sVserverIPAddress
p678
V216.58.216.196
p679
sVpageref
p680
VHartford Yard Goats
p681
sVstartedDateTime
p682
V2017-04-16T08:26:08.039-05:00
p683
sVcache
p684
(dp685
sVrequest
p686
(dp687
Vcomment
p688
g4
sVcookies
p689
(lp690
sVurl
p691
Vhttps://www.google.com/maps/vt/data=RfCSdfNZ0LFPrHSm0ublXdzhdrDFhtmHhN1u-gM,0YhZIYFZnVw-X9lUeRC2xVmgiWpIfMgiiQh_Eu3CA94m6y-dOwUrqCkphG0PQnLlVZm_R4bTXQueXeiJ4OMOb984YzPzoBc7Te-vkPVSfLgP_Uk6s15sOT-0r3CimLD1kn2KcXs?scale=2&w=997
p692
sVqueryString
p693
(lp694
(dp695
Vname
p696
Vscale
p697
sVvalue
p698
g64
sa(dp699
Vname
p700
Vw
p701
sVvalue
p702
V997
p703
sasVheaders
p704
(lp705
sVheadersSize
p706
I742
sVbodySize
p707
I0
sVmethod
p708
VGET
p709
sVhttpVersion
p710
VHTTP/1.1
p711
ssVtimings
p712
(dp713
Vcomment
p714
g4
sVreceive
p715
I18
sVsend
p716
I0
sVssl
p717
I-1
sVconnect
p718
I-1
sVdns
p719
I-1
sVwait
p720
I142
sVblocked
p721
I-1
ssVtime
p722
I161
sVresponse
p723
(dp724
Vstatus
p725
I200
sVcomment
p726
g4
sVcookies
p727
(lp728
sVstatusText
p729
VOK
p730
sVcontent
p731
(dp732
VmimeType
p733
Vimage/png
p734
sVcomment
p735
g4
sVsize
p736
I0
ssVheaders
p737
(lp738
sVheadersSize
p739
I479
sVredirectURL
p740
g4
sVbodySize
p741
I79117
sVhttpVersion
p742
VHTTP/1.1
p743
ssa(dp744
Vcomment
p745
g4
sVserverIPAddress
p746
V216.58.216.196
p747
sVpageref
p748
VHartford Yard Goats
p749
sVstartedDateTime
p750
V2017-04-16T08:26:08.147-05:00
p751
sVcache
p752
(dp753
sVrequest
p754
(dp755
Vcomment
p756
g4
sVcookies
p757
(lp758
sVurl
p759
Vhttps://www.google.com/xjs/_/js/k=xjs.qs.en_US.pCBXVCvTH3s.O/m=syl,syj,syn,em3,em8,em6,em7,sym,aa,abd,sy2g,sy2k,sy29,sy2j,sy2d,sy2a,sy2c,sy2f,sy2l,sy2m,sy2n,emd,async,sybn,sybi,sybo,sy1f,sy45,sy46,sy9w,sybk,sybj,sybp,sy1g,sy30,sy47,sybm,sybl,sybq,sy1h,sybh,dvl,syep,foot,ipv6,sy3d,sy2u,sy3u,sy5m,sy89,sy78,sy6e,sy79,sy8e,sy5g,sy88,sy9b,sy6f,sy7b,sy8i,sy5j,sy5h,sy6u,sy9e,sy7k,sy9d,sy6g,sy7c,sy8n,sy7d,sy7j,sy9a,sy9h,sy9i,sy7h,sy98,sy97,sy9g,sy8s,sy7e,sy9j,sy99,sy9f,sy9k,sy96,pla,sy32,emj,shm,sy5i,sy5k,sykh,tl,sy2x,sy2y,sy2t,sy38,em12,vs,sy66,sy67,sy4u,sy69,sykk,sykl,tnv,sy4d,sy4f,sy4e,sy8z,sbbl,sy23,sy24,sy9c,plasc,sy9m,syac,sy4g,sy9n,syhz,syl6,ssc,sy1y,sy31,sy22,sy6i,sy4h,sy6h,sy6o,sy6p,sy25,sy6j,sy6k,sy6r,sy9o,emb,em9,ema,sy6q,sy6s,sy9r,sy9t,plati,bct,sy6t,nvm,twt,sy34,sy6l,sy6m,qkx,sy4c,sy4b,sy6w,shrb,syd7,dgm,syf5,syf6,syf8,sygb,syg9,kptm,syf4,sy26,syfc,syfn,syf7,syff,sy1i,sy68,sy8d,syfl,syfr,syfq,syfg,sy1j,sy4q,sy5o,sy5r,sy6n,sy8h,syc7,syc8,syfb,syfj,syfs,syft,syg3,syg5,syg7,emn,emo,syg4,syg6,ivg,iuci,img,sy41,tcc,sy6y,sycu,d3l,sy5x,sy4i,sy5y,sy6a,syeg,lie,sy6b,sccm,kch,sy2z,sy2w,syka,trex,ofmc,mexp,sy7l,sy7t,sy7q,sy87,sy7y,sy80,sy7m,sy82,sy84,sy4l,sy7v,sy7f,sy8k,syi5,syi7,syia,uvl,mtm,sy7u,sy7w,sy7p,sy7s,sy8l,sy85,sy7r,sy81,sy8q,sy7z,sy7o,sy7x,sy86,sy83,sy8t,sy3a,sy3c,sy7g,sy72,sy9u,sy7n,sy3b,sybb,sycx,syew,syi6,syi9,sy91,syb1,syaz,sygq,syi8,hcar,sy4k,sy4v,syd6,syi2,syd4,syi3,syi4,fppu,fpv,sst,syi0,cpn,sy48,sy5b,sy4x,sy4z,sy56,sy52,sy4y,sycv,sy5d,sy8y,syd0,syda,syd5,sy5e,syd1,sydb,syel,syie,pe,syej,sy8b,syek,sybe,syic,sy70,syck,sycy,syem,syid,eil,di,mpc,syjz,syk1,sy37,sya0,sydv,syf0,syig,syip,syk0,syk2,lor,wrl,rp,syha,fprl,sy5t,wra,qaim,qif,syj7,syj8,syj2,syjc,syj6,syj3,syjg,syjh,syje,syjd,syjk,syji,syjf,syj0,emr,ems,emt,emu,emv,emx,emy,emz,em10,em11,udlg,sy5z,atn,sya3,sya2,sya1,sya4,ampfp/am=gCP4LtMEBXQA2RUaq_oFBISzAFA/rt=j/d=0/t=zcms/rs=ACT90oFwm4NZCwIcuuiqmthdlECdBzkhRA
p760
sVqueryString
p761
(lp762
sVheaders
p763
(lp764
sVheadersSize
p765
I2424
sVbodySize
p766
I0
sVmethod
p767
VGET
p768
sVhttpVersion
p769
VHTTP/1.1
p770
ssVtimings
p771
(dp772
Vcomment
p773
g4
sVreceive
p774
I113
sVsend
p775
I0
sVssl
p776
I28
sVconnect
p777
I53
sVdns
p778
I0
sVwait
p779
I94
sVblocked
p780
I0
ssVtime
p781
I262
sVresponse
p782
(dp783
Vstatus
p784
I200
sVcomment
p785
g4
sVcookies
p786
(lp787
sVstatusText
p788
VOK
p789
sVcontent
p790
(dp791
VmimeType
p792
Vtext/javascript; charset=UTF-8
p793
sVcomment
p794
g4
sVsize
p795
I0
ssVheaders
p796
(lp797
sVheadersSize
p798
I452
sVredirectURL
p799
g4
sVbodySize
p800
I243932
sVhttpVersion
p801
VHTTP/1.1
p802
ssa(dp803
Vcomment
p804
g4
sVserverIPAddress
p805
V216.58.216.196
p806
sVpageref
p807
VHartford Yard Goats
p808
sVstartedDateTime
p809
V2017-04-16T08:26:08.340-05:00
p810
sVcache
p811
(dp812
sVrequest
p813
(dp814
Vcomment
p815
g4
sVcookies
p816
(lp817
sVurl
p818
Vhttps://www.google.com/gen_204?s=lu&atyp=csi&ei=7XDzWKbUDoXLjwS6-KnoDw&ima=6&rt=lmap.1953,aft.973,wsrt.1857,cst.0,dnst.0,rqst.1075,rspt.1076,rqstt.72,unt.5,cstt.5,dit.1460
p819
sVqueryString
p820
(lp821
(dp822
Vname
p823
g57
sVvalue
p824
Vlu
p825
sa(dp826
Vname
p827
Vatyp
p828
sVvalue
p829
Vcsi
p830
sa(dp831
Vname
p832
Vei
p833
sVvalue
p834
V7XDzWKbUDoXLjwS6-KnoDw
p835
sa(dp836
Vname
p837
Vima
p838
sVvalue
p839
V6
p840
sa(dp841
Vname
p842
Vrt
p843
sVvalue
p844
Vlmap.1953,aft.973,wsrt.1857,cst.0,dnst.0,rqst.1075,rspt.1076,rqstt.72,unt.5,cstt.5,dit.1460
p845
sasVheaders
p846
(lp847
sVheadersSize
p848
I688
sVbodySize
p849
I0
sVmethod
p850
VGET
p851
sVhttpVersion
p852
VHTTP/1.1
p853
ssVtimings
p854
(dp855
Vcomment
p856
g4
sVreceive
p857
I0
sVsend
p858
I0
sVssl
p859
I-1
sVconnect
p860
I-1
sVdns
p861
I-1
sVwait
p862
I29
sVblocked
p863
I-1
ssVtime
p864
I30
sVresponse
p865
(dp866
Vstatus
p867
I204
sVcomment
p868
g4
sVcookies
p869
(lp870
sVstatusText
p871
VNo Content
p872
sVcontent
p873
(dp874
VmimeType
p875
Vtext/html; charset=UTF-8
p876
sVcomment
p877
g4
sVsize
p878
I0
ssVheaders
p879
(lp880
sVheadersSize
p881
I248
sVredirectURL
p882
g4
sVbodySize
p883
I0
sVhttpVersion
p884
VHTTP/1.1
p885
ssa(dp886
Vcomment
p887
g4
sVserverIPAddress
p888
V216.58.216.196
p889
sVpageref
p890
VHartford Yard Goats
p891
sVstartedDateTime
p892
V2017-04-16T08:26:08.965-05:00
p893
sVcache
p894
(dp895
sVrequest
p896
(dp897
Vcomment
p898
g4
sVcookies
p899
(lp900
sVurl
p901
Vhttps://www.google.com/async/irc?vet=10ahUKEwjm_v_uianTAhWF5YMKHTp8Cv0Qo0EIyAI..i&ved=0ahUKEwjm_v_uianTAhWF5YMKHTp8Cv0Qo0EIyAI&ei=7XDzWKbUDoXLjwS6-KnoDw&yv=2&async=iu:1,ved:0ahUKEwjm_v_uianTAhWF5YMKHTp8Cv0Qo0EIyAI,_id:irc_async,_pms:qs
p902
sVqueryString
p903
(lp904
(dp905
Vname
p906
Vvet
p907
sVvalue
p908
V10ahUKEwjm_v_uianTAhWF5YMKHTp8Cv0Qo0EIyAI..i
p909
sa(dp910
Vname
p911
Vved
p912
sVvalue
p913
V0ahUKEwjm_v_uianTAhWF5YMKHTp8Cv0Qo0EIyAI
p914
sa(dp915
Vname
p916
Vei
p917
sVvalue
p918
V7XDzWKbUDoXLjwS6-KnoDw
p919
sa(dp920
Vname
p921
Vyv
p922
sVvalue
p923
g64
sa(dp924
Vname
p925
Vasync
p926
sVvalue
p927
Viu:1,ved:0ahUKEwjm_v_uianTAhWF5YMKHTp8Cv0Qo0EIyAI,_id:irc_async,_pms:qs
p928
sasVheaders
p929
(lp930
sVheadersSize
p931
I752
sVbodySize
p932
I0
sVmethod
p933
VGET
p934
sVhttpVersion
p935
VHTTP/1.1
p936
ssVtimings
p937
(dp938
Vcomment
p939
g4
sVreceive
p940
I1
sVsend
p941
I0
sVssl
p942
I-1
sVconnect
p943
I-1
sVdns
p944
I-1
sVwait
p945
I39
sVblocked
p946
I-1
ssVtime
p947
I41
sVresponse
p948
(dp949
Vstatus
p950
I200
sVcomment
p951
g4
sVcookies
p952
(lp953
sVstatusText
p954
VOK
p955
sVcontent
p956
(dp957
VmimeType
p958
Vtext/html; charset=UTF-8
p959
sVcomment
p960
g4
sVsize
p961
I0
ssVheaders
p962
(lp963
sVheadersSize
p964
I383
sVredirectURL
p965
g4
sVbodySize
p966
I7791
sVhttpVersion
p967
VHTTP/1.1
p968
ssa(dp969
Vcomment
p970
g4
sVserverIPAddress
p971
V216.58.216.196
p972
sVpageref
p973
VHartford Yard Goats
p974
sVstartedDateTime
p975
V2017-04-16T08:26:09.144-05:00
p976
sVcache
p977
(dp978
sVrequest
p979
(dp980
Vcomment
p981
g4
sVcookies
p982
(lp983
sVurl
p984
Vhttps://www.google.com/async/ampfp?vet=10ahUKEwjm_v_uianTAhWF5YMKHTp8Cv0QtZoBCMYC..i&ei=7XDzWKbUDoXLjwS6-KnoDw&yv=2&async=_id:ampfp-async,_pms:qs
p985
sVqueryString
p986
(lp987
(dp988
Vname
p989
Vvet
p990
sVvalue
p991
V10ahUKEwjm_v_uianTAhWF5YMKHTp8Cv0QtZoBCMYC..i
p992
sa(dp993
Vname
p994
Vei
p995
sVvalue
p996
V7XDzWKbUDoXLjwS6-KnoDw
p997
sa(dp998
Vname
p999
Vyv
p1000
sVvalue
p1001
g64
sa(dp1002
Vname
p1003
Vasync
p1004
sVvalue
p1005
V_id:ampfp-async,_pms:qs
p1006
sasVheaders
p1007
(lp1008
sVheadersSize
p1009
I662
sVbodySize
p1010
I0
sVmethod
p1011
VGET
p1012
sVhttpVersion
p1013
VHTTP/1.1
p1014
ssVtimings
p1015
(dp1016
Vcomment
p1017
g4
sVreceive
p1018
I1
sVsend
p1019
I0
sVssl
p1020
I-1
sVconnect
p1021
I-1
sVdns
p1022
I-1
sVwait
p1023
I38
sVblocked
p1024
I-1
ssVtime
p1025
I39
sVresponse
p1026
(dp1027
Vstatus
p1028
I200
sVcomment
p1029
g4
sVcookies
p1030
(lp1031
sVstatusText
p1032
VOK
p1033
sVcontent
p1034
(dp1035
VmimeType
p1036
Vtext/html; charset=UTF-8
p1037
sVcomment
p1038
g4
sVsize
p1039
I0
ssVheaders
p1040
(lp1041
sVheadersSize
p1042
I383
sVredirectURL
p1043
g4
sVbodySize
p1044
I4525
sVhttpVersion
p1045
VHTTP/1.1
p1046
ssa(dp1047
Vcomment
p1048
g4
sVserverIPAddress
p1049
V216.58.216.193
p1050
sVpageref
p1051
VHartford Yard Goats
p1052
sVstartedDateTime
p1053
V2017-04-16T08:26:09.145-05:00
p1054
sVcache
p1055
(dp1056
sVrequest
p1057
(dp1058
Vcomment
p1059
g4
sVcookies
p1060
(lp1061
sVurl
p1062
Vhttps://cdn.ampproject.org/preconnect.gif?0.04787570922815776
p1063
sVqueryString
p1064
(lp1065
(dp1066
Vname
p1067
V0.04787570922815776
p1068
sVvalue
p1069
g4
sasVheaders
p1070
(lp1071
sVheadersSize
p1072
I376
sVbodySize
p1073
I0
sVmethod
p1074
VGET
p1075
sVhttpVersion
p1076
VHTTP/1.1
p1077
ssVtimings
p1078
(dp1079
Vcomment
p1080
g4
sVreceive
p1081
I0
sVsend
p1082
I0
sVssl
p1083
I-1
sVconnect
p1084
I-1
sVdns
p1085
I-1
sVwait
p1086
I32
sVblocked
p1087
I-1
ssVtime
p1088
I32
sVresponse
p1089
(dp1090
Vstatus
p1091
I200
sVcomment
p1092
g4
sVcookies
p1093
(lp1094
sVstatusText
p1095
VOK
p1096
sVcontent
p1097
(dp1098
VmimeType
p1099
Vimage/gif
p1100
sVcomment
p1101
g4
sVsize
p1102
I0
ssVheaders
p1103
(lp1104
sVheadersSize
p1105
I826
sVredirectURL
p1106
g4
sVbodySize
p1107
I37
sVhttpVersion
p1108
VHTTP/1.1
p1109
ssa(dp1110
Vcomment
p1111
g4
sVserverIPAddress
p1112
V216.58.216.196
p1113
sVpageref
p1114
VHartford Yard Goats
p1115
sVstartedDateTime
p1116
V2017-04-16T08:26:09.385-05:00
p1117
sVcache
p1118
(dp1119
sVrequest
p1120
(dp1121
Vcomment
p1122
g4
sVcookies
p1123
(lp1124
sVurl
p1125
Vhttps://www.google.com/async/log_amp_item_set?vet=10ahUKEwjNkrHwianTAhVr7YMKHbpXAmkQooQBCAE..i&ei=7XDzWKbUDoXLjwS6-KnoDw&yv=2&async=num_items:3,_fmt:jspb
p1126
sVqueryString
p1127
(lp1128
(dp1129
Vname
p1130
Vvet
p1131
sVvalue
p1132
V10ahUKEwjNkrHwianTAhVr7YMKHbpXAmkQooQBCAE..i
p1133
sa(dp1134
Vname
p1135
Vei
p1136
sVvalue
p1137
V7XDzWKbUDoXLjwS6-KnoDw
p1138
sa(dp1139
Vname
p1140
Vyv
p1141
sVvalue
p1142
g64
sa(dp1143
Vname
p1144
Vasync
p1145
sVvalue
p1146
Vnum_items:3,_fmt:jspb
p1147
sasVheaders
p1148
(lp1149
sVheadersSize
p1150
I670
sVbodySize
p1151
I0
sVmethod
p1152
VGET
p1153
sVhttpVersion
p1154
VHTTP/1.1
p1155
ssVtimings
p1156
(dp1157
Vcomment
p1158
g4
sVreceive
p1159
I0
sVsend
p1160
I0
sVssl
p1161
I-1
sVconnect
p1162
I-1
sVdns
p1163
I-1
sVwait
p1164
I42
sVblocked
p1165
I-1
ssVtime
p1166
I43
sVresponse
p1167
(dp1168
Vstatus
p1169
I200
sVcomment
p1170
g4
sVcookies
p1171
(lp1172
sVstatusText
p1173
VOK
p1174
sVcontent
p1175
(dp1176
VmimeType
p1177
Vapplication/json; charset=UTF-8
p1178
sVcomment
p1179
g4
sVsize
p1180
I0
ssVheaders
p1181
(lp1182
sVheadersSize
p1183
I417
sVredirectURL
p1184
g4
sVbodySize
p1185
I148
sVhttpVersion
p1186
VHTTP/1.1
p1187
ssa(dp1188
Vcomment
p1189
g4
sVserverIPAddress
p1190
V172.217.0.1
p1191
sVpageref
p1192
VHartford Yard Goats
p1193
sVstartedDateTime
p1194
V2017-04-16T08:26:10.034-05:00
p1195
sVcache
p1196
(dp1197
sVrequest
p1198
(dp1199
Vcomment
p1200
g4
sVcookies
p1201
(lp1202
sVurl
p1203
Vhttps://lh5.googleusercontent.com/proxy/WMXhQ8BBGkpKVXJ0um9sJpnFVI2AH2NIjVj74ubfeEkcKS6Ck43rkA9rgfTSNLcj3b-lCHIA9yjLKu0eIscdm5jdVBR9KLzVWQ6Y0s_scGdSSZkbMHwhum_5BA6oU9c4Ytuuw05SWHXcIM_DkRmWCH-fTlc5fQ=w1280-h958-k-no-l60
p1204
sVqueryString
p1205
(lp1206
sVheaders
p1207
(lp1208
sVheadersSize
p1209
I533
sVbodySize
p1210
I0
sVmethod
p1211
VGET
p1212
sVhttpVersion
p1213
VHTTP/1.1
p1214
ssVtimings
p1215
(dp1216
Vcomment
p1217
g4
sVreceive
p1218
I0
sVsend
p1219
I0
sVssl
p1220
I576
sVconnect
p1221
I588
sVdns
p1222
I425
sVwait
p1223
I233
sVblocked
p1224
I0
ssVtime
p1225
I1248
sVresponse
p1226
(dp1227
Vstatus
p1228
I200
sVcomment
p1229
g4
sVcookies
p1230
(lp1231
sVstatusText
p1232
VOK
p1233
sVcontent
p1234
(dp1235
VmimeType
p1236
Vimage/jpeg
p1237
sVcomment
p1238
g4
sVsize
p1239
I0
ssVheaders
p1240
(lp1241
sVheadersSize
p1242
I471
sVredirectURL
p1243
g4
sVbodySize
p1244
I7271
sVhttpVersion
p1245
VHTTP/1.1
p1246
ssa(dp1247
Vcomment
p1248
g4
sVserverIPAddress
p1249
V172.217.0.1
p1250
sVpageref
p1251
VHartford Yard Goats
p1252
sVstartedDateTime
p1253
V2017-04-16T08:26:10.101-05:00
p1254
sVcache
p1255
(dp1256
sVrequest
p1257
(dp1258
Vcomment
p1259
g4
sVcookies
p1260
(lp1261
sVurl
p1262
Vhttps://lh4.googleusercontent.com/-LFbyHslHNQM/AAAAAAAAAAI/AAAAAAAAAAA/bxI4vu6shlg/s80-c-k-mo/photo.jpg
p1263
sVqueryString
p1264
(lp1265
sVheaders
p1266
(lp1267
sVheadersSize
p1268
I418
sVbodySize
p1269
I0
sVmethod
p1270
VGET
p1271
sVhttpVersion
p1272
VHTTP/1.1
p1273
ssVtimings
p1274
(dp1275
Vcomment
p1276
g4
sVreceive
p1277
I0
sVsend
p1278
I0
sVssl
p1279
I2021
sVconnect
p1280
I2049
sVdns
p1281
I8
sVwait
p1282
I26
sVblocked
p1283
I0
ssVtime
p1284
I2085
sVresponse
p1285
(dp1286
Vstatus
p1287
I200
sVcomment
p1288
g4
sVcookies
p1289
(lp1290
sVstatusText
p1291
VOK
p1292
sVcontent
p1293
(dp1294
VmimeType
p1295
Vimage/png
p1296
sVcomment
p1297
g4
sVsize
p1298
I0
ssVheaders
p1299
(lp1300
sVheadersSize
p1301
I458
sVredirectURL
p1302
g4
sVbodySize
p1303
I532
sVhttpVersion
p1304
VHTTP/1.1
p1305
ssa(dp1306
Vcomment
p1307
g4
sVserverIPAddress
p1308
V172.217.0.1
p1309
sVpageref
p1310
VHartford Yard Goats
p1311
sVstartedDateTime
p1312
V2017-04-16T08:26:10.209-05:00
p1313
sVcache
p1314
(dp1315
sVrequest
p1316
(dp1317
Vcomment
p1318
g4
sVcookies
p1319
(lp1320
sVurl
p1321
Vhttps://lh6.googleusercontent.com/-jDWwR2OTins/AAAAAAAAAAI/AAAAAAAAAAA/1NR9IJBvKmY/s80-c-k-mo/photo.jpg
p1322
sVqueryString
p1323
(lp1324
sVheaders
p1325
(lp1326
sVheadersSize
p1327
I418
sVbodySize
p1328
I0
sVmethod
p1329
VGET
p1330
sVhttpVersion
p1331
VHTTP/1.1
p1332
ssVtimings
p1333
(dp1334
Vcomment
p1335
g4
sVreceive
p1336
I0
sVsend
p1337
I0
sVssl
p1338
I2110
sVconnect
p1339
I2124
sVdns
p1340
I38
sVwait
p1341
I127
sVblocked
p1342
I0
ssVtime
p1343
I2290
sVresponse
p1344
(dp1345
Vstatus
p1346
I200
sVcomment
p1347
g4
sVcookies
p1348
(lp1349
sVstatusText
p1350
VOK
p1351
sVcontent
p1352
(dp1353
VmimeType
p1354
Vimage/png
p1355
sVcomment
p1356
g4
sVsize
p1357
I0
ssVheaders
p1358
(lp1359
sVheadersSize
p1360
I459
sVredirectURL
p1361
g4
sVbodySize
p1362
I1116
sVhttpVersion
p1363
VHTTP/1.1
p1364
ssa(dp1365
Vcomment
p1366
g4
sVserverIPAddress
p1367
V216.58.216.196
p1368
sVpageref
p1369
VHartford Yard Goats
p1370
sVstartedDateTime
p1371
V2017-04-16T08:26:11.076-05:00
p1372
sVcache
p1373
(dp1374
sVrequest
p1375
(dp1376
Vcomment
p1377
g4
sVcookies
p1378
(lp1379
sVurl
p1380
Vhttps://www.google.com/gen_204?atyp=i&ct=slh&cad=&ei=xXDzWKunGIajjwS78ZPYBg&m=V&t=C&s=1&v=2&pv=0.6845379332810134&me=1:1492349128116,x:2,V,0,0,1280,944:0,N,1,xXDzWKunGIajjwS78ZPYBg:0,R,1,24,0,155,1197,502:0,R,1,25,0,155,1197,500:0,R,1,78,8,665,1264,493:0,R,1,79,8,709,1264,315:0,R,1,80,0,709,1280,335:2,B,3201:15426,e,U&zx=1492349171074
p1381
sVqueryString
p1382
(lp1383
(dp1384
Vname
p1385
Vatyp
p1386
sVvalue
p1387
g30
sa(dp1388
Vname
p1389
Vct
p1390
sVvalue
p1391
Vslh
p1392
sa(dp1393
Vname
p1394
Vcad
p1395
sVvalue
p1396
g4
sa(dp1397
Vname
p1398
Vei
p1399
sVvalue
p1400
VxXDzWKunGIajjwS78ZPYBg
p1401
sa(dp1402
Vname
p1403
g47
sVvalue
p1404
g49
sa(dp1405
Vname
p1406
g52
sVvalue
p1407
g54
sa(dp1408
Vname
p1409
g57
sVvalue
p1410
g59
sa(dp1411
Vname
p1412
g62
sVvalue
p1413
g64
sa(dp1414
Vname
p1415
Vpv
p1416
sVvalue
p1417
V0.6845379332810134
p1418
sa(dp1419
Vname
p1420
Vme
p1421
sVvalue
p1422
V1:1492349128116,x:2,V,0,0,1280,944:0,N,1,xXDzWKunGIajjwS78ZPYBg:0,R,1,24,0,155,1197,502:0,R,1,25,0,155,1197,500:0,R,1,78,8,665,1264,493:0,R,1,79,8,709,1264,315:0,R,1,80,0,709,1280,335:2,B,3201:15426,e,U
p1423
sa(dp1424
Vname
p1425
Vzx
p1426
sVvalue
p1427
V1492349171074
p1428
sasVheaders
p1429
(lp1430
sVheadersSize
p1431
I853
sVbodySize
p1432
I0
sVmethod
p1433
VGET
p1434
sVhttpVersion
p1435
VHTTP/1.1
p1436
ssVtimings
p1437
(dp1438
Vcomment
p1439
g4
sVreceive
p1440
I0
sVsend
p1441
I0
sVssl
p1442
I-1
sVconnect
p1443
I-1
sVdns
p1444
I-1
sVwait
p1445
I33
sVblocked
p1446
I-1
ssVtime
p1447
I33
sVresponse
p1448
(dp1449
Vstatus
p1450
I204
sVcomment
p1451
g4
sVcookies
p1452
(lp1453
sVstatusText
p1454
VNo Content
p1455
sVcontent
p1456
(dp1457
VmimeType
p1458
Vtext/html; charset=UTF-8
p1459
sVcomment
p1460
g4
sVsize
p1461
I0
ssVheaders
p1462
(lp1463
sVheadersSize
p1464
I248
sVredirectURL
p1465
g4
sVbodySize
p1466
I0
sVhttpVersion
p1467
VHTTP/1.1
p1468
ssa(dp1469
Vcomment
p1470
g4
sVserverIPAddress
p1471
V172.217.0.1
p1472
sVpageref
p1473
VHartford Yard Goats
p1474
sVstartedDateTime
p1475
V2017-04-16T08:26:11.096-05:00
p1476
sVcache
p1477
(dp1478
sVrequest
p1479
(dp1480
Vcomment
p1481
g4
sVcookies
p1482
(lp1483
sVurl
p1484
Vhttps://www-courant-com.cdn.ampproject.org/v/www.courant.com/community/hartford/hc-hartford-yard-goats-reaction-20170414-story,amp.html?amp_js_v=9
p1485
sVqueryString
p1486
(lp1487
(dp1488
Vname
p1489
Vamp_js_v
p1490
sVvalue
p1491
V9
p1492
sasVheaders
p1493
(lp1494
sVheadersSize
p1495
I551
sVbodySize
p1496
I0
sVmethod
p1497
VGET
p1498
sVhttpVersion
p1499
VHTTP/1.1
p1500
ssVtimings
p1501
(dp1502
Vcomment
p1503
g4
sVreceive
p1504
I0
sVsend
p1505
I0
sVssl
p1506
I1633
sVconnect
p1507
I1648
sVdns
p1508
I48
sVwait
p1509
I85
sVblocked
p1510
I0
ssVtime
p1511
I1782
sVresponse
p1512
(dp1513
Vstatus
p1514
I200
sVcomment
p1515
g4
sVcookies
p1516
(lp1517
sVstatusText
p1518
VOK
p1519
sVcontent
p1520
(dp1521
VmimeType
p1522
Vtext/html
p1523
sVcomment
p1524
g4
sVsize
p1525
I0
ssVheaders
p1526
(lp1527
sVheadersSize
p1528
I862
sVredirectURL
p1529
g4
sVbodySize
p1530
I10317
sVhttpVersion
p1531
VHTTP/1.1
p1532
ssa(dp1533
Vcomment
p1534
g4
sVserverIPAddress
p1535
V172.217.0.1
p1536
sVpageref
p1537
VHartford Yard Goats
p1538
sVstartedDateTime
p1539
V2017-04-16T08:26:11.194-05:00
p1540
sVcache
p1541
(dp1542
sVrequest
p1543
(dp1544
Vcomment
p1545
g4
sVcookies
p1546
(lp1547
sVurl
p1548
Vhttps://www-courant-com.cdn.ampproject.org/i/www.courant.com/as/prod/hartnews/images/logo_amp.1q2w3_4ccd14f767cd91b11e12d8302ea6eb44.svg
p1549
sVqueryString
p1550
(lp1551
sVheaders
p1552
(lp1553
sVheadersSize
p1554
I574
sVbodySize
p1555
I0
sVmethod
p1556
VGET
p1557
sVhttpVersion
p1558
VHTTP/1.1
p1559
ssVtimings
p1560
(dp1561
Vcomment
p1562
g4
sVreceive
p1563
I1
sVsend
p1564
I0
sVssl
p1565
I-1
sVconnect
p1566
I-1
sVdns
p1567
I-1
sVwait
p1568
I27
sVblocked
p1569
I-1
ssVtime
p1570
I29
sVresponse
p1571
(dp1572
Vstatus
p1573
I200
sVcomment
p1574
g4
sVcookies
p1575
(lp1576
sVstatusText
p1577
VOK
p1578
sVcontent
p1579
(dp1580
VmimeType
p1581
Vimage/svg+xml
p1582
sVcomment
p1583
g4
sVsize
p1584
I0
ssVheaders
p1585
(lp1586
sVheadersSize
p1587
I881
sVredirectURL
p1588
g4
sVbodySize
p1589
I3676
sVhttpVersion
p1590
VHTTP/1.1
p1591
ssa(dp1592
Vcomment
p1593
g4
sVserverIPAddress
p1594
V172.217.0.1
p1595
sVpageref
p1596
VHartford Yard Goats
p1597
sVstartedDateTime
p1598
V2017-04-16T08:26:11.239-05:00
p1599
sVcache
p1600
(dp1601
sVrequest
p1602
(dp1603
Vcomment
p1604
g4
sVcookies
p1605
(lp1606
sVurl
p1607
Vhttps://www-courant-com.cdn.ampproject.org/i/www.courant.com/as/prod/subpa/hartnews/hccommunity/images/masthead.1q2w3_1fa3200decf547d56b96cfa244daad73.svg
p1608
sVqueryString
p1609
(lp1610
sVheaders
p1611
(lp1612
sVheadersSize
p1613
I592
sVbodySize
p1614
I0
sVmethod
p1615
VGET
p1616
sVhttpVersion
p1617
VHTTP/1.1
p1618
ssVtimings
p1619
(dp1620
Vcomment
p1621
g4
sVreceive
p1622
I1
sVsend
p1623
I0
sVssl
p1624
I24
sVconnect
p1625
I39
sVdns
p1626
I0
sVwait
p1627
I36
sVblocked
p1628
I0
ssVtime
p1629
I78
sVresponse
p1630
(dp1631
Vstatus
p1632
I200
sVcomment
p1633
g4
sVcookies
p1634
(lp1635
sVstatusText
p1636
VOK
p1637
sVcontent
p1638
(dp1639
VmimeType
p1640
Vimage/svg+xml
p1641
sVcomment
p1642
g4
sVsize
p1643
I0
ssVheaders
p1644
(lp1645
sVheadersSize
p1646
I881
sVredirectURL
p1647
g4
sVbodySize
p1648
I2997
sVhttpVersion
p1649
VHTTP/1.1
p1650
ssa(dp1651
Vcomment
p1652
g4
sVserverIPAddress
p1653
V216.58.216.196
p1654
sVpageref
p1655
VHartford Yard Goats
p1656
sVstartedDateTime
p1657
V2017-04-16T08:26:11.395-05:00
p1658
sVcache
p1659
(dp1660
sVrequest
p1661
(dp1662
Vcomment
p1663
g4
sVcookies
p1664
(lp1665
sVurl
p1666
Vhttps://www.google.com/gen_204?s=web&atyp=csi&ei=7XDzWKbUDoXLjwS6-KnoDw&imc=50&imn=50&imp=41&adh=tv.259&xjs=init.93.16.sb_mob.56.pla.9.dvl.7.trex.6.async.4&ima=6&rt=prt.934,iml.1286,xjsls.934,dcl.1379,xjses.1400,xjsee.1708,xjs.1709,qiml.1960,ol.5037,aft.973,wsrt.182,cst.0,dnst.0,rqst.1075,rspt.1076,rqstt.72,unt.5,cstt.5,dit.1460
p1667
sVqueryString
p1668
(lp1669
(dp1670
Vname
p1671
g57
sVvalue
p1672
Vweb
p1673
sa(dp1674
Vname
p1675
Vatyp
p1676
sVvalue
p1677
Vcsi
p1678
sa(dp1679
Vname
p1680
Vei
p1681
sVvalue
p1682
V7XDzWKbUDoXLjwS6-KnoDw
p1683
sa(dp1684
Vname
p1685
Vimc
p1686
sVvalue
p1687
V50
p1688
sa(dp1689
Vname
p1690
Vimn
p1691
sVvalue
p1692
V50
p1693
sa(dp1694
Vname
p1695
Vimp
p1696
sVvalue
p1697
V41
p1698
sa(dp1699
Vname
p1700
Vadh
p1701
sVvalue
p1702
Vtv.259
p1703
sa(dp1704
Vname
p1705
Vxjs
p1706
sVvalue
p1707
Vinit.93.16.sb_mob.56.pla.9.dvl.7.trex.6.async.4
p1708
sa(dp1709
Vname
p1710
Vima
p1711
sVvalue
p1712
g840
sa(dp1713
Vname
p1714
Vrt
p1715
sVvalue
p1716
Vprt.934,iml.1286,xjsls.934,dcl.1379,xjses.1400,xjsee.1708,xjs.1709,qiml.1960,ol.5037,aft.973,wsrt.182,cst.0,dnst.0,rqst.1075,rspt.1076,rqstt.72,unt.5,cstt.5,dit.1460
p1717
sasVheaders
p1718
(lp1719
sVheadersSize
p1720
I847
sVbodySize
p1721
I0
sVmethod
p1722
VGET
p1723
sVhttpVersion
p1724
VHTTP/1.1
p1725
ssVtimings
p1726
(dp1727
Vcomment
p1728
g4
sVreceive
p1729
I0
sVsend
p1730
I0
sVssl
p1731
I-1
sVconnect
p1732
I-1
sVdns
p1733
I-1
sVwait
p1734
I29
sVblocked
p1735
I-1
ssVtime
p1736
I30
sVresponse
p1737
(dp1738
Vstatus
p1739
I204
sVcomment
p1740
g4
sVcookies
p1741
(lp1742
sVstatusText
p1743
VNo Content
p1744
sVcontent
p1745
(dp1746
VmimeType
p1747
Vtext/html; charset=UTF-8
p1748
sVcomment
p1749
g4
sVsize
p1750
I0
ssVheaders
p1751
(lp1752
sVheadersSize
p1753
I248
sVredirectURL
p1754
g4
sVbodySize
p1755
I0
sVhttpVersion
p1756
VHTTP/1.1
p1757
ssasVversion
p1758
V1.2
p1759
sVpages
p1760
(lp1761
(dp1762
VpageTimings
p1763
(dp1764
Vcomment
p1765
g4
ssVcomment
p1766
g4
sVtitle
p1767
VHartford Yard Goats
p1768
sVid
p1769
VHartford Yard Goats
p1770
sVstartedDateTime
p1771
V2017-04-16T08:26:05.476-05:00
p1772
sasVcreator
p1773
(dp1774
Vcomment
p1775
g4
sVversion
p1776
V2.1.4
p1777
sVname
p1778
VBrowserMob Proxy
p1779
sss.