(dp0
Vlog
p1
(dp2
Vcomment
p3
V
p4
sVentries
p5
(lp6
(dp7
Vcomment
p8
g4
sVserverIPAddress
p9
V216.58.216.196
p10
sVpageref
p11
VPanama Papers
p12
sVstartedDateTime
p13
V2017-04-16T08:01:31.762-05:00
p14
sVcache
p15
(dp16
sVrequest
p17
(dp18
Vcomment
p19
g4
sVcookies
p20
(lp21
sVurl
p22
Vhttps://www.google.com/gen_204?atyp=i&ct=slh&cad=&ei=F2vzWNT6GoTMjwTo1qKgCQ&m=V&t=C&s=1&v=2&pv=0.6395551447344905&me=1:1492347674541,x:2,V,0,0,1280,944:0,N,1,F2vzWNT6GoTMjwTo1qKgCQ:0,R,1,24,8,155,1249,869:0,R,1,25,8,155,1249,869:0,R,1,36,8,155,1249,116:0,R,1,48,8,284,1249,40:0,R,1,55,8,399,1249,40:0,R,1,56,24,399,1217,40:0,R,1,61,8,455,1249,20:0,R,1,70,8,495,1249,213:0,R,1,71,8,544,1249,164:0,R,1,100,8,773,1249,184:0,R,1,101,0,773,1265,204:1,B,3535:17216,e,U&zx=1492347691761
p23
sVqueryString
p24
(lp25
(dp26
Vname
p27
Vatyp
p28
sVvalue
p29
Vi
p30
sa(dp31
Vname
p32
Vct
p33
sVvalue
p34
Vslh
p35
sa(dp36
Vname
p37
Vcad
p38
sVvalue
p39
g4
sa(dp40
Vname
p41
Vei
p42
sVvalue
p43
VF2vzWNT6GoTMjwTo1qKgCQ
p44
sa(dp45
Vname
p46
Vm
p47
sVvalue
p48
VV
p49
sa(dp50
Vname
p51
Vt
p52
sVvalue
p53
VC
p54
sa(dp55
Vname
p56
Vs
p57
sVvalue
p58
V1
p59
sa(dp60
Vname
p61
Vv
p62
sVvalue
p63
V2
p64
sa(dp65
Vname
p66
Vpv
p67
sVvalue
p68
V0.6395551447344905
p69
sa(dp70
Vname
p71
Vme
p72
sVvalue
p73
V1:1492347674541,x:2,V,0,0,1280,944:0,N,1,F2vzWNT6GoTMjwTo1qKgCQ:0,R,1,24,8,155,1249,869:0,R,1,25,8,155,1249,869:0,R,1,36,8,155,1249,116:0,R,1,48,8,284,1249,40:0,R,1,55,8,399,1249,40:0,R,1,56,24,399,1217,40:0,R,1,61,8,455,1249,20:0,R,1,70,8,495,1249,213:0,R,1,71,8,544,1249,164:0,R,1,100,8,773,1249,184:0,R,1,101,0,773,1265,204:1,B,3535:17216,e,U
p74
sa(dp75
Vname
p76
Vzx
p77
sVvalue
p78
V1492347691761
p79
sasVheaders
p80
(lp81
sVheadersSize
p82
I996
sVbodySize
p83
I0
sVmethod
p84
VGET
p85
sVhttpVersion
p86
VHTTP/1.1
p87
ssVtimings
p88
(dp89
Vcomment
p90
g4
sVreceive
p91
I0
sVsend
p92
I0
sVssl
p93
I-1
sVconnect
p94
I-1
sVdns
p95
I-1
sVwait
p96
I0
sVblocked
p97
I-1
ssVtime
p98
I0
sVresponse
p99
(dp100
Vstatus
p101
I0
sVcomment
p102
g4
sVcookies
p103
(lp104
sV_error
p105
VNo response received
p106
sVstatusText
p107
g4
sVcontent
p108
(dp109
VmimeType
p110
g4
sVcomment
p111
g4
sVsize
p112
I0
ssVheaders
p113
(lp114
sVheadersSize
p115
I-1
sVredirectURL
p116
g4
sVbodySize
p117
I-1
sVhttpVersion
p118
Vunknown
p119
ssa(dp120
Vcomment
p121
g4
sVserverIPAddress
p122
V216.58.216.196
p123
sVpageref
p124
VPanama Papers
p125
sVstartedDateTime
p126
V2017-04-16T08:01:31.766-05:00
p127
sVcache
p128
(dp129
sVrequest
p130
(dp131
Vcomment
p132
g4
sVcookies
p133
(lp134
sVurl
p135
Vhttp://www.google.com/
p136
sVqueryString
p137
(lp138
sVheaders
p139
(lp140
sVheadersSize
p141
I613
sVbodySize
p142
I0
sVmethod
p143
VGET
p144
sVhttpVersion
p145
VHTTP/1.1
p146
ssVtimings
p147
(dp148
Vcomment
p149
g4
sVreceive
p150
I0
sVsend
p151
I0
sVssl
p152
I-1
sVconnect
p153
I-1
sVdns
p154
I-1
sVwait
p155
I33
sVblocked
p156
I-1
ssVtime
p157
I33
sVresponse
p158
(dp159
Vstatus
p160
I302
sVcomment
p161
g4
sVcookies
p162
(lp163
sVstatusText
p164
VFound
p165
sVcontent
p166
(dp167
VmimeType
p168
Vtext/html; charset=UTF-8
p169
sVcomment
p170
g4
sVsize
p171
I0
ssVheaders
p172
(lp173
sVheadersSize
p174
I609
sVredirectURL
p175
Vhttps://www.google.com/?gws_rd=ssl
p176
sVbodySize
p177
I231
sVhttpVersion
p178
VHTTP/1.1
p179
ssa(dp180
Vcomment
p181
g4
sVserverIPAddress
p182
V216.58.216.196
p183
sVpageref
p184
VPanama Papers
p185
sVstartedDateTime
p186
V2017-04-16T08:01:31.810-05:00
p187
sVcache
p188
(dp189
sVrequest
p190
(dp191
Vcomment
p192
g4
sVcookies
p193
(lp194
sVurl
p195
Vhttps://www.google.com/?gws_rd=ssl
p196
sVqueryString
p197
(lp198
(dp199
Vname
p200
Vgws_rd
p201
sVvalue
p202
Vssl
p203
sasVheaders
p204
(lp205
sVheadersSize
p206
I607
sVbodySize
p207
I0
sVmethod
p208
VGET
p209
sVhttpVersion
p210
VHTTP/1.1
p211
ssVtimings
p212
(dp213
Vcomment
p214
g4
sVreceive
p215
I6
sVsend
p216
I0
sVssl
p217
I-1
sVconnect
p218
I-1
sVdns
p219
I-1
sVwait
p220
I86
sVblocked
p221
I-1
ssVtime
p222
I93
sVresponse
p223
(dp224
Vstatus
p225
I200
sVcomment
p226
g4
sVcookies
p227
(lp228
sVstatusText
p229
VOK
p230
sVcontent
p231
(dp232
VmimeType
p233
Vtext/html; charset=UTF-8
p234
sVcomment
p235
g4
sVsize
p236
I0
ssVheaders
p237
(lp238
sVheadersSize
p239
I721
sVredirectURL
p240
g4
sVbodySize
p241
I34293
sVhttpVersion
p242
VHTTP/1.1
p243
ssa(dp244
Vcomment
p245
g4
sVserverIPAddress
p246
V216.58.216.196
p247
sVpageref
p248
VPanama Papers
p249
sVstartedDateTime
p250
V2017-04-16T08:01:32.117-05:00
p251
sVcache
p252
(dp253
sVrequest
p254
(dp255
Vcomment
p256
g4
sVcookies
p257
(lp258
sVurl
p259
Vhttps://www.google.com/gen_204?s=mobilewebhp&atyp=csi&ei=KmvzWLXZM8rQjwT86pCYAQ&imc=1&imn=1&imp=0&adh=&xjs=init.30.12.sb_mob.21.dvl.4.mbsf.2.jsa.1.async.1&ima=1&rt=xjsls.8,prt.9,iml.9,dcl.27,xjses.71,xjsee.150,xjs.151,ol.196,aft.9,wsrt.155,cst.0,dnst.0,rqst.96,rspt.8,rqstt.49,unt.43,cstt.43,dit.172
p260
sVqueryString
p261
(lp262
(dp263
Vname
p264
g57
sVvalue
p265
Vmobilewebhp
p266
sa(dp267
Vname
p268
Vatyp
p269
sVvalue
p270
Vcsi
p271
sa(dp272
Vname
p273
Vei
p274
sVvalue
p275
VKmvzWLXZM8rQjwT86pCYAQ
p276
sa(dp277
Vname
p278
Vimc
p279
sVvalue
p280
g59
sa(dp281
Vname
p282
Vimn
p283
sVvalue
p284
g59
sa(dp285
Vname
p286
Vimp
p287
sVvalue
p288
V0
p289
sa(dp290
Vname
p291
Vadh
p292
sVvalue
p293
g4
sa(dp294
Vname
p295
Vxjs
p296
sVvalue
p297
Vinit.30.12.sb_mob.21.dvl.4.mbsf.2.jsa.1.async.1
p298
sa(dp299
Vname
p300
Vima
p301
sVvalue
p302
g59
sa(dp303
Vname
p304
Vrt
p305
sVvalue
p306
Vxjsls.8,prt.9,iml.9,dcl.27,xjses.71,xjsee.150,xjs.151,ol.196,aft.9,wsrt.155,cst.0,dnst.0,rqst.96,rspt.8,rqstt.49,unt.43,cstt.43,dit.172
p307
sasVheaders
p308
(lp309
sVheadersSize
p310
I827
sVbodySize
p311
I0
sVmethod
p312
VGET
p313
sVhttpVersion
p314
VHTTP/1.1
p315
ssVtimings
p316
(dp317
Vcomment
p318
g4
sVreceive
p319
I0
sVsend
p320
I0
sVssl
p321
I-1
sVconnect
p322
I-1
sVdns
p323
I-1
sVwait
p324
I26
sVblocked
p325
I-1
ssVtime
p326
I26
sVresponse
p327
(dp328
Vstatus
p329
I204
sVcomment
p330
g4
sVcookies
p331
(lp332
sVstatusText
p333
VNo Content
p334
sVcontent
p335
(dp336
VmimeType
p337
Vtext/html; charset=UTF-8
p338
sVcomment
p339
g4
sVsize
p340
I0
ssVheaders
p341
(lp342
sVheadersSize
p343
I248
sVredirectURL
p344
g4
sVbodySize
p345
I0
sVhttpVersion
p346
VHTTP/1.1
p347
ssa(dp348
Vcomment
p349
g4
sVserverIPAddress
p350
V216.58.216.196
p351
sVpageref
p352
VPanama Papers
p353
sVstartedDateTime
p354
V2017-04-16T08:01:32.295-05:00
p355
sVcache
p356
(dp357
sVrequest
p358
(dp359
Vcomment
p360
g4
sVcookies
p361
(lp362
sVurl
p363
Vhttps://www.google.com/complete/search?client=mobile-gws-hp&hl=en&gs_rn=64&gs_ri=mobile-gws-hp&sla=1&pfq=pokemon%20go&gm=602&cp=0&gs_id=1&xhr=t&q=P&tch=1&ech=1&psi=KmvzWLXZM8rQjwT86pCYAQ.1492347692034.1
p364
sVqueryString
p365
(lp366
(dp367
Vname
p368
Vclient
p369
sVvalue
p370
Vmobile-gws-hp
p371
sa(dp372
Vname
p373
Vhl
p374
sVvalue
p375
Ven
p376
sa(dp377
Vname
p378
Vgs_rn
p379
sVvalue
p380
V64
p381
sa(dp382
Vname
p383
Vgs_ri
p384
sVvalue
p385
Vmobile-gws-hp
p386
sa(dp387
Vname
p388
Vsla
p389
sVvalue
p390
g59
sa(dp391
Vname
p392
Vpfq
p393
sVvalue
p394
Vpokemon go
p395
sa(dp396
Vname
p397
Vgm
p398
sVvalue
p399
V602
p400
sa(dp401
Vname
p402
Vcp
p403
sVvalue
p404
g289
sa(dp405
Vname
p406
Vgs_id
p407
sVvalue
p408
g59
sa(dp409
Vname
p410
Vxhr
p411
sVvalue
p412
g52
sa(dp413
Vname
p414
Vq
p415
sVvalue
p416
VP
p417
sa(dp418
Vname
p419
Vtch
p420
sVvalue
p421
g59
sa(dp422
Vname
p423
Vech
p424
sVvalue
p425
g59
sa(dp426
Vname
p427
Vpsi
p428
sVvalue
p429
VKmvzWLXZM8rQjwT86pCYAQ.1492347692034.1
p430
sasVheaders
p431
(lp432
sVheadersSize
p433
I730
sVbodySize
p434
I0
sVmethod
p435
VGET
p436
sVhttpVersion
p437
VHTTP/1.1
p438
ssVtimings
p439
(dp440
Vcomment
p441
g4
sVreceive
p442
I0
sVsend
p443
I0
sVssl
p444
I-1
sVconnect
p445
I-1
sVdns
p446
I-1
sVwait
p447
I0
sVblocked
p448
I-1
ssVtime
p449
I0
sVresponse
p450
(dp451
Vstatus
p452
I0
sVcomment
p453
g4
sVcookies
p454
(lp455
sV_error
p456
VNo response received
p457
sVstatusText
p458
g4
sVcontent
p459
(dp460
VmimeType
p461
g4
sVcomment
p462
g4
sVsize
p463
I0
ssVheaders
p464
(lp465
sVheadersSize
p466
I-1
sVredirectURL
p467
g4
sVbodySize
p468
I-1
sVhttpVersion
p469
Vunknown
p470
ssa(dp471
Vcomment
p472
g4
sVserverIPAddress
p473
V216.58.216.196
p474
sVpageref
p475
VPanama Papers
p476
sVstartedDateTime
p477
V2017-04-16T08:01:32.407-05:00
p478
sVcache
p479
(dp480
sVrequest
p481
(dp482
Vcomment
p483
g4
sVcookies
p484
(lp485
sVurl
p486
Vhttps://www.google.com/search?site=&source=hp&ei=KmvzWLXZM8rQjwT86pCYAQ&q=Panama+Papers&oq=Panama+Papers&gs_l=mobile-gws-hp.3...237.297.0.344.13.1.0.0.0.0.0.0..0.0....0...1c.1.64.mobile-gws-hp..13.0.0.keRkk1vUlNQ
p487
sVqueryString
p488
(lp489
(dp490
Vname
p491
Vsite
p492
sVvalue
p493
g4
sa(dp494
Vname
p495
Vsource
p496
sVvalue
p497
Vhp
p498
sa(dp499
Vname
p500
Vei
p501
sVvalue
p502
VKmvzWLXZM8rQjwT86pCYAQ
p503
sa(dp504
Vname
p505
g415
sVvalue
p506
VPanama Papers
p507
sa(dp508
Vname
p509
Voq
p510
sVvalue
p511
VPanama Papers
p512
sa(dp513
Vname
p514
Vgs_l
p515
sVvalue
p516
Vmobile-gws-hp.3...237.297.0.344.13.1.0.0.0.0.0.0..0.0....0...1c.1.64.mobile-gws-hp..13.0.0.keRkk1vUlNQ
p517
sasVheaders
p518
(lp519
sVheadersSize
p520
I830
sVbodySize
p521
I0
sVmethod
p522
VGET
p523
sVhttpVersion
p524
VHTTP/1.1
p525
ssVtimings
p526
(dp527
Vcomment
p528
g4
sVreceive
p529
I1068
sVsend
p530
I0
sVssl
p531
I-1
sVconnect
p532
I-1
sVdns
p533
I-1
sVwait
p534
I86
sVblocked
p535
I-1
ssVtime
p536
I1154
sVresponse
p537
(dp538
Vstatus
p539
I200
sVcomment
p540
g4
sVcookies
p541
(lp542
sVstatusText
p543
VOK
p544
sVcontent
p545
(dp546
VmimeType
p547
Vtext/html; charset=UTF-8
p548
sVcomment
p549
g4
sVsize
p550
I0
ssVheaders
p551
(lp552
sVheadersSize
p553
I363
sVredirectURL
p554
g4
sVbodySize
p555
I44479
sVhttpVersion
p556
VHTTP/1.1
p557
ssa(dp558
Vcomment
p559
g4
sVserverIPAddress
p560
V216.58.216.196
p561
sVpageref
p562
VPanama Papers
p563
sVstartedDateTime
p564
V2017-04-16T08:01:33.951-05:00
p565
sVcache
p566
(dp567
sVrequest
p568
(dp569
Vcomment
p570
g4
sVcookies
p571
(lp572
sVurl
p573
Vhttps://www.google.com/xjs/_/js/k=xjs.qs.en_US.pCBXVCvTH3s.O/m=syl,syj,syn,em3,em8,em6,em7,sym,aa,abd,sy2g,sy2k,sy29,sy2j,sy2d,sy2a,sy2c,sy2f,sy2l,sy2m,sy2n,emd,async,sybn,sybi,sybo,sy1f,sy45,sy46,sy9w,sybk,sybj,sybp,sy1g,sy30,sy47,sybm,sybl,sybq,sy1h,sybh,dvl,syep,foot,ipv6,sy32,emj,shm,sy5g,sy5i,sy5k,sykh,tl,sy2x,sy2y,sy2t,sy38,em12,vs,sy5j,sy5h,sy6u,sy66,sy67,sy7d,sy7j,sy4u,sy69,sy89,sy7e,sykk,sykl,tnv,bct,sy1y,syf5,sy99,syf4,sy26,syfc,syfn,syf7,syff,sy1i,sy22,sy6i,sy68,sy8d,sy9b,syf6,sy23,syfl,syfr,syfq,sy25,syfg,sy1j,sy4q,sy5o,sy5r,sy6j,sy6n,sy6p,sy8h,syc7,syc8,syfb,syfj,syfs,syft,syg3,syg5,syg7,emb,em9,ema,sy24,emn,emo,syg4,syg6,ivg,sy9m,sy9n,iuci,img,sy4d,sy2u,sy4f,sy4c,sy4e,sy4b,sy6w,shrb,sy4g,syd7,dgm,sy41,tcc,sy6y,sycu,d3l,syj7,syj8,syj2,syjc,syj6,syj3,syjg,syjh,syje,syjd,syjk,syji,syjf,syj0,emr,ems,emt,emu,emv,emx,emy,emz,em10,em11,udlg,sy5z,atn,sy31,sya3,sy4h,sya2,sy4i,sya1,sya4,ampfp/am=gCP4LtMEBXQA2RUaq_oFBISzAFA/rt=j/d=0/t=zcms/rs=ACT90oFwm4NZCwIcuuiqmthdlECdBzkhRA
p574
sVqueryString
p575
(lp576
sVheaders
p577
(lp578
sVheadersSize
p579
I1511
sVbodySize
p580
I0
sVmethod
p581
VGET
p582
sVhttpVersion
p583
VHTTP/1.1
p584
ssVtimings
p585
(dp586
Vcomment
p587
g4
sVreceive
p588
I51
sVsend
p589
I0
sVssl
p590
I-1
sVconnect
p591
I-1
sVdns
p592
I-1
sVwait
p593
I17
sVblocked
p594
I-1
ssVtime
p595
I69
sVresponse
p596
(dp597
Vstatus
p598
I200
sVcomment
p599
g4
sVcookies
p600
(lp601
sVstatusText
p602
VOK
p603
sVcontent
p604
(dp605
VmimeType
p606
Vtext/javascript; charset=UTF-8
p607
sVcomment
p608
g4
sVsize
p609
I0
ssVheaders
p610
(lp611
sVheadersSize
p612
I465
sVredirectURL
p613
g4
sVbodySize
p614
I102881
sVhttpVersion
p615
VHTTP/1.1
p616
ssa(dp617
Vcomment
p618
g4
sVserverIPAddress
p619
V216.58.216.196
p620
sVpageref
p621
VPanama Papers
p622
sVstartedDateTime
p623
V2017-04-16T08:01:34.154-05:00
p624
sVcache
p625
(dp626
sVrequest
p627
(dp628
Vcomment
p629
g4
sVcookies
p630
(lp631
sVurl
p632
Vhttps://www.google.com/async/irc?vet=10ahUKEwj4rJ2whKnTAhVh5oMKHcyHDykQo0EIfg..i&ved=0ahUKEwj4rJ2whKnTAhVh5oMKHcyHDykQo0EIfg&ei=K2vzWLjrGeHMjwTMj77IAg&yv=2&async=iu:1,ved:0ahUKEwj4rJ2whKnTAhVh5oMKHcyHDykQo0EIfg,_id:irc_async,_pms:qs
p633
sVqueryString
p634
(lp635
(dp636
Vname
p637
Vvet
p638
sVvalue
p639
V10ahUKEwj4rJ2whKnTAhVh5oMKHcyHDykQo0EIfg..i
p640
sa(dp641
Vname
p642
Vved
p643
sVvalue
p644
V0ahUKEwj4rJ2whKnTAhVh5oMKHcyHDykQo0EIfg
p645
sa(dp646
Vname
p647
Vei
p648
sVvalue
p649
VK2vzWLjrGeHMjwTMj77IAg
p650
sa(dp651
Vname
p652
Vyv
p653
sVvalue
p654
g64
sa(dp655
Vname
p656
Vasync
p657
sVvalue
p658
Viu:1,ved:0ahUKEwj4rJ2whKnTAhVh5oMKHcyHDykQo0EIfg,_id:irc_async,_pms:qs
p659
sasVheaders
p660
(lp661
sVheadersSize
p662
I749
sVbodySize
p663
I0
sVmethod
p664
VGET
p665
sVhttpVersion
p666
VHTTP/1.1
p667
ssVtimings
p668
(dp669
Vcomment
p670
g4
sVreceive
p671
I2
sVsend
p672
I0
sVssl
p673
I-1
sVconnect
p674
I-1
sVdns
p675
I-1
sVwait
p676
I34
sVblocked
p677
I-1
ssVtime
p678
I37
sVresponse
p679
(dp680
Vstatus
p681
I200
sVcomment
p682
g4
sVcookies
p683
(lp684
sVstatusText
p685
VOK
p686
sVcontent
p687
(dp688
VmimeType
p689
Vtext/html; charset=UTF-8
p690
sVcomment
p691
g4
sVsize
p692
I0
ssVheaders
p693
(lp694
sVheadersSize
p695
I383
sVredirectURL
p696
g4
sVbodySize
p697
I7789
sVhttpVersion
p698
VHTTP/1.1
p699
ssa(dp700
Vcomment
p701
g4
sVserverIPAddress
p702
V216.58.216.196
p703
sVpageref
p704
VPanama Papers
p705
sVstartedDateTime
p706
V2017-04-16T08:01:34.198-05:00
p707
sVcache
p708
(dp709
sVrequest
p710
(dp711
Vcomment
p712
g4
sVcookies
p713
(lp714
sVurl
p715
Vhttps://www.google.com/async/ampfp?vet=10ahUKEwj4rJ2whKnTAhVh5oMKHcyHDykQtZoBCHw..i&ei=K2vzWLjrGeHMjwTMj77IAg&yv=2&async=_id:ampfp-async,_pms:qs
p716
sVqueryString
p717
(lp718
(dp719
Vname
p720
Vvet
p721
sVvalue
p722
V10ahUKEwj4rJ2whKnTAhVh5oMKHcyHDykQtZoBCHw..i
p723
sa(dp724
Vname
p725
Vei
p726
sVvalue
p727
VK2vzWLjrGeHMjwTMj77IAg
p728
sa(dp729
Vname
p730
Vyv
p731
sVvalue
p732
g64
sa(dp733
Vname
p734
Vasync
p735
sVvalue
p736
V_id:ampfp-async,_pms:qs
p737
sasVheaders
p738
(lp739
sVheadersSize
p740
I661
sVbodySize
p741
I0
sVmethod
p742
VGET
p743
sVhttpVersion
p744
VHTTP/1.1
p745
ssVtimings
p746
(dp747
Vcomment
p748
g4
sVreceive
p749
I0
sVsend
p750
I0
sVssl
p751
I-1
sVconnect
p752
I-1
sVdns
p753
I-1
sVwait
p754
I38
sVblocked
p755
I-1
ssVtime
p756
I39
sVresponse
p757
(dp758
Vstatus
p759
I200
sVcomment
p760
g4
sVcookies
p761
(lp762
sVstatusText
p763
VOK
p764
sVcontent
p765
(dp766
VmimeType
p767
Vtext/html; charset=UTF-8
p768
sVcomment
p769
g4
sVsize
p770
I0
ssVheaders
p771
(lp772
sVheadersSize
p773
I383
sVredirectURL
p774
g4
sVbodySize
p775
I4526
sVhttpVersion
p776
VHTTP/1.1
p777
ssa(dp778
Vcomment
p779
g4
sVserverIPAddress
p780
V216.58.216.193
p781
sVpageref
p782
VPanama Papers
p783
sVstartedDateTime
p784
V2017-04-16T08:01:34.199-05:00
p785
sVcache
p786
(dp787
sVrequest
p788
(dp789
Vcomment
p790
g4
sVcookies
p791
(lp792
sVurl
p793
Vhttps://cdn.ampproject.org/preconnect.gif?0.4874667268660422
p794
sVqueryString
p795
(lp796
(dp797
Vname
p798
V0.4874667268660422
p799
sVvalue
p800
g4
sasVheaders
p801
(lp802
sVheadersSize
p803
I375
sVbodySize
p804
I0
sVmethod
p805
VGET
p806
sVhttpVersion
p807
VHTTP/1.1
p808
ssVtimings
p809
(dp810
Vcomment
p811
g4
sVreceive
p812
I0
sVsend
p813
I0
sVssl
p814
I-1
sVconnect
p815
I-1
sVdns
p816
I-1
sVwait
p817
I32
sVblocked
p818
I-1
ssVtime
p819
I32
sVresponse
p820
(dp821
Vstatus
p822
I200
sVcomment
p823
g4
sVcookies
p824
(lp825
sVstatusText
p826
VOK
p827
sVcontent
p828
(dp829
VmimeType
p830
Vimage/gif
p831
sVcomment
p832
g4
sVsize
p833
I0
ssVheaders
p834
(lp835
sVheadersSize
p836
I826
sVredirectURL
p837
g4
sVbodySize
p838
I37
sVhttpVersion
p839
VHTTP/1.1
p840
ssa(dp841
Vcomment
p842
g4
sVserverIPAddress
p843
V216.58.216.196
p844
sVpageref
p845
VPanama Papers
p846
sVstartedDateTime
p847
V2017-04-16T08:01:34.290-05:00
p848
sVcache
p849
(dp850
sVrequest
p851
(dp852
Vcomment
p853
g4
sVcookies
p854
(lp855
sVurl
p856
Vhttps://www.google.com/xjs/_/js/k=xjs.qs.en_US.pCBXVCvTH3s.O/m=sy6k,syi2,syi5,syi4,fpv,sy48,sy3a,sy3c,sy5b,sy4x,sy4z,sy56,sy4y,sy5d,sy8e,sya8,sy5e,sy91,sya6,sya7,sya9,amp,sp,pz/am=gCP4LtMEBXQA2RUaq_oFBISzAFA/rt=j/d=0/t=zcms/rs=ACT90oFwm4NZCwIcuuiqmthdlECdBzkhRA
p857
sVqueryString
p858
(lp859
sVheaders
p860
(lp861
sVheadersSize
p862
I778
sVbodySize
p863
I0
sVmethod
p864
VGET
p865
sVhttpVersion
p866
VHTTP/1.1
p867
ssVtimings
p868
(dp869
Vcomment
p870
g4
sVreceive
p871
I4
sVsend
p872
I0
sVssl
p873
I-1
sVconnect
p874
I-1
sVdns
p875
I-1
sVwait
p876
I16
sVblocked
p877
I-1
ssVtime
p878
I21
sVresponse
p879
(dp880
Vstatus
p881
I200
sVcomment
p882
g4
sVcookies
p883
(lp884
sVstatusText
p885
VOK
p886
sVcontent
p887
(dp888
VmimeType
p889
Vtext/javascript; charset=UTF-8
p890
sVcomment
p891
g4
sVsize
p892
I0
ssVheaders
p893
(lp894
sVheadersSize
p895
I464
sVredirectURL
p896
g4
sVbodySize
p897
I56381
sVhttpVersion
p898
VHTTP/1.1
p899
ssa(dp900
Vcomment
p901
g4
sVserverIPAddress
p902
V216.58.216.196
p903
sVpageref
p904
VPanama Papers
p905
sVstartedDateTime
p906
V2017-04-16T08:01:34.360-05:00
p907
sVcache
p908
(dp909
sVrequest
p910
(dp911
Vcomment
p912
g4
sVcookies
p913
(lp914
sVurl
p915
Vhttps://www.google.com/async/log_amp_item_set?vet=10ahUKEwid8IqxhKnTAhUk74MKHcbUAlEQooQBCAE..i&ei=K2vzWLjrGeHMjwTMj77IAg&yv=2&async=num_items:1,_fmt:jspb
p916
sVqueryString
p917
(lp918
(dp919
Vname
p920
Vvet
p921
sVvalue
p922
V10ahUKEwid8IqxhKnTAhUk74MKHcbUAlEQooQBCAE..i
p923
sa(dp924
Vname
p925
Vei
p926
sVvalue
p927
VK2vzWLjrGeHMjwTMj77IAg
p928
sa(dp929
Vname
p930
Vyv
p931
sVvalue
p932
g64
sa(dp933
Vname
p934
Vasync
p935
sVvalue
p936
Vnum_items:1,_fmt:jspb
p937
sasVheaders
p938
(lp939
sVheadersSize
p940
I670
sVbodySize
p941
I0
sVmethod
p942
VGET
p943
sVhttpVersion
p944
VHTTP/1.1
p945
ssVtimings
p946
(dp947
Vcomment
p948
g4
sVreceive
p949
I0
sVsend
p950
I0
sVssl
p951
I-1
sVconnect
p952
I-1
sVdns
p953
I-1
sVwait
p954
I31
sVblocked
p955
I-1
ssVtime
p956
I31
sVresponse
p957
(dp958
Vstatus
p959
I200
sVcomment
p960
g4
sVcookies
p961
(lp962
sVstatusText
p963
VOK
p964
sVcontent
p965
(dp966
VmimeType
p967
Vapplication/json; charset=UTF-8
p968
sVcomment
p969
g4
sVsize
p970
I0
ssVheaders
p971
(lp972
sVheadersSize
p973
I417
sVredirectURL
p974
g4
sVbodySize
p975
I130
sVhttpVersion
p976
VHTTP/1.1
p977
ssa(dp978
Vcomment
p979
g4
sVserverIPAddress
p980
V216.58.216.193
p981
sVpageref
p982
VPanama Papers
p983
sVstartedDateTime
p984
V2017-04-16T08:01:34.839-05:00
p985
sVcache
p986
(dp987
sVrequest
p988
(dp989
Vcomment
p990
g4
sVcookies
p991
(lp992
sVurl
p993
Vhttps://amp-theguardian-com.cdn.ampproject.org/v/s/amp.theguardian.com/news/2016/apr/03/what-you-need-to-know-about-the-panama-papers?amp_js_v=9
p994
sVqueryString
p995
(lp996
(dp997
Vname
p998
Vamp_js_v
p999
sVvalue
p1000
V9
p1001
sasVheaders
p1002
(lp1003
sVheadersSize
p1004
I549
sVbodySize
p1005
I0
sVmethod
p1006
VGET
p1007
sVhttpVersion
p1008
VHTTP/1.1
p1009
ssVtimings
p1010
(dp1011
Vcomment
p1012
g4
sVreceive
p1013
I13
sVsend
p1014
I0
sVssl
p1015
I19
sVconnect
p1016
I38
sVdns
p1017
I434
sVwait
p1018
I106
sVblocked
p1019
I0
ssVtime
p1020
I593
sVresponse
p1021
(dp1022
Vstatus
p1023
I200
sVcomment
p1024
g4
sVcookies
p1025
(lp1026
sVstatusText
p1027
VOK
p1028
sVcontent
p1029
(dp1030
VmimeType
p1031
Vtext/html
p1032
sVcomment
p1033
g4
sVsize
p1034
I0
ssVheaders
p1035
(lp1036
sVheadersSize
p1037
I861
sVredirectURL
p1038
g4
sVbodySize
p1039
I21066
sVhttpVersion
p1040
VHTTP/1.1
p1041
ssa(dp1042
Vcomment
p1043
g4
sVserverIPAddress
p1044
V216.58.216.193
p1045
sVpageref
p1046
VPanama Papers
p1047
sVstartedDateTime
p1048
V2017-04-16T08:01:35.277-05:00
p1049
sVcache
p1050
(dp1051
sVrequest
p1052
(dp1053
Vcomment
p1054
g4
sVcookies
p1055
(lp1056
sVurl
p1057
Vhttps://cdn.ampproject.org/rtv/011492014732688/v0/amp-video-0.1.js
p1058
sVqueryString
p1059
(lp1060
sVheaders
p1061
(lp1062
sVheadersSize
p1063
I502
sVbodySize
p1064
I0
sVmethod
p1065
VGET
p1066
sVhttpVersion
p1067
VHTTP/1.1
p1068
ssVtimings
p1069
(dp1070
Vcomment
p1071
g4
sVreceive
p1072
I1
sVsend
p1073
I0
sVssl
p1074
I-1
sVconnect
p1075
I-1
sVdns
p1076
I-1
sVwait
p1077
I14
sVblocked
p1078
I-1
ssVtime
p1079
I16
sVresponse
p1080
(dp1081
Vstatus
p1082
I200
sVcomment
p1083
g4
sVcookies
p1084
(lp1085
sVstatusText
p1086
VOK
p1087
sVcontent
p1088
(dp1089
VmimeType
p1090
Vtext/javascript
p1091
sVcomment
p1092
g4
sVsize
p1093
I0
ssVheaders
p1094
(lp1095
sVheadersSize
p1096
I1165
sVredirectURL
p1097
g4
sVbodySize
p1098
I3854
sVhttpVersion
p1099
VHTTP/1.1
p1100
ssa(dp1101
Vcomment
p1102
g4
sVserverIPAddress
p1103
V216.58.216.196
p1104
sVpageref
p1105
VPanama Papers
p1106
sVstartedDateTime
p1107
V2017-04-16T08:01:35.514-05:00
p1108
sVcache
p1109
(dp1110
sVrequest
p1111
(dp1112
Vcomment
p1113
g4
sVcookies
p1114
(lp1115
sVurl
p1116
Vhttps://www.google.com/gen_204?s=web&atyp=csi&ei=K2vzWLjrGeHMjwTMj77IAg&imc=12&imn=12&imp=6&adh=&xjs=init.47.14.sb_mob.34.dvl.7.c.2.mbsf.1.async.1&ima=1&rt=prt.1069,iml.1156,xjsls.1070,qiml.1348,dcl.1162,xjses.1248,xjsee.1426,xjs.1426,ol.2987,aft.1148,wsrt.113,cst.0,dnst.0,rqst.1158,rspt.1071,rqstt.5,unt.4,cstt.4,dit.1257
p1117
sVqueryString
p1118
(lp1119
(dp1120
Vname
p1121
g57
sVvalue
p1122
Vweb
p1123
sa(dp1124
Vname
p1125
Vatyp
p1126
sVvalue
p1127
Vcsi
p1128
sa(dp1129
Vname
p1130
Vei
p1131
sVvalue
p1132
VK2vzWLjrGeHMjwTMj77IAg
p1133
sa(dp1134
Vname
p1135
Vimc
p1136
sVvalue
p1137
V12
p1138
sa(dp1139
Vname
p1140
Vimn
p1141
sVvalue
p1142
V12
p1143
sa(dp1144
Vname
p1145
Vimp
p1146
sVvalue
p1147
V6
p1148
sa(dp1149
Vname
p1150
Vadh
p1151
sVvalue
p1152
g4
sa(dp1153
Vname
p1154
Vxjs
p1155
sVvalue
p1156
Vinit.47.14.sb_mob.34.dvl.7.c.2.mbsf.1.async.1
p1157
sa(dp1158
Vname
p1159
Vima
p1160
sVvalue
p1161
g59
sa(dp1162
Vname
p1163
Vrt
p1164
sVvalue
p1165
Vprt.1069,iml.1156,xjsls.1070,qiml.1348,dcl.1162,xjses.1248,xjsee.1426,xjs.1426,ol.2987,aft.1148,wsrt.113,cst.0,dnst.0,rqst.1158,rspt.1071,rqstt.5,unt.4,cstt.4,dit.1257
p1166
sasVheaders
p1167
(lp1168
sVheadersSize
p1169
I840
sVbodySize
p1170
I0
sVmethod
p1171
VGET
p1172
sVhttpVersion
p1173
VHTTP/1.1
p1174
ssVtimings
p1175
(dp1176
Vcomment
p1177
g4
sVreceive
p1178
I0
sVsend
p1179
I0
sVssl
p1180
I-1
sVconnect
p1181
I-1
sVdns
p1182
I-1
sVwait
p1183
I27
sVblocked
p1184
I-1
ssVtime
p1185
I28
sVresponse
p1186
(dp1187
Vstatus
p1188
I204
sVcomment
p1189
g4
sVcookies
p1190
(lp1191
sVstatusText
p1192
VNo Content
p1193
sVcontent
p1194
(dp1195
VmimeType
p1196
Vtext/html; charset=UTF-8
p1197
sVcomment
p1198
g4
sVsize
p1199
I0
ssVheaders
p1200
(lp1201
sVheadersSize
p1202
I248
sVredirectURL
p1203
g4
sVbodySize
p1204
I0
sVhttpVersion
p1205
VHTTP/1.1
p1206
ssa(dp1207
Vcomment
p1208
g4
sVserverIPAddress
p1209
V216.58.216.196
p1210
sVpageref
p1211
VPanama Papers
p1212
sVstartedDateTime
p1213
V2017-04-16T08:01:36.171-05:00
p1214
sVcache
p1215
(dp1216
sVrequest
p1217
(dp1218
Vcomment
p1219
g4
sVcookies
p1220
(lp1221
sVurl
p1222
Vhttps://www.google.com/gen_204?atyp=i&ct=slh&cad=&ei=F2vzWNT6GoTMjwTo1qKgCQ&m=V&t=C&s=1&v=2&pv=0.6395551447344905&me=1:1492347674541,x:2,V,0,0,1280,944:0,N,1,F2vzWNT6GoTMjwTo1qKgCQ:0,R,1,24,8,155,1249,869:0,R,1,25,8,155,1249,869:0,R,1,36,8,155,1249,116:0,R,1,48,8,284,1249,40:0,R,1,55,8,399,1249,40:0,R,1,56,24,399,1217,40:0,R,1,61,8,455,1249,20:0,R,1,70,8,495,1249,213:0,R,1,71,8,544,1249,164:0,R,1,100,8,773,1249,184:0,R,1,101,0,773,1265,204:1,B,3535:17216,e,U&zx=1492347696169
p1223
sVqueryString
p1224
(lp1225
(dp1226
Vname
p1227
Vatyp
p1228
sVvalue
p1229
g30
sa(dp1230
Vname
p1231
Vct
p1232
sVvalue
p1233
Vslh
p1234
sa(dp1235
Vname
p1236
Vcad
p1237
sVvalue
p1238
g4
sa(dp1239
Vname
p1240
Vei
p1241
sVvalue
p1242
VF2vzWNT6GoTMjwTo1qKgCQ
p1243
sa(dp1244
Vname
p1245
g47
sVvalue
p1246
g49
sa(dp1247
Vname
p1248
g52
sVvalue
p1249
g54
sa(dp1250
Vname
p1251
g57
sVvalue
p1252
g59
sa(dp1253
Vname
p1254
g62
sVvalue
p1255
g64
sa(dp1256
Vname
p1257
Vpv
p1258
sVvalue
p1259
V0.6395551447344905
p1260
sa(dp1261
Vname
p1262
Vme
p1263
sVvalue
p1264
V1:1492347674541,x:2,V,0,0,1280,944:0,N,1,F2vzWNT6GoTMjwTo1qKgCQ:0,R,1,24,8,155,1249,869:0,R,1,25,8,155,1249,869:0,R,1,36,8,155,1249,116:0,R,1,48,8,284,1249,40:0,R,1,55,8,399,1249,40:0,R,1,56,24,399,1217,40:0,R,1,61,8,455,1249,20:0,R,1,70,8,495,1249,213:0,R,1,71,8,544,1249,164:0,R,1,100,8,773,1249,184:0,R,1,101,0,773,1265,204:1,B,3535:17216,e,U
p1265
sa(dp1266
Vname
p1267
Vzx
p1268
sVvalue
p1269
V1492347696169
p1270
sasVheaders
p1271
(lp1272
sVheadersSize
p1273
I996
sVbodySize
p1274
I0
sVmethod
p1275
VGET
p1276
sVhttpVersion
p1277
VHTTP/1.1
p1278
ssVtimings
p1279
(dp1280
Vcomment
p1281
g4
sVreceive
p1282
I0
sVsend
p1283
I0
sVssl
p1284
I-1
sVconnect
p1285
I-1
sVdns
p1286
I-1
sVwait
p1287
I29
sVblocked
p1288
I-1
ssVtime
p1289
I30
sVresponse
p1290
(dp1291
Vstatus
p1292
I204
sVcomment
p1293
g4
sVcookies
p1294
(lp1295
sVstatusText
p1296
VNo Content
p1297
sVcontent
p1298
(dp1299
VmimeType
p1300
Vtext/html; charset=UTF-8
p1301
sVcomment
p1302
g4
sVsize
p1303
I0
ssVheaders
p1304
(lp1305
sVheadersSize
p1306
I248
sVredirectURL
p1307
g4
sVbodySize
p1308
I0
sVhttpVersion
p1309
VHTTP/1.1
p1310
ssasVversion
p1311
V1.2
p1312
sVpages
p1313
(lp1314
(dp1315
VpageTimings
p1316
(dp1317
Vcomment
p1318
g4
ssVcomment
p1319
g4
sVtitle
p1320
VPanama Papers
p1321
sVid
p1322
VPanama Papers
p1323
sVstartedDateTime
p1324
V2017-04-16T08:01:31.753-05:00
p1325
sasVcreator
p1326
(dp1327
Vcomment
p1328
g4
sVversion
p1329
V2.1.4
p1330
sVname
p1331
VBrowserMob Proxy
p1332
sss.