(dp0
Vlog
p1
(dp2
Vcomment
p3
V
p4
sVentries
p5
(lp6
(dp7
Vcomment
p8
g4
sVserverIPAddress
p9
V172.217.6.4
p10
sVpageref
p11
VTesla
p12
sVstartedDateTime
p13
V2017-04-16T08:47:15.101-05:00
p14
sVcache
p15
(dp16
sVrequest
p17
(dp18
Vcomment
p19
g4
sVcookies
p20
(lp21
sVurl
p22
Vhttps://www.google.com/gen_204?atyp=i&ct=slh&cad=&ei=13XzWISAHcnUjwSHsLrIAQ&m=V&t=C&s=1&v=2&pv=0.34464963479372746&me=1:1492350427595,x:1,V,0,0,1280,944:0,N,1,13XzWISAHcnUjwSHsLrIAQ:0,R,1,22,8,155,1249,255:0,R,1,35,8,420,1249,142:0,R,1,49,8,572,1249,185:0,R,1,50,8,572,1249,165:0,R,1,51,8,572,1249,90:0,R,1,89,24,767,1217,94:0,R,1,91,8,882,1249,501:0,R,1,93,8,882,1197,501:0,R,1,95,95,882,1024,120:2,B,4157:7501,e,U&zx=1492350435099
p23
sVqueryString
p24
(lp25
(dp26
Vname
p27
Vatyp
p28
sVvalue
p29
Vi
p30
sa(dp31
Vname
p32
Vct
p33
sVvalue
p34
Vslh
p35
sa(dp36
Vname
p37
Vcad
p38
sVvalue
p39
g4
sa(dp40
Vname
p41
Vei
p42
sVvalue
p43
V13XzWISAHcnUjwSHsLrIAQ
p44
sa(dp45
Vname
p46
Vm
p47
sVvalue
p48
VV
p49
sa(dp50
Vname
p51
Vt
p52
sVvalue
p53
VC
p54
sa(dp55
Vname
p56
Vs
p57
sVvalue
p58
V1
p59
sa(dp60
Vname
p61
Vv
p62
sVvalue
p63
V2
p64
sa(dp65
Vname
p66
Vpv
p67
sVvalue
p68
V0.34464963479372746
p69
sa(dp70
Vname
p71
Vme
p72
sVvalue
p73
V1:1492350427595,x:1,V,0,0,1280,944:0,N,1,13XzWISAHcnUjwSHsLrIAQ:0,R,1,22,8,155,1249,255:0,R,1,35,8,420,1249,142:0,R,1,49,8,572,1249,185:0,R,1,50,8,572,1249,165:0,R,1,51,8,572,1249,90:0,R,1,89,24,767,1217,94:0,R,1,91,8,882,1249,501:0,R,1,93,8,882,1197,501:0,R,1,95,95,882,1024,120:2,B,4157:7501,e,U
p74
sa(dp75
Vname
p76
Vzx
p77
sVvalue
p78
V1492350435099
p79
sasVheaders
p80
(lp81
sVheadersSize
p82
I949
sVbodySize
p83
I0
sVmethod
p84
VGET
p85
sVhttpVersion
p86
VHTTP/1.1
p87
ssVtimings
p88
(dp89
Vcomment
p90
g4
sVreceive
p91
I0
sVsend
p92
I0
sVssl
p93
I-1
sVconnect
p94
I-1
sVdns
p95
I-1
sVwait
p96
I0
sVblocked
p97
I-1
ssVtime
p98
I0
sVresponse
p99
(dp100
Vstatus
p101
I0
sVcomment
p102
g4
sVcookies
p103
(lp104
sV_error
p105
VNo response received
p106
sVstatusText
p107
g4
sVcontent
p108
(dp109
VmimeType
p110
g4
sVcomment
p111
g4
sVsize
p112
I0
ssVheaders
p113
(lp114
sVheadersSize
p115
I-1
sVredirectURL
p116
g4
sVbodySize
p117
I-1
sVhttpVersion
p118
Vunknown
p119
ssa(dp120
Vcomment
p121
g4
sVserverIPAddress
p122
V172.217.6.4
p123
sVpageref
p124
VTesla
p125
sVstartedDateTime
p126
V2017-04-16T08:47:15.104-05:00
p127
sVcache
p128
(dp129
sVrequest
p130
(dp131
Vcomment
p132
g4
sVcookies
p133
(lp134
sVurl
p135
Vhttp://www.google.com/
p136
sVqueryString
p137
(lp138
sVheaders
p139
(lp140
sVheadersSize
p141
I613
sVbodySize
p142
I0
sVmethod
p143
VGET
p144
sVhttpVersion
p145
VHTTP/1.1
p146
ssVtimings
p147
(dp148
Vcomment
p149
g4
sVreceive
p150
I0
sVsend
p151
I0
sVssl
p152
I-1
sVconnect
p153
I-1
sVdns
p154
I-1
sVwait
p155
I53
sVblocked
p156
I-1
ssVtime
p157
I54
sVresponse
p158
(dp159
Vstatus
p160
I302
sVcomment
p161
g4
sVcookies
p162
(lp163
sVstatusText
p164
VFound
p165
sVcontent
p166
(dp167
VmimeType
p168
Vtext/html; charset=UTF-8
p169
sVcomment
p170
g4
sVsize
p171
I0
ssVheaders
p172
(lp173
sVheadersSize
p174
I609
sVredirectURL
p175
Vhttps://www.google.com/?gws_rd=ssl
p176
sVbodySize
p177
I231
sVhttpVersion
p178
VHTTP/1.1
p179
ssa(dp180
Vcomment
p181
g4
sVserverIPAddress
p182
V172.217.6.4
p183
sVpageref
p184
VTesla
p185
sVstartedDateTime
p186
V2017-04-16T08:47:15.164-05:00
p187
sVcache
p188
(dp189
sVrequest
p190
(dp191
Vcomment
p192
g4
sVcookies
p193
(lp194
sVurl
p195
Vhttps://www.google.com/?gws_rd=ssl
p196
sVqueryString
p197
(lp198
(dp199
Vname
p200
Vgws_rd
p201
sVvalue
p202
Vssl
p203
sasVheaders
p204
(lp205
sVheadersSize
p206
I607
sVbodySize
p207
I0
sVmethod
p208
VGET
p209
sVhttpVersion
p210
VHTTP/1.1
p211
ssVtimings
p212
(dp213
Vcomment
p214
g4
sVreceive
p215
I5
sVsend
p216
I0
sVssl
p217
I-1
sVconnect
p218
I-1
sVdns
p219
I-1
sVwait
p220
I76
sVblocked
p221
I-1
ssVtime
p222
I81
sVresponse
p223
(dp224
Vstatus
p225
I200
sVcomment
p226
g4
sVcookies
p227
(lp228
sVstatusText
p229
VOK
p230
sVcontent
p231
(dp232
VmimeType
p233
Vtext/html; charset=UTF-8
p234
sVcomment
p235
g4
sVsize
p236
I0
ssVheaders
p237
(lp238
sVheadersSize
p239
I721
sVredirectURL
p240
g4
sVbodySize
p241
I34289
sVhttpVersion
p242
VHTTP/1.1
p243
ssa(dp244
Vcomment
p245
g4
sVserverIPAddress
p246
V172.217.6.4
p247
sVpageref
p248
VTesla
p249
sVstartedDateTime
p250
V2017-04-16T08:47:15.548-05:00
p251
sVcache
p252
(dp253
sVrequest
p254
(dp255
Vcomment
p256
g4
sVcookies
p257
(lp258
sVurl
p259
Vhttps://www.google.com/gen_204?s=mobilewebhp&atyp=csi&ei=4nXzWO6ACcnSjwSAubsY&imc=1&imn=1&imp=0&adh=&xjs=init.27.12.sb_mob.17.dvl.3.mbsf.2.async.2.c.1&ima=1&rt=xjsls.14,prt.15,iml.15,dcl.55,xjses.105,xjsee.197,xjs.198,ol.263,aft.15,wsrt.181,cst.0,dnst.0,rqst.83,rspt.6,rqstt.66,unt.63,cstt.63,dit.213
p260
sVqueryString
p261
(lp262
(dp263
Vname
p264
g57
sVvalue
p265
Vmobilewebhp
p266
sa(dp267
Vname
p268
Vatyp
p269
sVvalue
p270
Vcsi
p271
sa(dp272
Vname
p273
Vei
p274
sVvalue
p275
V4nXzWO6ACcnSjwSAubsY
p276
sa(dp277
Vname
p278
Vimc
p279
sVvalue
p280
g59
sa(dp281
Vname
p282
Vimn
p283
sVvalue
p284
g59
sa(dp285
Vname
p286
Vimp
p287
sVvalue
p288
V0
p289
sa(dp290
Vname
p291
Vadh
p292
sVvalue
p293
g4
sa(dp294
Vname
p295
Vxjs
p296
sVvalue
p297
Vinit.27.12.sb_mob.17.dvl.3.mbsf.2.async.2.c.1
p298
sa(dp299
Vname
p300
Vima
p301
sVvalue
p302
g59
sa(dp303
Vname
p304
Vrt
p305
sVvalue
p306
Vxjsls.14,prt.15,iml.15,dcl.55,xjses.105,xjsee.197,xjs.198,ol.263,aft.15,wsrt.181,cst.0,dnst.0,rqst.83,rspt.6,rqstt.66,unt.63,cstt.63,dit.213
p307
sasVheaders
p308
(lp309
sVheadersSize
p310
I828
sVbodySize
p311
I0
sVmethod
p312
VGET
p313
sVhttpVersion
p314
VHTTP/1.1
p315
ssVtimings
p316
(dp317
Vcomment
p318
g4
sVreceive
p319
I0
sVsend
p320
I0
sVssl
p321
I-1
sVconnect
p322
I-1
sVdns
p323
I-1
sVwait
p324
I29
sVblocked
p325
I-1
ssVtime
p326
I29
sVresponse
p327
(dp328
Vstatus
p329
I204
sVcomment
p330
g4
sVcookies
p331
(lp332
sVstatusText
p333
VNo Content
p334
sVcontent
p335
(dp336
VmimeType
p337
Vtext/html; charset=UTF-8
p338
sVcomment
p339
g4
sVsize
p340
I0
ssVheaders
p341
(lp342
sVheadersSize
p343
I248
sVredirectURL
p344
g4
sVbodySize
p345
I0
sVhttpVersion
p346
VHTTP/1.1
p347
ssa(dp348
Vcomment
p349
g4
sVserverIPAddress
p350
V172.217.6.4
p351
sVpageref
p352
VTesla
p353
sVstartedDateTime
p354
V2017-04-16T08:47:15.720-05:00
p355
sVcache
p356
(dp357
sVrequest
p358
(dp359
Vcomment
p360
g4
sVcookies
p361
(lp362
sVurl
p363
Vhttps://www.google.com/complete/search?client=mobile-gws-hp&hl=en&gs_rn=64&gs_ri=mobile-gws-hp&sla=1&pfq=the%20bfg&gm=602&cp=0&gs_id=1&xhr=t&q=T&tch=1&ech=1&psi=4nXzWO6ACcnSjwSAubsY.1492350435450.1
p364
sVqueryString
p365
(lp366
(dp367
Vname
p368
Vclient
p369
sVvalue
p370
Vmobile-gws-hp
p371
sa(dp372
Vname
p373
Vhl
p374
sVvalue
p375
Ven
p376
sa(dp377
Vname
p378
Vgs_rn
p379
sVvalue
p380
V64
p381
sa(dp382
Vname
p383
Vgs_ri
p384
sVvalue
p385
Vmobile-gws-hp
p386
sa(dp387
Vname
p388
Vsla
p389
sVvalue
p390
g59
sa(dp391
Vname
p392
Vpfq
p393
sVvalue
p394
Vthe bfg
p395
sa(dp396
Vname
p397
Vgm
p398
sVvalue
p399
V602
p400
sa(dp401
Vname
p402
Vcp
p403
sVvalue
p404
g289
sa(dp405
Vname
p406
Vgs_id
p407
sVvalue
p408
g59
sa(dp409
Vname
p410
Vxhr
p411
sVvalue
p412
g52
sa(dp413
Vname
p414
Vq
p415
sVvalue
p416
VT
p417
sa(dp418
Vname
p419
Vtch
p420
sVvalue
p421
g59
sa(dp422
Vname
p423
Vech
p424
sVvalue
p425
g59
sa(dp426
Vname
p427
Vpsi
p428
sVvalue
p429
V4nXzWO6ACcnSjwSAubsY.1492350435450.1
p430
sasVheaders
p431
(lp432
sVheadersSize
p433
I725
sVbodySize
p434
I0
sVmethod
p435
VGET
p436
sVhttpVersion
p437
VHTTP/1.1
p438
ssVtimings
p439
(dp440
Vcomment
p441
g4
sVreceive
p442
I0
sVsend
p443
I0
sVssl
p444
I-1
sVconnect
p445
I-1
sVdns
p446
I-1
sVwait
p447
I0
sVblocked
p448
I-1
ssVtime
p449
I0
sVresponse
p450
(dp451
Vstatus
p452
I0
sVcomment
p453
g4
sVcookies
p454
(lp455
sV_error
p456
VNo response received
p457
sVstatusText
p458
g4
sVcontent
p459
(dp460
VmimeType
p461
g4
sVcomment
p462
g4
sVsize
p463
I0
ssVheaders
p464
(lp465
sVheadersSize
p466
I-1
sVredirectURL
p467
g4
sVbodySize
p468
I-1
sVhttpVersion
p469
Vunknown
p470
ssa(dp471
Vcomment
p472
g4
sVserverIPAddress
p473
V172.217.6.4
p474
sVpageref
p475
VTesla
p476
sVstartedDateTime
p477
V2017-04-16T08:47:15.776-05:00
p478
sVcache
p479
(dp480
sVrequest
p481
(dp482
Vcomment
p483
g4
sVcookies
p484
(lp485
sVurl
p486
Vhttps://www.google.com/search?site=&source=hp&ei=4nXzWO6ACcnSjwSAubsY&q=Tesla&oq=Tesla&gs_l=mobile-gws-hp.3...250.262.0.302.5.1.0.0.0.0.0.0..0.0....0...1c.1.64.mobile-gws-hp..5.0.0.EsK1BwKA7Gs
p487
sVqueryString
p488
(lp489
(dp490
Vname
p491
Vsite
p492
sVvalue
p493
g4
sa(dp494
Vname
p495
Vsource
p496
sVvalue
p497
Vhp
p498
sa(dp499
Vname
p500
Vei
p501
sVvalue
p502
V4nXzWO6ACcnSjwSAubsY
p503
sa(dp504
Vname
p505
g415
sVvalue
p506
VTesla
p507
sa(dp508
Vname
p509
Voq
p510
sVvalue
p511
VTesla
p512
sa(dp513
Vname
p514
Vgs_l
p515
sVvalue
p516
Vmobile-gws-hp.3...250.262.0.302.5.1.0.0.0.0.0.0..0.0....0...1c.1.64.mobile-gws-hp..5.0.0.EsK1BwKA7Gs
p517
sasVheaders
p518
(lp519
sVheadersSize
p520
I810
sVbodySize
p521
I0
sVmethod
p522
VGET
p523
sVhttpVersion
p524
VHTTP/1.1
p525
ssVtimings
p526
(dp527
Vcomment
p528
g4
sVreceive
p529
I1335
sVsend
p530
I0
sVssl
p531
I-1
sVconnect
p532
I-1
sVdns
p533
I-1
sVwait
p534
I107
sVblocked
p535
I-1
ssVtime
p536
I1443
sVresponse
p537
(dp538
Vstatus
p539
I200
sVcomment
p540
g4
sVcookies
p541
(lp542
sVstatusText
p543
VOK
p544
sVcontent
p545
(dp546
VmimeType
p547
Vtext/html; charset=UTF-8
p548
sVcomment
p549
g4
sVsize
p550
I0
ssVheaders
p551
(lp552
sVheadersSize
p553
I363
sVredirectURL
p554
g4
sVbodySize
p555
I153554
sVhttpVersion
p556
VHTTP/1.1
p557
ssa(dp558
Vcomment
p559
g4
sVserverIPAddress
p560
V172.217.6.4
p561
sVpageref
p562
VTesla
p563
sVstartedDateTime
p564
V2017-04-16T08:47:17.848-05:00
p565
sVcache
p566
(dp567
sVrequest
p568
(dp569
Vcomment
p570
g4
sVcookies
p571
(lp572
sVurl
p573
Vhttps://www.google.com/gen_204?atyp=i&ct=&cad=udla=1&ei=4nXzWKO_LoWijwSM2oGIDg&b=0&act=p&ps=0&zx=1492350437846
p574
sVqueryString
p575
(lp576
(dp577
Vname
p578
Vatyp
p579
sVvalue
p580
g30
sa(dp581
Vname
p582
Vct
p583
sVvalue
p584
g4
sa(dp585
Vname
p586
Vcad
p587
sVvalue
p588
Vudla=1
p589
sa(dp590
Vname
p591
Vei
p592
sVvalue
p593
V4nXzWKO_LoWijwSM2oGIDg
p594
sa(dp595
Vname
p596
Vb
p597
sVvalue
p598
g289
sa(dp599
Vname
p600
Vact
p601
sVvalue
p602
Vp
p603
sa(dp604
Vname
p605
Vps
p606
sVvalue
p607
g289
sa(dp608
Vname
p609
Vzx
p610
sVvalue
p611
V1492350437846
p612
sasVheaders
p613
(lp614
sVheadersSize
p615
I627
sVbodySize
p616
I0
sVmethod
p617
VGET
p618
sVhttpVersion
p619
VHTTP/1.1
p620
ssVtimings
p621
(dp622
Vcomment
p623
g4
sVreceive
p624
I0
sVsend
p625
I0
sVssl
p626
I-1
sVconnect
p627
I-1
sVdns
p628
I-1
sVwait
p629
I27
sVblocked
p630
I-1
ssVtime
p631
I28
sVresponse
p632
(dp633
Vstatus
p634
I204
sVcomment
p635
g4
sVcookies
p636
(lp637
sVstatusText
p638
VNo Content
p639
sVcontent
p640
(dp641
VmimeType
p642
Vtext/html; charset=UTF-8
p643
sVcomment
p644
g4
sVsize
p645
I0
ssVheaders
p646
(lp647
sVheadersSize
p648
I248
sVredirectURL
p649
g4
sVbodySize
p650
I0
sVhttpVersion
p651
VHTTP/1.1
p652
ssa(dp653
Vcomment
p654
g4
sVserverIPAddress
p655
V172.217.6.4
p656
sVpageref
p657
VTesla
p658
sVstartedDateTime
p659
V2017-04-16T08:47:18.465-05:00
p660
sVcache
p661
(dp662
sVrequest
p663
(dp664
Vcomment
p665
g4
sVcookies
p666
(lp667
sVurl
p668
Vhttps://www.google.com/xjs/_/js/k=xjs.qs.en_US.pCBXVCvTH3s.O/m=syl,syj,syn,em3,em8,em6,em7,sym,aa,abd,sy2g,sy2k,sy29,sy2j,sy2d,sy2a,sy2c,sy2f,sy2l,sy2m,sy2n,emd,async,sybn,sybi,sybo,sy1f,sy45,sy46,sy9w,sybk,sybj,sybp,sy1g,sy30,sy47,sybm,sybl,sybq,sy1h,sybh,dvl,syep,foot,ipv6,sy32,emj,shm,sy5g,sy5i,sy5k,sykh,tl,sy2x,sy2y,sy2t,sy38,em12,vs,sy5j,sy5h,sy6u,sy66,sy67,sy7d,sy7j,sy4u,sy69,sy89,sy7e,sykk,sykl,tnv,bct,sy23,sy9m,syac,sy24,sy4g,sy9b,sy9n,syhz,syl6,ssc,sy1y,sya3,sy22,sy6i,sy25,sya2,sy6j,sy72,emb,sy26,em9,ema,sy31,sya4,sykr,strm,syh6,syl5,kac,kae,strx,sy6y,sycu,d3l,sy6t,nvm,sy5o,sy5r,sy2u,sy5u,sy5t,sy33,sy34,sy2w,sy2z,sy7l,sy4v,sy6z,sy4l,sy37,sy2r,sy35,sy6q,sy7t,sy50,sy71,sy7f,sy7o,syah,syai,syak,syal,alc,sy1r,syaj,flum,sy4d,sy4f,sy4c,sy4e,sy4b,syd7,dgm,sy3x,sy6p,sy3w,syav,syaw,syb0,sy2o,syb1,syaz,syao,sy2v,sy36,sy3z,syau,syb2,syb3,syay,syax,sy8x,syag,syb7,sy2i,sy6k,syam,syaq,syat,syb4,syb5,syb6,sybc,sybg,lrl,lcm,mexp,sy48,sy3a,sy3c,sy5b,sy4x,sybd,sybe,sybt,sy2p,sy56,sybf,sybr,sybs,mlm,sy4z,sy4y,sy5d,sy5e,llmr,akpc,gldm,sy6n,flpm,sy5a,syan,syap,flmm,sy7y,sy7u,sy7w,sy87,sy7p,sy81,sy7q,sy7s,sy7z,sy82,sy85,sy83,sy5n,syas,syb8,syba,sybb,inf,lcts,syi0,cpn,rliv,skp,llmu,sy6l,sy6h,sy6m,qkx,syf5,sy99,syf4,syfc,syfn,syf7,syff,sy1i,sy68,sy8d,syf6,syfl,syfr,syfq,syfg,sy1j,sy4q,sy8h,syc7,syc8,syfb,syfj,syfs,syft,syg3,syg5,syg7,emn,emo,syg4,syg6,ivg,iuci,img,sy6w,shrb,sy41,tcc,sygq,kpc,kpci,sy4h,vrml,sy5z,atn,sy4i,sya1,ampfp/am=gCP4LtMEBXQA2RUaq_oFBISzAFA/rt=j/d=0/t=zcms/rs=ACT90oFwm4NZCwIcuuiqmthdlECdBzkhRA
p669
sVqueryString
p670
(lp671
sVheaders
p672
(lp673
sVheadersSize
p674
I2041
sVbodySize
p675
I0
sVmethod
p676
VGET
p677
sVhttpVersion
p678
VHTTP/1.1
p679
ssVtimings
p680
(dp681
Vcomment
p682
g4
sVreceive
p683
I61
sVsend
p684
I0
sVssl
p685
I-1
sVconnect
p686
I-1
sVdns
p687
I-1
sVwait
p688
I103
sVblocked
p689
I-1
ssVtime
p690
I165
sVresponse
p691
(dp692
Vstatus
p693
I200
sVcomment
p694
g4
sVcookies
p695
(lp696
sVstatusText
p697
VOK
p698
sVcontent
p699
(dp700
VmimeType
p701
Vtext/javascript; charset=UTF-8
p702
sVcomment
p703
g4
sVsize
p704
I0
ssVheaders
p705
(lp706
sVheadersSize
p707
I452
sVredirectURL
p708
g4
sVbodySize
p709
I202631
sVhttpVersion
p710
VHTTP/1.1
p711
ssa(dp712
Vcomment
p713
g4
sVserverIPAddress
p714
V172.217.6.4
p715
sVpageref
p716
VTesla
p717
sVstartedDateTime
p718
V2017-04-16T08:47:18.971-05:00
p719
sVcache
p720
(dp721
sVrequest
p722
(dp723
Vcomment
p724
g4
sVcookies
p725
(lp726
sVurl
p727
Vhttps://www.google.com/async/irc?vet=10ahUKEwijuK3MjqnTAhUF0YMKHQxtAOEQo0EI7gI..i&ved=0ahUKEwijuK3MjqnTAhUF0YMKHQxtAOEQo0EI7gI&ei=4nXzWKO_LoWijwSM2oGIDg&yv=2&async=iu:1,ved:0ahUKEwijuK3MjqnTAhUF0YMKHQxtAOEQo0EI7gI,_id:irc_async,_pms:qs
p728
sVqueryString
p729
(lp730
(dp731
Vname
p732
Vvet
p733
sVvalue
p734
V10ahUKEwijuK3MjqnTAhUF0YMKHQxtAOEQo0EI7gI..i
p735
sa(dp736
Vname
p737
Vved
p738
sVvalue
p739
V0ahUKEwijuK3MjqnTAhUF0YMKHQxtAOEQo0EI7gI
p740
sa(dp741
Vname
p742
Vei
p743
sVvalue
p744
V4nXzWKO_LoWijwSM2oGIDg
p745
sa(dp746
Vname
p747
Vyv
p748
sVvalue
p749
g64
sa(dp750
Vname
p751
Vasync
p752
sVvalue
p753
Viu:1,ved:0ahUKEwijuK3MjqnTAhUF0YMKHQxtAOEQo0EI7gI,_id:irc_async,_pms:qs
p754
sasVheaders
p755
(lp756
sVheadersSize
p757
I752
sVbodySize
p758
I0
sVmethod
p759
VGET
p760
sVhttpVersion
p761
VHTTP/1.1
p762
ssVtimings
p763
(dp764
Vcomment
p765
g4
sVreceive
p766
I2
sVsend
p767
I0
sVssl
p768
I-1
sVconnect
p769
I-1
sVdns
p770
I-1
sVwait
p771
I47
sVblocked
p772
I-1
ssVtime
p773
I50
sVresponse
p774
(dp775
Vstatus
p776
I200
sVcomment
p777
g4
sVcookies
p778
(lp779
sVstatusText
p780
VOK
p781
sVcontent
p782
(dp783
VmimeType
p784
Vtext/html; charset=UTF-8
p785
sVcomment
p786
g4
sVsize
p787
I0
ssVheaders
p788
(lp789
sVheadersSize
p790
I383
sVredirectURL
p791
g4
sVbodySize
p792
I7787
sVhttpVersion
p793
VHTTP/1.1
p794
ssa(dp795
Vcomment
p796
g4
sVserverIPAddress
p797
V172.217.6.4
p798
sVpageref
p799
VTesla
p800
sVstartedDateTime
p801
V2017-04-16T08:47:19.077-05:00
p802
sVcache
p803
(dp804
sVrequest
p805
(dp806
Vcomment
p807
g4
sVcookies
p808
(lp809
sVurl
p810
Vhttps://www.google.com/async/ampfp?vet=10ahUKEwijuK3MjqnTAhUF0YMKHQxtAOEQtZoBCOwC..i&ei=4nXzWKO_LoWijwSM2oGIDg&yv=2&async=_id:ampfp-async,_pms:qs
p811
sVqueryString
p812
(lp813
(dp814
Vname
p815
Vvet
p816
sVvalue
p817
V10ahUKEwijuK3MjqnTAhUF0YMKHQxtAOEQtZoBCOwC..i
p818
sa(dp819
Vname
p820
Vei
p821
sVvalue
p822
V4nXzWKO_LoWijwSM2oGIDg
p823
sa(dp824
Vname
p825
Vyv
p826
sVvalue
p827
g64
sa(dp828
Vname
p829
Vasync
p830
sVvalue
p831
V_id:ampfp-async,_pms:qs
p832
sasVheaders
p833
(lp834
sVheadersSize
p835
I662
sVbodySize
p836
I0
sVmethod
p837
VGET
p838
sVhttpVersion
p839
VHTTP/1.1
p840
ssVtimings
p841
(dp842
Vcomment
p843
g4
sVreceive
p844
I0
sVsend
p845
I0
sVssl
p846
I-1
sVconnect
p847
I-1
sVdns
p848
I-1
sVwait
p849
I39
sVblocked
p850
I-1
ssVtime
p851
I40
sVresponse
p852
(dp853
Vstatus
p854
I200
sVcomment
p855
g4
sVcookies
p856
(lp857
sVstatusText
p858
VOK
p859
sVcontent
p860
(dp861
VmimeType
p862
Vtext/html; charset=UTF-8
p863
sVcomment
p864
g4
sVsize
p865
I0
ssVheaders
p866
(lp867
sVheadersSize
p868
I383
sVredirectURL
p869
g4
sVbodySize
p870
I4529
sVhttpVersion
p871
VHTTP/1.1
p872
ssa(dp873
Vcomment
p874
g4
sVserverIPAddress
p875
V216.58.216.193
p876
sVpageref
p877
VTesla
p878
sVstartedDateTime
p879
V2017-04-16T08:47:19.077-05:00
p880
sVcache
p881
(dp882
sVrequest
p883
(dp884
Vcomment
p885
g4
sVcookies
p886
(lp887
sVurl
p888
Vhttps://cdn.ampproject.org/preconnect.gif?0.17059471271059912
p889
sVqueryString
p890
(lp891
(dp892
Vname
p893
V0.17059471271059912
p894
sVvalue
p895
g4
sasVheaders
p896
(lp897
sVheadersSize
p898
I376
sVbodySize
p899
I0
sVmethod
p900
VGET
p901
sVhttpVersion
p902
VHTTP/1.1
p903
ssVtimings
p904
(dp905
Vcomment
p906
g4
sVreceive
p907
I0
sVsend
p908
I0
sVssl
p909
I-1
sVconnect
p910
I-1
sVdns
p911
I-1
sVwait
p912
I28
sVblocked
p913
I-1
ssVtime
p914
I28
sVresponse
p915
(dp916
Vstatus
p917
I200
sVcomment
p918
g4
sVcookies
p919
(lp920
sVstatusText
p921
VOK
p922
sVcontent
p923
(dp924
VmimeType
p925
Vimage/gif
p926
sVcomment
p927
g4
sVsize
p928
I0
ssVheaders
p929
(lp930
sVheadersSize
p931
I826
sVredirectURL
p932
g4
sVbodySize
p933
I37
sVhttpVersion
p934
VHTTP/1.1
p935
ssa(dp936
Vcomment
p937
g4
sVserverIPAddress
p938
V172.217.6.4
p939
sVpageref
p940
VTesla
p941
sVstartedDateTime
p942
V2017-04-16T08:47:19.158-05:00
p943
sVcache
p944
(dp945
sVrequest
p946
(dp947
Vcomment
p948
g4
sVcookies
p949
(lp950
sVurl
p951
Vhttps://www.google.com/gen_204/local?ei=4nXzWKO_LoWijwSM2oGIDg&tm_n=pt&tm=960
p952
sVqueryString
p953
(lp954
(dp955
Vname
p956
Vei
p957
sVvalue
p958
V4nXzWKO_LoWijwSM2oGIDg
p959
sa(dp960
Vname
p961
Vtm_n
p962
sVvalue
p963
Vpt
p964
sa(dp965
Vname
p966
Vtm
p967
sVvalue
p968
V960
p969
sasVheaders
p970
(lp971
sVheadersSize
p972
I843
sVbodySize
p973
I0
sVmethod
p974
VPOST
p975
sVhttpVersion
p976
VHTTP/1.1
p977
ssVtimings
p978
(dp979
Vcomment
p980
g4
sVreceive
p981
I0
sVsend
p982
I0
sVssl
p983
I-1
sVconnect
p984
I-1
sVdns
p985
I-1
sVwait
p986
I41
sVblocked
p987
I-1
ssVtime
p988
I41
sVresponse
p989
(dp990
Vstatus
p991
I204
sVcomment
p992
g4
sVcookies
p993
(lp994
sVstatusText
p995
VNo Content
p996
sVcontent
p997
(dp998
VmimeType
p999
Vtext/html; charset=UTF-8
p1000
sVcomment
p1001
g4
sVsize
p1002
I0
ssVheaders
p1003
(lp1004
sVheadersSize
p1005
I290
sVredirectURL
p1006
g4
sVbodySize
p1007
I0
sVhttpVersion
p1008
VHTTP/1.1
p1009
ssa(dp1010
Vcomment
p1011
g4
sVserverIPAddress
p1012
V172.217.6.4
p1013
sVpageref
p1014
VTesla
p1015
sVstartedDateTime
p1016
V2017-04-16T08:47:19.192-05:00
p1017
sVcache
p1018
(dp1019
sVrequest
p1020
(dp1021
Vcomment
p1022
g4
sVcookies
p1023
(lp1024
sVurl
p1025
Vhttps://www.google.com/gen_204/local?ei=4nXzWKO_LoWijwSM2oGIDg&tm_n=lrl_init&tm=2
p1026
sVqueryString
p1027
(lp1028
(dp1029
Vname
p1030
Vei
p1031
sVvalue
p1032
V4nXzWKO_LoWijwSM2oGIDg
p1033
sa(dp1034
Vname
p1035
Vtm_n
p1036
sVvalue
p1037
Vlrl_init
p1038
sa(dp1039
Vname
p1040
Vtm
p1041
sVvalue
p1042
g64
sasVheaders
p1043
(lp1044
sVheadersSize
p1045
I847
sVbodySize
p1046
I0
sVmethod
p1047
VPOST
p1048
sVhttpVersion
p1049
VHTTP/1.1
p1050
ssVtimings
p1051
(dp1052
Vcomment
p1053
g4
sVreceive
p1054
I0
sVsend
p1055
I0
sVssl
p1056
I-1
sVconnect
p1057
I-1
sVdns
p1058
I-1
sVwait
p1059
I45
sVblocked
p1060
I-1
ssVtime
p1061
I45
sVresponse
p1062
(dp1063
Vstatus
p1064
I204
sVcomment
p1065
g4
sVcookies
p1066
(lp1067
sVstatusText
p1068
VNo Content
p1069
sVcontent
p1070
(dp1071
VmimeType
p1072
Vtext/html; charset=UTF-8
p1073
sVcomment
p1074
g4
sVsize
p1075
I0
ssVheaders
p1076
(lp1077
sVheadersSize
p1078
I290
sVredirectURL
p1079
g4
sVbodySize
p1080
I0
sVhttpVersion
p1081
VHTTP/1.1
p1082
ssa(dp1083
Vcomment
p1084
g4
sVserverIPAddress
p1085
V172.217.6.4
p1086
sVpageref
p1087
VTesla
p1088
sVstartedDateTime
p1089
V2017-04-16T08:47:19.194-05:00
p1090
sVcache
p1091
(dp1092
sVrequest
p1093
(dp1094
Vcomment
p1095
g4
sVcookies
p1096
(lp1097
sVurl
p1098
Vhttps://www.google.com/maps/vt/data=RfCSdfNZ0LFPrHSm0ublXdzhdrDFhtmHhN1u-gM,r1UszgmFyVxfZv0_pTIQ4LmR-abqIbSoiWqDcJgg7v8rlacnUNN9NPaiDth_-gtE8r7ijlNyW-3YuXzzM2aK75ConTTR8z1qOd4NZ8LZ9Rs-rnv84ACbGG_i5YVM0KKHg-0nG3JYDnuK1eXxNk83umnNkCgHp4t8ray4VYh9UnW-GvFbXPc5Zc4x8cHZtaPYuYwaWjy0WWEvIxVxHsfeTQVQwZuY_Fw7nJhOyrhVKRX2NxOQsINMm6OYJS8ivls2VNWizBc06QH0xG-QU7N2Sop8OfpU1EMYIUM5XdCv2AAEU3t9NRQyzBHS142G8-s?h=120&w=1024&scale=2
p1099
sVqueryString
p1100
(lp1101
(dp1102
Vname
p1103
Vh
p1104
sVvalue
p1105
V120
p1106
sa(dp1107
Vname
p1108
Vw
p1109
sVvalue
p1110
V1024
p1111
sa(dp1112
Vname
p1113
Vscale
p1114
sVvalue
p1115
g64
sasVheaders
p1116
(lp1117
sVheadersSize
p1118
I933
sVbodySize
p1119
I0
sVmethod
p1120
VGET
p1121
sVhttpVersion
p1122
VHTTP/1.1
p1123
ssVtimings
p1124
(dp1125
Vcomment
p1126
g4
sVreceive
p1127
I41
sVsend
p1128
I0
sVssl
p1129
I-1
sVconnect
p1130
I-1
sVdns
p1131
I-1
sVwait
p1132
I116
sVblocked
p1133
I-1
ssVtime
p1134
I157
sVresponse
p1135
(dp1136
Vstatus
p1137
I200
sVcomment
p1138
g4
sVcookies
p1139
(lp1140
sVstatusText
p1141
VOK
p1142
sVcontent
p1143
(dp1144
VmimeType
p1145
Vimage/png
p1146
sVcomment
p1147
g4
sVsize
p1148
I0
ssVheaders
p1149
(lp1150
sVheadersSize
p1151
I479
sVredirectURL
p1152
g4
sVbodySize
p1153
I51945
sVhttpVersion
p1154
VHTTP/1.1
p1155
ssa(dp1156
Vcomment
p1157
g4
sVserverIPAddress
p1158
V172.217.6.4
p1159
sVpageref
p1160
VTesla
p1161
sVstartedDateTime
p1162
V2017-04-16T08:47:19.195-05:00
p1163
sVcache
p1164
(dp1165
sVrequest
p1166
(dp1167
Vcomment
p1168
g4
sVcookies
p1169
(lp1170
sVurl
p1171
Vhttps://www.google.com/maps/vt/data=fyhx5vRTk6iZCJTK-4FW6WKsGg,zAq0dDcaYWSwal2nye1Ljd_17Bbmapvbw6lhpncYdNLS-jatHaALLhA-OvALVA_bCpfQ7S5OlOOk_BUbvgvH3iGKbBAeDN0EZtXqjsepFbIgamDhgxdJeHqs4vAg6a1BbKzhB1RCxu9rDy_MZPSUKFHsxLKGt7QDgtUQ4SlyQBHBl8DdXTfNagWhA9s-2PUvrsiFXk5T-1PXx_5GMtp9ztNEvlPJDwXX5trbqvIpcl-FhE06LoLBKwrnhPxo8MEW?h=120&w=1024&scale=2
p1172
sVqueryString
p1173
(lp1174
(dp1175
Vname
p1176
g1104
sVvalue
p1177
V120
p1178
sa(dp1179
Vname
p1180
g1109
sVvalue
p1181
V1024
p1182
sa(dp1183
Vname
p1184
Vscale
p1185
sVvalue
p1186
g64
sasVheaders
p1187
(lp1188
sVheadersSize
p1189
I857
sVbodySize
p1190
I0
sVmethod
p1191
VGET
p1192
sVhttpVersion
p1193
VHTTP/1.1
p1194
ssVtimings
p1195
(dp1196
Vcomment
p1197
g4
sVreceive
p1198
I0
sVsend
p1199
I0
sVssl
p1200
I-1
sVconnect
p1201
I-1
sVdns
p1202
I-1
sVwait
p1203
I68
sVblocked
p1204
I-1
ssVtime
p1205
I69
sVresponse
p1206
(dp1207
Vstatus
p1208
I200
sVcomment
p1209
g4
sVcookies
p1210
(lp1211
sVstatusText
p1212
VOK
p1213
sVcontent
p1214
(dp1215
VmimeType
p1216
Vimage/png
p1217
sVcomment
p1218
g4
sVsize
p1219
I0
ssVheaders
p1220
(lp1221
sVheadersSize
p1222
I458
sVredirectURL
p1223
g4
sVbodySize
p1224
I1333
sVhttpVersion
p1225
VHTTP/1.1
p1226
ssa(dp1227
Vcomment
p1228
g4
sVserverIPAddress
p1229
V172.217.6.4
p1230
sVpageref
p1231
VTesla
p1232
sVstartedDateTime
p1233
V2017-04-16T08:47:19.228-05:00
p1234
sVcache
p1235
(dp1236
sVrequest
p1237
(dp1238
Vcomment
p1239
g4
sVcookies
p1240
(lp1241
sVurl
p1242
Vhttps://www.google.com/async/log_amp_item_set?vet=10ahUKEwj3y_bNjqnTAhUC6IMKHXsYBGMQooQBCAE..i&ei=4nXzWKO_LoWijwSM2oGIDg&yv=2&async=num_items:1,_fmt:jspb
p1243
sVqueryString
p1244
(lp1245
(dp1246
Vname
p1247
Vvet
p1248
sVvalue
p1249
V10ahUKEwj3y_bNjqnTAhUC6IMKHXsYBGMQooQBCAE..i
p1250
sa(dp1251
Vname
p1252
Vei
p1253
sVvalue
p1254
V4nXzWKO_LoWijwSM2oGIDg
p1255
sa(dp1256
Vname
p1257
Vyv
p1258
sVvalue
p1259
g64
sa(dp1260
Vname
p1261
Vasync
p1262
sVvalue
p1263
Vnum_items:1,_fmt:jspb
p1264
sasVheaders
p1265
(lp1266
sVheadersSize
p1267
I670
sVbodySize
p1268
I0
sVmethod
p1269
VGET
p1270
sVhttpVersion
p1271
VHTTP/1.1
p1272
ssVtimings
p1273
(dp1274
Vcomment
p1275
g4
sVreceive
p1276
I0
sVsend
p1277
I0
sVssl
p1278
I-1
sVconnect
p1279
I-1
sVdns
p1280
I-1
sVwait
p1281
I36
sVblocked
p1282
I-1
ssVtime
p1283
I36
sVresponse
p1284
(dp1285
Vstatus
p1286
I200
sVcomment
p1287
g4
sVcookies
p1288
(lp1289
sVstatusText
p1290
VOK
p1291
sVcontent
p1292
(dp1293
VmimeType
p1294
Vapplication/json; charset=UTF-8
p1295
sVcomment
p1296
g4
sVsize
p1297
I0
ssVheaders
p1298
(lp1299
sVheadersSize
p1300
I417
sVredirectURL
p1301
g4
sVbodySize
p1302
I129
sVhttpVersion
p1303
VHTTP/1.1
p1304
ssa(dp1305
Vcomment
p1306
g4
sVserverIPAddress
p1307
V172.217.6.4
p1308
sVpageref
p1309
VTesla
p1310
sVstartedDateTime
p1311
V2017-04-16T08:47:19.361-05:00
p1312
sVcache
p1313
(dp1314
sVrequest
p1315
(dp1316
Vcomment
p1317
g4
sVcookies
p1318
(lp1319
sVurl
p1320
Vhttps://www.google.com/gen_204/local?ei=4nXzWKO_LoWijwSM2oGIDg&tm_n=lcsm-ns&tm=167
p1321
sVqueryString
p1322
(lp1323
(dp1324
Vname
p1325
Vei
p1326
sVvalue
p1327
V4nXzWKO_LoWijwSM2oGIDg
p1328
sa(dp1329
Vname
p1330
Vtm_n
p1331
sVvalue
p1332
Vlcsm-ns
p1333
sa(dp1334
Vname
p1335
Vtm
p1336
sVvalue
p1337
V167
p1338
sasVheaders
p1339
(lp1340
sVheadersSize
p1341
I848
sVbodySize
p1342
I0
sVmethod
p1343
VPOST
p1344
sVhttpVersion
p1345
VHTTP/1.1
p1346
ssVtimings
p1347
(dp1348
Vcomment
p1349
g4
sVreceive
p1350
I0
sVsend
p1351
I0
sVssl
p1352
I-1
sVconnect
p1353
I-1
sVdns
p1354
I-1
sVwait
p1355
I46
sVblocked
p1356
I-1
ssVtime
p1357
I46
sVresponse
p1358
(dp1359
Vstatus
p1360
I204
sVcomment
p1361
g4
sVcookies
p1362
(lp1363
sVstatusText
p1364
VNo Content
p1365
sVcontent
p1366
(dp1367
VmimeType
p1368
Vtext/html; charset=UTF-8
p1369
sVcomment
p1370
g4
sVsize
p1371
I0
ssVheaders
p1372
(lp1373
sVheadersSize
p1374
I290
sVredirectURL
p1375
g4
sVbodySize
p1376
I0
sVhttpVersion
p1377
VHTTP/1.1
p1378
ssa(dp1379
Vcomment
p1380
g4
sVserverIPAddress
p1381
V216.58.216.193
p1382
sVpageref
p1383
VTesla
p1384
sVstartedDateTime
p1385
V2017-04-16T08:47:19.794-05:00
p1386
sVcache
p1387
(dp1388
sVrequest
p1389
(dp1390
Vcomment
p1391
g4
sVcookies
p1392
(lp1393
sVurl
p1394
Vhttps://www-forbes-com.cdn.ampproject.org/v/s/www.forbes.com/sites/brookecrothers/2017/04/16/tesla-on-a-tear-model-3-a-wrap-pickup-planned-model-s-used-value-semi-coming-soon/amp/?amp_js_v=9
p1395
sVqueryString
p1396
(lp1397
(dp1398
Vname
p1399
Vamp_js_v
p1400
sVvalue
p1401
V9
p1402
sasVheaders
p1403
(lp1404
sVheadersSize
p1405
I595
sVbodySize
p1406
I0
sVmethod
p1407
VGET
p1408
sVhttpVersion
p1409
VHTTP/1.1
p1410
ssVtimings
p1411
(dp1412
Vcomment
p1413
g4
sVreceive
p1414
I13
sVsend
p1415
I0
sVssl
p1416
I509
sVconnect
p1417
I525
sVdns
p1418
I32
sVwait
p1419
I196
sVblocked
p1420
I0
ssVtime
p1421
I769
sVresponse
p1422
(dp1423
Vstatus
p1424
I200
sVcomment
p1425
g4
sVcookies
p1426
(lp1427
sVstatusText
p1428
VOK
p1429
sVcontent
p1430
(dp1431
VmimeType
p1432
Vtext/html
p1433
sVcomment
p1434
g4
sVsize
p1435
I0
ssVheaders
p1436
(lp1437
sVheadersSize
p1438
I862
sVredirectURL
p1439
g4
sVbodySize
p1440
I15544
sVhttpVersion
p1441
VHTTP/1.1
p1442
ssa(dp1443
Vcomment
p1444
g4
sVserverIPAddress
p1445
V172.217.6.4
p1446
sVpageref
p1447
VTesla
p1448
sVstartedDateTime
p1449
V2017-04-16T08:47:21.069-05:00
p1450
sVcache
p1451
(dp1452
sVrequest
p1453
(dp1454
Vcomment
p1455
g4
sVcookies
p1456
(lp1457
sVurl
p1458
Vhttps://www.google.com/gen_204?atyp=i&ct=slh&cad=&ei=13XzWISAHcnUjwSHsLrIAQ&m=V&t=C&s=1&v=2&pv=0.34464963479372746&me=1:1492350427595,x:1,V,0,0,1280,944:0,N,1,13XzWISAHcnUjwSHsLrIAQ:0,R,1,22,8,155,1249,255:0,R,1,35,8,420,1249,142:0,R,1,49,8,572,1249,185:0,R,1,50,8,572,1249,165:0,R,1,51,8,572,1249,90:0,R,1,89,24,767,1217,94:0,R,1,91,8,882,1249,501:0,R,1,93,8,882,1197,501:0,R,1,95,95,882,1024,120:2,B,4157:7501,e,U&zx=1492350441065
p1459
sVqueryString
p1460
(lp1461
(dp1462
Vname
p1463
Vatyp
p1464
sVvalue
p1465
g30
sa(dp1466
Vname
p1467
Vct
p1468
sVvalue
p1469
Vslh
p1470
sa(dp1471
Vname
p1472
Vcad
p1473
sVvalue
p1474
g4
sa(dp1475
Vname
p1476
Vei
p1477
sVvalue
p1478
V13XzWISAHcnUjwSHsLrIAQ
p1479
sa(dp1480
Vname
p1481
g47
sVvalue
p1482
g49
sa(dp1483
Vname
p1484
g52
sVvalue
p1485
g54
sa(dp1486
Vname
p1487
g57
sVvalue
p1488
g59
sa(dp1489
Vname
p1490
g62
sVvalue
p1491
g64
sa(dp1492
Vname
p1493
Vpv
p1494
sVvalue
p1495
V0.34464963479372746
p1496
sa(dp1497
Vname
p1498
Vme
p1499
sVvalue
p1500
V1:1492350427595,x:1,V,0,0,1280,944:0,N,1,13XzWISAHcnUjwSHsLrIAQ:0,R,1,22,8,155,1249,255:0,R,1,35,8,420,1249,142:0,R,1,49,8,572,1249,185:0,R,1,50,8,572,1249,165:0,R,1,51,8,572,1249,90:0,R,1,89,24,767,1217,94:0,R,1,91,8,882,1249,501:0,R,1,93,8,882,1197,501:0,R,1,95,95,882,1024,120:2,B,4157:7501,e,U
p1501
sa(dp1502
Vname
p1503
Vzx
p1504
sVvalue
p1505
V1492350441065
p1506
sasVheaders
p1507
(lp1508
sVheadersSize
p1509
I949
sVbodySize
p1510
I0
sVmethod
p1511
VGET
p1512
sVhttpVersion
p1513
VHTTP/1.1
p1514
ssVtimings
p1515
(dp1516
Vcomment
p1517
g4
sVreceive
p1518
I0
sVsend
p1519
I0
sVssl
p1520
I-1
sVconnect
p1521
I-1
sVdns
p1522
I-1
sVwait
p1523
I26
sVblocked
p1524
I-1
ssVtime
p1525
I27
sVresponse
p1526
(dp1527
Vstatus
p1528
I204
sVcomment
p1529
g4
sVcookies
p1530
(lp1531
sVstatusText
p1532
VNo Content
p1533
sVcontent
p1534
(dp1535
VmimeType
p1536
Vtext/html; charset=UTF-8
p1537
sVcomment
p1538
g4
sVsize
p1539
I0
ssVheaders
p1540
(lp1541
sVheadersSize
p1542
I248
sVredirectURL
p1543
g4
sVbodySize
p1544
I0
sVhttpVersion
p1545
VHTTP/1.1
p1546
ssa(dp1547
Vcomment
p1548
g4
sVserverIPAddress
p1549
V172.217.6.4
p1550
sVpageref
p1551
VTesla
p1552
sVstartedDateTime
p1553
V2017-04-16T08:47:21.620-05:00
p1554
sVcache
p1555
(dp1556
sVrequest
p1557
(dp1558
Vcomment
p1559
g4
sVcookies
p1560
(lp1561
sVurl
p1562
Vhttps://www.google.com/gen_204?s=web&atyp=csi&ei=4nXzWKO_LoWijwSM2oGIDg&imc=66&imn=66&imp=18&adh=&xjs=init.53.14.sb_mob.43.dvl.3.jsa.2.c.1.mbsf.1&ima=11&rt=prt.2045,iml.2154,xjsls.2046,dcl.2106,qiml.2339,xjses.2299,xjsee.2545,xjs.2546,ol.5690,aft.2138,wsrt.120,cst.0,dnst.0,rqst.1448,rspt.1339,rqstt.3,unt.3,cstt.3,dit.2181
p1563
sVqueryString
p1564
(lp1565
(dp1566
Vname
p1567
g57
sVvalue
p1568
Vweb
p1569
sa(dp1570
Vname
p1571
Vatyp
p1572
sVvalue
p1573
Vcsi
p1574
sa(dp1575
Vname
p1576
Vei
p1577
sVvalue
p1578
V4nXzWKO_LoWijwSM2oGIDg
p1579
sa(dp1580
Vname
p1581
Vimc
p1582
sVvalue
p1583
V66
p1584
sa(dp1585
Vname
p1586
Vimn
p1587
sVvalue
p1588
V66
p1589
sa(dp1590
Vname
p1591
Vimp
p1592
sVvalue
p1593
V18
p1594
sa(dp1595
Vname
p1596
Vadh
p1597
sVvalue
p1598
g4
sa(dp1599
Vname
p1600
Vxjs
p1601
sVvalue
p1602
Vinit.53.14.sb_mob.43.dvl.3.jsa.2.c.1.mbsf.1
p1603
sa(dp1604
Vname
p1605
Vima
p1606
sVvalue
p1607
V11
p1608
sa(dp1609
Vname
p1610
Vrt
p1611
sVvalue
p1612
Vprt.2045,iml.2154,xjsls.2046,dcl.2106,qiml.2339,xjses.2299,xjsee.2545,xjs.2546,ol.5690,aft.2138,wsrt.120,cst.0,dnst.0,rqst.1448,rspt.1339,rqstt.3,unt.3,cstt.3,dit.2181
p1613
sasVheaders
p1614
(lp1615
sVheadersSize
p1616
I840
sVbodySize
p1617
I0
sVmethod
p1618
VGET
p1619
sVhttpVersion
p1620
VHTTP/1.1
p1621
ssVtimings
p1622
(dp1623
Vcomment
p1624
g4
sVreceive
p1625
I0
sVsend
p1626
I0
sVssl
p1627
I-1
sVconnect
p1628
I-1
sVdns
p1629
I-1
sVwait
p1630
I39
sVblocked
p1631
I-1
ssVtime
p1632
I39
sVresponse
p1633
(dp1634
Vstatus
p1635
I204
sVcomment
p1636
g4
sVcookies
p1637
(lp1638
sVstatusText
p1639
VNo Content
p1640
sVcontent
p1641
(dp1642
VmimeType
p1643
Vtext/html; charset=UTF-8
p1644
sVcomment
p1645
g4
sVsize
p1646
I0
ssVheaders
p1647
(lp1648
sVheadersSize
p1649
I248
sVredirectURL
p1650
g4
sVbodySize
p1651
I0
sVhttpVersion
p1652
VHTTP/1.1
p1653
ssa(dp1654
Vcomment
p1655
g4
sVserverIPAddress
p1656
V216.58.216.193
p1657
sVpageref
p1658
VTesla
p1659
sVstartedDateTime
p1660
V2017-04-16T08:47:22.302-05:00
p1661
sVcache
p1662
(dp1663
sVrequest
p1664
(dp1665
Vcomment
p1666
g4
sVcookies
p1667
(lp1668
sVurl
p1669
Vhttps://1-gravatar-com.cdn.ampproject.org/i/1.gravatar.com/avatar/48b729581bf21a98a52694370573c39f?s=62&d=mm&r=g
p1670
sVqueryString
p1671
(lp1672
(dp1673
Vname
p1674
g57
sVvalue
p1675
V62
p1676
sa(dp1677
Vname
p1678
Vd
p1679
sVvalue
p1680
Vmm
p1681
sa(dp1682
Vname
p1683
Vr
p1684
sVvalue
p1685
Vg
p1686
sasVheaders
p1687
(lp1688
sVheadersSize
p1689
I446
sVbodySize
p1690
I0
sVmethod
p1691
VGET
p1692
sVhttpVersion
p1693
VHTTP/1.1
p1694
ssVtimings
p1695
(dp1696
Vcomment
p1697
g4
sVreceive
p1698
I0
sVsend
p1699
I0
sVssl
p1700
I486
sVconnect
p1701
I501
sVdns
p1702
I30
sVwait
p1703
I26
sVblocked
p1704
I0
ssVtime
p1705
I558
sVresponse
p1706
(dp1707
Vstatus
p1708
I200
sVcomment
p1709
g4
sVcookies
p1710
(lp1711
sVstatusText
p1712
VOK
p1713
sVcontent
p1714
(dp1715
VmimeType
p1716
Vimage/jpeg
p1717
sVcomment
p1718
g4
sVsize
p1719
I0
ssVheaders
p1720
(lp1721
sVheadersSize
p1722
I843
sVredirectURL
p1723
g4
sVbodySize
p1724
I902
sVhttpVersion
p1725
VHTTP/1.1
p1726
ssa(dp1727
Vcomment
p1728
g4
sVserverIPAddress
p1729
V216.58.216.193
p1730
sVpageref
p1731
VTesla
p1732
sVstartedDateTime
p1733
V2017-04-16T08:47:22.309-05:00
p1734
sVcache
p1735
(dp1736
sVrequest
p1737
(dp1738
Vcomment
p1739
g4
sVcookies
p1740
(lp1741
sVurl
p1742
Vhttps://blogs--images-forbes-com.cdn.ampproject.org/ii/w1200/blogs-images.forbes.com/brookecrothers/files/2017/04/tesla-model-3-red-edit-3.jpg?width=960
p1743
sVqueryString
p1744
(lp1745
(dp1746
Vname
p1747
Vwidth
p1748
sVvalue
p1749
V960
p1750
sasVheaders
p1751
(lp1752
sVheadersSize
p1753
I486
sVbodySize
p1754
I0
sVmethod
p1755
VGET
p1756
sVhttpVersion
p1757
VHTTP/1.1
p1758
ssVtimings
p1759
(dp1760
Vcomment
p1761
g4
sVreceive
p1762
I25
sVsend
p1763
I0
sVssl
p1764
I520
sVconnect
p1765
I539
sVdns
p1766
I28
sVwait
p1767
I26
sVblocked
p1768
I0
ssVtime
p1769
I619
sVresponse
p1770
(dp1771
Vstatus
p1772
I200
sVcomment
p1773
g4
sVcookies
p1774
(lp1775
sVstatusText
p1776
VOK
p1777
sVcontent
p1778
(dp1779
VmimeType
p1780
Vimage/jpeg
p1781
sVcomment
p1782
g4
sVsize
p1783
I0
ssVheaders
p1784
(lp1785
sVheadersSize
p1786
I849
sVredirectURL
p1787
g4
sVbodySize
p1788
I31656
sVhttpVersion
p1789
VHTTP/1.1
p1790
ssasVversion
p1791
V1.2
p1792
sVpages
p1793
(lp1794
(dp1795
VpageTimings
p1796
(dp1797
Vcomment
p1798
g4
ssVcomment
p1799
g4
sVtitle
p1800
VTesla
p1801
sVid
p1802
VTesla
p1803
sVstartedDateTime
p1804
V2017-04-16T08:47:15.090-05:00
p1805
sasVcreator
p1806
(dp1807
Vcomment
p1808
g4
sVversion
p1809
V2.1.4
p1810
sVname
p1811
VBrowserMob Proxy
p1812
sss.