(dp0
Vlog
p1
(dp2
Vcomment
p3
V
p4
sVentries
p5
(lp6
(dp7
Vcomment
p8
g4
sVserverIPAddress
p9
V216.58.216.196
p10
sVpageref
p11
VKevin Durant
p12
sVstartedDateTime
p13
V2017-04-16T08:04:07.590-05:00
p14
sVcache
p15
(dp16
sVrequest
p17
(dp18
Vcomment
p19
g4
sVcookies
p20
(lp21
sVurl
p22
Vhttps://www.google.com/gen_204?atyp=i&ct=slh&cad=&ei=umvzWJiyGo3ljwTBw6aYBQ&m=V&t=C&s=1&v=2&pv=0.21357341382559125&me=1:1492347837240,x:1,V,0,0,1280,944:0,N,1,umvzWJiyGo3ljwTBw6aYBQ:0,R,1,24,8,155,1249,251:0,R,1,34,8,416,1249,796:0,R,1,35,8,416,1249,796:0,R,1,38,8,429,1249,40:0,R,1,51,8,481,1249,178:0,R,1,54,0,497,1265,197:0,R,1,94,8,659,1249,49:0,R,1,96,8,725,1249,40:0,R,1,97,24,725,1217,40:0,R,1,103,8,781,1249,20:0,R,1,105,8,809,1249,20:0,R,1,119,8,849,1249,310:0,R,1,120,0,894,1265,285:2,B,3570:10345,e,U&zx=1492347847589
p23
sVqueryString
p24
(lp25
(dp26
Vname
p27
Vatyp
p28
sVvalue
p29
Vi
p30
sa(dp31
Vname
p32
Vct
p33
sVvalue
p34
Vslh
p35
sa(dp36
Vname
p37
Vcad
p38
sVvalue
p39
g4
sa(dp40
Vname
p41
Vei
p42
sVvalue
p43
VumvzWJiyGo3ljwTBw6aYBQ
p44
sa(dp45
Vname
p46
Vm
p47
sVvalue
p48
VV
p49
sa(dp50
Vname
p51
Vt
p52
sVvalue
p53
VC
p54
sa(dp55
Vname
p56
Vs
p57
sVvalue
p58
V1
p59
sa(dp60
Vname
p61
Vv
p62
sVvalue
p63
V2
p64
sa(dp65
Vname
p66
Vpv
p67
sVvalue
p68
V0.21357341382559125
p69
sa(dp70
Vname
p71
Vme
p72
sVvalue
p73
V1:1492347837240,x:1,V,0,0,1280,944:0,N,1,umvzWJiyGo3ljwTBw6aYBQ:0,R,1,24,8,155,1249,251:0,R,1,34,8,416,1249,796:0,R,1,35,8,416,1249,796:0,R,1,38,8,429,1249,40:0,R,1,51,8,481,1249,178:0,R,1,54,0,497,1265,197:0,R,1,94,8,659,1249,49:0,R,1,96,8,725,1249,40:0,R,1,97,24,725,1217,40:0,R,1,103,8,781,1249,20:0,R,1,105,8,809,1249,20:0,R,1,119,8,849,1249,310:0,R,1,120,0,894,1265,285:2,B,3570:10345,e,U
p74
sa(dp75
Vname
p76
Vzx
p77
sVvalue
p78
V1492347847589
p79
sasVheaders
p80
(lp81
sVheadersSize
p82
I1045
sVbodySize
p83
I0
sVmethod
p84
VGET
p85
sVhttpVersion
p86
VHTTP/1.1
p87
ssVtimings
p88
(dp89
Vcomment
p90
g4
sVreceive
p91
I0
sVsend
p92
I0
sVssl
p93
I-1
sVconnect
p94
I-1
sVdns
p95
I-1
sVwait
p96
I0
sVblocked
p97
I-1
ssVtime
p98
I0
sVresponse
p99
(dp100
Vstatus
p101
I0
sVcomment
p102
g4
sVcookies
p103
(lp104
sV_error
p105
VNo response received
p106
sVstatusText
p107
g4
sVcontent
p108
(dp109
VmimeType
p110
g4
sVcomment
p111
g4
sVsize
p112
I0
ssVheaders
p113
(lp114
sVheadersSize
p115
I-1
sVredirectURL
p116
g4
sVbodySize
p117
I-1
sVhttpVersion
p118
Vunknown
p119
ssa(dp120
Vcomment
p121
g4
sVserverIPAddress
p122
V216.58.216.196
p123
sVpageref
p124
VKevin Durant
p125
sVstartedDateTime
p126
V2017-04-16T08:04:07.594-05:00
p127
sVcache
p128
(dp129
sVrequest
p130
(dp131
Vcomment
p132
g4
sVcookies
p133
(lp134
sVurl
p135
Vhttp://www.google.com/
p136
sVqueryString
p137
(lp138
sVheaders
p139
(lp140
sVheadersSize
p141
I613
sVbodySize
p142
I0
sVmethod
p143
VGET
p144
sVhttpVersion
p145
VHTTP/1.1
p146
ssVtimings
p147
(dp148
Vcomment
p149
g4
sVreceive
p150
I0
sVsend
p151
I0
sVssl
p152
I-1
sVconnect
p153
I-1
sVdns
p154
I-1
sVwait
p155
I47
sVblocked
p156
I-1
ssVtime
p157
I48
sVresponse
p158
(dp159
Vstatus
p160
I302
sVcomment
p161
g4
sVcookies
p162
(lp163
sVstatusText
p164
VFound
p165
sVcontent
p166
(dp167
VmimeType
p168
Vtext/html; charset=UTF-8
p169
sVcomment
p170
g4
sVsize
p171
I0
ssVheaders
p172
(lp173
sVheadersSize
p174
I609
sVredirectURL
p175
Vhttps://www.google.com/?gws_rd=ssl
p176
sVbodySize
p177
I231
sVhttpVersion
p178
VHTTP/1.1
p179
ssa(dp180
Vcomment
p181
g4
sVserverIPAddress
p182
V216.58.216.196
p183
sVpageref
p184
VKevin Durant
p185
sVstartedDateTime
p186
V2017-04-16T08:04:07.646-05:00
p187
sVcache
p188
(dp189
sVrequest
p190
(dp191
Vcomment
p192
g4
sVcookies
p193
(lp194
sVurl
p195
Vhttps://www.google.com/?gws_rd=ssl
p196
sVqueryString
p197
(lp198
(dp199
Vname
p200
Vgws_rd
p201
sVvalue
p202
Vssl
p203
sasVheaders
p204
(lp205
sVheadersSize
p206
I607
sVbodySize
p207
I0
sVmethod
p208
VGET
p209
sVhttpVersion
p210
VHTTP/1.1
p211
ssVtimings
p212
(dp213
Vcomment
p214
g4
sVreceive
p215
I21
sVsend
p216
I0
sVssl
p217
I-1
sVconnect
p218
I-1
sVdns
p219
I-1
sVwait
p220
I72
sVblocked
p221
I-1
ssVtime
p222
I93
sVresponse
p223
(dp224
Vstatus
p225
I200
sVcomment
p226
g4
sVcookies
p227
(lp228
sVstatusText
p229
VOK
p230
sVcontent
p231
(dp232
VmimeType
p233
Vtext/html; charset=UTF-8
p234
sVcomment
p235
g4
sVsize
p236
I0
ssVheaders
p237
(lp238
sVheadersSize
p239
I721
sVredirectURL
p240
g4
sVbodySize
p241
I34290
sVhttpVersion
p242
VHTTP/1.1
p243
ssa(dp244
Vcomment
p245
g4
sVserverIPAddress
p246
V216.58.216.196
p247
sVpageref
p248
VKevin Durant
p249
sVstartedDateTime
p250
V2017-04-16T08:04:07.903-05:00
p251
sVcache
p252
(dp253
sVrequest
p254
(dp255
Vcomment
p256
g4
sVcookies
p257
(lp258
sVurl
p259
Vhttps://www.google.com/gen_204?s=mobilewebhp&atyp=csi&ei=xmvzWNWtKMy-jwS2_buQCg&imc=1&imn=1&imp=0&adh=&xjs=init.23.12.sb_mob.16.dvl.3.c.1.jsa.1.mbsf.1&ima=1&rt=xjsls.7,prt.8,iml.8,dcl.29,xjses.68,xjsee.137,xjs.138,ol.162,aft.8,wsrt.148,cst.0,dnst.0,rqst.95,rspt.22,rqstt.58,unt.55,cstt.55,dit.176
p260
sVqueryString
p261
(lp262
(dp263
Vname
p264
g57
sVvalue
p265
Vmobilewebhp
p266
sa(dp267
Vname
p268
Vatyp
p269
sVvalue
p270
Vcsi
p271
sa(dp272
Vname
p273
Vei
p274
sVvalue
p275
VxmvzWNWtKMy-jwS2_buQCg
p276
sa(dp277
Vname
p278
Vimc
p279
sVvalue
p280
g59
sa(dp281
Vname
p282
Vimn
p283
sVvalue
p284
g59
sa(dp285
Vname
p286
Vimp
p287
sVvalue
p288
V0
p289
sa(dp290
Vname
p291
Vadh
p292
sVvalue
p293
g4
sa(dp294
Vname
p295
Vxjs
p296
sVvalue
p297
Vinit.23.12.sb_mob.16.dvl.3.c.1.jsa.1.mbsf.1
p298
sa(dp299
Vname
p300
Vima
p301
sVvalue
p302
g59
sa(dp303
Vname
p304
Vrt
p305
sVvalue
p306
Vxjsls.7,prt.8,iml.8,dcl.29,xjses.68,xjsee.137,xjs.138,ol.162,aft.8,wsrt.148,cst.0,dnst.0,rqst.95,rspt.22,rqstt.58,unt.55,cstt.55,dit.176
p307
sasVheaders
p308
(lp309
sVheadersSize
p310
I824
sVbodySize
p311
I0
sVmethod
p312
VGET
p313
sVhttpVersion
p314
VHTTP/1.1
p315
ssVtimings
p316
(dp317
Vcomment
p318
g4
sVreceive
p319
I0
sVsend
p320
I0
sVssl
p321
I-1
sVconnect
p322
I-1
sVdns
p323
I-1
sVwait
p324
I39
sVblocked
p325
I-1
ssVtime
p326
I40
sVresponse
p327
(dp328
Vstatus
p329
I204
sVcomment
p330
g4
sVcookies
p331
(lp332
sVstatusText
p333
VNo Content
p334
sVcontent
p335
(dp336
VmimeType
p337
Vtext/html; charset=UTF-8
p338
sVcomment
p339
g4
sVsize
p340
I0
ssVheaders
p341
(lp342
sVheadersSize
p343
I248
sVredirectURL
p344
g4
sVbodySize
p345
I0
sVhttpVersion
p346
VHTTP/1.1
p347
ssa(dp348
Vcomment
p349
g4
sVserverIPAddress
p350
V216.58.216.196
p351
sVpageref
p352
VKevin Durant
p353
sVstartedDateTime
p354
V2017-04-16T08:04:08.027-05:00
p355
sVcache
p356
(dp357
sVrequest
p358
(dp359
Vcomment
p360
g4
sVcookies
p361
(lp362
sVurl
p363
Vhttps://www.google.com/complete/search?client=mobile-gws-hp&hl=en&gs_rn=64&gs_ri=mobile-gws-hp&sla=1&gm=602&cp=0&gs_id=1&xhr=t&q=K&tch=1&ech=1&psi=xmvzWNWtKMy-jwS2_buQCg.1492347847852.1
p364
sVqueryString
p365
(lp366
(dp367
Vname
p368
Vclient
p369
sVvalue
p370
Vmobile-gws-hp
p371
sa(dp372
Vname
p373
Vhl
p374
sVvalue
p375
Ven
p376
sa(dp377
Vname
p378
Vgs_rn
p379
sVvalue
p380
V64
p381
sa(dp382
Vname
p383
Vgs_ri
p384
sVvalue
p385
Vmobile-gws-hp
p386
sa(dp387
Vname
p388
Vsla
p389
sVvalue
p390
g59
sa(dp391
Vname
p392
Vgm
p393
sVvalue
p394
V602
p395
sa(dp396
Vname
p397
Vcp
p398
sVvalue
p399
g289
sa(dp400
Vname
p401
Vgs_id
p402
sVvalue
p403
g59
sa(dp404
Vname
p405
Vxhr
p406
sVvalue
p407
g52
sa(dp408
Vname
p409
Vq
p410
sVvalue
p411
VK
p412
sa(dp413
Vname
p414
Vtch
p415
sVvalue
p416
g59
sa(dp417
Vname
p418
Vech
p419
sVvalue
p420
g59
sa(dp421
Vname
p422
Vpsi
p423
sVvalue
p424
VxmvzWNWtKMy-jwS2_buQCg.1492347847852.1
p425
sasVheaders
p426
(lp427
sVheadersSize
p428
I713
sVbodySize
p429
I0
sVmethod
p430
VGET
p431
sVhttpVersion
p432
VHTTP/1.1
p433
ssVtimings
p434
(dp435
Vcomment
p436
g4
sVreceive
p437
I0
sVsend
p438
I0
sVssl
p439
I-1
sVconnect
p440
I-1
sVdns
p441
I-1
sVwait
p442
I0
sVblocked
p443
I-1
ssVtime
p444
I0
sVresponse
p445
(dp446
Vstatus
p447
I0
sVcomment
p448
g4
sVcookies
p449
(lp450
sV_error
p451
VNo response received
p452
sVstatusText
p453
g4
sVcontent
p454
(dp455
VmimeType
p456
g4
sVcomment
p457
g4
sVsize
p458
I0
ssVheaders
p459
(lp460
sVheadersSize
p461
I-1
sVredirectURL
p462
g4
sVbodySize
p463
I-1
sVhttpVersion
p464
Vunknown
p465
ssa(dp466
Vcomment
p467
g4
sVserverIPAddress
p468
V216.58.216.196
p469
sVpageref
p470
VKevin Durant
p471
sVstartedDateTime
p472
V2017-04-16T08:04:08.081-05:00
p473
sVcache
p474
(dp475
sVrequest
p476
(dp477
Vcomment
p478
g4
sVcookies
p479
(lp480
sVurl
p481
Vhttps://www.google.com/search?site=&source=hp&ei=xmvzWNWtKMy-jwS2_buQCg&q=Kevin+Durant&oq=Kevin+Durant&gs_l=mobile-gws-hp.3...157.186.0.208.12.1.0.0.0.0.0.0..0.0....0...1c.1.64.mobile-gws-hp..12.0.0.MYhoaxR1Au8
p482
sVqueryString
p483
(lp484
(dp485
Vname
p486
Vsite
p487
sVvalue
p488
g4
sa(dp489
Vname
p490
Vsource
p491
sVvalue
p492
Vhp
p493
sa(dp494
Vname
p495
Vei
p496
sVvalue
p497
VxmvzWNWtKMy-jwS2_buQCg
p498
sa(dp499
Vname
p500
g410
sVvalue
p501
VKevin Durant
p502
sa(dp503
Vname
p504
Voq
p505
sVvalue
p506
VKevin Durant
p507
sa(dp508
Vname
p509
Vgs_l
p510
sVvalue
p511
Vmobile-gws-hp.3...157.186.0.208.12.1.0.0.0.0.0.0..0.0....0...1c.1.64.mobile-gws-hp..12.0.0.MYhoaxR1Au8
p512
sasVheaders
p513
(lp514
sVheadersSize
p515
I828
sVbodySize
p516
I0
sVmethod
p517
VGET
p518
sVhttpVersion
p519
VHTTP/1.1
p520
ssVtimings
p521
(dp522
Vcomment
p523
g4
sVreceive
p524
I992
sVsend
p525
I0
sVssl
p526
I-1
sVconnect
p527
I-1
sVdns
p528
I-1
sVwait
p529
I91
sVblocked
p530
I-1
ssVtime
p531
I1083
sVresponse
p532
(dp533
Vstatus
p534
I200
sVcomment
p535
g4
sVcookies
p536
(lp537
sVstatusText
p538
VOK
p539
sVcontent
p540
(dp541
VmimeType
p542
Vtext/html; charset=UTF-8
p543
sVcomment
p544
g4
sVsize
p545
I0
ssVheaders
p546
(lp547
sVheadersSize
p548
I363
sVredirectURL
p549
g4
sVbodySize
p550
I185509
sVhttpVersion
p551
VHTTP/1.1
p552
ssa(dp553
Vcomment
p554
g4
sVserverIPAddress
p555
V216.58.216.196
p556
sVpageref
p557
VKevin Durant
p558
sVstartedDateTime
p559
V2017-04-16T08:04:09.519-05:00
p560
sVcache
p561
(dp562
sVrequest
p563
(dp564
Vcomment
p565
g4
sVcookies
p566
(lp567
sVurl
p568
Vhttps://www.google.com/xjs/_/js/k=xjs.qs.en_US.pCBXVCvTH3s.O/m=syl,syj,syn,em3,em8,em6,em7,sym,aa,abd,sy2g,sy2k,sy29,sy2j,sy2d,sy2a,sy2c,sy2f,sy2l,sy2m,sy2n,emd,async,sybn,sybi,sybo,sy1f,sy45,sy46,sy9w,sybk,sybj,sybp,sy1g,sy30,sy47,sybm,sybl,sybq,sy1h,sybh,dvl,syep,foot,ipv6,sy5g,sy5j,sy5h,sy6u,sy7d,sy7j,sy2x,sy5i,sy89,sy7e,sy23,sy2y,sy5k,sy6c,sy91,sy9b,sy9l,syhi,syhj,lrli,sy32,emj,shm,sykh,tl,sy2t,sy38,em12,vs,sy66,sy67,sy4u,sy69,sykk,sykl,tnv,bct,sy9m,syac,sy24,sy4g,sy9n,syhz,syl6,ssc,sy1y,sya3,sy22,sy6i,sy25,sya2,sy6j,sy72,emb,sy26,em9,ema,sy31,sya4,sykr,strm,syh6,syl5,kac,kae,strx,sy6y,sycu,d3l,sy2u,sy34,sy6l,sy6k,sy6h,sy6m,qkx,sy4d,sy4f,sy4c,sy4e,sy4b,sy6w,shrb,syd7,dgm,syf5,syf6,syf8,sygb,syg9,kptm,sy99,syf4,syfc,syfn,syf7,syff,sy1i,sy68,sy8d,syfl,syfr,syfq,syfg,sy1j,sy4q,sy5o,sy5r,sy6n,sy6p,sy8h,syc7,syc8,syfb,syfj,syfs,syft,syg3,syg5,syg7,emn,emo,syg4,syg6,ivg,iuci,img,sy41,tcc,sygq,kpc,kpci,sy4h,vrml,twt,syj7,syj8,syj2,syjc,syj6,syj3,syjg,syjh,syje,syjd,syjk,syji,syjf,syj0,emr,ems,emt,emu,emv,emx,emy,emz,em10,em11,udlg,sy5z,atn,sy4i,sya1,ampfp/am=gCP4LtMEBXQA2RUaq_oFBISzAFA/rt=j/d=0/t=zcms/rs=ACT90oFwm4NZCwIcuuiqmthdlECdBzkhRA
p569
sVqueryString
p570
(lp571
sVheaders
p572
(lp573
sVheadersSize
p574
I1670
sVbodySize
p575
I0
sVmethod
p576
VGET
p577
sVhttpVersion
p578
VHTTP/1.1
p579
ssVtimings
p580
(dp581
Vcomment
p582
g4
sVreceive
p583
I26
sVsend
p584
I0
sVssl
p585
I-1
sVconnect
p586
I-1
sVdns
p587
I-1
sVwait
p588
I179
sVblocked
p589
I-1
ssVtime
p590
I206
sVresponse
p591
(dp592
Vstatus
p593
I200
sVcomment
p594
g4
sVcookies
p595
(lp596
sVstatusText
p597
VOK
p598
sVcontent
p599
(dp600
VmimeType
p601
Vtext/javascript; charset=UTF-8
p602
sVcomment
p603
g4
sVsize
p604
I0
ssVheaders
p605
(lp606
sVheadersSize
p607
I464
sVredirectURL
p608
g4
sVbodySize
p609
I120172
sVhttpVersion
p610
VHTTP/1.1
p611
ssa(dp612
Vcomment
p613
g4
sVserverIPAddress
p614
V216.58.216.196
p615
sVpageref
p616
VKevin Durant
p617
sVstartedDateTime
p618
V2017-04-16T08:04:10.144-05:00
p619
sVcache
p620
(dp621
sVrequest
p622
(dp623
Vcomment
p624
g4
sVcookies
p625
(lp626
sVurl
p627
Vhttps://www.google.com/async/irc?vet=10ahUKEwi2nLv6hKnTAhXs5YMKHcHXC-MQo0EInwI..i&ved=0ahUKEwi2nLv6hKnTAhXs5YMKHcHXC-MQo0EInwI&ei=x2vzWPacBuzLjwTBr6-YDg&yv=2&async=iu:1,ved:0ahUKEwi2nLv6hKnTAhXs5YMKHcHXC-MQo0EInwI,_id:irc_async,_pms:qs
p628
sVqueryString
p629
(lp630
(dp631
Vname
p632
Vvet
p633
sVvalue
p634
V10ahUKEwi2nLv6hKnTAhXs5YMKHcHXC-MQo0EInwI..i
p635
sa(dp636
Vname
p637
Vved
p638
sVvalue
p639
V0ahUKEwi2nLv6hKnTAhXs5YMKHcHXC-MQo0EInwI
p640
sa(dp641
Vname
p642
Vei
p643
sVvalue
p644
Vx2vzWPacBuzLjwTBr6-YDg
p645
sa(dp646
Vname
p647
Vyv
p648
sVvalue
p649
g64
sa(dp650
Vname
p651
Vasync
p652
sVvalue
p653
Viu:1,ved:0ahUKEwi2nLv6hKnTAhXs5YMKHcHXC-MQo0EInwI,_id:irc_async,_pms:qs
p654
sasVheaders
p655
(lp656
sVheadersSize
p657
I752
sVbodySize
p658
I0
sVmethod
p659
VGET
p660
sVhttpVersion
p661
VHTTP/1.1
p662
ssVtimings
p663
(dp664
Vcomment
p665
g4
sVreceive
p666
I0
sVsend
p667
I0
sVssl
p668
I-1
sVconnect
p669
I-1
sVdns
p670
I-1
sVwait
p671
I38
sVblocked
p672
I-1
ssVtime
p673
I39
sVresponse
p674
(dp675
Vstatus
p676
I200
sVcomment
p677
g4
sVcookies
p678
(lp679
sVstatusText
p680
VOK
p681
sVcontent
p682
(dp683
VmimeType
p684
Vtext/html; charset=UTF-8
p685
sVcomment
p686
g4
sVsize
p687
I0
ssVheaders
p688
(lp689
sVheadersSize
p690
I383
sVredirectURL
p691
g4
sVbodySize
p692
I7792
sVhttpVersion
p693
VHTTP/1.1
p694
ssa(dp695
Vcomment
p696
g4
sVserverIPAddress
p697
V216.58.216.196
p698
sVpageref
p699
VKevin Durant
p700
sVstartedDateTime
p701
V2017-04-16T08:04:10.151-05:00
p702
sVcache
p703
(dp704
sVrequest
p705
(dp706
Vcomment
p707
g4
sVcookies
p708
(lp709
sVurl
p710
Vhttps://www.google.com/gen_204?atyp=i&ct=&cad=&vet=10ahUKEwi2nLv6hKnTAhXs5YMKHcHXC-MQ5W0IaigC..s&ei=x2vzWPacBuzLjwTBr6-YDg&zx=1492347850150
p711
sVqueryString
p712
(lp713
(dp714
Vname
p715
Vatyp
p716
sVvalue
p717
g30
sa(dp718
Vname
p719
Vct
p720
sVvalue
p721
g4
sa(dp722
Vname
p723
Vcad
p724
sVvalue
p725
g4
sa(dp726
Vname
p727
Vvet
p728
sVvalue
p729
V10ahUKEwi2nLv6hKnTAhXs5YMKHcHXC-MQ5W0IaigC..s
p730
sa(dp731
Vname
p732
Vei
p733
sVvalue
p734
Vx2vzWPacBuzLjwTBr6-YDg
p735
sa(dp736
Vname
p737
Vzx
p738
sVvalue
p739
V1492347850150
p740
sasVheaders
p741
(lp742
sVheadersSize
p743
I656
sVbodySize
p744
I0
sVmethod
p745
VGET
p746
sVhttpVersion
p747
VHTTP/1.1
p748
ssVtimings
p749
(dp750
Vcomment
p751
g4
sVreceive
p752
I0
sVsend
p753
I0
sVssl
p754
I-1
sVconnect
p755
I-1
sVdns
p756
I-1
sVwait
p757
I40
sVblocked
p758
I-1
ssVtime
p759
I40
sVresponse
p760
(dp761
Vstatus
p762
I204
sVcomment
p763
g4
sVcookies
p764
(lp765
sVstatusText
p766
VNo Content
p767
sVcontent
p768
(dp769
VmimeType
p770
Vtext/html; charset=UTF-8
p771
sVcomment
p772
g4
sVsize
p773
I0
ssVheaders
p774
(lp775
sVheadersSize
p776
I248
sVredirectURL
p777
g4
sVbodySize
p778
I0
sVhttpVersion
p779
VHTTP/1.1
p780
ssa(dp781
Vcomment
p782
g4
sVserverIPAddress
p783
V216.58.216.196
p784
sVpageref
p785
VKevin Durant
p786
sVstartedDateTime
p787
V2017-04-16T08:04:10.152-05:00
p788
sVcache
p789
(dp790
sVrequest
p791
(dp792
Vcomment
p793
g4
sVcookies
p794
(lp795
sVurl
p796
Vhttps://www.google.com/gen_204?atyp=i&ct=&cad=&vet=10ahUKEwi2nLv6hKnTAhXs5YMKHcHXC-MQ5W0IbSgD..s&ei=x2vzWPacBuzLjwTBr6-YDg&zx=1492347850151
p797
sVqueryString
p798
(lp799
(dp800
Vname
p801
Vatyp
p802
sVvalue
p803
g30
sa(dp804
Vname
p805
Vct
p806
sVvalue
p807
g4
sa(dp808
Vname
p809
Vcad
p810
sVvalue
p811
g4
sa(dp812
Vname
p813
Vvet
p814
sVvalue
p815
V10ahUKEwi2nLv6hKnTAhXs5YMKHcHXC-MQ5W0IbSgD..s
p816
sa(dp817
Vname
p818
Vei
p819
sVvalue
p820
Vx2vzWPacBuzLjwTBr6-YDg
p821
sa(dp822
Vname
p823
Vzx
p824
sVvalue
p825
V1492347850151
p826
sasVheaders
p827
(lp828
sVheadersSize
p829
I656
sVbodySize
p830
I0
sVmethod
p831
VGET
p832
sVhttpVersion
p833
VHTTP/1.1
p834
ssVtimings
p835
(dp836
Vcomment
p837
g4
sVreceive
p838
I0
sVsend
p839
I0
sVssl
p840
I-1
sVconnect
p841
I-1
sVdns
p842
I-1
sVwait
p843
I44
sVblocked
p844
I-1
ssVtime
p845
I44
sVresponse
p846
(dp847
Vstatus
p848
I204
sVcomment
p849
g4
sVcookies
p850
(lp851
sVstatusText
p852
VNo Content
p853
sVcontent
p854
(dp855
VmimeType
p856
Vtext/html; charset=UTF-8
p857
sVcomment
p858
g4
sVsize
p859
I0
ssVheaders
p860
(lp861
sVheadersSize
p862
I248
sVredirectURL
p863
g4
sVbodySize
p864
I0
sVhttpVersion
p865
VHTTP/1.1
p866
ssa(dp867
Vcomment
p868
g4
sVserverIPAddress
p869
V216.58.216.196
p870
sVpageref
p871
VKevin Durant
p872
sVstartedDateTime
p873
V2017-04-16T08:04:10.153-05:00
p874
sVcache
p875
(dp876
sVrequest
p877
(dp878
Vcomment
p879
g4
sVcookies
p880
(lp881
sVurl
p882
Vhttps://www.google.com/gen_204?atyp=i&ct=&cad=&vet=10ahUKEwi2nLv6hKnTAhXs5YMKHcHXC-MQ5W0IcCgE..s&ei=x2vzWPacBuzLjwTBr6-YDg&zx=1492347850152
p883
sVqueryString
p884
(lp885
(dp886
Vname
p887
Vatyp
p888
sVvalue
p889
g30
sa(dp890
Vname
p891
Vct
p892
sVvalue
p893
g4
sa(dp894
Vname
p895
Vcad
p896
sVvalue
p897
g4
sa(dp898
Vname
p899
Vvet
p900
sVvalue
p901
V10ahUKEwi2nLv6hKnTAhXs5YMKHcHXC-MQ5W0IcCgE..s
p902
sa(dp903
Vname
p904
Vei
p905
sVvalue
p906
Vx2vzWPacBuzLjwTBr6-YDg
p907
sa(dp908
Vname
p909
Vzx
p910
sVvalue
p911
V1492347850152
p912
sasVheaders
p913
(lp914
sVheadersSize
p915
I656
sVbodySize
p916
I0
sVmethod
p917
VGET
p918
sVhttpVersion
p919
VHTTP/1.1
p920
ssVtimings
p921
(dp922
Vcomment
p923
g4
sVreceive
p924
I0
sVsend
p925
I0
sVssl
p926
I-1
sVconnect
p927
I-1
sVdns
p928
I-1
sVwait
p929
I44
sVblocked
p930
I-1
ssVtime
p931
I44
sVresponse
p932
(dp933
Vstatus
p934
I204
sVcomment
p935
g4
sVcookies
p936
(lp937
sVstatusText
p938
VNo Content
p939
sVcontent
p940
(dp941
VmimeType
p942
Vtext/html; charset=UTF-8
p943
sVcomment
p944
g4
sVsize
p945
I0
ssVheaders
p946
(lp947
sVheadersSize
p948
I248
sVredirectURL
p949
g4
sVbodySize
p950
I0
sVhttpVersion
p951
VHTTP/1.1
p952
ssa(dp953
Vcomment
p954
g4
sVserverIPAddress
p955
V216.58.216.196
p956
sVpageref
p957
VKevin Durant
p958
sVstartedDateTime
p959
V2017-04-16T08:04:10.185-05:00
p960
sVcache
p961
(dp962
sVrequest
p963
(dp964
Vcomment
p965
g4
sVcookies
p966
(lp967
sVurl
p968
Vhttps://www.google.com/gen_204?atyp=i&ct=&cad=&vet=10ahUKEwi2nLv6hKnTAhXs5YMKHcHXC-MQ5W0IeSgH..s&ei=x2vzWPacBuzLjwTBr6-YDg&zx=1492347850161
p969
sVqueryString
p970
(lp971
(dp972
Vname
p973
Vatyp
p974
sVvalue
p975
g30
sa(dp976
Vname
p977
Vct
p978
sVvalue
p979
g4
sa(dp980
Vname
p981
Vcad
p982
sVvalue
p983
g4
sa(dp984
Vname
p985
Vvet
p986
sVvalue
p987
V10ahUKEwi2nLv6hKnTAhXs5YMKHcHXC-MQ5W0IeSgH..s
p988
sa(dp989
Vname
p990
Vei
p991
sVvalue
p992
Vx2vzWPacBuzLjwTBr6-YDg
p993
sa(dp994
Vname
p995
Vzx
p996
sVvalue
p997
V1492347850161
p998
sasVheaders
p999
(lp1000
sVheadersSize
p1001
I656
sVbodySize
p1002
I0
sVmethod
p1003
VGET
p1004
sVhttpVersion
p1005
VHTTP/1.1
p1006
ssVtimings
p1007
(dp1008
Vcomment
p1009
g4
sVreceive
p1010
I0
sVsend
p1011
I0
sVssl
p1012
I-1
sVconnect
p1013
I-1
sVdns
p1014
I-1
sVwait
p1015
I28
sVblocked
p1016
I-1
ssVtime
p1017
I28
sVresponse
p1018
(dp1019
Vstatus
p1020
I204
sVcomment
p1021
g4
sVcookies
p1022
(lp1023
sVstatusText
p1024
VNo Content
p1025
sVcontent
p1026
(dp1027
VmimeType
p1028
Vtext/html; charset=UTF-8
p1029
sVcomment
p1030
g4
sVsize
p1031
I0
ssVheaders
p1032
(lp1033
sVheadersSize
p1034
I248
sVredirectURL
p1035
g4
sVbodySize
p1036
I0
sVhttpVersion
p1037
VHTTP/1.1
p1038
ssa(dp1039
Vcomment
p1040
g4
sVserverIPAddress
p1041
V216.58.216.196
p1042
sVpageref
p1043
VKevin Durant
p1044
sVstartedDateTime
p1045
V2017-04-16T08:04:10.207-05:00
p1046
sVcache
p1047
(dp1048
sVrequest
p1049
(dp1050
Vcomment
p1051
g4
sVcookies
p1052
(lp1053
sVurl
p1054
Vhttps://www.google.com/gen_204?atyp=i&ct=&cad=&vet=10ahUKEwi2nLv6hKnTAhXs5YMKHcHXC-MQ5W0IcygF..s&ei=x2vzWPacBuzLjwTBr6-YDg&zx=1492347850156
p1055
sVqueryString
p1056
(lp1057
(dp1058
Vname
p1059
Vatyp
p1060
sVvalue
p1061
g30
sa(dp1062
Vname
p1063
Vct
p1064
sVvalue
p1065
g4
sa(dp1066
Vname
p1067
Vcad
p1068
sVvalue
p1069
g4
sa(dp1070
Vname
p1071
Vvet
p1072
sVvalue
p1073
V10ahUKEwi2nLv6hKnTAhXs5YMKHcHXC-MQ5W0IcygF..s
p1074
sa(dp1075
Vname
p1076
Vei
p1077
sVvalue
p1078
Vx2vzWPacBuzLjwTBr6-YDg
p1079
sa(dp1080
Vname
p1081
Vzx
p1082
sVvalue
p1083
V1492347850156
p1084
sasVheaders
p1085
(lp1086
sVheadersSize
p1087
I656
sVbodySize
p1088
I0
sVmethod
p1089
VGET
p1090
sVhttpVersion
p1091
VHTTP/1.1
p1092
ssVtimings
p1093
(dp1094
Vcomment
p1095
g4
sVreceive
p1096
I0
sVsend
p1097
I0
sVssl
p1098
I23
sVconnect
p1099
I48
sVdns
p1100
I0
sVwait
p1101
I27
sVblocked
p1102
I0
ssVtime
p1103
I76
sVresponse
p1104
(dp1105
Vstatus
p1106
I204
sVcomment
p1107
g4
sVcookies
p1108
(lp1109
sVstatusText
p1110
VNo Content
p1111
sVcontent
p1112
(dp1113
VmimeType
p1114
Vtext/html; charset=UTF-8
p1115
sVcomment
p1116
g4
sVsize
p1117
I0
ssVheaders
p1118
(lp1119
sVheadersSize
p1120
I248
sVredirectURL
p1121
g4
sVbodySize
p1122
I0
sVhttpVersion
p1123
VHTTP/1.1
p1124
ssa(dp1125
Vcomment
p1126
g4
sVserverIPAddress
p1127
V216.58.216.196
p1128
sVpageref
p1129
VKevin Durant
p1130
sVstartedDateTime
p1131
V2017-04-16T08:04:10.207-05:00
p1132
sVcache
p1133
(dp1134
sVrequest
p1135
(dp1136
Vcomment
p1137
g4
sVcookies
p1138
(lp1139
sVurl
p1140
Vhttps://www.google.com/gen_204?atyp=i&ct=&cad=&vet=10ahUKEwi2nLv6hKnTAhXs5YMKHcHXC-MQ5W0IdigG..s&ei=x2vzWPacBuzLjwTBr6-YDg&zx=1492347850158
p1141
sVqueryString
p1142
(lp1143
(dp1144
Vname
p1145
Vatyp
p1146
sVvalue
p1147
g30
sa(dp1148
Vname
p1149
Vct
p1150
sVvalue
p1151
g4
sa(dp1152
Vname
p1153
Vcad
p1154
sVvalue
p1155
g4
sa(dp1156
Vname
p1157
Vvet
p1158
sVvalue
p1159
V10ahUKEwi2nLv6hKnTAhXs5YMKHcHXC-MQ5W0IdigG..s
p1160
sa(dp1161
Vname
p1162
Vei
p1163
sVvalue
p1164
Vx2vzWPacBuzLjwTBr6-YDg
p1165
sa(dp1166
Vname
p1167
Vzx
p1168
sVvalue
p1169
V1492347850158
p1170
sasVheaders
p1171
(lp1172
sVheadersSize
p1173
I656
sVbodySize
p1174
I0
sVmethod
p1175
VGET
p1176
sVhttpVersion
p1177
VHTTP/1.1
p1178
ssVtimings
p1179
(dp1180
Vcomment
p1181
g4
sVreceive
p1182
I0
sVsend
p1183
I0
sVssl
p1184
I22
sVconnect
p1185
I46
sVdns
p1186
I0
sVwait
p1187
I28
sVblocked
p1188
I0
ssVtime
p1189
I75
sVresponse
p1190
(dp1191
Vstatus
p1192
I204
sVcomment
p1193
g4
sVcookies
p1194
(lp1195
sVstatusText
p1196
VNo Content
p1197
sVcontent
p1198
(dp1199
VmimeType
p1200
Vtext/html; charset=UTF-8
p1201
sVcomment
p1202
g4
sVsize
p1203
I0
ssVheaders
p1204
(lp1205
sVheadersSize
p1206
I248
sVredirectURL
p1207
g4
sVbodySize
p1208
I0
sVhttpVersion
p1209
VHTTP/1.1
p1210
ssa(dp1211
Vcomment
p1212
g4
sVserverIPAddress
p1213
V216.58.216.196
p1214
sVpageref
p1215
VKevin Durant
p1216
sVstartedDateTime
p1217
V2017-04-16T08:04:10.241-05:00
p1218
sVcache
p1219
(dp1220
sVrequest
p1221
(dp1222
Vcomment
p1223
g4
sVcookies
p1224
(lp1225
sVurl
p1226
Vhttps://www.google.com/async/ampfp?vet=10ahUKEwi2nLv6hKnTAhXs5YMKHcHXC-MQtZoBCJ0C..i&ei=x2vzWPacBuzLjwTBr6-YDg&yv=2&async=_id:ampfp-async,_pms:qs
p1227
sVqueryString
p1228
(lp1229
(dp1230
Vname
p1231
Vvet
p1232
sVvalue
p1233
V10ahUKEwi2nLv6hKnTAhXs5YMKHcHXC-MQtZoBCJ0C..i
p1234
sa(dp1235
Vname
p1236
Vei
p1237
sVvalue
p1238
Vx2vzWPacBuzLjwTBr6-YDg
p1239
sa(dp1240
Vname
p1241
Vyv
p1242
sVvalue
p1243
g64
sa(dp1244
Vname
p1245
Vasync
p1246
sVvalue
p1247
V_id:ampfp-async,_pms:qs
p1248
sasVheaders
p1249
(lp1250
sVheadersSize
p1251
I662
sVbodySize
p1252
I0
sVmethod
p1253
VGET
p1254
sVhttpVersion
p1255
VHTTP/1.1
p1256
ssVtimings
p1257
(dp1258
Vcomment
p1259
g4
sVreceive
p1260
I1
sVsend
p1261
I0
sVssl
p1262
I-1
sVconnect
p1263
I-1
sVdns
p1264
I-1
sVwait
p1265
I39
sVblocked
p1266
I-1
ssVtime
p1267
I41
sVresponse
p1268
(dp1269
Vstatus
p1270
I200
sVcomment
p1271
g4
sVcookies
p1272
(lp1273
sVstatusText
p1274
VOK
p1275
sVcontent
p1276
(dp1277
VmimeType
p1278
Vtext/html; charset=UTF-8
p1279
sVcomment
p1280
g4
sVsize
p1281
I0
ssVheaders
p1282
(lp1283
sVheadersSize
p1284
I383
sVredirectURL
p1285
g4
sVbodySize
p1286
I4527
sVhttpVersion
p1287
VHTTP/1.1
p1288
ssa(dp1289
Vcomment
p1290
g4
sVserverIPAddress
p1291
V216.58.216.193
p1292
sVpageref
p1293
VKevin Durant
p1294
sVstartedDateTime
p1295
V2017-04-16T08:04:10.241-05:00
p1296
sVcache
p1297
(dp1298
sVrequest
p1299
(dp1300
Vcomment
p1301
g4
sVcookies
p1302
(lp1303
sVurl
p1304
Vhttps://cdn.ampproject.org/preconnect.gif?0.3853614349638319
p1305
sVqueryString
p1306
(lp1307
(dp1308
Vname
p1309
V0.3853614349638319
p1310
sVvalue
p1311
g4
sasVheaders
p1312
(lp1313
sVheadersSize
p1314
I375
sVbodySize
p1315
I0
sVmethod
p1316
VGET
p1317
sVhttpVersion
p1318
VHTTP/1.1
p1319
ssVtimings
p1320
(dp1321
Vcomment
p1322
g4
sVreceive
p1323
I0
sVsend
p1324
I0
sVssl
p1325
I-1
sVconnect
p1326
I-1
sVdns
p1327
I-1
sVwait
p1328
I26
sVblocked
p1329
I-1
ssVtime
p1330
I26
sVresponse
p1331
(dp1332
Vstatus
p1333
I200
sVcomment
p1334
g4
sVcookies
p1335
(lp1336
sVstatusText
p1337
VOK
p1338
sVcontent
p1339
(dp1340
VmimeType
p1341
Vimage/gif
p1342
sVcomment
p1343
g4
sVsize
p1344
I0
ssVheaders
p1345
(lp1346
sVheadersSize
p1347
I826
sVredirectURL
p1348
g4
sVbodySize
p1349
I37
sVhttpVersion
p1350
VHTTP/1.1
p1351
ssa(dp1352
Vcomment
p1353
g4
sVserverIPAddress
p1354
V216.58.216.206
p1355
sVpageref
p1356
VKevin Durant
p1357
sVstartedDateTime
p1358
V2017-04-16T08:04:10.253-05:00
p1359
sVcache
p1360
(dp1361
sVrequest
p1362
(dp1363
Vcomment
p1364
g4
sVcookies
p1365
(lp1366
sVurl
p1367
Vhttps://encrypted-tbn2.gstatic.com/images?q=tbn:ANd9GcRAJRVh8G14hHy_6nl0b7Aj4YCX5N0W6_EK4IhmQmAQVcNjqBIIWX5iyfJh
p1368
sVqueryString
p1369
(lp1370
(dp1371
Vname
p1372
g410
sVvalue
p1373
Vtbn:ANd9GcRAJRVh8G14hHy_6nl0b7Aj4YCX5N0W6_EK4IhmQmAQVcNjqBIIWX5iyfJh
p1374
sasVheaders
p1375
(lp1376
sVheadersSize
p1377
I427
sVbodySize
p1378
I0
sVmethod
p1379
VGET
p1380
sVhttpVersion
p1381
VHTTP/1.1
p1382
ssVtimings
p1383
(dp1384
Vcomment
p1385
g4
sVreceive
p1386
I1
sVsend
p1387
I0
sVssl
p1388
I-1
sVconnect
p1389
I-1
sVdns
p1390
I-1
sVwait
p1391
I30
sVblocked
p1392
I-1
ssVtime
p1393
I32
sVresponse
p1394
(dp1395
Vstatus
p1396
I200
sVcomment
p1397
g4
sVcookies
p1398
(lp1399
sVstatusText
p1400
VOK
p1401
sVcontent
p1402
(dp1403
VmimeType
p1404
Vimage/jpeg
p1405
sVcomment
p1406
g4
sVsize
p1407
I0
ssVheaders
p1408
(lp1409
sVheadersSize
p1410
I428
sVredirectURL
p1411
g4
sVbodySize
p1412
I5906
sVhttpVersion
p1413
VHTTP/1.1
p1414
ssa(dp1415
Vcomment
p1416
g4
sVserverIPAddress
p1417
V216.58.216.206
p1418
sVpageref
p1419
VKevin Durant
p1420
sVstartedDateTime
p1421
V2017-04-16T08:04:10.254-05:00
p1422
sVcache
p1423
(dp1424
sVrequest
p1425
(dp1426
Vcomment
p1427
g4
sVcookies
p1428
(lp1429
sVurl
p1430
Vhttps://encrypted-tbn1.gstatic.com/images?q=tbn:ANd9GcTBwVI2-Wk0CpgDKQbYXvP4deiib_GUbbT2jkx_nM1a14b0Usx8SkIiAn8
p1431
sVqueryString
p1432
(lp1433
(dp1434
Vname
p1435
g410
sVvalue
p1436
Vtbn:ANd9GcTBwVI2-Wk0CpgDKQbYXvP4deiib_GUbbT2jkx_nM1a14b0Usx8SkIiAn8
p1437
sasVheaders
p1438
(lp1439
sVheadersSize
p1440
I426
sVbodySize
p1441
I0
sVmethod
p1442
VGET
p1443
sVhttpVersion
p1444
VHTTP/1.1
p1445
ssVtimings
p1446
(dp1447
Vcomment
p1448
g4
sVreceive
p1449
I0
sVsend
p1450
I0
sVssl
p1451
I-1
sVconnect
p1452
I-1
sVdns
p1453
I-1
sVwait
p1454
I32
sVblocked
p1455
I-1
ssVtime
p1456
I33
sVresponse
p1457
(dp1458
Vstatus
p1459
I200
sVcomment
p1460
g4
sVcookies
p1461
(lp1462
sVstatusText
p1463
VOK
p1464
sVcontent
p1465
(dp1466
VmimeType
p1467
Vimage/jpeg
p1468
sVcomment
p1469
g4
sVsize
p1470
I0
ssVheaders
p1471
(lp1472
sVheadersSize
p1473
I428
sVredirectURL
p1474
g4
sVbodySize
p1475
I4206
sVhttpVersion
p1476
VHTTP/1.1
p1477
ssa(dp1478
Vcomment
p1479
g4
sVserverIPAddress
p1480
V216.58.216.196
p1481
sVpageref
p1482
VKevin Durant
p1483
sVstartedDateTime
p1484
V2017-04-16T08:04:10.339-05:00
p1485
sVcache
p1486
(dp1487
sVrequest
p1488
(dp1489
Vcomment
p1490
g4
sVcookies
p1491
(lp1492
sVurl
p1493
Vhttps://www.google.com/xjs/_/js/k=xjs.qs.en_US.pCBXVCvTH3s.O/m=syi2,syi5,syi4,fpv,sy48,sy3a,sy3c,sy5b,sy4x,sy4z,sy56,sy4y,sy5d,sy8e,sya8,sy5e,sya6,sya7,sya9,amp,sp/am=gCP4LtMEBXQA2RUaq_oFBISzAFA/rt=j/d=0/t=zcms/rs=ACT90oFwm4NZCwIcuuiqmthdlECdBzkhRA
p1494
sVqueryString
p1495
(lp1496
sVheaders
p1497
(lp1498
sVheadersSize
p1499
I765
sVbodySize
p1500
I0
sVmethod
p1501
VGET
p1502
sVhttpVersion
p1503
VHTTP/1.1
p1504
ssVtimings
p1505
(dp1506
Vcomment
p1507
g4
sVreceive
p1508
I18
sVsend
p1509
I0
sVssl
p1510
I-1
sVconnect
p1511
I-1
sVdns
p1512
I-1
sVwait
p1513
I16
sVblocked
p1514
I-1
ssVtime
p1515
I34
sVresponse
p1516
(dp1517
Vstatus
p1518
I200
sVcomment
p1519
g4
sVcookies
p1520
(lp1521
sVstatusText
p1522
VOK
p1523
sVcontent
p1524
(dp1525
VmimeType
p1526
Vtext/javascript; charset=UTF-8
p1527
sVcomment
p1528
g4
sVsize
p1529
I0
ssVheaders
p1530
(lp1531
sVheadersSize
p1532
I464
sVredirectURL
p1533
g4
sVbodySize
p1534
I50662
sVhttpVersion
p1535
VHTTP/1.1
p1536
ssa(dp1537
Vcomment
p1538
g4
sVserverIPAddress
p1539
V216.58.216.196
p1540
sVpageref
p1541
VKevin Durant
p1542
sVstartedDateTime
p1543
V2017-04-16T08:04:10.409-05:00
p1544
sVcache
p1545
(dp1546
sVrequest
p1547
(dp1548
Vcomment
p1549
g4
sVcookies
p1550
(lp1551
sVurl
p1552
Vhttps://www.google.com/async/log_amp_item_set?vet=10ahUKEwiZ1b77hKnTAhWBxYMKHWkKAkIQooQBCAE..i&ei=x2vzWPacBuzLjwTBr6-YDg&yv=2&async=num_items:1,_fmt:jspb
p1553
sVqueryString
p1554
(lp1555
(dp1556
Vname
p1557
Vvet
p1558
sVvalue
p1559
V10ahUKEwiZ1b77hKnTAhWBxYMKHWkKAkIQooQBCAE..i
p1560
sa(dp1561
Vname
p1562
Vei
p1563
sVvalue
p1564
Vx2vzWPacBuzLjwTBr6-YDg
p1565
sa(dp1566
Vname
p1567
Vyv
p1568
sVvalue
p1569
g64
sa(dp1570
Vname
p1571
Vasync
p1572
sVvalue
p1573
Vnum_items:1,_fmt:jspb
p1574
sasVheaders
p1575
(lp1576
sVheadersSize
p1577
I670
sVbodySize
p1578
I0
sVmethod
p1579
VGET
p1580
sVhttpVersion
p1581
VHTTP/1.1
p1582
ssVtimings
p1583
(dp1584
Vcomment
p1585
g4
sVreceive
p1586
I0
sVsend
p1587
I0
sVssl
p1588
I-1
sVconnect
p1589
I-1
sVdns
p1590
I-1
sVwait
p1591
I33
sVblocked
p1592
I-1
ssVtime
p1593
I33
sVresponse
p1594
(dp1595
Vstatus
p1596
I200
sVcomment
p1597
g4
sVcookies
p1598
(lp1599
sVstatusText
p1600
VOK
p1601
sVcontent
p1602
(dp1603
VmimeType
p1604
Vapplication/json; charset=UTF-8
p1605
sVcomment
p1606
g4
sVsize
p1607
I0
ssVheaders
p1608
(lp1609
sVheadersSize
p1610
I417
sVredirectURL
p1611
g4
sVbodySize
p1612
I132
sVhttpVersion
p1613
VHTTP/1.1
p1614
ssa(dp1615
Vcomment
p1616
g4
sVserverIPAddress
p1617
V216.58.216.206
p1618
sVpageref
p1619
VKevin Durant
p1620
sVstartedDateTime
p1621
V2017-04-16T08:04:10.770-05:00
p1622
sVcache
p1623
(dp1624
sVrequest
p1625
(dp1626
Vcomment
p1627
g4
sVcookies
p1628
(lp1629
sVurl
p1630
Vhttps://encrypted-tbn1.gstatic.com/images?q=tbn:ANd9GcQPWPdEDgK9lNYmVjYnybYoQ-M1fLcGz9fU9SJDuk-g5QDivEOr7m5P7Os
p1631
sVqueryString
p1632
(lp1633
(dp1634
Vname
p1635
g410
sVvalue
p1636
Vtbn:ANd9GcQPWPdEDgK9lNYmVjYnybYoQ-M1fLcGz9fU9SJDuk-g5QDivEOr7m5P7Os
p1637
sasVheaders
p1638
(lp1639
sVheadersSize
p1640
I426
sVbodySize
p1641
I0
sVmethod
p1642
VGET
p1643
sVhttpVersion
p1644
VHTTP/1.1
p1645
ssVtimings
p1646
(dp1647
Vcomment
p1648
g4
sVreceive
p1649
I0
sVsend
p1650
I0
sVssl
p1651
I457
sVconnect
p1652
I469
sVdns
p1653
I44
sVwait
p1654
I21
sVblocked
p1655
I0
ssVtime
p1656
I535
sVresponse
p1657
(dp1658
Vstatus
p1659
I200
sVcomment
p1660
g4
sVcookies
p1661
(lp1662
sVstatusText
p1663
VOK
p1664
sVcontent
p1665
(dp1666
VmimeType
p1667
Vimage/jpeg
p1668
sVcomment
p1669
g4
sVsize
p1670
I0
ssVheaders
p1671
(lp1672
sVheadersSize
p1673
I428
sVredirectURL
p1674
g4
sVbodySize
p1675
I4414
sVhttpVersion
p1676
VHTTP/1.1
p1677
ssa(dp1678
Vcomment
p1679
g4
sVserverIPAddress
p1680
V216.58.216.193
p1681
sVpageref
p1682
VKevin Durant
p1683
sVstartedDateTime
p1684
V2017-04-16T08:04:11.056-05:00
p1685
sVcache
p1686
(dp1687
sVrequest
p1688
(dp1689
Vcomment
p1690
g4
sVcookies
p1691
(lp1692
sVurl
p1693
Vhttps://www-cbssports-com.cdn.ampproject.org/v/www.cbssports.com/nba/news/road-to-the-finals-can-the-warriors-go-16-0-in-the-playoffs-with-kevin-durant/amp/?amp_js_v=9
p1694
sVqueryString
p1695
(lp1696
(dp1697
Vname
p1698
Vamp_js_v
p1699
sVvalue
p1700
V9
p1701
sasVheaders
p1702
(lp1703
sVheadersSize
p1704
I572
sVbodySize
p1705
I0
sVmethod
p1706
VGET
p1707
sVhttpVersion
p1708
VHTTP/1.1
p1709
ssVtimings
p1710
(dp1711
Vcomment
p1712
g4
sVreceive
p1713
I4
sVsend
p1714
I0
sVssl
p1715
I584
sVconnect
p1716
I606
sVdns
p1717
I34
sVwait
p1718
I106
sVblocked
p1719
I0
ssVtime
p1720
I752
sVresponse
p1721
(dp1722
Vstatus
p1723
I200
sVcomment
p1724
g4
sVcookies
p1725
(lp1726
sVstatusText
p1727
VOK
p1728
sVcontent
p1729
(dp1730
VmimeType
p1731
Vtext/html
p1732
sVcomment
p1733
g4
sVsize
p1734
I0
ssVheaders
p1735
(lp1736
sVheadersSize
p1737
I861
sVredirectURL
p1738
g4
sVbodySize
p1739
I15480
sVhttpVersion
p1740
VHTTP/1.1
p1741
ssa(dp1742
Vcomment
p1743
g4
sVserverIPAddress
p1744
V216.58.216.193
p1745
sVpageref
p1746
VKevin Durant
p1747
sVstartedDateTime
p1748
V2017-04-16T08:04:11.668-05:00
p1749
sVcache
p1750
(dp1751
sVrequest
p1752
(dp1753
Vcomment
p1754
g4
sVcookies
p1755
(lp1756
sVurl
p1757
Vhttps://sports-cbsimg-net.cdn.ampproject.org/r/s/sports.cbsimg.net/fonts/proxima-nova/regular/webfont.woff2
p1758
sVqueryString
p1759
(lp1760
sVheaders
p1761
(lp1762
sVheadersSize
p1763
I674
sVbodySize
p1764
I0
sVmethod
p1765
VGET
p1766
sVhttpVersion
p1767
VHTTP/1.1
p1768
ssVtimings
p1769
(dp1770
Vcomment
p1771
g4
sVreceive
p1772
I16
sVsend
p1773
I0
sVssl
p1774
I406
sVconnect
p1775
I428
sVdns
p1776
I31
sVwait
p1777
I32
sVblocked
p1778
I0
ssVtime
p1779
I507
sVresponse
p1780
(dp1781
Vstatus
p1782
I200
sVcomment
p1783
g4
sVcookies
p1784
(lp1785
sVstatusText
p1786
VOK
p1787
sVcontent
p1788
(dp1789
VmimeType
p1790
Vtext/plain
p1791
sVcomment
p1792
g4
sVsize
p1793
I0
ssVheaders
p1794
(lp1795
sVheadersSize
p1796
I884
sVredirectURL
p1797
g4
sVbodySize
p1798
I20256
sVhttpVersion
p1799
VHTTP/1.1
p1800
ssa(dp1801
Vcomment
p1802
g4
sVserverIPAddress
p1803
V216.58.216.193
p1804
sVpageref
p1805
VKevin Durant
p1806
sVstartedDateTime
p1807
V2017-04-16T08:04:11.668-05:00
p1808
sVcache
p1809
(dp1810
sVrequest
p1811
(dp1812
Vcomment
p1813
g4
sVcookies
p1814
(lp1815
sVurl
p1816
Vhttps://sports-cbsimg-net.cdn.ampproject.org/r/s/sports.cbsimg.net/fonts/proxima-nova/extra-bold/webfont.woff2
p1817
sVqueryString
p1818
(lp1819
sVheaders
p1820
(lp1821
sVheadersSize
p1822
I677
sVbodySize
p1823
I0
sVmethod
p1824
VGET
p1825
sVhttpVersion
p1826
VHTTP/1.1
p1827
ssVtimings
p1828
(dp1829
Vcomment
p1830
g4
sVreceive
p1831
I19
sVsend
p1832
I0
sVssl
p1833
I408
sVconnect
p1834
I431
sVdns
p1835
I29
sVwait
p1836
I32
sVblocked
p1837
I0
ssVtime
p1838
I512
sVresponse
p1839
(dp1840
Vstatus
p1841
I200
sVcomment
p1842
g4
sVcookies
p1843
(lp1844
sVstatusText
p1845
VOK
p1846
sVcontent
p1847
(dp1848
VmimeType
p1849
Vtext/plain
p1850
sVcomment
p1851
g4
sVsize
p1852
I0
ssVheaders
p1853
(lp1854
sVheadersSize
p1855
I884
sVredirectURL
p1856
g4
sVbodySize
p1857
I22016
sVhttpVersion
p1858
VHTTP/1.1
p1859
ssa(dp1860
Vcomment
p1861
g4
sVserverIPAddress
p1862
V216.58.216.193
p1863
sVpageref
p1864
VKevin Durant
p1865
sVstartedDateTime
p1866
V2017-04-16T08:04:11.670-05:00
p1867
sVcache
p1868
(dp1869
sVrequest
p1870
(dp1871
Vcomment
p1872
g4
sVcookies
p1873
(lp1874
sVurl
p1875
Vhttps://sports-cbsimg-net.cdn.ampproject.org/r/s/sports.cbsimg.net/fonts/proxima-nova/light/webfont.woff2
p1876
sVqueryString
p1877
(lp1878
sVheaders
p1879
(lp1880
sVheadersSize
p1881
I672
sVbodySize
p1882
I0
sVmethod
p1883
VGET
p1884
sVhttpVersion
p1885
VHTTP/1.1
p1886
ssVtimings
p1887
(dp1888
Vcomment
p1889
g4
sVreceive
p1890
I20
sVsend
p1891
I0
sVssl
p1892
I411
sVconnect
p1893
I434
sVdns
p1894
I19
sVwait
p1895
I31
sVblocked
p1896
I0
ssVtime
p1897
I505
sVresponse
p1898
(dp1899
Vstatus
p1900
I200
sVcomment
p1901
g4
sVcookies
p1902
(lp1903
sVstatusText
p1904
VOK
p1905
sVcontent
p1906
(dp1907
VmimeType
p1908
Vtext/plain
p1909
sVcomment
p1910
g4
sVsize
p1911
I0
ssVheaders
p1912
(lp1913
sVheadersSize
p1914
I884
sVredirectURL
p1915
g4
sVbodySize
p1916
I20128
sVhttpVersion
p1917
VHTTP/1.1
p1918
ssa(dp1919
Vcomment
p1920
g4
sVserverIPAddress
p1921
V216.58.216.193
p1922
sVpageref
p1923
VKevin Durant
p1924
sVstartedDateTime
p1925
V2017-04-16T08:04:11.795-05:00
p1926
sVcache
p1927
(dp1928
sVrequest
p1929
(dp1930
Vcomment
p1931
g4
sVcookies
p1932
(lp1933
sVurl
p1934
Vhttps://cdn-taboola-com.cdn.ampproject.org/i/cdn.taboola.com/libtrc/static/thumbnails/3aadbb71016ecd7a194bbe2791777e9a.png
p1935
sVqueryString
p1936
(lp1937
sVheaders
p1938
(lp1939
sVheadersSize
p1940
I581
sVbodySize
p1941
I0
sVmethod
p1942
VGET
p1943
sVhttpVersion
p1944
VHTTP/1.1
p1945
ssVtimings
p1946
(dp1947
Vcomment
p1948
g4
sVreceive
p1949
I0
sVsend
p1950
I0
sVssl
p1951
I561
sVconnect
p1952
I576
sVdns
p1953
I35
sVwait
p1954
I250
sVblocked
p1955
I0
ssVtime
p1956
I861
sVresponse
p1957
(dp1958
Vstatus
p1959
I200
sVcomment
p1960
g4
sVcookies
p1961
(lp1962
sVstatusText
p1963
VOK
p1964
sVcontent
p1965
(dp1966
VmimeType
p1967
Vimage/png
p1968
sVcomment
p1969
g4
sVsize
p1970
I0
ssVheaders
p1971
(lp1972
sVheadersSize
p1973
I823
sVredirectURL
p1974
g4
sVbodySize
p1975
I310
sVhttpVersion
p1976
VHTTP/1.1
p1977
ssa(dp1978
Vcomment
p1979
g4
sVserverIPAddress
p1980
V216.58.216.193
p1981
sVpageref
p1982
VKevin Durant
p1983
sVstartedDateTime
p1984
V2017-04-16T08:04:11.829-05:00
p1985
sVcache
p1986
(dp1987
sVrequest
p1988
(dp1989
Vcomment
p1990
g4
sVcookies
p1991
(lp1992
sVurl
p1993
Vhttps://sportsfly-cbsistatic-com.cdn.ampproject.org/i/s/sportsfly.cbsistatic.com/bundles/sportsmediacss/images/core/commissioner-button2.svg
p1994
sVqueryString
p1995
(lp1996
sVheaders
p1997
(lp1998
sVheadersSize
p1999
I599
sVbodySize
p2000
I0
sVmethod
p2001
VGET
p2002
sVhttpVersion
p2003
VHTTP/1.1
p2004
ssVtimings
p2005
(dp2006
Vcomment
p2007
g4
sVreceive
p2008
I0
sVsend
p2009
I0
sVssl
p2010
I569
sVconnect
p2011
I592
sVdns
p2012
I32
sVwait
p2013
I63
sVblocked
p2014
I0
ssVtime
p2015
I688
sVresponse
p2016
(dp2017
Vstatus
p2018
I200
sVcomment
p2019
g4
sVcookies
p2020
(lp2021
sVstatusText
p2022
VOK
p2023
sVcontent
p2024
(dp2025
VmimeType
p2026
Vimage/svg+xml
p2027
sVcomment
p2028
g4
sVsize
p2029
I0
ssVheaders
p2030
(lp2031
sVheadersSize
p2032
I880
sVredirectURL
p2033
g4
sVbodySize
p2034
I10087
sVhttpVersion
p2035
VHTTP/1.1
p2036
ssa(dp2037
Vcomment
p2038
g4
sVserverIPAddress
p2039
V216.58.216.193
p2040
sVpageref
p2041
VKevin Durant
p2042
sVstartedDateTime
p2043
V2017-04-16T08:04:11.829-05:00
p2044
sVcache
p2045
(dp2046
sVrequest
p2047
(dp2048
Vcomment
p2049
g4
sVcookies
p2050
(lp2051
sVurl
p2052
Vhttps://sports-cbsimg-net.cdn.ampproject.org/r/s/sports.cbsimg.net/fonts/proxima-nova/bold/webfont.woff2
p2053
sVqueryString
p2054
(lp2055
sVheaders
p2056
(lp2057
sVheadersSize
p2058
I671
sVbodySize
p2059
I0
sVmethod
p2060
VGET
p2061
sVhttpVersion
p2062
VHTTP/1.1
p2063
ssVtimings
p2064
(dp2065
Vcomment
p2066
g4
sVreceive
p2067
I0
sVsend
p2068
I0
sVssl
p2069
I571
sVconnect
p2070
I592
sVdns
p2071
I0
sVwait
p2072
I62
sVblocked
p2073
I0
ssVtime
p2074
I656
sVresponse
p2075
(dp2076
Vstatus
p2077
I200
sVcomment
p2078
g4
sVcookies
p2079
(lp2080
sVstatusText
p2081
VOK
p2082
sVcontent
p2083
(dp2084
VmimeType
p2085
Vtext/plain
p2086
sVcomment
p2087
g4
sVsize
p2088
I0
ssVheaders
p2089
(lp2090
sVheadersSize
p2091
I884
sVredirectURL
p2092
g4
sVbodySize
p2093
I20392
sVhttpVersion
p2094
VHTTP/1.1
p2095
ssa(dp2096
Vcomment
p2097
g4
sVserverIPAddress
p2098
V216.58.216.193
p2099
sVpageref
p2100
VKevin Durant
p2101
sVstartedDateTime
p2102
V2017-04-16T08:04:11.835-05:00
p2103
sVcache
p2104
(dp2105
sVrequest
p2106
(dp2107
Vcomment
p2108
g4
sVcookies
p2109
(lp2110
sVurl
p2111
Vhttps://sportsfly-cbsistatic-com.cdn.ampproject.org/i/s/sportsfly.cbsistatic.com/bundles/sportsmediacss/images/core/commissioner-button1.svg
p2112
sVqueryString
p2113
(lp2114
sVheaders
p2115
(lp2116
sVheadersSize
p2117
I599
sVbodySize
p2118
I0
sVmethod
p2119
VGET
p2120
sVhttpVersion
p2121
VHTTP/1.1
p2122
ssVtimings
p2123
(dp2124
Vcomment
p2125
g4
sVreceive
p2126
I0
sVsend
p2127
I0
sVssl
p2128
I573
sVconnect
p2129
I594
sVdns
p2130
I33
sVwait
p2131
I56
sVblocked
p2132
I0
ssVtime
p2133
I685
sVresponse
p2134
(dp2135
Vstatus
p2136
I200
sVcomment
p2137
g4
sVcookies
p2138
(lp2139
sVstatusText
p2140
VOK
p2141
sVcontent
p2142
(dp2143
VmimeType
p2144
Vimage/svg+xml
p2145
sVcomment
p2146
g4
sVsize
p2147
I0
ssVheaders
p2148
(lp2149
sVheadersSize
p2150
I880
sVredirectURL
p2151
g4
sVbodySize
p2152
I7360
sVhttpVersion
p2153
VHTTP/1.1
p2154
ssa(dp2155
Vcomment
p2156
g4
sVserverIPAddress
p2157
V216.58.216.193
p2158
sVpageref
p2159
VKevin Durant
p2160
sVstartedDateTime
p2161
V2017-04-16T08:04:11.838-05:00
p2162
sVcache
p2163
(dp2164
sVrequest
p2165
(dp2166
Vcomment
p2167
g4
sVcookies
p2168
(lp2169
sVurl
p2170
Vhttps://sportsfly-cbsistatic-com.cdn.ampproject.org/i/sportsfly.cbsistatic.com/fly-573/bundles/sportsmediacss/images/core/clear.gif
p2171
sVqueryString
p2172
(lp2173
sVheaders
p2174
(lp2175
sVheadersSize
p2176
I590
sVbodySize
p2177
I0
sVmethod
p2178
VGET
p2179
sVhttpVersion
p2180
VHTTP/1.1
p2181
ssVtimings
p2182
(dp2183
Vcomment
p2184
g4
sVreceive
p2185
I0
sVsend
p2186
I0
sVssl
p2187
I171
sVconnect
p2188
I186
sVdns
p2189
I0
sVwait
p2190
I54
sVblocked
p2191
I0
ssVtime
p2192
I240
sVresponse
p2193
(dp2194
Vstatus
p2195
I200
sVcomment
p2196
g4
sVcookies
p2197
(lp2198
sVstatusText
p2199
VOK
p2200
sVcontent
p2201
(dp2202
VmimeType
p2203
Vimage/png
p2204
sVcomment
p2205
g4
sVsize
p2206
I0
ssVheaders
p2207
(lp2208
sVheadersSize
p2209
I821
sVredirectURL
p2210
g4
sVbodySize
p2211
I70
sVhttpVersion
p2212
VHTTP/1.1
p2213
ssa(dp2214
Vcomment
p2215
g4
sVserverIPAddress
p2216
V216.58.216.193
p2217
sVpageref
p2218
VKevin Durant
p2219
sVstartedDateTime
p2220
V2017-04-16T08:04:11.838-05:00
p2221
sVcache
p2222
(dp2223
sVrequest
p2224
(dp2225
Vcomment
p2226
g4
sVcookies
p2227
(lp2228
sVurl
p2229
Vhttps://sports-cbsimg-net.cdn.ampproject.org/r/s/sports.cbsimg.net/fonts/proxima-nova/semi-bold-condensed/webfont.woff2
p2230
sVqueryString
p2231
(lp2232
sVheaders
p2233
(lp2234
sVheadersSize
p2235
I686
sVbodySize
p2236
I0
sVmethod
p2237
VGET
p2238
sVhttpVersion
p2239
VHTTP/1.1
p2240
ssVtimings
p2241
(dp2242
Vcomment
p2243
g4
sVreceive
p2244
I27
sVsend
p2245
I0
sVssl
p2246
I573
sVconnect
p2247
I594
sVdns
p2248
I0
sVwait
p2249
I54
sVblocked
p2250
I0
ssVtime
p2251
I676
sVresponse
p2252
(dp2253
Vstatus
p2254
I200
sVcomment
p2255
g4
sVcookies
p2256
(lp2257
sVstatusText
p2258
VOK
p2259
sVcontent
p2260
(dp2261
VmimeType
p2262
Vtext/plain
p2263
sVcomment
p2264
g4
sVsize
p2265
I0
ssVheaders
p2266
(lp2267
sVheadersSize
p2268
I884
sVredirectURL
p2269
g4
sVbodySize
p2270
I21476
sVhttpVersion
p2271
VHTTP/1.1
p2272
ssa(dp2273
Vcomment
p2274
g4
sVserverIPAddress
p2275
V216.58.216.193
p2276
sVpageref
p2277
VKevin Durant
p2278
sVstartedDateTime
p2279
V2017-04-16T08:04:11.838-05:00
p2280
sVcache
p2281
(dp2282
sVrequest
p2283
(dp2284
Vcomment
p2285
g4
sVcookies
p2286
(lp2287
sVurl
p2288
Vhttps://sportsfly-cbsistatic-com.cdn.ampproject.org/r/s/sportsfly.cbsistatic.com/bundles/sportsmediacss/images/fonts/icon-moon/icon-moon.woff2?3415aa2
p2289
sVqueryString
p2290
(lp2291
(dp2292
Vname
p2293
V3415aa2
p2294
sVvalue
p2295
g4
sasVheaders
p2296
(lp2297
sVheadersSize
p2298
I717
sVbodySize
p2299
I0
sVmethod
p2300
VGET
p2301
sVhttpVersion
p2302
VHTTP/1.1
p2303
ssVtimings
p2304
(dp2305
Vcomment
p2306
g4
sVreceive
p2307
I35
sVsend
p2308
I0
sVssl
p2309
I572
sVconnect
p2310
I599
sVdns
p2311
I0
sVwait
p2312
I54
sVblocked
p2313
I0
ssVtime
p2314
I689
sVresponse
p2315
(dp2316
Vstatus
p2317
I200
sVcomment
p2318
g4
sVcookies
p2319
(lp2320
sVstatusText
p2321
VOK
p2322
sVcontent
p2323
(dp2324
VmimeType
p2325
Vapplication/octet-stream
p2326
sVcomment
p2327
g4
sVsize
p2328
I0
ssVheaders
p2329
(lp2330
sVheadersSize
p2331
I871
sVredirectURL
p2332
g4
sVbodySize
p2333
I28720
sVhttpVersion
p2334
VHTTP/1.1
p2335
ssa(dp2336
Vcomment
p2337
g4
sVserverIPAddress
p2338
V216.58.216.193
p2339
sVpageref
p2340
VKevin Durant
p2341
sVstartedDateTime
p2342
V2017-04-16T08:04:11.838-05:00
p2343
sVcache
p2344
(dp2345
sVrequest
p2346
(dp2347
Vcomment
p2348
g4
sVcookies
p2349
(lp2350
sVurl
p2351
Vhttps://sports-cbsimg-net.cdn.ampproject.org/r/s/sports.cbsimg.net/fonts/proxima-nova/semi-bold/webfont.woff2
p2352
sVqueryString
p2353
(lp2354
sVheaders
p2355
(lp2356
sVheadersSize
p2357
I676
sVbodySize
p2358
I0
sVmethod
p2359
VGET
p2360
sVhttpVersion
p2361
VHTTP/1.1
p2362
ssVtimings
p2363
(dp2364
Vcomment
p2365
g4
sVreceive
p2366
I29
sVsend
p2367
I0
sVssl
p2368
I575
sVconnect
p2369
I597
sVdns
p2370
I0
sVwait
p2371
I55
sVblocked
p2372
I0
ssVtime
p2373
I681
sVresponse
p2374
(dp2375
Vstatus
p2376
I200
sVcomment
p2377
g4
sVcookies
p2378
(lp2379
sVstatusText
p2380
VOK
p2381
sVcontent
p2382
(dp2383
VmimeType
p2384
Vtext/plain
p2385
sVcomment
p2386
g4
sVsize
p2387
I0
ssVheaders
p2388
(lp2389
sVheadersSize
p2390
I884
sVredirectURL
p2391
g4
sVbodySize
p2392
I20344
sVhttpVersion
p2393
VHTTP/1.1
p2394
ssa(dp2395
Vcomment
p2396
g4
sVserverIPAddress
p2397
V216.58.216.193
p2398
sVpageref
p2399
VKevin Durant
p2400
sVstartedDateTime
p2401
V2017-04-16T08:04:11.840-05:00
p2402
sVcache
p2403
(dp2404
sVrequest
p2405
(dp2406
Vcomment
p2407
g4
sVcookies
p2408
(lp2409
sVurl
p2410
Vhttps://sportsfly-cbsistatic-com.cdn.ampproject.org/i/s/sportsfly.cbsistatic.com/bundles/sportsmediacss/images/core/footer_golfweb.svg
p2411
sVqueryString
p2412
(lp2413
sVheaders
p2414
(lp2415
sVheadersSize
p2416
I593
sVbodySize
p2417
I0
sVmethod
p2418
VGET
p2419
sVhttpVersion
p2420
VHTTP/1.1
p2421
ssVtimings
p2422
(dp2423
Vcomment
p2424
g4
sVreceive
p2425
I0
sVsend
p2426
I0
sVssl
p2427
I581
sVconnect
p2428
I603
sVdns
p2429
I32
sVwait
p2430
I51
sVblocked
p2431
I0
ssVtime
p2432
I688
sVresponse
p2433
(dp2434
Vstatus
p2435
I200
sVcomment
p2436
g4
sVcookies
p2437
(lp2438
sVstatusText
p2439
VOK
p2440
sVcontent
p2441
(dp2442
VmimeType
p2443
Vimage/svg+xml
p2444
sVcomment
p2445
g4
sVsize
p2446
I0
ssVheaders
p2447
(lp2448
sVheadersSize
p2449
I880
sVredirectURL
p2450
g4
sVbodySize
p2451
I2219
sVhttpVersion
p2452
VHTTP/1.1
p2453
ssa(dp2454
Vcomment
p2455
g4
sVserverIPAddress
p2456
V216.58.216.193
p2457
sVpageref
p2458
VKevin Durant
p2459
sVstartedDateTime
p2460
V2017-04-16T08:04:11.842-05:00
p2461
sVcache
p2462
(dp2463
sVrequest
p2464
(dp2465
Vcomment
p2466
g4
sVcookies
p2467
(lp2468
sVurl
p2469
Vhttps://sportsfly-cbsistatic-com.cdn.ampproject.org/i/s/sportsfly.cbsistatic.com/bundles/sportsmediacss/images/core/cbssports-digital-logo.svg
p2470
sVqueryString
p2471
(lp2472
sVheaders
p2473
(lp2474
sVheadersSize
p2475
I601
sVbodySize
p2476
I0
sVmethod
p2477
VGET
p2478
sVhttpVersion
p2479
VHTTP/1.1
p2480
ssVtimings
p2481
(dp2482
Vcomment
p2483
g4
sVreceive
p2484
I0
sVsend
p2485
I0
sVssl
p2486
I583
sVconnect
p2487
I605
sVdns
p2488
I33
sVwait
p2489
I49
sVblocked
p2490
I0
ssVtime
p2491
I688
sVresponse
p2492
(dp2493
Vstatus
p2494
I200
sVcomment
p2495
g4
sVcookies
p2496
(lp2497
sVstatusText
p2498
VOK
p2499
sVcontent
p2500
(dp2501
VmimeType
p2502
Vimage/svg+xml
p2503
sVcomment
p2504
g4
sVsize
p2505
I0
ssVheaders
p2506
(lp2507
sVheadersSize
p2508
I880
sVredirectURL
p2509
g4
sVbodySize
p2510
I2476
sVhttpVersion
p2511
VHTTP/1.1
p2512
ssa(dp2513
Vcomment
p2514
g4
sVserverIPAddress
p2515
V216.58.216.196
p2516
sVpageref
p2517
VKevin Durant
p2518
sVstartedDateTime
p2519
V2017-04-16T08:04:12.066-05:00
p2520
sVcache
p2521
(dp2522
sVrequest
p2523
(dp2524
Vcomment
p2525
g4
sVcookies
p2526
(lp2527
sVurl
p2528
Vhttps://www.google.com/gen_204?s=web&atyp=csi&ei=x2vzWPacBuzLjwTBr6-YDg&imc=55&imn=55&imp=29&adh=&xjs=init.35.15.sb_mob.29.dvl.3.c.1.r.1.foot.1&ima=19&rt=prt.989,iml.1090,xjsls.989,qiml.1279,dcl.1082,xjses.1187,xjsee.1329,xjs.1330,ol.3871,aft.1078,wsrt.104,cst.0,dnst.0,rqst.1084,rspt.992,rqstt.2,unt.2,cstt.2,dit.1164
p2529
sVqueryString
p2530
(lp2531
(dp2532
Vname
p2533
g57
sVvalue
p2534
Vweb
p2535
sa(dp2536
Vname
p2537
Vatyp
p2538
sVvalue
p2539
Vcsi
p2540
sa(dp2541
Vname
p2542
Vei
p2543
sVvalue
p2544
Vx2vzWPacBuzLjwTBr6-YDg
p2545
sa(dp2546
Vname
p2547
Vimc
p2548
sVvalue
p2549
V55
p2550
sa(dp2551
Vname
p2552
Vimn
p2553
sVvalue
p2554
V55
p2555
sa(dp2556
Vname
p2557
Vimp
p2558
sVvalue
p2559
V29
p2560
sa(dp2561
Vname
p2562
Vadh
p2563
sVvalue
p2564
g4
sa(dp2565
Vname
p2566
Vxjs
p2567
sVvalue
p2568
Vinit.35.15.sb_mob.29.dvl.3.c.1.r.1.foot.1
p2569
sa(dp2570
Vname
p2571
Vima
p2572
sVvalue
p2573
V19
p2574
sa(dp2575
Vname
p2576
Vrt
p2577
sVvalue
p2578
Vprt.989,iml.1090,xjsls.989,qiml.1279,dcl.1082,xjses.1187,xjsee.1329,xjs.1330,ol.3871,aft.1078,wsrt.104,cst.0,dnst.0,rqst.1084,rspt.992,rqstt.2,unt.2,cstt.2,dit.1164
p2579
sasVheaders
p2580
(lp2581
sVheadersSize
p2582
I835
sVbodySize
p2583
I0
sVmethod
p2584
VGET
p2585
sVhttpVersion
p2586
VHTTP/1.1
p2587
ssVtimings
p2588
(dp2589
Vcomment
p2590
g4
sVreceive
p2591
I0
sVsend
p2592
I0
sVssl
p2593
I-1
sVconnect
p2594
I-1
sVdns
p2595
I-1
sVwait
p2596
I29
sVblocked
p2597
I-1
ssVtime
p2598
I29
sVresponse
p2599
(dp2600
Vstatus
p2601
I204
sVcomment
p2602
g4
sVcookies
p2603
(lp2604
sVstatusText
p2605
VNo Content
p2606
sVcontent
p2607
(dp2608
VmimeType
p2609
Vtext/html; charset=UTF-8
p2610
sVcomment
p2611
g4
sVsize
p2612
I0
ssVheaders
p2613
(lp2614
sVheadersSize
p2615
I248
sVredirectURL
p2616
g4
sVbodySize
p2617
I0
sVhttpVersion
p2618
VHTTP/1.1
p2619
ssa(dp2620
Vcomment
p2621
g4
sVserverIPAddress
p2622
V216.58.216.196
p2623
sVpageref
p2624
VKevin Durant
p2625
sVstartedDateTime
p2626
V2017-04-16T08:04:12.280-05:00
p2627
sVcache
p2628
(dp2629
sVrequest
p2630
(dp2631
Vcomment
p2632
g4
sVcookies
p2633
(lp2634
sVurl
p2635
Vhttps://www.google.com/gen_204?atyp=i&ct=slh&cad=&ei=umvzWJiyGo3ljwTBw6aYBQ&m=V&t=C&s=1&v=2&pv=0.21357341382559125&me=1:1492347837240,x:1,V,0,0,1280,944:0,N,1,umvzWJiyGo3ljwTBw6aYBQ:0,R,1,24,8,155,1249,251:0,R,1,34,8,416,1249,796:0,R,1,35,8,416,1249,796:0,R,1,38,8,429,1249,40:0,R,1,51,8,481,1249,178:0,R,1,54,0,497,1265,197:0,R,1,94,8,659,1249,49:0,R,1,96,8,725,1249,40:0,R,1,97,24,725,1217,40:0,R,1,103,8,781,1249,20:0,R,1,105,8,809,1249,20:0,R,1,119,8,849,1249,310:0,R,1,120,0,894,1265,285:2,B,3570:10345,e,U&zx=1492347852249
p2636
sVqueryString
p2637
(lp2638
(dp2639
Vname
p2640
Vatyp
p2641
sVvalue
p2642
g30
sa(dp2643
Vname
p2644
Vct
p2645
sVvalue
p2646
Vslh
p2647
sa(dp2648
Vname
p2649
Vcad
p2650
sVvalue
p2651
g4
sa(dp2652
Vname
p2653
Vei
p2654
sVvalue
p2655
VumvzWJiyGo3ljwTBw6aYBQ
p2656
sa(dp2657
Vname
p2658
g47
sVvalue
p2659
g49
sa(dp2660
Vname
p2661
g52
sVvalue
p2662
g54
sa(dp2663
Vname
p2664
g57
sVvalue
p2665
g59
sa(dp2666
Vname
p2667
g62
sVvalue
p2668
g64
sa(dp2669
Vname
p2670
Vpv
p2671
sVvalue
p2672
V0.21357341382559125
p2673
sa(dp2674
Vname
p2675
Vme
p2676
sVvalue
p2677
V1:1492347837240,x:1,V,0,0,1280,944:0,N,1,umvzWJiyGo3ljwTBw6aYBQ:0,R,1,24,8,155,1249,251:0,R,1,34,8,416,1249,796:0,R,1,35,8,416,1249,796:0,R,1,38,8,429,1249,40:0,R,1,51,8,481,1249,178:0,R,1,54,0,497,1265,197:0,R,1,94,8,659,1249,49:0,R,1,96,8,725,1249,40:0,R,1,97,24,725,1217,40:0,R,1,103,8,781,1249,20:0,R,1,105,8,809,1249,20:0,R,1,119,8,849,1249,310:0,R,1,120,0,894,1265,285:2,B,3570:10345,e,U
p2678
sa(dp2679
Vname
p2680
Vzx
p2681
sVvalue
p2682
V1492347852249
p2683
sasVheaders
p2684
(lp2685
sVheadersSize
p2686
I1045
sVbodySize
p2687
I0
sVmethod
p2688
VGET
p2689
sVhttpVersion
p2690
VHTTP/1.1
p2691
ssVtimings
p2692
(dp2693
Vcomment
p2694
g4
sVreceive
p2695
I0
sVsend
p2696
I0
sVssl
p2697
I-1
sVconnect
p2698
I-1
sVdns
p2699
I-1
sVwait
p2700
I34
sVblocked
p2701
I-1
ssVtime
p2702
I35
sVresponse
p2703
(dp2704
Vstatus
p2705
I204
sVcomment
p2706
g4
sVcookies
p2707
(lp2708
sVstatusText
p2709
VNo Content
p2710
sVcontent
p2711
(dp2712
VmimeType
p2713
Vtext/html; charset=UTF-8
p2714
sVcomment
p2715
g4
sVsize
p2716
I0
ssVheaders
p2717
(lp2718
sVheadersSize
p2719
I248
sVredirectURL
p2720
g4
sVbodySize
p2721
I0
sVhttpVersion
p2722
VHTTP/1.1
p2723
ssasVversion
p2724
V1.2
p2725
sVpages
p2726
(lp2727
(dp2728
VpageTimings
p2729
(dp2730
Vcomment
p2731
g4
ssVcomment
p2732
g4
sVtitle
p2733
VKevin Durant
p2734
sVid
p2735
VKevin Durant
p2736
sVstartedDateTime
p2737
V2017-04-16T08:04:07.582-05:00
p2738
sasVcreator
p2739
(dp2740
Vcomment
p2741
g4
sVversion
p2742
V2.1.4
p2743
sVname
p2744
VBrowserMob Proxy
p2745
sss.