(dp0
Vlog
p1
(dp2
Vcomment
p3
V
p4
sVentries
p5
(lp6
(dp7
Vcomment
p8
g4
sVserverIPAddress
p9
V216.58.216.196
p10
sVpageref
p11
VBaton Rouge
p12
sVstartedDateTime
p13
V2017-04-16T08:53:59.617-05:00
p14
sVcache
p15
(dp16
sVrequest
p17
(dp18
Vcomment
p19
g4
sVcookies
p20
(lp21
sVurl
p22
Vhttps://www.google.com/gen_204?atyp=i&ct=slh&cad=&ei=ZHfzWITTIMnKjwSx1qmgAw&m=V&t=C&s=1&v=2&pv=0.9456413910221267&me=1:1492350823723,x:3,V,0,0,1280,944:0,N,1,ZHfzWITTIMnKjwSx1qmgAw:0,R,1,24,8,155,1249,648:0,R,1,25,8,155,1249,648:0,R,1,36,8,155,1249,116:0,R,1,48,8,284,1249,40:0,R,1,55,8,399,1249,40:0,R,1,56,24,399,1217,40:0,R,1,59,8,455,1249,20:0,R,1,61,8,483,1249,20:0,R,1,74,8,523,1249,213:0,R,1,75,8,572,1249,164:0,R,1,176,24,813,1217,94:0,R,1,178,24,928,1217,135:2,B,3288:15887,e,U&zx=1492350839616
p23
sVqueryString
p24
(lp25
(dp26
Vname
p27
Vatyp
p28
sVvalue
p29
Vi
p30
sa(dp31
Vname
p32
Vct
p33
sVvalue
p34
Vslh
p35
sa(dp36
Vname
p37
Vcad
p38
sVvalue
p39
g4
sa(dp40
Vname
p41
Vei
p42
sVvalue
p43
VZHfzWITTIMnKjwSx1qmgAw
p44
sa(dp45
Vname
p46
Vm
p47
sVvalue
p48
VV
p49
sa(dp50
Vname
p51
Vt
p52
sVvalue
p53
VC
p54
sa(dp55
Vname
p56
Vs
p57
sVvalue
p58
V1
p59
sa(dp60
Vname
p61
Vv
p62
sVvalue
p63
V2
p64
sa(dp65
Vname
p66
Vpv
p67
sVvalue
p68
V0.9456413910221267
p69
sa(dp70
Vname
p71
Vme
p72
sVvalue
p73
V1:1492350823723,x:3,V,0,0,1280,944:0,N,1,ZHfzWITTIMnKjwSx1qmgAw:0,R,1,24,8,155,1249,648:0,R,1,25,8,155,1249,648:0,R,1,36,8,155,1249,116:0,R,1,48,8,284,1249,40:0,R,1,55,8,399,1249,40:0,R,1,56,24,399,1217,40:0,R,1,59,8,455,1249,20:0,R,1,61,8,483,1249,20:0,R,1,74,8,523,1249,213:0,R,1,75,8,572,1249,164:0,R,1,176,24,813,1217,94:0,R,1,178,24,928,1217,135:2,B,3288:15887,e,U
p74
sa(dp75
Vname
p76
Vzx
p77
sVvalue
p78
V1492350839616
p79
sasVheaders
p80
(lp81
sVheadersSize
p82
I1020
sVbodySize
p83
I0
sVmethod
p84
VGET
p85
sVhttpVersion
p86
VHTTP/1.1
p87
ssVtimings
p88
(dp89
Vcomment
p90
g4
sVreceive
p91
I0
sVsend
p92
I0
sVssl
p93
I-1
sVconnect
p94
I-1
sVdns
p95
I-1
sVwait
p96
I0
sVblocked
p97
I-1
ssVtime
p98
I0
sVresponse
p99
(dp100
Vstatus
p101
I0
sVcomment
p102
g4
sVcookies
p103
(lp104
sV_error
p105
VNo response received
p106
sVstatusText
p107
g4
sVcontent
p108
(dp109
VmimeType
p110
g4
sVcomment
p111
g4
sVsize
p112
I0
ssVheaders
p113
(lp114
sVheadersSize
p115
I-1
sVredirectURL
p116
g4
sVbodySize
p117
I-1
sVhttpVersion
p118
Vunknown
p119
ssa(dp120
Vcomment
p121
g4
sVserverIPAddress
p122
V216.58.216.196
p123
sVpageref
p124
VBaton Rouge
p125
sVstartedDateTime
p126
V2017-04-16T08:53:59.625-05:00
p127
sVcache
p128
(dp129
sVrequest
p130
(dp131
Vcomment
p132
g4
sVcookies
p133
(lp134
sVurl
p135
Vhttp://www.google.com/
p136
sVqueryString
p137
(lp138
sVheaders
p139
(lp140
sVheadersSize
p141
I613
sVbodySize
p142
I0
sVmethod
p143
VGET
p144
sVhttpVersion
p145
VHTTP/1.1
p146
ssVtimings
p147
(dp148
Vcomment
p149
g4
sVreceive
p150
I0
sVsend
p151
I0
sVssl
p152
I-1
sVconnect
p153
I-1
sVdns
p154
I-1
sVwait
p155
I36
sVblocked
p156
I-1
ssVtime
p157
I37
sVresponse
p158
(dp159
Vstatus
p160
I302
sVcomment
p161
g4
sVcookies
p162
(lp163
sVstatusText
p164
VFound
p165
sVcontent
p166
(dp167
VmimeType
p168
Vtext/html; charset=UTF-8
p169
sVcomment
p170
g4
sVsize
p171
I0
ssVheaders
p172
(lp173
sVheadersSize
p174
I609
sVredirectURL
p175
Vhttps://www.google.com/?gws_rd=ssl
p176
sVbodySize
p177
I231
sVhttpVersion
p178
VHTTP/1.1
p179
ssa(dp180
Vcomment
p181
g4
sVserverIPAddress
p182
V216.58.216.196
p183
sVpageref
p184
VBaton Rouge
p185
sVstartedDateTime
p186
V2017-04-16T08:53:59.667-05:00
p187
sVcache
p188
(dp189
sVrequest
p190
(dp191
Vcomment
p192
g4
sVcookies
p193
(lp194
sVurl
p195
Vhttps://www.google.com/?gws_rd=ssl
p196
sVqueryString
p197
(lp198
(dp199
Vname
p200
Vgws_rd
p201
sVvalue
p202
Vssl
p203
sasVheaders
p204
(lp205
sVheadersSize
p206
I607
sVbodySize
p207
I0
sVmethod
p208
VGET
p209
sVhttpVersion
p210
VHTTP/1.1
p211
ssVtimings
p212
(dp213
Vcomment
p214
g4
sVreceive
p215
I38
sVsend
p216
I0
sVssl
p217
I-1
sVconnect
p218
I-1
sVdns
p219
I-1
sVwait
p220
I77
sVblocked
p221
I-1
ssVtime
p222
I115
sVresponse
p223
(dp224
Vstatus
p225
I200
sVcomment
p226
g4
sVcookies
p227
(lp228
sVstatusText
p229
VOK
p230
sVcontent
p231
(dp232
VmimeType
p233
Vtext/html; charset=UTF-8
p234
sVcomment
p235
g4
sVsize
p236
I0
ssVheaders
p237
(lp238
sVheadersSize
p239
I721
sVredirectURL
p240
g4
sVbodySize
p241
I34291
sVhttpVersion
p242
VHTTP/1.1
p243
ssa(dp244
Vcomment
p245
g4
sVserverIPAddress
p246
V216.58.216.196
p247
sVpageref
p248
VBaton Rouge
p249
sVstartedDateTime
p250
V2017-04-16T08:54:00.150-05:00
p251
sVcache
p252
(dp253
sVrequest
p254
(dp255
Vcomment
p256
g4
sVcookies
p257
(lp258
sVurl
p259
Vhttps://www.google.com/gen_204?s=mobilewebhp&atyp=csi&ei=dnfzWIqSJ-rZjwTdvaOwBg&imc=1&imn=1&imp=0&adh=&xjs=init.35.12.sb_mob.25.dvl.5.c.1.jsa.1.mbsf.1&ima=1&rt=xjsls.46,prt.47,iml.47,dcl.71,xjses.147,xjsee.258,xjs.259,ol.367,aft.47,wsrt.157,cst.0,dnst.0,rqst.117,rspt.39,rqstt.51,unt.49,cstt.49,dit.224
p260
sVqueryString
p261
(lp262
(dp263
Vname
p264
g57
sVvalue
p265
Vmobilewebhp
p266
sa(dp267
Vname
p268
Vatyp
p269
sVvalue
p270
Vcsi
p271
sa(dp272
Vname
p273
Vei
p274
sVvalue
p275
VdnfzWIqSJ-rZjwTdvaOwBg
p276
sa(dp277
Vname
p278
Vimc
p279
sVvalue
p280
g59
sa(dp281
Vname
p282
Vimn
p283
sVvalue
p284
g59
sa(dp285
Vname
p286
Vimp
p287
sVvalue
p288
V0
p289
sa(dp290
Vname
p291
Vadh
p292
sVvalue
p293
g4
sa(dp294
Vname
p295
Vxjs
p296
sVvalue
p297
Vinit.35.12.sb_mob.25.dvl.5.c.1.jsa.1.mbsf.1
p298
sa(dp299
Vname
p300
Vima
p301
sVvalue
p302
g59
sa(dp303
Vname
p304
Vrt
p305
sVvalue
p306
Vxjsls.46,prt.47,iml.47,dcl.71,xjses.147,xjsee.258,xjs.259,ol.367,aft.47,wsrt.157,cst.0,dnst.0,rqst.117,rspt.39,rqstt.51,unt.49,cstt.49,dit.224
p307
sasVheaders
p308
(lp309
sVheadersSize
p310
I830
sVbodySize
p311
I0
sVmethod
p312
VGET
p313
sVhttpVersion
p314
VHTTP/1.1
p315
ssVtimings
p316
(dp317
Vcomment
p318
g4
sVreceive
p319
I0
sVsend
p320
I0
sVssl
p321
I-1
sVconnect
p322
I-1
sVdns
p323
I-1
sVwait
p324
I31
sVblocked
p325
I-1
ssVtime
p326
I31
sVresponse
p327
(dp328
Vstatus
p329
I204
sVcomment
p330
g4
sVcookies
p331
(lp332
sVstatusText
p333
VNo Content
p334
sVcontent
p335
(dp336
VmimeType
p337
Vtext/html; charset=UTF-8
p338
sVcomment
p339
g4
sVsize
p340
I0
ssVheaders
p341
(lp342
sVheadersSize
p343
I248
sVredirectURL
p344
g4
sVbodySize
p345
I0
sVhttpVersion
p346
VHTTP/1.1
p347
ssa(dp348
Vcomment
p349
g4
sVserverIPAddress
p350
V216.58.216.196
p351
sVpageref
p352
VBaton Rouge
p353
sVstartedDateTime
p354
V2017-04-16T08:54:00.259-05:00
p355
sVcache
p356
(dp357
sVrequest
p358
(dp359
Vcomment
p360
g4
sVcookies
p361
(lp362
sVurl
p363
Vhttps://www.google.com/complete/search?client=mobile-gws-hp&hl=en&gs_rn=64&gs_ri=mobile-gws-hp&sla=1&pfq=bentley&gm=602&cp=0&gs_id=1&xhr=t&q=B&tch=1&ech=1&psi=dnfzWIqSJ-rZjwTdvaOwBg.1492350839997.1
p364
sVqueryString
p365
(lp366
(dp367
Vname
p368
Vclient
p369
sVvalue
p370
Vmobile-gws-hp
p371
sa(dp372
Vname
p373
Vhl
p374
sVvalue
p375
Ven
p376
sa(dp377
Vname
p378
Vgs_rn
p379
sVvalue
p380
V64
p381
sa(dp382
Vname
p383
Vgs_ri
p384
sVvalue
p385
Vmobile-gws-hp
p386
sa(dp387
Vname
p388
Vsla
p389
sVvalue
p390
g59
sa(dp391
Vname
p392
Vpfq
p393
sVvalue
p394
Vbentley
p395
sa(dp396
Vname
p397
Vgm
p398
sVvalue
p399
V602
p400
sa(dp401
Vname
p402
Vcp
p403
sVvalue
p404
g289
sa(dp405
Vname
p406
Vgs_id
p407
sVvalue
p408
g59
sa(dp409
Vname
p410
Vxhr
p411
sVvalue
p412
g52
sa(dp413
Vname
p414
Vq
p415
sVvalue
p416
VB
p417
sa(dp418
Vname
p419
Vtch
p420
sVvalue
p421
g59
sa(dp422
Vname
p423
Vech
p424
sVvalue
p425
g59
sa(dp426
Vname
p427
Vpsi
p428
sVvalue
p429
VdnfzWIqSJ-rZjwTdvaOwBg.1492350839997.1
p430
sasVheaders
p431
(lp432
sVheadersSize
p433
I725
sVbodySize
p434
I0
sVmethod
p435
VGET
p436
sVhttpVersion
p437
VHTTP/1.1
p438
ssVtimings
p439
(dp440
Vcomment
p441
g4
sVreceive
p442
I0
sVsend
p443
I0
sVssl
p444
I-1
sVconnect
p445
I-1
sVdns
p446
I-1
sVwait
p447
I0
sVblocked
p448
I-1
ssVtime
p449
I0
sVresponse
p450
(dp451
Vstatus
p452
I0
sVcomment
p453
g4
sVcookies
p454
(lp455
sV_error
p456
VNo response received
p457
sVstatusText
p458
g4
sVcontent
p459
(dp460
VmimeType
p461
g4
sVcomment
p462
g4
sVsize
p463
I0
ssVheaders
p464
(lp465
sVheadersSize
p466
I-1
sVredirectURL
p467
g4
sVbodySize
p468
I-1
sVhttpVersion
p469
Vunknown
p470
ssa(dp471
Vcomment
p472
g4
sVserverIPAddress
p473
V216.58.216.196
p474
sVpageref
p475
VBaton Rouge
p476
sVstartedDateTime
p477
V2017-04-16T08:54:00.327-05:00
p478
sVcache
p479
(dp480
sVrequest
p481
(dp482
Vcomment
p483
g4
sVcookies
p484
(lp485
sVurl
p486
Vhttps://www.google.com/search?site=&source=hp&ei=dnfzWIqSJ-rZjwTdvaOwBg&q=Baton+Rouge&oq=Baton+Rouge&gs_l=mobile-gws-hp.3...235.271.0.299.11.1.0.0.0.0.0.0..0.0....0...1c.1.64.mobile-gws-hp..11.0.0.O0WQ3Xp6DiM
p487
sVqueryString
p488
(lp489
(dp490
Vname
p491
Vsite
p492
sVvalue
p493
g4
sa(dp494
Vname
p495
Vsource
p496
sVvalue
p497
Vhp
p498
sa(dp499
Vname
p500
Vei
p501
sVvalue
p502
VdnfzWIqSJ-rZjwTdvaOwBg
p503
sa(dp504
Vname
p505
g415
sVvalue
p506
VBaton Rouge
p507
sa(dp508
Vname
p509
Voq
p510
sVvalue
p511
VBaton Rouge
p512
sa(dp513
Vname
p514
Vgs_l
p515
sVvalue
p516
Vmobile-gws-hp.3...235.271.0.299.11.1.0.0.0.0.0.0..0.0....0...1c.1.64.mobile-gws-hp..11.0.0.O0WQ3Xp6DiM
p517
sasVheaders
p518
(lp519
sVheadersSize
p520
I826
sVbodySize
p521
I0
sVmethod
p522
VGET
p523
sVhttpVersion
p524
VHTTP/1.1
p525
ssVtimings
p526
(dp527
Vcomment
p528
g4
sVreceive
p529
I1262
sVsend
p530
I0
sVssl
p531
I-1
sVconnect
p532
I-1
sVdns
p533
I-1
sVwait
p534
I95
sVblocked
p535
I-1
ssVtime
p536
I1357
sVresponse
p537
(dp538
Vstatus
p539
I200
sVcomment
p540
g4
sVcookies
p541
(lp542
sVstatusText
p543
VOK
p544
sVcontent
p545
(dp546
VmimeType
p547
Vtext/html; charset=UTF-8
p548
sVcomment
p549
g4
sVsize
p550
I0
ssVheaders
p551
(lp552
sVheadersSize
p553
I363
sVredirectURL
p554
g4
sVbodySize
p555
I121113
sVhttpVersion
p556
VHTTP/1.1
p557
ssa(dp558
Vcomment
p559
g4
sVserverIPAddress
p560
V216.58.216.196
p561
sVpageref
p562
VBaton Rouge
p563
sVstartedDateTime
p564
V2017-04-16T08:54:05.165-05:00
p565
sVcache
p566
(dp567
sVrequest
p568
(dp569
Vcomment
p570
g4
sVcookies
p571
(lp572
sVurl
p573
Vhttps://www.google.com/maps/vt/data=RfCSdfNZ0LFPrHSm0ublXdzhdrDFhtmHhN1u-gM,P6gA8iwYgMgu51GUaVhP9MaPOf5t9QJUrdD3ohwnjeDMAAYqaSiipWXaJ_0zw7pws80GqrYSisi3gFyn8eXAMrcdecxLH22J6vnzj4d7CMSKFmR8vCFIvUQDJJmYc2uuxFJDTv7MrwurqrVzMZsX-n9HxF5Pp4MPfQhn_eqUXt1t23mNIqsu08MNvSI_rfz6EDmTrREXAcr5Mg?scale=2&h=104&w=1024
p574
sVqueryString
p575
(lp576
(dp577
Vname
p578
Vscale
p579
sVvalue
p580
g64
sa(dp581
Vname
p582
Vh
p583
sVvalue
p584
V104
p585
sa(dp586
Vname
p587
Vw
p588
sVvalue
p589
V1024
p590
sasVheaders
p591
(lp592
sVheadersSize
p593
I820
sVbodySize
p594
I0
sVmethod
p595
VGET
p596
sVhttpVersion
p597
VHTTP/1.1
p598
ssVtimings
p599
(dp600
Vcomment
p601
g4
sVreceive
p602
I10
sVsend
p603
I0
sVssl
p604
I-1
sVconnect
p605
I-1
sVdns
p606
I-1
sVwait
p607
I122
sVblocked
p608
I-1
ssVtime
p609
I133
sVresponse
p610
(dp611
Vstatus
p612
I200
sVcomment
p613
g4
sVcookies
p614
(lp615
sVstatusText
p616
VOK
p617
sVcontent
p618
(dp619
VmimeType
p620
Vimage/png
p621
sVcomment
p622
g4
sVsize
p623
I0
ssVheaders
p624
(lp625
sVheadersSize
p626
I479
sVredirectURL
p627
g4
sVbodySize
p628
I70468
sVhttpVersion
p629
VHTTP/1.1
p630
ssa(dp631
Vcomment
p632
g4
sVserverIPAddress
p633
V216.58.216.196
p634
sVpageref
p635
VBaton Rouge
p636
sVstartedDateTime
p637
V2017-04-16T08:54:05.328-05:00
p638
sVcache
p639
(dp640
sVrequest
p641
(dp642
Vcomment
p643
g4
sVcookies
p644
(lp645
sVurl
p646
Vhttps://www.google.com/gen_204?s=lu&atyp=csi&ei=d3fzWIfREqGPjwSy9LoQ&ima=4&rt=lmap.4855,aft.4854,wsrt.4834,cst.0,dnst.0,rqst.1363,rspt.1266,rqstt.2,unt.2,cstt.2,dit.1450
p647
sVqueryString
p648
(lp649
(dp650
Vname
p651
g57
sVvalue
p652
Vlu
p653
sa(dp654
Vname
p655
Vatyp
p656
sVvalue
p657
Vcsi
p658
sa(dp659
Vname
p660
Vei
p661
sVvalue
p662
Vd3fzWIfREqGPjwSy9LoQ
p663
sa(dp664
Vname
p665
Vima
p666
sVvalue
p667
V4
p668
sa(dp669
Vname
p670
Vrt
p671
sVvalue
p672
Vlmap.4855,aft.4854,wsrt.4834,cst.0,dnst.0,rqst.1363,rspt.1266,rqstt.2,unt.2,cstt.2,dit.1450
p673
sasVheaders
p674
(lp675
sVheadersSize
p676
I686
sVbodySize
p677
I0
sVmethod
p678
VGET
p679
sVhttpVersion
p680
VHTTP/1.1
p681
ssVtimings
p682
(dp683
Vcomment
p684
g4
sVreceive
p685
I0
sVsend
p686
I0
sVssl
p687
I-1
sVconnect
p688
I-1
sVdns
p689
I-1
sVwait
p690
I31
sVblocked
p691
I-1
ssVtime
p692
I31
sVresponse
p693
(dp694
Vstatus
p695
I204
sVcomment
p696
g4
sVcookies
p697
(lp698
sVstatusText
p699
VNo Content
p700
sVcontent
p701
(dp702
VmimeType
p703
Vtext/html; charset=UTF-8
p704
sVcomment
p705
g4
sVsize
p706
I0
ssVheaders
p707
(lp708
sVheadersSize
p709
I248
sVredirectURL
p710
g4
sVbodySize
p711
I0
sVhttpVersion
p712
VHTTP/1.1
p713
ssa(dp714
Vcomment
p715
g4
sVserverIPAddress
p716
V216.58.216.196
p717
sVpageref
p718
VBaton Rouge
p719
sVstartedDateTime
p720
V2017-04-16T08:54:05.571-05:00
p721
sVcache
p722
(dp723
sVrequest
p724
(dp725
Vcomment
p726
g4
sVcookies
p727
(lp728
sVurl
p729
Vhttps://www.google.com/async/irc?vet=10ahUKEwjH6KCNkKnTAhWhx4MKHTK6DgIQo0EIiwI..i&ved=0ahUKEwjH6KCNkKnTAhWhx4MKHTK6DgIQo0EIiwI&ei=d3fzWIfREqGPjwSy9LoQ&yv=2&async=iu:1,ved:0ahUKEwjH6KCNkKnTAhWhx4MKHTK6DgIQo0EIiwI,_id:irc_async,_pms:qs
p730
sVqueryString
p731
(lp732
(dp733
Vname
p734
Vvet
p735
sVvalue
p736
V10ahUKEwjH6KCNkKnTAhWhx4MKHTK6DgIQo0EIiwI..i
p737
sa(dp738
Vname
p739
Vved
p740
sVvalue
p741
V0ahUKEwjH6KCNkKnTAhWhx4MKHTK6DgIQo0EIiwI
p742
sa(dp743
Vname
p744
Vei
p745
sVvalue
p746
Vd3fzWIfREqGPjwSy9LoQ
p747
sa(dp748
Vname
p749
Vyv
p750
sVvalue
p751
g64
sa(dp752
Vname
p753
Vasync
p754
sVvalue
p755
Viu:1,ved:0ahUKEwjH6KCNkKnTAhWhx4MKHTK6DgIQo0EIiwI,_id:irc_async,_pms:qs
p756
sasVheaders
p757
(lp758
sVheadersSize
p759
I750
sVbodySize
p760
I0
sVmethod
p761
VGET
p762
sVhttpVersion
p763
VHTTP/1.1
p764
ssVtimings
p765
(dp766
Vcomment
p767
g4
sVreceive
p768
I1
sVsend
p769
I0
sVssl
p770
I-1
sVconnect
p771
I-1
sVdns
p772
I-1
sVwait
p773
I38
sVblocked
p774
I-1
ssVtime
p775
I39
sVresponse
p776
(dp777
Vstatus
p778
I200
sVcomment
p779
g4
sVcookies
p780
(lp781
sVstatusText
p782
VOK
p783
sVcontent
p784
(dp785
VmimeType
p786
Vtext/html; charset=UTF-8
p787
sVcomment
p788
g4
sVsize
p789
I0
ssVheaders
p790
(lp791
sVheadersSize
p792
I383
sVredirectURL
p793
g4
sVbodySize
p794
I7789
sVhttpVersion
p795
VHTTP/1.1
p796
ssa(dp797
Vcomment
p798
g4
sVserverIPAddress
p799
V216.58.216.196
p800
sVpageref
p801
VBaton Rouge
p802
sVstartedDateTime
p803
V2017-04-16T08:54:05.674-05:00
p804
sVcache
p805
(dp806
sVrequest
p807
(dp808
Vcomment
p809
g4
sVcookies
p810
(lp811
sVurl
p812
Vhttps://www.google.com/gen_204?atyp=i&ct=&cad=&uact=1&vet=10ahUKEwjH6KCNkKnTAhWhx4MKHTK6DgIQ9V8INCgA..s&ei=d3fzWIfREqGPjwSy9LoQ&zx=1492350845591
p813
sVqueryString
p814
(lp815
(dp816
Vname
p817
Vatyp
p818
sVvalue
p819
g30
sa(dp820
Vname
p821
Vct
p822
sVvalue
p823
g4
sa(dp824
Vname
p825
Vcad
p826
sVvalue
p827
g4
sa(dp828
Vname
p829
Vuact
p830
sVvalue
p831
g59
sa(dp832
Vname
p833
Vvet
p834
sVvalue
p835
V10ahUKEwjH6KCNkKnTAhWhx4MKHTK6DgIQ9V8INCgA..s
p836
sa(dp837
Vname
p838
Vei
p839
sVvalue
p840
Vd3fzWIfREqGPjwSy9LoQ
p841
sa(dp842
Vname
p843
Vzx
p844
sVvalue
p845
V1492350845591
p846
sasVheaders
p847
(lp848
sVheadersSize
p849
I661
sVbodySize
p850
I0
sVmethod
p851
VGET
p852
sVhttpVersion
p853
VHTTP/1.1
p854
ssVtimings
p855
(dp856
Vcomment
p857
g4
sVreceive
p858
I0
sVsend
p859
I0
sVssl
p860
I22
sVconnect
p861
I36
sVdns
p862
I44
sVwait
p863
I30
sVblocked
p864
I0
ssVtime
p865
I111
sVresponse
p866
(dp867
Vstatus
p868
I204
sVcomment
p869
g4
sVcookies
p870
(lp871
sVstatusText
p872
VNo Content
p873
sVcontent
p874
(dp875
VmimeType
p876
Vtext/html; charset=UTF-8
p877
sVcomment
p878
g4
sVsize
p879
I0
ssVheaders
p880
(lp881
sVheadersSize
p882
I248
sVredirectURL
p883
g4
sVbodySize
p884
I0
sVhttpVersion
p885
VHTTP/1.1
p886
ssa(dp887
Vcomment
p888
g4
sVserverIPAddress
p889
V216.58.216.196
p890
sVpageref
p891
VBaton Rouge
p892
sVstartedDateTime
p893
V2017-04-16T08:54:05.674-05:00
p894
sVcache
p895
(dp896
sVrequest
p897
(dp898
Vcomment
p899
g4
sVcookies
p900
(lp901
sVurl
p902
Vhttps://www.google.com/gen_204?atyp=i&ct=&cad=&uact=1&vet=10ahUKEwjH6KCNkKnTAhWhx4MKHTK6DgIQ9V8INSgB..s&ei=d3fzWIfREqGPjwSy9LoQ&zx=1492350845593
p903
sVqueryString
p904
(lp905
(dp906
Vname
p907
Vatyp
p908
sVvalue
p909
g30
sa(dp910
Vname
p911
Vct
p912
sVvalue
p913
g4
sa(dp914
Vname
p915
Vcad
p916
sVvalue
p917
g4
sa(dp918
Vname
p919
Vuact
p920
sVvalue
p921
g59
sa(dp922
Vname
p923
Vvet
p924
sVvalue
p925
V10ahUKEwjH6KCNkKnTAhWhx4MKHTK6DgIQ9V8INSgB..s
p926
sa(dp927
Vname
p928
Vei
p929
sVvalue
p930
Vd3fzWIfREqGPjwSy9LoQ
p931
sa(dp932
Vname
p933
Vzx
p934
sVvalue
p935
V1492350845593
p936
sasVheaders
p937
(lp938
sVheadersSize
p939
I661
sVbodySize
p940
I0
sVmethod
p941
VGET
p942
sVhttpVersion
p943
VHTTP/1.1
p944
ssVtimings
p945
(dp946
Vcomment
p947
g4
sVreceive
p948
I0
sVsend
p949
I0
sVssl
p950
I19
sVconnect
p951
I37
sVdns
p952
I41
sVwait
p953
I29
sVblocked
p954
I0
ssVtime
p955
I107
sVresponse
p956
(dp957
Vstatus
p958
I204
sVcomment
p959
g4
sVcookies
p960
(lp961
sVstatusText
p962
VNo Content
p963
sVcontent
p964
(dp965
VmimeType
p966
Vtext/html; charset=UTF-8
p967
sVcomment
p968
g4
sVsize
p969
I0
ssVheaders
p970
(lp971
sVheadersSize
p972
I248
sVredirectURL
p973
g4
sVbodySize
p974
I0
sVhttpVersion
p975
VHTTP/1.1
p976
ssa(dp977
Vcomment
p978
g4
sVserverIPAddress
p979
V216.58.216.196
p980
sVpageref
p981
VBaton Rouge
p982
sVstartedDateTime
p983
V2017-04-16T08:54:05.764-05:00
p984
sVcache
p985
(dp986
sVrequest
p987
(dp988
Vcomment
p989
g4
sVcookies
p990
(lp991
sVurl
p992
Vhttps://www.google.com/async/ampfp?vet=10ahUKEwjH6KCNkKnTAhWhx4MKHTK6DgIQtZoBCIkC..i&ei=d3fzWIfREqGPjwSy9LoQ&yv=2&async=_id:ampfp-async,_pms:qs
p993
sVqueryString
p994
(lp995
(dp996
Vname
p997
Vvet
p998
sVvalue
p999
V10ahUKEwjH6KCNkKnTAhWhx4MKHTK6DgIQtZoBCIkC..i
p1000
sa(dp1001
Vname
p1002
Vei
p1003
sVvalue
p1004
Vd3fzWIfREqGPjwSy9LoQ
p1005
sa(dp1006
Vname
p1007
Vyv
p1008
sVvalue
p1009
g64
sa(dp1010
Vname
p1011
Vasync
p1012
sVvalue
p1013
V_id:ampfp-async,_pms:qs
p1014
sasVheaders
p1015
(lp1016
sVheadersSize
p1017
I660
sVbodySize
p1018
I0
sVmethod
p1019
VGET
p1020
sVhttpVersion
p1021
VHTTP/1.1
p1022
ssVtimings
p1023
(dp1024
Vcomment
p1025
g4
sVreceive
p1026
I1
sVsend
p1027
I0
sVssl
p1028
I-1
sVconnect
p1029
I-1
sVdns
p1030
I-1
sVwait
p1031
I43
sVblocked
p1032
I-1
ssVtime
p1033
I45
sVresponse
p1034
(dp1035
Vstatus
p1036
I200
sVcomment
p1037
g4
sVcookies
p1038
(lp1039
sVstatusText
p1040
VOK
p1041
sVcontent
p1042
(dp1043
VmimeType
p1044
Vtext/html; charset=UTF-8
p1045
sVcomment
p1046
g4
sVsize
p1047
I0
ssVheaders
p1048
(lp1049
sVheadersSize
p1050
I383
sVredirectURL
p1051
g4
sVbodySize
p1052
I4527
sVhttpVersion
p1053
VHTTP/1.1
p1054
ssa(dp1055
Vcomment
p1056
g4
sVserverIPAddress
p1057
V216.58.216.193
p1058
sVpageref
p1059
VBaton Rouge
p1060
sVstartedDateTime
p1061
V2017-04-16T08:54:05.764-05:00
p1062
sVcache
p1063
(dp1064
sVrequest
p1065
(dp1066
Vcomment
p1067
g4
sVcookies
p1068
(lp1069
sVurl
p1070
Vhttps://cdn.ampproject.org/preconnect.gif?0.4579286847780174
p1071
sVqueryString
p1072
(lp1073
(dp1074
Vname
p1075
V0.4579286847780174
p1076
sVvalue
p1077
g4
sasVheaders
p1078
(lp1079
sVheadersSize
p1080
I375
sVbodySize
p1081
I0
sVmethod
p1082
VGET
p1083
sVhttpVersion
p1084
VHTTP/1.1
p1085
ssVtimings
p1086
(dp1087
Vcomment
p1088
g4
sVreceive
p1089
I0
sVsend
p1090
I0
sVssl
p1091
I-1
sVconnect
p1092
I-1
sVdns
p1093
I-1
sVwait
p1094
I27
sVblocked
p1095
I-1
ssVtime
p1096
I27
sVresponse
p1097
(dp1098
Vstatus
p1099
I200
sVcomment
p1100
g4
sVcookies
p1101
(lp1102
sVstatusText
p1103
VOK
p1104
sVcontent
p1105
(dp1106
VmimeType
p1107
Vimage/gif
p1108
sVcomment
p1109
g4
sVsize
p1110
I0
ssVheaders
p1111
(lp1112
sVheadersSize
p1113
I826
sVredirectURL
p1114
g4
sVbodySize
p1115
I37
sVhttpVersion
p1116
VHTTP/1.1
p1117
ssa(dp1118
Vcomment
p1119
g4
sVserverIPAddress
p1120
V216.58.216.196
p1121
sVpageref
p1122
VBaton Rouge
p1123
sVstartedDateTime
p1124
V2017-04-16T08:54:05.907-05:00
p1125
sVcache
p1126
(dp1127
sVrequest
p1128
(dp1129
Vcomment
p1130
g4
sVcookies
p1131
(lp1132
sVurl
p1133
Vhttps://www.google.com/async/log_amp_item_set?vet=10ahUKEwj3wuyPkKnTAhXK34MKHQRGCIkQooQBCAE..i&ei=d3fzWIfREqGPjwSy9LoQ&yv=2&async=num_items:6,_fmt:jspb
p1134
sVqueryString
p1135
(lp1136
(dp1137
Vname
p1138
Vvet
p1139
sVvalue
p1140
V10ahUKEwj3wuyPkKnTAhXK34MKHQRGCIkQooQBCAE..i
p1141
sa(dp1142
Vname
p1143
Vei
p1144
sVvalue
p1145
Vd3fzWIfREqGPjwSy9LoQ
p1146
sa(dp1147
Vname
p1148
Vyv
p1149
sVvalue
p1150
g64
sa(dp1151
Vname
p1152
Vasync
p1153
sVvalue
p1154
Vnum_items:6,_fmt:jspb
p1155
sasVheaders
p1156
(lp1157
sVheadersSize
p1158
I668
sVbodySize
p1159
I0
sVmethod
p1160
VGET
p1161
sVhttpVersion
p1162
VHTTP/1.1
p1163
ssVtimings
p1164
(dp1165
Vcomment
p1166
g4
sVreceive
p1167
I0
sVsend
p1168
I0
sVssl
p1169
I-1
sVconnect
p1170
I-1
sVdns
p1171
I-1
sVwait
p1172
I34
sVblocked
p1173
I-1
ssVtime
p1174
I35
sVresponse
p1175
(dp1176
Vstatus
p1177
I200
sVcomment
p1178
g4
sVcookies
p1179
(lp1180
sVstatusText
p1181
VOK
p1182
sVcontent
p1183
(dp1184
VmimeType
p1185
Vapplication/json; charset=UTF-8
p1186
sVcomment
p1187
g4
sVsize
p1188
I0
ssVheaders
p1189
(lp1190
sVheadersSize
p1191
I417
sVredirectURL
p1192
g4
sVbodySize
p1193
I165
sVhttpVersion
p1194
VHTTP/1.1
p1195
ssa(dp1196
Vcomment
p1197
g4
sVserverIPAddress
p1198
V172.217.0.1
p1199
sVpageref
p1200
VBaton Rouge
p1201
sVstartedDateTime
p1202
V2017-04-16T08:54:06.367-05:00
p1203
sVcache
p1204
(dp1205
sVrequest
p1206
(dp1207
Vcomment
p1208
g4
sVcookies
p1209
(lp1210
sVurl
p1211
Vhttps://klfy-com.cdn.ampproject.org/v/klfy.com/2017/04/15/unrestrained-driver-dies-after-crashing-into-home-in-east-baton-rouge-parish/amp/?amp_js_v=9
p1212
sVqueryString
p1213
(lp1214
(dp1215
Vname
p1216
Vamp_js_v
p1217
sVvalue
p1218
V9
p1219
sasVheaders
p1220
(lp1221
sVheadersSize
p1222
I555
sVbodySize
p1223
I0
sVmethod
p1224
VGET
p1225
sVhttpVersion
p1226
VHTTP/1.1
p1227
ssVtimings
p1228
(dp1229
Vcomment
p1230
g4
sVreceive
p1231
I0
sVsend
p1232
I0
sVssl
p1233
I395
sVconnect
p1234
I409
sVdns
p1235
I30
sVwait
p1236
I62
sVblocked
p1237
I0
ssVtime
p1238
I503
sVresponse
p1239
(dp1240
Vstatus
p1241
I200
sVcomment
p1242
g4
sVcookies
p1243
(lp1244
sVstatusText
p1245
VOK
p1246
sVcontent
p1247
(dp1248
VmimeType
p1249
Vtext/html
p1250
sVcomment
p1251
g4
sVsize
p1252
I0
ssVheaders
p1253
(lp1254
sVheadersSize
p1255
I861
sVredirectURL
p1256
g4
sVbodySize
p1257
I8598
sVhttpVersion
p1258
VHTTP/1.1
p1259
ssa(dp1260
Vcomment
p1261
g4
sVserverIPAddress
p1262
V216.58.216.193
p1263
sVpageref
p1264
VBaton Rouge
p1265
sVstartedDateTime
p1266
V2017-04-16T08:54:07.192-05:00
p1267
sVcache
p1268
(dp1269
sVrequest
p1270
(dp1271
Vcomment
p1272
g4
sVcookies
p1273
(lp1274
sVurl
p1275
Vhttps://mgtvklfy-files-wordpress-com.cdn.ampproject.org/ii/w330/s/mgtvklfy.files.wordpress.com/2015/08/logo-klfy-small-branding-take-2.png?w=150
p1276
sVqueryString
p1277
(lp1278
(dp1279
Vname
p1280
g588
sVvalue
p1281
V150
p1282
sasVheaders
p1283
(lp1284
sVheadersSize
p1285
I586
sVbodySize
p1286
I0
sVmethod
p1287
VGET
p1288
sVhttpVersion
p1289
VHTTP/1.1
p1290
ssVtimings
p1291
(dp1292
Vcomment
p1293
g4
sVreceive
p1294
I1
sVsend
p1295
I0
sVssl
p1296
I506
sVconnect
p1297
I518
sVdns
p1298
I37
sVwait
p1299
I26
sVblocked
p1300
I0
ssVtime
p1301
I584
sVresponse
p1302
(dp1303
Vstatus
p1304
I200
sVcomment
p1305
g4
sVcookies
p1306
(lp1307
sVstatusText
p1308
VOK
p1309
sVcontent
p1310
(dp1311
VmimeType
p1312
Vimage/png
p1313
sVcomment
p1314
g4
sVsize
p1315
I0
ssVheaders
p1316
(lp1317
sVheadersSize
p1318
I822
sVredirectURL
p1319
g4
sVbodySize
p1320
I3097
sVhttpVersion
p1321
VHTTP/1.1
p1322
ssa(dp1323
Vcomment
p1324
g4
sVserverIPAddress
p1325
V216.58.216.193
p1326
sVpageref
p1327
VBaton Rouge
p1328
sVstartedDateTime
p1329
V2017-04-16T08:54:07.195-05:00
p1330
sVcache
p1331
(dp1332
sVrequest
p1333
(dp1334
Vcomment
p1335
g4
sVcookies
p1336
(lp1337
sVurl
p1338
Vhttps://mgtvklfy-files-wordpress-com.cdn.ampproject.org/i/s/mgtvklfy.files.wordpress.com/2015/10/fatal-crash1.jpg
p1339
sVqueryString
p1340
(lp1341
sVheaders
p1342
(lp1343
sVheadersSize
p1344
I555
sVbodySize
p1345
I0
sVmethod
p1346
VGET
p1347
sVhttpVersion
p1348
VHTTP/1.1
p1349
ssVtimings
p1350
(dp1351
Vcomment
p1352
g4
sVreceive
p1353
I46
sVsend
p1354
I0
sVssl
p1355
I501
sVconnect
p1356
I521
sVdns
p1357
I34
sVwait
p1358
I65
sVblocked
p1359
I0
ssVtime
p1360
I667
sVresponse
p1361
(dp1362
Vstatus
p1363
I200
sVcomment
p1364
g4
sVcookies
p1365
(lp1366
sVstatusText
p1367
VOK
p1368
sVcontent
p1369
(dp1370
VmimeType
p1371
Vimage/jpeg
p1372
sVcomment
p1373
g4
sVsize
p1374
I0
ssVheaders
p1375
(lp1376
sVheadersSize
p1377
I849
sVredirectURL
p1378
g4
sVbodySize
p1379
I55682
sVhttpVersion
p1380
VHTTP/1.1
p1381
ssa(dp1382
Vcomment
p1383
g4
sVserverIPAddress
p1384
V216.58.216.196
p1385
sVpageref
p1386
VBaton Rouge
p1387
sVstartedDateTime
p1388
V2017-04-16T08:54:07.349-05:00
p1389
sVcache
p1390
(dp1391
sVrequest
p1392
(dp1393
Vcomment
p1394
g4
sVcookies
p1395
(lp1396
sVurl
p1397
Vhttps://www.google.com/gen_204?s=web&atyp=csi&ei=d3fzWIfREqGPjwSy9LoQ&imc=25&imn=25&imp=18&adh=&xjs=init.40.15.sb_mob.28.dvl.4.c.2.vs.2.mbsf.1&ima=4&rt=prt.1309,iml.4854,xjsls.1310,dcl.1377,qiml.1724,xjses.4541,xjsee.4730,xjs.4730,ol.6884,aft.4854,wsrt.121,cst.0,dnst.0,rqst.1363,rspt.1266,rqstt.2,unt.2,cstt.2,dit.1450
p1398
sVqueryString
p1399
(lp1400
(dp1401
Vname
p1402
g57
sVvalue
p1403
Vweb
p1404
sa(dp1405
Vname
p1406
Vatyp
p1407
sVvalue
p1408
Vcsi
p1409
sa(dp1410
Vname
p1411
Vei
p1412
sVvalue
p1413
Vd3fzWIfREqGPjwSy9LoQ
p1414
sa(dp1415
Vname
p1416
Vimc
p1417
sVvalue
p1418
V25
p1419
sa(dp1420
Vname
p1421
Vimn
p1422
sVvalue
p1423
V25
p1424
sa(dp1425
Vname
p1426
Vimp
p1427
sVvalue
p1428
V18
p1429
sa(dp1430
Vname
p1431
Vadh
p1432
sVvalue
p1433
g4
sa(dp1434
Vname
p1435
Vxjs
p1436
sVvalue
p1437
Vinit.40.15.sb_mob.28.dvl.4.c.2.vs.2.mbsf.1
p1438
sa(dp1439
Vname
p1440
Vima
p1441
sVvalue
p1442
g668
sa(dp1443
Vname
p1444
Vrt
p1445
sVvalue
p1446
Vprt.1309,iml.4854,xjsls.1310,dcl.1377,qiml.1724,xjses.4541,xjsee.4730,xjs.4730,ol.6884,aft.4854,wsrt.121,cst.0,dnst.0,rqst.1363,rspt.1266,rqstt.2,unt.2,cstt.2,dit.1450
p1447
sasVheaders
p1448
(lp1449
sVheadersSize
p1450
I836
sVbodySize
p1451
I0
sVmethod
p1452
VGET
p1453
sVhttpVersion
p1454
VHTTP/1.1
p1455
ssVtimings
p1456
(dp1457
Vcomment
p1458
g4
sVreceive
p1459
I0
sVsend
p1460
I0
sVssl
p1461
I-1
sVconnect
p1462
I-1
sVdns
p1463
I-1
sVwait
p1464
I55
sVblocked
p1465
I-1
ssVtime
p1466
I56
sVresponse
p1467
(dp1468
Vstatus
p1469
I204
sVcomment
p1470
g4
sVcookies
p1471
(lp1472
sVstatusText
p1473
VNo Content
p1474
sVcontent
p1475
(dp1476
VmimeType
p1477
Vtext/html; charset=UTF-8
p1478
sVcomment
p1479
g4
sVsize
p1480
I0
ssVheaders
p1481
(lp1482
sVheadersSize
p1483
I248
sVredirectURL
p1484
g4
sVbodySize
p1485
I0
sVhttpVersion
p1486
VHTTP/1.1
p1487
ssa(dp1488
Vcomment
p1489
g4
sVserverIPAddress
p1490
V216.58.216.196
p1491
sVpageref
p1492
VBaton Rouge
p1493
sVstartedDateTime
p1494
V2017-04-16T08:54:07.727-05:00
p1495
sVcache
p1496
(dp1497
sVrequest
p1498
(dp1499
Vcomment
p1500
g4
sVcookies
p1501
(lp1502
sVurl
p1503
Vhttps://www.google.com/gen_204?atyp=i&ct=slh&cad=&ei=ZHfzWITTIMnKjwSx1qmgAw&m=V&t=C&s=1&v=2&pv=0.9456413910221267&me=1:1492350823723,x:3,V,0,0,1280,944:0,N,1,ZHfzWITTIMnKjwSx1qmgAw:0,R,1,24,8,155,1249,648:0,R,1,25,8,155,1249,648:0,R,1,36,8,155,1249,116:0,R,1,48,8,284,1249,40:0,R,1,55,8,399,1249,40:0,R,1,56,24,399,1217,40:0,R,1,59,8,455,1249,20:0,R,1,61,8,483,1249,20:0,R,1,74,8,523,1249,213:0,R,1,75,8,572,1249,164:0,R,1,176,24,813,1217,94:0,R,1,178,24,928,1217,135:2,B,3288:15887,e,U&zx=1492350847726
p1504
sVqueryString
p1505
(lp1506
(dp1507
Vname
p1508
Vatyp
p1509
sVvalue
p1510
g30
sa(dp1511
Vname
p1512
Vct
p1513
sVvalue
p1514
Vslh
p1515
sa(dp1516
Vname
p1517
Vcad
p1518
sVvalue
p1519
g4
sa(dp1520
Vname
p1521
Vei
p1522
sVvalue
p1523
VZHfzWITTIMnKjwSx1qmgAw
p1524
sa(dp1525
Vname
p1526
g47
sVvalue
p1527
g49
sa(dp1528
Vname
p1529
g52
sVvalue
p1530
g54
sa(dp1531
Vname
p1532
g57
sVvalue
p1533
g59
sa(dp1534
Vname
p1535
g62
sVvalue
p1536
g64
sa(dp1537
Vname
p1538
Vpv
p1539
sVvalue
p1540
V0.9456413910221267
p1541
sa(dp1542
Vname
p1543
Vme
p1544
sVvalue
p1545
V1:1492350823723,x:3,V,0,0,1280,944:0,N,1,ZHfzWITTIMnKjwSx1qmgAw:0,R,1,24,8,155,1249,648:0,R,1,25,8,155,1249,648:0,R,1,36,8,155,1249,116:0,R,1,48,8,284,1249,40:0,R,1,55,8,399,1249,40:0,R,1,56,24,399,1217,40:0,R,1,59,8,455,1249,20:0,R,1,61,8,483,1249,20:0,R,1,74,8,523,1249,213:0,R,1,75,8,572,1249,164:0,R,1,176,24,813,1217,94:0,R,1,178,24,928,1217,135:2,B,3288:15887,e,U
p1546
sa(dp1547
Vname
p1548
Vzx
p1549
sVvalue
p1550
V1492350847726
p1551
sasVheaders
p1552
(lp1553
sVheadersSize
p1554
I1020
sVbodySize
p1555
I0
sVmethod
p1556
VGET
p1557
sVhttpVersion
p1558
VHTTP/1.1
p1559
ssVtimings
p1560
(dp1561
Vcomment
p1562
g4
sVreceive
p1563
I0
sVsend
p1564
I0
sVssl
p1565
I-1
sVconnect
p1566
I-1
sVdns
p1567
I-1
sVwait
p1568
I66
sVblocked
p1569
I-1
ssVtime
p1570
I66
sVresponse
p1571
(dp1572
Vstatus
p1573
I204
sVcomment
p1574
g4
sVcookies
p1575
(lp1576
sVstatusText
p1577
VNo Content
p1578
sVcontent
p1579
(dp1580
VmimeType
p1581
Vtext/html; charset=UTF-8
p1582
sVcomment
p1583
g4
sVsize
p1584
I0
ssVheaders
p1585
(lp1586
sVheadersSize
p1587
I248
sVredirectURL
p1588
g4
sVbodySize
p1589
I0
sVhttpVersion
p1590
VHTTP/1.1
p1591
ssasVversion
p1592
V1.2
p1593
sVpages
p1594
(lp1595
(dp1596
VpageTimings
p1597
(dp1598
Vcomment
p1599
g4
ssVcomment
p1600
g4
sVtitle
p1601
VBaton Rouge
p1602
sVid
p1603
VBaton Rouge
p1604
sVstartedDateTime
p1605
V2017-04-16T08:53:59.609-05:00
p1606
sasVcreator
p1607
(dp1608
Vcomment
p1609
g4
sVversion
p1610
V2.1.4
p1611
sVname
p1612
VBrowserMob Proxy
p1613
sss.