(dp0
Vlog
p1
(dp2
Vcomment
p3
V
p4
sVentries
p5
(lp6
(dp7
Vcomment
p8
g4
sVserverIPAddress
p9
V216.58.216.196
p10
sVpageref
p11
VHouston Rockets
p12
sVstartedDateTime
p13
V2017-04-16T08:34:21.052-05:00
p14
sVcache
p15
(dp16
sVrequest
p17
(dp18
Vcomment
p19
g4
sVcookies
p20
(lp21
sVurl
p22
Vhttps://www.google.com/gen_204?atyp=i&ct=slh&cad=&ei=xXLzWObzOYPWjwSwqr7IBw&m=V&t=C&s=1&v=2&pv=0.2502535106635656&me=1:1492349641473,x:2,V,0,0,1280,944:0,N,1,xXLzWObzOYPWjwSwqr7IBw:0,R,1,24,0,155,1197,700:0,R,1,25,0,155,1197,698:0,R,1,79,8,863,1264,545:0,R,1,80,8,907,1264,315:0,R,1,81,0,907,1280,335:2,B,3757:19573,e,U&zx=1492349661050
p23
sVqueryString
p24
(lp25
(dp26
Vname
p27
Vatyp
p28
sVvalue
p29
Vi
p30
sa(dp31
Vname
p32
Vct
p33
sVvalue
p34
Vslh
p35
sa(dp36
Vname
p37
Vcad
p38
sVvalue
p39
g4
sa(dp40
Vname
p41
Vei
p42
sVvalue
p43
VxXLzWObzOYPWjwSwqr7IBw
p44
sa(dp45
Vname
p46
Vm
p47
sVvalue
p48
VV
p49
sa(dp50
Vname
p51
Vt
p52
sVvalue
p53
VC
p54
sa(dp55
Vname
p56
Vs
p57
sVvalue
p58
V1
p59
sa(dp60
Vname
p61
Vv
p62
sVvalue
p63
V2
p64
sa(dp65
Vname
p66
Vpv
p67
sVvalue
p68
V0.2502535106635656
p69
sa(dp70
Vname
p71
Vme
p72
sVvalue
p73
V1:1492349641473,x:2,V,0,0,1280,944:0,N,1,xXLzWObzOYPWjwSwqr7IBw:0,R,1,24,0,155,1197,700:0,R,1,25,0,155,1197,698:0,R,1,79,8,863,1264,545:0,R,1,80,8,907,1264,315:0,R,1,81,0,907,1280,335:2,B,3757:19573,e,U
p74
sa(dp75
Vname
p76
Vzx
p77
sVvalue
p78
V1492349661050
p79
sasVheaders
p80
(lp81
sVheadersSize
p82
I853
sVbodySize
p83
I0
sVmethod
p84
VGET
p85
sVhttpVersion
p86
VHTTP/1.1
p87
ssVtimings
p88
(dp89
Vcomment
p90
g4
sVreceive
p91
I0
sVsend
p92
I0
sVssl
p93
I-1
sVconnect
p94
I-1
sVdns
p95
I-1
sVwait
p96
I0
sVblocked
p97
I-1
ssVtime
p98
I0
sVresponse
p99
(dp100
Vstatus
p101
I0
sVcomment
p102
g4
sVcookies
p103
(lp104
sV_error
p105
VNo response received
p106
sVstatusText
p107
g4
sVcontent
p108
(dp109
VmimeType
p110
g4
sVcomment
p111
g4
sVsize
p112
I0
ssVheaders
p113
(lp114
sVheadersSize
p115
I-1
sVredirectURL
p116
g4
sVbodySize
p117
I-1
sVhttpVersion
p118
Vunknown
p119
ssa(dp120
Vcomment
p121
g4
sVserverIPAddress
p122
V216.58.216.196
p123
sVpageref
p124
VHouston Rockets
p125
sVstartedDateTime
p126
V2017-04-16T08:34:21.056-05:00
p127
sVcache
p128
(dp129
sVrequest
p130
(dp131
Vcomment
p132
g4
sVcookies
p133
(lp134
sVurl
p135
Vhttp://www.google.com/
p136
sVqueryString
p137
(lp138
sVheaders
p139
(lp140
sVheadersSize
p141
I613
sVbodySize
p142
I0
sVmethod
p143
VGET
p144
sVhttpVersion
p145
VHTTP/1.1
p146
ssVtimings
p147
(dp148
Vcomment
p149
g4
sVreceive
p150
I0
sVsend
p151
I0
sVssl
p152
I-1
sVconnect
p153
I-1
sVdns
p154
I-1
sVwait
p155
I37
sVblocked
p156
I-1
ssVtime
p157
I37
sVresponse
p158
(dp159
Vstatus
p160
I302
sVcomment
p161
g4
sVcookies
p162
(lp163
sVstatusText
p164
VFound
p165
sVcontent
p166
(dp167
VmimeType
p168
Vtext/html; charset=UTF-8
p169
sVcomment
p170
g4
sVsize
p171
I0
ssVheaders
p172
(lp173
sVheadersSize
p174
I609
sVredirectURL
p175
Vhttps://www.google.com/?gws_rd=ssl
p176
sVbodySize
p177
I231
sVhttpVersion
p178
VHTTP/1.1
p179
ssa(dp180
Vcomment
p181
g4
sVserverIPAddress
p182
V216.58.216.196
p183
sVpageref
p184
VHouston Rockets
p185
sVstartedDateTime
p186
V2017-04-16T08:34:21.152-05:00
p187
sVcache
p188
(dp189
sVrequest
p190
(dp191
Vcomment
p192
g4
sVcookies
p193
(lp194
sVurl
p195
Vhttps://www.google.com/?gws_rd=ssl
p196
sVqueryString
p197
(lp198
(dp199
Vname
p200
Vgws_rd
p201
sVvalue
p202
Vssl
p203
sasVheaders
p204
(lp205
sVheadersSize
p206
I607
sVbodySize
p207
I0
sVmethod
p208
VGET
p209
sVhttpVersion
p210
VHTTP/1.1
p211
ssVtimings
p212
(dp213
Vcomment
p214
g4
sVreceive
p215
I175
sVsend
p216
I0
sVssl
p217
I35
sVconnect
p218
I50
sVdns
p219
I0
sVwait
p220
I79
sVblocked
p221
I0
ssVtime
p222
I305
sVresponse
p223
(dp224
Vstatus
p225
I200
sVcomment
p226
g4
sVcookies
p227
(lp228
sVstatusText
p229
VOK
p230
sVcontent
p231
(dp232
VmimeType
p233
Vtext/html; charset=UTF-8
p234
sVcomment
p235
g4
sVsize
p236
I0
ssVheaders
p237
(lp238
sVheadersSize
p239
I721
sVredirectURL
p240
g4
sVbodySize
p241
I34288
sVhttpVersion
p242
VHTTP/1.1
p243
ssa(dp244
Vcomment
p245
g4
sVserverIPAddress
p246
V216.58.216.196
p247
sVpageref
p248
VHouston Rockets
p249
sVstartedDateTime
p250
V2017-04-16T08:34:21.733-05:00
p251
sVcache
p252
(dp253
sVrequest
p254
(dp255
Vcomment
p256
g4
sVcookies
p257
(lp258
sVurl
p259
Vhttps://www.google.com/gen_204?s=mobilewebhp&atyp=csi&ei=3HLzWNP8CIapjwSQh6hw&imc=1&imn=1&imp=0&adh=&xjs=init.38.12.sb_mob.29.dvl.3.jsa.2.mbsf.2.c.1&ima=1&rt=xjsls.154,prt.155,iml.155,dcl.188,xjses.234,xjsee.355,xjs.356,ol.470,aft.155,wsrt.204,cst.0,dnst.0,rqst.257,rspt.258,rqstt.102,unt.46,cstt.46,dit.381
p260
sVqueryString
p261
(lp262
(dp263
Vname
p264
g57
sVvalue
p265
Vmobilewebhp
p266
sa(dp267
Vname
p268
Vatyp
p269
sVvalue
p270
Vcsi
p271
sa(dp272
Vname
p273
Vei
p274
sVvalue
p275
V3HLzWNP8CIapjwSQh6hw
p276
sa(dp277
Vname
p278
Vimc
p279
sVvalue
p280
g59
sa(dp281
Vname
p282
Vimn
p283
sVvalue
p284
g59
sa(dp285
Vname
p286
Vimp
p287
sVvalue
p288
V0
p289
sa(dp290
Vname
p291
Vadh
p292
sVvalue
p293
g4
sa(dp294
Vname
p295
Vxjs
p296
sVvalue
p297
Vinit.38.12.sb_mob.29.dvl.3.jsa.2.mbsf.2.c.1
p298
sa(dp299
Vname
p300
Vima
p301
sVvalue
p302
g59
sa(dp303
Vname
p304
Vrt
p305
sVvalue
p306
Vxjsls.154,prt.155,iml.155,dcl.188,xjses.234,xjsee.355,xjs.356,ol.470,aft.155,wsrt.204,cst.0,dnst.0,rqst.257,rspt.258,rqstt.102,unt.46,cstt.46,dit.381
p307
sasVheaders
p308
(lp309
sVheadersSize
p310
I835
sVbodySize
p311
I0
sVmethod
p312
VGET
p313
sVhttpVersion
p314
VHTTP/1.1
p315
ssVtimings
p316
(dp317
Vcomment
p318
g4
sVreceive
p319
I0
sVsend
p320
I0
sVssl
p321
I-1
sVconnect
p322
I-1
sVdns
p323
I-1
sVwait
p324
I27
sVblocked
p325
I-1
ssVtime
p326
I28
sVresponse
p327
(dp328
Vstatus
p329
I204
sVcomment
p330
g4
sVcookies
p331
(lp332
sVstatusText
p333
VNo Content
p334
sVcontent
p335
(dp336
VmimeType
p337
Vtext/html; charset=UTF-8
p338
sVcomment
p339
g4
sVsize
p340
I0
ssVheaders
p341
(lp342
sVheadersSize
p343
I248
sVredirectURL
p344
g4
sVbodySize
p345
I0
sVhttpVersion
p346
VHTTP/1.1
p347
ssa(dp348
Vcomment
p349
g4
sVserverIPAddress
p350
V216.58.216.196
p351
sVpageref
p352
VHouston Rockets
p353
sVstartedDateTime
p354
V2017-04-16T08:34:21.864-05:00
p355
sVcache
p356
(dp357
sVrequest
p358
(dp359
Vcomment
p360
g4
sVcookies
p361
(lp362
sVurl
p363
Vhttps://www.google.com/complete/search?client=mobile-gws-hp&hl=en&gs_rn=64&gs_ri=mobile-gws-hp&sla=1&pfq=hartford%20yard%20goats&gm=602&cp=0&gs_id=1&xhr=t&q=H&tch=1&ech=1&psi=3HLzWNP8CIapjwSQh6hw.1492349661566.1
p364
sVqueryString
p365
(lp366
(dp367
Vname
p368
Vclient
p369
sVvalue
p370
Vmobile-gws-hp
p371
sa(dp372
Vname
p373
Vhl
p374
sVvalue
p375
Ven
p376
sa(dp377
Vname
p378
Vgs_rn
p379
sVvalue
p380
V64
p381
sa(dp382
Vname
p383
Vgs_ri
p384
sVvalue
p385
Vmobile-gws-hp
p386
sa(dp387
Vname
p388
Vsla
p389
sVvalue
p390
g59
sa(dp391
Vname
p392
Vpfq
p393
sVvalue
p394
Vhartford yard goats
p395
sa(dp396
Vname
p397
Vgm
p398
sVvalue
p399
V602
p400
sa(dp401
Vname
p402
Vcp
p403
sVvalue
p404
g289
sa(dp405
Vname
p406
Vgs_id
p407
sVvalue
p408
g59
sa(dp409
Vname
p410
Vxhr
p411
sVvalue
p412
g52
sa(dp413
Vname
p414
Vq
p415
sVvalue
p416
VH
p417
sa(dp418
Vname
p419
Vtch
p420
sVvalue
p421
g59
sa(dp422
Vname
p423
Vech
p424
sVvalue
p425
g59
sa(dp426
Vname
p427
Vpsi
p428
sVvalue
p429
V3HLzWNP8CIapjwSQh6hw.1492349661566.1
p430
sasVheaders
p431
(lp432
sVheadersSize
p433
I739
sVbodySize
p434
I0
sVmethod
p435
VGET
p436
sVhttpVersion
p437
VHTTP/1.1
p438
ssVtimings
p439
(dp440
Vcomment
p441
g4
sVreceive
p442
I0
sVsend
p443
I0
sVssl
p444
I-1
sVconnect
p445
I-1
sVdns
p446
I-1
sVwait
p447
I0
sVblocked
p448
I-1
ssVtime
p449
I0
sVresponse
p450
(dp451
Vstatus
p452
I0
sVcomment
p453
g4
sVcookies
p454
(lp455
sV_error
p456
VNo response received
p457
sVstatusText
p458
g4
sVcontent
p459
(dp460
VmimeType
p461
g4
sVcomment
p462
g4
sVsize
p463
I0
ssVheaders
p464
(lp465
sVheadersSize
p466
I-1
sVredirectURL
p467
g4
sVbodySize
p468
I-1
sVhttpVersion
p469
Vunknown
p470
ssa(dp471
Vcomment
p472
g4
sVserverIPAddress
p473
V216.58.216.196
p474
sVpageref
p475
VHouston Rockets
p476
sVstartedDateTime
p477
V2017-04-16T08:34:22.012-05:00
p478
sVcache
p479
(dp480
sVrequest
p481
(dp482
Vcomment
p483
g4
sVcookies
p484
(lp485
sVurl
p486
Vhttps://www.google.com/search?site=&source=hp&ei=3HLzWNP8CIapjwSQh6hw&q=Houston+Rockets&oq=Houston+Rockets&gs_l=mobile-gws-hp.3...267.315.0.347.15.1.0.0.0.0.0.0..0.0....0...1c.1.64.mobile-gws-hp..15.0.0.dQMlY2EFHXc
p487
sVqueryString
p488
(lp489
(dp490
Vname
p491
Vsite
p492
sVvalue
p493
g4
sa(dp494
Vname
p495
Vsource
p496
sVvalue
p497
Vhp
p498
sa(dp499
Vname
p500
Vei
p501
sVvalue
p502
V3HLzWNP8CIapjwSQh6hw
p503
sa(dp504
Vname
p505
g415
sVvalue
p506
VHouston Rockets
p507
sa(dp508
Vname
p509
Voq
p510
sVvalue
p511
VHouston Rockets
p512
sa(dp513
Vname
p514
Vgs_l
p515
sVvalue
p516
Vmobile-gws-hp.3...267.315.0.347.15.1.0.0.0.0.0.0..0.0....0...1c.1.64.mobile-gws-hp..15.0.0.dQMlY2EFHXc
p517
sasVheaders
p518
(lp519
sVheadersSize
p520
I832
sVbodySize
p521
I0
sVmethod
p522
VGET
p523
sVhttpVersion
p524
VHTTP/1.1
p525
ssVtimings
p526
(dp527
Vcomment
p528
g4
sVreceive
p529
I1192
sVsend
p530
I0
sVssl
p531
I45
sVconnect
p532
I64
sVdns
p533
I0
sVwait
p534
I100
sVblocked
p535
I0
ssVtime
p536
I1357
sVresponse
p537
(dp538
Vstatus
p539
I200
sVcomment
p540
g4
sVcookies
p541
(lp542
sVstatusText
p543
VOK
p544
sVcontent
p545
(dp546
VmimeType
p547
Vtext/html; charset=UTF-8
p548
sVcomment
p549
g4
sVsize
p550
I0
ssVheaders
p551
(lp552
sVheadersSize
p553
I363
sVredirectURL
p554
g4
sVbodySize
p555
I169440
sVhttpVersion
p556
VHTTP/1.1
p557
ssa(dp558
Vcomment
p559
g4
sVserverIPAddress
p560
V216.58.216.196
p561
sVpageref
p562
VHouston Rockets
p563
sVstartedDateTime
p564
V2017-04-16T08:34:24.742-05:00
p565
sVcache
p566
(dp567
sVrequest
p568
(dp569
Vcomment
p570
g4
sVcookies
p571
(lp572
sVurl
p573
Vhttps://www.google.com/async/irc?vet=10ahUKEwjVgbPbi6nTAhWD8YMKHZmeAcgQo0EI1gI..i&ved=0ahUKEwjVgbPbi6nTAhWD8YMKHZmeAcgQo0EI1gI&ei=3XLzWJUfg-OPBJm9hsAM&yv=2&async=iu:1,ved:0ahUKEwjVgbPbi6nTAhWD8YMKHZmeAcgQo0EI1gI,_id:irc_async,_pms:qs
p574
sVqueryString
p575
(lp576
(dp577
Vname
p578
Vvet
p579
sVvalue
p580
V10ahUKEwjVgbPbi6nTAhWD8YMKHZmeAcgQo0EI1gI..i
p581
sa(dp582
Vname
p583
Vved
p584
sVvalue
p585
V0ahUKEwjVgbPbi6nTAhWD8YMKHZmeAcgQo0EI1gI
p586
sa(dp587
Vname
p588
Vei
p589
sVvalue
p590
V3XLzWJUfg-OPBJm9hsAM
p591
sa(dp592
Vname
p593
Vyv
p594
sVvalue
p595
g64
sa(dp596
Vname
p597
Vasync
p598
sVvalue
p599
Viu:1,ved:0ahUKEwjVgbPbi6nTAhWD8YMKHZmeAcgQo0EI1gI,_id:irc_async,_pms:qs
p600
sasVheaders
p601
(lp602
sVheadersSize
p603
I750
sVbodySize
p604
I0
sVmethod
p605
VGET
p606
sVhttpVersion
p607
VHTTP/1.1
p608
ssVtimings
p609
(dp610
Vcomment
p611
g4
sVreceive
p612
I4
sVsend
p613
I0
sVssl
p614
I-1
sVconnect
p615
I-1
sVdns
p616
I-1
sVwait
p617
I43
sVblocked
p618
I-1
ssVtime
p619
I47
sVresponse
p620
(dp621
Vstatus
p622
I200
sVcomment
p623
g4
sVcookies
p624
(lp625
sVstatusText
p626
VOK
p627
sVcontent
p628
(dp629
VmimeType
p630
Vtext/html; charset=UTF-8
p631
sVcomment
p632
g4
sVsize
p633
I0
ssVheaders
p634
(lp635
sVheadersSize
p636
I383
sVredirectURL
p637
g4
sVbodySize
p638
I7793
sVhttpVersion
p639
VHTTP/1.1
p640
ssa(dp641
Vcomment
p642
g4
sVserverIPAddress
p643
V216.58.216.196
p644
sVpageref
p645
VHouston Rockets
p646
sVstartedDateTime
p647
V2017-04-16T08:34:24.829-05:00
p648
sVcache
p649
(dp650
sVrequest
p651
(dp652
Vcomment
p653
g4
sVcookies
p654
(lp655
sVurl
p656
Vhttps://www.google.com/async/ampfp?vet=10ahUKEwjVgbPbi6nTAhWD8YMKHZmeAcgQtZoBCNQC..i&ei=3XLzWJUfg-OPBJm9hsAM&yv=2&async=_id:ampfp-async,_pms:qs
p657
sVqueryString
p658
(lp659
(dp660
Vname
p661
Vvet
p662
sVvalue
p663
V10ahUKEwjVgbPbi6nTAhWD8YMKHZmeAcgQtZoBCNQC..i
p664
sa(dp665
Vname
p666
Vei
p667
sVvalue
p668
V3XLzWJUfg-OPBJm9hsAM
p669
sa(dp670
Vname
p671
Vyv
p672
sVvalue
p673
g64
sa(dp674
Vname
p675
Vasync
p676
sVvalue
p677
V_id:ampfp-async,_pms:qs
p678
sasVheaders
p679
(lp680
sVheadersSize
p681
I660
sVbodySize
p682
I0
sVmethod
p683
VGET
p684
sVhttpVersion
p685
VHTTP/1.1
p686
ssVtimings
p687
(dp688
Vcomment
p689
g4
sVreceive
p690
I0
sVsend
p691
I0
sVssl
p692
I-1
sVconnect
p693
I-1
sVdns
p694
I-1
sVwait
p695
I45
sVblocked
p696
I-1
ssVtime
p697
I45
sVresponse
p698
(dp699
Vstatus
p700
I200
sVcomment
p701
g4
sVcookies
p702
(lp703
sVstatusText
p704
VOK
p705
sVcontent
p706
(dp707
VmimeType
p708
Vtext/html; charset=UTF-8
p709
sVcomment
p710
g4
sVsize
p711
I0
ssVheaders
p712
(lp713
sVheadersSize
p714
I383
sVredirectURL
p715
g4
sVbodySize
p716
I4527
sVhttpVersion
p717
VHTTP/1.1
p718
ssa(dp719
Vcomment
p720
g4
sVserverIPAddress
p721
V216.58.216.193
p722
sVpageref
p723
VHouston Rockets
p724
sVstartedDateTime
p725
V2017-04-16T08:34:24.830-05:00
p726
sVcache
p727
(dp728
sVrequest
p729
(dp730
Vcomment
p731
g4
sVcookies
p732
(lp733
sVurl
p734
Vhttps://cdn.ampproject.org/preconnect.gif?0.9638053031056029
p735
sVqueryString
p736
(lp737
(dp738
Vname
p739
V0.9638053031056029
p740
sVvalue
p741
g4
sasVheaders
p742
(lp743
sVheadersSize
p744
I375
sVbodySize
p745
I0
sVmethod
p746
VGET
p747
sVhttpVersion
p748
VHTTP/1.1
p749
ssVtimings
p750
(dp751
Vcomment
p752
g4
sVreceive
p753
I0
sVsend
p754
I0
sVssl
p755
I-1
sVconnect
p756
I-1
sVdns
p757
I-1
sVwait
p758
I29
sVblocked
p759
I-1
ssVtime
p760
I30
sVresponse
p761
(dp762
Vstatus
p763
I200
sVcomment
p764
g4
sVcookies
p765
(lp766
sVstatusText
p767
VOK
p768
sVcontent
p769
(dp770
VmimeType
p771
Vimage/gif
p772
sVcomment
p773
g4
sVsize
p774
I0
ssVheaders
p775
(lp776
sVheadersSize
p777
I826
sVredirectURL
p778
g4
sVbodySize
p779
I37
sVhttpVersion
p780
VHTTP/1.1
p781
ssa(dp782
Vcomment
p783
g4
sVserverIPAddress
p784
V216.58.216.196
p785
sVpageref
p786
VHouston Rockets
p787
sVstartedDateTime
p788
V2017-04-16T08:34:25.119-05:00
p789
sVcache
p790
(dp791
sVrequest
p792
(dp793
Vcomment
p794
g4
sVcookies
p795
(lp796
sVurl
p797
Vhttps://www.google.com/gen_204?s=web&atyp=csi&ei=3XLzWJUfg-OPBJm9hsAM&imc=80&imn=80&imp=35&adh=&xjs=init.106.16.sb_mob.85.dvl.7.async.6.lr.3.c.2&ima=17&rt=prt.1250,iml.1559,xjsls.1251,qiml.1599,dcl.1405,xjses.1625,xjsee.1973,xjs.1974,ol.2960,aft.1559,wsrt.193,cst.0,dnst.0,rqst.1299,rspt.1305,rqstt.69,unt.2,cstt.2,dit.1544
p798
sVqueryString
p799
(lp800
(dp801
Vname
p802
g57
sVvalue
p803
Vweb
p804
sa(dp805
Vname
p806
Vatyp
p807
sVvalue
p808
Vcsi
p809
sa(dp810
Vname
p811
Vei
p812
sVvalue
p813
V3XLzWJUfg-OPBJm9hsAM
p814
sa(dp815
Vname
p816
Vimc
p817
sVvalue
p818
V80
p819
sa(dp820
Vname
p821
Vimn
p822
sVvalue
p823
V80
p824
sa(dp825
Vname
p826
Vimp
p827
sVvalue
p828
V35
p829
sa(dp830
Vname
p831
Vadh
p832
sVvalue
p833
g4
sa(dp834
Vname
p835
Vxjs
p836
sVvalue
p837
Vinit.106.16.sb_mob.85.dvl.7.async.6.lr.3.c.2
p838
sa(dp839
Vname
p840
Vima
p841
sVvalue
p842
V17
p843
sa(dp844
Vname
p845
Vrt
p846
sVvalue
p847
Vprt.1250,iml.1559,xjsls.1251,qiml.1599,dcl.1405,xjses.1625,xjsee.1973,xjs.1974,ol.2960,aft.1559,wsrt.193,cst.0,dnst.0,rqst.1299,rspt.1305,rqstt.69,unt.2,cstt.2,dit.1544
p848
sasVheaders
p849
(lp850
sVheadersSize
p851
I840
sVbodySize
p852
I0
sVmethod
p853
VGET
p854
sVhttpVersion
p855
VHTTP/1.1
p856
ssVtimings
p857
(dp858
Vcomment
p859
g4
sVreceive
p860
I0
sVsend
p861
I0
sVssl
p862
I-1
sVconnect
p863
I-1
sVdns
p864
I-1
sVwait
p865
I25
sVblocked
p866
I-1
ssVtime
p867
I25
sVresponse
p868
(dp869
Vstatus
p870
I204
sVcomment
p871
g4
sVcookies
p872
(lp873
sVstatusText
p874
VNo Content
p875
sVcontent
p876
(dp877
VmimeType
p878
Vtext/html; charset=UTF-8
p879
sVcomment
p880
g4
sVsize
p881
I0
ssVheaders
p882
(lp883
sVheadersSize
p884
I248
sVredirectURL
p885
g4
sVbodySize
p886
I0
sVhttpVersion
p887
VHTTP/1.1
p888
ssa(dp889
Vcomment
p890
g4
sVserverIPAddress
p891
V216.58.216.196
p892
sVpageref
p893
VHouston Rockets
p894
sVstartedDateTime
p895
V2017-04-16T08:34:25.181-05:00
p896
sVcache
p897
(dp898
sVrequest
p899
(dp900
Vcomment
p901
g4
sVcookies
p902
(lp903
sVurl
p904
Vhttps://www.google.com/async/log_amp_item_set?vet=10ahUKEwjJjN_ci6nTAhWc0YMKHYVQAk0QooQBCAE..i&ei=3XLzWJUfg-OPBJm9hsAM&yv=2&async=num_items:10,_fmt:jspb
p905
sVqueryString
p906
(lp907
(dp908
Vname
p909
Vvet
p910
sVvalue
p911
V10ahUKEwjJjN_ci6nTAhWc0YMKHYVQAk0QooQBCAE..i
p912
sa(dp913
Vname
p914
Vei
p915
sVvalue
p916
V3XLzWJUfg-OPBJm9hsAM
p917
sa(dp918
Vname
p919
Vyv
p920
sVvalue
p921
g64
sa(dp922
Vname
p923
Vasync
p924
sVvalue
p925
Vnum_items:10,_fmt:jspb
p926
sasVheaders
p927
(lp928
sVheadersSize
p929
I669
sVbodySize
p930
I0
sVmethod
p931
VGET
p932
sVhttpVersion
p933
VHTTP/1.1
p934
ssVtimings
p935
(dp936
Vcomment
p937
g4
sVreceive
p938
I0
sVsend
p939
I0
sVssl
p940
I-1
sVconnect
p941
I-1
sVdns
p942
I-1
sVwait
p943
I63
sVblocked
p944
I-1
ssVtime
p945
I64
sVresponse
p946
(dp947
Vstatus
p948
I200
sVcomment
p949
g4
sVcookies
p950
(lp951
sVstatusText
p952
VOK
p953
sVcontent
p954
(dp955
VmimeType
p956
Vapplication/json; charset=UTF-8
p957
sVcomment
p958
g4
sVsize
p959
I0
ssVheaders
p960
(lp961
sVheadersSize
p962
I417
sVredirectURL
p963
g4
sVbodySize
p964
I184
sVhttpVersion
p965
VHTTP/1.1
p966
ssa(dp967
Vcomment
p968
g4
sVserverIPAddress
p969
V216.58.216.193
p970
sVpageref
p971
VHouston Rockets
p972
sVstartedDateTime
p973
V2017-04-16T08:34:25.196-05:00
p974
sVcache
p975
(dp976
sVrequest
p977
(dp978
Vcomment
p979
g4
sVcookies
p980
(lp981
sVurl
p982
Vhttps://www-welcometoloudcity-com.cdn.ampproject.org/v/www.welcometoloudcity.com/platform/amp/2017/4/16/15317522/oklahoma-city-thunder-vs-houston-rockets-game-one-preview-odds-prediction?amp_js_v=9
p983
sVqueryString
p984
(lp985
(dp986
Vname
p987
Vamp_js_v
p988
sVvalue
p989
V9
p990
sasVheaders
p991
(lp992
sVheadersSize
p993
I652
sVbodySize
p994
I0
sVmethod
p995
VGET
p996
sVhttpVersion
p997
VHTTP/1.1
p998
ssVtimings
p999
(dp1000
Vcomment
p1001
g4
sVreceive
p1002
I0
sVsend
p1003
I0
sVssl
p1004
I-1
sVconnect
p1005
I-1
sVdns
p1006
I-1
sVwait
p1007
I32
sVblocked
p1008
I-1
ssVtime
p1009
I32
sVresponse
p1010
(dp1011
Vstatus
p1012
I304
sVcomment
p1013
g4
sVcookies
p1014
(lp1015
sVstatusText
p1016
VNot Modified
p1017
sVcontent
p1018
(dp1019
VmimeType
p1020
Vtext/html
p1021
sVcomment
p1022
g4
sVsize
p1023
I0
ssVheaders
p1024
(lp1025
sVheadersSize
p1026
I342
sVredirectURL
p1027
g4
sVbodySize
p1028
I0
sVhttpVersion
p1029
VHTTP/1.1
p1030
ssa(dp1031
Vcomment
p1032
g4
sVserverIPAddress
p1033
V216.58.216.196
p1034
sVpageref
p1035
VHouston Rockets
p1036
sVstartedDateTime
p1037
V2017-04-16T08:34:26.782-05:00
p1038
sVcache
p1039
(dp1040
sVrequest
p1041
(dp1042
Vcomment
p1043
g4
sVcookies
p1044
(lp1045
sVurl
p1046
Vhttps://www.google.com/gen_204?atyp=i&ct=slh&cad=&ei=xXLzWObzOYPWjwSwqr7IBw&m=V&t=C&s=1&v=2&pv=0.2502535106635656&me=1:1492349641473,x:2,V,0,0,1280,944:0,N,1,xXLzWObzOYPWjwSwqr7IBw:0,R,1,24,0,155,1197,700:0,R,1,25,0,155,1197,698:0,R,1,79,8,863,1264,545:0,R,1,80,8,907,1264,315:0,R,1,81,0,907,1280,335:2,B,3757:19573,e,U&zx=1492349666780
p1047
sVqueryString
p1048
(lp1049
(dp1050
Vname
p1051
Vatyp
p1052
sVvalue
p1053
g30
sa(dp1054
Vname
p1055
Vct
p1056
sVvalue
p1057
Vslh
p1058
sa(dp1059
Vname
p1060
Vcad
p1061
sVvalue
p1062
g4
sa(dp1063
Vname
p1064
Vei
p1065
sVvalue
p1066
VxXLzWObzOYPWjwSwqr7IBw
p1067
sa(dp1068
Vname
p1069
g47
sVvalue
p1070
g49
sa(dp1071
Vname
p1072
g52
sVvalue
p1073
g54
sa(dp1074
Vname
p1075
g57
sVvalue
p1076
g59
sa(dp1077
Vname
p1078
g62
sVvalue
p1079
g64
sa(dp1080
Vname
p1081
Vpv
p1082
sVvalue
p1083
V0.2502535106635656
p1084
sa(dp1085
Vname
p1086
Vme
p1087
sVvalue
p1088
V1:1492349641473,x:2,V,0,0,1280,944:0,N,1,xXLzWObzOYPWjwSwqr7IBw:0,R,1,24,0,155,1197,700:0,R,1,25,0,155,1197,698:0,R,1,79,8,863,1264,545:0,R,1,80,8,907,1264,315:0,R,1,81,0,907,1280,335:2,B,3757:19573,e,U
p1089
sa(dp1090
Vname
p1091
Vzx
p1092
sVvalue
p1093
V1492349666780
p1094
sasVheaders
p1095
(lp1096
sVheadersSize
p1097
I853
sVbodySize
p1098
I0
sVmethod
p1099
VGET
p1100
sVhttpVersion
p1101
VHTTP/1.1
p1102
ssVtimings
p1103
(dp1104
Vcomment
p1105
g4
sVreceive
p1106
I0
sVsend
p1107
I0
sVssl
p1108
I-1
sVconnect
p1109
I-1
sVdns
p1110
I-1
sVwait
p1111
I27
sVblocked
p1112
I-1
ssVtime
p1113
I27
sVresponse
p1114
(dp1115
Vstatus
p1116
I204
sVcomment
p1117
g4
sVcookies
p1118
(lp1119
sVstatusText
p1120
VNo Content
p1121
sVcontent
p1122
(dp1123
VmimeType
p1124
Vtext/html; charset=UTF-8
p1125
sVcomment
p1126
g4
sVsize
p1127
I0
ssVheaders
p1128
(lp1129
sVheadersSize
p1130
I248
sVredirectURL
p1131
g4
sVbodySize
p1132
I0
sVhttpVersion
p1133
VHTTP/1.1
p1134
ssasVversion
p1135
V1.2
p1136
sVpages
p1137
(lp1138
(dp1139
VpageTimings
p1140
(dp1141
Vcomment
p1142
g4
ssVcomment
p1143
g4
sVtitle
p1144
VHouston Rockets
p1145
sVid
p1146
VHouston Rockets
p1147
sVstartedDateTime
p1148
V2017-04-16T08:34:21.044-05:00
p1149
sasVcreator
p1150
(dp1151
Vcomment
p1152
g4
sVversion
p1153
V2.1.4
p1154
sVname
p1155
VBrowserMob Proxy
p1156
sss.